
ata_bd:     file format elf32-i386


Disassembly of section .init:

000010f4 <__entry>:
    10f4:	66 8c d0             	mov    %ss,%ax
    10f7:	8e d8                	mov    %eax,%ds
    10f9:	8e c0                	mov    %eax,%es
    10fb:	8e e0                	mov    %eax,%fs
    10fd:	b8 01 00 00 00       	mov    $0x1,%eax
    1102:	0f a2                	cpuid  
    1104:	0f ba e2 0b          	bt     $0xb,%edx
    1108:	73 0c                	jae    1116 <__entry+0x22>
    110a:	8d 05 60 0f 01 00    	lea    0x10f60,%eax
    1110:	c7 00 b0 ed 00 00    	movl   $0xedb0,(%eax)
    1116:	6a 00                	push   $0x0
    1118:	6a 00                	push   $0x0
    111a:	89 e5                	mov    %esp,%ebp
    111c:	57                   	push   %edi
    111d:	e8 6e d7 00 00       	call   e890 <__main@plt>

Disassembly of section .text:

00001140 <ata_bd_open>:
    1140:	55                   	push   %ebp
    1141:	31 c0                	xor    %eax,%eax
    1143:	89 e5                	mov    %esp,%ebp
    1145:	5d                   	pop    %ebp
    1146:	c3                   	ret    
    1147:	89 f6                	mov    %esi,%esi
    1149:	8d bc 27 00 00 00 00 	lea    0x0(%edi,%eiz,1),%edi

00001150 <ata_bd_close>:
    1150:	55                   	push   %ebp
    1151:	31 c0                	xor    %eax,%eax
    1153:	89 e5                	mov    %esp,%ebp
    1155:	5d                   	pop    %ebp
    1156:	c3                   	ret    
    1157:	89 f6                	mov    %esi,%esi
    1159:	8d bc 27 00 00 00 00 	lea    0x0(%edi,%eiz,1),%edi

00001160 <ata_bd_get_block_size>:
    1160:	55                   	push   %ebp
    1161:	89 e5                	mov    %esp,%ebp
    1163:	8b 45 08             	mov    0x8(%ebp),%eax
    1166:	8b 00                	mov    (%eax),%eax
    1168:	8b 40 04             	mov    0x4(%eax),%eax
    116b:	8b 50 28             	mov    0x28(%eax),%edx
    116e:	8b 45 0c             	mov    0xc(%ebp),%eax
    1171:	89 10                	mov    %edx,(%eax)
    1173:	31 c0                	xor    %eax,%eax
    1175:	5d                   	pop    %ebp
    1176:	c3                   	ret    
    1177:	89 f6                	mov    %esi,%esi
    1179:	8d bc 27 00 00 00 00 	lea    0x0(%edi,%eiz,1),%edi

00001180 <ata_bd_get_num_blocks>:
    1180:	55                   	push   %ebp
    1181:	89 e5                	mov    %esp,%ebp
    1183:	53                   	push   %ebx
    1184:	8b 45 08             	mov    0x8(%ebp),%eax
    1187:	8b 00                	mov    (%eax),%eax
    1189:	8b 40 04             	mov    0x4(%eax),%eax
    118c:	8b 58 24             	mov    0x24(%eax),%ebx
    118f:	8b 48 20             	mov    0x20(%eax),%ecx
    1192:	8b 45 0c             	mov    0xc(%ebp),%eax
    1195:	89 08                	mov    %ecx,(%eax)
    1197:	89 58 04             	mov    %ebx,0x4(%eax)
    119a:	5b                   	pop    %ebx
    119b:	31 c0                	xor    %eax,%eax
    119d:	5d                   	pop    %ebp
    119e:	c3                   	ret    
    119f:	90                   	nop

000011a0 <ata_bd_write_blocks>:
    11a0:	55                   	push   %ebp
    11a1:	89 e5                	mov    %esp,%ebp
    11a3:	57                   	push   %edi
    11a4:	56                   	push   %esi
    11a5:	53                   	push   %ebx
    11a6:	83 ec 4c             	sub    $0x4c,%esp
    11a9:	8b 55 10             	mov    0x10(%ebp),%edx
    11ac:	8b 45 0c             	mov    0xc(%ebp),%eax
    11af:	89 55 d4             	mov    %edx,-0x2c(%ebp)
    11b2:	8b 55 08             	mov    0x8(%ebp),%edx
    11b5:	89 45 d0             	mov    %eax,-0x30(%ebp)
    11b8:	8b 45 14             	mov    0x14(%ebp),%eax
    11bb:	8b 12                	mov    (%edx),%edx
    11bd:	8b 4a 04             	mov    0x4(%edx),%ecx
    11c0:	89 4d cc             	mov    %ecx,-0x34(%ebp)
    11c3:	8b 59 0c             	mov    0xc(%ecx),%ebx
    11c6:	85 db                	test   %ebx,%ebx
    11c8:	0f 85 29 05 00 00    	jne    16f7 <ata_bd_write_blocks+0x557>
    11ce:	8b 51 28             	mov    0x28(%ecx),%edx
    11d1:	0f af d0             	imul   %eax,%edx
    11d4:	3b 55 1c             	cmp    0x1c(%ebp),%edx
    11d7:	77 51                	ja     122a <ata_bd_write_blocks+0x8a>
    11d9:	85 c0                	test   %eax,%eax
    11db:	0f 84 62 03 00 00    	je     1543 <ata_bd_write_blocks+0x3a3>
    11e1:	8b 5d d0             	mov    -0x30(%ebp),%ebx
    11e4:	8b 75 d4             	mov    -0x2c(%ebp),%esi
    11e7:	89 d9                	mov    %ebx,%ecx
    11e9:	88 5d cb             	mov    %bl,-0x35(%ebp)
    11ec:	83 c1 01             	add    $0x1,%ecx
    11ef:	89 f3                	mov    %esi,%ebx
    11f1:	83 d3 00             	adc    $0x0,%ebx
    11f4:	48                   	dec    %eax
    11f5:	31 d2                	xor    %edx,%edx
    11f7:	01 c1                	add    %eax,%ecx
    11f9:	11 d3                	adc    %edx,%ebx
    11fb:	89 4d b0             	mov    %ecx,-0x50(%ebp)
    11fe:	89 5d b4             	mov    %ebx,-0x4c(%ebp)
    1201:	8d b4 26 00 00 00 00 	lea    0x0(%esi,%eiz,1),%esi
    1208:	8b 7d cc             	mov    -0x34(%ebp),%edi
    120b:	8d 45 dc             	lea    -0x24(%ebp),%eax
    120e:	8b 77 04             	mov    0x4(%edi),%esi
    1211:	52                   	push   %edx
    1212:	6a 0c                	push   $0xc
    1214:	6a 00                	push   $0x0
    1216:	50                   	push   %eax
    1217:	e8 f4 d9 00 00       	call   ec10 <memset@plt>
    121c:	8b 5d d4             	mov    -0x2c(%ebp),%ebx
    121f:	83 c4 10             	add    $0x10,%esp
    1222:	8b 4d d0             	mov    -0x30(%ebp),%ecx
    1225:	39 5f 24             	cmp    %ebx,0x24(%edi)
    1228:	73 0e                	jae    1238 <ata_bd_write_blocks+0x98>
    122a:	b8 f2 ff ff ff       	mov    $0xfffffff2,%eax
    122f:	8d 65 f4             	lea    -0xc(%ebp),%esp
    1232:	5b                   	pop    %ebx
    1233:	5e                   	pop    %esi
    1234:	5f                   	pop    %edi
    1235:	5d                   	pop    %ebp
    1236:	c3                   	ret    
    1237:	90                   	nop
    1238:	77 05                	ja     123f <ata_bd_write_blocks+0x9f>
    123a:	39 4f 20             	cmp    %ecx,0x20(%edi)
    123d:	76 eb                	jbe    122a <ata_bd_write_blocks+0x8a>
    123f:	8b 45 cc             	mov    -0x34(%ebp),%eax
    1242:	8b 48 10             	mov    0x10(%eax),%ecx
    1245:	89 4d dc             	mov    %ecx,-0x24(%ebp)
    1248:	83 f9 01             	cmp    $0x1,%ecx
    124b:	0f 84 15 04 00 00    	je     1666 <ata_bd_write_blocks+0x4c6>
    1251:	0f 82 5f 03 00 00    	jb     15b6 <ata_bd_write_blocks+0x416>
    1257:	83 f9 02             	cmp    $0x2,%ecx
    125a:	0f 85 3e 03 00 00    	jne    159e <ata_bd_write_blocks+0x3fe>
    1260:	8a 45 cb             	mov    -0x35(%ebp),%al
    1263:	8b 55 d4             	mov    -0x2c(%ebp),%edx
    1266:	88 45 e0             	mov    %al,-0x20(%ebp)
    1269:	8b 45 d0             	mov    -0x30(%ebp),%eax
    126c:	0f ac d0 08          	shrd   $0x8,%edx,%eax
    1270:	88 45 e1             	mov    %al,-0x1f(%ebp)
    1273:	8b 55 d4             	mov    -0x2c(%ebp),%edx
    1276:	8b 45 d0             	mov    -0x30(%ebp),%eax
    1279:	c6 45 e6 00          	movb   $0x0,-0x1a(%ebp)
    127d:	0f ac d0 10          	shrd   $0x10,%edx,%eax
    1281:	88 45 e2             	mov    %al,-0x1e(%ebp)
    1284:	8b 55 d4             	mov    -0x2c(%ebp),%edx
    1287:	8b 45 d0             	mov    -0x30(%ebp),%eax
    128a:	0f ac d0 18          	shrd   $0x18,%edx,%eax
    128e:	88 45 e3             	mov    %al,-0x1d(%ebp)
    1291:	8b 45 d4             	mov    -0x2c(%ebp),%eax
    1294:	88 45 e4             	mov    %al,-0x1c(%ebp)
    1297:	c1 e8 08             	shr    $0x8,%eax
    129a:	88 45 e5             	mov    %al,-0x1b(%ebp)
    129d:	31 c0                	xor    %eax,%eax
    129f:	8b 55 cc             	mov    -0x34(%ebp),%edx
    12a2:	b3 50                	mov    $0x50,%bl
    12a4:	f6 82 d0 00 00 00 01 	testb  $0x1,0xd0(%edx)
    12ab:	75 0a                	jne    12b7 <ata_bd_write_blocks+0x117>
    12ad:	b2 40                	mov    $0x40,%dl
    12af:	31 db                	xor    %ebx,%ebx
    12b1:	85 c9                	test   %ecx,%ecx
    12b3:	74 02                	je     12b7 <ata_bd_write_blocks+0x117>
    12b5:	88 d3                	mov    %dl,%bl
    12b7:	83 ec 0c             	sub    $0xc,%esp
    12ba:	09 c3                	or     %eax,%ebx
    12bc:	8d 86 bc 01 00 00    	lea    0x1bc(%esi),%eax
    12c2:	50                   	push   %eax
    12c3:	89 45 c0             	mov    %eax,-0x40(%ebp)
    12c6:	e8 35 db 00 00       	call   ee00 <fibril_mutex_lock@plt>
    12cb:	8b 46 0c             	mov    0xc(%esi),%eax
    12ce:	83 c0 07             	add    $0x7,%eax
    12d1:	89 04 24             	mov    %eax,(%esp)
    12d4:	e8 97 d7 00 00       	call   ea70 <pio_read_8@plt>
    12d9:	83 c4 10             	add    $0x10,%esp
    12dc:	84 c0                	test   %al,%al
    12de:	79 22                	jns    1302 <ata_bd_write_blocks+0x162>
    12e0:	bf 63 00 00 00       	mov    $0x63,%edi
    12e5:	8d 76 00             	lea    0x0(%esi),%esi
    12e8:	83 ec 0c             	sub    $0xc,%esp
    12eb:	8b 46 0c             	mov    0xc(%esi),%eax
    12ee:	83 c0 07             	add    $0x7,%eax
    12f1:	50                   	push   %eax
    12f2:	e8 79 d7 00 00       	call   ea70 <pio_read_8@plt>
    12f7:	83 c4 10             	add    $0x10,%esp
    12fa:	84 c0                	test   %al,%al
    12fc:	0f 88 a6 00 00 00    	js     13a8 <ata_bd_write_blocks+0x208>
    1302:	52                   	push   %edx
    1303:	52                   	push   %edx
    1304:	8b 46 0c             	mov    0xc(%esi),%eax
    1307:	83 c0 06             	add    $0x6,%eax
    130a:	0f be db             	movsbl %bl,%ebx
    130d:	53                   	push   %ebx
    130e:	50                   	push   %eax
    130f:	e8 dc d7 00 00       	call   eaf0 <pio_write_8@plt>
    1314:	8b 46 0c             	mov    0xc(%esi),%eax
    1317:	83 c0 07             	add    $0x7,%eax
    131a:	bb 64 00 00 00       	mov    $0x64,%ebx
    131f:	89 04 24             	mov    %eax,(%esp)
    1322:	e8 49 d7 00 00       	call   ea70 <pio_read_8@plt>
    1327:	83 c4 10             	add    $0x10,%esp
    132a:	eb 19                	jmp    1345 <ata_bd_write_blocks+0x1a5>
    132c:	8d 74 26 00          	lea    0x0(%esi,%eiz,1),%esi
    1330:	4b                   	dec    %ebx
    1331:	74 1a                	je     134d <ata_bd_write_blocks+0x1ad>
    1333:	83 ec 0c             	sub    $0xc,%esp
    1336:	8b 46 0c             	mov    0xc(%esi),%eax
    1339:	83 c0 07             	add    $0x7,%eax
    133c:	50                   	push   %eax
    133d:	e8 2e d7 00 00       	call   ea70 <pio_read_8@plt>
    1342:	83 c4 10             	add    $0x10,%esp
    1345:	84 c0                	test   %al,%al
    1347:	78 e7                	js     1330 <ata_bd_write_blocks+0x190>
    1349:	a8 40                	test   $0x40,%al
    134b:	74 e3                	je     1330 <ata_bd_write_blocks+0x190>
    134d:	bb e8 03 00 00       	mov    $0x3e8,%ebx
    1352:	eb 16                	jmp    136a <ata_bd_write_blocks+0x1ca>
    1354:	8d 74 26 00          	lea    0x0(%esi,%eiz,1),%esi
    1358:	83 ec 0c             	sub    $0xc,%esp
    135b:	8b 46 0c             	mov    0xc(%esi),%eax
    135e:	83 c0 07             	add    $0x7,%eax
    1361:	50                   	push   %eax
    1362:	e8 09 d7 00 00       	call   ea70 <pio_read_8@plt>
    1367:	83 c4 10             	add    $0x10,%esp
    136a:	84 c0                	test   %al,%al
    136c:	78 08                	js     1376 <ata_bd_write_blocks+0x1d6>
    136e:	a8 40                	test   $0x40,%al
    1370:	0f 85 82 00 00 00    	jne    13f8 <ata_bd_write_blocks+0x258>
    1376:	83 ec 0c             	sub    $0xc,%esp
    1379:	68 10 27 00 00       	push   $0x2710
    137e:	e8 cd d8 00 00       	call   ec50 <async_usleep@plt>
    1383:	83 c4 10             	add    $0x10,%esp
    1386:	4b                   	dec    %ebx
    1387:	75 cf                	jne    1358 <ata_bd_write_blocks+0x1b8>
    1389:	83 ec 0c             	sub    $0xc,%esp
    138c:	8b 45 c0             	mov    -0x40(%ebp),%eax
    138f:	50                   	push   %eax
    1390:	e8 ab d7 00 00       	call   eb40 <fibril_mutex_unlock@plt>
    1395:	83 c4 10             	add    $0x10,%esp
    1398:	8d 65 f4             	lea    -0xc(%ebp),%esp
    139b:	b8 f6 fe ff ff       	mov    $0xfffffef6,%eax
    13a0:	5b                   	pop    %ebx
    13a1:	5e                   	pop    %esi
    13a2:	5f                   	pop    %edi
    13a3:	5d                   	pop    %ebp
    13a4:	c3                   	ret    
    13a5:	8d 76 00             	lea    0x0(%esi),%esi
    13a8:	4f                   	dec    %edi
    13a9:	0f 85 39 ff ff ff    	jne    12e8 <ata_bd_write_blocks+0x148>
    13af:	83 ec 0c             	sub    $0xc,%esp
    13b2:	bf 63 00 00 00       	mov    $0x63,%edi
    13b7:	68 10 27 00 00       	push   $0x2710
    13bc:	e8 8f d8 00 00       	call   ec50 <async_usleep@plt>
    13c1:	83 c4 10             	add    $0x10,%esp
    13c4:	83 ec 0c             	sub    $0xc,%esp
    13c7:	8b 46 0c             	mov    0xc(%esi),%eax
    13ca:	83 c0 07             	add    $0x7,%eax
    13cd:	50                   	push   %eax
    13ce:	e8 9d d6 00 00       	call   ea70 <pio_read_8@plt>
    13d3:	83 c4 10             	add    $0x10,%esp
    13d6:	84 c0                	test   %al,%al
    13d8:	0f 89 24 ff ff ff    	jns    1302 <ata_bd_write_blocks+0x162>
    13de:	83 ec 0c             	sub    $0xc,%esp
    13e1:	68 10 27 00 00       	push   $0x2710
    13e6:	e8 65 d8 00 00       	call   ec50 <async_usleep@plt>
    13eb:	83 c4 10             	add    $0x10,%esp
    13ee:	4f                   	dec    %edi
    13ef:	75 d3                	jne    13c4 <ata_bd_write_blocks+0x224>
    13f1:	eb 96                	jmp    1389 <ata_bd_write_blocks+0x1e9>
    13f3:	90                   	nop
    13f4:	8d 74 26 00          	lea    0x0(%esi,%eiz,1),%esi
    13f8:	8b 46 0c             	mov    0xc(%esi),%eax
    13fb:	83 7d dc 02          	cmpl   $0x2,-0x24(%ebp)
    13ff:	8d 50 02             	lea    0x2(%eax),%edx
    1402:	0f 84 93 02 00 00    	je     169b <ata_bd_write_blocks+0x4fb>
    1408:	8d 78 03             	lea    0x3(%eax),%edi
    140b:	8d 58 04             	lea    0x4(%eax),%ebx
    140e:	83 c0 05             	add    $0x5,%eax
    1411:	89 45 b8             	mov    %eax,-0x48(%ebp)
    1414:	50                   	push   %eax
    1415:	50                   	push   %eax
    1416:	6a 01                	push   $0x1
    1418:	52                   	push   %edx
    1419:	e8 d2 d6 00 00       	call   eaf0 <pio_write_8@plt>
    141e:	58                   	pop    %eax
    141f:	31 c0                	xor    %eax,%eax
    1421:	5a                   	pop    %edx
    1422:	8a 45 e0             	mov    -0x20(%ebp),%al
    1425:	50                   	push   %eax
    1426:	57                   	push   %edi
    1427:	e8 c4 d6 00 00       	call   eaf0 <pio_write_8@plt>
    142c:	31 c0                	xor    %eax,%eax
    142e:	8a 45 e1             	mov    -0x1f(%ebp),%al
    1431:	59                   	pop    %ecx
    1432:	5f                   	pop    %edi
    1433:	50                   	push   %eax
    1434:	53                   	push   %ebx
    1435:	e8 b6 d6 00 00       	call   eaf0 <pio_write_8@plt>
    143a:	58                   	pop    %eax
    143b:	31 c0                	xor    %eax,%eax
    143d:	8a 45 e2             	mov    -0x1e(%ebp),%al
    1440:	8b 4d b8             	mov    -0x48(%ebp),%ecx
    1443:	5a                   	pop    %edx
    1444:	50                   	push   %eax
    1445:	51                   	push   %ecx
    1446:	e8 a5 d6 00 00       	call   eaf0 <pio_write_8@plt>
    144b:	5b                   	pop    %ebx
    144c:	5f                   	pop    %edi
    144d:	8b 7d cc             	mov    -0x34(%ebp),%edi
    1450:	83 7f 10 02          	cmpl   $0x2,0x10(%edi)
    1454:	0f 94 c0             	sete   %al
    1457:	25 ff 00 00 00       	and    $0xff,%eax
    145c:	8d 04 85 30 00 00 00 	lea    0x30(,%eax,4),%eax
    1463:	50                   	push   %eax
    1464:	8b 46 0c             	mov    0xc(%esi),%eax
    1467:	83 c0 07             	add    $0x7,%eax
    146a:	50                   	push   %eax
    146b:	e8 80 d6 00 00       	call   eaf0 <pio_write_8@plt>
    1470:	89 f8                	mov    %edi,%eax
    1472:	8b 7f 28             	mov    0x28(%edi),%edi
    1475:	83 c4 10             	add    $0x10,%esp
    1478:	8b 70 04             	mov    0x4(%eax),%esi
    147b:	f7 c7 01 00 00 00    	test   $0x1,%edi
    1481:	0f 85 8d 02 00 00    	jne    1714 <ata_bd_write_blocks+0x574>
    1487:	83 ec 0c             	sub    $0xc,%esp
    148a:	8b 46 0c             	mov    0xc(%esi),%eax
    148d:	83 c0 07             	add    $0x7,%eax
    1490:	50                   	push   %eax
    1491:	e8 da d5 00 00       	call   ea70 <pio_read_8@plt>
    1496:	83 c4 10             	add    $0x10,%esp
    1499:	84 c0                	test   %al,%al
    149b:	79 25                	jns    14c2 <ata_bd_write_blocks+0x322>
    149d:	bb 63 00 00 00       	mov    $0x63,%ebx
    14a2:	8d b6 00 00 00 00    	lea    0x0(%esi),%esi
    14a8:	83 ec 0c             	sub    $0xc,%esp
    14ab:	8b 46 0c             	mov    0xc(%esi),%eax
    14ae:	83 c0 07             	add    $0x7,%eax
    14b1:	50                   	push   %eax
    14b2:	e8 b9 d5 00 00       	call   ea70 <pio_read_8@plt>
    14b7:	83 c4 10             	add    $0x10,%esp
    14ba:	84 c0                	test   %al,%al
    14bc:	0f 88 8e 00 00 00    	js     1550 <ata_bd_write_blocks+0x3b0>
    14c2:	a8 08                	test   $0x8,%al
    14c4:	74 31                	je     14f7 <ata_bd_write_blocks+0x357>
    14c6:	89 fa                	mov    %edi,%edx
    14c8:	d1 ea                	shr    %edx
    14ca:	74 2b                	je     14f7 <ata_bd_write_blocks+0x357>
    14cc:	8b 7d 18             	mov    0x18(%ebp),%edi
    14cf:	88 45 b8             	mov    %al,-0x48(%ebp)
    14d2:	8d 1c 57             	lea    (%edi,%edx,2),%ebx
    14d5:	8d 76 00             	lea    0x0(%esi),%esi
    14d8:	31 d2                	xor    %edx,%edx
    14da:	50                   	push   %eax
    14db:	50                   	push   %eax
    14dc:	83 c7 02             	add    $0x2,%edi
    14df:	66 8b 57 fe          	mov    -0x2(%edi),%dx
    14e3:	8b 46 0c             	mov    0xc(%esi),%eax
    14e6:	52                   	push   %edx
    14e7:	50                   	push   %eax
    14e8:	e8 d3 d5 00 00       	call   eac0 <pio_write_16@plt>
    14ed:	83 c4 10             	add    $0x10,%esp
    14f0:	39 fb                	cmp    %edi,%ebx
    14f2:	75 e4                	jne    14d8 <ata_bd_write_blocks+0x338>
    14f4:	8a 45 b8             	mov    -0x48(%ebp),%al
    14f7:	a8 01                	test   $0x1,%al
    14f9:	0f 85 8a fe ff ff    	jne    1389 <ata_bd_write_blocks+0x1e9>
    14ff:	83 ec 0c             	sub    $0xc,%esp
    1502:	8b 4d c0             	mov    -0x40(%ebp),%ecx
    1505:	51                   	push   %ecx
    1506:	e8 35 d6 00 00       	call   eb40 <fibril_mutex_unlock@plt>
    150b:	83 45 d0 01          	addl   $0x1,-0x30(%ebp)
    150f:	8b 45 cc             	mov    -0x34(%ebp),%eax
    1512:	8b 5d 18             	mov    0x18(%ebp),%ebx
    1515:	83 55 d4 00          	adcl   $0x0,-0x2c(%ebp)
    1519:	8b 75 d0             	mov    -0x30(%ebp),%esi
    151c:	8b 40 28             	mov    0x28(%eax),%eax
    151f:	8b 7d d4             	mov    -0x2c(%ebp),%edi
    1522:	01 c3                	add    %eax,%ebx
    1524:	8b 4d b0             	mov    -0x50(%ebp),%ecx
    1527:	89 5d 18             	mov    %ebx,0x18(%ebp)
    152a:	89 f0                	mov    %esi,%eax
    152c:	8b 5d b4             	mov    -0x4c(%ebp),%ebx
    152f:	89 fa                	mov    %edi,%edx
    1531:	31 c8                	xor    %ecx,%eax
    1533:	31 da                	xor    %ebx,%edx
    1535:	fe 45 cb             	incb   -0x35(%ebp)
    1538:	83 c4 10             	add    $0x10,%esp
    153b:	09 c2                	or     %eax,%edx
    153d:	0f 85 c5 fc ff ff    	jne    1208 <ata_bd_write_blocks+0x68>
    1543:	31 c0                	xor    %eax,%eax
    1545:	e9 e5 fc ff ff       	jmp    122f <ata_bd_write_blocks+0x8f>
    154a:	8d b6 00 00 00 00    	lea    0x0(%esi),%esi
    1550:	4b                   	dec    %ebx
    1551:	0f 85 51 ff ff ff    	jne    14a8 <ata_bd_write_blocks+0x308>
    1557:	83 ec 0c             	sub    $0xc,%esp
    155a:	bb 63 00 00 00       	mov    $0x63,%ebx
    155f:	68 10 27 00 00       	push   $0x2710
    1564:	e8 e7 d6 00 00       	call   ec50 <async_usleep@plt>
    1569:	83 c4 10             	add    $0x10,%esp
    156c:	83 ec 0c             	sub    $0xc,%esp
    156f:	8b 46 0c             	mov    0xc(%esi),%eax
    1572:	83 c0 07             	add    $0x7,%eax
    1575:	50                   	push   %eax
    1576:	e8 f5 d4 00 00       	call   ea70 <pio_read_8@plt>
    157b:	83 c4 10             	add    $0x10,%esp
    157e:	84 c0                	test   %al,%al
    1580:	0f 89 3c ff ff ff    	jns    14c2 <ata_bd_write_blocks+0x322>
    1586:	83 ec 0c             	sub    $0xc,%esp
    1589:	68 10 27 00 00       	push   $0x2710
    158e:	e8 bd d6 00 00       	call   ec50 <async_usleep@plt>
    1593:	83 c4 10             	add    $0x10,%esp
    1596:	4b                   	dec    %ebx
    1597:	75 d3                	jne    156c <ata_bd_write_blocks+0x3cc>
    1599:	e9 eb fd ff ff       	jmp    1389 <ata_bd_write_blocks+0x1e9>
    159e:	f6 80 d0 00 00 00 01 	testb  $0x1,0xd0(%eax)
    15a5:	8a 45 e6             	mov    -0x1a(%ebp),%al
    15a8:	0f 85 53 01 00 00    	jne    1701 <ata_bd_write_blocks+0x561>
    15ae:	83 e0 0f             	and    $0xf,%eax
    15b1:	e9 f7 fc ff ff       	jmp    12ad <ata_bd_write_blocks+0x10d>
    15b6:	8b 78 1c             	mov    0x1c(%eax),%edi
    15b9:	8b 48 14             	mov    0x14(%eax),%ecx
    15bc:	0f af cf             	imul   %edi,%ecx
    15bf:	31 db                	xor    %ebx,%ebx
    15c1:	89 4d c0             	mov    %ecx,-0x40(%ebp)
    15c4:	53                   	push   %ebx
    15c5:	89 5d c4             	mov    %ebx,-0x3c(%ebp)
    15c8:	51                   	push   %ecx
    15c9:	8b 5d d0             	mov    -0x30(%ebp),%ebx
    15cc:	8b 4d d4             	mov    -0x2c(%ebp),%ecx
    15cf:	51                   	push   %ecx
    15d0:	53                   	push   %ebx
    15d1:	e8 5a d4 00 00       	call   ea30 <__udivdi3@plt>
    15d6:	83 c4 10             	add    $0x10,%esp
    15d9:	8b 4d c0             	mov    -0x40(%ebp),%ecx
    15dc:	8b 5d c4             	mov    -0x3c(%ebp),%ebx
    15df:	89 45 b8             	mov    %eax,-0x48(%ebp)
    15e2:	8b 45 d4             	mov    -0x2c(%ebp),%eax
    15e5:	53                   	push   %ebx
    15e6:	51                   	push   %ecx
    15e7:	50                   	push   %eax
    15e8:	8b 45 d0             	mov    -0x30(%ebp),%eax
    15eb:	50                   	push   %eax
    15ec:	89 55 bc             	mov    %edx,-0x44(%ebp)
    15ef:	e8 2c d4 00 00       	call   ea20 <__umoddi3@plt>
    15f4:	83 c4 10             	add    $0x10,%esp
    15f7:	89 45 c0             	mov    %eax,-0x40(%ebp)
    15fa:	89 55 c4             	mov    %edx,-0x3c(%ebp)
    15fd:	8b 45 b8             	mov    -0x48(%ebp),%eax
    1600:	8b 55 bc             	mov    -0x44(%ebp),%edx
    1603:	88 45 e1             	mov    %al,-0x1f(%ebp)
    1606:	31 db                	xor    %ebx,%ebx
    1608:	0f ac d0 08          	shrd   $0x8,%edx,%eax
    160c:	88 45 e2             	mov    %al,-0x1e(%ebp)
    160f:	8b 45 c4             	mov    -0x3c(%ebp),%eax
    1612:	53                   	push   %ebx
    1613:	57                   	push   %edi
    1614:	50                   	push   %eax
    1615:	8b 45 c0             	mov    -0x40(%ebp),%eax
    1618:	89 7d b8             	mov    %edi,-0x48(%ebp)
    161b:	89 5d bc             	mov    %ebx,-0x44(%ebp)
    161e:	50                   	push   %eax
    161f:	e8 0c d4 00 00       	call   ea30 <__udivdi3@plt>
    1624:	89 c7                	mov    %eax,%edi
    1626:	83 c4 10             	add    $0x10,%esp
    1629:	83 e7 0f             	and    $0xf,%edi
    162c:	8b 4d b8             	mov    -0x48(%ebp),%ecx
    162f:	89 f8                	mov    %edi,%eax
    1631:	8b 5d bc             	mov    -0x44(%ebp),%ebx
    1634:	88 45 e6             	mov    %al,-0x1a(%ebp)
    1637:	8b 45 c4             	mov    -0x3c(%ebp),%eax
    163a:	53                   	push   %ebx
    163b:	51                   	push   %ecx
    163c:	50                   	push   %eax
    163d:	8b 45 c0             	mov    -0x40(%ebp),%eax
    1640:	50                   	push   %eax
    1641:	e8 da d3 00 00       	call   ea20 <__umoddi3@plt>
    1646:	40                   	inc    %eax
    1647:	83 c4 10             	add    $0x10,%esp
    164a:	88 45 e0             	mov    %al,-0x20(%ebp)
    164d:	8b 45 cc             	mov    -0x34(%ebp),%eax
    1650:	f6 80 d0 00 00 00 01 	testb  $0x1,0xd0(%eax)
    1657:	89 f8                	mov    %edi,%eax
    1659:	0f 84 ae 00 00 00    	je     170d <ata_bd_write_blocks+0x56d>
    165f:	b3 10                	mov    $0x10,%bl
    1661:	e9 51 fc ff ff       	jmp    12b7 <ata_bd_write_blocks+0x117>
    1666:	8a 45 cb             	mov    -0x35(%ebp),%al
    1669:	8b 55 d4             	mov    -0x2c(%ebp),%edx
    166c:	88 45 e0             	mov    %al,-0x20(%ebp)
    166f:	8b 45 d0             	mov    -0x30(%ebp),%eax
    1672:	0f ac d0 08          	shrd   $0x8,%edx,%eax
    1676:	88 45 e1             	mov    %al,-0x1f(%ebp)
    1679:	8b 55 d4             	mov    -0x2c(%ebp),%edx
    167c:	8b 45 d0             	mov    -0x30(%ebp),%eax
    167f:	0f ac d0 10          	shrd   $0x10,%edx,%eax
    1683:	88 45 e2             	mov    %al,-0x1e(%ebp)
    1686:	8b 55 d4             	mov    -0x2c(%ebp),%edx
    1689:	8b 45 d0             	mov    -0x30(%ebp),%eax
    168c:	0f ac d0 18          	shrd   $0x18,%edx,%eax
    1690:	83 e0 0f             	and    $0xf,%eax
    1693:	88 45 e6             	mov    %al,-0x1a(%ebp)
    1696:	e9 04 fc ff ff       	jmp    129f <ata_bd_write_blocks+0xff>
    169b:	89 45 b8             	mov    %eax,-0x48(%ebp)
    169e:	89 55 ac             	mov    %edx,-0x54(%ebp)
    16a1:	50                   	push   %eax
    16a2:	50                   	push   %eax
    16a3:	6a 00                	push   $0x0
    16a5:	52                   	push   %edx
    16a6:	e8 45 d4 00 00       	call   eaf0 <pio_write_8@plt>
    16ab:	8b 45 b8             	mov    -0x48(%ebp),%eax
    16ae:	31 c9                	xor    %ecx,%ecx
    16b0:	8d 78 03             	lea    0x3(%eax),%edi
    16b3:	8a 4d e3             	mov    -0x1d(%ebp),%cl
    16b6:	58                   	pop    %eax
    16b7:	5a                   	pop    %edx
    16b8:	51                   	push   %ecx
    16b9:	57                   	push   %edi
    16ba:	e8 31 d4 00 00       	call   eaf0 <pio_write_8@plt>
    16bf:	8b 45 b8             	mov    -0x48(%ebp),%eax
    16c2:	59                   	pop    %ecx
    16c3:	31 c9                	xor    %ecx,%ecx
    16c5:	8a 4d e4             	mov    -0x1c(%ebp),%cl
    16c8:	8d 58 04             	lea    0x4(%eax),%ebx
    16cb:	58                   	pop    %eax
    16cc:	51                   	push   %ecx
    16cd:	53                   	push   %ebx
    16ce:	e8 1d d4 00 00       	call   eaf0 <pio_write_8@plt>
    16d3:	8b 45 b8             	mov    -0x48(%ebp),%eax
    16d6:	83 c0 05             	add    $0x5,%eax
    16d9:	89 c1                	mov    %eax,%ecx
    16db:	89 45 b8             	mov    %eax,-0x48(%ebp)
    16de:	58                   	pop    %eax
    16df:	31 c0                	xor    %eax,%eax
    16e1:	8a 45 e5             	mov    -0x1b(%ebp),%al
    16e4:	5a                   	pop    %edx
    16e5:	50                   	push   %eax
    16e6:	51                   	push   %ecx
    16e7:	e8 04 d4 00 00       	call   eaf0 <pio_write_8@plt>
    16ec:	83 c4 10             	add    $0x10,%esp
    16ef:	8b 55 ac             	mov    -0x54(%ebp),%edx
    16f2:	e9 1d fd ff ff       	jmp    1414 <ata_bd_write_blocks+0x274>
    16f7:	b8 f5 ff ff ff       	mov    $0xfffffff5,%eax
    16fc:	e9 2e fb ff ff       	jmp    122f <ata_bd_write_blocks+0x8f>
    1701:	83 e0 0f             	and    $0xf,%eax
    1704:	b2 50                	mov    $0x50,%dl
    1706:	b3 10                	mov    $0x10,%bl
    1708:	e9 a4 fb ff ff       	jmp    12b1 <ata_bd_write_blocks+0x111>
    170d:	31 db                	xor    %ebx,%ebx
    170f:	e9 a3 fb ff ff       	jmp    12b7 <ata_bd_write_blocks+0x117>
    1714:	50                   	push   %eax
    1715:	68 83 02 00 00       	push   $0x283
    171a:	68 8f c7 00 00       	push   $0xc78f
    171f:	68 98 c7 00 00       	push   $0xc798
    1724:	e8 67 d3 00 00       	call   ea90 <assert_abort@plt>
    1729:	8d b4 26 00 00 00 00 	lea    0x0(%esi,%eiz,1),%esi

00001730 <ata_bd_sync_cache>:
    1730:	55                   	push   %ebp
    1731:	89 e5                	mov    %esp,%ebp
    1733:	57                   	push   %edi
    1734:	56                   	push   %esi
    1735:	53                   	push   %ebx
    1736:	83 ec 1c             	sub    $0x1c,%esp
    1739:	8b 45 08             	mov    0x8(%ebp),%eax
    173c:	8b 00                	mov    (%eax),%eax
    173e:	8b 40 04             	mov    0x4(%eax),%eax
    1741:	89 45 e0             	mov    %eax,-0x20(%ebp)
    1744:	8b 58 04             	mov    0x4(%eax),%ebx
    1747:	8b 80 d0 00 00 00    	mov    0xd0(%eax),%eax
    174d:	89 c7                	mov    %eax,%edi
    174f:	83 e7 01             	and    $0x1,%edi
    1752:	74 05                	je     1759 <ata_bd_sync_cache+0x29>
    1754:	bf 10 00 00 00       	mov    $0x10,%edi
    1759:	83 ec 0c             	sub    $0xc,%esp
    175c:	8d 83 bc 01 00 00    	lea    0x1bc(%ebx),%eax
    1762:	89 45 e4             	mov    %eax,-0x1c(%ebp)
    1765:	50                   	push   %eax
    1766:	e8 95 d6 00 00       	call   ee00 <fibril_mutex_lock@plt>
    176b:	8b 43 0c             	mov    0xc(%ebx),%eax
    176e:	83 c0 07             	add    $0x7,%eax
    1771:	89 04 24             	mov    %eax,(%esp)
    1774:	e8 f7 d2 00 00       	call   ea70 <pio_read_8@plt>
    1779:	83 c4 10             	add    $0x10,%esp
    177c:	84 c0                	test   %al,%al
    177e:	79 22                	jns    17a2 <ata_bd_sync_cache+0x72>
    1780:	be 63 00 00 00       	mov    $0x63,%esi
    1785:	8d 76 00             	lea    0x0(%esi),%esi
    1788:	83 ec 0c             	sub    $0xc,%esp
    178b:	8b 43 0c             	mov    0xc(%ebx),%eax
    178e:	83 c0 07             	add    $0x7,%eax
    1791:	50                   	push   %eax
    1792:	e8 d9 d2 00 00       	call   ea70 <pio_read_8@plt>
    1797:	83 c4 10             	add    $0x10,%esp
    179a:	84 c0                	test   %al,%al
    179c:	0f 88 a6 00 00 00    	js     1848 <ata_bd_sync_cache+0x118>
    17a2:	51                   	push   %ecx
    17a3:	51                   	push   %ecx
    17a4:	8b 43 0c             	mov    0xc(%ebx),%eax
    17a7:	57                   	push   %edi
    17a8:	83 c0 06             	add    $0x6,%eax
    17ab:	be 64 00 00 00       	mov    $0x64,%esi
    17b0:	50                   	push   %eax
    17b1:	e8 3a d3 00 00       	call   eaf0 <pio_write_8@plt>
    17b6:	8b 43 0c             	mov    0xc(%ebx),%eax
    17b9:	83 c0 07             	add    $0x7,%eax
    17bc:	89 04 24             	mov    %eax,(%esp)
    17bf:	e8 ac d2 00 00       	call   ea70 <pio_read_8@plt>
    17c4:	83 c4 10             	add    $0x10,%esp
    17c7:	eb 1c                	jmp    17e5 <ata_bd_sync_cache+0xb5>
    17c9:	8d b4 26 00 00 00 00 	lea    0x0(%esi,%eiz,1),%esi
    17d0:	4e                   	dec    %esi
    17d1:	74 1a                	je     17ed <ata_bd_sync_cache+0xbd>
    17d3:	83 ec 0c             	sub    $0xc,%esp
    17d6:	8b 43 0c             	mov    0xc(%ebx),%eax
    17d9:	83 c0 07             	add    $0x7,%eax
    17dc:	50                   	push   %eax
    17dd:	e8 8e d2 00 00       	call   ea70 <pio_read_8@plt>
    17e2:	83 c4 10             	add    $0x10,%esp
    17e5:	84 c0                	test   %al,%al
    17e7:	78 e7                	js     17d0 <ata_bd_sync_cache+0xa0>
    17e9:	a8 40                	test   $0x40,%al
    17eb:	74 e3                	je     17d0 <ata_bd_sync_cache+0xa0>
    17ed:	be e8 03 00 00       	mov    $0x3e8,%esi
    17f2:	eb 16                	jmp    180a <ata_bd_sync_cache+0xda>
    17f4:	8d 74 26 00          	lea    0x0(%esi,%eiz,1),%esi
    17f8:	83 ec 0c             	sub    $0xc,%esp
    17fb:	8b 43 0c             	mov    0xc(%ebx),%eax
    17fe:	83 c0 07             	add    $0x7,%eax
    1801:	50                   	push   %eax
    1802:	e8 69 d2 00 00       	call   ea70 <pio_read_8@plt>
    1807:	83 c4 10             	add    $0x10,%esp
    180a:	84 c0                	test   %al,%al
    180c:	78 08                	js     1816 <ata_bd_sync_cache+0xe6>
    180e:	a8 40                	test   $0x40,%al
    1810:	0f 85 82 00 00 00    	jne    1898 <ata_bd_sync_cache+0x168>
    1816:	83 ec 0c             	sub    $0xc,%esp
    1819:	68 10 27 00 00       	push   $0x2710
    181e:	e8 2d d4 00 00       	call   ec50 <async_usleep@plt>
    1823:	83 c4 10             	add    $0x10,%esp
    1826:	4e                   	dec    %esi
    1827:	75 cf                	jne    17f8 <ata_bd_sync_cache+0xc8>
    1829:	83 ec 0c             	sub    $0xc,%esp
    182c:	8b 55 e4             	mov    -0x1c(%ebp),%edx
    182f:	bb f6 fe ff ff       	mov    $0xfffffef6,%ebx
    1834:	52                   	push   %edx
    1835:	e8 06 d3 00 00       	call   eb40 <fibril_mutex_unlock@plt>
    183a:	83 c4 10             	add    $0x10,%esp
    183d:	8d 65 f4             	lea    -0xc(%ebp),%esp
    1840:	89 d8                	mov    %ebx,%eax
    1842:	5b                   	pop    %ebx
    1843:	5e                   	pop    %esi
    1844:	5f                   	pop    %edi
    1845:	5d                   	pop    %ebp
    1846:	c3                   	ret    
    1847:	90                   	nop
    1848:	4e                   	dec    %esi
    1849:	0f 85 39 ff ff ff    	jne    1788 <ata_bd_sync_cache+0x58>
    184f:	83 ec 0c             	sub    $0xc,%esp
    1852:	be 63 00 00 00       	mov    $0x63,%esi
    1857:	68 10 27 00 00       	push   $0x2710
    185c:	e8 ef d3 00 00       	call   ec50 <async_usleep@plt>
    1861:	83 c4 10             	add    $0x10,%esp
    1864:	83 ec 0c             	sub    $0xc,%esp
    1867:	8b 43 0c             	mov    0xc(%ebx),%eax
    186a:	83 c0 07             	add    $0x7,%eax
    186d:	50                   	push   %eax
    186e:	e8 fd d1 00 00       	call   ea70 <pio_read_8@plt>
    1873:	83 c4 10             	add    $0x10,%esp
    1876:	84 c0                	test   %al,%al
    1878:	0f 89 24 ff ff ff    	jns    17a2 <ata_bd_sync_cache+0x72>
    187e:	83 ec 0c             	sub    $0xc,%esp
    1881:	68 10 27 00 00       	push   $0x2710
    1886:	e8 c5 d3 00 00       	call   ec50 <async_usleep@plt>
    188b:	83 c4 10             	add    $0x10,%esp
    188e:	4e                   	dec    %esi
    188f:	75 d3                	jne    1864 <ata_bd_sync_cache+0x134>
    1891:	eb 96                	jmp    1829 <ata_bd_sync_cache+0xf9>
    1893:	90                   	nop
    1894:	8d 74 26 00          	lea    0x0(%esi,%eiz,1),%esi
    1898:	50                   	push   %eax
    1899:	50                   	push   %eax
    189a:	8b 43 0c             	mov    0xc(%ebx),%eax
    189d:	68 e7 00 00 00       	push   $0xe7
    18a2:	83 c0 07             	add    $0x7,%eax
    18a5:	50                   	push   %eax
    18a6:	e8 45 d2 00 00       	call   eaf0 <pio_write_8@plt>
    18ab:	8b 45 e0             	mov    -0x20(%ebp),%eax
    18ae:	8b 70 04             	mov    0x4(%eax),%esi
    18b1:	8b 46 0c             	mov    0xc(%esi),%eax
    18b4:	83 c0 07             	add    $0x7,%eax
    18b7:	89 04 24             	mov    %eax,(%esp)
    18ba:	e8 b1 d1 00 00       	call   ea70 <pio_read_8@plt>
    18bf:	83 c4 10             	add    $0x10,%esp
    18c2:	84 c0                	test   %al,%al
    18c4:	79 23                	jns    18e9 <ata_bd_sync_cache+0x1b9>
    18c6:	bb 63 00 00 00       	mov    $0x63,%ebx
    18cb:	eb 06                	jmp    18d3 <ata_bd_sync_cache+0x1a3>
    18cd:	8d 76 00             	lea    0x0(%esi),%esi
    18d0:	4b                   	dec    %ebx
    18d1:	74 35                	je     1908 <ata_bd_sync_cache+0x1d8>
    18d3:	83 ec 0c             	sub    $0xc,%esp
    18d6:	8b 46 0c             	mov    0xc(%esi),%eax
    18d9:	83 c0 07             	add    $0x7,%eax
    18dc:	50                   	push   %eax
    18dd:	e8 8e d1 00 00       	call   ea70 <pio_read_8@plt>
    18e2:	83 c4 10             	add    $0x10,%esp
    18e5:	84 c0                	test   %al,%al
    18e7:	78 e7                	js     18d0 <ata_bd_sync_cache+0x1a0>
    18e9:	a8 01                	test   $0x1,%al
    18eb:	75 59                	jne    1946 <ata_bd_sync_cache+0x216>
    18ed:	31 db                	xor    %ebx,%ebx
    18ef:	83 ec 0c             	sub    $0xc,%esp
    18f2:	8b 75 e4             	mov    -0x1c(%ebp),%esi
    18f5:	56                   	push   %esi
    18f6:	e8 45 d2 00 00       	call   eb40 <fibril_mutex_unlock@plt>
    18fb:	83 c4 10             	add    $0x10,%esp
    18fe:	8d 65 f4             	lea    -0xc(%ebp),%esp
    1901:	89 d8                	mov    %ebx,%eax
    1903:	5b                   	pop    %ebx
    1904:	5e                   	pop    %esi
    1905:	5f                   	pop    %edi
    1906:	5d                   	pop    %ebp
    1907:	c3                   	ret    
    1908:	83 ec 0c             	sub    $0xc,%esp
    190b:	bb 63 00 00 00       	mov    $0x63,%ebx
    1910:	68 10 27 00 00       	push   $0x2710
    1915:	e8 36 d3 00 00       	call   ec50 <async_usleep@plt>
    191a:	83 c4 10             	add    $0x10,%esp
    191d:	83 ec 0c             	sub    $0xc,%esp
    1920:	8b 46 0c             	mov    0xc(%esi),%eax
    1923:	83 c0 07             	add    $0x7,%eax
    1926:	50                   	push   %eax
    1927:	e8 44 d1 00 00       	call   ea70 <pio_read_8@plt>
    192c:	83 c4 10             	add    $0x10,%esp
    192f:	84 c0                	test   %al,%al
    1931:	79 b6                	jns    18e9 <ata_bd_sync_cache+0x1b9>
    1933:	83 ec 0c             	sub    $0xc,%esp
    1936:	68 10 27 00 00       	push   $0x2710
    193b:	e8 10 d3 00 00       	call   ec50 <async_usleep@plt>
    1940:	83 c4 10             	add    $0x10,%esp
    1943:	4b                   	dec    %ebx
    1944:	75 d7                	jne    191d <ata_bd_sync_cache+0x1ed>
    1946:	bb f6 fe ff ff       	mov    $0xfffffef6,%ebx
    194b:	eb a2                	jmp    18ef <ata_bd_sync_cache+0x1bf>
    194d:	8d 76 00             	lea    0x0(%esi),%esi

00001950 <ata_cmd_packet.constprop.12>:
    1950:	55                   	push   %ebp
    1951:	89 e5                	mov    %esp,%ebp
    1953:	57                   	push   %edi
    1954:	56                   	push   %esi
    1955:	53                   	push   %ebx
    1956:	83 ec 28             	sub    $0x28,%esp
    1959:	89 c6                	mov    %eax,%esi
    195b:	8b 58 04             	mov    0x4(%eax),%ebx
    195e:	89 55 dc             	mov    %edx,-0x24(%ebp)
    1961:	89 4d e0             	mov    %ecx,-0x20(%ebp)
    1964:	8d 83 bc 01 00 00    	lea    0x1bc(%ebx),%eax
    196a:	50                   	push   %eax
    196b:	89 45 e4             	mov    %eax,-0x1c(%ebp)
    196e:	e8 8d d4 00 00       	call   ee00 <fibril_mutex_lock@plt>
    1973:	8b be d0 00 00 00    	mov    0xd0(%esi),%edi
    1979:	83 c4 10             	add    $0x10,%esp
    197c:	83 e7 01             	and    $0x1,%edi
    197f:	74 05                	je     1986 <ata_cmd_packet.constprop.12+0x36>
    1981:	bf 10 00 00 00       	mov    $0x10,%edi
    1986:	83 ec 0c             	sub    $0xc,%esp
    1989:	8b 43 0c             	mov    0xc(%ebx),%eax
    198c:	83 c0 07             	add    $0x7,%eax
    198f:	50                   	push   %eax
    1990:	e8 db d0 00 00       	call   ea70 <pio_read_8@plt>
    1995:	83 c4 10             	add    $0x10,%esp
    1998:	84 c0                	test   %al,%al
    199a:	79 26                	jns    19c2 <ata_cmd_packet.constprop.12+0x72>
    199c:	be 63 00 00 00       	mov    $0x63,%esi
    19a1:	8d b4 26 00 00 00 00 	lea    0x0(%esi,%eiz,1),%esi
    19a8:	83 ec 0c             	sub    $0xc,%esp
    19ab:	8b 43 0c             	mov    0xc(%ebx),%eax
    19ae:	83 c0 07             	add    $0x7,%eax
    19b1:	50                   	push   %eax
    19b2:	e8 b9 d0 00 00       	call   ea70 <pio_read_8@plt>
    19b7:	83 c4 10             	add    $0x10,%esp
    19ba:	84 c0                	test   %al,%al
    19bc:	0f 88 0e 01 00 00    	js     1ad0 <ata_cmd_packet.constprop.12+0x180>
    19c2:	50                   	push   %eax
    19c3:	50                   	push   %eax
    19c4:	8b 43 0c             	mov    0xc(%ebx),%eax
    19c7:	57                   	push   %edi
    19c8:	83 c0 06             	add    $0x6,%eax
    19cb:	50                   	push   %eax
    19cc:	e8 1f d1 00 00       	call   eaf0 <pio_write_8@plt>
    19d1:	8b 43 0c             	mov    0xc(%ebx),%eax
    19d4:	83 c0 07             	add    $0x7,%eax
    19d7:	89 04 24             	mov    %eax,(%esp)
    19da:	e8 91 d0 00 00       	call   ea70 <pio_read_8@plt>
    19df:	83 c4 10             	add    $0x10,%esp
    19e2:	a8 88                	test   $0x88,%al
    19e4:	74 1f                	je     1a05 <ata_cmd_packet.constprop.12+0xb5>
    19e6:	be 63 00 00 00       	mov    $0x63,%esi
    19eb:	83 ec 0c             	sub    $0xc,%esp
    19ee:	8b 43 0c             	mov    0xc(%ebx),%eax
    19f1:	83 c0 07             	add    $0x7,%eax
    19f4:	50                   	push   %eax
    19f5:	e8 76 d0 00 00       	call   ea70 <pio_read_8@plt>
    19fa:	83 c4 10             	add    $0x10,%esp
    19fd:	a8 88                	test   $0x88,%al
    19ff:	0f 85 1b 01 00 00    	jne    1b20 <ata_cmd_packet.constprop.12+0x1d0>
    1a05:	52                   	push   %edx
    1a06:	52                   	push   %edx
    1a07:	8b 43 0c             	mov    0xc(%ebx),%eax
    1a0a:	68 fe 00 00 00       	push   $0xfe
    1a0f:	83 c0 04             	add    $0x4,%eax
    1a12:	50                   	push   %eax
    1a13:	e8 d8 d0 00 00       	call   eaf0 <pio_write_8@plt>
    1a18:	8b 43 0c             	mov    0xc(%ebx),%eax
    1a1b:	59                   	pop    %ecx
    1a1c:	83 c0 05             	add    $0x5,%eax
    1a1f:	5e                   	pop    %esi
    1a20:	68 ff 00 00 00       	push   $0xff
    1a25:	50                   	push   %eax
    1a26:	e8 c5 d0 00 00       	call   eaf0 <pio_write_8@plt>
    1a2b:	5f                   	pop    %edi
    1a2c:	58                   	pop    %eax
    1a2d:	8b 43 0c             	mov    0xc(%ebx),%eax
    1a30:	83 c0 07             	add    $0x7,%eax
    1a33:	68 a0 00 00 00       	push   $0xa0
    1a38:	50                   	push   %eax
    1a39:	e8 b2 d0 00 00       	call   eaf0 <pio_write_8@plt>
    1a3e:	8b 43 0c             	mov    0xc(%ebx),%eax
    1a41:	be 64 00 00 00       	mov    $0x64,%esi
    1a46:	83 c0 07             	add    $0x7,%eax
    1a49:	89 04 24             	mov    %eax,(%esp)
    1a4c:	e8 1f d0 00 00       	call   ea70 <pio_read_8@plt>
    1a51:	83 c4 10             	add    $0x10,%esp
    1a54:	eb 17                	jmp    1a6d <ata_cmd_packet.constprop.12+0x11d>
    1a56:	66 90                	xchg   %ax,%ax
    1a58:	4e                   	dec    %esi
    1a59:	74 1a                	je     1a75 <ata_cmd_packet.constprop.12+0x125>
    1a5b:	83 ec 0c             	sub    $0xc,%esp
    1a5e:	8b 43 0c             	mov    0xc(%ebx),%eax
    1a61:	83 c0 07             	add    $0x7,%eax
    1a64:	50                   	push   %eax
    1a65:	e8 06 d0 00 00       	call   ea70 <pio_read_8@plt>
    1a6a:	83 c4 10             	add    $0x10,%esp
    1a6d:	84 c0                	test   %al,%al
    1a6f:	78 e7                	js     1a58 <ata_cmd_packet.constprop.12+0x108>
    1a71:	a8 08                	test   $0x8,%al
    1a73:	74 e3                	je     1a58 <ata_cmd_packet.constprop.12+0x108>
    1a75:	be 64 00 00 00       	mov    $0x64,%esi
    1a7a:	eb 16                	jmp    1a92 <ata_cmd_packet.constprop.12+0x142>
    1a7c:	8d 74 26 00          	lea    0x0(%esi,%eiz,1),%esi
    1a80:	83 ec 0c             	sub    $0xc,%esp
    1a83:	8b 43 0c             	mov    0xc(%ebx),%eax
    1a86:	83 c0 07             	add    $0x7,%eax
    1a89:	50                   	push   %eax
    1a8a:	e8 e1 cf 00 00       	call   ea70 <pio_read_8@plt>
    1a8f:	83 c4 10             	add    $0x10,%esp
    1a92:	84 c0                	test   %al,%al
    1a94:	78 08                	js     1a9e <ata_cmd_packet.constprop.12+0x14e>
    1a96:	a8 08                	test   $0x8,%al
    1a98:	0f 85 d2 00 00 00    	jne    1b70 <ata_cmd_packet.constprop.12+0x220>
    1a9e:	83 ec 0c             	sub    $0xc,%esp
    1aa1:	68 10 27 00 00       	push   $0x2710
    1aa6:	e8 a5 d1 00 00       	call   ec50 <async_usleep@plt>
    1aab:	83 c4 10             	add    $0x10,%esp
    1aae:	4e                   	dec    %esi
    1aaf:	75 cf                	jne    1a80 <ata_cmd_packet.constprop.12+0x130>
    1ab1:	83 ec 0c             	sub    $0xc,%esp
    1ab4:	8b 45 e4             	mov    -0x1c(%ebp),%eax
    1ab7:	50                   	push   %eax
    1ab8:	e8 83 d0 00 00       	call   eb40 <fibril_mutex_unlock@plt>
    1abd:	83 c4 10             	add    $0x10,%esp
    1ac0:	b8 f6 fe ff ff       	mov    $0xfffffef6,%eax
    1ac5:	8d 65 f4             	lea    -0xc(%ebp),%esp
    1ac8:	5b                   	pop    %ebx
    1ac9:	5e                   	pop    %esi
    1aca:	5f                   	pop    %edi
    1acb:	5d                   	pop    %ebp
    1acc:	c3                   	ret    
    1acd:	8d 76 00             	lea    0x0(%esi),%esi
    1ad0:	4e                   	dec    %esi
    1ad1:	0f 85 d1 fe ff ff    	jne    19a8 <ata_cmd_packet.constprop.12+0x58>
    1ad7:	83 ec 0c             	sub    $0xc,%esp
    1ada:	be 63 00 00 00       	mov    $0x63,%esi
    1adf:	68 10 27 00 00       	push   $0x2710
    1ae4:	e8 67 d1 00 00       	call   ec50 <async_usleep@plt>
    1ae9:	83 c4 10             	add    $0x10,%esp
    1aec:	83 ec 0c             	sub    $0xc,%esp
    1aef:	8b 43 0c             	mov    0xc(%ebx),%eax
    1af2:	83 c0 07             	add    $0x7,%eax
    1af5:	50                   	push   %eax
    1af6:	e8 75 cf 00 00       	call   ea70 <pio_read_8@plt>
    1afb:	83 c4 10             	add    $0x10,%esp
    1afe:	84 c0                	test   %al,%al
    1b00:	0f 89 bc fe ff ff    	jns    19c2 <ata_cmd_packet.constprop.12+0x72>
    1b06:	83 ec 0c             	sub    $0xc,%esp
    1b09:	68 10 27 00 00       	push   $0x2710
    1b0e:	e8 3d d1 00 00       	call   ec50 <async_usleep@plt>
    1b13:	83 c4 10             	add    $0x10,%esp
    1b16:	4e                   	dec    %esi
    1b17:	75 d3                	jne    1aec <ata_cmd_packet.constprop.12+0x19c>
    1b19:	eb 96                	jmp    1ab1 <ata_cmd_packet.constprop.12+0x161>
    1b1b:	90                   	nop
    1b1c:	8d 74 26 00          	lea    0x0(%esi,%eiz,1),%esi
    1b20:	4e                   	dec    %esi
    1b21:	0f 85 c4 fe ff ff    	jne    19eb <ata_cmd_packet.constprop.12+0x9b>
    1b27:	83 ec 0c             	sub    $0xc,%esp
    1b2a:	be 63 00 00 00       	mov    $0x63,%esi
    1b2f:	68 10 27 00 00       	push   $0x2710
    1b34:	e8 17 d1 00 00       	call   ec50 <async_usleep@plt>
    1b39:	83 c4 10             	add    $0x10,%esp
    1b3c:	83 ec 0c             	sub    $0xc,%esp
    1b3f:	8b 43 0c             	mov    0xc(%ebx),%eax
    1b42:	83 c0 07             	add    $0x7,%eax
    1b45:	50                   	push   %eax
    1b46:	e8 25 cf 00 00       	call   ea70 <pio_read_8@plt>
    1b4b:	83 c4 10             	add    $0x10,%esp
    1b4e:	a8 88                	test   $0x88,%al
    1b50:	0f 84 af fe ff ff    	je     1a05 <ata_cmd_packet.constprop.12+0xb5>
    1b56:	83 ec 0c             	sub    $0xc,%esp
    1b59:	68 10 27 00 00       	push   $0x2710
    1b5e:	e8 ed d0 00 00       	call   ec50 <async_usleep@plt>
    1b63:	83 c4 10             	add    $0x10,%esp
    1b66:	4e                   	dec    %esi
    1b67:	75 d3                	jne    1b3c <ata_cmd_packet.constprop.12+0x1ec>
    1b69:	e9 43 ff ff ff       	jmp    1ab1 <ata_cmd_packet.constprop.12+0x161>
    1b6e:	66 90                	xchg   %ax,%ax
    1b70:	8b 7d dc             	mov    -0x24(%ebp),%edi
    1b73:	8d 77 0c             	lea    0xc(%edi),%esi
    1b76:	66 90                	xchg   %ax,%ax
    1b78:	50                   	push   %eax
    1b79:	50                   	push   %eax
    1b7a:	31 c0                	xor    %eax,%eax
    1b7c:	8b 53 0c             	mov    0xc(%ebx),%edx
    1b7f:	66 8b 07             	mov    (%edi),%ax
    1b82:	83 c7 02             	add    $0x2,%edi
    1b85:	50                   	push   %eax
    1b86:	52                   	push   %edx
    1b87:	e8 34 cf 00 00       	call   eac0 <pio_write_16@plt>
    1b8c:	83 c4 10             	add    $0x10,%esp
    1b8f:	39 fe                	cmp    %edi,%esi
    1b91:	75 e5                	jne    1b78 <ata_cmd_packet.constprop.12+0x228>
    1b93:	83 ec 0c             	sub    $0xc,%esp
    1b96:	8b 43 0c             	mov    0xc(%ebx),%eax
    1b99:	83 c0 07             	add    $0x7,%eax
    1b9c:	50                   	push   %eax
    1b9d:	e8 ce ce 00 00       	call   ea70 <pio_read_8@plt>
    1ba2:	83 c4 10             	add    $0x10,%esp
    1ba5:	88 c2                	mov    %al,%dl
    1ba7:	84 c0                	test   %al,%al
    1ba9:	79 21                	jns    1bcc <ata_cmd_packet.constprop.12+0x27c>
    1bab:	be 63 00 00 00       	mov    $0x63,%esi
    1bb0:	83 ec 0c             	sub    $0xc,%esp
    1bb3:	8b 43 0c             	mov    0xc(%ebx),%eax
    1bb6:	83 c0 07             	add    $0x7,%eax
    1bb9:	50                   	push   %eax
    1bba:	e8 b1 ce 00 00       	call   ea70 <pio_read_8@plt>
    1bbf:	83 c4 10             	add    $0x10,%esp
    1bc2:	84 c0                	test   %al,%al
    1bc4:	0f 88 be 00 00 00    	js     1c88 <ata_cmd_packet.constprop.12+0x338>
    1bca:	88 c2                	mov    %al,%dl
    1bcc:	f6 c2 08             	test   $0x8,%dl
    1bcf:	0f 84 dc fe ff ff    	je     1ab1 <ata_cmd_packet.constprop.12+0x161>
    1bd5:	83 ec 0c             	sub    $0xc,%esp
    1bd8:	8b 43 0c             	mov    0xc(%ebx),%eax
    1bdb:	83 c0 04             	add    $0x4,%eax
    1bde:	88 55 db             	mov    %dl,-0x25(%ebp)
    1be1:	50                   	push   %eax
    1be2:	e8 89 ce 00 00       	call   ea70 <pio_read_8@plt>
    1be7:	88 45 dc             	mov    %al,-0x24(%ebp)
    1bea:	8b 43 0c             	mov    0xc(%ebx),%eax
    1bed:	83 c0 05             	add    $0x5,%eax
    1bf0:	89 04 24             	mov    %eax,(%esp)
    1bf3:	e8 78 ce 00 00       	call   ea70 <pio_read_8@plt>
    1bf8:	0f b6 75 dc          	movzbl -0x24(%ebp),%esi
    1bfc:	89 c7                	mov    %eax,%edi
    1bfe:	81 e6 ff 00 00 00    	and    $0xff,%esi
    1c04:	81 e7 ff 00 00 00    	and    $0xff,%edi
    1c0a:	83 c4 10             	add    $0x10,%esp
    1c0d:	c1 e7 08             	shl    $0x8,%edi
    1c10:	8d 04 37             	lea    (%edi,%esi,1),%eax
    1c13:	89 45 dc             	mov    %eax,-0x24(%ebp)
    1c16:	3b 45 08             	cmp    0x8(%ebp),%eax
    1c19:	0f 87 92 fe ff ff    	ja     1ab1 <ata_cmd_packet.constprop.12+0x161>
    1c1f:	40                   	inc    %eax
    1c20:	8a 55 db             	mov    -0x25(%ebp),%dl
    1c23:	d1 e8                	shr    %eax
    1c25:	74 26                	je     1c4d <ata_cmd_packet.constprop.12+0x2fd>
    1c27:	8b 7d e0             	mov    -0x20(%ebp),%edi
    1c2a:	88 55 e0             	mov    %dl,-0x20(%ebp)
    1c2d:	8d 34 47             	lea    (%edi,%eax,2),%esi
    1c30:	83 ec 0c             	sub    $0xc,%esp
    1c33:	8b 43 0c             	mov    0xc(%ebx),%eax
    1c36:	83 c7 02             	add    $0x2,%edi
    1c39:	50                   	push   %eax
    1c3a:	e8 91 cf 00 00       	call   ebd0 <pio_read_16@plt>
    1c3f:	66 89 47 fe          	mov    %ax,-0x2(%edi)
    1c43:	83 c4 10             	add    $0x10,%esp
    1c46:	39 fe                	cmp    %edi,%esi
    1c48:	75 e6                	jne    1c30 <ata_cmd_packet.constprop.12+0x2e0>
    1c4a:	8a 55 e0             	mov    -0x20(%ebp),%dl
    1c4d:	83 ec 0c             	sub    $0xc,%esp
    1c50:	8b 45 e4             	mov    -0x1c(%ebp),%eax
    1c53:	88 55 e0             	mov    %dl,-0x20(%ebp)
    1c56:	50                   	push   %eax
    1c57:	e8 e4 ce 00 00       	call   eb40 <fibril_mutex_unlock@plt>
    1c5c:	8a 55 e0             	mov    -0x20(%ebp),%dl
    1c5f:	83 c4 10             	add    $0x10,%esp
    1c62:	83 e2 01             	and    $0x1,%edx
    1c65:	0f 85 55 fe ff ff    	jne    1ac0 <ata_cmd_packet.constprop.12+0x170>
    1c6b:	8b 45 0c             	mov    0xc(%ebp),%eax
    1c6e:	85 c0                	test   %eax,%eax
    1c70:	74 64                	je     1cd6 <ata_cmd_packet.constprop.12+0x386>
    1c72:	8b 45 0c             	mov    0xc(%ebp),%eax
    1c75:	8b 4d dc             	mov    -0x24(%ebp),%ecx
    1c78:	89 08                	mov    %ecx,(%eax)
    1c7a:	8d 65 f4             	lea    -0xc(%ebp),%esp
    1c7d:	31 c0                	xor    %eax,%eax
    1c7f:	5b                   	pop    %ebx
    1c80:	5e                   	pop    %esi
    1c81:	5f                   	pop    %edi
    1c82:	5d                   	pop    %ebp
    1c83:	c3                   	ret    
    1c84:	8d 74 26 00          	lea    0x0(%esi,%eiz,1),%esi
    1c88:	4e                   	dec    %esi
    1c89:	0f 85 21 ff ff ff    	jne    1bb0 <ata_cmd_packet.constprop.12+0x260>
    1c8f:	83 ec 0c             	sub    $0xc,%esp
    1c92:	be 63 00 00 00       	mov    $0x63,%esi
    1c97:	68 10 27 00 00       	push   $0x2710
    1c9c:	e8 af cf 00 00       	call   ec50 <async_usleep@plt>
    1ca1:	83 c4 10             	add    $0x10,%esp
    1ca4:	83 ec 0c             	sub    $0xc,%esp
    1ca7:	8b 43 0c             	mov    0xc(%ebx),%eax
    1caa:	83 c0 07             	add    $0x7,%eax
    1cad:	50                   	push   %eax
    1cae:	e8 bd cd 00 00       	call   ea70 <pio_read_8@plt>
    1cb3:	83 c4 10             	add    $0x10,%esp
    1cb6:	84 c0                	test   %al,%al
    1cb8:	0f 89 0c ff ff ff    	jns    1bca <ata_cmd_packet.constprop.12+0x27a>
    1cbe:	83 ec 0c             	sub    $0xc,%esp
    1cc1:	68 10 27 00 00       	push   $0x2710
    1cc6:	e8 85 cf 00 00       	call   ec50 <async_usleep@plt>
    1ccb:	83 c4 10             	add    $0x10,%esp
    1cce:	4e                   	dec    %esi
    1ccf:	75 d3                	jne    1ca4 <ata_cmd_packet.constprop.12+0x354>
    1cd1:	e9 db fd ff ff       	jmp    1ab1 <ata_cmd_packet.constprop.12+0x161>
    1cd6:	31 c0                	xor    %eax,%eax
    1cd8:	e9 e8 fd ff ff       	jmp    1ac5 <ata_cmd_packet.constprop.12+0x175>
    1cdd:	8d 76 00             	lea    0x0(%esi),%esi

00001ce0 <ata_bd_read_blocks>:
    1ce0:	55                   	push   %ebp
    1ce1:	89 e5                	mov    %esp,%ebp
    1ce3:	57                   	push   %edi
    1ce4:	56                   	push   %esi
    1ce5:	53                   	push   %ebx
    1ce6:	83 ec 4c             	sub    $0x4c,%esp
    1ce9:	8b 55 10             	mov    0x10(%ebp),%edx
    1cec:	8b 45 0c             	mov    0xc(%ebp),%eax
    1cef:	89 55 cc             	mov    %edx,-0x34(%ebp)
    1cf2:	8b 55 08             	mov    0x8(%ebp),%edx
    1cf5:	89 45 c8             	mov    %eax,-0x38(%ebp)
    1cf8:	8b 45 14             	mov    0x14(%ebp),%eax
    1cfb:	8b 12                	mov    (%edx),%edx
    1cfd:	8b 4a 04             	mov    0x4(%edx),%ecx
    1d00:	89 4d d4             	mov    %ecx,-0x2c(%ebp)
    1d03:	8b 59 28             	mov    0x28(%ecx),%ebx
    1d06:	89 da                	mov    %ebx,%edx
    1d08:	0f af d0             	imul   %eax,%edx
    1d0b:	3b 55 1c             	cmp    0x1c(%ebp),%edx
    1d0e:	77 45                	ja     1d55 <ata_bd_read_blocks+0x75>
    1d10:	85 c0                	test   %eax,%eax
    1d12:	0f 84 ba 00 00 00    	je     1dd2 <ata_bd_read_blocks+0xf2>
    1d18:	8b 4d c8             	mov    -0x38(%ebp),%ecx
    1d1b:	01 c8                	add    %ecx,%eax
    1d1d:	89 4d d0             	mov    %ecx,-0x30(%ebp)
    1d20:	89 45 bc             	mov    %eax,-0x44(%ebp)
    1d23:	90                   	nop
    1d24:	8d 74 26 00          	lea    0x0(%esi,%eiz,1),%esi
    1d28:	8b 7d d4             	mov    -0x2c(%ebp),%edi
    1d2b:	8b 4f 0c             	mov    0xc(%edi),%ecx
    1d2e:	85 c9                	test   %ecx,%ecx
    1d30:	75 36                	jne    1d68 <ata_bd_read_blocks+0x88>
    1d32:	8d 45 dc             	lea    -0x24(%ebp),%eax
    1d35:	8b 77 04             	mov    0x4(%edi),%esi
    1d38:	52                   	push   %edx
    1d39:	6a 0c                	push   $0xc
    1d3b:	6a 00                	push   $0x0
    1d3d:	50                   	push   %eax
    1d3e:	e8 cd ce 00 00       	call   ec10 <memset@plt>
    1d43:	8b 5d cc             	mov    -0x34(%ebp),%ebx
    1d46:	83 c4 10             	add    $0x10,%esp
    1d49:	8b 4d c8             	mov    -0x38(%ebp),%ecx
    1d4c:	39 5f 24             	cmp    %ebx,0x24(%edi)
    1d4f:	0f 83 8b 00 00 00    	jae    1de0 <ata_bd_read_blocks+0x100>
    1d55:	b8 f2 ff ff ff       	mov    $0xfffffff2,%eax
    1d5a:	8d 65 f4             	lea    -0xc(%ebp),%esp
    1d5d:	5b                   	pop    %ebx
    1d5e:	5e                   	pop    %esi
    1d5f:	5f                   	pop    %edi
    1d60:	5d                   	pop    %ebp
    1d61:	c3                   	ret    
    1d62:	8d b6 00 00 00 00    	lea    0x0(%esi),%esi
    1d68:	83 7d cc 00          	cmpl   $0x0,-0x34(%ebp)
    1d6c:	77 e7                	ja     1d55 <ata_bd_read_blocks+0x75>
    1d6e:	8d 45 dc             	lea    -0x24(%ebp),%eax
    1d71:	57                   	push   %edi
    1d72:	6a 0c                	push   $0xc
    1d74:	6a 00                	push   $0x0
    1d76:	50                   	push   %eax
    1d77:	e8 94 ce 00 00       	call   ec10 <memset@plt>
    1d7c:	8b 45 d0             	mov    -0x30(%ebp),%eax
    1d7f:	8b 4d 18             	mov    0x18(%ebp),%ecx
    1d82:	0f c8                	bswap  %eax
    1d84:	89 45 de             	mov    %eax,-0x22(%ebp)
    1d87:	58                   	pop    %eax
    1d88:	8b 45 d4             	mov    -0x2c(%ebp),%eax
    1d8b:	5a                   	pop    %edx
    1d8c:	8d 55 dc             	lea    -0x24(%ebp),%edx
    1d8f:	6a 00                	push   $0x0
    1d91:	c6 45 dc a8          	movb   $0xa8,-0x24(%ebp)
    1d95:	53                   	push   %ebx
    1d96:	c7 45 e2 00 00 00 01 	movl   $0x1000000,-0x1e(%ebp)
    1d9d:	e8 ae fb ff ff       	call   1950 <ata_cmd_packet.constprop.12>
    1da2:	83 c4 10             	add    $0x10,%esp
    1da5:	85 c0                	test   %eax,%eax
    1da7:	75 b1                	jne    1d5a <ata_bd_read_blocks+0x7a>
    1da9:	83 45 c8 01          	addl   $0x1,-0x38(%ebp)
    1dad:	8b 45 d4             	mov    -0x2c(%ebp),%eax
    1db0:	8b 75 d0             	mov    -0x30(%ebp),%esi
    1db3:	83 55 cc 00          	adcl   $0x0,-0x34(%ebp)
    1db7:	46                   	inc    %esi
    1db8:	8b 58 28             	mov    0x28(%eax),%ebx
    1dbb:	8b 4d 18             	mov    0x18(%ebp),%ecx
    1dbe:	89 75 d0             	mov    %esi,-0x30(%ebp)
    1dc1:	01 d9                	add    %ebx,%ecx
    1dc3:	8b 45 d0             	mov    -0x30(%ebp),%eax
    1dc6:	89 4d 18             	mov    %ecx,0x18(%ebp)
    1dc9:	3b 45 bc             	cmp    -0x44(%ebp),%eax
    1dcc:	0f 85 56 ff ff ff    	jne    1d28 <ata_bd_read_blocks+0x48>
    1dd2:	8d 65 f4             	lea    -0xc(%ebp),%esp
    1dd5:	31 c0                	xor    %eax,%eax
    1dd7:	5b                   	pop    %ebx
    1dd8:	5e                   	pop    %esi
    1dd9:	5f                   	pop    %edi
    1dda:	5d                   	pop    %ebp
    1ddb:	c3                   	ret    
    1ddc:	8d 74 26 00          	lea    0x0(%esi,%eiz,1),%esi
    1de0:	77 09                	ja     1deb <ata_bd_read_blocks+0x10b>
    1de2:	39 4f 20             	cmp    %ecx,0x20(%edi)
    1de5:	0f 86 6a ff ff ff    	jbe    1d55 <ata_bd_read_blocks+0x75>
    1deb:	8b 45 d4             	mov    -0x2c(%ebp),%eax
    1dee:	8b 48 10             	mov    0x10(%eax),%ecx
    1df1:	89 4d dc             	mov    %ecx,-0x24(%ebp)
    1df4:	83 f9 01             	cmp    $0x1,%ecx
    1df7:	0f 84 dd 03 00 00    	je     21da <ata_bd_read_blocks+0x4fa>
    1dfd:	0f 82 27 03 00 00    	jb     212a <ata_bd_read_blocks+0x44a>
    1e03:	83 f9 02             	cmp    $0x2,%ecx
    1e06:	0f 85 06 03 00 00    	jne    2112 <ata_bd_read_blocks+0x432>
    1e0c:	8a 45 d0             	mov    -0x30(%ebp),%al
    1e0f:	8b 55 cc             	mov    -0x34(%ebp),%edx
    1e12:	88 45 e0             	mov    %al,-0x20(%ebp)
    1e15:	8b 45 c8             	mov    -0x38(%ebp),%eax
    1e18:	0f ac d0 08          	shrd   $0x8,%edx,%eax
    1e1c:	88 45 e1             	mov    %al,-0x1f(%ebp)
    1e1f:	8b 55 cc             	mov    -0x34(%ebp),%edx
    1e22:	8b 45 c8             	mov    -0x38(%ebp),%eax
    1e25:	c6 45 e6 00          	movb   $0x0,-0x1a(%ebp)
    1e29:	0f ac d0 10          	shrd   $0x10,%edx,%eax
    1e2d:	88 45 e2             	mov    %al,-0x1e(%ebp)
    1e30:	8b 55 cc             	mov    -0x34(%ebp),%edx
    1e33:	8b 45 c8             	mov    -0x38(%ebp),%eax
    1e36:	0f ac d0 18          	shrd   $0x18,%edx,%eax
    1e3a:	88 45 e3             	mov    %al,-0x1d(%ebp)
    1e3d:	8b 45 cc             	mov    -0x34(%ebp),%eax
    1e40:	88 45 e4             	mov    %al,-0x1c(%ebp)
    1e43:	c1 e8 08             	shr    $0x8,%eax
    1e46:	88 45 e5             	mov    %al,-0x1b(%ebp)
    1e49:	31 c0                	xor    %eax,%eax
    1e4b:	8b 55 d4             	mov    -0x2c(%ebp),%edx
    1e4e:	b3 50                	mov    $0x50,%bl
    1e50:	f6 82 d0 00 00 00 01 	testb  $0x1,0xd0(%edx)
    1e57:	75 0a                	jne    1e63 <ata_bd_read_blocks+0x183>
    1e59:	b2 40                	mov    $0x40,%dl
    1e5b:	31 db                	xor    %ebx,%ebx
    1e5d:	85 c9                	test   %ecx,%ecx
    1e5f:	74 02                	je     1e63 <ata_bd_read_blocks+0x183>
    1e61:	88 d3                	mov    %dl,%bl
    1e63:	83 ec 0c             	sub    $0xc,%esp
    1e66:	09 c3                	or     %eax,%ebx
    1e68:	8d 86 bc 01 00 00    	lea    0x1bc(%esi),%eax
    1e6e:	50                   	push   %eax
    1e6f:	89 45 c0             	mov    %eax,-0x40(%ebp)
    1e72:	e8 89 cf 00 00       	call   ee00 <fibril_mutex_lock@plt>
    1e77:	8b 46 0c             	mov    0xc(%esi),%eax
    1e7a:	83 c0 07             	add    $0x7,%eax
    1e7d:	89 04 24             	mov    %eax,(%esp)
    1e80:	e8 eb cb 00 00       	call   ea70 <pio_read_8@plt>
    1e85:	83 c4 10             	add    $0x10,%esp
    1e88:	84 c0                	test   %al,%al
    1e8a:	79 26                	jns    1eb2 <ata_bd_read_blocks+0x1d2>
    1e8c:	bf 63 00 00 00       	mov    $0x63,%edi
    1e91:	8d b4 26 00 00 00 00 	lea    0x0(%esi,%eiz,1),%esi
    1e98:	83 ec 0c             	sub    $0xc,%esp
    1e9b:	8b 46 0c             	mov    0xc(%esi),%eax
    1e9e:	83 c0 07             	add    $0x7,%eax
    1ea1:	50                   	push   %eax
    1ea2:	e8 c9 cb 00 00       	call   ea70 <pio_read_8@plt>
    1ea7:	83 c4 10             	add    $0x10,%esp
    1eaa:	84 c0                	test   %al,%al
    1eac:	0f 88 a6 00 00 00    	js     1f58 <ata_bd_read_blocks+0x278>
    1eb2:	52                   	push   %edx
    1eb3:	52                   	push   %edx
    1eb4:	8b 46 0c             	mov    0xc(%esi),%eax
    1eb7:	83 c0 06             	add    $0x6,%eax
    1eba:	0f be db             	movsbl %bl,%ebx
    1ebd:	53                   	push   %ebx
    1ebe:	50                   	push   %eax
    1ebf:	e8 2c cc 00 00       	call   eaf0 <pio_write_8@plt>
    1ec4:	8b 46 0c             	mov    0xc(%esi),%eax
    1ec7:	83 c0 07             	add    $0x7,%eax
    1eca:	bb 64 00 00 00       	mov    $0x64,%ebx
    1ecf:	89 04 24             	mov    %eax,(%esp)
    1ed2:	e8 99 cb 00 00       	call   ea70 <pio_read_8@plt>
    1ed7:	83 c4 10             	add    $0x10,%esp
    1eda:	eb 19                	jmp    1ef5 <ata_bd_read_blocks+0x215>
    1edc:	8d 74 26 00          	lea    0x0(%esi,%eiz,1),%esi
    1ee0:	4b                   	dec    %ebx
    1ee1:	74 1a                	je     1efd <ata_bd_read_blocks+0x21d>
    1ee3:	83 ec 0c             	sub    $0xc,%esp
    1ee6:	8b 46 0c             	mov    0xc(%esi),%eax
    1ee9:	83 c0 07             	add    $0x7,%eax
    1eec:	50                   	push   %eax
    1eed:	e8 7e cb 00 00       	call   ea70 <pio_read_8@plt>
    1ef2:	83 c4 10             	add    $0x10,%esp
    1ef5:	84 c0                	test   %al,%al
    1ef7:	78 e7                	js     1ee0 <ata_bd_read_blocks+0x200>
    1ef9:	a8 40                	test   $0x40,%al
    1efb:	74 e3                	je     1ee0 <ata_bd_read_blocks+0x200>
    1efd:	bb e8 03 00 00       	mov    $0x3e8,%ebx
    1f02:	eb 16                	jmp    1f1a <ata_bd_read_blocks+0x23a>
    1f04:	8d 74 26 00          	lea    0x0(%esi,%eiz,1),%esi
    1f08:	83 ec 0c             	sub    $0xc,%esp
    1f0b:	8b 46 0c             	mov    0xc(%esi),%eax
    1f0e:	83 c0 07             	add    $0x7,%eax
    1f11:	50                   	push   %eax
    1f12:	e8 59 cb 00 00       	call   ea70 <pio_read_8@plt>
    1f17:	83 c4 10             	add    $0x10,%esp
    1f1a:	84 c0                	test   %al,%al
    1f1c:	78 08                	js     1f26 <ata_bd_read_blocks+0x246>
    1f1e:	a8 40                	test   $0x40,%al
    1f20:	0f 85 82 00 00 00    	jne    1fa8 <ata_bd_read_blocks+0x2c8>
    1f26:	83 ec 0c             	sub    $0xc,%esp
    1f29:	68 10 27 00 00       	push   $0x2710
    1f2e:	e8 1d cd 00 00       	call   ec50 <async_usleep@plt>
    1f33:	83 c4 10             	add    $0x10,%esp
    1f36:	4b                   	dec    %ebx
    1f37:	75 cf                	jne    1f08 <ata_bd_read_blocks+0x228>
    1f39:	83 ec 0c             	sub    $0xc,%esp
    1f3c:	8b 45 c0             	mov    -0x40(%ebp),%eax
    1f3f:	50                   	push   %eax
    1f40:	e8 fb cb 00 00       	call   eb40 <fibril_mutex_unlock@plt>
    1f45:	83 c4 10             	add    $0x10,%esp
    1f48:	8d 65 f4             	lea    -0xc(%ebp),%esp
    1f4b:	b8 f6 fe ff ff       	mov    $0xfffffef6,%eax
    1f50:	5b                   	pop    %ebx
    1f51:	5e                   	pop    %esi
    1f52:	5f                   	pop    %edi
    1f53:	5d                   	pop    %ebp
    1f54:	c3                   	ret    
    1f55:	8d 76 00             	lea    0x0(%esi),%esi
    1f58:	4f                   	dec    %edi
    1f59:	0f 85 39 ff ff ff    	jne    1e98 <ata_bd_read_blocks+0x1b8>
    1f5f:	83 ec 0c             	sub    $0xc,%esp
    1f62:	bf 63 00 00 00       	mov    $0x63,%edi
    1f67:	68 10 27 00 00       	push   $0x2710
    1f6c:	e8 df cc 00 00       	call   ec50 <async_usleep@plt>
    1f71:	83 c4 10             	add    $0x10,%esp
    1f74:	83 ec 0c             	sub    $0xc,%esp
    1f77:	8b 46 0c             	mov    0xc(%esi),%eax
    1f7a:	83 c0 07             	add    $0x7,%eax
    1f7d:	50                   	push   %eax
    1f7e:	e8 ed ca 00 00       	call   ea70 <pio_read_8@plt>
    1f83:	83 c4 10             	add    $0x10,%esp
    1f86:	84 c0                	test   %al,%al
    1f88:	0f 89 24 ff ff ff    	jns    1eb2 <ata_bd_read_blocks+0x1d2>
    1f8e:	83 ec 0c             	sub    $0xc,%esp
    1f91:	68 10 27 00 00       	push   $0x2710
    1f96:	e8 b5 cc 00 00       	call   ec50 <async_usleep@plt>
    1f9b:	83 c4 10             	add    $0x10,%esp
    1f9e:	4f                   	dec    %edi
    1f9f:	75 d3                	jne    1f74 <ata_bd_read_blocks+0x294>
    1fa1:	eb 96                	jmp    1f39 <ata_bd_read_blocks+0x259>
    1fa3:	90                   	nop
    1fa4:	8d 74 26 00          	lea    0x0(%esi,%eiz,1),%esi
    1fa8:	8b 46 0c             	mov    0xc(%esi),%eax
    1fab:	83 7d dc 02          	cmpl   $0x2,-0x24(%ebp)
    1faf:	8d 50 02             	lea    0x2(%eax),%edx
    1fb2:	0f 84 57 02 00 00    	je     220f <ata_bd_read_blocks+0x52f>
    1fb8:	8d 78 03             	lea    0x3(%eax),%edi
    1fbb:	8d 58 04             	lea    0x4(%eax),%ebx
    1fbe:	83 c0 05             	add    $0x5,%eax
    1fc1:	89 45 b0             	mov    %eax,-0x50(%ebp)
    1fc4:	50                   	push   %eax
    1fc5:	50                   	push   %eax
    1fc6:	6a 01                	push   $0x1
    1fc8:	52                   	push   %edx
    1fc9:	e8 22 cb 00 00       	call   eaf0 <pio_write_8@plt>
    1fce:	58                   	pop    %eax
    1fcf:	31 c0                	xor    %eax,%eax
    1fd1:	5a                   	pop    %edx
    1fd2:	8a 45 e0             	mov    -0x20(%ebp),%al
    1fd5:	50                   	push   %eax
    1fd6:	57                   	push   %edi
    1fd7:	e8 14 cb 00 00       	call   eaf0 <pio_write_8@plt>
    1fdc:	31 c0                	xor    %eax,%eax
    1fde:	8a 45 e1             	mov    -0x1f(%ebp),%al
    1fe1:	59                   	pop    %ecx
    1fe2:	5f                   	pop    %edi
    1fe3:	50                   	push   %eax
    1fe4:	53                   	push   %ebx
    1fe5:	e8 06 cb 00 00       	call   eaf0 <pio_write_8@plt>
    1fea:	58                   	pop    %eax
    1feb:	31 c0                	xor    %eax,%eax
    1fed:	8a 45 e2             	mov    -0x1e(%ebp),%al
    1ff0:	8b 4d b0             	mov    -0x50(%ebp),%ecx
    1ff3:	5a                   	pop    %edx
    1ff4:	50                   	push   %eax
    1ff5:	51                   	push   %ecx
    1ff6:	e8 f5 ca 00 00       	call   eaf0 <pio_write_8@plt>
    1ffb:	5b                   	pop    %ebx
    1ffc:	5f                   	pop    %edi
    1ffd:	8b 7d d4             	mov    -0x2c(%ebp),%edi
    2000:	83 7f 10 02          	cmpl   $0x2,0x10(%edi)
    2004:	0f 94 c0             	sete   %al
    2007:	25 ff 00 00 00       	and    $0xff,%eax
    200c:	8d 04 85 20 00 00 00 	lea    0x20(,%eax,4),%eax
    2013:	50                   	push   %eax
    2014:	8b 46 0c             	mov    0xc(%esi),%eax
    2017:	83 c0 07             	add    $0x7,%eax
    201a:	50                   	push   %eax
    201b:	e8 d0 ca 00 00       	call   eaf0 <pio_write_8@plt>
    2020:	89 f8                	mov    %edi,%eax
    2022:	8b 7f 28             	mov    0x28(%edi),%edi
    2025:	83 c4 10             	add    $0x10,%esp
    2028:	8b 70 04             	mov    0x4(%eax),%esi
    202b:	f7 c7 01 00 00 00    	test   $0x1,%edi
    2031:	0f 85 47 02 00 00    	jne    227e <ata_bd_read_blocks+0x59e>
    2037:	83 ec 0c             	sub    $0xc,%esp
    203a:	8b 46 0c             	mov    0xc(%esi),%eax
    203d:	83 c0 07             	add    $0x7,%eax
    2040:	50                   	push   %eax
    2041:	e8 2a ca 00 00       	call   ea70 <pio_read_8@plt>
    2046:	83 c4 10             	add    $0x10,%esp
    2049:	88 c2                	mov    %al,%dl
    204b:	84 c0                	test   %al,%al
    204d:	79 21                	jns    2070 <ata_bd_read_blocks+0x390>
    204f:	bb 63 00 00 00       	mov    $0x63,%ebx
    2054:	8d 74 26 00          	lea    0x0(%esi,%eiz,1),%esi
    2058:	83 ec 0c             	sub    $0xc,%esp
    205b:	8b 46 0c             	mov    0xc(%esi),%eax
    205e:	83 c0 07             	add    $0x7,%eax
    2061:	50                   	push   %eax
    2062:	e8 09 ca 00 00       	call   ea70 <pio_read_8@plt>
    2067:	83 c4 10             	add    $0x10,%esp
    206a:	84 c0                	test   %al,%al
    206c:	78 5a                	js     20c8 <ata_bd_read_blocks+0x3e8>
    206e:	88 c2                	mov    %al,%dl
    2070:	f6 c2 08             	test   $0x8,%dl
    2073:	74 30                	je     20a5 <ata_bd_read_blocks+0x3c5>
    2075:	89 f8                	mov    %edi,%eax
    2077:	d1 e8                	shr    %eax
    2079:	74 2a                	je     20a5 <ata_bd_read_blocks+0x3c5>
    207b:	8b 7d 18             	mov    0x18(%ebp),%edi
    207e:	88 55 b0             	mov    %dl,-0x50(%ebp)
    2081:	8d 1c 47             	lea    (%edi,%eax,2),%ebx
    2084:	8d 74 26 00          	lea    0x0(%esi,%eiz,1),%esi
    2088:	83 ec 0c             	sub    $0xc,%esp
    208b:	8b 46 0c             	mov    0xc(%esi),%eax
    208e:	83 c7 02             	add    $0x2,%edi
    2091:	50                   	push   %eax
    2092:	e8 39 cb 00 00       	call   ebd0 <pio_read_16@plt>
    2097:	66 89 47 fe          	mov    %ax,-0x2(%edi)
    209b:	83 c4 10             	add    $0x10,%esp
    209e:	39 df                	cmp    %ebx,%edi
    20a0:	75 e6                	jne    2088 <ata_bd_read_blocks+0x3a8>
    20a2:	8a 55 b0             	mov    -0x50(%ebp),%dl
    20a5:	83 e2 01             	and    $0x1,%edx
    20a8:	0f 85 8b fe ff ff    	jne    1f39 <ata_bd_read_blocks+0x259>
    20ae:	83 ec 0c             	sub    $0xc,%esp
    20b1:	8b 4d c0             	mov    -0x40(%ebp),%ecx
    20b4:	51                   	push   %ecx
    20b5:	e8 86 ca 00 00       	call   eb40 <fibril_mutex_unlock@plt>
    20ba:	83 c4 10             	add    $0x10,%esp
    20bd:	e9 e7 fc ff ff       	jmp    1da9 <ata_bd_read_blocks+0xc9>
    20c2:	8d b6 00 00 00 00    	lea    0x0(%esi),%esi
    20c8:	4b                   	dec    %ebx
    20c9:	75 8d                	jne    2058 <ata_bd_read_blocks+0x378>
    20cb:	83 ec 0c             	sub    $0xc,%esp
    20ce:	bb 63 00 00 00       	mov    $0x63,%ebx
    20d3:	68 10 27 00 00       	push   $0x2710
    20d8:	e8 73 cb 00 00       	call   ec50 <async_usleep@plt>
    20dd:	83 c4 10             	add    $0x10,%esp
    20e0:	83 ec 0c             	sub    $0xc,%esp
    20e3:	8b 46 0c             	mov    0xc(%esi),%eax
    20e6:	83 c0 07             	add    $0x7,%eax
    20e9:	50                   	push   %eax
    20ea:	e8 81 c9 00 00       	call   ea70 <pio_read_8@plt>
    20ef:	83 c4 10             	add    $0x10,%esp
    20f2:	84 c0                	test   %al,%al
    20f4:	0f 89 74 ff ff ff    	jns    206e <ata_bd_read_blocks+0x38e>
    20fa:	83 ec 0c             	sub    $0xc,%esp
    20fd:	68 10 27 00 00       	push   $0x2710
    2102:	e8 49 cb 00 00       	call   ec50 <async_usleep@plt>
    2107:	83 c4 10             	add    $0x10,%esp
    210a:	4b                   	dec    %ebx
    210b:	75 d3                	jne    20e0 <ata_bd_read_blocks+0x400>
    210d:	e9 27 fe ff ff       	jmp    1f39 <ata_bd_read_blocks+0x259>
    2112:	f6 80 d0 00 00 00 01 	testb  $0x1,0xd0(%eax)
    2119:	8a 45 e6             	mov    -0x1a(%ebp),%al
    211c:	0f 85 49 01 00 00    	jne    226b <ata_bd_read_blocks+0x58b>
    2122:	83 e0 0f             	and    $0xf,%eax
    2125:	e9 2f fd ff ff       	jmp    1e59 <ata_bd_read_blocks+0x179>
    212a:	8b 78 1c             	mov    0x1c(%eax),%edi
    212d:	8b 48 14             	mov    0x14(%eax),%ecx
    2130:	0f af cf             	imul   %edi,%ecx
    2133:	31 db                	xor    %ebx,%ebx
    2135:	89 4d c0             	mov    %ecx,-0x40(%ebp)
    2138:	53                   	push   %ebx
    2139:	89 5d c4             	mov    %ebx,-0x3c(%ebp)
    213c:	51                   	push   %ecx
    213d:	8b 5d c8             	mov    -0x38(%ebp),%ebx
    2140:	8b 4d cc             	mov    -0x34(%ebp),%ecx
    2143:	51                   	push   %ecx
    2144:	53                   	push   %ebx
    2145:	e8 e6 c8 00 00       	call   ea30 <__udivdi3@plt>
    214a:	83 c4 10             	add    $0x10,%esp
    214d:	8b 4d c0             	mov    -0x40(%ebp),%ecx
    2150:	8b 5d c4             	mov    -0x3c(%ebp),%ebx
    2153:	89 45 b0             	mov    %eax,-0x50(%ebp)
    2156:	8b 45 cc             	mov    -0x34(%ebp),%eax
    2159:	53                   	push   %ebx
    215a:	51                   	push   %ecx
    215b:	50                   	push   %eax
    215c:	8b 45 c8             	mov    -0x38(%ebp),%eax
    215f:	50                   	push   %eax
    2160:	89 55 b4             	mov    %edx,-0x4c(%ebp)
    2163:	e8 b8 c8 00 00       	call   ea20 <__umoddi3@plt>
    2168:	83 c4 10             	add    $0x10,%esp
    216b:	89 45 c0             	mov    %eax,-0x40(%ebp)
    216e:	89 55 c4             	mov    %edx,-0x3c(%ebp)
    2171:	8b 45 b0             	mov    -0x50(%ebp),%eax
    2174:	8b 55 b4             	mov    -0x4c(%ebp),%edx
    2177:	88 45 e1             	mov    %al,-0x1f(%ebp)
    217a:	31 db                	xor    %ebx,%ebx
    217c:	0f ac d0 08          	shrd   $0x8,%edx,%eax
    2180:	88 45 e2             	mov    %al,-0x1e(%ebp)
    2183:	8b 45 c4             	mov    -0x3c(%ebp),%eax
    2186:	53                   	push   %ebx
    2187:	57                   	push   %edi
    2188:	50                   	push   %eax
    2189:	8b 45 c0             	mov    -0x40(%ebp),%eax
    218c:	89 7d b0             	mov    %edi,-0x50(%ebp)
    218f:	89 5d b4             	mov    %ebx,-0x4c(%ebp)
    2192:	50                   	push   %eax
    2193:	e8 98 c8 00 00       	call   ea30 <__udivdi3@plt>
    2198:	89 c7                	mov    %eax,%edi
    219a:	83 c4 10             	add    $0x10,%esp
    219d:	83 e7 0f             	and    $0xf,%edi
    21a0:	8b 4d b0             	mov    -0x50(%ebp),%ecx
    21a3:	89 f8                	mov    %edi,%eax
    21a5:	8b 5d b4             	mov    -0x4c(%ebp),%ebx
    21a8:	88 45 e6             	mov    %al,-0x1a(%ebp)
    21ab:	8b 45 c4             	mov    -0x3c(%ebp),%eax
    21ae:	53                   	push   %ebx
    21af:	51                   	push   %ecx
    21b0:	50                   	push   %eax
    21b1:	8b 45 c0             	mov    -0x40(%ebp),%eax
    21b4:	50                   	push   %eax
    21b5:	e8 66 c8 00 00       	call   ea20 <__umoddi3@plt>
    21ba:	40                   	inc    %eax
    21bb:	83 c4 10             	add    $0x10,%esp
    21be:	88 45 e0             	mov    %al,-0x20(%ebp)
    21c1:	8b 45 d4             	mov    -0x2c(%ebp),%eax
    21c4:	f6 80 d0 00 00 00 01 	testb  $0x1,0xd0(%eax)
    21cb:	89 f8                	mov    %edi,%eax
    21cd:	0f 84 a4 00 00 00    	je     2277 <ata_bd_read_blocks+0x597>
    21d3:	b3 10                	mov    $0x10,%bl
    21d5:	e9 89 fc ff ff       	jmp    1e63 <ata_bd_read_blocks+0x183>
    21da:	8a 45 d0             	mov    -0x30(%ebp),%al
    21dd:	8b 55 cc             	mov    -0x34(%ebp),%edx
    21e0:	88 45 e0             	mov    %al,-0x20(%ebp)
    21e3:	8b 45 c8             	mov    -0x38(%ebp),%eax
    21e6:	0f ac d0 08          	shrd   $0x8,%edx,%eax
    21ea:	88 45 e1             	mov    %al,-0x1f(%ebp)
    21ed:	8b 55 cc             	mov    -0x34(%ebp),%edx
    21f0:	8b 45 c8             	mov    -0x38(%ebp),%eax
    21f3:	0f ac d0 10          	shrd   $0x10,%edx,%eax
    21f7:	88 45 e2             	mov    %al,-0x1e(%ebp)
    21fa:	8b 55 cc             	mov    -0x34(%ebp),%edx
    21fd:	8b 45 c8             	mov    -0x38(%ebp),%eax
    2200:	0f ac d0 18          	shrd   $0x18,%edx,%eax
    2204:	83 e0 0f             	and    $0xf,%eax
    2207:	88 45 e6             	mov    %al,-0x1a(%ebp)
    220a:	e9 3c fc ff ff       	jmp    1e4b <ata_bd_read_blocks+0x16b>
    220f:	89 45 b0             	mov    %eax,-0x50(%ebp)
    2212:	89 55 b8             	mov    %edx,-0x48(%ebp)
    2215:	50                   	push   %eax
    2216:	50                   	push   %eax
    2217:	6a 00                	push   $0x0
    2219:	52                   	push   %edx
    221a:	e8 d1 c8 00 00       	call   eaf0 <pio_write_8@plt>
    221f:	8b 45 b0             	mov    -0x50(%ebp),%eax
    2222:	31 c9                	xor    %ecx,%ecx
    2224:	8d 78 03             	lea    0x3(%eax),%edi
    2227:	8a 4d e3             	mov    -0x1d(%ebp),%cl
    222a:	58                   	pop    %eax
    222b:	5a                   	pop    %edx
    222c:	51                   	push   %ecx
    222d:	57                   	push   %edi
    222e:	e8 bd c8 00 00       	call   eaf0 <pio_write_8@plt>
    2233:	8b 45 b0             	mov    -0x50(%ebp),%eax
    2236:	59                   	pop    %ecx
    2237:	31 c9                	xor    %ecx,%ecx
    2239:	8a 4d e4             	mov    -0x1c(%ebp),%cl
    223c:	8d 58 04             	lea    0x4(%eax),%ebx
    223f:	58                   	pop    %eax
    2240:	51                   	push   %ecx
    2241:	53                   	push   %ebx
    2242:	e8 a9 c8 00 00       	call   eaf0 <pio_write_8@plt>
    2247:	8b 45 b0             	mov    -0x50(%ebp),%eax
    224a:	83 c0 05             	add    $0x5,%eax
    224d:	89 c1                	mov    %eax,%ecx
    224f:	89 45 b0             	mov    %eax,-0x50(%ebp)
    2252:	58                   	pop    %eax
    2253:	31 c0                	xor    %eax,%eax
    2255:	8a 45 e5             	mov    -0x1b(%ebp),%al
    2258:	5a                   	pop    %edx
    2259:	50                   	push   %eax
    225a:	51                   	push   %ecx
    225b:	e8 90 c8 00 00       	call   eaf0 <pio_write_8@plt>
    2260:	83 c4 10             	add    $0x10,%esp
    2263:	8b 55 b8             	mov    -0x48(%ebp),%edx
    2266:	e9 59 fd ff ff       	jmp    1fc4 <ata_bd_read_blocks+0x2e4>
    226b:	83 e0 0f             	and    $0xf,%eax
    226e:	b2 50                	mov    $0x50,%dl
    2270:	b3 10                	mov    $0x10,%bl
    2272:	e9 e6 fb ff ff       	jmp    1e5d <ata_bd_read_blocks+0x17d>
    2277:	31 db                	xor    %ebx,%ebx
    2279:	e9 e5 fb ff ff       	jmp    1e63 <ata_bd_read_blocks+0x183>
    227e:	50                   	push   %eax
    227f:	68 65 02 00 00       	push   $0x265
    2284:	68 8f c7 00 00       	push   $0xc78f
    2289:	68 98 c7 00 00       	push   $0xc798
    228e:	e8 fd c7 00 00       	call   ea90 <assert_abort@plt>
    2293:	8d b6 00 00 00 00    	lea    0x0(%esi),%esi
    2299:	8d bc 27 00 00 00 00 	lea    0x0(%edi,%eiz,1),%edi

000022a0 <ata_bd_read_toc>:
    22a0:	55                   	push   %ebp
    22a1:	89 e5                	mov    %esp,%ebp
    22a3:	57                   	push   %edi
    22a4:	56                   	push   %esi
    22a5:	53                   	push   %ebx
    22a6:	83 ec 30             	sub    $0x30,%esp
    22a9:	8d 5d dc             	lea    -0x24(%ebp),%ebx
    22ac:	8b 45 08             	mov    0x8(%ebp),%eax
    22af:	8b 75 14             	mov    0x14(%ebp),%esi
    22b2:	8b 55 0c             	mov    0xc(%ebp),%edx
    22b5:	8b 00                	mov    (%eax),%eax
    22b7:	89 55 d4             	mov    %edx,-0x2c(%ebp)
    22ba:	8b 78 04             	mov    0x4(%eax),%edi
    22bd:	6a 0c                	push   $0xc
    22bf:	6a 00                	push   $0x0
    22c1:	53                   	push   %ebx
    22c2:	e8 49 c9 00 00       	call   ec10 <memset@plt>
    22c7:	89 f0                	mov    %esi,%eax
    22c9:	8b 55 d4             	mov    -0x2c(%ebp),%edx
    22cc:	8b 4d 10             	mov    0x10(%ebp),%ecx
    22cf:	66 c1 c0 08          	rol    $0x8,%ax
    22d3:	88 55 e2             	mov    %dl,-0x1e(%ebp)
    22d6:	66 89 45 e3          	mov    %ax,-0x1d(%ebp)
    22da:	58                   	pop    %eax
    22db:	89 f8                	mov    %edi,%eax
    22dd:	5a                   	pop    %edx
    22de:	89 da                	mov    %ebx,%edx
    22e0:	6a 00                	push   $0x0
    22e2:	c6 45 dc 43          	movb   $0x43,-0x24(%ebp)
    22e6:	56                   	push   %esi
    22e7:	c6 45 dd 00          	movb   $0x0,-0x23(%ebp)
    22eb:	c6 45 de 01          	movb   $0x1,-0x22(%ebp)
    22ef:	c6 45 e5 40          	movb   $0x40,-0x1b(%ebp)
    22f3:	e8 58 f6 ff ff       	call   1950 <ata_cmd_packet.constprop.12>
    22f8:	8d 65 f4             	lea    -0xc(%ebp),%esp
    22fb:	5b                   	pop    %ebx
    22fc:	5e                   	pop    %esi
    22fd:	5f                   	pop    %edi
    22fe:	5d                   	pop    %ebp
    22ff:	c3                   	ret    

00002300 <disk_init>:
    2300:	55                   	push   %ebp
    2301:	89 e5                	mov    %esp,%ebp
    2303:	57                   	push   %edi
    2304:	56                   	push   %esi
    2305:	53                   	push   %ebx
    2306:	81 ec 8c 02 00 00    	sub    $0x28c,%esp
    230c:	89 8a d0 00 00 00    	mov    %ecx,0xd0(%edx)
    2312:	83 e1 01             	and    $0x1,%ecx
    2315:	89 c3                	mov    %eax,%ebx
    2317:	89 95 74 fd ff ff    	mov    %edx,-0x28c(%ebp)
    231d:	89 42 04             	mov    %eax,0x4(%edx)
    2320:	c6 02 00             	movb   $0x0,(%edx)
    2323:	c7 42 08 00 00 00 00 	movl   $0x0,0x8(%edx)
    232a:	bf 10 00 00 00       	mov    $0x10,%edi
    232f:	75 02                	jne    2333 <disk_init+0x33>
    2331:	89 cf                	mov    %ecx,%edi
    2333:	83 ec 0c             	sub    $0xc,%esp
    2336:	8b 43 0c             	mov    0xc(%ebx),%eax
    2339:	83 c0 07             	add    $0x7,%eax
    233c:	50                   	push   %eax
    233d:	e8 2e c7 00 00       	call   ea70 <pio_read_8@plt>
    2342:	83 c4 10             	add    $0x10,%esp
    2345:	84 c0                	test   %al,%al
    2347:	79 21                	jns    236a <disk_init+0x6a>
    2349:	be 63 00 00 00       	mov    $0x63,%esi
    234e:	66 90                	xchg   %ax,%ax
    2350:	83 ec 0c             	sub    $0xc,%esp
    2353:	8b 43 0c             	mov    0xc(%ebx),%eax
    2356:	83 c0 07             	add    $0x7,%eax
    2359:	50                   	push   %eax
    235a:	e8 11 c7 00 00       	call   ea70 <pio_read_8@plt>
    235f:	83 c4 10             	add    $0x10,%esp
    2362:	84 c0                	test   %al,%al
    2364:	0f 88 fe 00 00 00    	js     2468 <disk_init+0x168>
    236a:	56                   	push   %esi
    236b:	56                   	push   %esi
    236c:	8b 43 0c             	mov    0xc(%ebx),%eax
    236f:	57                   	push   %edi
    2370:	83 c0 06             	add    $0x6,%eax
    2373:	50                   	push   %eax
    2374:	e8 77 c7 00 00       	call   eaf0 <pio_write_8@plt>
    2379:	8b 43 0c             	mov    0xc(%ebx),%eax
    237c:	83 c0 07             	add    $0x7,%eax
    237f:	89 04 24             	mov    %eax,(%esp)
    2382:	e8 e9 c6 00 00       	call   ea70 <pio_read_8@plt>
    2387:	83 c4 10             	add    $0x10,%esp
    238a:	84 c0                	test   %al,%al
    238c:	79 1f                	jns    23ad <disk_init+0xad>
    238e:	be 63 00 00 00       	mov    $0x63,%esi
    2393:	83 ec 0c             	sub    $0xc,%esp
    2396:	8b 43 0c             	mov    0xc(%ebx),%eax
    2399:	83 c0 07             	add    $0x7,%eax
    239c:	50                   	push   %eax
    239d:	e8 ce c6 00 00       	call   ea70 <pio_read_8@plt>
    23a2:	83 c4 10             	add    $0x10,%esp
    23a5:	84 c0                	test   %al,%al
    23a7:	0f 88 0b 01 00 00    	js     24b8 <disk_init+0x1b8>
    23ad:	51                   	push   %ecx
    23ae:	51                   	push   %ecx
    23af:	8b 43 0c             	mov    0xc(%ebx),%eax
    23b2:	68 ec 00 00 00       	push   $0xec
    23b7:	83 c0 07             	add    $0x7,%eax
    23ba:	50                   	push   %eax
    23bb:	e8 30 c7 00 00       	call   eaf0 <pio_write_8@plt>
    23c0:	8b 43 0c             	mov    0xc(%ebx),%eax
    23c3:	83 c0 07             	add    $0x7,%eax
    23c6:	89 04 24             	mov    %eax,(%esp)
    23c9:	e8 a2 c6 00 00       	call   ea70 <pio_read_8@plt>
    23ce:	83 c4 10             	add    $0x10,%esp
    23d1:	84 c0                	test   %al,%al
    23d3:	0f 88 2f 01 00 00    	js     2508 <disk_init+0x208>
    23d9:	a8 01                	test   $0x1,%al
    23db:	0f 85 26 02 00 00    	jne    2607 <disk_init+0x307>
    23e1:	83 ec 0c             	sub    $0xc,%esp
    23e4:	8b 43 0c             	mov    0xc(%ebx),%eax
    23e7:	83 c0 07             	add    $0x7,%eax
    23ea:	be 64 00 00 00       	mov    $0x64,%esi
    23ef:	50                   	push   %eax
    23f0:	e8 7b c6 00 00       	call   ea70 <pio_read_8@plt>
    23f5:	83 c4 10             	add    $0x10,%esp
    23f8:	eb 1b                	jmp    2415 <disk_init+0x115>
    23fa:	8d b6 00 00 00 00    	lea    0x0(%esi),%esi
    2400:	4e                   	dec    %esi
    2401:	74 1a                	je     241d <disk_init+0x11d>
    2403:	83 ec 0c             	sub    $0xc,%esp
    2406:	8b 43 0c             	mov    0xc(%ebx),%eax
    2409:	83 c0 07             	add    $0x7,%eax
    240c:	50                   	push   %eax
    240d:	e8 5e c6 00 00       	call   ea70 <pio_read_8@plt>
    2412:	83 c4 10             	add    $0x10,%esp
    2415:	84 c0                	test   %al,%al
    2417:	78 e7                	js     2400 <disk_init+0x100>
    2419:	a8 08                	test   $0x8,%al
    241b:	74 e3                	je     2400 <disk_init+0x100>
    241d:	be 64 00 00 00       	mov    $0x64,%esi
    2422:	eb 16                	jmp    243a <disk_init+0x13a>
    2424:	8d 74 26 00          	lea    0x0(%esi,%eiz,1),%esi
    2428:	83 ec 0c             	sub    $0xc,%esp
    242b:	8b 43 0c             	mov    0xc(%ebx),%eax
    242e:	83 c0 07             	add    $0x7,%eax
    2431:	50                   	push   %eax
    2432:	e8 39 c6 00 00       	call   ea70 <pio_read_8@plt>
    2437:	83 c4 10             	add    $0x10,%esp
    243a:	84 c0                	test   %al,%al
    243c:	78 08                	js     2446 <disk_init+0x146>
    243e:	a8 08                	test   $0x8,%al
    2440:	0f 85 32 01 00 00    	jne    2578 <disk_init+0x278>
    2446:	83 ec 0c             	sub    $0xc,%esp
    2449:	68 10 27 00 00       	push   $0x2710
    244e:	e8 fd c7 00 00       	call   ec50 <async_usleep@plt>
    2453:	83 c4 10             	add    $0x10,%esp
    2456:	4e                   	dec    %esi
    2457:	75 cf                	jne    2428 <disk_init+0x128>
    2459:	8d 65 f4             	lea    -0xc(%ebp),%esp
    245c:	b8 f6 fe ff ff       	mov    $0xfffffef6,%eax
    2461:	5b                   	pop    %ebx
    2462:	5e                   	pop    %esi
    2463:	5f                   	pop    %edi
    2464:	5d                   	pop    %ebp
    2465:	c3                   	ret    
    2466:	66 90                	xchg   %ax,%ax
    2468:	4e                   	dec    %esi
    2469:	0f 85 e1 fe ff ff    	jne    2350 <disk_init+0x50>
    246f:	83 ec 0c             	sub    $0xc,%esp
    2472:	be 63 00 00 00       	mov    $0x63,%esi
    2477:	68 10 27 00 00       	push   $0x2710
    247c:	e8 cf c7 00 00       	call   ec50 <async_usleep@plt>
    2481:	83 c4 10             	add    $0x10,%esp
    2484:	83 ec 0c             	sub    $0xc,%esp
    2487:	8b 43 0c             	mov    0xc(%ebx),%eax
    248a:	83 c0 07             	add    $0x7,%eax
    248d:	50                   	push   %eax
    248e:	e8 dd c5 00 00       	call   ea70 <pio_read_8@plt>
    2493:	83 c4 10             	add    $0x10,%esp
    2496:	84 c0                	test   %al,%al
    2498:	0f 89 cc fe ff ff    	jns    236a <disk_init+0x6a>
    249e:	83 ec 0c             	sub    $0xc,%esp
    24a1:	68 10 27 00 00       	push   $0x2710
    24a6:	e8 a5 c7 00 00       	call   ec50 <async_usleep@plt>
    24ab:	83 c4 10             	add    $0x10,%esp
    24ae:	4e                   	dec    %esi
    24af:	75 d3                	jne    2484 <disk_init+0x184>
    24b1:	eb a6                	jmp    2459 <disk_init+0x159>
    24b3:	90                   	nop
    24b4:	8d 74 26 00          	lea    0x0(%esi,%eiz,1),%esi
    24b8:	4e                   	dec    %esi
    24b9:	0f 85 d4 fe ff ff    	jne    2393 <disk_init+0x93>
    24bf:	83 ec 0c             	sub    $0xc,%esp
    24c2:	be 63 00 00 00       	mov    $0x63,%esi
    24c7:	68 10 27 00 00       	push   $0x2710
    24cc:	e8 7f c7 00 00       	call   ec50 <async_usleep@plt>
    24d1:	83 c4 10             	add    $0x10,%esp
    24d4:	83 ec 0c             	sub    $0xc,%esp
    24d7:	8b 43 0c             	mov    0xc(%ebx),%eax
    24da:	83 c0 07             	add    $0x7,%eax
    24dd:	50                   	push   %eax
    24de:	e8 8d c5 00 00       	call   ea70 <pio_read_8@plt>
    24e3:	83 c4 10             	add    $0x10,%esp
    24e6:	84 c0                	test   %al,%al
    24e8:	0f 89 bf fe ff ff    	jns    23ad <disk_init+0xad>
    24ee:	83 ec 0c             	sub    $0xc,%esp
    24f1:	68 10 27 00 00       	push   $0x2710
    24f6:	e8 55 c7 00 00       	call   ec50 <async_usleep@plt>
    24fb:	83 c4 10             	add    $0x10,%esp
    24fe:	4e                   	dec    %esi
    24ff:	75 d3                	jne    24d4 <disk_init+0x1d4>
    2501:	e9 53 ff ff ff       	jmp    2459 <disk_init+0x159>
    2506:	66 90                	xchg   %ax,%ax
    2508:	be 63 00 00 00       	mov    $0x63,%esi
    250d:	83 ec 0c             	sub    $0xc,%esp
    2510:	8b 43 0c             	mov    0xc(%ebx),%eax
    2513:	83 c0 07             	add    $0x7,%eax
    2516:	50                   	push   %eax
    2517:	e8 54 c5 00 00       	call   ea70 <pio_read_8@plt>
    251c:	83 c4 10             	add    $0x10,%esp
    251f:	84 c0                	test   %al,%al
    2521:	0f 89 b2 fe ff ff    	jns    23d9 <disk_init+0xd9>
    2527:	4e                   	dec    %esi
    2528:	75 e3                	jne    250d <disk_init+0x20d>
    252a:	83 ec 0c             	sub    $0xc,%esp
    252d:	be 63 00 00 00       	mov    $0x63,%esi
    2532:	68 10 27 00 00       	push   $0x2710
    2537:	e8 14 c7 00 00       	call   ec50 <async_usleep@plt>
    253c:	83 c4 10             	add    $0x10,%esp
    253f:	83 ec 0c             	sub    $0xc,%esp
    2542:	8b 43 0c             	mov    0xc(%ebx),%eax
    2545:	83 c0 07             	add    $0x7,%eax
    2548:	50                   	push   %eax
    2549:	e8 22 c5 00 00       	call   ea70 <pio_read_8@plt>
    254e:	83 c4 10             	add    $0x10,%esp
    2551:	84 c0                	test   %al,%al
    2553:	0f 89 80 fe ff ff    	jns    23d9 <disk_init+0xd9>
    2559:	83 ec 0c             	sub    $0xc,%esp
    255c:	68 10 27 00 00       	push   $0x2710
    2561:	e8 ea c6 00 00       	call   ec50 <async_usleep@plt>
    2566:	83 c4 10             	add    $0x10,%esp
    2569:	4e                   	dec    %esi
    256a:	75 d3                	jne    253f <disk_init+0x23f>
    256c:	e9 e8 fe ff ff       	jmp    2459 <disk_init+0x159>
    2571:	8d b4 26 00 00 00 00 	lea    0x0(%esi,%eiz,1),%esi
    2578:	8b 85 74 fd ff ff    	mov    -0x28c(%ebp),%eax
    257e:	83 ec 0c             	sub    $0xc,%esp
    2581:	8b 78 04             	mov    0x4(%eax),%edi
    2584:	8b 47 0c             	mov    0xc(%edi),%eax
    2587:	83 c0 07             	add    $0x7,%eax
    258a:	50                   	push   %eax
    258b:	e8 e0 c4 00 00       	call   ea70 <pio_read_8@plt>
    2590:	83 c4 10             	add    $0x10,%esp
    2593:	88 c2                	mov    %al,%dl
    2595:	84 c0                	test   %al,%al
    2597:	0f 89 8d 02 00 00    	jns    282a <disk_init+0x52a>
    259d:	be 63 00 00 00       	mov    $0x63,%esi
    25a2:	8d b6 00 00 00 00    	lea    0x0(%esi),%esi
    25a8:	83 ec 0c             	sub    $0xc,%esp
    25ab:	8b 47 0c             	mov    0xc(%edi),%eax
    25ae:	83 c0 07             	add    $0x7,%eax
    25b1:	50                   	push   %eax
    25b2:	e8 b9 c4 00 00       	call   ea70 <pio_read_8@plt>
    25b7:	83 c4 10             	add    $0x10,%esp
    25ba:	84 c0                	test   %al,%al
    25bc:	0f 89 66 02 00 00    	jns    2828 <disk_init+0x528>
    25c2:	4e                   	dec    %esi
    25c3:	75 e3                	jne    25a8 <disk_init+0x2a8>
    25c5:	83 ec 0c             	sub    $0xc,%esp
    25c8:	be 63 00 00 00       	mov    $0x63,%esi
    25cd:	68 10 27 00 00       	push   $0x2710
    25d2:	e8 79 c6 00 00       	call   ec50 <async_usleep@plt>
    25d7:	83 c4 10             	add    $0x10,%esp
    25da:	83 ec 0c             	sub    $0xc,%esp
    25dd:	8b 47 0c             	mov    0xc(%edi),%eax
    25e0:	83 c0 07             	add    $0x7,%eax
    25e3:	50                   	push   %eax
    25e4:	e8 87 c4 00 00       	call   ea70 <pio_read_8@plt>
    25e9:	83 c4 10             	add    $0x10,%esp
    25ec:	84 c0                	test   %al,%al
    25ee:	0f 89 34 02 00 00    	jns    2828 <disk_init+0x528>
    25f4:	83 ec 0c             	sub    $0xc,%esp
    25f7:	68 10 27 00 00       	push   $0x2710
    25fc:	e8 4f c6 00 00       	call   ec50 <async_usleep@plt>
    2601:	83 c4 10             	add    $0x10,%esp
    2604:	4e                   	dec    %esi
    2605:	75 d3                	jne    25da <disk_init+0x2da>
    2607:	83 ec 0c             	sub    $0xc,%esp
    260a:	8b 43 0c             	mov    0xc(%ebx),%eax
    260d:	83 c0 05             	add    $0x5,%eax
    2610:	50                   	push   %eax
    2611:	e8 5a c4 00 00       	call   ea70 <pio_read_8@plt>
    2616:	89 c6                	mov    %eax,%esi
    2618:	8b 43 0c             	mov    0xc(%ebx),%eax
    261b:	c1 e6 08             	shl    $0x8,%esi
    261e:	83 c0 04             	add    $0x4,%eax
    2621:	89 04 24             	mov    %eax,(%esp)
    2624:	e8 47 c4 00 00       	call   ea70 <pio_read_8@plt>
    2629:	88 c2                	mov    %al,%dl
    262b:	31 c0                	xor    %eax,%eax
    262d:	88 d0                	mov    %dl,%al
    262f:	83 c4 10             	add    $0x10,%esp
    2632:	09 c6                	or     %eax,%esi
    2634:	66 81 fe 14 eb       	cmp    $0xeb14,%si
    2639:	0f 85 1a fe ff ff    	jne    2459 <disk_init+0x159>
    263f:	8b 85 74 fd ff ff    	mov    -0x28c(%ebp),%eax
    2645:	8b 58 04             	mov    0x4(%eax),%ebx
    2648:	8b 80 d0 00 00 00    	mov    0xd0(%eax),%eax
    264e:	89 c7                	mov    %eax,%edi
    2650:	89 85 70 fd ff ff    	mov    %eax,-0x290(%ebp)
    2656:	83 e7 01             	and    $0x1,%edi
    2659:	74 05                	je     2660 <disk_init+0x360>
    265b:	bf 10 00 00 00       	mov    $0x10,%edi
    2660:	83 ec 0c             	sub    $0xc,%esp
    2663:	8b 43 0c             	mov    0xc(%ebx),%eax
    2666:	83 c0 07             	add    $0x7,%eax
    2669:	50                   	push   %eax
    266a:	e8 01 c4 00 00       	call   ea70 <pio_read_8@plt>
    266f:	83 c4 10             	add    $0x10,%esp
    2672:	84 c0                	test   %al,%al
    2674:	79 24                	jns    269a <disk_init+0x39a>
    2676:	be 63 00 00 00       	mov    $0x63,%esi
    267b:	90                   	nop
    267c:	8d 74 26 00          	lea    0x0(%esi,%eiz,1),%esi
    2680:	83 ec 0c             	sub    $0xc,%esp
    2683:	8b 43 0c             	mov    0xc(%ebx),%eax
    2686:	83 c0 07             	add    $0x7,%eax
    2689:	50                   	push   %eax
    268a:	e8 e1 c3 00 00       	call   ea70 <pio_read_8@plt>
    268f:	83 c4 10             	add    $0x10,%esp
    2692:	84 c0                	test   %al,%al
    2694:	0f 88 7e 02 00 00    	js     2918 <disk_init+0x618>
    269a:	52                   	push   %edx
    269b:	52                   	push   %edx
    269c:	8b 43 0c             	mov    0xc(%ebx),%eax
    269f:	57                   	push   %edi
    26a0:	83 c0 06             	add    $0x6,%eax
    26a3:	50                   	push   %eax
    26a4:	e8 47 c4 00 00       	call   eaf0 <pio_write_8@plt>
    26a9:	8b 43 0c             	mov    0xc(%ebx),%eax
    26ac:	83 c0 07             	add    $0x7,%eax
    26af:	89 04 24             	mov    %eax,(%esp)
    26b2:	e8 b9 c3 00 00       	call   ea70 <pio_read_8@plt>
    26b7:	83 c4 10             	add    $0x10,%esp
    26ba:	84 c0                	test   %al,%al
    26bc:	79 1f                	jns    26dd <disk_init+0x3dd>
    26be:	be 63 00 00 00       	mov    $0x63,%esi
    26c3:	83 ec 0c             	sub    $0xc,%esp
    26c6:	8b 43 0c             	mov    0xc(%ebx),%eax
    26c9:	83 c0 07             	add    $0x7,%eax
    26cc:	50                   	push   %eax
    26cd:	e8 9e c3 00 00       	call   ea70 <pio_read_8@plt>
    26d2:	83 c4 10             	add    $0x10,%esp
    26d5:	84 c0                	test   %al,%al
    26d7:	0f 88 8b 02 00 00    	js     2968 <disk_init+0x668>
    26dd:	50                   	push   %eax
    26de:	50                   	push   %eax
    26df:	8b 43 0c             	mov    0xc(%ebx),%eax
    26e2:	68 a1 00 00 00       	push   $0xa1
    26e7:	83 c0 07             	add    $0x7,%eax
    26ea:	50                   	push   %eax
    26eb:	e8 00 c4 00 00       	call   eaf0 <pio_write_8@plt>
    26f0:	8b 85 74 fd ff ff    	mov    -0x28c(%ebp),%eax
    26f6:	8b 70 04             	mov    0x4(%eax),%esi
    26f9:	8b 46 0c             	mov    0xc(%esi),%eax
    26fc:	83 c0 07             	add    $0x7,%eax
    26ff:	89 04 24             	mov    %eax,(%esp)
    2702:	e8 69 c3 00 00       	call   ea70 <pio_read_8@plt>
    2707:	83 c4 10             	add    $0x10,%esp
    270a:	88 c2                	mov    %al,%dl
    270c:	84 c0                	test   %al,%al
    270e:	0f 88 a4 02 00 00    	js     29b8 <disk_init+0x6b8>
    2714:	f6 c2 08             	test   $0x8,%dl
    2717:	74 2f                	je     2748 <disk_init+0x448>
    2719:	8d bd e8 fd ff ff    	lea    -0x218(%ebp),%edi
    271f:	8d 5d e8             	lea    -0x18(%ebp),%ebx
    2722:	88 95 70 fd ff ff    	mov    %dl,-0x290(%ebp)
    2728:	83 ec 0c             	sub    $0xc,%esp
    272b:	8b 46 0c             	mov    0xc(%esi),%eax
    272e:	83 c7 02             	add    $0x2,%edi
    2731:	50                   	push   %eax
    2732:	e8 99 c4 00 00       	call   ebd0 <pio_read_16@plt>
    2737:	66 89 47 fe          	mov    %ax,-0x2(%edi)
    273b:	83 c4 10             	add    $0x10,%esp
    273e:	39 df                	cmp    %ebx,%edi
    2740:	75 e6                	jne    2728 <disk_init+0x428>
    2742:	8a 95 70 fd ff ff    	mov    -0x290(%ebp),%dl
    2748:	83 e2 01             	and    $0x1,%edx
    274b:	0f 85 08 fd ff ff    	jne    2459 <disk_init+0x159>
    2751:	8b 85 74 fd ff ff    	mov    -0x28c(%ebp),%eax
    2757:	c7 40 0c 01 00 00 00 	movl   $0x1,0xc(%eax)
    275e:	c7 40 10 00 00 00 00 	movl   $0x0,0x10(%eax)
    2765:	c7 40 18 00 00 00 00 	movl   $0x0,0x18(%eax)
    276c:	c7 40 14 00 00 00 00 	movl   $0x0,0x14(%eax)
    2773:	c7 40 1c 00 00 00 00 	movl   $0x0,0x1c(%eax)
    277a:	c7 40 20 00 00 00 00 	movl   $0x0,0x20(%eax)
    2781:	c7 40 24 00 00 00 00 	movl   $0x0,0x24(%eax)
    2788:	31 c0                	xor    %eax,%eax
    278a:	8d b6 00 00 00 00    	lea    0x0(%esi),%esi
    2790:	66 8b 94 45 1e fe ff 	mov    -0x1e2(%ebp,%eax,2),%dx
    2797:	ff 
    2798:	89 d1                	mov    %edx,%ecx
    279a:	88 94 45 c1 fd ff ff 	mov    %dl,-0x23f(%ebp,%eax,2)
    27a1:	66 c1 e9 08          	shr    $0x8,%cx
    27a5:	88 8c 45 c0 fd ff ff 	mov    %cl,-0x240(%ebp,%eax,2)
    27ac:	40                   	inc    %eax
    27ad:	83 f8 14             	cmp    $0x14,%eax
    27b0:	75 de                	jne    2790 <disk_init+0x490>
    27b2:	bb 28 00 00 00       	mov    $0x28,%ebx
    27b7:	eb 11                	jmp    27ca <disk_init+0x4ca>
    27b9:	8d b4 26 00 00 00 00 	lea    0x0(%esi,%eiz,1),%esi
    27c0:	89 c3                	mov    %eax,%ebx
    27c2:	85 c0                	test   %eax,%eax
    27c4:	0f 84 8b 02 00 00    	je     2a55 <disk_init+0x755>
    27ca:	8d 43 ff             	lea    -0x1(%ebx),%eax
    27cd:	80 bc 05 c0 fd ff ff 	cmpb   $0x20,-0x240(%ebp,%eax,1)
    27d4:	20 
    27d5:	74 e9                	je     27c0 <disk_init+0x4c0>
    27d7:	8b 85 74 fd ff ff    	mov    -0x28c(%ebp),%eax
    27dd:	8d b5 c0 fd ff ff    	lea    -0x240(%ebp),%esi
    27e3:	c7 85 80 fd ff ff 00 	movl   $0x0,-0x280(%ebp)
    27ea:	00 00 00 
    27ed:	01 f3                	add    %esi,%ebx
    27ef:	8d 78 2c             	lea    0x2c(%eax),%edi
    27f2:	eb 24                	jmp    2818 <disk_init+0x518>
    27f4:	8d 74 26 00          	lea    0x0(%esi,%eiz,1),%esi
    27f8:	8d 85 80 fd ff ff    	lea    -0x280(%ebp),%eax
    27fe:	6a 28                	push   $0x28
    2800:	50                   	push   %eax
    2801:	31 c0                	xor    %eax,%eax
    2803:	88 c8                	mov    %cl,%al
    2805:	57                   	push   %edi
    2806:	46                   	inc    %esi
    2807:	50                   	push   %eax
    2808:	e8 73 c5 00 00       	call   ed80 <chr_encode@plt>
    280d:	83 c4 10             	add    $0x10,%esp
    2810:	39 f3                	cmp    %esi,%ebx
    2812:	0f 84 10 02 00 00    	je     2a28 <disk_init+0x728>
    2818:	8a 0e                	mov    (%esi),%cl
    281a:	84 c9                	test   %cl,%cl
    281c:	79 da                	jns    27f8 <disk_init+0x4f8>
    281e:	b1 3f                	mov    $0x3f,%cl
    2820:	eb d6                	jmp    27f8 <disk_init+0x4f8>
    2822:	8d b6 00 00 00 00    	lea    0x0(%esi),%esi
    2828:	88 c2                	mov    %al,%dl
    282a:	f6 c2 08             	test   $0x8,%dl
    282d:	74 36                	je     2865 <disk_init+0x565>
    282f:	8d b5 e8 fd ff ff    	lea    -0x218(%ebp),%esi
    2835:	89 9d 70 fd ff ff    	mov    %ebx,-0x290(%ebp)
    283b:	89 f3                	mov    %esi,%ebx
    283d:	89 d6                	mov    %edx,%esi
    283f:	90                   	nop
    2840:	83 ec 0c             	sub    $0xc,%esp
    2843:	8b 47 0c             	mov    0xc(%edi),%eax
    2846:	83 c3 02             	add    $0x2,%ebx
    2849:	50                   	push   %eax
    284a:	e8 81 c3 00 00       	call   ebd0 <pio_read_16@plt>
    284f:	66 89 43 fe          	mov    %ax,-0x2(%ebx)
    2853:	8d 45 e8             	lea    -0x18(%ebp),%eax
    2856:	83 c4 10             	add    $0x10,%esp
    2859:	39 c3                	cmp    %eax,%ebx
    285b:	75 e3                	jne    2840 <disk_init+0x540>
    285d:	89 f2                	mov    %esi,%edx
    285f:	8b 9d 70 fd ff ff    	mov    -0x290(%ebp),%ebx
    2865:	83 e2 01             	and    $0x1,%edx
    2868:	0f 85 99 fd ff ff    	jne    2607 <disk_init+0x307>
    286e:	50                   	push   %eax
    286f:	50                   	push   %eax
    2870:	68 b4 c8 00 00       	push   $0xc8b4
    2875:	6a 03                	push   $0x3
    2877:	e8 04 20 00 00       	call   4880 <ddf_msg>
    287c:	8b 85 74 fd ff ff    	mov    -0x28c(%ebp),%eax
    2882:	83 c4 10             	add    $0x10,%esp
    2885:	c7 40 0c 00 00 00 00 	movl   $0x0,0xc(%eax)
    288c:	f6 85 4b fe ff ff 02 	testb  $0x2,-0x1b5(%ebp)
    2893:	75 43                	jne    28d8 <disk_init+0x5d8>
    2895:	89 c7                	mov    %eax,%edi
    2897:	c7 40 10 00 00 00 00 	movl   $0x0,0x10(%eax)
    289e:	31 c9                	xor    %ecx,%ecx
    28a0:	31 c0                	xor    %eax,%eax
    28a2:	66 8b 85 ea fd ff ff 	mov    -0x216(%ebp),%ax
    28a9:	66 8b 8d ee fd ff ff 	mov    -0x212(%ebp),%cx
    28b0:	89 47 18             	mov    %eax,0x18(%edi)
    28b3:	31 d2                	xor    %edx,%edx
    28b5:	0f af c1             	imul   %ecx,%eax
    28b8:	66 8b 95 f4 fd ff ff 	mov    -0x20c(%ebp),%dx
    28bf:	89 4f 14             	mov    %ecx,0x14(%edi)
    28c2:	0f af c2             	imul   %edx,%eax
    28c5:	89 57 1c             	mov    %edx,0x1c(%edi)
    28c8:	89 47 20             	mov    %eax,0x20(%edi)
    28cb:	c7 47 24 00 00 00 00 	movl   $0x0,0x24(%edi)
    28d2:	e9 b1 fe ff ff       	jmp    2788 <disk_init+0x488>
    28d7:	90                   	nop
    28d8:	f6 85 8f fe ff ff 04 	testb  $0x4,-0x171(%ebp)
    28df:	0f 85 7e 01 00 00    	jne    2a63 <disk_init+0x763>
    28e5:	8b 8d 60 fe ff ff    	mov    -0x1a0(%ebp),%ecx
    28eb:	c7 40 10 01 00 00 00 	movl   $0x1,0x10(%eax)
    28f2:	c7 40 18 00 00 00 00 	movl   $0x0,0x18(%eax)
    28f9:	c7 40 14 00 00 00 00 	movl   $0x0,0x14(%eax)
    2900:	c7 40 1c 00 00 00 00 	movl   $0x0,0x1c(%eax)
    2907:	89 48 20             	mov    %ecx,0x20(%eax)
    290a:	c7 40 24 00 00 00 00 	movl   $0x0,0x24(%eax)
    2911:	e9 72 fe ff ff       	jmp    2788 <disk_init+0x488>
    2916:	66 90                	xchg   %ax,%ax
    2918:	4e                   	dec    %esi
    2919:	0f 85 61 fd ff ff    	jne    2680 <disk_init+0x380>
    291f:	83 ec 0c             	sub    $0xc,%esp
    2922:	be 63 00 00 00       	mov    $0x63,%esi
    2927:	68 10 27 00 00       	push   $0x2710
    292c:	e8 1f c3 00 00       	call   ec50 <async_usleep@plt>
    2931:	83 c4 10             	add    $0x10,%esp
    2934:	83 ec 0c             	sub    $0xc,%esp
    2937:	8b 43 0c             	mov    0xc(%ebx),%eax
    293a:	83 c0 07             	add    $0x7,%eax
    293d:	50                   	push   %eax
    293e:	e8 2d c1 00 00       	call   ea70 <pio_read_8@plt>
    2943:	83 c4 10             	add    $0x10,%esp
    2946:	84 c0                	test   %al,%al
    2948:	0f 89 4c fd ff ff    	jns    269a <disk_init+0x39a>
    294e:	83 ec 0c             	sub    $0xc,%esp
    2951:	68 10 27 00 00       	push   $0x2710
    2956:	e8 f5 c2 00 00       	call   ec50 <async_usleep@plt>
    295b:	83 c4 10             	add    $0x10,%esp
    295e:	4e                   	dec    %esi
    295f:	75 d3                	jne    2934 <disk_init+0x634>
    2961:	e9 f3 fa ff ff       	jmp    2459 <disk_init+0x159>
    2966:	66 90                	xchg   %ax,%ax
    2968:	4e                   	dec    %esi
    2969:	0f 85 54 fd ff ff    	jne    26c3 <disk_init+0x3c3>
    296f:	83 ec 0c             	sub    $0xc,%esp
    2972:	be 63 00 00 00       	mov    $0x63,%esi
    2977:	68 10 27 00 00       	push   $0x2710
    297c:	e8 cf c2 00 00       	call   ec50 <async_usleep@plt>
    2981:	83 c4 10             	add    $0x10,%esp
    2984:	83 ec 0c             	sub    $0xc,%esp
    2987:	8b 43 0c             	mov    0xc(%ebx),%eax
    298a:	83 c0 07             	add    $0x7,%eax
    298d:	50                   	push   %eax
    298e:	e8 dd c0 00 00       	call   ea70 <pio_read_8@plt>
    2993:	83 c4 10             	add    $0x10,%esp
    2996:	84 c0                	test   %al,%al
    2998:	0f 89 3f fd ff ff    	jns    26dd <disk_init+0x3dd>
    299e:	83 ec 0c             	sub    $0xc,%esp
    29a1:	68 10 27 00 00       	push   $0x2710
    29a6:	e8 a5 c2 00 00       	call   ec50 <async_usleep@plt>
    29ab:	83 c4 10             	add    $0x10,%esp
    29ae:	4e                   	dec    %esi
    29af:	75 d3                	jne    2984 <disk_init+0x684>
    29b1:	e9 a3 fa ff ff       	jmp    2459 <disk_init+0x159>
    29b6:	66 90                	xchg   %ax,%ax
    29b8:	bb 63 00 00 00       	mov    $0x63,%ebx
    29bd:	83 ec 0c             	sub    $0xc,%esp
    29c0:	8b 46 0c             	mov    0xc(%esi),%eax
    29c3:	83 c0 07             	add    $0x7,%eax
    29c6:	50                   	push   %eax
    29c7:	e8 a4 c0 00 00       	call   ea70 <pio_read_8@plt>
    29cc:	83 c4 10             	add    $0x10,%esp
    29cf:	84 c0                	test   %al,%al
    29d1:	79 4d                	jns    2a20 <disk_init+0x720>
    29d3:	4b                   	dec    %ebx
    29d4:	75 e7                	jne    29bd <disk_init+0x6bd>
    29d6:	83 ec 0c             	sub    $0xc,%esp
    29d9:	bb 63 00 00 00       	mov    $0x63,%ebx
    29de:	68 10 27 00 00       	push   $0x2710
    29e3:	e8 68 c2 00 00       	call   ec50 <async_usleep@plt>
    29e8:	83 c4 10             	add    $0x10,%esp
    29eb:	83 ec 0c             	sub    $0xc,%esp
    29ee:	8b 46 0c             	mov    0xc(%esi),%eax
    29f1:	83 c0 07             	add    $0x7,%eax
    29f4:	50                   	push   %eax
    29f5:	e8 76 c0 00 00       	call   ea70 <pio_read_8@plt>
    29fa:	83 c4 10             	add    $0x10,%esp
    29fd:	84 c0                	test   %al,%al
    29ff:	79 1f                	jns    2a20 <disk_init+0x720>
    2a01:	83 ec 0c             	sub    $0xc,%esp
    2a04:	68 10 27 00 00       	push   $0x2710
    2a09:	e8 42 c2 00 00       	call   ec50 <async_usleep@plt>
    2a0e:	83 c4 10             	add    $0x10,%esp
    2a11:	4b                   	dec    %ebx
    2a12:	75 d7                	jne    29eb <disk_init+0x6eb>
    2a14:	e9 40 fa ff ff       	jmp    2459 <disk_init+0x159>
    2a19:	8d b4 26 00 00 00 00 	lea    0x0(%esi,%eiz,1),%esi
    2a20:	88 c2                	mov    %al,%dl
    2a22:	e9 ed fc ff ff       	jmp    2714 <disk_init+0x414>
    2a27:	90                   	nop
    2a28:	8b 85 80 fd ff ff    	mov    -0x280(%ebp),%eax
    2a2e:	8b 8d 74 fd ff ff    	mov    -0x28c(%ebp),%ecx
    2a34:	c6 44 01 2c 00       	movb   $0x0,0x2c(%ecx,%eax,1)
    2a39:	83 79 0c 01          	cmpl   $0x1,0xc(%ecx)
    2a3d:	74 59                	je     2a98 <disk_init+0x798>
    2a3f:	89 c8                	mov    %ecx,%eax
    2a41:	c7 41 28 00 02 00 00 	movl   $0x200,0x28(%ecx)
    2a48:	c6 00 01             	movb   $0x1,(%eax)
    2a4b:	8d 65 f4             	lea    -0xc(%ebp),%esp
    2a4e:	31 c0                	xor    %eax,%eax
    2a50:	5b                   	pop    %ebx
    2a51:	5e                   	pop    %esi
    2a52:	5f                   	pop    %edi
    2a53:	5d                   	pop    %ebp
    2a54:	c3                   	ret    
    2a55:	c7 85 80 fd ff ff 00 	movl   $0x0,-0x280(%ebp)
    2a5c:	00 00 00 
    2a5f:	31 c0                	xor    %eax,%eax
    2a61:	eb cb                	jmp    2a2e <disk_init+0x72e>
    2a63:	89 c1                	mov    %eax,%ecx
    2a65:	c7 40 10 02 00 00 00 	movl   $0x2,0x10(%eax)
    2a6c:	c7 40 18 00 00 00 00 	movl   $0x0,0x18(%eax)
    2a73:	c7 40 14 00 00 00 00 	movl   $0x0,0x14(%eax)
    2a7a:	c7 40 1c 00 00 00 00 	movl   $0x0,0x1c(%eax)
    2a81:	8b 95 b4 fe ff ff    	mov    -0x14c(%ebp),%edx
    2a87:	8b 85 b0 fe ff ff    	mov    -0x150(%ebp),%eax
    2a8d:	89 51 24             	mov    %edx,0x24(%ecx)
    2a90:	89 41 20             	mov    %eax,0x20(%ecx)
    2a93:	e9 f0 fc ff ff       	jmp    2788 <disk_init+0x488>
    2a98:	8d 9d 90 fd ff ff    	lea    -0x270(%ebp),%ebx
    2a9e:	56                   	push   %esi
    2a9f:	6a 0c                	push   $0xc
    2aa1:	6a 00                	push   $0x0
    2aa3:	53                   	push   %ebx
    2aa4:	e8 67 c1 00 00       	call   ec10 <memset@plt>
    2aa9:	5f                   	pop    %edi
    2aaa:	58                   	pop    %eax
    2aab:	8d 85 7c fd ff ff    	lea    -0x284(%ebp),%eax
    2ab1:	8d 8d 9c fd ff ff    	lea    -0x264(%ebp),%ecx
    2ab7:	50                   	push   %eax
    2ab8:	89 da                	mov    %ebx,%edx
    2aba:	8b 85 74 fd ff ff    	mov    -0x28c(%ebp),%eax
    2ac0:	6a 24                	push   $0x24
    2ac2:	c6 85 90 fd ff ff 12 	movb   $0x12,-0x270(%ebp)
    2ac9:	66 c7 85 93 fd ff ff 	movw   $0x2400,-0x26d(%ebp)
    2ad0:	00 24 
    2ad2:	e8 79 ee ff ff       	call   1950 <ata_cmd_packet.constprop.12>
    2ad7:	83 c4 10             	add    $0x10,%esp
    2ada:	85 c0                	test   %eax,%eax
    2adc:	0f 85 b5 00 00 00    	jne    2b97 <disk_init+0x897>
    2ae2:	83 bd 7c fd ff ff 23 	cmpl   $0x23,-0x284(%ebp)
    2ae9:	0f 86 a8 00 00 00    	jbe    2b97 <disk_init+0x897>
    2aef:	8a 85 9c fd ff ff    	mov    -0x264(%ebp),%al
    2af5:	83 e0 1f             	and    $0x1f,%eax
    2af8:	3c 05                	cmp    $0x5,%al
    2afa:	74 11                	je     2b0d <disk_init+0x80d>
    2afc:	51                   	push   %ecx
    2afd:	51                   	push   %ecx
    2afe:	68 8c c8 00 00       	push   $0xc88c
    2b03:	6a 02                	push   $0x2
    2b05:	e8 76 1d 00 00       	call   4880 <ddf_msg>
    2b0a:	83 c4 10             	add    $0x10,%esp
    2b0d:	50                   	push   %eax
    2b0e:	6a 0c                	push   $0xc
    2b10:	6a 00                	push   $0x0
    2b12:	53                   	push   %ebx
    2b13:	e8 f8 c0 00 00       	call   ec10 <memset@plt>
    2b18:	58                   	pop    %eax
    2b19:	8b bd 74 fd ff ff    	mov    -0x28c(%ebp),%edi
    2b1f:	8d 85 84 fd ff ff    	lea    -0x27c(%ebp),%eax
    2b25:	5a                   	pop    %edx
    2b26:	8d 8d 88 fd ff ff    	lea    -0x278(%ebp),%ecx
    2b2c:	50                   	push   %eax
    2b2d:	89 da                	mov    %ebx,%edx
    2b2f:	89 f8                	mov    %edi,%eax
    2b31:	6a 08                	push   $0x8
    2b33:	c6 85 90 fd ff ff 25 	movb   $0x25,-0x270(%ebp)
    2b3a:	e8 11 ee ff ff       	call   1950 <ata_cmd_packet.constprop.12>
    2b3f:	83 c4 10             	add    $0x10,%esp
    2b42:	85 c0                	test   %eax,%eax
    2b44:	75 32                	jne    2b78 <disk_init+0x878>
    2b46:	83 bd 84 fd ff ff 08 	cmpl   $0x8,-0x27c(%ebp)
    2b4d:	75 29                	jne    2b78 <disk_init+0x878>
    2b4f:	8b 85 88 fd ff ff    	mov    -0x278(%ebp),%eax
    2b55:	8b 95 8c fd ff ff    	mov    -0x274(%ebp),%edx
    2b5b:	0f c8                	bswap  %eax
    2b5d:	40                   	inc    %eax
    2b5e:	c7 47 24 00 00 00 00 	movl   $0x0,0x24(%edi)
    2b65:	0f ca                	bswap  %edx
    2b67:	89 47 20             	mov    %eax,0x20(%edi)
    2b6a:	89 57 28             	mov    %edx,0x28(%edi)
    2b6d:	8b 85 74 fd ff ff    	mov    -0x28c(%ebp),%eax
    2b73:	e9 d0 fe ff ff       	jmp    2a48 <disk_init+0x748>
    2b78:	57                   	push   %edi
    2b79:	57                   	push   %edi
    2b7a:	68 c1 c7 00 00       	push   $0xc7c1
    2b7f:	6a 01                	push   $0x1
    2b81:	e8 fa 1c 00 00       	call   4880 <ddf_msg>
    2b86:	8b 85 74 fd ff ff    	mov    -0x28c(%ebp),%eax
    2b8c:	83 c4 10             	add    $0x10,%esp
    2b8f:	c6 00 00             	movb   $0x0,(%eax)
    2b92:	e9 c2 f8 ff ff       	jmp    2459 <disk_init+0x159>
    2b97:	53                   	push   %ebx
    2b98:	53                   	push   %ebx
    2b99:	68 aa c7 00 00       	push   $0xc7aa
    2b9e:	eb df                	jmp    2b7f <disk_init+0x87f>

00002ba0 <ata_ctrl_init>:
    2ba0:	55                   	push   %ebp
    2ba1:	89 e5                	mov    %esp,%ebp
    2ba3:	57                   	push   %edi
    2ba4:	56                   	push   %esi
    2ba5:	53                   	push   %ebx
    2ba6:	83 ec 44             	sub    $0x44,%esp
    2ba9:	8b 5d 08             	mov    0x8(%ebp),%ebx
    2bac:	8b 75 0c             	mov    0xc(%ebp),%esi
    2baf:	68 df c7 00 00       	push   $0xc7df
    2bb4:	6a 04                	push   $0x4
    2bb6:	e8 c5 1c 00 00       	call   4880 <ddf_msg>
    2bbb:	8d 83 bc 01 00 00    	lea    0x1bc(%ebx),%eax
    2bc1:	89 04 24             	mov    %eax,(%esp)
    2bc4:	e8 a7 bf 00 00       	call   eb70 <fibril_mutex_initialize@plt>
    2bc9:	8b 06                	mov    (%esi),%eax
    2bcb:	8b 56 04             	mov    0x4(%esi),%edx
    2bce:	89 43 04             	mov    %eax,0x4(%ebx)
    2bd1:	89 53 08             	mov    %edx,0x8(%ebx)
    2bd4:	52                   	push   %edx
    2bd5:	50                   	push   %eax
    2bd6:	68 ef c7 00 00       	push   $0xc7ef
    2bdb:	6a 03                	push   $0x3
    2bdd:	e8 9e 1c 00 00       	call   4880 <ddf_msg>
    2be2:	83 c4 1c             	add    $0x1c,%esp
    2be5:	8d 45 e4             	lea    -0x1c(%ebp),%eax
    2be8:	50                   	push   %eax
    2be9:	6a 08                	push   $0x8
    2beb:	8b 53 04             	mov    0x4(%ebx),%edx
    2bee:	52                   	push   %edx
    2bef:	e8 8c bc 00 00       	call   e880 <pio_enable@plt>
    2bf4:	83 c4 10             	add    $0x10,%esp
    2bf7:	85 c0                	test   %eax,%eax
    2bf9:	0f 85 39 01 00 00    	jne    2d38 <ata_ctrl_init+0x198>
    2bff:	8b 45 e4             	mov    -0x1c(%ebp),%eax
    2c02:	89 43 0c             	mov    %eax,0xc(%ebx)
    2c05:	50                   	push   %eax
    2c06:	8d 45 e4             	lea    -0x1c(%ebp),%eax
    2c09:	50                   	push   %eax
    2c0a:	6a 08                	push   $0x8
    2c0c:	8b 43 08             	mov    0x8(%ebx),%eax
    2c0f:	50                   	push   %eax
    2c10:	e8 6b bc 00 00       	call   e880 <pio_enable@plt>
    2c15:	83 c4 10             	add    $0x10,%esp
    2c18:	89 45 c4             	mov    %eax,-0x3c(%ebp)
    2c1b:	85 c0                	test   %eax,%eax
    2c1d:	0f 85 4d 02 00 00    	jne    2e70 <ata_ctrl_init+0x2d0>
    2c23:	8b 45 e4             	mov    -0x1c(%ebp),%eax
    2c26:	31 f6                	xor    %esi,%esi
    2c28:	89 43 10             	mov    %eax,0x10(%ebx)
    2c2b:	8d 43 14             	lea    0x14(%ebx),%eax
    2c2e:	89 45 d0             	mov    %eax,-0x30(%ebp)
    2c31:	89 c7                	mov    %eax,%edi
    2c33:	89 5d 08             	mov    %ebx,0x8(%ebp)
    2c36:	50                   	push   %eax
    2c37:	56                   	push   %esi
    2c38:	68 01 c8 00 00       	push   $0xc801
    2c3d:	6a 03                	push   $0x3
    2c3f:	e8 3c 1c 00 00       	call   4880 <ddf_msg>
    2c44:	89 f1                	mov    %esi,%ecx
    2c46:	89 fa                	mov    %edi,%edx
    2c48:	8b 45 08             	mov    0x8(%ebp),%eax
    2c4b:	e8 b0 f6 ff ff       	call   2300 <disk_init>
    2c50:	83 c4 10             	add    $0x10,%esp
    2c53:	85 c0                	test   %eax,%eax
    2c55:	75 51                	jne    2ca8 <ata_ctrl_init+0x108>
    2c57:	8b 47 0c             	mov    0xc(%edi),%eax
    2c5a:	c7 45 e0 00 00 00 00 	movl   $0x0,-0x20(%ebp)
    2c61:	c7 45 e4 00 00 00 00 	movl   $0x0,-0x1c(%ebp)
    2c68:	85 c0                	test   %eax,%eax
    2c6a:	0f 85 e8 00 00 00    	jne    2d58 <ata_ctrl_init+0x1b8>
    2c70:	8b 47 10             	mov    0x10(%edi),%eax
    2c73:	83 f8 01             	cmp    $0x1,%eax
    2c76:	0f 84 7c 02 00 00    	je     2ef8 <ata_ctrl_init+0x358>
    2c7c:	0f 82 3e 02 00 00    	jb     2ec0 <ata_ctrl_init+0x320>
    2c82:	83 f8 02             	cmp    $0x2,%eax
    2c85:	75 32                	jne    2cb9 <ata_ctrl_init+0x119>
    2c87:	83 ec 0c             	sub    $0xc,%esp
    2c8a:	68 1d c8 00 00       	push   $0xc81d
    2c8f:	e8 cc be 00 00       	call   eb60 <str_dup@plt>
    2c94:	83 c4 10             	add    $0x10,%esp
    2c97:	89 45 d4             	mov    %eax,-0x2c(%ebp)
    2c9a:	89 45 e0             	mov    %eax,-0x20(%ebp)
    2c9d:	e9 cc 00 00 00       	jmp    2d6e <ata_ctrl_init+0x1ce>
    2ca2:	8d b6 00 00 00 00    	lea    0x0(%esi),%esi
    2ca8:	50                   	push   %eax
    2ca9:	50                   	push   %eax
    2caa:	68 4a c8 00 00       	push   $0xc84a
    2caf:	6a 03                	push   $0x3
    2cb1:	e8 ca 1b 00 00       	call   4880 <ddf_msg>
    2cb6:	83 c4 10             	add    $0x10,%esp
    2cb9:	46                   	inc    %esi
    2cba:	81 c7 d4 00 00 00    	add    $0xd4,%edi
    2cc0:	83 fe 02             	cmp    $0x2,%esi
    2cc3:	0f 85 6d ff ff ff    	jne    2c36 <ata_ctrl_init+0x96>
    2cc9:	8b 5d 08             	mov    0x8(%ebp),%ebx
    2ccc:	80 7b 14 00          	cmpb   $0x0,0x14(%ebx)
    2cd0:	0f 85 32 01 00 00    	jne    2e08 <ata_ctrl_init+0x268>
    2cd6:	80 bb e8 00 00 00 00 	cmpb   $0x0,0xe8(%ebx)
    2cdd:	0f 85 4d 01 00 00    	jne    2e30 <ata_ctrl_init+0x290>
    2ce3:	50                   	push   %eax
    2ce4:	50                   	push   %eax
    2ce5:	68 55 c8 00 00       	push   $0xc855
    2cea:	6a 02                	push   $0x2
    2cec:	be f6 fe ff ff       	mov    $0xfffffef6,%esi
    2cf1:	e8 8a 1b 00 00       	call   4880 <ddf_msg>
    2cf6:	81 c3 e8 00 00 00    	add    $0xe8,%ebx
    2cfc:	83 c4 10             	add    $0x10,%esp
    2cff:	83 ec 0c             	sub    $0xc,%esp
    2d02:	8b 7d d0             	mov    -0x30(%ebp),%edi
    2d05:	57                   	push   %edi
    2d06:	e8 15 07 00 00       	call   3420 <ata_fun_remove>
    2d0b:	83 c4 10             	add    $0x10,%esp
    2d0e:	85 c0                	test   %eax,%eax
    2d10:	0f 85 92 01 00 00    	jne    2ea8 <ata_ctrl_init+0x308>
    2d16:	83 ec 0c             	sub    $0xc,%esp
    2d19:	53                   	push   %ebx
    2d1a:	e8 01 07 00 00       	call   3420 <ata_fun_remove>
    2d1f:	83 c4 10             	add    $0x10,%esp
    2d22:	85 c0                	test   %eax,%eax
    2d24:	0f 85 66 01 00 00    	jne    2e90 <ata_ctrl_init+0x2f0>
    2d2a:	8d 65 f4             	lea    -0xc(%ebp),%esp
    2d2d:	89 f0                	mov    %esi,%eax
    2d2f:	5b                   	pop    %ebx
    2d30:	5e                   	pop    %esi
    2d31:	5f                   	pop    %edi
    2d32:	5d                   	pop    %ebp
    2d33:	c3                   	ret    
    2d34:	8d 74 26 00          	lea    0x0(%esi,%eiz,1),%esi
    2d38:	89 c6                	mov    %eax,%esi
    2d3a:	50                   	push   %eax
    2d3b:	50                   	push   %eax
    2d3c:	68 d4 c8 00 00       	push   $0xc8d4
    2d41:	6a 01                	push   $0x1
    2d43:	e8 38 1b 00 00       	call   4880 <ddf_msg>
    2d48:	83 c4 10             	add    $0x10,%esp
    2d4b:	8d 65 f4             	lea    -0xc(%ebp),%esp
    2d4e:	89 f0                	mov    %esi,%eax
    2d50:	5b                   	pop    %ebx
    2d51:	5e                   	pop    %esi
    2d52:	5f                   	pop    %edi
    2d53:	5d                   	pop    %ebp
    2d54:	c3                   	ret    
    2d55:	8d 76 00             	lea    0x0(%esi),%esi
    2d58:	83 ec 0c             	sub    $0xc,%esp
    2d5b:	68 24 c8 00 00       	push   $0xc824
    2d60:	e8 fb bd 00 00       	call   eb60 <str_dup@plt>
    2d65:	83 c4 10             	add    $0x10,%esp
    2d68:	89 45 d4             	mov    %eax,-0x2c(%ebp)
    2d6b:	89 45 e0             	mov    %eax,-0x20(%ebp)
    2d6e:	8b 45 d4             	mov    -0x2c(%ebp),%eax
    2d71:	85 c0                	test   %eax,%eax
    2d73:	0f 84 40 ff ff ff    	je     2cb9 <ata_ctrl_init+0x119>
    2d79:	8b 4f 20             	mov    0x20(%edi),%ecx
    2d7c:	8b 5f 24             	mov    0x24(%edi),%ebx
    2d7f:	89 da                	mov    %ebx,%edx
    2d81:	89 c8                	mov    %ecx,%eax
    2d83:	0f ac d0 0b          	shrd   $0xb,%edx,%eax
    2d87:	c1 ea 0b             	shr    $0xb,%edx
    2d8a:	89 45 c8             	mov    %eax,-0x38(%ebp)
    2d8d:	89 55 cc             	mov    %edx,-0x34(%ebp)
    2d90:	89 c2                	mov    %eax,%edx
    2d92:	8b 45 cc             	mov    -0x34(%ebp),%eax
    2d95:	09 d0                	or     %edx,%eax
    2d97:	74 2d                	je     2dc6 <ata_ctrl_init+0x226>
    2d99:	8b 45 cc             	mov    -0x34(%ebp),%eax
    2d9c:	50                   	push   %eax
    2d9d:	8b 45 c8             	mov    -0x38(%ebp),%eax
    2da0:	50                   	push   %eax
    2da1:	8d 45 e4             	lea    -0x1c(%ebp),%eax
    2da4:	68 2b c8 00 00       	push   $0xc82b
    2da9:	50                   	push   %eax
    2daa:	e8 b1 be 00 00       	call   ec60 <asprintf@plt>
    2daf:	83 c4 10             	add    $0x10,%esp
    2db2:	85 c0                	test   %eax,%eax
    2db4:	0f 88 5e 01 00 00    	js     2f18 <ata_ctrl_init+0x378>
    2dba:	8b 45 e0             	mov    -0x20(%ebp),%eax
    2dbd:	8b 4f 20             	mov    0x20(%edi),%ecx
    2dc0:	8b 5f 24             	mov    0x24(%edi),%ebx
    2dc3:	89 45 d4             	mov    %eax,-0x2c(%ebp)
    2dc6:	50                   	push   %eax
    2dc7:	8b 45 e4             	mov    -0x1c(%ebp),%eax
    2dca:	50                   	push   %eax
    2dcb:	8b 45 d4             	mov    -0x2c(%ebp),%eax
    2dce:	53                   	push   %ebx
    2dcf:	51                   	push   %ecx
    2dd0:	50                   	push   %eax
    2dd1:	8d 47 2c             	lea    0x2c(%edi),%eax
    2dd4:	50                   	push   %eax
    2dd5:	68 35 c8 00 00       	push   $0xc835
    2dda:	6a 03                	push   $0x3
    2ddc:	e8 9f 1a 00 00       	call   4880 <ddf_msg>
    2de1:	83 c4 20             	add    $0x20,%esp
    2de4:	83 ec 0c             	sub    $0xc,%esp
    2de7:	8b 45 e0             	mov    -0x20(%ebp),%eax
    2dea:	50                   	push   %eax
    2deb:	e8 f0 bf 00 00       	call   ede0 <free@plt>
    2df0:	8b 55 e4             	mov    -0x1c(%ebp),%edx
    2df3:	58                   	pop    %eax
    2df4:	52                   	push   %edx
    2df5:	e8 e6 bf 00 00       	call   ede0 <free@plt>
    2dfa:	83 c4 10             	add    $0x10,%esp
    2dfd:	e9 b7 fe ff ff       	jmp    2cb9 <ata_ctrl_init+0x119>
    2e02:	8d b6 00 00 00 00    	lea    0x0(%esi),%esi
    2e08:	83 ec 0c             	sub    $0xc,%esp
    2e0b:	8b 45 d0             	mov    -0x30(%ebp),%eax
    2e0e:	50                   	push   %eax
    2e0f:	e8 8c 04 00 00       	call   32a0 <ata_fun_create>
    2e14:	83 c4 10             	add    $0x10,%esp
    2e17:	89 c6                	mov    %eax,%esi
    2e19:	85 c0                	test   %eax,%eax
    2e1b:	0f 85 03 01 00 00    	jne    2f24 <ata_ctrl_init+0x384>
    2e21:	80 bb e8 00 00 00 00 	cmpb   $0x0,0xe8(%ebx)
    2e28:	0f 84 fc fe ff ff    	je     2d2a <ata_ctrl_init+0x18a>
    2e2e:	66 90                	xchg   %ax,%ax
    2e30:	83 ec 0c             	sub    $0xc,%esp
    2e33:	81 c3 e8 00 00 00    	add    $0xe8,%ebx
    2e39:	53                   	push   %ebx
    2e3a:	e8 61 04 00 00       	call   32a0 <ata_fun_create>
    2e3f:	83 c4 10             	add    $0x10,%esp
    2e42:	89 c6                	mov    %eax,%esi
    2e44:	85 c0                	test   %eax,%eax
    2e46:	0f 84 de fe ff ff    	je     2d2a <ata_ctrl_init+0x18a>
    2e4c:	c7 45 c4 01 00 00 00 	movl   $0x1,-0x3c(%ebp)
    2e53:	50                   	push   %eax
    2e54:	8b 45 c4             	mov    -0x3c(%ebp),%eax
    2e57:	50                   	push   %eax
    2e58:	68 20 c9 00 00       	push   $0xc920
    2e5d:	6a 01                	push   $0x1
    2e5f:	e8 1c 1a 00 00       	call   4880 <ddf_msg>
    2e64:	83 c4 10             	add    $0x10,%esp
    2e67:	e9 93 fe ff ff       	jmp    2cff <ata_ctrl_init+0x15f>
    2e6c:	8d 74 26 00          	lea    0x0(%esi,%eiz,1),%esi
    2e70:	50                   	push   %eax
    2e71:	50                   	push   %eax
    2e72:	68 d4 c8 00 00       	push   $0xc8d4
    2e77:	6a 01                	push   $0x1
    2e79:	e8 02 1a 00 00       	call   4880 <ddf_msg>
    2e7e:	8b 75 c4             	mov    -0x3c(%ebp),%esi
    2e81:	83 c4 10             	add    $0x10,%esp
    2e84:	8d 65 f4             	lea    -0xc(%ebp),%esp
    2e87:	89 f0                	mov    %esi,%eax
    2e89:	5b                   	pop    %ebx
    2e8a:	5e                   	pop    %esi
    2e8b:	5f                   	pop    %edi
    2e8c:	5d                   	pop    %ebp
    2e8d:	c3                   	ret    
    2e8e:	66 90                	xchg   %ax,%ax
    2e90:	52                   	push   %edx
    2e91:	6a 01                	push   $0x1
    2e93:	68 48 c9 00 00       	push   $0xc948
    2e98:	6a 01                	push   $0x1
    2e9a:	e8 e1 19 00 00       	call   4880 <ddf_msg>
    2e9f:	83 c4 10             	add    $0x10,%esp
    2ea2:	e9 83 fe ff ff       	jmp    2d2a <ata_ctrl_init+0x18a>
    2ea7:	90                   	nop
    2ea8:	51                   	push   %ecx
    2ea9:	6a 00                	push   $0x0
    2eab:	68 48 c9 00 00       	push   $0xc948
    2eb0:	6a 01                	push   $0x1
    2eb2:	e8 c9 19 00 00       	call   4880 <ddf_msg>
    2eb7:	83 c4 10             	add    $0x10,%esp
    2eba:	e9 57 fe ff ff       	jmp    2d16 <ata_ctrl_init+0x176>
    2ebf:	90                   	nop
    2ec0:	83 ec 0c             	sub    $0xc,%esp
    2ec3:	8b 57 1c             	mov    0x1c(%edi),%edx
    2ec6:	8d 45 e0             	lea    -0x20(%ebp),%eax
    2ec9:	52                   	push   %edx
    2eca:	8b 4f 14             	mov    0x14(%edi),%ecx
    2ecd:	51                   	push   %ecx
    2ece:	8b 5f 18             	mov    0x18(%edi),%ebx
    2ed1:	53                   	push   %ebx
    2ed2:	68 f8 c8 00 00       	push   $0xc8f8
    2ed7:	50                   	push   %eax
    2ed8:	e8 83 bd 00 00       	call   ec60 <asprintf@plt>
    2edd:	83 c4 20             	add    $0x20,%esp
    2ee0:	85 c0                	test   %eax,%eax
    2ee2:	0f 88 d1 fd ff ff    	js     2cb9 <ata_ctrl_init+0x119>
    2ee8:	8b 45 e0             	mov    -0x20(%ebp),%eax
    2eeb:	89 45 d4             	mov    %eax,-0x2c(%ebp)
    2eee:	e9 7b fe ff ff       	jmp    2d6e <ata_ctrl_init+0x1ce>
    2ef3:	90                   	nop
    2ef4:	8d 74 26 00          	lea    0x0(%esi,%eiz,1),%esi
    2ef8:	83 ec 0c             	sub    $0xc,%esp
    2efb:	68 16 c8 00 00       	push   $0xc816
    2f00:	e8 5b bc 00 00       	call   eb60 <str_dup@plt>
    2f05:	83 c4 10             	add    $0x10,%esp
    2f08:	89 45 d4             	mov    %eax,-0x2c(%ebp)
    2f0b:	89 45 e0             	mov    %eax,-0x20(%ebp)
    2f0e:	e9 5b fe ff ff       	jmp    2d6e <ata_ctrl_init+0x1ce>
    2f13:	90                   	nop
    2f14:	8d 74 26 00          	lea    0x0(%esi,%eiz,1),%esi
    2f18:	c7 45 e4 00 00 00 00 	movl   $0x0,-0x1c(%ebp)
    2f1f:	e9 c0 fe ff ff       	jmp    2de4 <ata_ctrl_init+0x244>
    2f24:	81 c3 e8 00 00 00    	add    $0xe8,%ebx
    2f2a:	e9 24 ff ff ff       	jmp    2e53 <ata_ctrl_init+0x2b3>
    2f2f:	90                   	nop

00002f30 <ata_ctrl_remove>:
    2f30:	55                   	push   %ebp
    2f31:	89 e5                	mov    %esp,%ebp
    2f33:	56                   	push   %esi
    2f34:	53                   	push   %ebx
    2f35:	83 ec 18             	sub    $0x18,%esp
    2f38:	8b 5d 08             	mov    0x8(%ebp),%ebx
    2f3b:	68 68 c8 00 00       	push   $0xc868
    2f40:	6a 04                	push   $0x4
    2f42:	8d b3 bc 01 00 00    	lea    0x1bc(%ebx),%esi
    2f48:	e8 33 19 00 00       	call   4880 <ddf_msg>
    2f4d:	89 34 24             	mov    %esi,(%esp)
    2f50:	e8 ab be 00 00       	call   ee00 <fibril_mutex_lock@plt>
    2f55:	8d 43 14             	lea    0x14(%ebx),%eax
    2f58:	89 04 24             	mov    %eax,(%esp)
    2f5b:	e8 c0 04 00 00       	call   3420 <ata_fun_remove>
    2f60:	83 c4 10             	add    $0x10,%esp
    2f63:	85 c0                	test   %eax,%eax
    2f65:	75 31                	jne    2f98 <ata_ctrl_remove+0x68>
    2f67:	83 ec 0c             	sub    $0xc,%esp
    2f6a:	81 c3 e8 00 00 00    	add    $0xe8,%ebx
    2f70:	53                   	push   %ebx
    2f71:	e8 aa 04 00 00       	call   3420 <ata_fun_remove>
    2f76:	83 c4 10             	add    $0x10,%esp
    2f79:	85 c0                	test   %eax,%eax
    2f7b:	75 3b                	jne    2fb8 <ata_ctrl_remove+0x88>
    2f7d:	83 ec 0c             	sub    $0xc,%esp
    2f80:	89 45 f4             	mov    %eax,-0xc(%ebp)
    2f83:	56                   	push   %esi
    2f84:	e8 b7 bb 00 00       	call   eb40 <fibril_mutex_unlock@plt>
    2f89:	83 c4 10             	add    $0x10,%esp
    2f8c:	8b 45 f4             	mov    -0xc(%ebp),%eax
    2f8f:	8d 65 f8             	lea    -0x8(%ebp),%esp
    2f92:	5b                   	pop    %ebx
    2f93:	5e                   	pop    %esi
    2f94:	5d                   	pop    %ebp
    2f95:	c3                   	ret    
    2f96:	66 90                	xchg   %ax,%ax
    2f98:	31 d2                	xor    %edx,%edx
    2f9a:	89 45 f4             	mov    %eax,-0xc(%ebp)
    2f9d:	50                   	push   %eax
    2f9e:	52                   	push   %edx
    2f9f:	68 48 c9 00 00       	push   $0xc948
    2fa4:	6a 01                	push   $0x1
    2fa6:	e8 d5 18 00 00       	call   4880 <ddf_msg>
    2fab:	83 c4 10             	add    $0x10,%esp
    2fae:	8b 45 f4             	mov    -0xc(%ebp),%eax
    2fb1:	eb dc                	jmp    2f8f <ata_ctrl_remove+0x5f>
    2fb3:	90                   	nop
    2fb4:	8d 74 26 00          	lea    0x0(%esi,%eiz,1),%esi
    2fb8:	ba 01 00 00 00       	mov    $0x1,%edx
    2fbd:	eb db                	jmp    2f9a <ata_ctrl_remove+0x6a>
    2fbf:	90                   	nop

00002fc0 <ata_ctrl_gone>:
    2fc0:	55                   	push   %ebp
    2fc1:	89 e5                	mov    %esp,%ebp
    2fc3:	56                   	push   %esi
    2fc4:	53                   	push   %ebx
    2fc5:	83 ec 18             	sub    $0x18,%esp
    2fc8:	8b 5d 08             	mov    0x8(%ebp),%ebx
    2fcb:	68 7c c8 00 00       	push   $0xc87c
    2fd0:	6a 04                	push   $0x4
    2fd2:	8d b3 bc 01 00 00    	lea    0x1bc(%ebx),%esi
    2fd8:	e8 a3 18 00 00       	call   4880 <ddf_msg>
    2fdd:	89 34 24             	mov    %esi,(%esp)
    2fe0:	e8 1b be 00 00       	call   ee00 <fibril_mutex_lock@plt>
    2fe5:	8d 43 14             	lea    0x14(%ebx),%eax
    2fe8:	89 04 24             	mov    %eax,(%esp)
    2feb:	e8 60 05 00 00       	call   3550 <ata_fun_unbind>
    2ff0:	83 c4 10             	add    $0x10,%esp
    2ff3:	85 c0                	test   %eax,%eax
    2ff5:	75 31                	jne    3028 <ata_ctrl_gone+0x68>
    2ff7:	83 ec 0c             	sub    $0xc,%esp
    2ffa:	81 c3 e8 00 00 00    	add    $0xe8,%ebx
    3000:	53                   	push   %ebx
    3001:	e8 4a 05 00 00       	call   3550 <ata_fun_unbind>
    3006:	83 c4 10             	add    $0x10,%esp
    3009:	85 c0                	test   %eax,%eax
    300b:	75 3b                	jne    3048 <ata_ctrl_gone+0x88>
    300d:	83 ec 0c             	sub    $0xc,%esp
    3010:	89 45 f4             	mov    %eax,-0xc(%ebp)
    3013:	56                   	push   %esi
    3014:	e8 27 bb 00 00       	call   eb40 <fibril_mutex_unlock@plt>
    3019:	83 c4 10             	add    $0x10,%esp
    301c:	8b 45 f4             	mov    -0xc(%ebp),%eax
    301f:	8d 65 f8             	lea    -0x8(%ebp),%esp
    3022:	5b                   	pop    %ebx
    3023:	5e                   	pop    %esi
    3024:	5d                   	pop    %ebp
    3025:	c3                   	ret    
    3026:	66 90                	xchg   %ax,%ax
    3028:	31 d2                	xor    %edx,%edx
    302a:	89 45 f4             	mov    %eax,-0xc(%ebp)
    302d:	50                   	push   %eax
    302e:	52                   	push   %edx
    302f:	68 48 c9 00 00       	push   $0xc948
    3034:	6a 01                	push   $0x1
    3036:	e8 45 18 00 00       	call   4880 <ddf_msg>
    303b:	83 c4 10             	add    $0x10,%esp
    303e:	8b 45 f4             	mov    -0xc(%ebp),%eax
    3041:	eb dc                	jmp    301f <ata_ctrl_gone+0x5f>
    3043:	90                   	nop
    3044:	8d 74 26 00          	lea    0x0(%esi,%eiz,1),%esi
    3048:	ba 01 00 00 00       	mov    $0x1,%edx
    304d:	eb db                	jmp    302a <ata_ctrl_gone+0x6a>
    304f:	90                   	nop

00003050 <ata_bd_connection>:
    3050:	55                   	push   %ebp
    3051:	89 e5                	mov    %esp,%ebp
    3053:	56                   	push   %esi
    3054:	53                   	push   %ebx
    3055:	83 ec 0c             	sub    $0xc,%esp
    3058:	8b 45 10             	mov    0x10(%ebp),%eax
    305b:	8b 5d 08             	mov    0x8(%ebp),%ebx
    305e:	8b 75 0c             	mov    0xc(%ebp),%esi
    3061:	50                   	push   %eax
    3062:	e8 b9 11 00 00       	call   4220 <ddf_fun_data_get>
    3067:	83 c0 08             	add    $0x8,%eax
    306a:	89 75 0c             	mov    %esi,0xc(%ebp)
    306d:	89 5d 08             	mov    %ebx,0x8(%ebp)
    3070:	89 45 10             	mov    %eax,0x10(%ebp)
    3073:	83 c4 10             	add    $0x10,%esp
    3076:	8d 65 f8             	lea    -0x8(%ebp),%esp
    3079:	5b                   	pop    %ebx
    307a:	5e                   	pop    %esi
    307b:	5d                   	pop    %ebp
    307c:	e9 8f b9 00 00       	jmp    ea10 <bd_conn@plt>
    3081:	eb 0d                	jmp    3090 <ata_fun_offline>
    3083:	90                   	nop
    3084:	90                   	nop
    3085:	90                   	nop
    3086:	90                   	nop
    3087:	90                   	nop
    3088:	90                   	nop
    3089:	90                   	nop
    308a:	90                   	nop
    308b:	90                   	nop
    308c:	90                   	nop
    308d:	90                   	nop
    308e:	90                   	nop
    308f:	90                   	nop

00003090 <ata_fun_offline>:
    3090:	55                   	push   %ebp
    3091:	89 e5                	mov    %esp,%ebp
    3093:	53                   	push   %ebx
    3094:	83 ec 0c             	sub    $0xc,%esp
    3097:	8b 5d 08             	mov    0x8(%ebp),%ebx
    309a:	68 71 c9 00 00       	push   $0xc971
    309f:	6a 04                	push   $0x4
    30a1:	e8 da 17 00 00       	call   4880 <ddf_msg>
    30a6:	89 5d 08             	mov    %ebx,0x8(%ebp)
    30a9:	83 c4 10             	add    $0x10,%esp
    30ac:	8b 5d fc             	mov    -0x4(%ebp),%ebx
    30af:	c9                   	leave  
    30b0:	e9 bb 14 00 00       	jmp    4570 <ddf_fun_offline>
    30b5:	8d 74 26 00          	lea    0x0(%esi,%eiz,1),%esi
    30b9:	8d bc 27 00 00 00 00 	lea    0x0(%edi,%eiz,1),%edi

000030c0 <ata_fun_online>:
    30c0:	55                   	push   %ebp
    30c1:	89 e5                	mov    %esp,%ebp
    30c3:	53                   	push   %ebx
    30c4:	83 ec 0c             	sub    $0xc,%esp
    30c7:	8b 5d 08             	mov    0x8(%ebp),%ebx
    30ca:	68 83 c9 00 00       	push   $0xc983
    30cf:	6a 04                	push   $0x4
    30d1:	e8 aa 17 00 00       	call   4880 <ddf_msg>
    30d6:	89 5d 08             	mov    %ebx,0x8(%ebp)
    30d9:	83 c4 10             	add    $0x10,%esp
    30dc:	8b 5d fc             	mov    -0x4(%ebp),%ebx
    30df:	c9                   	leave  
    30e0:	e9 5b 14 00 00       	jmp    4540 <ddf_fun_online>
    30e5:	8d 74 26 00          	lea    0x0(%esi,%eiz,1),%esi
    30e9:	8d bc 27 00 00 00 00 	lea    0x0(%edi,%eiz,1),%edi

000030f0 <ata_dev_gone>:
    30f0:	55                   	push   %ebp
    30f1:	89 e5                	mov    %esp,%ebp
    30f3:	56                   	push   %esi
    30f4:	53                   	push   %ebx
    30f5:	83 ec 0c             	sub    $0xc,%esp
    30f8:	8b 5d 08             	mov    0x8(%ebp),%ebx
    30fb:	53                   	push   %ebx
    30fc:	e8 bf 0e 00 00       	call   3fc0 <ddf_dev_data_get>
    3101:	83 c4 0c             	add    $0xc,%esp
    3104:	89 c6                	mov    %eax,%esi
    3106:	53                   	push   %ebx
    3107:	68 94 c9 00 00       	push   $0xc994
    310c:	6a 04                	push   $0x4
    310e:	e8 6d 17 00 00       	call   4880 <ddf_msg>
    3113:	89 75 08             	mov    %esi,0x8(%ebp)
    3116:	83 c4 10             	add    $0x10,%esp
    3119:	8d 65 f8             	lea    -0x8(%ebp),%esp
    311c:	5b                   	pop    %ebx
    311d:	5e                   	pop    %esi
    311e:	5d                   	pop    %ebp
    311f:	e9 9c fe ff ff       	jmp    2fc0 <ata_ctrl_gone>
    3124:	8d b6 00 00 00 00    	lea    0x0(%esi),%esi
    312a:	8d bf 00 00 00 00    	lea    0x0(%edi),%edi

00003130 <ata_dev_remove>:
    3130:	55                   	push   %ebp
    3131:	89 e5                	mov    %esp,%ebp
    3133:	56                   	push   %esi
    3134:	53                   	push   %ebx
    3135:	83 ec 0c             	sub    $0xc,%esp
    3138:	8b 5d 08             	mov    0x8(%ebp),%ebx
    313b:	53                   	push   %ebx
    313c:	e8 7f 0e 00 00       	call   3fc0 <ddf_dev_data_get>
    3141:	83 c4 0c             	add    $0xc,%esp
    3144:	89 c6                	mov    %eax,%esi
    3146:	53                   	push   %ebx
    3147:	68 a5 c9 00 00       	push   $0xc9a5
    314c:	6a 04                	push   $0x4
    314e:	e8 2d 17 00 00       	call   4880 <ddf_msg>
    3153:	89 75 08             	mov    %esi,0x8(%ebp)
    3156:	83 c4 10             	add    $0x10,%esp
    3159:	8d 65 f8             	lea    -0x8(%ebp),%esp
    315c:	5b                   	pop    %ebx
    315d:	5e                   	pop    %esi
    315e:	5d                   	pop    %ebp
    315f:	e9 cc fd ff ff       	jmp    2f30 <ata_ctrl_remove>
    3164:	8d b6 00 00 00 00    	lea    0x0(%esi),%esi
    316a:	8d bf 00 00 00 00    	lea    0x0(%edi),%edi

00003170 <ata_dev_add>:
    3170:	55                   	push   %ebp
    3171:	89 e5                	mov    %esp,%ebp
    3173:	57                   	push   %edi
    3174:	56                   	push   %esi
    3175:	53                   	push   %ebx
    3176:	83 ec 48             	sub    $0x48,%esp
    3179:	8b 5d 08             	mov    0x8(%ebp),%ebx
    317c:	53                   	push   %ebx
    317d:	e8 6e 0e 00 00       	call   3ff0 <ddf_dev_parent_sess_create>
    3182:	83 c4 10             	add    $0x10,%esp
    3185:	85 c0                	test   %eax,%eax
    3187:	0f 84 bd 00 00 00    	je     324a <ata_dev_add+0xda>
    318d:	8d 75 c8             	lea    -0x38(%ebp),%esi
    3190:	52                   	push   %edx
    3191:	6a 20                	push   $0x20
    3193:	6a 00                	push   $0x0
    3195:	56                   	push   %esi
    3196:	89 c7                	mov    %eax,%edi
    3198:	e8 73 ba 00 00       	call   ec10 <memset@plt>
    319d:	83 c4 0c             	add    $0xc,%esp
    31a0:	6a 00                	push   $0x0
    31a2:	56                   	push   %esi
    31a3:	57                   	push   %edi
    31a4:	e8 c7 bb 00 00       	call   ed70 <hw_res_get_list_parsed@plt>
    31a9:	83 c4 10             	add    $0x10,%esp
    31ac:	85 c0                	test   %eax,%eax
    31ae:	0f 85 96 00 00 00    	jne    324a <ata_dev_add+0xda>
    31b4:	83 7d e0 02          	cmpl   $0x2,-0x20(%ebp)
    31b8:	75 56                	jne    3210 <ata_dev_add+0xa0>
    31ba:	8b 45 e4             	mov    -0x1c(%ebp),%eax
    31bd:	8b 10                	mov    (%eax),%edx
    31bf:	89 55 c0             	mov    %edx,-0x40(%ebp)
    31c2:	8b 50 18             	mov    0x18(%eax),%edx
    31c5:	89 55 c4             	mov    %edx,-0x3c(%ebp)
    31c8:	83 78 28 07          	cmpl   $0x7,0x28(%eax)
    31cc:	76 42                	jbe    3210 <ata_dev_add+0xa0>
    31ce:	83 78 10 07          	cmpl   $0x7,0x10(%eax)
    31d2:	76 3c                	jbe    3210 <ata_dev_add+0xa0>
    31d4:	50                   	push   %eax
    31d5:	50                   	push   %eax
    31d6:	68 cc 01 00 00       	push   $0x1cc
    31db:	53                   	push   %ebx
    31dc:	e8 9f 0d 00 00       	call   3f80 <ddf_dev_data_alloc>
    31e1:	83 c4 10             	add    $0x10,%esp
    31e4:	85 c0                	test   %eax,%eax
    31e6:	0f 84 94 00 00 00    	je     3280 <ata_dev_add+0x110>
    31ec:	89 18                	mov    %ebx,(%eax)
    31ee:	8d 55 c0             	lea    -0x40(%ebp),%edx
    31f1:	53                   	push   %ebx
    31f2:	53                   	push   %ebx
    31f3:	52                   	push   %edx
    31f4:	50                   	push   %eax
    31f5:	e8 a6 f9 ff ff       	call   2ba0 <ata_ctrl_init>
    31fa:	83 c4 10             	add    $0x10,%esp
    31fd:	85 c0                	test   %eax,%eax
    31ff:	75 67                	jne    3268 <ata_dev_add+0xf8>
    3201:	8d 65 f4             	lea    -0xc(%ebp),%esp
    3204:	5b                   	pop    %ebx
    3205:	5e                   	pop    %esi
    3206:	5f                   	pop    %edi
    3207:	5d                   	pop    %ebp
    3208:	c3                   	ret    
    3209:	8d b4 26 00 00 00 00 	lea    0x0(%esi,%eiz,1),%esi
    3210:	83 ec 0c             	sub    $0xc,%esp
    3213:	8b 7d cc             	mov    -0x34(%ebp),%edi
    3216:	57                   	push   %edi
    3217:	e8 c4 bb 00 00       	call   ede0 <free@plt>
    321c:	58                   	pop    %eax
    321d:	8b 45 e4             	mov    -0x1c(%ebp),%eax
    3220:	50                   	push   %eax
    3221:	e8 ba bb 00 00       	call   ede0 <free@plt>
    3226:	58                   	pop    %eax
    3227:	8b 45 dc             	mov    -0x24(%ebp),%eax
    322a:	50                   	push   %eax
    322b:	e8 b0 bb 00 00       	call   ede0 <free@plt>
    3230:	58                   	pop    %eax
    3231:	8b 45 d4             	mov    -0x2c(%ebp),%eax
    3234:	50                   	push   %eax
    3235:	e8 a6 bb 00 00       	call   ede0 <free@plt>
    323a:	83 c4 0c             	add    $0xc,%esp
    323d:	6a 20                	push   $0x20
    323f:	6a 00                	push   $0x0
    3241:	56                   	push   %esi
    3242:	e8 c9 b9 00 00       	call   ec10 <memset@plt>
    3247:	83 c4 10             	add    $0x10,%esp
    324a:	52                   	push   %edx
    324b:	52                   	push   %edx
    324c:	68 88 ca 00 00       	push   $0xca88
    3251:	6a 01                	push   $0x1
    3253:	e8 28 16 00 00       	call   4880 <ddf_msg>
    3258:	83 c4 10             	add    $0x10,%esp
    325b:	8d 65 f4             	lea    -0xc(%ebp),%esp
    325e:	b8 f2 ff ff ff       	mov    $0xfffffff2,%eax
    3263:	5b                   	pop    %ebx
    3264:	5e                   	pop    %esi
    3265:	5f                   	pop    %edi
    3266:	5d                   	pop    %ebp
    3267:	c3                   	ret    
    3268:	51                   	push   %ecx
    3269:	51                   	push   %ecx
    326a:	68 64 ca 00 00       	push   $0xca64
    326f:	6a 01                	push   $0x1
    3271:	e8 0a 16 00 00       	call   4880 <ddf_msg>
    3276:	83 c4 10             	add    $0x10,%esp
    3279:	b8 f6 fe ff ff       	mov    $0xfffffef6,%eax
    327e:	eb 81                	jmp    3201 <ata_dev_add+0x91>
    3280:	56                   	push   %esi
    3281:	56                   	push   %esi
    3282:	68 b8 c9 00 00       	push   $0xc9b8
    3287:	6a 01                	push   $0x1
    3289:	e8 f2 15 00 00       	call   4880 <ddf_msg>
    328e:	83 c4 10             	add    $0x10,%esp
    3291:	b8 fe ff ff ff       	mov    $0xfffffffe,%eax
    3296:	e9 66 ff ff ff       	jmp    3201 <ata_dev_add+0x91>
    329b:	90                   	nop
    329c:	8d 74 26 00          	lea    0x0(%esi,%eiz,1),%esi

000032a0 <ata_fun_create>:
    32a0:	55                   	push   %ebp
    32a1:	89 e5                	mov    %esp,%ebp
    32a3:	57                   	push   %edi
    32a4:	56                   	push   %esi
    32a5:	53                   	push   %ebx
    32a6:	83 ec 30             	sub    $0x30,%esp
    32a9:	8b 45 08             	mov    0x8(%ebp),%eax
    32ac:	8b 58 04             	mov    0x4(%eax),%ebx
    32af:	8b 80 d0 00 00 00    	mov    0xd0(%eax),%eax
    32b5:	50                   	push   %eax
    32b6:	8d 45 e4             	lea    -0x1c(%ebp),%eax
    32b9:	68 d6 c9 00 00       	push   $0xc9d6
    32be:	50                   	push   %eax
    32bf:	e8 9c b9 00 00       	call   ec60 <asprintf@plt>
    32c4:	83 c4 10             	add    $0x10,%esp
    32c7:	85 c0                	test   %eax,%eax
    32c9:	0f 88 e9 00 00 00    	js     33b8 <ata_fun_create+0x118>
    32cf:	8b 75 e4             	mov    -0x1c(%ebp),%esi
    32d2:	85 f6                	test   %esi,%esi
    32d4:	0f 84 de 00 00 00    	je     33b8 <ata_fun_create+0x118>
    32da:	50                   	push   %eax
    32db:	56                   	push   %esi
    32dc:	8b 03                	mov    (%ebx),%eax
    32de:	6a 02                	push   $0x2
    32e0:	50                   	push   %eax
    32e1:	e8 ca 0d 00 00       	call   40b0 <ddf_fun_create>
    32e6:	83 c4 10             	add    $0x10,%esp
    32e9:	89 c3                	mov    %eax,%ebx
    32eb:	85 c0                	test   %eax,%eax
    32ed:	0f 84 ed 00 00 00    	je     33e0 <ata_fun_create+0x140>
    32f3:	50                   	push   %eax
    32f4:	50                   	push   %eax
    32f5:	6a 10                	push   $0x10
    32f7:	53                   	push   %ebx
    32f8:	e8 c3 0e 00 00       	call   41c0 <ddf_fun_data_alloc>
    32fd:	83 c4 10             	add    $0x10,%esp
    3300:	89 c7                	mov    %eax,%edi
    3302:	85 c0                	test   %eax,%eax
    3304:	0f 84 f6 00 00 00    	je     3400 <ata_fun_create+0x160>
    330a:	83 ec 0c             	sub    $0xc,%esp
    330d:	89 18                	mov    %ebx,(%eax)
    330f:	8b 45 08             	mov    0x8(%ebp),%eax
    3312:	89 47 04             	mov    %eax,0x4(%edi)
    3315:	8d 47 08             	lea    0x8(%edi),%eax
    3318:	50                   	push   %eax
    3319:	e8 02 b8 00 00       	call   eb20 <bd_srvs_init@plt>
    331e:	8b 45 08             	mov    0x8(%ebp),%eax
    3321:	c7 47 08 80 0d 01 00 	movl   $0x10d80,0x8(%edi)
    3328:	89 47 0c             	mov    %eax,0xc(%edi)
    332b:	5a                   	pop    %edx
    332c:	59                   	pop    %ecx
    332d:	68 50 30 00 00       	push   $0x3050
    3332:	53                   	push   %ebx
    3333:	e8 58 13 00 00       	call   4690 <ddf_fun_set_conn_handler>
    3338:	89 1c 24             	mov    %ebx,(%esp)
    333b:	e8 30 10 00 00       	call   4370 <ddf_fun_bind>
    3340:	83 c4 10             	add    $0x10,%esp
    3343:	89 45 d4             	mov    %eax,-0x2c(%ebp)
    3346:	85 c0                	test   %eax,%eax
    3348:	74 3e                	je     3388 <ata_fun_create+0xe8>
    334a:	83 ec 0c             	sub    $0xc,%esp
    334d:	50                   	push   %eax
    334e:	e8 8d b9 00 00       	call   ece0 <str_error@plt>
    3353:	50                   	push   %eax
    3354:	56                   	push   %esi
    3355:	68 ac ca 00 00       	push   $0xcaac
    335a:	6a 01                	push   $0x1
    335c:	e8 1f 15 00 00       	call   4880 <ddf_msg>
    3361:	83 c4 20             	add    $0x20,%esp
    3364:	83 ec 0c             	sub    $0xc,%esp
    3367:	53                   	push   %ebx
    3368:	e8 d3 0e 00 00       	call   4240 <ddf_fun_destroy>
    336d:	83 c4 10             	add    $0x10,%esp
    3370:	83 ec 0c             	sub    $0xc,%esp
    3373:	56                   	push   %esi
    3374:	e8 67 ba 00 00       	call   ede0 <free@plt>
    3379:	8b 45 d4             	mov    -0x2c(%ebp),%eax
    337c:	83 c4 10             	add    $0x10,%esp
    337f:	8d 65 f4             	lea    -0xc(%ebp),%esp
    3382:	5b                   	pop    %ebx
    3383:	5e                   	pop    %esi
    3384:	5f                   	pop    %edi
    3385:	5d                   	pop    %ebp
    3386:	c3                   	ret    
    3387:	90                   	nop
    3388:	50                   	push   %eax
    3389:	50                   	push   %eax
    338a:	68 24 ca 00 00       	push   $0xca24
    338f:	53                   	push   %ebx
    3390:	e8 2b 13 00 00       	call   46c0 <ddf_fun_add_to_category>
    3395:	89 34 24             	mov    %esi,(%esp)
    3398:	e8 43 ba 00 00       	call   ede0 <free@plt>
    339d:	8b 45 08             	mov    0x8(%ebp),%eax
    33a0:	83 c4 10             	add    $0x10,%esp
    33a3:	89 78 08             	mov    %edi,0x8(%eax)
    33a6:	8b 45 d4             	mov    -0x2c(%ebp),%eax
    33a9:	8d 65 f4             	lea    -0xc(%ebp),%esp
    33ac:	5b                   	pop    %ebx
    33ad:	5e                   	pop    %esi
    33ae:	5f                   	pop    %edi
    33af:	5d                   	pop    %ebp
    33b0:	c3                   	ret    
    33b1:	8d b4 26 00 00 00 00 	lea    0x0(%esi,%eiz,1),%esi
    33b8:	50                   	push   %eax
    33b9:	50                   	push   %eax
    33ba:	68 da c9 00 00       	push   $0xc9da
    33bf:	6a 01                	push   $0x1
    33c1:	e8 ba 14 00 00       	call   4880 <ddf_msg>
    33c6:	c7 45 d4 fe ff ff ff 	movl   $0xfffffffe,-0x2c(%ebp)
    33cd:	8b 45 d4             	mov    -0x2c(%ebp),%eax
    33d0:	83 c4 10             	add    $0x10,%esp
    33d3:	8d 65 f4             	lea    -0xc(%ebp),%esp
    33d6:	5b                   	pop    %ebx
    33d7:	5e                   	pop    %esi
    33d8:	5f                   	pop    %edi
    33d9:	5d                   	pop    %ebp
    33da:	c3                   	ret    
    33db:	90                   	nop
    33dc:	8d 74 26 00          	lea    0x0(%esi,%eiz,1),%esi
    33e0:	50                   	push   %eax
    33e1:	50                   	push   %eax
    33e2:	68 e9 c9 00 00       	push   $0xc9e9
    33e7:	6a 01                	push   $0x1
    33e9:	e8 92 14 00 00       	call   4880 <ddf_msg>
    33ee:	83 c4 10             	add    $0x10,%esp
    33f1:	c7 45 d4 fe ff ff ff 	movl   $0xfffffffe,-0x2c(%ebp)
    33f8:	e9 73 ff ff ff       	jmp    3370 <ata_fun_create+0xd0>
    33fd:	8d 76 00             	lea    0x0(%esi),%esi
    3400:	57                   	push   %edi
    3401:	57                   	push   %edi
    3402:	68 07 ca 00 00       	push   $0xca07
    3407:	6a 01                	push   $0x1
    3409:	e8 72 14 00 00       	call   4880 <ddf_msg>
    340e:	83 c4 10             	add    $0x10,%esp
    3411:	c7 45 d4 fe ff ff ff 	movl   $0xfffffffe,-0x2c(%ebp)
    3418:	e9 47 ff ff ff       	jmp    3364 <ata_fun_create+0xc4>
    341d:	8d 76 00             	lea    0x0(%esi),%esi

00003420 <ata_fun_remove>:
    3420:	55                   	push   %ebp
    3421:	89 e5                	mov    %esp,%ebp
    3423:	56                   	push   %esi
    3424:	53                   	push   %ebx
    3425:	83 ec 20             	sub    $0x20,%esp
    3428:	8b 5d 08             	mov    0x8(%ebp),%ebx
    342b:	8b 43 08             	mov    0x8(%ebx),%eax
    342e:	85 c0                	test   %eax,%eax
    3430:	0f 84 b2 00 00 00    	je     34e8 <ata_fun_remove+0xc8>
    3436:	50                   	push   %eax
    3437:	8b 83 d0 00 00 00    	mov    0xd0(%ebx),%eax
    343d:	50                   	push   %eax
    343e:	8d 45 f4             	lea    -0xc(%ebp),%eax
    3441:	68 d6 c9 00 00       	push   $0xc9d6
    3446:	50                   	push   %eax
    3447:	e8 14 b8 00 00       	call   ec60 <asprintf@plt>
    344c:	83 c4 10             	add    $0x10,%esp
    344f:	85 c0                	test   %eax,%eax
    3451:	0f 88 d1 00 00 00    	js     3528 <ata_fun_remove+0x108>
    3457:	8b 75 f4             	mov    -0xc(%ebp),%esi
    345a:	85 f6                	test   %esi,%esi
    345c:	0f 84 c6 00 00 00    	je     3528 <ata_fun_remove+0x108>
    3462:	56                   	push   %esi
    3463:	53                   	push   %ebx
    3464:	68 29 ca 00 00       	push   $0xca29
    3469:	6a 04                	push   $0x4
    346b:	e8 10 14 00 00       	call   4880 <ddf_msg>
    3470:	58                   	pop    %eax
    3471:	8b 43 08             	mov    0x8(%ebx),%eax
    3474:	8b 00                	mov    (%eax),%eax
    3476:	50                   	push   %eax
    3477:	e8 f4 10 00 00       	call   4570 <ddf_fun_offline>
    347c:	83 c4 10             	add    $0x10,%esp
    347f:	89 45 e4             	mov    %eax,-0x1c(%ebp)
    3482:	85 c0                	test   %eax,%eax
    3484:	75 4a                	jne    34d0 <ata_fun_remove+0xb0>
    3486:	8b 43 08             	mov    0x8(%ebx),%eax
    3489:	83 ec 0c             	sub    $0xc,%esp
    348c:	8b 08                	mov    (%eax),%ecx
    348e:	51                   	push   %ecx
    348f:	e8 0c 10 00 00       	call   44a0 <ddf_fun_unbind>
    3494:	83 c4 10             	add    $0x10,%esp
    3497:	85 c0                	test   %eax,%eax
    3499:	74 5d                	je     34f8 <ata_fun_remove+0xd8>
    349b:	52                   	push   %edx
    349c:	56                   	push   %esi
    349d:	68 f0 ca 00 00       	push   $0xcaf0
    34a2:	6a 01                	push   $0x1
    34a4:	89 45 e4             	mov    %eax,-0x1c(%ebp)
    34a7:	e8 d4 13 00 00       	call   4880 <ddf_msg>
    34ac:	83 c4 10             	add    $0x10,%esp
    34af:	8b 45 e4             	mov    -0x1c(%ebp),%eax
    34b2:	83 ec 0c             	sub    $0xc,%esp
    34b5:	89 45 e4             	mov    %eax,-0x1c(%ebp)
    34b8:	56                   	push   %esi
    34b9:	e8 22 b9 00 00       	call   ede0 <free@plt>
    34be:	8b 45 e4             	mov    -0x1c(%ebp),%eax
    34c1:	83 c4 10             	add    $0x10,%esp
    34c4:	8d 65 f8             	lea    -0x8(%ebp),%esp
    34c7:	5b                   	pop    %ebx
    34c8:	5e                   	pop    %esi
    34c9:	5d                   	pop    %ebp
    34ca:	c3                   	ret    
    34cb:	90                   	nop
    34cc:	8d 74 26 00          	lea    0x0(%esi,%eiz,1),%esi
    34d0:	53                   	push   %ebx
    34d1:	56                   	push   %esi
    34d2:	68 d0 ca 00 00       	push   $0xcad0
    34d7:	6a 01                	push   $0x1
    34d9:	e8 a2 13 00 00       	call   4880 <ddf_msg>
    34de:	83 c4 10             	add    $0x10,%esp
    34e1:	8b 45 e4             	mov    -0x1c(%ebp),%eax
    34e4:	eb cc                	jmp    34b2 <ata_fun_remove+0x92>
    34e6:	66 90                	xchg   %ax,%ax
    34e8:	8d 65 f8             	lea    -0x8(%ebp),%esp
    34eb:	31 c0                	xor    %eax,%eax
    34ed:	5b                   	pop    %ebx
    34ee:	5e                   	pop    %esi
    34ef:	5d                   	pop    %ebp
    34f0:	c3                   	ret    
    34f1:	8d b4 26 00 00 00 00 	lea    0x0(%esi,%eiz,1),%esi
    34f8:	8b 53 08             	mov    0x8(%ebx),%edx
    34fb:	83 ec 0c             	sub    $0xc,%esp
    34fe:	89 45 e4             	mov    %eax,-0x1c(%ebp)
    3501:	8b 02                	mov    (%edx),%eax
    3503:	50                   	push   %eax
    3504:	e8 37 0d 00 00       	call   4240 <ddf_fun_destroy>
    3509:	c7 43 08 00 00 00 00 	movl   $0x0,0x8(%ebx)
    3510:	89 34 24             	mov    %esi,(%esp)
    3513:	e8 c8 b8 00 00       	call   ede0 <free@plt>
    3518:	8b 45 e4             	mov    -0x1c(%ebp),%eax
    351b:	83 c4 10             	add    $0x10,%esp
    351e:	8d 65 f8             	lea    -0x8(%ebp),%esp
    3521:	5b                   	pop    %ebx
    3522:	5e                   	pop    %esi
    3523:	5d                   	pop    %ebp
    3524:	c3                   	ret    
    3525:	8d 76 00             	lea    0x0(%esi),%esi
    3528:	50                   	push   %eax
    3529:	50                   	push   %eax
    352a:	68 da c9 00 00       	push   $0xc9da
    352f:	6a 01                	push   $0x1
    3531:	e8 4a 13 00 00       	call   4880 <ddf_msg>
    3536:	83 c4 10             	add    $0x10,%esp
    3539:	8d 65 f8             	lea    -0x8(%ebp),%esp
    353c:	b8 fe ff ff ff       	mov    $0xfffffffe,%eax
    3541:	5b                   	pop    %ebx
    3542:	5e                   	pop    %esi
    3543:	5d                   	pop    %ebp
    3544:	c3                   	ret    
    3545:	8d 74 26 00          	lea    0x0(%esi,%eiz,1),%esi
    3549:	8d bc 27 00 00 00 00 	lea    0x0(%edi,%eiz,1),%edi

00003550 <ata_fun_unbind>:
    3550:	55                   	push   %ebp
    3551:	89 e5                	mov    %esp,%ebp
    3553:	56                   	push   %esi
    3554:	53                   	push   %ebx
    3555:	83 ec 20             	sub    $0x20,%esp
    3558:	8b 5d 08             	mov    0x8(%ebp),%ebx
    355b:	8b 43 08             	mov    0x8(%ebx),%eax
    355e:	85 c0                	test   %eax,%eax
    3560:	0f 84 aa 00 00 00    	je     3610 <ata_fun_unbind+0xc0>
    3566:	50                   	push   %eax
    3567:	8b 83 d0 00 00 00    	mov    0xd0(%ebx),%eax
    356d:	50                   	push   %eax
    356e:	8d 45 f4             	lea    -0xc(%ebp),%eax
    3571:	68 d6 c9 00 00       	push   $0xc9d6
    3576:	50                   	push   %eax
    3577:	e8 e4 b6 00 00       	call   ec60 <asprintf@plt>
    357c:	83 c4 10             	add    $0x10,%esp
    357f:	85 c0                	test   %eax,%eax
    3581:	0f 88 99 00 00 00    	js     3620 <ata_fun_unbind+0xd0>
    3587:	8b 75 f4             	mov    -0xc(%ebp),%esi
    358a:	85 f6                	test   %esi,%esi
    358c:	0f 84 8e 00 00 00    	je     3620 <ata_fun_unbind+0xd0>
    3592:	56                   	push   %esi
    3593:	53                   	push   %ebx
    3594:	68 42 ca 00 00       	push   $0xca42
    3599:	6a 04                	push   $0x4
    359b:	e8 e0 12 00 00       	call   4880 <ddf_msg>
    35a0:	8b 43 08             	mov    0x8(%ebx),%eax
    35a3:	8b 00                	mov    (%eax),%eax
    35a5:	59                   	pop    %ecx
    35a6:	50                   	push   %eax
    35a7:	e8 f4 0e 00 00       	call   44a0 <ddf_fun_unbind>
    35ac:	83 c4 10             	add    $0x10,%esp
    35af:	85 c0                	test   %eax,%eax
    35b1:	74 2d                	je     35e0 <ata_fun_unbind+0x90>
    35b3:	52                   	push   %edx
    35b4:	56                   	push   %esi
    35b5:	68 f0 ca 00 00       	push   $0xcaf0
    35ba:	6a 01                	push   $0x1
    35bc:	89 45 e4             	mov    %eax,-0x1c(%ebp)
    35bf:	e8 bc 12 00 00       	call   4880 <ddf_msg>
    35c4:	89 34 24             	mov    %esi,(%esp)
    35c7:	e8 14 b8 00 00       	call   ede0 <free@plt>
    35cc:	8b 45 e4             	mov    -0x1c(%ebp),%eax
    35cf:	83 c4 10             	add    $0x10,%esp
    35d2:	8d 65 f8             	lea    -0x8(%ebp),%esp
    35d5:	5b                   	pop    %ebx
    35d6:	5e                   	pop    %esi
    35d7:	5d                   	pop    %ebp
    35d8:	c3                   	ret    
    35d9:	8d b4 26 00 00 00 00 	lea    0x0(%esi,%eiz,1),%esi
    35e0:	8b 53 08             	mov    0x8(%ebx),%edx
    35e3:	83 ec 0c             	sub    $0xc,%esp
    35e6:	89 45 e4             	mov    %eax,-0x1c(%ebp)
    35e9:	8b 02                	mov    (%edx),%eax
    35eb:	50                   	push   %eax
    35ec:	e8 4f 0c 00 00       	call   4240 <ddf_fun_destroy>
    35f1:	c7 43 08 00 00 00 00 	movl   $0x0,0x8(%ebx)
    35f8:	89 34 24             	mov    %esi,(%esp)
    35fb:	e8 e0 b7 00 00       	call   ede0 <free@plt>
    3600:	8b 45 e4             	mov    -0x1c(%ebp),%eax
    3603:	83 c4 10             	add    $0x10,%esp
    3606:	8d 65 f8             	lea    -0x8(%ebp),%esp
    3609:	5b                   	pop    %ebx
    360a:	5e                   	pop    %esi
    360b:	5d                   	pop    %ebp
    360c:	c3                   	ret    
    360d:	8d 76 00             	lea    0x0(%esi),%esi
    3610:	8d 65 f8             	lea    -0x8(%ebp),%esp
    3613:	31 c0                	xor    %eax,%eax
    3615:	5b                   	pop    %ebx
    3616:	5e                   	pop    %esi
    3617:	5d                   	pop    %ebp
    3618:	c3                   	ret    
    3619:	8d b4 26 00 00 00 00 	lea    0x0(%esi,%eiz,1),%esi
    3620:	50                   	push   %eax
    3621:	50                   	push   %eax
    3622:	68 da c9 00 00       	push   $0xc9da
    3627:	6a 01                	push   $0x1
    3629:	e8 52 12 00 00       	call   4880 <ddf_msg>
    362e:	83 c4 10             	add    $0x10,%esp
    3631:	8d 65 f8             	lea    -0x8(%ebp),%esp
    3634:	b8 fe ff ff ff       	mov    $0xfffffffe,%eax
    3639:	5b                   	pop    %ebx
    363a:	5e                   	pop    %esi
    363b:	5d                   	pop    %ebp
    363c:	c3                   	ret    
    363d:	66 90                	xchg   %ax,%ax
    363f:	90                   	nop

00003640 <main>:
    3640:	8d 4c 24 04          	lea    0x4(%esp),%ecx
    3644:	83 e4 f0             	and    $0xfffffff0,%esp
    3647:	ff 71 fc             	pushl  -0x4(%ecx)
    364a:	55                   	push   %ebp
    364b:	89 e5                	mov    %esp,%ebp
    364d:	51                   	push   %ecx
    364e:	83 ec 10             	sub    $0x10,%esp
    3651:	68 10 cb 00 00       	push   $0xcb10
    3656:	e8 95 b2 00 00       	call   e8f0 <printf@plt>
    365b:	c7 04 24 5b ca 00 00 	movl   $0xca5b,(%esp)
    3662:	e8 09 12 00 00       	call   4870 <ddf_log_init>
    3667:	c7 04 24 a0 0d 01 00 	movl   $0x10da0,(%esp)
    366e:	e8 9d 10 00 00       	call   4710 <ddf_driver_main>
    3673:	8b 4d fc             	mov    -0x4(%ebp),%ecx
    3676:	c9                   	leave  
    3677:	8d 61 fc             	lea    -0x4(%ecx),%esp
    367a:	c3                   	ret    
    367b:	66 90                	xchg   %ax,%ax
    367d:	66 90                	xchg   %ax,%ax
    367f:	90                   	nop

00003680 <fun_del_ref>:
    3680:	55                   	push   %ebp
    3681:	83 ca ff             	or     $0xffffffff,%edx
    3684:	89 e5                	mov    %esp,%ebp
    3686:	57                   	push   %edi
    3687:	56                   	push   %esi
    3688:	53                   	push   %ebx
    3689:	83 ec 1c             	sub    $0x1c,%esp
    368c:	8b 70 0c             	mov    0xc(%eax),%esi
    368f:	f0 0f c1 50 08       	lock xadd %edx,0x8(%eax)
    3694:	4a                   	dec    %edx
    3695:	74 69                	je     3700 <fun_del_ref+0x80>
    3697:	83 c8 ff             	or     $0xffffffff,%eax
    369a:	f0 0f c1 46 04       	lock xadd %eax,0x4(%esi)
    369f:	48                   	dec    %eax
    36a0:	74 0e                	je     36b0 <fun_del_ref+0x30>
    36a2:	8d 65 f4             	lea    -0xc(%ebp),%esp
    36a5:	5b                   	pop    %ebx
    36a6:	5e                   	pop    %esi
    36a7:	5f                   	pop    %edi
    36a8:	5d                   	pop    %ebp
    36a9:	c3                   	ret    
    36aa:	8d b6 00 00 00 00    	lea    0x0(%esi),%esi
    36b0:	8b 46 08             	mov    0x8(%esi),%eax
    36b3:	85 c0                	test   %eax,%eax
    36b5:	74 0c                	je     36c3 <fun_del_ref+0x43>
    36b7:	83 ec 0c             	sub    $0xc,%esp
    36ba:	50                   	push   %eax
    36bb:	e8 40 b2 00 00       	call   e900 <async_hangup@plt>
    36c0:	83 c4 10             	add    $0x10,%esp
    36c3:	8b 46 10             	mov    0x10(%esi),%eax
    36c6:	85 c0                	test   %eax,%eax
    36c8:	74 0c                	je     36d6 <fun_del_ref+0x56>
    36ca:	83 ec 0c             	sub    $0xc,%esp
    36cd:	50                   	push   %eax
    36ce:	e8 0d b7 00 00       	call   ede0 <free@plt>
    36d3:	83 c4 10             	add    $0x10,%esp
    36d6:	8b 46 0c             	mov    0xc(%esi),%eax
    36d9:	85 c0                	test   %eax,%eax
    36db:	74 0c                	je     36e9 <fun_del_ref+0x69>
    36dd:	83 ec 0c             	sub    $0xc,%esp
    36e0:	50                   	push   %eax
    36e1:	e8 fa b6 00 00       	call   ede0 <free@plt>
    36e6:	83 c4 10             	add    $0x10,%esp
    36e9:	83 ec 0c             	sub    $0xc,%esp
    36ec:	56                   	push   %esi
    36ed:	e8 ee b6 00 00       	call   ede0 <free@plt>
    36f2:	83 c4 10             	add    $0x10,%esp
    36f5:	8d 65 f4             	lea    -0xc(%ebp),%esp
    36f8:	5b                   	pop    %ebx
    36f9:	5e                   	pop    %esi
    36fa:	5f                   	pop    %edi
    36fb:	5d                   	pop    %ebp
    36fc:	c3                   	ret    
    36fd:	8d 76 00             	lea    0x0(%esi),%esi
    3700:	8b 58 1c             	mov    0x1c(%eax),%ebx
    3703:	89 c7                	mov    %eax,%edi
    3705:	8d 40 18             	lea    0x18(%eax),%eax
    3708:	89 45 e4             	mov    %eax,-0x1c(%ebp)
    370b:	39 d8                	cmp    %ebx,%eax
    370d:	74 49                	je     3758 <fun_del_ref+0xd8>
    370f:	90                   	nop
    3710:	8b 0b                	mov    (%ebx),%ecx
    3712:	85 c9                	test   %ecx,%ecx
    3714:	74 0e                	je     3724 <fun_del_ref+0xa4>
    3716:	8b 53 04             	mov    0x4(%ebx),%edx
    3719:	85 d2                	test   %edx,%edx
    371b:	74 07                	je     3724 <fun_del_ref+0xa4>
    371d:	89 0a                	mov    %ecx,(%edx)
    371f:	8b 0b                	mov    (%ebx),%ecx
    3721:	89 51 04             	mov    %edx,0x4(%ecx)
    3724:	8b 53 08             	mov    0x8(%ebx),%edx
    3727:	c7 03 00 00 00 00    	movl   $0x0,(%ebx)
    372d:	c7 43 04 00 00 00 00 	movl   $0x0,0x4(%ebx)
    3734:	85 d2                	test   %edx,%edx
    3736:	74 0c                	je     3744 <fun_del_ref+0xc4>
    3738:	83 ec 0c             	sub    $0xc,%esp
    373b:	52                   	push   %edx
    373c:	e8 9f b6 00 00       	call   ede0 <free@plt>
    3741:	83 c4 10             	add    $0x10,%esp
    3744:	83 ec 0c             	sub    $0xc,%esp
    3747:	53                   	push   %ebx
    3748:	e8 93 b6 00 00       	call   ede0 <free@plt>
    374d:	8b 5f 1c             	mov    0x1c(%edi),%ebx
    3750:	83 c4 10             	add    $0x10,%esp
    3753:	3b 5d e4             	cmp    -0x1c(%ebp),%ebx
    3756:	75 b8                	jne    3710 <fun_del_ref+0x90>
    3758:	8b 57 20             	mov    0x20(%edi),%edx
    375b:	85 d2                	test   %edx,%edx
    375d:	74 0c                	je     376b <fun_del_ref+0xeb>
    375f:	83 ec 0c             	sub    $0xc,%esp
    3762:	52                   	push   %edx
    3763:	e8 78 b6 00 00       	call   ede0 <free@plt>
    3768:	83 c4 10             	add    $0x10,%esp
    376b:	8b 57 14             	mov    0x14(%edi),%edx
    376e:	85 d2                	test   %edx,%edx
    3770:	74 0c                	je     377e <fun_del_ref+0xfe>
    3772:	83 ec 0c             	sub    $0xc,%esp
    3775:	52                   	push   %edx
    3776:	e8 65 b6 00 00       	call   ede0 <free@plt>
    377b:	83 c4 10             	add    $0x10,%esp
    377e:	83 ec 0c             	sub    $0xc,%esp
    3781:	57                   	push   %edi
    3782:	e8 59 b6 00 00       	call   ede0 <free@plt>
    3787:	83 c4 10             	add    $0x10,%esp
    378a:	e9 08 ff ff ff       	jmp    3697 <fun_del_ref+0x17>
    378f:	90                   	nop

00003790 <driver_connection_gen.constprop.7>:
    3790:	55                   	push   %ebp
    3791:	89 e5                	mov    %esp,%ebp
    3793:	57                   	push   %edi
    3794:	56                   	push   %esi
    3795:	53                   	push   %ebx
    3796:	83 ec 58             	sub    $0x58,%esp
    3799:	89 d3                	mov    %edx,%ebx
    379b:	8b 72 08             	mov    0x8(%edx),%esi
    379e:	89 45 b4             	mov    %eax,-0x4c(%ebp)
    37a1:	68 bc 0d 01 00       	push   $0x10dbc
    37a6:	e8 55 b6 00 00       	call   ee00 <fibril_mutex_lock@plt>
    37ab:	c7 04 24 bc 0d 01 00 	movl   $0x10dbc,(%esp)
    37b2:	e8 a9 b1 00 00       	call   e960 <fibril_mutex_is_locked@plt>
    37b7:	83 c4 10             	add    $0x10,%esp
    37ba:	84 c0                	test   %al,%al
    37bc:	0f 84 71 02 00 00    	je     3a33 <driver_connection_gen.constprop.7+0x2a3>
    37c2:	a1 d0 0d 01 00       	mov    0x10dd0,%eax
    37c7:	3d cc 0d 01 00       	cmp    $0x10dcc,%eax
    37cc:	8d 78 d4             	lea    -0x2c(%eax),%edi
    37cf:	75 18                	jne    37e9 <driver_connection_gen.constprop.7+0x59>
    37d1:	e9 22 02 00 00       	jmp    39f8 <driver_connection_gen.constprop.7+0x268>
    37d6:	66 90                	xchg   %ax,%ax
    37d8:	8b 40 04             	mov    0x4(%eax),%eax
    37db:	3d cc 0d 01 00       	cmp    $0x10dcc,%eax
    37e0:	8d 78 d4             	lea    -0x2c(%eax),%edi
    37e3:	0f 84 0f 02 00 00    	je     39f8 <driver_connection_gen.constprop.7+0x268>
    37e9:	3b 77 04             	cmp    0x4(%edi),%esi
    37ec:	75 ea                	jne    37d8 <driver_connection_gen.constprop.7+0x48>
    37ee:	8b 47 0c             	mov    0xc(%edi),%eax
    37f1:	f0 ff 40 04          	lock incl 0x4(%eax)
    37f5:	f0 ff 47 08          	lock incl 0x8(%edi)
    37f9:	83 ec 0c             	sub    $0xc,%esp
    37fc:	68 bc 0d 01 00       	push   $0x10dbc
    3801:	e8 3a b3 00 00       	call   eb40 <fibril_mutex_unlock@plt>
    3806:	8b 47 28             	mov    0x28(%edi),%eax
    3809:	83 c4 10             	add    $0x10,%esp
    380c:	85 c0                	test   %eax,%eax
    380e:	74 20                	je     3830 <driver_connection_gen.constprop.7+0xa0>
    3810:	8b 55 b4             	mov    -0x4c(%ebp),%edx
    3813:	56                   	push   %esi
    3814:	57                   	push   %edi
    3815:	53                   	push   %ebx
    3816:	52                   	push   %edx
    3817:	ff d0                	call   *%eax
    3819:	89 f8                	mov    %edi,%eax
    381b:	e8 60 fe ff ff       	call   3680 <fun_del_ref>
    3820:	83 c4 10             	add    $0x10,%esp
    3823:	8d 65 f4             	lea    -0xc(%ebp),%esp
    3826:	5b                   	pop    %ebx
    3827:	5e                   	pop    %esi
    3828:	5f                   	pop    %edi
    3829:	5d                   	pop    %ebp
    382a:	c3                   	ret    
    382b:	90                   	nop
    382c:	8d 74 26 00          	lea    0x0(%esi,%eiz,1),%esi
    3830:	8b 47 24             	mov    0x24(%edi),%eax
    3833:	85 c0                	test   %eax,%eax
    3835:	0f 84 a5 01 00 00    	je     39e0 <driver_connection_gen.constprop.7+0x250>
    383b:	8b 00                	mov    (%eax),%eax
    383d:	85 c0                	test   %eax,%eax
    383f:	0f 84 9b 01 00 00    	je     39e0 <driver_connection_gen.constprop.7+0x250>
    3845:	83 ec 0c             	sub    $0xc,%esp
    3848:	57                   	push   %edi
    3849:	ff d0                	call   *%eax
    384b:	8b 4d b4             	mov    -0x4c(%ebp),%ecx
    384e:	89 c3                	mov    %eax,%ebx
    3850:	58                   	pop    %eax
    3851:	5a                   	pop    %edx
    3852:	53                   	push   %ebx
    3853:	51                   	push   %ecx
    3854:	e8 97 b1 00 00       	call   e9f0 <async_answer_0@plt>
    3859:	83 c4 10             	add    $0x10,%esp
    385c:	85 db                	test   %ebx,%ebx
    385e:	0f 85 70 01 00 00    	jne    39d4 <driver_connection_gen.constprop.7+0x244>
    3864:	8d 74 26 00          	lea    0x0(%esi,%eiz,1),%esi
    3868:	50                   	push   %eax
    3869:	50                   	push   %eax
    386a:	8d 45 c4             	lea    -0x3c(%ebp),%eax
    386d:	6a 00                	push   $0x0
    386f:	50                   	push   %eax
    3870:	e8 1b b4 00 00       	call   ec90 <async_get_call_timeout@plt>
    3875:	8b 5d c4             	mov    -0x3c(%ebp),%ebx
    3878:	83 c4 10             	add    $0x10,%esp
    387b:	89 45 b4             	mov    %eax,-0x4c(%ebp)
    387e:	85 db                	test   %ebx,%ebx
    3880:	0f 84 e2 00 00 00    	je     3968 <driver_connection_gen.constprop.7+0x1d8>
    3886:	83 ec 0c             	sub    $0xc,%esp
    3889:	81 eb 00 04 00 00    	sub    $0x400,%ebx
    388f:	53                   	push   %ebx
    3890:	e8 cb 0f 00 00       	call   4860 <is_valid_iface_idx>
    3895:	83 c4 10             	add    $0x10,%esp
    3898:	84 c0                	test   %al,%al
    389a:	75 2c                	jne    38c8 <driver_connection_gen.constprop.7+0x138>
    389c:	8b 47 24             	mov    0x24(%edi),%eax
    389f:	85 c0                	test   %eax,%eax
    38a1:	0f 84 91 00 00 00    	je     3938 <driver_connection_gen.constprop.7+0x1a8>
    38a7:	8b 40 44             	mov    0x44(%eax),%eax
    38aa:	85 c0                	test   %eax,%eax
    38ac:	0f 84 86 00 00 00    	je     3938 <driver_connection_gen.constprop.7+0x1a8>
    38b2:	8d 4d c4             	lea    -0x3c(%ebp),%ecx
    38b5:	52                   	push   %edx
    38b6:	51                   	push   %ecx
    38b7:	8b 4d b4             	mov    -0x4c(%ebp),%ecx
    38ba:	51                   	push   %ecx
    38bb:	57                   	push   %edi
    38bc:	ff d0                	call   *%eax
    38be:	83 c4 10             	add    $0x10,%esp
    38c1:	eb a5                	jmp    3868 <driver_connection_gen.constprop.7+0xd8>
    38c3:	90                   	nop
    38c4:	8d 74 26 00          	lea    0x0(%esi,%eiz,1),%esi
    38c8:	83 ec 0c             	sub    $0xc,%esp
    38cb:	53                   	push   %ebx
    38cc:	e8 8f 0f 00 00       	call   4860 <is_valid_iface_idx>
    38d1:	83 c4 10             	add    $0x10,%esp
    38d4:	84 c0                	test   %al,%al
    38d6:	0f 84 69 01 00 00    	je     3a45 <driver_connection_gen.constprop.7+0x2b5>
    38dc:	8b 47 24             	mov    0x24(%edi),%eax
    38df:	85 c0                	test   %eax,%eax
    38e1:	0f 84 b9 00 00 00    	je     39a0 <driver_connection_gen.constprop.7+0x210>
    38e7:	8b 44 98 08          	mov    0x8(%eax,%ebx,4),%eax
    38eb:	89 45 b0             	mov    %eax,-0x50(%ebp)
    38ee:	85 c0                	test   %eax,%eax
    38f0:	0f 84 aa 00 00 00    	je     39a0 <driver_connection_gen.constprop.7+0x210>
    38f6:	83 ec 0c             	sub    $0xc,%esp
    38f9:	53                   	push   %ebx
    38fa:	e8 11 0f 00 00       	call   4810 <get_remote_iface>
    38ff:	83 c4 10             	add    $0x10,%esp
    3902:	85 c0                	test   %eax,%eax
    3904:	0f 84 50 01 00 00    	je     3a5a <driver_connection_gen.constprop.7+0x2ca>
    390a:	8b 4d c8             	mov    -0x38(%ebp),%ecx
    390d:	52                   	push   %edx
    390e:	52                   	push   %edx
    390f:	51                   	push   %ecx
    3910:	50                   	push   %eax
    3911:	e8 2a 0f 00 00       	call   4840 <get_remote_method>
    3916:	83 c4 10             	add    $0x10,%esp
    3919:	85 c0                	test   %eax,%eax
    391b:	0f 84 9f 00 00 00    	je     39c0 <driver_connection_gen.constprop.7+0x230>
    3921:	8d 55 c4             	lea    -0x3c(%ebp),%edx
    3924:	8b 4d b0             	mov    -0x50(%ebp),%ecx
    3927:	52                   	push   %edx
    3928:	8b 55 b4             	mov    -0x4c(%ebp),%edx
    392b:	52                   	push   %edx
    392c:	51                   	push   %ecx
    392d:	57                   	push   %edi
    392e:	ff d0                	call   *%eax
    3930:	83 c4 10             	add    $0x10,%esp
    3933:	e9 30 ff ff ff       	jmp    3868 <driver_connection_gen.constprop.7+0xd8>
    3938:	50                   	push   %eax
    3939:	a1 6c 0f 01 00       	mov    0x10f6c,%eax
    393e:	53                   	push   %ebx
    393f:	8b 00                	mov    (%eax),%eax
    3941:	50                   	push   %eax
    3942:	68 bc cc 00 00       	push   $0xccbc
    3947:	e8 a4 af 00 00       	call   e8f0 <printf@plt>
    394c:	5b                   	pop    %ebx
    394d:	58                   	pop    %eax
    394e:	8b 45 b4             	mov    -0x4c(%ebp),%eax
    3951:	6a f5                	push   $0xfffffff5
    3953:	50                   	push   %eax
    3954:	e8 97 b0 00 00       	call   e9f0 <async_answer_0@plt>
    3959:	83 c4 10             	add    $0x10,%esp
    395c:	e9 07 ff ff ff       	jmp    3868 <driver_connection_gen.constprop.7+0xd8>
    3961:	8d b4 26 00 00 00 00 	lea    0x0(%esi,%eiz,1),%esi
    3968:	8b 47 24             	mov    0x24(%edi),%eax
    396b:	85 c0                	test   %eax,%eax
    396d:	74 10                	je     397f <driver_connection_gen.constprop.7+0x1ef>
    396f:	8b 40 04             	mov    0x4(%eax),%eax
    3972:	85 c0                	test   %eax,%eax
    3974:	74 09                	je     397f <driver_connection_gen.constprop.7+0x1ef>
    3976:	83 ec 0c             	sub    $0xc,%esp
    3979:	57                   	push   %edi
    397a:	ff d0                	call   *%eax
    397c:	83 c4 10             	add    $0x10,%esp
    397f:	8b 75 b4             	mov    -0x4c(%ebp),%esi
    3982:	53                   	push   %ebx
    3983:	53                   	push   %ebx
    3984:	6a 00                	push   $0x0
    3986:	56                   	push   %esi
    3987:	e8 64 b0 00 00       	call   e9f0 <async_answer_0@plt>
    398c:	89 f8                	mov    %edi,%eax
    398e:	e8 ed fc ff ff       	call   3680 <fun_del_ref>
    3993:	83 c4 10             	add    $0x10,%esp
    3996:	8d 65 f4             	lea    -0xc(%ebp),%esp
    3999:	5b                   	pop    %ebx
    399a:	5e                   	pop    %esi
    399b:	5f                   	pop    %edi
    399c:	5d                   	pop    %ebp
    399d:	c3                   	ret    
    399e:	66 90                	xchg   %ax,%ax
    39a0:	50                   	push   %eax
    39a1:	50                   	push   %eax
    39a2:	a1 6c 0f 01 00       	mov    0x10f6c,%eax
    39a7:	8b 00                	mov    (%eax),%eax
    39a9:	50                   	push   %eax
    39aa:	68 f8 cc 00 00       	push   $0xccf8
    39af:	e8 3c af 00 00       	call   e8f0 <printf@plt>
    39b4:	83 c4 0c             	add    $0xc,%esp
    39b7:	53                   	push   %ebx
    39b8:	56                   	push   %esi
    39b9:	68 1c cd 00 00       	push   $0xcd1c
    39be:	eb 87                	jmp    3947 <driver_connection_gen.constprop.7+0x1b7>
    39c0:	50                   	push   %eax
    39c1:	50                   	push   %eax
    39c2:	a1 6c 0f 01 00       	mov    0x10f6c,%eax
    39c7:	8b 00                	mov    (%eax),%eax
    39c9:	50                   	push   %eax
    39ca:	68 54 cd 00 00       	push   $0xcd54
    39cf:	e9 73 ff ff ff       	jmp    3947 <driver_connection_gen.constprop.7+0x1b7>
    39d4:	89 f8                	mov    %edi,%eax
    39d6:	e8 a5 fc ff ff       	call   3680 <fun_del_ref>
    39db:	e9 43 fe ff ff       	jmp    3823 <driver_connection_gen.constprop.7+0x93>
    39e0:	8b 55 b4             	mov    -0x4c(%ebp),%edx
    39e3:	50                   	push   %eax
    39e4:	50                   	push   %eax
    39e5:	6a 00                	push   $0x0
    39e7:	52                   	push   %edx
    39e8:	e8 03 b0 00 00       	call   e9f0 <async_answer_0@plt>
    39ed:	83 c4 10             	add    $0x10,%esp
    39f0:	e9 73 fe ff ff       	jmp    3868 <driver_connection_gen.constprop.7+0xd8>
    39f5:	8d 76 00             	lea    0x0(%esi),%esi
    39f8:	83 ec 0c             	sub    $0xc,%esp
    39fb:	68 bc 0d 01 00       	push   $0x10dbc
    3a00:	e8 3b b1 00 00       	call   eb40 <fibril_mutex_unlock@plt>
    3a05:	a1 6c 0f 01 00       	mov    0x10f6c,%eax
    3a0a:	83 c4 0c             	add    $0xc,%esp
    3a0d:	8b 08                	mov    (%eax),%ecx
    3a0f:	56                   	push   %esi
    3a10:	51                   	push   %ecx
    3a11:	68 90 cd 00 00       	push   $0xcd90
    3a16:	e8 d5 ae 00 00       	call   e8f0 <printf@plt>
    3a1b:	8b 7d b4             	mov    -0x4c(%ebp),%edi
    3a1e:	5b                   	pop    %ebx
    3a1f:	5e                   	pop    %esi
    3a20:	6a ff                	push   $0xffffffff
    3a22:	57                   	push   %edi
    3a23:	e8 c8 af 00 00       	call   e9f0 <async_answer_0@plt>
    3a28:	83 c4 10             	add    $0x10,%esp
    3a2b:	8d 65 f4             	lea    -0xc(%ebp),%esp
    3a2e:	5b                   	pop    %ebx
    3a2f:	5e                   	pop    %esi
    3a30:	5f                   	pop    %edi
    3a31:	5d                   	pop    %ebp
    3a32:	c3                   	ret    
    3a33:	51                   	push   %ecx
    3a34:	6a 6b                	push   $0x6b
    3a36:	68 37 cb 00 00       	push   $0xcb37
    3a3b:	68 90 cc 00 00       	push   $0xcc90
    3a40:	e8 4b b0 00 00       	call   ea90 <assert_abort@plt>
    3a45:	50                   	push   %eax
    3a46:	68 fb 02 00 00       	push   $0x2fb
    3a4b:	68 37 cb 00 00       	push   $0xcb37
    3a50:	68 48 cb 00 00       	push   $0xcb48
    3a55:	e8 36 b0 00 00       	call   ea90 <assert_abort@plt>
    3a5a:	53                   	push   %ebx
    3a5b:	68 aa 01 00 00       	push   $0x1aa
    3a60:	68 37 cb 00 00       	push   $0xcb37
    3a65:	68 60 cb 00 00       	push   $0xcb60
    3a6a:	e8 21 b0 00 00       	call   ea90 <assert_abort@plt>
    3a6f:	90                   	nop

00003a70 <driver_connection_driver>:
    3a70:	55                   	push   %ebp
    3a71:	89 e5                	mov    %esp,%ebp
    3a73:	8b 55 0c             	mov    0xc(%ebp),%edx
    3a76:	8b 45 08             	mov    0x8(%ebp),%eax
    3a79:	5d                   	pop    %ebp
    3a7a:	e9 11 fd ff ff       	jmp    3790 <driver_connection_gen.constprop.7>
    3a7f:	90                   	nop

00003a80 <driver_connection_client>:
    3a80:	55                   	push   %ebp
    3a81:	89 e5                	mov    %esp,%ebp
    3a83:	8b 55 0c             	mov    0xc(%ebp),%edx
    3a86:	8b 45 08             	mov    0x8(%ebp),%eax
    3a89:	5d                   	pop    %ebp
    3a8a:	e9 01 fd ff ff       	jmp    3790 <driver_connection_gen.constprop.7>
    3a8f:	90                   	nop

00003a90 <driver_connection_devman>:
    3a90:	55                   	push   %ebp
    3a91:	89 e5                	mov    %esp,%ebp
    3a93:	57                   	push   %edi
    3a94:	56                   	push   %esi
    3a95:	53                   	push   %ebx
    3a96:	83 ec 54             	sub    $0x54,%esp
    3a99:	8d 75 c4             	lea    -0x3c(%ebp),%esi
    3a9c:	8b 45 08             	mov    0x8(%ebp),%eax
    3a9f:	6a 00                	push   $0x0
    3aa1:	50                   	push   %eax
    3aa2:	e8 49 af 00 00       	call   e9f0 <async_answer_0@plt>
    3aa7:	83 c4 10             	add    $0x10,%esp
    3aaa:	8d b6 00 00 00 00    	lea    0x0(%esi),%esi
    3ab0:	50                   	push   %eax
    3ab1:	50                   	push   %eax
    3ab2:	6a 00                	push   $0x0
    3ab4:	56                   	push   %esi
    3ab5:	e8 d6 b1 00 00       	call   ec90 <async_get_call_timeout@plt>
    3aba:	83 c4 10             	add    $0x10,%esp
    3abd:	89 c3                	mov    %eax,%ebx
    3abf:	8b 45 c4             	mov    -0x3c(%ebp),%eax
    3ac2:	85 c0                	test   %eax,%eax
    3ac4:	0f 84 de 03 00 00    	je     3ea8 <driver_connection_devman+0x418>
    3aca:	2d 00 04 00 00       	sub    $0x400,%eax
    3acf:	83 f8 04             	cmp    $0x4,%eax
    3ad2:	0f 87 b8 03 00 00    	ja     3e90 <driver_connection_devman+0x400>
    3ad8:	8b 7d c8             	mov    -0x38(%ebp),%edi
    3adb:	ff 24 85 40 ce 00 00 	jmp    *0xce40(,%eax,4)
    3ae2:	8d b6 00 00 00 00    	lea    0x0(%esi),%esi
    3ae8:	83 ec 0c             	sub    $0xc,%esp
    3aeb:	68 bc 0d 01 00       	push   $0x10dbc
    3af0:	e8 0b b3 00 00       	call   ee00 <fibril_mutex_lock@plt>
    3af5:	c7 04 24 bc 0d 01 00 	movl   $0x10dbc,(%esp)
    3afc:	e8 5f ae 00 00       	call   e960 <fibril_mutex_is_locked@plt>
    3b01:	83 c4 10             	add    $0x10,%esp
    3b04:	84 c0                	test   %al,%al
    3b06:	0f 84 5a 04 00 00    	je     3f66 <driver_connection_devman+0x4d6>
    3b0c:	a1 d0 0d 01 00       	mov    0x10dd0,%eax
    3b11:	3d cc 0d 01 00       	cmp    $0x10dcc,%eax
    3b16:	8d 50 d4             	lea    -0x2c(%eax),%edx
    3b19:	75 16                	jne    3b31 <driver_connection_devman+0xa1>
    3b1b:	e9 90 03 00 00       	jmp    3eb0 <driver_connection_devman+0x420>
    3b20:	8b 40 04             	mov    0x4(%eax),%eax
    3b23:	3d cc 0d 01 00       	cmp    $0x10dcc,%eax
    3b28:	8d 50 d4             	lea    -0x2c(%eax),%edx
    3b2b:	0f 84 7f 03 00 00    	je     3eb0 <driver_connection_devman+0x420>
    3b31:	3b 7a 04             	cmp    0x4(%edx),%edi
    3b34:	75 ea                	jne    3b20 <driver_connection_devman+0x90>
    3b36:	8b 42 0c             	mov    0xc(%edx),%eax
    3b39:	f0 ff 40 04          	lock incl 0x4(%eax)
    3b3d:	f0 ff 42 08          	lock incl 0x8(%edx)
    3b41:	83 ec 0c             	sub    $0xc,%esp
    3b44:	89 55 b4             	mov    %edx,-0x4c(%ebp)
    3b47:	68 bc 0d 01 00       	push   $0x10dbc
    3b4c:	e8 ef af 00 00       	call   eb40 <fibril_mutex_unlock@plt>
    3b51:	a1 6c 0f 01 00       	mov    0x10f6c,%eax
    3b56:	83 c4 10             	add    $0x10,%esp
    3b59:	8b 55 b4             	mov    -0x4c(%ebp),%edx
    3b5c:	8b 40 04             	mov    0x4(%eax),%eax
    3b5f:	8b 40 0c             	mov    0xc(%eax),%eax
    3b62:	85 c0                	test   %eax,%eax
    3b64:	0f 84 76 03 00 00    	je     3ee0 <driver_connection_devman+0x450>
    3b6a:	83 ec 0c             	sub    $0xc,%esp
    3b6d:	52                   	push   %edx
    3b6e:	ff d0                	call   *%eax
    3b70:	83 c4 10             	add    $0x10,%esp
    3b73:	89 c7                	mov    %eax,%edi
    3b75:	8b 55 b4             	mov    -0x4c(%ebp),%edx
    3b78:	89 d0                	mov    %edx,%eax
    3b7a:	e8 01 fb ff ff       	call   3680 <fun_del_ref>
    3b7f:	51                   	push   %ecx
    3b80:	51                   	push   %ecx
    3b81:	57                   	push   %edi
    3b82:	53                   	push   %ebx
    3b83:	e8 68 ae 00 00       	call   e9f0 <async_answer_0@plt>
    3b88:	83 c4 10             	add    $0x10,%esp
    3b8b:	e9 20 ff ff ff       	jmp    3ab0 <driver_connection_devman+0x20>
    3b90:	83 ec 0c             	sub    $0xc,%esp
    3b93:	68 d4 0d 01 00       	push   $0x10dd4
    3b98:	e8 63 b2 00 00       	call   ee00 <fibril_mutex_lock@plt>
    3b9d:	c7 04 24 d4 0d 01 00 	movl   $0x10dd4,(%esp)
    3ba4:	e8 b7 ad 00 00       	call   e960 <fibril_mutex_is_locked@plt>
    3ba9:	83 c4 10             	add    $0x10,%esp
    3bac:	84 c0                	test   %al,%al
    3bae:	0f 84 a0 03 00 00    	je     3f54 <driver_connection_devman+0x4c4>
    3bb4:	a1 e8 0d 01 00       	mov    0x10de8,%eax
    3bb9:	3d e4 0d 01 00       	cmp    $0x10de4,%eax
    3bbe:	8d 50 ec             	lea    -0x14(%eax),%edx
    3bc1:	75 16                	jne    3bd9 <driver_connection_devman+0x149>
    3bc3:	e9 08 03 00 00       	jmp    3ed0 <driver_connection_devman+0x440>
    3bc8:	8b 40 04             	mov    0x4(%eax),%eax
    3bcb:	3d e4 0d 01 00       	cmp    $0x10de4,%eax
    3bd0:	8d 50 ec             	lea    -0x14(%eax),%edx
    3bd3:	0f 84 f7 02 00 00    	je     3ed0 <driver_connection_devman+0x440>
    3bd9:	3b 78 ec             	cmp    -0x14(%eax),%edi
    3bdc:	75 ea                	jne    3bc8 <driver_connection_devman+0x138>
    3bde:	8d 7a 04             	lea    0x4(%edx),%edi
    3be1:	f0 ff 42 04          	lock incl 0x4(%edx)
    3be5:	83 ec 0c             	sub    $0xc,%esp
    3be8:	89 55 b4             	mov    %edx,-0x4c(%ebp)
    3beb:	68 d4 0d 01 00       	push   $0x10dd4
    3bf0:	e8 4b af 00 00       	call   eb40 <fibril_mutex_unlock@plt>
    3bf5:	a1 6c 0f 01 00       	mov    0x10f6c,%eax
    3bfa:	83 c4 10             	add    $0x10,%esp
    3bfd:	8b 40 04             	mov    0x4(%eax),%eax
    3c00:	8b 40 08             	mov    0x8(%eax),%eax
    3c03:	85 c0                	test   %eax,%eax
    3c05:	0f 85 88 00 00 00    	jne    3c93 <driver_connection_devman+0x203>
    3c0b:	b8 f5 ff ff ff       	mov    $0xfffffff5,%eax
    3c10:	e9 63 02 00 00       	jmp    3e78 <driver_connection_devman+0x3e8>
    3c15:	8d 76 00             	lea    0x0(%esi),%esi
    3c18:	83 ec 0c             	sub    $0xc,%esp
    3c1b:	68 d4 0d 01 00       	push   $0x10dd4
    3c20:	e8 db b1 00 00       	call   ee00 <fibril_mutex_lock@plt>
    3c25:	c7 04 24 d4 0d 01 00 	movl   $0x10dd4,(%esp)
    3c2c:	e8 2f ad 00 00       	call   e960 <fibril_mutex_is_locked@plt>
    3c31:	83 c4 10             	add    $0x10,%esp
    3c34:	84 c0                	test   %al,%al
    3c36:	0f 84 18 03 00 00    	je     3f54 <driver_connection_devman+0x4c4>
    3c3c:	a1 e8 0d 01 00       	mov    0x10de8,%eax
    3c41:	3d e4 0d 01 00       	cmp    $0x10de4,%eax
    3c46:	8d 50 ec             	lea    -0x14(%eax),%edx
    3c49:	75 16                	jne    3c61 <driver_connection_devman+0x1d1>
    3c4b:	e9 80 02 00 00       	jmp    3ed0 <driver_connection_devman+0x440>
    3c50:	8b 40 04             	mov    0x4(%eax),%eax
    3c53:	3d e4 0d 01 00       	cmp    $0x10de4,%eax
    3c58:	8d 50 ec             	lea    -0x14(%eax),%edx
    3c5b:	0f 84 6f 02 00 00    	je     3ed0 <driver_connection_devman+0x440>
    3c61:	3b 78 ec             	cmp    -0x14(%eax),%edi
    3c64:	75 ea                	jne    3c50 <driver_connection_devman+0x1c0>
    3c66:	8d 7a 04             	lea    0x4(%edx),%edi
    3c69:	f0 ff 42 04          	lock incl 0x4(%edx)
    3c6d:	83 ec 0c             	sub    $0xc,%esp
    3c70:	89 55 b4             	mov    %edx,-0x4c(%ebp)
    3c73:	68 d4 0d 01 00       	push   $0x10dd4
    3c78:	e8 c3 ae 00 00       	call   eb40 <fibril_mutex_unlock@plt>
    3c7d:	a1 6c 0f 01 00       	mov    0x10f6c,%eax
    3c82:	83 c4 10             	add    $0x10,%esp
    3c85:	8b 40 04             	mov    0x4(%eax),%eax
    3c88:	8b 40 04             	mov    0x4(%eax),%eax
    3c8b:	85 c0                	test   %eax,%eax
    3c8d:	0f 84 78 ff ff ff    	je     3c0b <driver_connection_devman+0x17b>
    3c93:	83 ec 0c             	sub    $0xc,%esp
    3c96:	8b 55 b4             	mov    -0x4c(%ebp),%edx
    3c99:	52                   	push   %edx
    3c9a:	ff d0                	call   *%eax
    3c9c:	83 c4 10             	add    $0x10,%esp
    3c9f:	8b 55 b4             	mov    -0x4c(%ebp),%edx
    3ca2:	85 c0                	test   %eax,%eax
    3ca4:	0f 85 ce 01 00 00    	jne    3e78 <driver_connection_devman+0x3e8>
    3caa:	83 c9 ff             	or     $0xffffffff,%ecx
    3cad:	f0 0f c1 0f          	lock xadd %ecx,(%edi)
    3cb1:	49                   	dec    %ecx
    3cb2:	0f 85 c0 01 00 00    	jne    3e78 <driver_connection_devman+0x3e8>
    3cb8:	8b 42 08             	mov    0x8(%edx),%eax
    3cbb:	85 c0                	test   %eax,%eax
    3cbd:	74 0f                	je     3cce <driver_connection_devman+0x23e>
    3cbf:	83 ec 0c             	sub    $0xc,%esp
    3cc2:	50                   	push   %eax
    3cc3:	e8 38 ac 00 00       	call   e900 <async_hangup@plt>
    3cc8:	83 c4 10             	add    $0x10,%esp
    3ccb:	8b 55 b4             	mov    -0x4c(%ebp),%edx
    3cce:	8b 42 10             	mov    0x10(%edx),%eax
    3cd1:	85 c0                	test   %eax,%eax
    3cd3:	74 12                	je     3ce7 <driver_connection_devman+0x257>
    3cd5:	83 ec 0c             	sub    $0xc,%esp
    3cd8:	89 55 b4             	mov    %edx,-0x4c(%ebp)
    3cdb:	50                   	push   %eax
    3cdc:	e8 ff b0 00 00       	call   ede0 <free@plt>
    3ce1:	83 c4 10             	add    $0x10,%esp
    3ce4:	8b 55 b4             	mov    -0x4c(%ebp),%edx
    3ce7:	8b 42 0c             	mov    0xc(%edx),%eax
    3cea:	85 c0                	test   %eax,%eax
    3cec:	74 12                	je     3d00 <driver_connection_devman+0x270>
    3cee:	83 ec 0c             	sub    $0xc,%esp
    3cf1:	89 55 b4             	mov    %edx,-0x4c(%ebp)
    3cf4:	50                   	push   %eax
    3cf5:	e8 e6 b0 00 00       	call   ede0 <free@plt>
    3cfa:	83 c4 10             	add    $0x10,%esp
    3cfd:	8b 55 b4             	mov    -0x4c(%ebp),%edx
    3d00:	83 ec 0c             	sub    $0xc,%esp
    3d03:	52                   	push   %edx
    3d04:	e8 d7 b0 00 00       	call   ede0 <free@plt>
    3d09:	83 c4 10             	add    $0x10,%esp
    3d0c:	31 c0                	xor    %eax,%eax
    3d0e:	e9 65 01 00 00       	jmp    3e78 <driver_connection_devman+0x3e8>
    3d13:	90                   	nop
    3d14:	8d 74 26 00          	lea    0x0(%esi,%eiz,1),%esi
    3d18:	50                   	push   %eax
    3d19:	50                   	push   %eax
    3d1a:	8d 45 c0             	lea    -0x40(%ebp),%eax
    3d1d:	6a 00                	push   $0x0
    3d1f:	c7 45 c0 00 00 00 00 	movl   $0x0,-0x40(%ebp)
    3d26:	6a 00                	push   $0x0
    3d28:	6a 00                	push   $0x0
    3d2a:	6a 00                	push   $0x0
    3d2c:	6a 01                	push   $0x1
    3d2e:	50                   	push   %eax
    3d2f:	e8 1c b0 00 00       	call   ed50 <async_data_write_accept@plt>
    3d34:	83 c4 20             	add    $0x20,%esp
    3d37:	85 c0                	test   %eax,%eax
    3d39:	0f 85 39 01 00 00    	jne    3e78 <driver_connection_devman+0x3e8>
    3d3f:	50                   	push   %eax
    3d40:	50                   	push   %eax
    3d41:	6a 1c                	push   $0x1c
    3d43:	6a 01                	push   $0x1
    3d45:	e8 66 ad 00 00       	call   eab0 <calloc@plt>
    3d4a:	83 c4 10             	add    $0x10,%esp
    3d4d:	89 c2                	mov    %eax,%edx
    3d4f:	85 c0                	test   %eax,%eax
    3d51:	0f 84 df 01 00 00    	je     3f36 <driver_connection_devman+0x4a6>
    3d57:	f0 ff 40 04          	lock incl 0x4(%eax)
    3d5b:	89 38                	mov    %edi,(%eax)
    3d5d:	8b 45 c0             	mov    -0x40(%ebp),%eax
    3d60:	89 42 0c             	mov    %eax,0xc(%edx)
    3d63:	a1 6c 0f 01 00       	mov    0x10f6c,%eax
    3d68:	83 ec 0c             	sub    $0xc,%esp
    3d6b:	89 55 b4             	mov    %edx,-0x4c(%ebp)
    3d6e:	8b 40 04             	mov    0x4(%eax),%eax
    3d71:	52                   	push   %edx
    3d72:	ff 10                	call   *(%eax)
    3d74:	83 c4 10             	add    $0x10,%esp
    3d77:	89 c7                	mov    %eax,%edi
    3d79:	85 c0                	test   %eax,%eax
    3d7b:	8b 55 b4             	mov    -0x4c(%ebp),%edx
    3d7e:	0f 84 66 01 00 00    	je     3eea <driver_connection_devman+0x45a>
    3d84:	83 c8 ff             	or     $0xffffffff,%eax
    3d87:	f0 0f c1 42 04       	lock xadd %eax,0x4(%edx)
    3d8c:	48                   	dec    %eax
    3d8d:	0f 85 ec fd ff ff    	jne    3b7f <driver_connection_devman+0xef>
    3d93:	8b 42 08             	mov    0x8(%edx),%eax
    3d96:	85 c0                	test   %eax,%eax
    3d98:	74 12                	je     3dac <driver_connection_devman+0x31c>
    3d9a:	83 ec 0c             	sub    $0xc,%esp
    3d9d:	89 55 b4             	mov    %edx,-0x4c(%ebp)
    3da0:	50                   	push   %eax
    3da1:	e8 5a ab 00 00       	call   e900 <async_hangup@plt>
    3da6:	83 c4 10             	add    $0x10,%esp
    3da9:	8b 55 b4             	mov    -0x4c(%ebp),%edx
    3dac:	8b 42 10             	mov    0x10(%edx),%eax
    3daf:	85 c0                	test   %eax,%eax
    3db1:	74 12                	je     3dc5 <driver_connection_devman+0x335>
    3db3:	83 ec 0c             	sub    $0xc,%esp
    3db6:	89 55 b4             	mov    %edx,-0x4c(%ebp)
    3db9:	50                   	push   %eax
    3dba:	e8 21 b0 00 00       	call   ede0 <free@plt>
    3dbf:	83 c4 10             	add    $0x10,%esp
    3dc2:	8b 55 b4             	mov    -0x4c(%ebp),%edx
    3dc5:	8b 42 0c             	mov    0xc(%edx),%eax
    3dc8:	85 c0                	test   %eax,%eax
    3dca:	74 12                	je     3dde <driver_connection_devman+0x34e>
    3dcc:	83 ec 0c             	sub    $0xc,%esp
    3dcf:	89 55 b4             	mov    %edx,-0x4c(%ebp)
    3dd2:	50                   	push   %eax
    3dd3:	e8 08 b0 00 00       	call   ede0 <free@plt>
    3dd8:	83 c4 10             	add    $0x10,%esp
    3ddb:	8b 55 b4             	mov    -0x4c(%ebp),%edx
    3dde:	83 ec 0c             	sub    $0xc,%esp
    3de1:	52                   	push   %edx
    3de2:	e8 f9 af 00 00       	call   ede0 <free@plt>
    3de7:	83 c4 10             	add    $0x10,%esp
    3dea:	e9 90 fd ff ff       	jmp    3b7f <driver_connection_devman+0xef>
    3def:	90                   	nop
    3df0:	83 ec 0c             	sub    $0xc,%esp
    3df3:	68 bc 0d 01 00       	push   $0x10dbc
    3df8:	e8 03 b0 00 00       	call   ee00 <fibril_mutex_lock@plt>
    3dfd:	c7 04 24 bc 0d 01 00 	movl   $0x10dbc,(%esp)
    3e04:	e8 57 ab 00 00       	call   e960 <fibril_mutex_is_locked@plt>
    3e09:	83 c4 10             	add    $0x10,%esp
    3e0c:	84 c0                	test   %al,%al
    3e0e:	0f 84 52 01 00 00    	je     3f66 <driver_connection_devman+0x4d6>
    3e14:	a1 d0 0d 01 00       	mov    0x10dd0,%eax
    3e19:	3d cc 0d 01 00       	cmp    $0x10dcc,%eax
    3e1e:	8d 50 d4             	lea    -0x2c(%eax),%edx
    3e21:	75 12                	jne    3e35 <driver_connection_devman+0x3a5>
    3e23:	e9 88 00 00 00       	jmp    3eb0 <driver_connection_devman+0x420>
    3e28:	8b 40 04             	mov    0x4(%eax),%eax
    3e2b:	3d cc 0d 01 00       	cmp    $0x10dcc,%eax
    3e30:	8d 50 d4             	lea    -0x2c(%eax),%edx
    3e33:	74 7b                	je     3eb0 <driver_connection_devman+0x420>
    3e35:	3b 7a 04             	cmp    0x4(%edx),%edi
    3e38:	75 ee                	jne    3e28 <driver_connection_devman+0x398>
    3e3a:	8b 42 0c             	mov    0xc(%edx),%eax
    3e3d:	f0 ff 40 04          	lock incl 0x4(%eax)
    3e41:	f0 ff 42 08          	lock incl 0x8(%edx)
    3e45:	83 ec 0c             	sub    $0xc,%esp
    3e48:	89 55 b4             	mov    %edx,-0x4c(%ebp)
    3e4b:	68 bc 0d 01 00       	push   $0x10dbc
    3e50:	e8 eb ac 00 00       	call   eb40 <fibril_mutex_unlock@plt>
    3e55:	a1 6c 0f 01 00       	mov    0x10f6c,%eax
    3e5a:	83 c4 10             	add    $0x10,%esp
    3e5d:	8b 40 04             	mov    0x4(%eax),%eax
    3e60:	8b 40 10             	mov    0x10(%eax),%eax
    3e63:	85 c0                	test   %eax,%eax
    3e65:	0f 84 a0 fd ff ff    	je     3c0b <driver_connection_devman+0x17b>
    3e6b:	83 ec 0c             	sub    $0xc,%esp
    3e6e:	8b 55 b4             	mov    -0x4c(%ebp),%edx
    3e71:	52                   	push   %edx
    3e72:	ff d0                	call   *%eax
    3e74:	83 c4 10             	add    $0x10,%esp
    3e77:	90                   	nop
    3e78:	52                   	push   %edx
    3e79:	52                   	push   %edx
    3e7a:	50                   	push   %eax
    3e7b:	53                   	push   %ebx
    3e7c:	e8 6f ab 00 00       	call   e9f0 <async_answer_0@plt>
    3e81:	83 c4 10             	add    $0x10,%esp
    3e84:	e9 27 fc ff ff       	jmp    3ab0 <driver_connection_devman+0x20>
    3e89:	8d b4 26 00 00 00 00 	lea    0x0(%esi,%eiz,1),%esi
    3e90:	50                   	push   %eax
    3e91:	50                   	push   %eax
    3e92:	6a f5                	push   $0xfffffff5
    3e94:	53                   	push   %ebx
    3e95:	e8 56 ab 00 00       	call   e9f0 <async_answer_0@plt>
    3e9a:	83 c4 10             	add    $0x10,%esp
    3e9d:	e9 0e fc ff ff       	jmp    3ab0 <driver_connection_devman+0x20>
    3ea2:	8d b6 00 00 00 00    	lea    0x0(%esi),%esi
    3ea8:	8d 65 f4             	lea    -0xc(%ebp),%esp
    3eab:	5b                   	pop    %ebx
    3eac:	5e                   	pop    %esi
    3ead:	5f                   	pop    %edi
    3eae:	5d                   	pop    %ebp
    3eaf:	c3                   	ret    
    3eb0:	83 ec 0c             	sub    $0xc,%esp
    3eb3:	68 bc 0d 01 00       	push   $0x10dbc
    3eb8:	e8 83 ac 00 00       	call   eb40 <fibril_mutex_unlock@plt>
    3ebd:	58                   	pop    %eax
    3ebe:	5a                   	pop    %edx
    3ebf:	6a ff                	push   $0xffffffff
    3ec1:	53                   	push   %ebx
    3ec2:	e8 29 ab 00 00       	call   e9f0 <async_answer_0@plt>
    3ec7:	83 c4 10             	add    $0x10,%esp
    3eca:	e9 e1 fb ff ff       	jmp    3ab0 <driver_connection_devman+0x20>
    3ecf:	90                   	nop
    3ed0:	83 ec 0c             	sub    $0xc,%esp
    3ed3:	68 d4 0d 01 00       	push   $0x10dd4
    3ed8:	eb de                	jmp    3eb8 <driver_connection_devman+0x428>
    3eda:	8d b6 00 00 00 00    	lea    0x0(%esi),%esi
    3ee0:	bf f5 ff ff ff       	mov    $0xfffffff5,%edi
    3ee5:	e9 8e fc ff ff       	jmp    3b78 <driver_connection_devman+0xe8>
    3eea:	83 ec 0c             	sub    $0xc,%esp
    3eed:	89 55 b4             	mov    %edx,-0x4c(%ebp)
    3ef0:	68 d4 0d 01 00       	push   $0x10dd4
    3ef5:	e8 06 af 00 00       	call   ee00 <fibril_mutex_lock@plt>
    3efa:	8b 55 b4             	mov    -0x4c(%ebp),%edx
    3efd:	8b 0d e4 0d 01 00    	mov    0x10de4,%ecx
    3f03:	8d 42 14             	lea    0x14(%edx),%eax
    3f06:	c7 42 18 e4 0d 01 00 	movl   $0x10de4,0x18(%edx)
    3f0d:	89 4a 14             	mov    %ecx,0x14(%edx)
    3f10:	89 41 04             	mov    %eax,0x4(%ecx)
    3f13:	a3 e4 0d 01 00       	mov    %eax,0x10de4
    3f18:	c7 04 24 d4 0d 01 00 	movl   $0x10dd4,(%esp)
    3f1f:	e8 1c ac 00 00       	call   eb40 <fibril_mutex_unlock@plt>
    3f24:	5f                   	pop    %edi
    3f25:	58                   	pop    %eax
    3f26:	6a 00                	push   $0x0
    3f28:	53                   	push   %ebx
    3f29:	e8 c2 aa 00 00       	call   e9f0 <async_answer_0@plt>
    3f2e:	83 c4 10             	add    $0x10,%esp
    3f31:	e9 7a fb ff ff       	jmp    3ab0 <driver_connection_devman+0x20>
    3f36:	83 ec 0c             	sub    $0xc,%esp
    3f39:	8b 4d c0             	mov    -0x40(%ebp),%ecx
    3f3c:	51                   	push   %ecx
    3f3d:	e8 9e ae 00 00       	call   ede0 <free@plt>
    3f42:	5f                   	pop    %edi
    3f43:	58                   	pop    %eax
    3f44:	6a fe                	push   $0xfffffffe
    3f46:	53                   	push   %ebx
    3f47:	e8 a4 aa 00 00       	call   e9f0 <async_answer_0@plt>
    3f4c:	83 c4 10             	add    $0x10,%esp
    3f4f:	e9 5c fb ff ff       	jmp    3ab0 <driver_connection_devman+0x20>
    3f54:	56                   	push   %esi
    3f55:	6a 5f                	push   $0x5f
    3f57:	68 37 cb 00 00       	push   $0xcb37
    3f5c:	68 dc cd 00 00       	push   $0xcddc
    3f61:	e8 2a ab 00 00       	call   ea90 <assert_abort@plt>
    3f66:	53                   	push   %ebx
    3f67:	6a 6b                	push   $0x6b
    3f69:	68 37 cb 00 00       	push   $0xcb37
    3f6e:	68 90 cc 00 00       	push   $0xcc90
    3f73:	e8 18 ab 00 00       	call   ea90 <assert_abort@plt>
    3f78:	90                   	nop
    3f79:	8d b4 26 00 00 00 00 	lea    0x0(%esi,%eiz,1),%esi

00003f80 <ddf_dev_data_alloc>:
    3f80:	55                   	push   %ebp
    3f81:	89 e5                	mov    %esp,%ebp
    3f83:	53                   	push   %ebx
    3f84:	53                   	push   %ebx
    3f85:	8b 5d 08             	mov    0x8(%ebp),%ebx
    3f88:	8b 43 10             	mov    0x10(%ebx),%eax
    3f8b:	85 c0                	test   %eax,%eax
    3f8d:	75 1c                	jne    3fab <ddf_dev_data_alloc+0x2b>
    3f8f:	8b 55 0c             	mov    0xc(%ebp),%edx
    3f92:	50                   	push   %eax
    3f93:	50                   	push   %eax
    3f94:	52                   	push   %edx
    3f95:	6a 01                	push   $0x1
    3f97:	e8 14 ab 00 00       	call   eab0 <calloc@plt>
    3f9c:	83 c4 10             	add    $0x10,%esp
    3f9f:	85 c0                	test   %eax,%eax
    3fa1:	74 03                	je     3fa6 <ddf_dev_data_alloc+0x26>
    3fa3:	89 43 10             	mov    %eax,0x10(%ebx)
    3fa6:	8b 5d fc             	mov    -0x4(%ebp),%ebx
    3fa9:	c9                   	leave  
    3faa:	c3                   	ret    
    3fab:	51                   	push   %ecx
    3fac:	68 39 02 00 00       	push   $0x239
    3fb1:	68 37 cb 00 00       	push   $0xcb37
    3fb6:	68 72 cb 00 00       	push   $0xcb72
    3fbb:	e8 d0 aa 00 00       	call   ea90 <assert_abort@plt>

00003fc0 <ddf_dev_data_get>:
    3fc0:	55                   	push   %ebp
    3fc1:	89 e5                	mov    %esp,%ebp
    3fc3:	8b 45 08             	mov    0x8(%ebp),%eax
    3fc6:	5d                   	pop    %ebp
    3fc7:	8b 40 10             	mov    0x10(%eax),%eax
    3fca:	c3                   	ret    
    3fcb:	90                   	nop
    3fcc:	8d 74 26 00          	lea    0x0(%esi,%eiz,1),%esi

00003fd0 <ddf_dev_get_handle>:
    3fd0:	55                   	push   %ebp
    3fd1:	89 e5                	mov    %esp,%ebp
    3fd3:	8b 45 08             	mov    0x8(%ebp),%eax
    3fd6:	5d                   	pop    %ebp
    3fd7:	8b 00                	mov    (%eax),%eax
    3fd9:	c3                   	ret    
    3fda:	8d b6 00 00 00 00    	lea    0x0(%esi),%esi

00003fe0 <ddf_dev_get_name>:
    3fe0:	55                   	push   %ebp
    3fe1:	89 e5                	mov    %esp,%ebp
    3fe3:	8b 45 08             	mov    0x8(%ebp),%eax
    3fe6:	5d                   	pop    %ebp
    3fe7:	8b 40 0c             	mov    0xc(%eax),%eax
    3fea:	c3                   	ret    
    3feb:	90                   	nop
    3fec:	8d 74 26 00          	lea    0x0(%esi,%eiz,1),%esi

00003ff0 <ddf_dev_parent_sess_create>:
    3ff0:	55                   	push   %ebp
    3ff1:	89 e5                	mov    %esp,%ebp
    3ff3:	53                   	push   %ebx
    3ff4:	53                   	push   %ebx
    3ff5:	8b 5d 08             	mov    0x8(%ebp),%ebx
    3ff8:	8b 43 08             	mov    0x8(%ebx),%eax
    3ffb:	85 c0                	test   %eax,%eax
    3ffd:	75 14                	jne    4013 <ddf_dev_parent_sess_create+0x23>
    3fff:	50                   	push   %eax
    4000:	50                   	push   %eax
    4001:	6a 01                	push   $0x1
    4003:	8b 13                	mov    (%ebx),%edx
    4005:	52                   	push   %edx
    4006:	e8 25 a9 00 00       	call   e930 <devman_parent_device_connect@plt>
    400b:	89 43 08             	mov    %eax,0x8(%ebx)
    400e:	8b 5d fc             	mov    -0x4(%ebp),%ebx
    4011:	c9                   	leave  
    4012:	c3                   	ret    
    4013:	51                   	push   %ecx
    4014:	68 64 02 00 00       	push   $0x264
    4019:	68 37 cb 00 00       	push   $0xcb37
    401e:	68 8b cb 00 00       	push   $0xcb8b
    4023:	e8 68 aa 00 00       	call   ea90 <assert_abort@plt>
    4028:	90                   	nop
    4029:	8d b4 26 00 00 00 00 	lea    0x0(%esi,%eiz,1),%esi

00004030 <ddf_dev_parent_sess_get>:
    4030:	55                   	push   %ebp
    4031:	89 e5                	mov    %esp,%ebp
    4033:	8b 45 08             	mov    0x8(%ebp),%eax
    4036:	5d                   	pop    %ebp
    4037:	8b 40 08             	mov    0x8(%eax),%eax
    403a:	c3                   	ret    
    403b:	90                   	nop
    403c:	8d 74 26 00          	lea    0x0(%esi,%eiz,1),%esi

00004040 <ddf_fun_set_name>:
    4040:	55                   	push   %ebp
    4041:	89 e5                	mov    %esp,%ebp
    4043:	53                   	push   %ebx
    4044:	51                   	push   %ecx
    4045:	8b 5d 08             	mov    0x8(%ebp),%ebx
    4048:	8b 43 14             	mov    0x14(%ebx),%eax
    404b:	85 c0                	test   %eax,%eax
    404d:	75 23                	jne    4072 <ddf_fun_set_name+0x32>
    404f:	83 ec 0c             	sub    $0xc,%esp
    4052:	8b 45 0c             	mov    0xc(%ebp),%eax
    4055:	50                   	push   %eax
    4056:	e8 05 ab 00 00       	call   eb60 <str_dup@plt>
    405b:	83 c4 10             	add    $0x10,%esp
    405e:	89 43 14             	mov    %eax,0x14(%ebx)
    4061:	85 c0                	test   %eax,%eax
    4063:	8b 5d fc             	mov    -0x4(%ebp),%ebx
    4066:	0f 94 c0             	sete   %al
    4069:	25 ff 00 00 00       	and    $0xff,%eax
    406e:	c9                   	leave  
    406f:	f7 d8                	neg    %eax
    4071:	c3                   	ret    
    4072:	52                   	push   %edx
    4073:	68 7d 02 00 00       	push   $0x27d
    4078:	68 37 cb 00 00       	push   $0xcb37
    407d:	68 a4 cb 00 00       	push   $0xcba4
    4082:	e8 09 aa 00 00       	call   ea90 <assert_abort@plt>
    4087:	89 f6                	mov    %esi,%esi
    4089:	8d bc 27 00 00 00 00 	lea    0x0(%edi,%eiz,1),%edi

00004090 <ddf_fun_get_dev>:
    4090:	55                   	push   %ebp
    4091:	89 e5                	mov    %esp,%ebp
    4093:	8b 45 08             	mov    0x8(%ebp),%eax
    4096:	5d                   	pop    %ebp
    4097:	8b 40 0c             	mov    0xc(%eax),%eax
    409a:	c3                   	ret    
    409b:	90                   	nop
    409c:	8d 74 26 00          	lea    0x0(%esi,%eiz,1),%esi

000040a0 <ddf_fun_get_handle>:
    40a0:	55                   	push   %ebp
    40a1:	89 e5                	mov    %esp,%ebp
    40a3:	8b 45 08             	mov    0x8(%ebp),%eax
    40a6:	5d                   	pop    %ebp
    40a7:	8b 40 04             	mov    0x4(%eax),%eax
    40aa:	c3                   	ret    
    40ab:	90                   	nop
    40ac:	8d 74 26 00          	lea    0x0(%esi,%eiz,1),%esi

000040b0 <ddf_fun_create>:
    40b0:	55                   	push   %ebp
    40b1:	89 e5                	mov    %esp,%ebp
    40b3:	57                   	push   %edi
    40b4:	56                   	push   %esi
    40b5:	53                   	push   %ebx
    40b6:	83 ec 14             	sub    $0x14,%esp
    40b9:	8b 75 08             	mov    0x8(%ebp),%esi
    40bc:	6a 34                	push   $0x34
    40be:	6a 01                	push   $0x1
    40c0:	e8 eb a9 00 00       	call   eab0 <calloc@plt>
    40c5:	83 c4 10             	add    $0x10,%esp
    40c8:	89 c3                	mov    %eax,%ebx
    40ca:	85 c0                	test   %eax,%eax
    40cc:	74 48                	je     4116 <ddf_fun_create+0x66>
    40ce:	8d 78 18             	lea    0x18(%eax),%edi
    40d1:	c7 40 2c 00 00 00 00 	movl   $0x0,0x2c(%eax)
    40d8:	89 78 18             	mov    %edi,0x18(%eax)
    40db:	89 78 1c             	mov    %edi,0x1c(%eax)
    40de:	c7 40 30 00 00 00 00 	movl   $0x0,0x30(%eax)
    40e5:	89 70 0c             	mov    %esi,0xc(%eax)
    40e8:	f0 ff 46 04          	lock incl 0x4(%esi)
    40ec:	f0 ff 40 08          	lock incl 0x8(%eax)
    40f0:	c6 00 00             	movb   $0x0,(%eax)
    40f3:	8b 55 10             	mov    0x10(%ebp),%edx
    40f6:	8b 45 0c             	mov    0xc(%ebp),%eax
    40f9:	85 d2                	test   %edx,%edx
    40fb:	89 43 10             	mov    %eax,0x10(%ebx)
    40fe:	74 16                	je     4116 <ddf_fun_create+0x66>
    4100:	83 ec 0c             	sub    $0xc,%esp
    4103:	8b 45 10             	mov    0x10(%ebp),%eax
    4106:	50                   	push   %eax
    4107:	e8 54 aa 00 00       	call   eb60 <str_dup@plt>
    410c:	83 c4 10             	add    $0x10,%esp
    410f:	89 43 14             	mov    %eax,0x14(%ebx)
    4112:	85 c0                	test   %eax,%eax
    4114:	74 0a                	je     4120 <ddf_fun_create+0x70>
    4116:	8d 65 f4             	lea    -0xc(%ebp),%esp
    4119:	89 d8                	mov    %ebx,%eax
    411b:	5b                   	pop    %ebx
    411c:	5e                   	pop    %esi
    411d:	5f                   	pop    %edi
    411e:	5d                   	pop    %ebp
    411f:	c3                   	ret    
    4120:	8b 73 1c             	mov    0x1c(%ebx),%esi
    4123:	39 f7                	cmp    %esi,%edi
    4125:	0f 84 85 00 00 00    	je     41b0 <ddf_fun_create+0x100>
    412b:	90                   	nop
    412c:	8d 74 26 00          	lea    0x0(%esi,%eiz,1),%esi
    4130:	8b 0e                	mov    (%esi),%ecx
    4132:	85 c9                	test   %ecx,%ecx
    4134:	74 0e                	je     4144 <ddf_fun_create+0x94>
    4136:	8b 46 04             	mov    0x4(%esi),%eax
    4139:	85 c0                	test   %eax,%eax
    413b:	74 07                	je     4144 <ddf_fun_create+0x94>
    413d:	89 08                	mov    %ecx,(%eax)
    413f:	8b 0e                	mov    (%esi),%ecx
    4141:	89 41 04             	mov    %eax,0x4(%ecx)
    4144:	8b 46 08             	mov    0x8(%esi),%eax
    4147:	c7 06 00 00 00 00    	movl   $0x0,(%esi)
    414d:	c7 46 04 00 00 00 00 	movl   $0x0,0x4(%esi)
    4154:	85 c0                	test   %eax,%eax
    4156:	74 0c                	je     4164 <ddf_fun_create+0xb4>
    4158:	83 ec 0c             	sub    $0xc,%esp
    415b:	50                   	push   %eax
    415c:	e8 7f ac 00 00       	call   ede0 <free@plt>
    4161:	83 c4 10             	add    $0x10,%esp
    4164:	83 ec 0c             	sub    $0xc,%esp
    4167:	56                   	push   %esi
    4168:	e8 73 ac 00 00       	call   ede0 <free@plt>
    416d:	8b 73 1c             	mov    0x1c(%ebx),%esi
    4170:	83 c4 10             	add    $0x10,%esp
    4173:	39 f7                	cmp    %esi,%edi
    4175:	75 b9                	jne    4130 <ddf_fun_create+0x80>
    4177:	8b 43 20             	mov    0x20(%ebx),%eax
    417a:	85 c0                	test   %eax,%eax
    417c:	74 0c                	je     418a <ddf_fun_create+0xda>
    417e:	83 ec 0c             	sub    $0xc,%esp
    4181:	50                   	push   %eax
    4182:	e8 59 ac 00 00       	call   ede0 <free@plt>
    4187:	83 c4 10             	add    $0x10,%esp
    418a:	8b 43 14             	mov    0x14(%ebx),%eax
    418d:	85 c0                	test   %eax,%eax
    418f:	74 0c                	je     419d <ddf_fun_create+0xed>
    4191:	83 ec 0c             	sub    $0xc,%esp
    4194:	50                   	push   %eax
    4195:	e8 46 ac 00 00       	call   ede0 <free@plt>
    419a:	83 c4 10             	add    $0x10,%esp
    419d:	83 ec 0c             	sub    $0xc,%esp
    41a0:	53                   	push   %ebx
    41a1:	31 db                	xor    %ebx,%ebx
    41a3:	e8 38 ac 00 00       	call   ede0 <free@plt>
    41a8:	83 c4 10             	add    $0x10,%esp
    41ab:	e9 66 ff ff ff       	jmp    4116 <ddf_fun_create+0x66>
    41b0:	8b 43 20             	mov    0x20(%ebx),%eax
    41b3:	85 c0                	test   %eax,%eax
    41b5:	75 c7                	jne    417e <ddf_fun_create+0xce>
    41b7:	eb e4                	jmp    419d <ddf_fun_create+0xed>
    41b9:	8d b4 26 00 00 00 00 	lea    0x0(%esi,%eiz,1),%esi

000041c0 <ddf_fun_data_alloc>:
    41c0:	55                   	push   %ebp
    41c1:	89 e5                	mov    %esp,%ebp
    41c3:	53                   	push   %ebx
    41c4:	50                   	push   %eax
    41c5:	8b 5d 08             	mov    0x8(%ebp),%ebx
    41c8:	80 3b 00             	cmpb   $0x0,(%ebx)
    41cb:	75 23                	jne    41f0 <ddf_fun_data_alloc+0x30>
    41cd:	8b 43 20             	mov    0x20(%ebx),%eax
    41d0:	85 c0                	test   %eax,%eax
    41d2:	75 31                	jne    4205 <ddf_fun_data_alloc+0x45>
    41d4:	8b 55 0c             	mov    0xc(%ebp),%edx
    41d7:	50                   	push   %eax
    41d8:	50                   	push   %eax
    41d9:	52                   	push   %edx
    41da:	6a 01                	push   $0x1
    41dc:	e8 cf a8 00 00       	call   eab0 <calloc@plt>
    41e1:	83 c4 10             	add    $0x10,%esp
    41e4:	85 c0                	test   %eax,%eax
    41e6:	74 03                	je     41eb <ddf_fun_data_alloc+0x2b>
    41e8:	89 43 20             	mov    %eax,0x20(%ebx)
    41eb:	8b 5d fc             	mov    -0x4(%ebp),%ebx
    41ee:	c9                   	leave  
    41ef:	c3                   	ret    
    41f0:	50                   	push   %eax
    41f1:	68 c9 02 00 00       	push   $0x2c9
    41f6:	68 37 cb 00 00       	push   $0xcb37
    41fb:	68 b6 cb 00 00       	push   $0xcbb6
    4200:	e8 8b a8 00 00       	call   ea90 <assert_abort@plt>
    4205:	51                   	push   %ecx
    4206:	68 ca 02 00 00       	push   $0x2ca
    420b:	68 37 cb 00 00       	push   $0xcb37
    4210:	68 ca cb 00 00       	push   $0xcbca
    4215:	e8 76 a8 00 00       	call   ea90 <assert_abort@plt>
    421a:	8d b6 00 00 00 00    	lea    0x0(%esi),%esi

00004220 <ddf_fun_data_get>:
    4220:	55                   	push   %ebp
    4221:	89 e5                	mov    %esp,%ebp
    4223:	8b 45 08             	mov    0x8(%ebp),%eax
    4226:	5d                   	pop    %ebp
    4227:	8b 40 20             	mov    0x20(%eax),%eax
    422a:	c3                   	ret    
    422b:	90                   	nop
    422c:	8d 74 26 00          	lea    0x0(%esi,%eiz,1),%esi

00004230 <ddf_fun_get_name>:
    4230:	55                   	push   %ebp
    4231:	89 e5                	mov    %esp,%ebp
    4233:	8b 45 08             	mov    0x8(%ebp),%eax
    4236:	5d                   	pop    %ebp
    4237:	8b 40 14             	mov    0x14(%eax),%eax
    423a:	c3                   	ret    
    423b:	90                   	nop
    423c:	8d 74 26 00          	lea    0x0(%esi,%eiz,1),%esi

00004240 <ddf_fun_destroy>:
    4240:	55                   	push   %ebp
    4241:	89 e5                	mov    %esp,%ebp
    4243:	57                   	push   %edi
    4244:	56                   	push   %esi
    4245:	53                   	push   %ebx
    4246:	83 ec 1c             	sub    $0x1c,%esp
    4249:	8b 7d 08             	mov    0x8(%ebp),%edi
    424c:	80 3f 00             	cmpb   $0x0,(%edi)
    424f:	0f 85 fa 00 00 00    	jne    434f <ddf_fun_destroy+0x10f>
    4255:	8b 77 0c             	mov    0xc(%edi),%esi
    4258:	83 ca ff             	or     $0xffffffff,%edx
    425b:	f0 0f c1 57 08       	lock xadd %edx,0x8(%edi)
    4260:	4a                   	dec    %edx
    4261:	74 5d                	je     42c0 <ddf_fun_destroy+0x80>
    4263:	83 c8 ff             	or     $0xffffffff,%eax
    4266:	f0 0f c1 46 04       	lock xadd %eax,0x4(%esi)
    426b:	48                   	dec    %eax
    426c:	74 0a                	je     4278 <ddf_fun_destroy+0x38>
    426e:	8d 65 f4             	lea    -0xc(%ebp),%esp
    4271:	5b                   	pop    %ebx
    4272:	5e                   	pop    %esi
    4273:	5f                   	pop    %edi
    4274:	5d                   	pop    %ebp
    4275:	c3                   	ret    
    4276:	66 90                	xchg   %ax,%ax
    4278:	8b 46 08             	mov    0x8(%esi),%eax
    427b:	85 c0                	test   %eax,%eax
    427d:	74 0c                	je     428b <ddf_fun_destroy+0x4b>
    427f:	83 ec 0c             	sub    $0xc,%esp
    4282:	50                   	push   %eax
    4283:	e8 78 a6 00 00       	call   e900 <async_hangup@plt>
    4288:	83 c4 10             	add    $0x10,%esp
    428b:	8b 46 10             	mov    0x10(%esi),%eax
    428e:	85 c0                	test   %eax,%eax
    4290:	74 0c                	je     429e <ddf_fun_destroy+0x5e>
    4292:	83 ec 0c             	sub    $0xc,%esp
    4295:	50                   	push   %eax
    4296:	e8 45 ab 00 00       	call   ede0 <free@plt>
    429b:	83 c4 10             	add    $0x10,%esp
    429e:	8b 46 0c             	mov    0xc(%esi),%eax
    42a1:	85 c0                	test   %eax,%eax
    42a3:	74 0c                	je     42b1 <ddf_fun_destroy+0x71>
    42a5:	83 ec 0c             	sub    $0xc,%esp
    42a8:	50                   	push   %eax
    42a9:	e8 32 ab 00 00       	call   ede0 <free@plt>
    42ae:	83 c4 10             	add    $0x10,%esp
    42b1:	89 75 08             	mov    %esi,0x8(%ebp)
    42b4:	8d 65 f4             	lea    -0xc(%ebp),%esp
    42b7:	5b                   	pop    %ebx
    42b8:	5e                   	pop    %esi
    42b9:	5f                   	pop    %edi
    42ba:	5d                   	pop    %ebp
    42bb:	e9 20 ab 00 00       	jmp    ede0 <free@plt>
    42c0:	8d 47 18             	lea    0x18(%edi),%eax
    42c3:	8b 5f 1c             	mov    0x1c(%edi),%ebx
    42c6:	89 45 e4             	mov    %eax,-0x1c(%ebp)
    42c9:	39 d8                	cmp    %ebx,%eax
    42cb:	74 4b                	je     4318 <ddf_fun_destroy+0xd8>
    42cd:	8d 76 00             	lea    0x0(%esi),%esi
    42d0:	8b 0b                	mov    (%ebx),%ecx
    42d2:	85 c9                	test   %ecx,%ecx
    42d4:	74 0e                	je     42e4 <ddf_fun_destroy+0xa4>
    42d6:	8b 53 04             	mov    0x4(%ebx),%edx
    42d9:	85 d2                	test   %edx,%edx
    42db:	74 07                	je     42e4 <ddf_fun_destroy+0xa4>
    42dd:	89 0a                	mov    %ecx,(%edx)
    42df:	8b 0b                	mov    (%ebx),%ecx
    42e1:	89 51 04             	mov    %edx,0x4(%ecx)
    42e4:	8b 53 08             	mov    0x8(%ebx),%edx
    42e7:	c7 03 00 00 00 00    	movl   $0x0,(%ebx)
    42ed:	c7 43 04 00 00 00 00 	movl   $0x0,0x4(%ebx)
    42f4:	85 d2                	test   %edx,%edx
    42f6:	74 0c                	je     4304 <ddf_fun_destroy+0xc4>
    42f8:	83 ec 0c             	sub    $0xc,%esp
    42fb:	52                   	push   %edx
    42fc:	e8 df aa 00 00       	call   ede0 <free@plt>
    4301:	83 c4 10             	add    $0x10,%esp
    4304:	83 ec 0c             	sub    $0xc,%esp
    4307:	53                   	push   %ebx
    4308:	e8 d3 aa 00 00       	call   ede0 <free@plt>
    430d:	8b 5f 1c             	mov    0x1c(%edi),%ebx
    4310:	83 c4 10             	add    $0x10,%esp
    4313:	3b 5d e4             	cmp    -0x1c(%ebp),%ebx
    4316:	75 b8                	jne    42d0 <ddf_fun_destroy+0x90>
    4318:	8b 57 20             	mov    0x20(%edi),%edx
    431b:	85 d2                	test   %edx,%edx
    431d:	74 0c                	je     432b <ddf_fun_destroy+0xeb>
    431f:	83 ec 0c             	sub    $0xc,%esp
    4322:	52                   	push   %edx
    4323:	e8 b8 aa 00 00       	call   ede0 <free@plt>
    4328:	83 c4 10             	add    $0x10,%esp
    432b:	8b 57 14             	mov    0x14(%edi),%edx
    432e:	85 d2                	test   %edx,%edx
    4330:	74 0c                	je     433e <ddf_fun_destroy+0xfe>
    4332:	83 ec 0c             	sub    $0xc,%esp
    4335:	52                   	push   %edx
    4336:	e8 a5 aa 00 00       	call   ede0 <free@plt>
    433b:	83 c4 10             	add    $0x10,%esp
    433e:	83 ec 0c             	sub    $0xc,%esp
    4341:	57                   	push   %edi
    4342:	e8 99 aa 00 00       	call   ede0 <free@plt>
    4347:	83 c4 10             	add    $0x10,%esp
    434a:	e9 14 ff ff ff       	jmp    4263 <ddf_fun_destroy+0x23>
    434f:	50                   	push   %eax
    4350:	68 ee 02 00 00       	push   $0x2ee
    4355:	68 37 cb 00 00       	push   $0xcb37
    435a:	68 b6 cb 00 00       	push   $0xcbb6
    435f:	e8 2c a7 00 00       	call   ea90 <assert_abort@plt>
    4364:	8d b6 00 00 00 00    	lea    0x0(%esi),%esi
    436a:	8d bf 00 00 00 00    	lea    0x0(%edi),%edi

00004370 <ddf_fun_bind>:
    4370:	55                   	push   %ebp
    4371:	89 e5                	mov    %esp,%ebp
    4373:	53                   	push   %ebx
    4374:	83 ec 14             	sub    $0x14,%esp
    4377:	8b 5d 08             	mov    0x8(%ebp),%ebx
    437a:	80 3b 00             	cmpb   $0x0,(%ebx)
    437d:	0f 85 d2 00 00 00    	jne    4455 <ddf_fun_bind+0xe5>
    4383:	8b 43 14             	mov    0x14(%ebx),%eax
    4386:	85 c0                	test   %eax,%eax
    4388:	0f 84 f1 00 00 00    	je     447f <ddf_fun_bind+0x10f>
    438e:	8b 43 0c             	mov    0xc(%ebx),%eax
    4391:	85 c0                	test   %eax,%eax
    4393:	0f 84 d1 00 00 00    	je     446a <ddf_fun_bind+0xfa>
    4399:	83 ec 0c             	sub    $0xc,%esp
    439c:	68 bc 0d 01 00       	push   $0x10dbc
    43a1:	e8 5a aa 00 00       	call   ee00 <fibril_mutex_lock@plt>
    43a6:	8b 15 cc 0d 01 00    	mov    0x10dcc,%edx
    43ac:	8d 43 2c             	lea    0x2c(%ebx),%eax
    43af:	89 53 2c             	mov    %edx,0x2c(%ebx)
    43b2:	c7 43 30 cc 0d 01 00 	movl   $0x10dcc,0x30(%ebx)
    43b9:	89 42 04             	mov    %eax,0x4(%edx)
    43bc:	a3 cc 0d 01 00       	mov    %eax,0x10dcc
    43c1:	c7 04 24 bc 0d 01 00 	movl   $0x10dbc,(%esp)
    43c8:	e8 73 a7 00 00       	call   eb40 <fibril_mutex_unlock@plt>
    43cd:	8d 43 04             	lea    0x4(%ebx),%eax
    43d0:	8b 53 10             	mov    0x10(%ebx),%edx
    43d3:	89 04 24             	mov    %eax,(%esp)
    43d6:	8b 43 0c             	mov    0xc(%ebx),%eax
    43d9:	8b 4b 14             	mov    0x14(%ebx),%ecx
    43dc:	8b 00                	mov    (%eax),%eax
    43de:	50                   	push   %eax
    43df:	8d 43 18             	lea    0x18(%ebx),%eax
    43e2:	50                   	push   %eax
    43e3:	52                   	push   %edx
    43e4:	51                   	push   %ecx
    43e5:	e8 76 a6 00 00       	call   ea60 <devman_add_function@plt>
    43ea:	83 c4 20             	add    $0x20,%esp
    43ed:	85 c0                	test   %eax,%eax
    43ef:	75 0f                	jne    4400 <ddf_fun_bind+0x90>
    43f1:	c6 03 01             	movb   $0x1,(%ebx)
    43f4:	8b 5d fc             	mov    -0x4(%ebp),%ebx
    43f7:	c9                   	leave  
    43f8:	c3                   	ret    
    43f9:	8d b4 26 00 00 00 00 	lea    0x0(%esi,%eiz,1),%esi
    4400:	83 ec 0c             	sub    $0xc,%esp
    4403:	89 45 f4             	mov    %eax,-0xc(%ebp)
    4406:	68 bc 0d 01 00       	push   $0x10dbc
    440b:	e8 f0 a9 00 00       	call   ee00 <fibril_mutex_lock@plt>
    4410:	8b 4b 2c             	mov    0x2c(%ebx),%ecx
    4413:	83 c4 10             	add    $0x10,%esp
    4416:	8b 45 f4             	mov    -0xc(%ebp),%eax
    4419:	85 c9                	test   %ecx,%ecx
    441b:	74 0f                	je     442c <ddf_fun_bind+0xbc>
    441d:	8b 53 30             	mov    0x30(%ebx),%edx
    4420:	85 d2                	test   %edx,%edx
    4422:	74 08                	je     442c <ddf_fun_bind+0xbc>
    4424:	89 0a                	mov    %ecx,(%edx)
    4426:	8b 4b 2c             	mov    0x2c(%ebx),%ecx
    4429:	89 51 04             	mov    %edx,0x4(%ecx)
    442c:	83 ec 0c             	sub    $0xc,%esp
    442f:	c7 43 2c 00 00 00 00 	movl   $0x0,0x2c(%ebx)
    4436:	c7 43 30 00 00 00 00 	movl   $0x0,0x30(%ebx)
    443d:	89 45 f4             	mov    %eax,-0xc(%ebp)
    4440:	68 bc 0d 01 00       	push   $0x10dbc
    4445:	e8 f6 a6 00 00       	call   eb40 <fibril_mutex_unlock@plt>
    444a:	8b 45 f4             	mov    -0xc(%ebp),%eax
    444d:	83 c4 10             	add    $0x10,%esp
    4450:	8b 5d fc             	mov    -0x4(%ebp),%ebx
    4453:	c9                   	leave  
    4454:	c3                   	ret    
    4455:	50                   	push   %eax
    4456:	68 12 03 00 00       	push   $0x312
    445b:	68 37 cb 00 00       	push   $0xcb37
    4460:	68 b6 cb 00 00       	push   $0xcbb6
    4465:	e8 26 a6 00 00       	call   ea90 <assert_abort@plt>
    446a:	53                   	push   %ebx
    446b:	68 14 03 00 00       	push   $0x314
    4470:	68 37 cb 00 00       	push   $0xcb37
    4475:	68 f5 cb 00 00       	push   $0xcbf5
    447a:	e8 11 a6 00 00       	call   ea90 <assert_abort@plt>
    447f:	50                   	push   %eax
    4480:	68 13 03 00 00       	push   $0x313
    4485:	68 37 cb 00 00       	push   $0xcb37
    448a:	68 e3 cb 00 00       	push   $0xcbe3
    448f:	e8 fc a5 00 00       	call   ea90 <assert_abort@plt>
    4494:	8d b6 00 00 00 00    	lea    0x0(%esi),%esi
    449a:	8d bf 00 00 00 00    	lea    0x0(%edi),%edi

000044a0 <ddf_fun_unbind>:
    44a0:	55                   	push   %ebp
    44a1:	89 e5                	mov    %esp,%ebp
    44a3:	53                   	push   %ebx
    44a4:	83 ec 14             	sub    $0x14,%esp
    44a7:	8b 5d 08             	mov    0x8(%ebp),%ebx
    44aa:	80 3b 00             	cmpb   $0x0,(%ebx)
    44ad:	74 71                	je     4520 <ddf_fun_unbind+0x80>
    44af:	83 ec 0c             	sub    $0xc,%esp
    44b2:	8b 43 04             	mov    0x4(%ebx),%eax
    44b5:	50                   	push   %eax
    44b6:	e8 25 a6 00 00       	call   eae0 <devman_remove_function@plt>
    44bb:	83 c4 10             	add    $0x10,%esp
    44be:	85 c0                	test   %eax,%eax
    44c0:	74 06                	je     44c8 <ddf_fun_unbind+0x28>
    44c2:	8b 5d fc             	mov    -0x4(%ebp),%ebx
    44c5:	c9                   	leave  
    44c6:	c3                   	ret    
    44c7:	90                   	nop
    44c8:	83 ec 0c             	sub    $0xc,%esp
    44cb:	89 45 f4             	mov    %eax,-0xc(%ebp)
    44ce:	68 bc 0d 01 00       	push   $0x10dbc
    44d3:	e8 28 a9 00 00       	call   ee00 <fibril_mutex_lock@plt>
    44d8:	8b 4b 2c             	mov    0x2c(%ebx),%ecx
    44db:	83 c4 10             	add    $0x10,%esp
    44de:	8b 45 f4             	mov    -0xc(%ebp),%eax
    44e1:	85 c9                	test   %ecx,%ecx
    44e3:	74 0f                	je     44f4 <ddf_fun_unbind+0x54>
    44e5:	8b 53 30             	mov    0x30(%ebx),%edx
    44e8:	85 d2                	test   %edx,%edx
    44ea:	74 08                	je     44f4 <ddf_fun_unbind+0x54>
    44ec:	89 0a                	mov    %ecx,(%edx)
    44ee:	8b 4b 2c             	mov    0x2c(%ebx),%ecx
    44f1:	89 51 04             	mov    %edx,0x4(%ecx)
    44f4:	83 ec 0c             	sub    $0xc,%esp
    44f7:	c7 43 2c 00 00 00 00 	movl   $0x0,0x2c(%ebx)
    44fe:	c7 43 30 00 00 00 00 	movl   $0x0,0x30(%ebx)
    4505:	89 45 f4             	mov    %eax,-0xc(%ebp)
    4508:	68 bc 0d 01 00       	push   $0x10dbc
    450d:	e8 2e a6 00 00       	call   eb40 <fibril_mutex_unlock@plt>
    4512:	c6 03 00             	movb   $0x0,(%ebx)
    4515:	8b 45 f4             	mov    -0xc(%ebp),%eax
    4518:	83 c4 10             	add    $0x10,%esp
    451b:	8b 5d fc             	mov    -0x4(%ebp),%ebx
    451e:	c9                   	leave  
    451f:	c3                   	ret    
    4520:	52                   	push   %edx
    4521:	68 2e 03 00 00       	push   $0x32e
    4526:	68 37 cb 00 00       	push   $0xcb37
    452b:	68 06 cc 00 00       	push   $0xcc06
    4530:	e8 5b a5 00 00       	call   ea90 <assert_abort@plt>
    4535:	8d 74 26 00          	lea    0x0(%esi,%eiz,1),%esi
    4539:	8d bc 27 00 00 00 00 	lea    0x0(%edi,%eiz,1),%edi

00004540 <ddf_fun_online>:
    4540:	55                   	push   %ebp
    4541:	89 e5                	mov    %esp,%ebp
    4543:	83 ec 08             	sub    $0x8,%esp
    4546:	8b 45 08             	mov    0x8(%ebp),%eax
    4549:	80 38 00             	cmpb   $0x0,(%eax)
    454c:	74 0c                	je     455a <ddf_fun_online+0x1a>
    454e:	8b 40 04             	mov    0x4(%eax),%eax
    4551:	89 45 08             	mov    %eax,0x8(%ebp)
    4554:	c9                   	leave  
    4555:	e9 16 a4 00 00       	jmp    e970 <devman_drv_fun_online@plt>
    455a:	50                   	push   %eax
    455b:	68 43 03 00 00       	push   $0x343
    4560:	68 37 cb 00 00       	push   $0xcb37
    4565:	68 06 cc 00 00       	push   $0xcc06
    456a:	e8 21 a5 00 00       	call   ea90 <assert_abort@plt>
    456f:	90                   	nop

00004570 <ddf_fun_offline>:
    4570:	55                   	push   %ebp
    4571:	89 e5                	mov    %esp,%ebp
    4573:	83 ec 08             	sub    $0x8,%esp
    4576:	8b 45 08             	mov    0x8(%ebp),%eax
    4579:	80 38 00             	cmpb   $0x0,(%eax)
    457c:	74 0c                	je     458a <ddf_fun_offline+0x1a>
    457e:	8b 40 04             	mov    0x4(%eax),%eax
    4581:	89 45 08             	mov    %eax,0x8(%ebp)
    4584:	c9                   	leave  
    4585:	e9 36 a6 00 00       	jmp    ebc0 <devman_drv_fun_offline@plt>
    458a:	50                   	push   %eax
    458b:	68 55 03 00 00       	push   $0x355
    4590:	68 37 cb 00 00       	push   $0xcb37
    4595:	68 06 cc 00 00       	push   $0xcc06
    459a:	e8 f1 a4 00 00       	call   ea90 <assert_abort@plt>
    459f:	90                   	nop

000045a0 <ddf_fun_add_match_id>:
    45a0:	55                   	push   %ebp
    45a1:	89 e5                	mov    %esp,%ebp
    45a3:	57                   	push   %edi
    45a4:	56                   	push   %esi
    45a5:	53                   	push   %ebx
    45a6:	83 ec 0c             	sub    $0xc,%esp
    45a9:	8b 5d 08             	mov    0x8(%ebp),%ebx
    45ac:	8b 75 10             	mov    0x10(%ebp),%esi
    45af:	80 3b 00             	cmpb   $0x0,(%ebx)
    45b2:	0f 85 89 00 00 00    	jne    4641 <ddf_fun_add_match_id+0xa1>
    45b8:	83 7b 10 01          	cmpl   $0x1,0x10(%ebx)
    45bc:	75 6e                	jne    462c <ddf_fun_add_match_id+0x8c>
    45be:	83 ec 0c             	sub    $0xc,%esp
    45c1:	6a 10                	push   $0x10
    45c3:	e8 e8 a3 00 00       	call   e9b0 <malloc@plt>
    45c8:	83 c4 0c             	add    $0xc,%esp
    45cb:	89 c7                	mov    %eax,%edi
    45cd:	6a 10                	push   $0x10
    45cf:	6a 00                	push   $0x0
    45d1:	50                   	push   %eax
    45d2:	e8 39 a6 00 00       	call   ec10 <memset@plt>
    45d7:	8b 55 0c             	mov    0xc(%ebp),%edx
    45da:	58                   	pop    %eax
    45db:	52                   	push   %edx
    45dc:	e8 7f a5 00 00       	call   eb60 <str_dup@plt>
    45e1:	8d 53 18             	lea    0x18(%ebx),%edx
    45e4:	89 47 08             	mov    %eax,0x8(%edi)
    45e7:	8b 43 1c             	mov    0x1c(%ebx),%eax
    45ea:	83 c4 10             	add    $0x10,%esp
    45ed:	89 77 0c             	mov    %esi,0xc(%edi)
    45f0:	39 c2                	cmp    %eax,%edx
    45f2:	74 18                	je     460c <ddf_fun_add_match_id+0x6c>
    45f4:	39 70 0c             	cmp    %esi,0xc(%eax)
    45f7:	73 0c                	jae    4605 <ddf_fun_add_match_id+0x65>
    45f9:	eb 2d                	jmp    4628 <ddf_fun_add_match_id+0x88>
    45fb:	90                   	nop
    45fc:	8d 74 26 00          	lea    0x0(%esi,%eiz,1),%esi
    4600:	3b 70 0c             	cmp    0xc(%eax),%esi
    4603:	77 23                	ja     4628 <ddf_fun_add_match_id+0x88>
    4605:	8b 40 04             	mov    0x4(%eax),%eax
    4608:	39 c2                	cmp    %eax,%edx
    460a:	75 f4                	jne    4600 <ddf_fun_add_match_id+0x60>
    460c:	8b 02                	mov    (%edx),%eax
    460e:	89 57 04             	mov    %edx,0x4(%edi)
    4611:	89 07                	mov    %eax,(%edi)
    4613:	8b 02                	mov    (%edx),%eax
    4615:	89 78 04             	mov    %edi,0x4(%eax)
    4618:	89 3a                	mov    %edi,(%edx)
    461a:	8d 65 f4             	lea    -0xc(%ebp),%esp
    461d:	31 c0                	xor    %eax,%eax
    461f:	5b                   	pop    %ebx
    4620:	5e                   	pop    %esi
    4621:	5f                   	pop    %edi
    4622:	5d                   	pop    %ebp
    4623:	c3                   	ret    
    4624:	8d 74 26 00          	lea    0x0(%esi,%eiz,1),%esi
    4628:	89 c2                	mov    %eax,%edx
    462a:	eb e0                	jmp    460c <ddf_fun_add_match_id+0x6c>
    462c:	51                   	push   %ecx
    462d:	68 6f 03 00 00       	push   $0x36f
    4632:	68 37 cb 00 00       	push   $0xcb37
    4637:	68 19 cc 00 00       	push   $0xcc19
    463c:	e8 4f a4 00 00       	call   ea90 <assert_abort@plt>
    4641:	53                   	push   %ebx
    4642:	68 6e 03 00 00       	push   $0x36e
    4647:	68 37 cb 00 00       	push   $0xcb37
    464c:	68 b6 cb 00 00       	push   $0xcbb6
    4651:	e8 3a a4 00 00       	call   ea90 <assert_abort@plt>
    4656:	8d 76 00             	lea    0x0(%esi),%esi
    4659:	8d bc 27 00 00 00 00 	lea    0x0(%edi,%eiz,1),%edi

00004660 <ddf_fun_set_ops>:
    4660:	55                   	push   %ebp
    4661:	89 e5                	mov    %esp,%ebp
    4663:	83 ec 08             	sub    $0x8,%esp
    4666:	8b 45 08             	mov    0x8(%ebp),%eax
    4669:	8b 48 28             	mov    0x28(%eax),%ecx
    466c:	85 c9                	test   %ecx,%ecx
    466e:	75 08                	jne    4678 <ddf_fun_set_ops+0x18>
    4670:	8b 55 0c             	mov    0xc(%ebp),%edx
    4673:	89 50 24             	mov    %edx,0x24(%eax)
    4676:	c9                   	leave  
    4677:	c3                   	ret    
    4678:	50                   	push   %eax
    4679:	68 7f 03 00 00       	push   $0x37f
    467e:	68 37 cb 00 00       	push   $0xcb37
    4683:	68 31 cc 00 00       	push   $0xcc31
    4688:	e8 03 a4 00 00       	call   ea90 <assert_abort@plt>
    468d:	8d 76 00             	lea    0x0(%esi),%esi

00004690 <ddf_fun_set_conn_handler>:
    4690:	55                   	push   %ebp
    4691:	89 e5                	mov    %esp,%ebp
    4693:	83 ec 08             	sub    $0x8,%esp
    4696:	8b 45 08             	mov    0x8(%ebp),%eax
    4699:	8b 48 24             	mov    0x24(%eax),%ecx
    469c:	85 c9                	test   %ecx,%ecx
    469e:	75 08                	jne    46a8 <ddf_fun_set_conn_handler+0x18>
    46a0:	8b 55 0c             	mov    0xc(%ebp),%edx
    46a3:	89 50 28             	mov    %edx,0x28(%eax)
    46a6:	c9                   	leave  
    46a7:	c3                   	ret    
    46a8:	50                   	push   %eax
    46a9:	68 89 03 00 00       	push   $0x389
    46ae:	68 37 cb 00 00       	push   $0xcb37
    46b3:	68 4b cc 00 00       	push   $0xcc4b
    46b8:	e8 d3 a3 00 00       	call   ea90 <assert_abort@plt>
    46bd:	8d 76 00             	lea    0x0(%esi),%esi

000046c0 <ddf_fun_add_to_category>:
    46c0:	55                   	push   %ebp
    46c1:	89 e5                	mov    %esp,%ebp
    46c3:	83 ec 08             	sub    $0x8,%esp
    46c6:	8b 45 08             	mov    0x8(%ebp),%eax
    46c9:	8b 55 0c             	mov    0xc(%ebp),%edx
    46cc:	80 38 00             	cmpb   $0x0,(%eax)
    46cf:	74 15                	je     46e6 <ddf_fun_add_to_category+0x26>
    46d1:	83 78 10 02          	cmpl   $0x2,0x10(%eax)
    46d5:	75 24                	jne    46fb <ddf_fun_add_to_category+0x3b>
    46d7:	89 55 0c             	mov    %edx,0xc(%ebp)
    46da:	8b 40 04             	mov    0x4(%eax),%eax
    46dd:	89 45 08             	mov    %eax,0x8(%ebp)
    46e0:	c9                   	leave  
    46e1:	e9 da a2 00 00       	jmp    e9c0 <devman_add_device_to_category@plt>
    46e6:	52                   	push   %edx
    46e7:	68 9c 03 00 00       	push   $0x39c
    46ec:	68 37 cb 00 00       	push   $0xcb37
    46f1:	68 06 cc 00 00       	push   $0xcc06
    46f6:	e8 95 a3 00 00       	call   ea90 <assert_abort@plt>
    46fb:	50                   	push   %eax
    46fc:	68 9d 03 00 00       	push   $0x39d
    4701:	68 37 cb 00 00       	push   $0xcb37
    4706:	68 5c cc 00 00       	push   $0xcc5c
    470b:	e8 80 a3 00 00       	call   ea90 <assert_abort@plt>

00004710 <ddf_driver_main>:
    4710:	55                   	push   %ebp
    4711:	89 e5                	mov    %esp,%ebp
    4713:	56                   	push   %esi
    4714:	53                   	push   %ebx
    4715:	83 ec 10             	sub    $0x10,%esp
    4718:	8d 75 f4             	lea    -0xc(%ebp),%esi
    471b:	8b 45 08             	mov    0x8(%ebp),%eax
    471e:	56                   	push   %esi
    471f:	a3 6c 0f 01 00       	mov    %eax,0x10f6c
    4724:	6a 00                	push   $0x0
    4726:	68 70 3a 00 00       	push   $0x3a70
    472b:	68 41 26 9b c9       	push   $0xc99b2641
    4730:	e8 fb a5 00 00       	call   ed30 <async_create_port@plt>
    4735:	83 c4 10             	add    $0x10,%esp
    4738:	89 c3                	mov    %eax,%ebx
    473a:	85 c0                	test   %eax,%eax
    473c:	74 0a                	je     4748 <ddf_driver_main+0x38>
    473e:	8d 65 f8             	lea    -0x8(%ebp),%esp
    4741:	89 d8                	mov    %ebx,%eax
    4743:	5b                   	pop    %ebx
    4744:	5e                   	pop    %esi
    4745:	5d                   	pop    %ebp
    4746:	c3                   	ret    
    4747:	90                   	nop
    4748:	56                   	push   %esi
    4749:	6a 00                	push   $0x0
    474b:	68 90 3a 00 00       	push   $0x3a90
    4750:	68 41 26 9b db       	push   $0xdb9b2641
    4755:	e8 d6 a5 00 00       	call   ed30 <async_create_port@plt>
    475a:	83 c4 10             	add    $0x10,%esp
    475d:	89 c3                	mov    %eax,%ebx
    475f:	85 c0                	test   %eax,%eax
    4761:	75 db                	jne    473e <ddf_driver_main+0x2e>
    4763:	51                   	push   %ecx
    4764:	51                   	push   %ecx
    4765:	6a 00                	push   $0x0
    4767:	68 80 3a 00 00       	push   $0x3a80
    476c:	e8 4f a6 00 00       	call   edc0 <async_set_fallback_port_handler@plt>
    4771:	a1 6c 0f 01 00       	mov    0x10f6c,%eax
    4776:	8b 30                	mov    (%eax),%esi
    4778:	5b                   	pop    %ebx
    4779:	56                   	push   %esi
    477a:	e8 81 a4 00 00       	call   ec00 <devman_driver_register@plt>
    477f:	83 c4 10             	add    $0x10,%esp
    4782:	89 c3                	mov    %eax,%ebx
    4784:	85 c0                	test   %eax,%eax
    4786:	74 30                	je     47b8 <ddf_driver_main+0xa8>
    4788:	b8 76 cc 00 00       	mov    $0xcc76,%eax
    478d:	83 fb f7             	cmp    $0xfffffff7,%ebx
    4790:	74 0c                	je     479e <ddf_driver_main+0x8e>
    4792:	83 ec 0c             	sub    $0xc,%esp
    4795:	53                   	push   %ebx
    4796:	e8 45 a5 00 00       	call   ece0 <str_error@plt>
    479b:	83 c4 10             	add    $0x10,%esp
    479e:	52                   	push   %edx
    479f:	52                   	push   %edx
    47a0:	50                   	push   %eax
    47a1:	68 04 ce 00 00       	push   $0xce04
    47a6:	e8 45 a1 00 00       	call   e8f0 <printf@plt>
    47ab:	83 c4 10             	add    $0x10,%esp
    47ae:	8d 65 f8             	lea    -0x8(%ebp),%esp
    47b1:	89 d8                	mov    %ebx,%eax
    47b3:	5b                   	pop    %ebx
    47b4:	5e                   	pop    %esi
    47b5:	5d                   	pop    %ebp
    47b6:	c3                   	ret    
    47b7:	90                   	nop
    47b8:	83 ec 0c             	sub    $0xc,%esp
    47bb:	6a 00                	push   $0x0
    47bd:	e8 fe a0 00 00       	call   e8c0 <task_retval@plt>
    47c2:	83 c4 10             	add    $0x10,%esp
    47c5:	89 c3                	mov    %eax,%ebx
    47c7:	85 c0                	test   %eax,%eax
    47c9:	0f 85 6f ff ff ff    	jne    473e <ddf_driver_main+0x2e>
    47cf:	83 c8 ff             	or     $0xffffffff,%eax
    47d2:	f0 0f c1 05 64 0f 01 	lock xadd %eax,0x10f64
    47d9:	00 
    47da:	48                   	dec    %eax
    47db:	78 12                	js     47ef <ddf_driver_main+0xdf>
    47dd:	83 ec 0c             	sub    $0xc,%esp
    47e0:	6a 03                	push   $0x3
    47e2:	e8 a9 a5 00 00       	call   ed90 <fibril_switch@plt>
    47e7:	83 c4 10             	add    $0x10,%esp
    47ea:	e9 4f ff ff ff       	jmp    473e <ddf_driver_main+0x2e>
    47ef:	50                   	push   %eax
    47f0:	6a 0b                	push   $0xb
    47f2:	6a 00                	push   $0x0
    47f4:	6a 00                	push   $0x0
    47f6:	6a 00                	push   $0x0
    47f8:	6a 00                	push   $0x0
    47fa:	6a 00                	push   $0x0
    47fc:	68 64 0f 01 00       	push   $0x10f64
    4801:	ff 15 60 0f 01 00    	call   *0x10f60
    4807:	83 c4 20             	add    $0x20,%esp
    480a:	eb d1                	jmp    47dd <ddf_driver_main+0xcd>
    480c:	66 90                	xchg   %ax,%ax
    480e:	66 90                	xchg   %ax,%ax

00004810 <get_remote_iface>:
    4810:	55                   	push   %ebp
    4811:	89 e5                	mov    %esp,%ebp
    4813:	83 ec 08             	sub    $0x8,%esp
    4816:	8b 45 08             	mov    0x8(%ebp),%eax
    4819:	83 f8 0e             	cmp    $0xe,%eax
    481c:	77 09                	ja     4827 <get_remote_iface+0x17>
    481e:	8b 04 85 80 ce 00 00 	mov    0xce80(,%eax,4),%eax
    4825:	c9                   	leave  
    4826:	c3                   	ret    
    4827:	50                   	push   %eax
    4828:	6a 4f                	push   $0x4f
    482a:	68 54 ce 00 00       	push   $0xce54
    482f:	68 48 cb 00 00       	push   $0xcb48
    4834:	e8 57 a2 00 00       	call   ea90 <assert_abort@plt>
    4839:	8d b4 26 00 00 00 00 	lea    0x0(%esi,%eiz,1),%esi

00004840 <get_remote_method>:
    4840:	55                   	push   %ebp
    4841:	89 e5                	mov    %esp,%ebp
    4843:	8b 55 08             	mov    0x8(%ebp),%edx
    4846:	8b 45 0c             	mov    0xc(%ebp),%eax
    4849:	39 02                	cmp    %eax,(%edx)
    484b:	76 0b                	jbe    4858 <get_remote_method+0x18>
    484d:	8b 52 04             	mov    0x4(%edx),%edx
    4850:	5d                   	pop    %ebp
    4851:	8b 04 82             	mov    (%edx,%eax,4),%eax
    4854:	c3                   	ret    
    4855:	8d 76 00             	lea    0x0(%esi),%esi
    4858:	31 c0                	xor    %eax,%eax
    485a:	5d                   	pop    %ebp
    485b:	c3                   	ret    
    485c:	8d 74 26 00          	lea    0x0(%esi,%eiz,1),%esi

00004860 <is_valid_iface_idx>:
    4860:	55                   	push   %ebp
    4861:	89 e5                	mov    %esp,%ebp
    4863:	83 7d 08 0e          	cmpl   $0xe,0x8(%ebp)
    4867:	5d                   	pop    %ebp
    4868:	0f 96 c0             	setbe  %al
    486b:	c3                   	ret    
    486c:	66 90                	xchg   %ax,%ax
    486e:	66 90                	xchg   %ax,%ax

00004870 <ddf_log_init>:
    4870:	55                   	push   %ebp
    4871:	89 e5                	mov    %esp,%ebp
    4873:	5d                   	pop    %ebp
    4874:	e9 c7 a0 00 00       	jmp    e940 <log_init@plt>
    4879:	8d b4 26 00 00 00 00 	lea    0x0(%esi,%eiz,1),%esi

00004880 <ddf_msg>:
    4880:	55                   	push   %ebp
    4881:	89 e5                	mov    %esp,%ebp
    4883:	83 ec 08             	sub    $0x8,%esp
    4886:	8d 45 10             	lea    0x10(%ebp),%eax
    4889:	8b 55 0c             	mov    0xc(%ebp),%edx
    488c:	8b 4d 08             	mov    0x8(%ebp),%ecx
    488f:	50                   	push   %eax
    4890:	52                   	push   %edx
    4891:	51                   	push   %ecx
    4892:	6a ff                	push   $0xffffffff
    4894:	e8 b7 a1 00 00       	call   ea50 <log_msgv@plt>
    4899:	83 c4 10             	add    $0x10,%esp
    489c:	c9                   	leave  
    489d:	c3                   	ret    
    489e:	66 90                	xchg   %ax,%ax

000048a0 <remote_audio_mixer_set_item_level>:
    48a0:	55                   	push   %ebp
    48a1:	89 e5                	mov    %esp,%ebp
    48a3:	53                   	push   %ebx
    48a4:	51                   	push   %ecx
    48a5:	8b 45 0c             	mov    0xc(%ebp),%eax
    48a8:	8b 4d 08             	mov    0x8(%ebp),%ecx
    48ab:	8b 5d 10             	mov    0x10(%ebp),%ebx
    48ae:	8b 55 14             	mov    0x14(%ebp),%edx
    48b1:	8b 40 0c             	mov    0xc(%eax),%eax
    48b4:	85 c0                	test   %eax,%eax
    48b6:	74 20                	je     48d8 <remote_audio_mixer_set_item_level+0x38>
    48b8:	83 ec 04             	sub    $0x4,%esp
    48bb:	ff 72 0c             	pushl  0xc(%edx)
    48be:	8b 52 08             	mov    0x8(%edx),%edx
    48c1:	52                   	push   %edx
    48c2:	51                   	push   %ecx
    48c3:	ff d0                	call   *%eax
    48c5:	89 5d 08             	mov    %ebx,0x8(%ebp)
    48c8:	83 c4 10             	add    $0x10,%esp
    48cb:	8b 5d fc             	mov    -0x4(%ebp),%ebx
    48ce:	89 45 0c             	mov    %eax,0xc(%ebp)
    48d1:	c9                   	leave  
    48d2:	e9 19 a1 00 00       	jmp    e9f0 <async_answer_0@plt>
    48d7:	90                   	nop
    48d8:	89 5d 08             	mov    %ebx,0x8(%ebp)
    48db:	8b 5d fc             	mov    -0x4(%ebp),%ebx
    48de:	c7 45 0c f5 ff ff ff 	movl   $0xfffffff5,0xc(%ebp)
    48e5:	c9                   	leave  
    48e6:	e9 05 a1 00 00       	jmp    e9f0 <async_answer_0@plt>
    48eb:	90                   	nop
    48ec:	8d 74 26 00          	lea    0x0(%esi,%eiz,1),%esi

000048f0 <remote_audio_mixer_get_item_level>:
    48f0:	55                   	push   %ebp
    48f1:	89 e5                	mov    %esp,%ebp
    48f3:	83 ec 18             	sub    $0x18,%esp
    48f6:	8b 45 0c             	mov    0xc(%ebp),%eax
    48f9:	8b 40 08             	mov    0x8(%eax),%eax
    48fc:	85 c0                	test   %eax,%eax
    48fe:	74 30                	je     4930 <remote_audio_mixer_get_item_level+0x40>
    4900:	8b 55 14             	mov    0x14(%ebp),%edx
    4903:	c7 45 f4 00 00 00 00 	movl   $0x0,-0xc(%ebp)
    490a:	8b 52 08             	mov    0x8(%edx),%edx
    490d:	51                   	push   %ecx
    490e:	8d 4d f4             	lea    -0xc(%ebp),%ecx
    4911:	51                   	push   %ecx
    4912:	52                   	push   %edx
    4913:	8b 55 08             	mov    0x8(%ebp),%edx
    4916:	52                   	push   %edx
    4917:	ff d0                	call   *%eax
    4919:	83 c4 0c             	add    $0xc,%esp
    491c:	8b 4d f4             	mov    -0xc(%ebp),%ecx
    491f:	51                   	push   %ecx
    4920:	50                   	push   %eax
    4921:	8b 45 10             	mov    0x10(%ebp),%eax
    4924:	50                   	push   %eax
    4925:	e8 96 a3 00 00       	call   ecc0 <async_answer_1@plt>
    492a:	83 c4 10             	add    $0x10,%esp
    492d:	c9                   	leave  
    492e:	c3                   	ret    
    492f:	90                   	nop
    4930:	50                   	push   %eax
    4931:	50                   	push   %eax
    4932:	8b 45 10             	mov    0x10(%ebp),%eax
    4935:	6a f5                	push   $0xfffffff5
    4937:	50                   	push   %eax
    4938:	e8 b3 a0 00 00       	call   e9f0 <async_answer_0@plt>
    493d:	83 c4 10             	add    $0x10,%esp
    4940:	c9                   	leave  
    4941:	c3                   	ret    
    4942:	8d b4 26 00 00 00 00 	lea    0x0(%esi,%eiz,1),%esi
    4949:	8d bc 27 00 00 00 00 	lea    0x0(%edi,%eiz,1),%edi

00004950 <remote_audio_mixer_get_item_info>:
    4950:	55                   	push   %ebp
    4951:	89 e5                	mov    %esp,%ebp
    4953:	56                   	push   %esi
    4954:	53                   	push   %ebx
    4955:	83 ec 10             	sub    $0x10,%esp
    4958:	8b 45 0c             	mov    0xc(%ebp),%eax
    495b:	8b 40 04             	mov    0x4(%eax),%eax
    495e:	85 c0                	test   %eax,%eax
    4960:	0f 84 c2 00 00 00    	je     4a28 <remote_audio_mixer_get_item_info+0xd8>
    4966:	8b 55 14             	mov    0x14(%ebp),%edx
    4969:	8d 4d ec             	lea    -0x14(%ebp),%ecx
    496c:	c7 45 e8 00 00 00 00 	movl   $0x0,-0x18(%ebp)
    4973:	c7 45 ec 00 00 00 00 	movl   $0x0,-0x14(%ebp)
    497a:	8b 52 08             	mov    0x8(%edx),%edx
    497d:	51                   	push   %ecx
    497e:	8d 4d e8             	lea    -0x18(%ebp),%ecx
    4981:	51                   	push   %ecx
    4982:	8b 4d 08             	mov    0x8(%ebp),%ecx
    4985:	52                   	push   %edx
    4986:	51                   	push   %ecx
    4987:	ff d0                	call   *%eax
    4989:	83 c4 10             	add    $0x10,%esp
    498c:	89 c6                	mov    %eax,%esi
    498e:	8b 45 e8             	mov    -0x18(%ebp),%eax
    4991:	85 c0                	test   %eax,%eax
    4993:	74 5b                	je     49f0 <remote_audio_mixer_get_item_info+0xa0>
    4995:	83 ec 0c             	sub    $0xc,%esp
    4998:	50                   	push   %eax
    4999:	e8 02 a3 00 00       	call   eca0 <str_size@plt>
    499e:	8b 55 10             	mov    0x10(%ebp),%edx
    49a1:	8d 58 01             	lea    0x1(%eax),%ebx
    49a4:	8b 45 ec             	mov    -0x14(%ebp),%eax
    49a7:	50                   	push   %eax
    49a8:	53                   	push   %ebx
    49a9:	56                   	push   %esi
    49aa:	52                   	push   %edx
    49ab:	e8 80 a1 00 00       	call   eb30 <async_answer_2@plt>
    49b0:	83 c4 20             	add    $0x20,%esp
    49b3:	85 f6                	test   %esi,%esi
    49b5:	75 2f                	jne    49e6 <remote_audio_mixer_get_item_info+0x96>
    49b7:	85 db                	test   %ebx,%ebx
    49b9:	74 2b                	je     49e6 <remote_audio_mixer_get_item_info+0x96>
    49bb:	50                   	push   %eax
    49bc:	50                   	push   %eax
    49bd:	8d 45 f0             	lea    -0x10(%ebp),%eax
    49c0:	50                   	push   %eax
    49c1:	8d 45 f4             	lea    -0xc(%ebp),%eax
    49c4:	50                   	push   %eax
    49c5:	e8 56 a2 00 00       	call   ec20 <async_data_read_receive@plt>
    49ca:	83 c4 10             	add    $0x10,%esp
    49cd:	84 c0                	test   %al,%al
    49cf:	74 6f                	je     4a40 <remote_audio_mixer_get_item_info+0xf0>
    49d1:	3b 5d f0             	cmp    -0x10(%ebp),%ebx
    49d4:	74 3a                	je     4a10 <remote_audio_mixer_get_item_info+0xc0>
    49d6:	50                   	push   %eax
    49d7:	50                   	push   %eax
    49d8:	8b 45 f4             	mov    -0xc(%ebp),%eax
    49db:	6a fd                	push   $0xfffffffd
    49dd:	50                   	push   %eax
    49de:	e8 0d a0 00 00       	call   e9f0 <async_answer_0@plt>
    49e3:	83 c4 10             	add    $0x10,%esp
    49e6:	8d 65 f8             	lea    -0x8(%ebp),%esp
    49e9:	5b                   	pop    %ebx
    49ea:	5e                   	pop    %esi
    49eb:	5d                   	pop    %ebp
    49ec:	c3                   	ret    
    49ed:	8d 76 00             	lea    0x0(%esi),%esi
    49f0:	8b 45 ec             	mov    -0x14(%ebp),%eax
    49f3:	8b 55 10             	mov    0x10(%ebp),%edx
    49f6:	50                   	push   %eax
    49f7:	6a 00                	push   $0x0
    49f9:	56                   	push   %esi
    49fa:	52                   	push   %edx
    49fb:	e8 30 a1 00 00       	call   eb30 <async_answer_2@plt>
    4a00:	83 c4 10             	add    $0x10,%esp
    4a03:	8d 65 f8             	lea    -0x8(%ebp),%esp
    4a06:	5b                   	pop    %ebx
    4a07:	5e                   	pop    %esi
    4a08:	5d                   	pop    %ebp
    4a09:	c3                   	ret    
    4a0a:	8d b6 00 00 00 00    	lea    0x0(%esi),%esi
    4a10:	8b 75 f4             	mov    -0xc(%ebp),%esi
    4a13:	51                   	push   %ecx
    4a14:	53                   	push   %ebx
    4a15:	8b 5d e8             	mov    -0x18(%ebp),%ebx
    4a18:	53                   	push   %ebx
    4a19:	56                   	push   %esi
    4a1a:	e8 61 9f 00 00       	call   e980 <async_data_read_finalize@plt>
    4a1f:	83 c4 10             	add    $0x10,%esp
    4a22:	eb c2                	jmp    49e6 <remote_audio_mixer_get_item_info+0x96>
    4a24:	8d 74 26 00          	lea    0x0(%esi,%eiz,1),%esi
    4a28:	8b 75 10             	mov    0x10(%ebp),%esi
    4a2b:	53                   	push   %ebx
    4a2c:	53                   	push   %ebx
    4a2d:	6a f5                	push   $0xfffffff5
    4a2f:	56                   	push   %esi
    4a30:	e8 bb 9f 00 00       	call   e9f0 <async_answer_0@plt>
    4a35:	83 c4 10             	add    $0x10,%esp
    4a38:	8d 65 f8             	lea    -0x8(%ebp),%esp
    4a3b:	5b                   	pop    %ebx
    4a3c:	5e                   	pop    %esi
    4a3d:	5d                   	pop    %ebp
    4a3e:	c3                   	ret    
    4a3f:	90                   	nop
    4a40:	50                   	push   %eax
    4a41:	50                   	push   %eax
    4a42:	8b 45 f4             	mov    -0xc(%ebp),%eax
    4a45:	6a f8                	push   $0xfffffff8
    4a47:	50                   	push   %eax
    4a48:	e8 a3 9f 00 00       	call   e9f0 <async_answer_0@plt>
    4a4d:	83 c4 10             	add    $0x10,%esp
    4a50:	eb 94                	jmp    49e6 <remote_audio_mixer_get_item_info+0x96>
    4a52:	8d b4 26 00 00 00 00 	lea    0x0(%esi,%eiz,1),%esi
    4a59:	8d bc 27 00 00 00 00 	lea    0x0(%edi,%eiz,1),%edi

00004a60 <remote_audio_mixer_get_info>:
    4a60:	55                   	push   %ebp
    4a61:	89 e5                	mov    %esp,%ebp
    4a63:	56                   	push   %esi
    4a64:	53                   	push   %ebx
    4a65:	83 ec 10             	sub    $0x10,%esp
    4a68:	8b 45 0c             	mov    0xc(%ebp),%eax
    4a6b:	8b 00                	mov    (%eax),%eax
    4a6d:	85 c0                	test   %eax,%eax
    4a6f:	0f 84 bb 00 00 00    	je     4b30 <remote_audio_mixer_get_info+0xd0>
    4a75:	8d 55 ec             	lea    -0x14(%ebp),%edx
    4a78:	8b 5d 08             	mov    0x8(%ebp),%ebx
    4a7b:	c7 45 e8 00 00 00 00 	movl   $0x0,-0x18(%ebp)
    4a82:	c7 45 ec 00 00 00 00 	movl   $0x0,-0x14(%ebp)
    4a89:	51                   	push   %ecx
    4a8a:	52                   	push   %edx
    4a8b:	8d 55 e8             	lea    -0x18(%ebp),%edx
    4a8e:	52                   	push   %edx
    4a8f:	53                   	push   %ebx
    4a90:	ff d0                	call   *%eax
    4a92:	83 c4 10             	add    $0x10,%esp
    4a95:	89 c6                	mov    %eax,%esi
    4a97:	8b 45 e8             	mov    -0x18(%ebp),%eax
    4a9a:	85 c0                	test   %eax,%eax
    4a9c:	74 5a                	je     4af8 <remote_audio_mixer_get_info+0x98>
    4a9e:	83 ec 0c             	sub    $0xc,%esp
    4aa1:	50                   	push   %eax
    4aa2:	e8 f9 a1 00 00       	call   eca0 <str_size@plt>
    4aa7:	8b 55 10             	mov    0x10(%ebp),%edx
    4aaa:	8d 58 01             	lea    0x1(%eax),%ebx
    4aad:	8b 45 ec             	mov    -0x14(%ebp),%eax
    4ab0:	50                   	push   %eax
    4ab1:	53                   	push   %ebx
    4ab2:	56                   	push   %esi
    4ab3:	52                   	push   %edx
    4ab4:	e8 77 a0 00 00       	call   eb30 <async_answer_2@plt>
    4ab9:	83 c4 20             	add    $0x20,%esp
    4abc:	85 f6                	test   %esi,%esi
    4abe:	75 2f                	jne    4aef <remote_audio_mixer_get_info+0x8f>
    4ac0:	85 db                	test   %ebx,%ebx
    4ac2:	74 2b                	je     4aef <remote_audio_mixer_get_info+0x8f>
    4ac4:	50                   	push   %eax
    4ac5:	50                   	push   %eax
    4ac6:	8d 45 f0             	lea    -0x10(%ebp),%eax
    4ac9:	50                   	push   %eax
    4aca:	8d 45 f4             	lea    -0xc(%ebp),%eax
    4acd:	50                   	push   %eax
    4ace:	e8 4d a1 00 00       	call   ec20 <async_data_read_receive@plt>
    4ad3:	83 c4 10             	add    $0x10,%esp
    4ad6:	84 c0                	test   %al,%al
    4ad8:	74 6e                	je     4b48 <remote_audio_mixer_get_info+0xe8>
    4ada:	3b 5d f0             	cmp    -0x10(%ebp),%ebx
    4add:	74 39                	je     4b18 <remote_audio_mixer_get_info+0xb8>
    4adf:	50                   	push   %eax
    4ae0:	50                   	push   %eax
    4ae1:	8b 45 f4             	mov    -0xc(%ebp),%eax
    4ae4:	6a fd                	push   $0xfffffffd
    4ae6:	50                   	push   %eax
    4ae7:	e8 04 9f 00 00       	call   e9f0 <async_answer_0@plt>
    4aec:	83 c4 10             	add    $0x10,%esp
    4aef:	8d 65 f8             	lea    -0x8(%ebp),%esp
    4af2:	5b                   	pop    %ebx
    4af3:	5e                   	pop    %esi
    4af4:	5d                   	pop    %ebp
    4af5:	c3                   	ret    
    4af6:	66 90                	xchg   %ax,%ax
    4af8:	8b 45 ec             	mov    -0x14(%ebp),%eax
    4afb:	8b 55 10             	mov    0x10(%ebp),%edx
    4afe:	50                   	push   %eax
    4aff:	6a 00                	push   $0x0
    4b01:	56                   	push   %esi
    4b02:	52                   	push   %edx
    4b03:	e8 28 a0 00 00       	call   eb30 <async_answer_2@plt>
    4b08:	83 c4 10             	add    $0x10,%esp
    4b0b:	8d 65 f8             	lea    -0x8(%ebp),%esp
    4b0e:	5b                   	pop    %ebx
    4b0f:	5e                   	pop    %esi
    4b10:	5d                   	pop    %ebp
    4b11:	c3                   	ret    
    4b12:	8d b6 00 00 00 00    	lea    0x0(%esi),%esi
    4b18:	8b 75 f4             	mov    -0xc(%ebp),%esi
    4b1b:	51                   	push   %ecx
    4b1c:	53                   	push   %ebx
    4b1d:	8b 5d e8             	mov    -0x18(%ebp),%ebx
    4b20:	53                   	push   %ebx
    4b21:	56                   	push   %esi
    4b22:	e8 59 9e 00 00       	call   e980 <async_data_read_finalize@plt>
    4b27:	83 c4 10             	add    $0x10,%esp
    4b2a:	eb c3                	jmp    4aef <remote_audio_mixer_get_info+0x8f>
    4b2c:	8d 74 26 00          	lea    0x0(%esi,%eiz,1),%esi
    4b30:	8b 45 10             	mov    0x10(%ebp),%eax
    4b33:	56                   	push   %esi
    4b34:	56                   	push   %esi
    4b35:	6a f5                	push   $0xfffffff5
    4b37:	50                   	push   %eax
    4b38:	e8 b3 9e 00 00       	call   e9f0 <async_answer_0@plt>
    4b3d:	83 c4 10             	add    $0x10,%esp
    4b40:	8d 65 f8             	lea    -0x8(%ebp),%esp
    4b43:	5b                   	pop    %ebx
    4b44:	5e                   	pop    %esi
    4b45:	5d                   	pop    %ebp
    4b46:	c3                   	ret    
    4b47:	90                   	nop
    4b48:	50                   	push   %eax
    4b49:	50                   	push   %eax
    4b4a:	8b 45 f4             	mov    -0xc(%ebp),%eax
    4b4d:	6a f8                	push   $0xfffffff8
    4b4f:	50                   	push   %eax
    4b50:	e8 9b 9e 00 00       	call   e9f0 <async_answer_0@plt>
    4b55:	83 c4 10             	add    $0x10,%esp
    4b58:	eb 95                	jmp    4aef <remote_audio_mixer_get_info+0x8f>
    4b5a:	8d b6 00 00 00 00    	lea    0x0(%esi),%esi

00004b60 <audio_mixer_get_info>:
    4b60:	55                   	push   %ebp
    4b61:	89 e5                	mov    %esp,%ebp
    4b63:	57                   	push   %edi
    4b64:	56                   	push   %esi
    4b65:	53                   	push   %ebx
    4b66:	83 ec 2c             	sub    $0x2c,%esp
    4b69:	8b 75 08             	mov    0x8(%ebp),%esi
    4b6c:	85 f6                	test   %esi,%esi
    4b6e:	0f 84 bc 00 00 00    	je     4c30 <audio_mixer_get_info+0xd0>
    4b74:	50                   	push   %eax
    4b75:	8d 45 e4             	lea    -0x1c(%ebp),%eax
    4b78:	6a 00                	push   $0x0
    4b7a:	6a 00                	push   $0x0
    4b7c:	6a 00                	push   $0x0
    4b7e:	50                   	push   %eax
    4b7f:	8d 45 e0             	lea    -0x20(%ebp),%eax
    4b82:	50                   	push   %eax
    4b83:	6a 00                	push   $0x0
    4b85:	6a 00                	push   $0x0
    4b87:	6a 00                	push   $0x0
    4b89:	6a 00                	push   $0x0
    4b8b:	68 03 04 00 00       	push   $0x403
    4b90:	56                   	push   %esi
    4b91:	e8 4a 9e 00 00       	call   e9e0 <async_req_fast@plt>
    4b96:	83 c4 30             	add    $0x30,%esp
    4b99:	89 c3                	mov    %eax,%ebx
    4b9b:	85 c0                	test   %eax,%eax
    4b9d:	8b 45 0c             	mov    0xc(%ebp),%eax
    4ba0:	0f 94 c2             	sete   %dl
    4ba3:	85 c0                	test   %eax,%eax
    4ba5:	74 04                	je     4bab <audio_mixer_get_info+0x4b>
    4ba7:	84 d2                	test   %dl,%dl
    4ba9:	75 1d                	jne    4bc8 <audio_mixer_get_info+0x68>
    4bab:	8b 45 10             	mov    0x10(%ebp),%eax
    4bae:	85 c0                	test   %eax,%eax
    4bb0:	74 57                	je     4c09 <audio_mixer_get_info+0xa9>
    4bb2:	84 d2                	test   %dl,%dl
    4bb4:	74 53                	je     4c09 <audio_mixer_get_info+0xa9>
    4bb6:	8b 4d 10             	mov    0x10(%ebp),%ecx
    4bb9:	8b 45 e4             	mov    -0x1c(%ebp),%eax
    4bbc:	89 01                	mov    %eax,(%ecx)
    4bbe:	89 d8                	mov    %ebx,%eax
    4bc0:	8d 65 f4             	lea    -0xc(%ebp),%esp
    4bc3:	5b                   	pop    %ebx
    4bc4:	5e                   	pop    %esi
    4bc5:	5f                   	pop    %edi
    4bc6:	5d                   	pop    %ebp
    4bc7:	c3                   	ret    
    4bc8:	8b 45 e0             	mov    -0x20(%ebp),%eax
    4bcb:	88 55 d4             	mov    %dl,-0x2c(%ebp)
    4bce:	57                   	push   %edi
    4bcf:	57                   	push   %edi
    4bd0:	50                   	push   %eax
    4bd1:	6a 01                	push   $0x1
    4bd3:	e8 d8 9e 00 00       	call   eab0 <calloc@plt>
    4bd8:	83 c4 10             	add    $0x10,%esp
    4bdb:	89 c7                	mov    %eax,%edi
    4bdd:	85 c0                	test   %eax,%eax
    4bdf:	8a 55 d4             	mov    -0x2c(%ebp),%dl
    4be2:	74 53                	je     4c37 <audio_mixer_get_info+0xd7>
    4be4:	8b 4d e0             	mov    -0x20(%ebp),%ecx
    4be7:	88 55 d4             	mov    %dl,-0x2c(%ebp)
    4bea:	52                   	push   %edx
    4beb:	51                   	push   %ecx
    4bec:	50                   	push   %eax
    4bed:	56                   	push   %esi
    4bee:	e8 3d a0 00 00       	call   ec30 <async_data_read_start@plt>
    4bf3:	83 c4 10             	add    $0x10,%esp
    4bf6:	8a 55 d4             	mov    -0x2c(%ebp),%dl
    4bf9:	85 c0                	test   %eax,%eax
    4bfb:	75 1b                	jne    4c18 <audio_mixer_get_info+0xb8>
    4bfd:	8b 45 0c             	mov    0xc(%ebp),%eax
    4c00:	89 38                	mov    %edi,(%eax)
    4c02:	8b 45 10             	mov    0x10(%ebp),%eax
    4c05:	85 c0                	test   %eax,%eax
    4c07:	75 a9                	jne    4bb2 <audio_mixer_get_info+0x52>
    4c09:	8d 65 f4             	lea    -0xc(%ebp),%esp
    4c0c:	89 d8                	mov    %ebx,%eax
    4c0e:	5b                   	pop    %ebx
    4c0f:	5e                   	pop    %esi
    4c10:	5f                   	pop    %edi
    4c11:	5d                   	pop    %ebp
    4c12:	c3                   	ret    
    4c13:	90                   	nop
    4c14:	8d 74 26 00          	lea    0x0(%esi,%eiz,1),%esi
    4c18:	83 ec 0c             	sub    $0xc,%esp
    4c1b:	89 45 d4             	mov    %eax,-0x2c(%ebp)
    4c1e:	57                   	push   %edi
    4c1f:	e8 bc a1 00 00       	call   ede0 <free@plt>
    4c24:	83 c4 10             	add    $0x10,%esp
    4c27:	8b 45 d4             	mov    -0x2c(%ebp),%eax
    4c2a:	eb 94                	jmp    4bc0 <audio_mixer_get_info+0x60>
    4c2c:	8d 74 26 00          	lea    0x0(%esi,%eiz,1),%esi
    4c30:	b8 f2 ff ff ff       	mov    $0xfffffff2,%eax
    4c35:	eb 89                	jmp    4bc0 <audio_mixer_get_info+0x60>
    4c37:	53                   	push   %ebx
    4c38:	6a 00                	push   $0x0
    4c3a:	6a ff                	push   $0xffffffff
    4c3c:	56                   	push   %esi
    4c3d:	e8 ee 9f 00 00       	call   ec30 <async_data_read_start@plt>
    4c42:	83 c4 10             	add    $0x10,%esp
    4c45:	b8 fe ff ff ff       	mov    $0xfffffffe,%eax
    4c4a:	e9 71 ff ff ff       	jmp    4bc0 <audio_mixer_get_info+0x60>
    4c4f:	90                   	nop

00004c50 <audio_mixer_get_item_info>:
    4c50:	55                   	push   %ebp
    4c51:	89 e5                	mov    %esp,%ebp
    4c53:	57                   	push   %edi
    4c54:	56                   	push   %esi
    4c55:	53                   	push   %ebx
    4c56:	83 ec 2c             	sub    $0x2c,%esp
    4c59:	8b 75 08             	mov    0x8(%ebp),%esi
    4c5c:	85 f6                	test   %esi,%esi
    4c5e:	0f 84 c4 00 00 00    	je     4d28 <audio_mixer_get_item_info+0xd8>
    4c64:	50                   	push   %eax
    4c65:	8d 45 e4             	lea    -0x1c(%ebp),%eax
    4c68:	6a 00                	push   $0x0
    4c6a:	6a 00                	push   $0x0
    4c6c:	6a 00                	push   $0x0
    4c6e:	50                   	push   %eax
    4c6f:	8d 45 e0             	lea    -0x20(%ebp),%eax
    4c72:	50                   	push   %eax
    4c73:	8b 45 0c             	mov    0xc(%ebp),%eax
    4c76:	6a 00                	push   $0x0
    4c78:	6a 00                	push   $0x0
    4c7a:	50                   	push   %eax
    4c7b:	6a 01                	push   $0x1
    4c7d:	68 03 04 00 00       	push   $0x403
    4c82:	56                   	push   %esi
    4c83:	e8 58 9d 00 00       	call   e9e0 <async_req_fast@plt>
    4c88:	83 c4 30             	add    $0x30,%esp
    4c8b:	89 c3                	mov    %eax,%ebx
    4c8d:	85 c0                	test   %eax,%eax
    4c8f:	8b 45 10             	mov    0x10(%ebp),%eax
    4c92:	0f 94 c2             	sete   %dl
    4c95:	85 c0                	test   %eax,%eax
    4c97:	74 04                	je     4c9d <audio_mixer_get_item_info+0x4d>
    4c99:	84 d2                	test   %dl,%dl
    4c9b:	75 23                	jne    4cc0 <audio_mixer_get_item_info+0x70>
    4c9d:	8b 45 14             	mov    0x14(%ebp),%eax
    4ca0:	85 c0                	test   %eax,%eax
    4ca2:	74 5d                	je     4d01 <audio_mixer_get_item_info+0xb1>
    4ca4:	84 d2                	test   %dl,%dl
    4ca6:	74 59                	je     4d01 <audio_mixer_get_item_info+0xb1>
    4ca8:	8b 4d 14             	mov    0x14(%ebp),%ecx
    4cab:	8b 45 e4             	mov    -0x1c(%ebp),%eax
    4cae:	89 01                	mov    %eax,(%ecx)
    4cb0:	89 d8                	mov    %ebx,%eax
    4cb2:	8d 65 f4             	lea    -0xc(%ebp),%esp
    4cb5:	5b                   	pop    %ebx
    4cb6:	5e                   	pop    %esi
    4cb7:	5f                   	pop    %edi
    4cb8:	5d                   	pop    %ebp
    4cb9:	c3                   	ret    
    4cba:	8d b6 00 00 00 00    	lea    0x0(%esi),%esi
    4cc0:	8b 45 e0             	mov    -0x20(%ebp),%eax
    4cc3:	88 55 d4             	mov    %dl,-0x2c(%ebp)
    4cc6:	57                   	push   %edi
    4cc7:	57                   	push   %edi
    4cc8:	50                   	push   %eax
    4cc9:	6a 01                	push   $0x1
    4ccb:	e8 e0 9d 00 00       	call   eab0 <calloc@plt>
    4cd0:	83 c4 10             	add    $0x10,%esp
    4cd3:	89 c7                	mov    %eax,%edi
    4cd5:	85 c0                	test   %eax,%eax
    4cd7:	8a 55 d4             	mov    -0x2c(%ebp),%dl
    4cda:	74 53                	je     4d2f <audio_mixer_get_item_info+0xdf>
    4cdc:	8b 4d e0             	mov    -0x20(%ebp),%ecx
    4cdf:	88 55 d4             	mov    %dl,-0x2c(%ebp)
    4ce2:	52                   	push   %edx
    4ce3:	51                   	push   %ecx
    4ce4:	50                   	push   %eax
    4ce5:	56                   	push   %esi
    4ce6:	e8 45 9f 00 00       	call   ec30 <async_data_read_start@plt>
    4ceb:	83 c4 10             	add    $0x10,%esp
    4cee:	8a 55 d4             	mov    -0x2c(%ebp),%dl
    4cf1:	85 c0                	test   %eax,%eax
    4cf3:	75 1b                	jne    4d10 <audio_mixer_get_item_info+0xc0>
    4cf5:	8b 45 10             	mov    0x10(%ebp),%eax
    4cf8:	89 38                	mov    %edi,(%eax)
    4cfa:	8b 45 14             	mov    0x14(%ebp),%eax
    4cfd:	85 c0                	test   %eax,%eax
    4cff:	75 a3                	jne    4ca4 <audio_mixer_get_item_info+0x54>
    4d01:	8d 65 f4             	lea    -0xc(%ebp),%esp
    4d04:	89 d8                	mov    %ebx,%eax
    4d06:	5b                   	pop    %ebx
    4d07:	5e                   	pop    %esi
    4d08:	5f                   	pop    %edi
    4d09:	5d                   	pop    %ebp
    4d0a:	c3                   	ret    
    4d0b:	90                   	nop
    4d0c:	8d 74 26 00          	lea    0x0(%esi,%eiz,1),%esi
    4d10:	83 ec 0c             	sub    $0xc,%esp
    4d13:	89 45 d4             	mov    %eax,-0x2c(%ebp)
    4d16:	57                   	push   %edi
    4d17:	e8 c4 a0 00 00       	call   ede0 <free@plt>
    4d1c:	83 c4 10             	add    $0x10,%esp
    4d1f:	8b 45 d4             	mov    -0x2c(%ebp),%eax
    4d22:	eb 8e                	jmp    4cb2 <audio_mixer_get_item_info+0x62>
    4d24:	8d 74 26 00          	lea    0x0(%esi,%eiz,1),%esi
    4d28:	b8 f2 ff ff ff       	mov    $0xfffffff2,%eax
    4d2d:	eb 83                	jmp    4cb2 <audio_mixer_get_item_info+0x62>
    4d2f:	53                   	push   %ebx
    4d30:	6a 00                	push   $0x0
    4d32:	6a ff                	push   $0xffffffff
    4d34:	56                   	push   %esi
    4d35:	e8 f6 9e 00 00       	call   ec30 <async_data_read_start@plt>
    4d3a:	83 c4 10             	add    $0x10,%esp
    4d3d:	b8 fe ff ff ff       	mov    $0xfffffffe,%eax
    4d42:	e9 6b ff ff ff       	jmp    4cb2 <audio_mixer_get_item_info+0x62>
    4d47:	89 f6                	mov    %esi,%esi
    4d49:	8d bc 27 00 00 00 00 	lea    0x0(%edi,%eiz,1),%edi

00004d50 <audio_mixer_set_item_level>:
    4d50:	55                   	push   %ebp
    4d51:	89 e5                	mov    %esp,%ebp
    4d53:	83 ec 08             	sub    $0x8,%esp
    4d56:	8b 45 08             	mov    0x8(%ebp),%eax
    4d59:	85 c0                	test   %eax,%eax
    4d5b:	74 2b                	je     4d88 <audio_mixer_set_item_level+0x38>
    4d5d:	8b 4d 10             	mov    0x10(%ebp),%ecx
    4d60:	52                   	push   %edx
    4d61:	8b 55 0c             	mov    0xc(%ebp),%edx
    4d64:	6a 00                	push   $0x0
    4d66:	6a 00                	push   $0x0
    4d68:	6a 00                	push   $0x0
    4d6a:	6a 00                	push   $0x0
    4d6c:	6a 00                	push   $0x0
    4d6e:	6a 00                	push   $0x0
    4d70:	51                   	push   %ecx
    4d71:	52                   	push   %edx
    4d72:	6a 02                	push   $0x2
    4d74:	68 03 04 00 00       	push   $0x403
    4d79:	50                   	push   %eax
    4d7a:	e8 61 9c 00 00       	call   e9e0 <async_req_fast@plt>
    4d7f:	83 c4 30             	add    $0x30,%esp
    4d82:	c9                   	leave  
    4d83:	c3                   	ret    
    4d84:	8d 74 26 00          	lea    0x0(%esi,%eiz,1),%esi
    4d88:	b8 f2 ff ff ff       	mov    $0xfffffff2,%eax
    4d8d:	c9                   	leave  
    4d8e:	c3                   	ret    
    4d8f:	90                   	nop

00004d90 <audio_mixer_get_item_level>:
    4d90:	55                   	push   %ebp
    4d91:	89 e5                	mov    %esp,%ebp
    4d93:	53                   	push   %ebx
    4d94:	83 ec 14             	sub    $0x14,%esp
    4d97:	8b 45 08             	mov    0x8(%ebp),%eax
    4d9a:	8b 5d 10             	mov    0x10(%ebp),%ebx
    4d9d:	85 c0                	test   %eax,%eax
    4d9f:	74 37                	je     4dd8 <audio_mixer_get_item_level+0x48>
    4da1:	8b 4d 0c             	mov    0xc(%ebp),%ecx
    4da4:	52                   	push   %edx
    4da5:	8d 55 f4             	lea    -0xc(%ebp),%edx
    4da8:	6a 00                	push   $0x0
    4daa:	6a 00                	push   $0x0
    4dac:	6a 00                	push   $0x0
    4dae:	6a 00                	push   $0x0
    4db0:	52                   	push   %edx
    4db1:	6a 00                	push   $0x0
    4db3:	6a 00                	push   $0x0
    4db5:	51                   	push   %ecx
    4db6:	6a 03                	push   $0x3
    4db8:	68 03 04 00 00       	push   $0x403
    4dbd:	50                   	push   %eax
    4dbe:	e8 1d 9c 00 00       	call   e9e0 <async_req_fast@plt>
    4dc3:	83 c4 30             	add    $0x30,%esp
    4dc6:	85 c0                	test   %eax,%eax
    4dc8:	75 09                	jne    4dd3 <audio_mixer_get_item_level+0x43>
    4dca:	85 db                	test   %ebx,%ebx
    4dcc:	74 05                	je     4dd3 <audio_mixer_get_item_level+0x43>
    4dce:	8b 55 f4             	mov    -0xc(%ebp),%edx
    4dd1:	89 13                	mov    %edx,(%ebx)
    4dd3:	8b 5d fc             	mov    -0x4(%ebp),%ebx
    4dd6:	c9                   	leave  
    4dd7:	c3                   	ret    
    4dd8:	b8 f2 ff ff ff       	mov    $0xfffffff2,%eax
    4ddd:	eb f4                	jmp    4dd3 <audio_mixer_get_item_level+0x43>
    4ddf:	90                   	nop

00004de0 <remote_audio_pcm_stop_capture>:
    4de0:	55                   	push   %ebp
    4de1:	89 e5                	mov    %esp,%ebp
    4de3:	53                   	push   %ebx
    4de4:	50                   	push   %eax
    4de5:	8b 45 14             	mov    0x14(%ebp),%eax
    4de8:	8b 4d 08             	mov    0x8(%ebp),%ecx
    4deb:	8b 5d 10             	mov    0x10(%ebp),%ebx
    4dee:	8b 50 08             	mov    0x8(%eax),%edx
    4df1:	85 d2                	test   %edx,%edx
    4df3:	8b 55 0c             	mov    0xc(%ebp),%edx
    4df6:	0f 95 c0             	setne  %al
    4df9:	8b 52 2c             	mov    0x2c(%edx),%edx
    4dfc:	85 d2                	test   %edx,%edx
    4dfe:	74 20                	je     4e20 <remote_audio_pcm_stop_capture+0x40>
    4e00:	83 ec 08             	sub    $0x8,%esp
    4e03:	25 ff 00 00 00       	and    $0xff,%eax
    4e08:	50                   	push   %eax
    4e09:	51                   	push   %ecx
    4e0a:	ff d2                	call   *%edx
    4e0c:	89 5d 08             	mov    %ebx,0x8(%ebp)
    4e0f:	83 c4 10             	add    $0x10,%esp
    4e12:	8b 5d fc             	mov    -0x4(%ebp),%ebx
    4e15:	89 45 0c             	mov    %eax,0xc(%ebp)
    4e18:	c9                   	leave  
    4e19:	e9 d2 9b 00 00       	jmp    e9f0 <async_answer_0@plt>
    4e1e:	66 90                	xchg   %ax,%ax
    4e20:	89 5d 08             	mov    %ebx,0x8(%ebp)
    4e23:	b8 f5 ff ff ff       	mov    $0xfffffff5,%eax
    4e28:	8b 5d fc             	mov    -0x4(%ebp),%ebx
    4e2b:	89 45 0c             	mov    %eax,0xc(%ebp)
    4e2e:	c9                   	leave  
    4e2f:	e9 bc 9b 00 00       	jmp    e9f0 <async_answer_0@plt>
    4e34:	8d b6 00 00 00 00    	lea    0x0(%esi),%esi
    4e3a:	8d bf 00 00 00 00    	lea    0x0(%edi),%edi

00004e40 <remote_audio_pcm_start_capture>:
    4e40:	55                   	push   %ebp
    4e41:	89 e5                	mov    %esp,%ebp
    4e43:	57                   	push   %edi
    4e44:	56                   	push   %esi
    4e45:	53                   	push   %ebx
    4e46:	83 ec 0c             	sub    $0xc,%esp
    4e49:	8b 55 14             	mov    0x14(%ebp),%edx
    4e4c:	8b 7d 0c             	mov    0xc(%ebp),%edi
    4e4f:	8b 4d 08             	mov    0x8(%ebp),%ecx
    4e52:	8b 5d 10             	mov    0x10(%ebp),%ebx
    4e55:	8b 42 10             	mov    0x10(%edx),%eax
    4e58:	8b 7f 28             	mov    0x28(%edi),%edi
    4e5b:	89 c6                	mov    %eax,%esi
    4e5d:	25 ff ff 00 00       	and    $0xffff,%eax
    4e62:	c1 ee 10             	shr    $0x10,%esi
    4e65:	85 ff                	test   %edi,%edi
    4e67:	74 27                	je     4e90 <remote_audio_pcm_start_capture+0x50>
    4e69:	83 ec 0c             	sub    $0xc,%esp
    4e6c:	50                   	push   %eax
    4e6d:	8b 42 0c             	mov    0xc(%edx),%eax
    4e70:	50                   	push   %eax
    4e71:	56                   	push   %esi
    4e72:	8b 52 08             	mov    0x8(%edx),%edx
    4e75:	52                   	push   %edx
    4e76:	51                   	push   %ecx
    4e77:	ff d7                	call   *%edi
    4e79:	83 c4 20             	add    $0x20,%esp
    4e7c:	89 5d 08             	mov    %ebx,0x8(%ebp)
    4e7f:	89 45 0c             	mov    %eax,0xc(%ebp)
    4e82:	8d 65 f4             	lea    -0xc(%ebp),%esp
    4e85:	5b                   	pop    %ebx
    4e86:	5e                   	pop    %esi
    4e87:	5f                   	pop    %edi
    4e88:	5d                   	pop    %ebp
    4e89:	e9 62 9b 00 00       	jmp    e9f0 <async_answer_0@plt>
    4e8e:	66 90                	xchg   %ax,%ax
    4e90:	b8 f5 ff ff ff       	mov    $0xfffffff5,%eax
    4e95:	eb e5                	jmp    4e7c <remote_audio_pcm_start_capture+0x3c>
    4e97:	89 f6                	mov    %esi,%esi
    4e99:	8d bc 27 00 00 00 00 	lea    0x0(%edi,%eiz,1),%edi

00004ea0 <remote_audio_pcm_stop_playback>:
    4ea0:	55                   	push   %ebp
    4ea1:	89 e5                	mov    %esp,%ebp
    4ea3:	53                   	push   %ebx
    4ea4:	50                   	push   %eax
    4ea5:	8b 45 14             	mov    0x14(%ebp),%eax
    4ea8:	8b 4d 08             	mov    0x8(%ebp),%ecx
    4eab:	8b 5d 10             	mov    0x10(%ebp),%ebx
    4eae:	8b 50 08             	mov    0x8(%eax),%edx
    4eb1:	85 d2                	test   %edx,%edx
    4eb3:	8b 55 0c             	mov    0xc(%ebp),%edx
    4eb6:	0f 95 c0             	setne  %al
    4eb9:	8b 52 24             	mov    0x24(%edx),%edx
    4ebc:	85 d2                	test   %edx,%edx
    4ebe:	74 20                	je     4ee0 <remote_audio_pcm_stop_playback+0x40>
    4ec0:	83 ec 08             	sub    $0x8,%esp
    4ec3:	25 ff 00 00 00       	and    $0xff,%eax
    4ec8:	50                   	push   %eax
    4ec9:	51                   	push   %ecx
    4eca:	ff d2                	call   *%edx
    4ecc:	89 5d 08             	mov    %ebx,0x8(%ebp)
    4ecf:	83 c4 10             	add    $0x10,%esp
    4ed2:	8b 5d fc             	mov    -0x4(%ebp),%ebx
    4ed5:	89 45 0c             	mov    %eax,0xc(%ebp)
    4ed8:	c9                   	leave  
    4ed9:	e9 12 9b 00 00       	jmp    e9f0 <async_answer_0@plt>
    4ede:	66 90                	xchg   %ax,%ax
    4ee0:	89 5d 08             	mov    %ebx,0x8(%ebp)
    4ee3:	b8 f5 ff ff ff       	mov    $0xfffffff5,%eax
    4ee8:	8b 5d fc             	mov    -0x4(%ebp),%ebx
    4eeb:	89 45 0c             	mov    %eax,0xc(%ebp)
    4eee:	c9                   	leave  
    4eef:	e9 fc 9a 00 00       	jmp    e9f0 <async_answer_0@plt>
    4ef4:	8d b6 00 00 00 00    	lea    0x0(%esi),%esi
    4efa:	8d bf 00 00 00 00    	lea    0x0(%edi),%edi

00004f00 <remote_audio_pcm_start_playback>:
    4f00:	55                   	push   %ebp
    4f01:	89 e5                	mov    %esp,%ebp
    4f03:	57                   	push   %edi
    4f04:	56                   	push   %esi
    4f05:	53                   	push   %ebx
    4f06:	83 ec 0c             	sub    $0xc,%esp
    4f09:	8b 4d 14             	mov    0x14(%ebp),%ecx
    4f0c:	8b 7d 0c             	mov    0xc(%ebp),%edi
    4f0f:	8b 75 08             	mov    0x8(%ebp),%esi
    4f12:	8b 5d 10             	mov    0x10(%ebp),%ebx
    4f15:	8b 41 10             	mov    0x10(%ecx),%eax
    4f18:	8b 7f 20             	mov    0x20(%edi),%edi
    4f1b:	89 c2                	mov    %eax,%edx
    4f1d:	25 ff ff 00 00       	and    $0xffff,%eax
    4f22:	c1 ea 10             	shr    $0x10,%edx
    4f25:	81 e2 ff 00 00 00    	and    $0xff,%edx
    4f2b:	85 ff                	test   %edi,%edi
    4f2d:	74 29                	je     4f58 <remote_audio_pcm_start_playback+0x58>
    4f2f:	83 ec 0c             	sub    $0xc,%esp
    4f32:	50                   	push   %eax
    4f33:	8b 41 0c             	mov    0xc(%ecx),%eax
    4f36:	50                   	push   %eax
    4f37:	52                   	push   %edx
    4f38:	8b 51 08             	mov    0x8(%ecx),%edx
    4f3b:	52                   	push   %edx
    4f3c:	56                   	push   %esi
    4f3d:	ff d7                	call   *%edi
    4f3f:	83 c4 20             	add    $0x20,%esp
    4f42:	89 5d 08             	mov    %ebx,0x8(%ebp)
    4f45:	89 45 0c             	mov    %eax,0xc(%ebp)
    4f48:	8d 65 f4             	lea    -0xc(%ebp),%esp
    4f4b:	5b                   	pop    %ebx
    4f4c:	5e                   	pop    %esi
    4f4d:	5f                   	pop    %edi
    4f4e:	5d                   	pop    %ebp
    4f4f:	e9 9c 9a 00 00       	jmp    e9f0 <async_answer_0@plt>
    4f54:	8d 74 26 00          	lea    0x0(%esi,%eiz,1),%esi
    4f58:	b8 f5 ff ff ff       	mov    $0xfffffff5,%eax
    4f5d:	eb e3                	jmp    4f42 <remote_audio_pcm_start_playback+0x42>
    4f5f:	90                   	nop

00004f60 <remote_audio_pcm_release_buffer>:
    4f60:	55                   	push   %ebp
    4f61:	89 e5                	mov    %esp,%ebp
    4f63:	53                   	push   %ebx
    4f64:	50                   	push   %eax
    4f65:	8b 45 0c             	mov    0xc(%ebp),%eax
    4f68:	8b 55 08             	mov    0x8(%ebp),%edx
    4f6b:	8b 5d 10             	mov    0x10(%ebp),%ebx
    4f6e:	8b 40 14             	mov    0x14(%eax),%eax
    4f71:	85 c0                	test   %eax,%eax
    4f73:	74 1b                	je     4f90 <remote_audio_pcm_release_buffer+0x30>
    4f75:	83 ec 0c             	sub    $0xc,%esp
    4f78:	52                   	push   %edx
    4f79:	ff d0                	call   *%eax
    4f7b:	89 5d 08             	mov    %ebx,0x8(%ebp)
    4f7e:	83 c4 10             	add    $0x10,%esp
    4f81:	8b 5d fc             	mov    -0x4(%ebp),%ebx
    4f84:	89 45 0c             	mov    %eax,0xc(%ebp)
    4f87:	c9                   	leave  
    4f88:	e9 63 9a 00 00       	jmp    e9f0 <async_answer_0@plt>
    4f8d:	8d 76 00             	lea    0x0(%esi),%esi
    4f90:	89 5d 08             	mov    %ebx,0x8(%ebp)
    4f93:	b8 f5 ff ff ff       	mov    $0xfffffff5,%eax
    4f98:	8b 5d fc             	mov    -0x4(%ebp),%ebx
    4f9b:	89 45 0c             	mov    %eax,0xc(%ebp)
    4f9e:	c9                   	leave  
    4f9f:	e9 4c 9a 00 00       	jmp    e9f0 <async_answer_0@plt>
    4fa4:	8d b6 00 00 00 00    	lea    0x0(%esi),%esi
    4faa:	8d bf 00 00 00 00    	lea    0x0(%edi),%edi

00004fb0 <remote_audio_pcm_events_unregister>:
    4fb0:	55                   	push   %ebp
    4fb1:	89 e5                	mov    %esp,%ebp
    4fb3:	57                   	push   %edi
    4fb4:	56                   	push   %esi
    4fb5:	53                   	push   %ebx
    4fb6:	83 ec 0c             	sub    $0xc,%esp
    4fb9:	8b 5d 0c             	mov    0xc(%ebp),%ebx
    4fbc:	8b 75 08             	mov    0x8(%ebp),%esi
    4fbf:	8b 7d 10             	mov    0x10(%ebp),%edi
    4fc2:	8b 43 1c             	mov    0x1c(%ebx),%eax
    4fc5:	85 c0                	test   %eax,%eax
    4fc7:	74 3f                	je     5008 <remote_audio_pcm_events_unregister+0x58>
    4fc9:	8b 4b 18             	mov    0x18(%ebx),%ecx
    4fcc:	85 c9                	test   %ecx,%ecx
    4fce:	74 38                	je     5008 <remote_audio_pcm_events_unregister+0x58>
    4fd0:	83 ec 0c             	sub    $0xc,%esp
    4fd3:	56                   	push   %esi
    4fd4:	ff d0                	call   *%eax
    4fd6:	83 c4 10             	add    $0x10,%esp
    4fd9:	85 c0                	test   %eax,%eax
    4fdb:	74 14                	je     4ff1 <remote_audio_pcm_events_unregister+0x41>
    4fdd:	83 ec 0c             	sub    $0xc,%esp
    4fe0:	50                   	push   %eax
    4fe1:	e8 1a 99 00 00       	call   e900 <async_hangup@plt>
    4fe6:	58                   	pop    %eax
    4fe7:	5a                   	pop    %edx
    4fe8:	6a 00                	push   $0x0
    4fea:	56                   	push   %esi
    4feb:	ff 53 18             	call   *0x18(%ebx)
    4fee:	83 c4 10             	add    $0x10,%esp
    4ff1:	89 7d 08             	mov    %edi,0x8(%ebp)
    4ff4:	c7 45 0c 00 00 00 00 	movl   $0x0,0xc(%ebp)
    4ffb:	8d 65 f4             	lea    -0xc(%ebp),%esp
    4ffe:	5b                   	pop    %ebx
    4fff:	5e                   	pop    %esi
    5000:	5f                   	pop    %edi
    5001:	5d                   	pop    %ebp
    5002:	e9 e9 99 00 00       	jmp    e9f0 <async_answer_0@plt>
    5007:	90                   	nop
    5008:	89 7d 08             	mov    %edi,0x8(%ebp)
    500b:	c7 45 0c f5 ff ff ff 	movl   $0xfffffff5,0xc(%ebp)
    5012:	8d 65 f4             	lea    -0xc(%ebp),%esp
    5015:	5b                   	pop    %ebx
    5016:	5e                   	pop    %esi
    5017:	5f                   	pop    %edi
    5018:	5d                   	pop    %ebp
    5019:	e9 d2 99 00 00       	jmp    e9f0 <async_answer_0@plt>
    501e:	66 90                	xchg   %ax,%ax

00005020 <remote_audio_pcm_get_buffer_pos>:
    5020:	55                   	push   %ebp
    5021:	89 e5                	mov    %esp,%ebp
    5023:	83 ec 18             	sub    $0x18,%esp
    5026:	8b 45 0c             	mov    0xc(%ebp),%eax
    5029:	c7 45 f4 00 00 00 00 	movl   $0x0,-0xc(%ebp)
    5030:	8b 40 0c             	mov    0xc(%eax),%eax
    5033:	85 c0                	test   %eax,%eax
    5035:	74 29                	je     5060 <remote_audio_pcm_get_buffer_pos+0x40>
    5037:	8b 4d 08             	mov    0x8(%ebp),%ecx
    503a:	52                   	push   %edx
    503b:	52                   	push   %edx
    503c:	8d 55 f4             	lea    -0xc(%ebp),%edx
    503f:	52                   	push   %edx
    5040:	51                   	push   %ecx
    5041:	ff d0                	call   *%eax
    5043:	8b 55 f4             	mov    -0xc(%ebp),%edx
    5046:	83 c4 10             	add    $0x10,%esp
    5049:	51                   	push   %ecx
    504a:	52                   	push   %edx
    504b:	50                   	push   %eax
    504c:	8b 45 10             	mov    0x10(%ebp),%eax
    504f:	50                   	push   %eax
    5050:	e8 6b 9c 00 00       	call   ecc0 <async_answer_1@plt>
    5055:	83 c4 10             	add    $0x10,%esp
    5058:	c9                   	leave  
    5059:	c3                   	ret    
    505a:	8d b6 00 00 00 00    	lea    0x0(%esi),%esi
    5060:	b8 f5 ff ff ff       	mov    $0xfffffff5,%eax
    5065:	31 d2                	xor    %edx,%edx
    5067:	eb e0                	jmp    5049 <remote_audio_pcm_get_buffer_pos+0x29>
    5069:	8d b4 26 00 00 00 00 	lea    0x0(%esi,%eiz,1),%esi

00005070 <remote_audio_pcm_query_caps>:
    5070:	55                   	push   %ebp
    5071:	89 e5                	mov    %esp,%ebp
    5073:	53                   	push   %ebx
    5074:	53                   	push   %ebx
    5075:	8b 45 0c             	mov    0xc(%ebp),%eax
    5078:	8b 55 08             	mov    0x8(%ebp),%edx
    507b:	8b 5d 10             	mov    0x10(%ebp),%ebx
    507e:	8b 4d 14             	mov    0x14(%ebp),%ecx
    5081:	8b 40 08             	mov    0x8(%eax),%eax
    5084:	85 c0                	test   %eax,%eax
    5086:	74 28                	je     50b0 <remote_audio_pcm_query_caps+0x40>
    5088:	83 ec 08             	sub    $0x8,%esp
    508b:	8b 49 08             	mov    0x8(%ecx),%ecx
    508e:	51                   	push   %ecx
    508f:	52                   	push   %edx
    5090:	ff d0                	call   *%eax
    5092:	89 5d 08             	mov    %ebx,0x8(%ebp)
    5095:	83 c4 10             	add    $0x10,%esp
    5098:	8b 5d fc             	mov    -0x4(%ebp),%ebx
    509b:	89 45 10             	mov    %eax,0x10(%ebp)
    509e:	c7 45 0c 00 00 00 00 	movl   $0x0,0xc(%ebp)
    50a5:	c9                   	leave  
    50a6:	e9 15 9c 00 00       	jmp    ecc0 <async_answer_1@plt>
    50ab:	90                   	nop
    50ac:	8d 74 26 00          	lea    0x0(%esi,%eiz,1),%esi
    50b0:	89 5d 08             	mov    %ebx,0x8(%ebp)
    50b3:	8b 5d fc             	mov    -0x4(%ebp),%ebx
    50b6:	c7 45 0c f5 ff ff ff 	movl   $0xfffffff5,0xc(%ebp)
    50bd:	c9                   	leave  
    50be:	e9 2d 99 00 00       	jmp    e9f0 <async_answer_0@plt>
    50c3:	8d b6 00 00 00 00    	lea    0x0(%esi),%esi
    50c9:	8d bc 27 00 00 00 00 	lea    0x0(%edi,%eiz,1),%edi

000050d0 <remote_audio_pcm_get_buffer>:
    50d0:	55                   	push   %ebp
    50d1:	89 e5                	mov    %esp,%ebp
    50d3:	56                   	push   %esi
    50d4:	53                   	push   %ebx
    50d5:	83 ec 10             	sub    $0x10,%esp
    50d8:	8b 5d 0c             	mov    0xc(%ebp),%ebx
    50db:	8b 43 10             	mov    0x10(%ebx),%eax
    50de:	85 c0                	test   %eax,%eax
    50e0:	0f 84 d2 00 00 00    	je     51b8 <remote_audio_pcm_get_buffer+0xe8>
    50e6:	8b 53 14             	mov    0x14(%ebx),%edx
    50e9:	85 d2                	test   %edx,%edx
    50eb:	0f 84 c7 00 00 00    	je     51b8 <remote_audio_pcm_get_buffer+0xe8>
    50f1:	8b 55 14             	mov    0x14(%ebp),%edx
    50f4:	c7 45 e8 00 00 00 00 	movl   $0x0,-0x18(%ebp)
    50fb:	8b 52 08             	mov    0x8(%edx),%edx
    50fe:	56                   	push   %esi
    50ff:	89 55 ec             	mov    %edx,-0x14(%ebp)
    5102:	8d 55 ec             	lea    -0x14(%ebp),%edx
    5105:	52                   	push   %edx
    5106:	8d 55 e8             	lea    -0x18(%ebp),%edx
    5109:	52                   	push   %edx
    510a:	8b 55 08             	mov    0x8(%ebp),%edx
    510d:	52                   	push   %edx
    510e:	ff d0                	call   *%eax
    5110:	83 c4 0c             	add    $0xc,%esp
    5113:	8b 4d ec             	mov    -0x14(%ebp),%ecx
    5116:	89 c6                	mov    %eax,%esi
    5118:	51                   	push   %ecx
    5119:	50                   	push   %eax
    511a:	8b 45 10             	mov    0x10(%ebp),%eax
    511d:	50                   	push   %eax
    511e:	e8 9d 9b 00 00       	call   ecc0 <async_answer_1@plt>
    5123:	83 c4 10             	add    $0x10,%esp
    5126:	85 f6                	test   %esi,%esi
    5128:	74 0e                	je     5138 <remote_audio_pcm_get_buffer+0x68>
    512a:	8d 65 f8             	lea    -0x8(%ebp),%esp
    512d:	5b                   	pop    %ebx
    512e:	5e                   	pop    %esi
    512f:	5d                   	pop    %ebp
    5130:	c3                   	ret    
    5131:	8d b4 26 00 00 00 00 	lea    0x0(%esi,%eiz,1),%esi
    5138:	8b 4d ec             	mov    -0x14(%ebp),%ecx
    513b:	85 c9                	test   %ecx,%ecx
    513d:	74 eb                	je     512a <remote_audio_pcm_get_buffer+0x5a>
    513f:	c7 45 f0 00 00 00 00 	movl   $0x0,-0x10(%ebp)
    5146:	56                   	push   %esi
    5147:	c7 45 f4 00 00 00 00 	movl   $0x0,-0xc(%ebp)
    514e:	56                   	push   %esi
    514f:	68 d4 ce 00 00       	push   $0xced4
    5154:	6a 05                	push   $0x5
    5156:	e8 25 f7 ff ff       	call   4880 <ddf_msg>
    515b:	58                   	pop    %eax
    515c:	8d 45 f0             	lea    -0x10(%ebp),%eax
    515f:	5a                   	pop    %edx
    5160:	50                   	push   %eax
    5161:	8d 45 f4             	lea    -0xc(%ebp),%eax
    5164:	50                   	push   %eax
    5165:	e8 d6 9a 00 00       	call   ec40 <async_share_in_receive@plt>
    516a:	83 c4 10             	add    $0x10,%esp
    516d:	84 c0                	test   %al,%al
    516f:	74 5f                	je     51d0 <remote_audio_pcm_get_buffer+0x100>
    5171:	50                   	push   %eax
    5172:	50                   	push   %eax
    5173:	68 98 d0 00 00       	push   $0xd098
    5178:	6a 05                	push   $0x5
    517a:	e8 01 f7 ff ff       	call   4880 <ddf_msg>
    517f:	8b 45 ec             	mov    -0x14(%ebp),%eax
    5182:	83 c4 10             	add    $0x10,%esp
    5185:	39 45 f0             	cmp    %eax,-0x10(%ebp)
    5188:	74 76                	je     5200 <remote_audio_pcm_get_buffer+0x130>
    518a:	50                   	push   %eax
    518b:	50                   	push   %eax
    518c:	68 b8 d0 00 00       	push   $0xd0b8
    5191:	6a 04                	push   $0x4
    5193:	e8 e8 f6 ff ff       	call   4880 <ddf_msg>
    5198:	8b 55 08             	mov    0x8(%ebp),%edx
    519b:	58                   	pop    %eax
    519c:	52                   	push   %edx
    519d:	ff 53 14             	call   *0x14(%ebx)
    51a0:	8b 75 f4             	mov    -0xc(%ebp),%esi
    51a3:	59                   	pop    %ecx
    51a4:	5b                   	pop    %ebx
    51a5:	6a fd                	push   $0xfffffffd
    51a7:	56                   	push   %esi
    51a8:	e8 43 98 00 00       	call   e9f0 <async_answer_0@plt>
    51ad:	83 c4 10             	add    $0x10,%esp
    51b0:	e9 75 ff ff ff       	jmp    512a <remote_audio_pcm_get_buffer+0x5a>
    51b5:	8d 76 00             	lea    0x0(%esi),%esi
    51b8:	50                   	push   %eax
    51b9:	50                   	push   %eax
    51ba:	8b 45 10             	mov    0x10(%ebp),%eax
    51bd:	6a f5                	push   $0xfffffff5
    51bf:	50                   	push   %eax
    51c0:	e8 2b 98 00 00       	call   e9f0 <async_answer_0@plt>
    51c5:	83 c4 10             	add    $0x10,%esp
    51c8:	8d 65 f8             	lea    -0x8(%ebp),%esp
    51cb:	5b                   	pop    %ebx
    51cc:	5e                   	pop    %esi
    51cd:	5d                   	pop    %ebp
    51ce:	c3                   	ret    
    51cf:	90                   	nop
    51d0:	50                   	push   %eax
    51d1:	50                   	push   %eax
    51d2:	68 ed ce 00 00       	push   $0xceed
    51d7:	6a 04                	push   $0x4
    51d9:	e8 a2 f6 ff ff       	call   4880 <ddf_msg>
    51de:	58                   	pop    %eax
    51df:	8b 45 08             	mov    0x8(%ebp),%eax
    51e2:	50                   	push   %eax
    51e3:	ff 53 14             	call   *0x14(%ebx)
    51e6:	8b 4d f4             	mov    -0xc(%ebp),%ecx
    51e9:	58                   	pop    %eax
    51ea:	5a                   	pop    %edx
    51eb:	6a f8                	push   $0xfffffff8
    51ed:	51                   	push   %ecx
    51ee:	e8 fd 97 00 00       	call   e9f0 <async_answer_0@plt>
    51f3:	83 c4 10             	add    $0x10,%esp
    51f6:	e9 2f ff ff ff       	jmp    512a <remote_audio_pcm_get_buffer+0x5a>
    51fb:	90                   	nop
    51fc:	8d 74 26 00          	lea    0x0(%esi,%eiz,1),%esi
    5200:	50                   	push   %eax
    5201:	50                   	push   %eax
    5202:	68 09 cf 00 00       	push   $0xcf09
    5207:	6a 05                	push   $0x5
    5209:	e8 72 f6 ff ff       	call   4880 <ddf_msg>
    520e:	83 c4 0c             	add    $0xc,%esp
    5211:	8b 45 e8             	mov    -0x18(%ebp),%eax
    5214:	6a 03                	push   $0x3
    5216:	50                   	push   %eax
    5217:	8b 45 f4             	mov    -0xc(%ebp),%eax
    521a:	50                   	push   %eax
    521b:	e8 e0 9a 00 00       	call   ed00 <async_share_in_finalize@plt>
    5220:	83 c4 10             	add    $0x10,%esp
    5223:	85 c0                	test   %eax,%eax
    5225:	74 1e                	je     5245 <remote_audio_pcm_get_buffer+0x175>
    5227:	51                   	push   %ecx
    5228:	51                   	push   %ecx
    5229:	68 21 cf 00 00       	push   $0xcf21
    522e:	6a 04                	push   $0x4
    5230:	e8 4b f6 ff ff       	call   4880 <ddf_msg>
    5235:	8b 45 08             	mov    0x8(%ebp),%eax
    5238:	5e                   	pop    %esi
    5239:	50                   	push   %eax
    523a:	ff 53 14             	call   *0x14(%ebx)
    523d:	83 c4 10             	add    $0x10,%esp
    5240:	e9 e5 fe ff ff       	jmp    512a <remote_audio_pcm_get_buffer+0x5a>
    5245:	8b 55 f0             	mov    -0x10(%ebp),%edx
    5248:	50                   	push   %eax
    5249:	52                   	push   %edx
    524a:	68 39 cf 00 00       	push   $0xcf39
    524f:	6a 05                	push   $0x5
    5251:	e8 2a f6 ff ff       	call   4880 <ddf_msg>
    5256:	83 c4 10             	add    $0x10,%esp
    5259:	e9 cc fe ff ff       	jmp    512a <remote_audio_pcm_get_buffer+0x5a>
    525e:	66 90                	xchg   %ax,%ax

00005260 <remote_audio_pcm_test_format>:
    5260:	55                   	push   %ebp
    5261:	89 e5                	mov    %esp,%ebp
    5263:	53                   	push   %ebx
    5264:	83 ec 14             	sub    $0x14,%esp
    5267:	8b 45 14             	mov    0x14(%ebp),%eax
    526a:	8b 55 0c             	mov    0xc(%ebp),%edx
    526d:	8b 48 08             	mov    0x8(%eax),%ecx
    5270:	8b 58 0c             	mov    0xc(%eax),%ebx
    5273:	8b 52 04             	mov    0x4(%edx),%edx
    5276:	8b 40 10             	mov    0x10(%eax),%eax
    5279:	89 4d ec             	mov    %ecx,-0x14(%ebp)
    527c:	89 5d f0             	mov    %ebx,-0x10(%ebp)
    527f:	89 45 f4             	mov    %eax,-0xc(%ebp)
    5282:	85 d2                	test   %edx,%edx
    5284:	74 3a                	je     52c0 <remote_audio_pcm_test_format+0x60>
    5286:	8d 45 f4             	lea    -0xc(%ebp),%eax
    5289:	8b 4d 08             	mov    0x8(%ebp),%ecx
    528c:	50                   	push   %eax
    528d:	8d 45 f0             	lea    -0x10(%ebp),%eax
    5290:	50                   	push   %eax
    5291:	8d 45 ec             	lea    -0x14(%ebp),%eax
    5294:	50                   	push   %eax
    5295:	51                   	push   %ecx
    5296:	ff d2                	call   *%edx
    5298:	8b 55 f4             	mov    -0xc(%ebp),%edx
    529b:	8b 5d f0             	mov    -0x10(%ebp),%ebx
    529e:	8b 4d ec             	mov    -0x14(%ebp),%ecx
    52a1:	83 c4 10             	add    $0x10,%esp
    52a4:	83 ec 0c             	sub    $0xc,%esp
    52a7:	52                   	push   %edx
    52a8:	53                   	push   %ebx
    52a9:	51                   	push   %ecx
    52aa:	50                   	push   %eax
    52ab:	8b 45 10             	mov    0x10(%ebp),%eax
    52ae:	50                   	push   %eax
    52af:	e8 5c 9a 00 00       	call   ed10 <async_answer_3@plt>
    52b4:	83 c4 20             	add    $0x20,%esp
    52b7:	8b 5d fc             	mov    -0x4(%ebp),%ebx
    52ba:	c9                   	leave  
    52bb:	c3                   	ret    
    52bc:	8d 74 26 00          	lea    0x0(%esi,%eiz,1),%esi
    52c0:	89 c2                	mov    %eax,%edx
    52c2:	b8 f5 ff ff ff       	mov    $0xfffffff5,%eax
    52c7:	eb db                	jmp    52a4 <remote_audio_pcm_test_format+0x44>
    52c9:	8d b4 26 00 00 00 00 	lea    0x0(%esi,%eiz,1),%esi

000052d0 <remote_audio_pcm_events_register>:
    52d0:	55                   	push   %ebp
    52d1:	89 e5                	mov    %esp,%ebp
    52d3:	57                   	push   %edi
    52d4:	56                   	push   %esi
    52d5:	53                   	push   %ebx
    52d6:	83 ec 3c             	sub    $0x3c,%esp
    52d9:	8b 5d 0c             	mov    0xc(%ebp),%ebx
    52dc:	8b 7b 1c             	mov    0x1c(%ebx),%edi
    52df:	85 ff                	test   %edi,%edi
    52e1:	0f 84 91 00 00 00    	je     5378 <remote_audio_pcm_events_register+0xa8>
    52e7:	8b 73 18             	mov    0x18(%ebx),%esi
    52ea:	85 f6                	test   %esi,%esi
    52ec:	0f 84 86 00 00 00    	je     5378 <remote_audio_pcm_events_register+0xa8>
    52f2:	8b 75 10             	mov    0x10(%ebp),%esi
    52f5:	51                   	push   %ecx
    52f6:	51                   	push   %ecx
    52f7:	6a 00                	push   $0x0
    52f9:	56                   	push   %esi
    52fa:	8d 75 c4             	lea    -0x3c(%ebp),%esi
    52fd:	e8 ee 96 00 00       	call   e9f0 <async_answer_0@plt>
    5302:	5f                   	pop    %edi
    5303:	58                   	pop    %eax
    5304:	6a 00                	push   $0x0
    5306:	56                   	push   %esi
    5307:	e8 84 99 00 00       	call   ec90 <async_get_call_timeout@plt>
    530c:	89 c7                	mov    %eax,%edi
    530e:	58                   	pop    %eax
    530f:	5a                   	pop    %edx
    5310:	56                   	push   %esi
    5311:	6a 00                	push   $0x0
    5313:	e8 38 98 00 00       	call   eb50 <async_callback_receive_start@plt>
    5318:	83 c4 10             	add    $0x10,%esp
    531b:	89 c6                	mov    %eax,%esi
    531d:	85 c0                	test   %eax,%eax
    531f:	74 6f                	je     5390 <remote_audio_pcm_events_register+0xc0>
    5321:	50                   	push   %eax
    5322:	50                   	push   %eax
    5323:	8b 45 08             	mov    0x8(%ebp),%eax
    5326:	56                   	push   %esi
    5327:	50                   	push   %eax
    5328:	ff 53 18             	call   *0x18(%ebx)
    532b:	83 c4 10             	add    $0x10,%esp
    532e:	89 c3                	mov    %eax,%ebx
    5330:	85 c0                	test   %eax,%eax
    5332:	74 2c                	je     5360 <remote_audio_pcm_events_register+0x90>
    5334:	52                   	push   %edx
    5335:	52                   	push   %edx
    5336:	68 56 cf 00 00       	push   $0xcf56
    533b:	6a 04                	push   $0x4
    533d:	e8 3e f5 ff ff       	call   4880 <ddf_msg>
    5342:	89 34 24             	mov    %esi,(%esp)
    5345:	e8 b6 95 00 00       	call   e900 <async_hangup@plt>
    534a:	59                   	pop    %ecx
    534b:	5e                   	pop    %esi
    534c:	53                   	push   %ebx
    534d:	57                   	push   %edi
    534e:	e8 9d 96 00 00       	call   e9f0 <async_answer_0@plt>
    5353:	83 c4 10             	add    $0x10,%esp
    5356:	8d 65 f4             	lea    -0xc(%ebp),%esp
    5359:	5b                   	pop    %ebx
    535a:	5e                   	pop    %esi
    535b:	5f                   	pop    %edi
    535c:	5d                   	pop    %ebp
    535d:	c3                   	ret    
    535e:	66 90                	xchg   %ax,%ax
    5360:	50                   	push   %eax
    5361:	50                   	push   %eax
    5362:	6a 00                	push   $0x0
    5364:	57                   	push   %edi
    5365:	e8 86 96 00 00       	call   e9f0 <async_answer_0@plt>
    536a:	83 c4 10             	add    $0x10,%esp
    536d:	8d 65 f4             	lea    -0xc(%ebp),%esp
    5370:	5b                   	pop    %ebx
    5371:	5e                   	pop    %esi
    5372:	5f                   	pop    %edi
    5373:	5d                   	pop    %ebp
    5374:	c3                   	ret    
    5375:	8d 76 00             	lea    0x0(%esi),%esi
    5378:	8b 5d 10             	mov    0x10(%ebp),%ebx
    537b:	51                   	push   %ecx
    537c:	51                   	push   %ecx
    537d:	6a f5                	push   $0xfffffff5
    537f:	53                   	push   %ebx
    5380:	e8 6b 96 00 00       	call   e9f0 <async_answer_0@plt>
    5385:	83 c4 10             	add    $0x10,%esp
    5388:	8d 65 f4             	lea    -0xc(%ebp),%esp
    538b:	5b                   	pop    %ebx
    538c:	5e                   	pop    %esi
    538d:	5f                   	pop    %edi
    538e:	5d                   	pop    %ebp
    538f:	c3                   	ret    
    5390:	50                   	push   %eax
    5391:	50                   	push   %eax
    5392:	68 e0 d0 00 00       	push   $0xd0e0
    5397:	6a 04                	push   $0x4
    5399:	e8 e2 f4 ff ff       	call   4880 <ddf_msg>
    539e:	58                   	pop    %eax
    539f:	5a                   	pop    %edx
    53a0:	68 06 d5 ff ff       	push   $0xffffd506
    53a5:	57                   	push   %edi
    53a6:	e8 45 96 00 00       	call   e9f0 <async_answer_0@plt>
    53ab:	83 c4 10             	add    $0x10,%esp
    53ae:	eb a6                	jmp    5356 <remote_audio_pcm_events_register+0x86>

000053b0 <remote_audio_pcm_get_info_str>:
    53b0:	55                   	push   %ebp
    53b1:	89 e5                	mov    %esp,%ebp
    53b3:	56                   	push   %esi
    53b4:	53                   	push   %ebx
    53b5:	83 ec 10             	sub    $0x10,%esp
    53b8:	8b 45 0c             	mov    0xc(%ebp),%eax
    53bb:	8b 00                	mov    (%eax),%eax
    53bd:	85 c0                	test   %eax,%eax
    53bf:	0f 84 ab 00 00 00    	je     5470 <remote_audio_pcm_get_info_str+0xc0>
    53c5:	8b 4d 08             	mov    0x8(%ebp),%ecx
    53c8:	52                   	push   %edx
    53c9:	c7 45 ec 00 00 00 00 	movl   $0x0,-0x14(%ebp)
    53d0:	52                   	push   %edx
    53d1:	8d 55 ec             	lea    -0x14(%ebp),%edx
    53d4:	52                   	push   %edx
    53d5:	51                   	push   %ecx
    53d6:	ff d0                	call   *%eax
    53d8:	83 c4 10             	add    $0x10,%esp
    53db:	89 c6                	mov    %eax,%esi
    53dd:	8b 45 ec             	mov    -0x14(%ebp),%eax
    53e0:	85 c0                	test   %eax,%eax
    53e2:	74 5c                	je     5440 <remote_audio_pcm_get_info_str+0x90>
    53e4:	83 ec 0c             	sub    $0xc,%esp
    53e7:	50                   	push   %eax
    53e8:	e8 b3 98 00 00       	call   eca0 <str_size@plt>
    53ed:	83 c4 0c             	add    $0xc,%esp
    53f0:	8d 58 01             	lea    0x1(%eax),%ebx
    53f3:	8b 45 10             	mov    0x10(%ebp),%eax
    53f6:	53                   	push   %ebx
    53f7:	56                   	push   %esi
    53f8:	50                   	push   %eax
    53f9:	e8 c2 98 00 00       	call   ecc0 <async_answer_1@plt>
    53fe:	83 c4 10             	add    $0x10,%esp
    5401:	85 f6                	test   %esi,%esi
    5403:	75 2f                	jne    5434 <remote_audio_pcm_get_info_str+0x84>
    5405:	85 db                	test   %ebx,%ebx
    5407:	74 2b                	je     5434 <remote_audio_pcm_get_info_str+0x84>
    5409:	50                   	push   %eax
    540a:	50                   	push   %eax
    540b:	8d 45 f0             	lea    -0x10(%ebp),%eax
    540e:	50                   	push   %eax
    540f:	8d 45 f4             	lea    -0xc(%ebp),%eax
    5412:	50                   	push   %eax
    5413:	e8 08 98 00 00       	call   ec20 <async_data_read_receive@plt>
    5418:	83 c4 10             	add    $0x10,%esp
    541b:	84 c0                	test   %al,%al
    541d:	74 69                	je     5488 <remote_audio_pcm_get_info_str+0xd8>
    541f:	3b 5d f0             	cmp    -0x10(%ebp),%ebx
    5422:	74 34                	je     5458 <remote_audio_pcm_get_info_str+0xa8>
    5424:	50                   	push   %eax
    5425:	50                   	push   %eax
    5426:	8b 45 f4             	mov    -0xc(%ebp),%eax
    5429:	6a fd                	push   $0xfffffffd
    542b:	50                   	push   %eax
    542c:	e8 bf 95 00 00       	call   e9f0 <async_answer_0@plt>
    5431:	83 c4 10             	add    $0x10,%esp
    5434:	8d 65 f8             	lea    -0x8(%ebp),%esp
    5437:	5b                   	pop    %ebx
    5438:	5e                   	pop    %esi
    5439:	5d                   	pop    %ebp
    543a:	c3                   	ret    
    543b:	90                   	nop
    543c:	8d 74 26 00          	lea    0x0(%esi,%eiz,1),%esi
    5440:	8b 55 10             	mov    0x10(%ebp),%edx
    5443:	50                   	push   %eax
    5444:	6a 00                	push   $0x0
    5446:	56                   	push   %esi
    5447:	52                   	push   %edx
    5448:	e8 73 98 00 00       	call   ecc0 <async_answer_1@plt>
    544d:	83 c4 10             	add    $0x10,%esp
    5450:	8d 65 f8             	lea    -0x8(%ebp),%esp
    5453:	5b                   	pop    %ebx
    5454:	5e                   	pop    %esi
    5455:	5d                   	pop    %ebp
    5456:	c3                   	ret    
    5457:	90                   	nop
    5458:	8b 75 f4             	mov    -0xc(%ebp),%esi
    545b:	51                   	push   %ecx
    545c:	53                   	push   %ebx
    545d:	8b 5d ec             	mov    -0x14(%ebp),%ebx
    5460:	53                   	push   %ebx
    5461:	56                   	push   %esi
    5462:	e8 19 95 00 00       	call   e980 <async_data_read_finalize@plt>
    5467:	83 c4 10             	add    $0x10,%esp
    546a:	eb c8                	jmp    5434 <remote_audio_pcm_get_info_str+0x84>
    546c:	8d 74 26 00          	lea    0x0(%esi,%eiz,1),%esi
    5470:	8b 75 10             	mov    0x10(%ebp),%esi
    5473:	53                   	push   %ebx
    5474:	53                   	push   %ebx
    5475:	6a f5                	push   $0xfffffff5
    5477:	56                   	push   %esi
    5478:	e8 73 95 00 00       	call   e9f0 <async_answer_0@plt>
    547d:	83 c4 10             	add    $0x10,%esp
    5480:	8d 65 f8             	lea    -0x8(%ebp),%esp
    5483:	5b                   	pop    %ebx
    5484:	5e                   	pop    %esi
    5485:	5d                   	pop    %ebp
    5486:	c3                   	ret    
    5487:	90                   	nop
    5488:	50                   	push   %eax
    5489:	50                   	push   %eax
    548a:	8b 45 f4             	mov    -0xc(%ebp),%eax
    548d:	6a f8                	push   $0xfffffff8
    548f:	50                   	push   %eax
    5490:	e8 5b 95 00 00       	call   e9f0 <async_answer_0@plt>
    5495:	83 c4 10             	add    $0x10,%esp
    5498:	eb 9a                	jmp    5434 <remote_audio_pcm_get_info_str+0x84>
    549a:	8d b6 00 00 00 00    	lea    0x0(%esi),%esi

000054a0 <audio_pcm_cap_str>:
    54a0:	55                   	push   %ebp
    54a1:	b8 74 cf 00 00       	mov    $0xcf74,%eax
    54a6:	89 e5                	mov    %esp,%ebp
    54a8:	8b 55 08             	mov    0x8(%ebp),%edx
    54ab:	83 fa 06             	cmp    $0x6,%edx
    54ae:	77 07                	ja     54b7 <audio_pcm_cap_str+0x17>
    54b0:	8b 04 95 38 e1 00 00 	mov    0xe138(,%edx,4),%eax
    54b7:	5d                   	pop    %ebp
    54b8:	c3                   	ret    
    54b9:	8d b4 26 00 00 00 00 	lea    0x0(%esi,%eiz,1),%esi

000054c0 <audio_pcm_event_str>:
    54c0:	55                   	push   %ebp
    54c1:	b8 80 cf 00 00       	mov    $0xcf80,%eax
    54c6:	89 e5                	mov    %esp,%ebp
    54c8:	8b 55 08             	mov    0x8(%ebp),%edx
    54cb:	81 fa 05 04 00 00    	cmp    $0x405,%edx
    54d1:	77 07                	ja     54da <audio_pcm_event_str+0x1a>
    54d3:	8b 04 95 20 d1 00 00 	mov    0xd120(,%edx,4),%eax
    54da:	5d                   	pop    %ebp
    54db:	c3                   	ret    
    54dc:	8d 74 26 00          	lea    0x0(%esi,%eiz,1),%esi

000054e0 <audio_pcm_open_default>:
    54e0:	55                   	push   %ebp
    54e1:	89 e5                	mov    %esp,%ebp
    54e3:	83 ec 28             	sub    $0x28,%esp
    54e6:	80 3d 74 0f 01 00 00 	cmpb   $0x0,0x10f74
    54ed:	75 20                	jne    550f <audio_pcm_open_default+0x2f>
    54ef:	50                   	push   %eax
    54f0:	6a 01                	push   $0x1
    54f2:	68 70 0f 01 00       	push   $0x10f70
    54f7:	68 8e cf 00 00       	push   $0xcf8e
    54fc:	e8 9f 93 00 00       	call   e8a0 <loc_category_get_id@plt>
    5501:	83 c4 10             	add    $0x10,%esp
    5504:	85 c0                	test   %eax,%eax
    5506:	75 68                	jne    5570 <audio_pcm_open_default+0x90>
    5508:	c6 05 74 0f 01 00 01 	movb   $0x1,0x10f74
    550f:	8d 45 f4             	lea    -0xc(%ebp),%eax
    5512:	51                   	push   %ecx
    5513:	50                   	push   %eax
    5514:	8d 45 f0             	lea    -0x10(%ebp),%eax
    5517:	50                   	push   %eax
    5518:	a1 70 0f 01 00       	mov    0x10f70,%eax
    551d:	50                   	push   %eax
    551e:	c7 45 f0 00 00 00 00 	movl   $0x0,-0x10(%ebp)
    5525:	c7 45 f4 00 00 00 00 	movl   $0x0,-0xc(%ebp)
    552c:	e8 4f 97 00 00       	call   ec80 <loc_category_get_svcs@plt>
    5531:	83 c4 10             	add    $0x10,%esp
    5534:	85 c0                	test   %eax,%eax
    5536:	75 38                	jne    5570 <audio_pcm_open_default+0x90>
    5538:	8b 55 f4             	mov    -0xc(%ebp),%edx
    553b:	85 d2                	test   %edx,%edx
    553d:	75 19                	jne    5558 <audio_pcm_open_default+0x78>
    553f:	83 ec 0c             	sub    $0xc,%esp
    5542:	89 45 e4             	mov    %eax,-0x1c(%ebp)
    5545:	8b 45 f0             	mov    -0x10(%ebp),%eax
    5548:	50                   	push   %eax
    5549:	e8 92 98 00 00       	call   ede0 <free@plt>
    554e:	8b 45 e4             	mov    -0x1c(%ebp),%eax
    5551:	83 c4 10             	add    $0x10,%esp
    5554:	c9                   	leave  
    5555:	c3                   	ret    
    5556:	66 90                	xchg   %ax,%ax
    5558:	8b 45 f0             	mov    -0x10(%ebp),%eax
    555b:	52                   	push   %edx
    555c:	6a 01                	push   $0x1
    555e:	68 41 26 9b 41       	push   $0x419b2641
    5563:	8b 08                	mov    (%eax),%ecx
    5565:	51                   	push   %ecx
    5566:	e8 65 93 00 00       	call   e8d0 <loc_service_connect@plt>
    556b:	83 c4 10             	add    $0x10,%esp
    556e:	eb cf                	jmp    553f <audio_pcm_open_default+0x5f>
    5570:	31 c0                	xor    %eax,%eax
    5572:	c9                   	leave  
    5573:	c3                   	ret    
    5574:	8d b6 00 00 00 00    	lea    0x0(%esi),%esi
    557a:	8d bf 00 00 00 00    	lea    0x0(%edi),%edi

00005580 <audio_pcm_open>:
    5580:	55                   	push   %ebp
    5581:	89 e5                	mov    %esp,%ebp
    5583:	83 ec 1c             	sub    $0x1c,%esp
    5586:	8d 45 f4             	lea    -0xc(%ebp),%eax
    5589:	8b 4d 08             	mov    0x8(%ebp),%ecx
    558c:	6a 00                	push   $0x0
    558e:	c7 45 f4 00 00 00 00 	movl   $0x0,-0xc(%ebp)
    5595:	50                   	push   %eax
    5596:	51                   	push   %ecx
    5597:	e8 54 97 00 00       	call   ecf0 <devman_fun_get_handle@plt>
    559c:	83 c4 10             	add    $0x10,%esp
    559f:	85 c0                	test   %eax,%eax
    55a1:	75 15                	jne    55b8 <audio_pcm_open+0x38>
    55a3:	8b 55 f4             	mov    -0xc(%ebp),%edx
    55a6:	50                   	push   %eax
    55a7:	50                   	push   %eax
    55a8:	6a 01                	push   $0x1
    55aa:	52                   	push   %edx
    55ab:	e8 00 93 00 00       	call   e8b0 <devman_device_connect@plt>
    55b0:	83 c4 10             	add    $0x10,%esp
    55b3:	c9                   	leave  
    55b4:	c3                   	ret    
    55b5:	8d 76 00             	lea    0x0(%esi),%esi
    55b8:	31 c0                	xor    %eax,%eax
    55ba:	c9                   	leave  
    55bb:	c3                   	ret    
    55bc:	8d 74 26 00          	lea    0x0(%esi,%eiz,1),%esi

000055c0 <audio_pcm_open_service>:
    55c0:	55                   	push   %ebp
    55c1:	89 e5                	mov    %esp,%ebp
    55c3:	83 ec 0c             	sub    $0xc,%esp
    55c6:	8b 45 08             	mov    0x8(%ebp),%eax
    55c9:	6a 01                	push   $0x1
    55cb:	68 41 26 9b 41       	push   $0x419b2641
    55d0:	50                   	push   %eax
    55d1:	e8 fa 92 00 00       	call   e8d0 <loc_service_connect@plt>
    55d6:	c9                   	leave  
    55d7:	c3                   	ret    
    55d8:	90                   	nop
    55d9:	8d b4 26 00 00 00 00 	lea    0x0(%esi,%eiz,1),%esi

000055e0 <audio_pcm_close>:
    55e0:	55                   	push   %ebp
    55e1:	89 e5                	mov    %esp,%ebp
    55e3:	8b 45 08             	mov    0x8(%ebp),%eax
    55e6:	85 c0                	test   %eax,%eax
    55e8:	74 06                	je     55f0 <audio_pcm_close+0x10>
    55ea:	5d                   	pop    %ebp
    55eb:	e9 10 93 00 00       	jmp    e900 <async_hangup@plt>
    55f0:	5d                   	pop    %ebp
    55f1:	c3                   	ret    
    55f2:	8d b4 26 00 00 00 00 	lea    0x0(%esi,%eiz,1),%esi
    55f9:	8d bc 27 00 00 00 00 	lea    0x0(%edi,%eiz,1),%edi

00005600 <audio_pcm_get_info_str>:
    5600:	55                   	push   %ebp
    5601:	89 e5                	mov    %esp,%ebp
    5603:	57                   	push   %edi
    5604:	56                   	push   %esi
    5605:	53                   	push   %ebx
    5606:	83 ec 2c             	sub    $0x2c,%esp
    5609:	8b 45 0c             	mov    0xc(%ebp),%eax
    560c:	85 c0                	test   %eax,%eax
    560e:	0f 84 ac 00 00 00    	je     56c0 <audio_pcm_get_info_str+0xc0>
    5614:	83 ec 0c             	sub    $0xc,%esp
    5617:	8b 45 08             	mov    0x8(%ebp),%eax
    561a:	50                   	push   %eax
    561b:	e8 b0 96 00 00       	call   ecd0 <async_exchange_begin@plt>
    5620:	83 c4 0c             	add    $0xc,%esp
    5623:	89 c6                	mov    %eax,%esi
    5625:	8d 45 e4             	lea    -0x1c(%ebp),%eax
    5628:	6a 00                	push   $0x0
    562a:	6a 00                	push   $0x0
    562c:	6a 00                	push   $0x0
    562e:	6a 00                	push   $0x0
    5630:	50                   	push   %eax
    5631:	6a 00                	push   $0x0
    5633:	6a 00                	push   $0x0
    5635:	6a 00                	push   $0x0
    5637:	6a 00                	push   $0x0
    5639:	68 04 04 00 00       	push   $0x404
    563e:	56                   	push   %esi
    563f:	e8 9c 93 00 00       	call   e9e0 <async_req_fast@plt>
    5644:	83 c4 30             	add    $0x30,%esp
    5647:	89 c3                	mov    %eax,%ebx
    5649:	85 c0                	test   %eax,%eax
    564b:	75 2e                	jne    567b <audio_pcm_get_info_str+0x7b>
    564d:	8b 45 e4             	mov    -0x1c(%ebp),%eax
    5650:	57                   	push   %edi
    5651:	57                   	push   %edi
    5652:	50                   	push   %eax
    5653:	6a 01                	push   $0x1
    5655:	e8 56 94 00 00       	call   eab0 <calloc@plt>
    565a:	83 c4 10             	add    $0x10,%esp
    565d:	89 c7                	mov    %eax,%edi
    565f:	85 c0                	test   %eax,%eax
    5661:	74 64                	je     56c7 <audio_pcm_get_info_str+0xc7>
    5663:	8b 55 e4             	mov    -0x1c(%ebp),%edx
    5666:	50                   	push   %eax
    5667:	52                   	push   %edx
    5668:	57                   	push   %edi
    5669:	56                   	push   %esi
    566a:	e8 c1 95 00 00       	call   ec30 <async_data_read_start@plt>
    566f:	83 c4 10             	add    $0x10,%esp
    5672:	85 c0                	test   %eax,%eax
    5674:	75 22                	jne    5698 <audio_pcm_get_info_str+0x98>
    5676:	8b 45 0c             	mov    0xc(%ebp),%eax
    5679:	89 38                	mov    %edi,(%eax)
    567b:	83 ec 0c             	sub    $0xc,%esp
    567e:	56                   	push   %esi
    567f:	e8 fc 93 00 00       	call   ea80 <async_exchange_end@plt>
    5684:	83 c4 10             	add    $0x10,%esp
    5687:	89 d8                	mov    %ebx,%eax
    5689:	8d 65 f4             	lea    -0xc(%ebp),%esp
    568c:	5b                   	pop    %ebx
    568d:	5e                   	pop    %esi
    568e:	5f                   	pop    %edi
    568f:	5d                   	pop    %ebp
    5690:	c3                   	ret    
    5691:	8d b4 26 00 00 00 00 	lea    0x0(%esi,%eiz,1),%esi
    5698:	83 ec 0c             	sub    $0xc,%esp
    569b:	89 45 d4             	mov    %eax,-0x2c(%ebp)
    569e:	57                   	push   %edi
    569f:	e8 3c 97 00 00       	call   ede0 <free@plt>
    56a4:	89 34 24             	mov    %esi,(%esp)
    56a7:	e8 d4 93 00 00       	call   ea80 <async_exchange_end@plt>
    56ac:	8b 45 d4             	mov    -0x2c(%ebp),%eax
    56af:	83 c4 10             	add    $0x10,%esp
    56b2:	8d 65 f4             	lea    -0xc(%ebp),%esp
    56b5:	5b                   	pop    %ebx
    56b6:	5e                   	pop    %esi
    56b7:	5f                   	pop    %edi
    56b8:	5d                   	pop    %ebp
    56b9:	c3                   	ret    
    56ba:	8d b6 00 00 00 00    	lea    0x0(%esi),%esi
    56c0:	b8 f2 ff ff ff       	mov    $0xfffffff2,%eax
    56c5:	eb c2                	jmp    5689 <audio_pcm_get_info_str+0x89>
    56c7:	51                   	push   %ecx
    56c8:	6a 00                	push   $0x0
    56ca:	6a ff                	push   $0xffffffff
    56cc:	56                   	push   %esi
    56cd:	e8 5e 95 00 00       	call   ec30 <async_data_read_start@plt>
    56d2:	89 34 24             	mov    %esi,(%esp)
    56d5:	e8 a6 93 00 00       	call   ea80 <async_exchange_end@plt>
    56da:	83 c4 10             	add    $0x10,%esp
    56dd:	b8 fe ff ff ff       	mov    $0xfffffffe,%eax
    56e2:	eb a5                	jmp    5689 <audio_pcm_get_info_str+0x89>
    56e4:	8d b6 00 00 00 00    	lea    0x0(%esi),%esi
    56ea:	8d bf 00 00 00 00    	lea    0x0(%edi),%edi

000056f0 <audio_pcm_query_cap>:
    56f0:	55                   	push   %ebp
    56f1:	89 e5                	mov    %esp,%ebp
    56f3:	53                   	push   %ebx
    56f4:	83 ec 30             	sub    $0x30,%esp
    56f7:	8b 45 08             	mov    0x8(%ebp),%eax
    56fa:	50                   	push   %eax
    56fb:	e8 d0 95 00 00       	call   ecd0 <async_exchange_begin@plt>
    5700:	83 c4 0c             	add    $0xc,%esp
    5703:	89 c3                	mov    %eax,%ebx
    5705:	8b 55 0c             	mov    0xc(%ebp),%edx
    5708:	8d 45 f4             	lea    -0xc(%ebp),%eax
    570b:	6a 00                	push   $0x0
    570d:	c7 45 f4 00 00 00 00 	movl   $0x0,-0xc(%ebp)
    5714:	6a 00                	push   $0x0
    5716:	6a 00                	push   $0x0
    5718:	6a 00                	push   $0x0
    571a:	50                   	push   %eax
    571b:	6a 00                	push   $0x0
    571d:	6a 00                	push   $0x0
    571f:	52                   	push   %edx
    5720:	6a 01                	push   $0x1
    5722:	68 04 04 00 00       	push   $0x404
    5727:	53                   	push   %ebx
    5728:	e8 b3 92 00 00       	call   e9e0 <async_req_fast@plt>
    572d:	83 c4 24             	add    $0x24,%esp
    5730:	89 45 e4             	mov    %eax,-0x1c(%ebp)
    5733:	53                   	push   %ebx
    5734:	e8 47 93 00 00       	call   ea80 <async_exchange_end@plt>
    5739:	8b 45 e4             	mov    -0x1c(%ebp),%eax
    573c:	83 c4 10             	add    $0x10,%esp
    573f:	85 c0                	test   %eax,%eax
    5741:	75 03                	jne    5746 <audio_pcm_query_cap+0x56>
    5743:	8b 45 f4             	mov    -0xc(%ebp),%eax
    5746:	8b 5d fc             	mov    -0x4(%ebp),%ebx
    5749:	c9                   	leave  
    574a:	c3                   	ret    
    574b:	90                   	nop
    574c:	8d 74 26 00          	lea    0x0(%esi,%eiz,1),%esi

00005750 <audio_pcm_get_buffer_pos>:
    5750:	55                   	push   %ebp
    5751:	89 e5                	mov    %esp,%ebp
    5753:	56                   	push   %esi
    5754:	53                   	push   %ebx
    5755:	83 ec 20             	sub    $0x20,%esp
    5758:	8b 75 0c             	mov    0xc(%ebp),%esi
    575b:	85 f6                	test   %esi,%esi
    575d:	74 61                	je     57c0 <audio_pcm_get_buffer_pos+0x70>
    575f:	83 ec 0c             	sub    $0xc,%esp
    5762:	8b 45 08             	mov    0x8(%ebp),%eax
    5765:	50                   	push   %eax
    5766:	e8 65 95 00 00       	call   ecd0 <async_exchange_begin@plt>
    576b:	83 c4 0c             	add    $0xc,%esp
    576e:	89 c3                	mov    %eax,%ebx
    5770:	8d 45 f4             	lea    -0xc(%ebp),%eax
    5773:	c7 45 f4 00 00 00 00 	movl   $0x0,-0xc(%ebp)
    577a:	6a 00                	push   $0x0
    577c:	6a 00                	push   $0x0
    577e:	6a 00                	push   $0x0
    5780:	6a 00                	push   $0x0
    5782:	50                   	push   %eax
    5783:	6a 00                	push   $0x0
    5785:	6a 00                	push   $0x0
    5787:	6a 00                	push   $0x0
    5789:	6a 07                	push   $0x7
    578b:	68 04 04 00 00       	push   $0x404
    5790:	53                   	push   %ebx
    5791:	e8 4a 92 00 00       	call   e9e0 <async_req_fast@plt>
    5796:	83 c4 30             	add    $0x30,%esp
    5799:	85 c0                	test   %eax,%eax
    579b:	74 1b                	je     57b8 <audio_pcm_get_buffer_pos+0x68>
    579d:	83 ec 0c             	sub    $0xc,%esp
    57a0:	89 45 e4             	mov    %eax,-0x1c(%ebp)
    57a3:	53                   	push   %ebx
    57a4:	e8 d7 92 00 00       	call   ea80 <async_exchange_end@plt>
    57a9:	83 c4 10             	add    $0x10,%esp
    57ac:	8b 45 e4             	mov    -0x1c(%ebp),%eax
    57af:	8d 65 f8             	lea    -0x8(%ebp),%esp
    57b2:	5b                   	pop    %ebx
    57b3:	5e                   	pop    %esi
    57b4:	5d                   	pop    %ebp
    57b5:	c3                   	ret    
    57b6:	66 90                	xchg   %ax,%ax
    57b8:	8b 55 f4             	mov    -0xc(%ebp),%edx
    57bb:	89 16                	mov    %edx,(%esi)
    57bd:	eb de                	jmp    579d <audio_pcm_get_buffer_pos+0x4d>
    57bf:	90                   	nop
    57c0:	b8 f2 ff ff ff       	mov    $0xfffffff2,%eax
    57c5:	eb e8                	jmp    57af <audio_pcm_get_buffer_pos+0x5f>
    57c7:	89 f6                	mov    %esi,%esi
    57c9:	8d bc 27 00 00 00 00 	lea    0x0(%edi,%eiz,1),%edi

000057d0 <audio_pcm_test_format>:
    57d0:	55                   	push   %ebp
    57d1:	89 e5                	mov    %esp,%ebp
    57d3:	57                   	push   %edi
    57d4:	56                   	push   %esi
    57d5:	53                   	push   %ebx
    57d6:	83 ec 38             	sub    $0x38,%esp
    57d9:	8b 45 08             	mov    0x8(%ebp),%eax
    57dc:	8b 5d 0c             	mov    0xc(%ebp),%ebx
    57df:	50                   	push   %eax
    57e0:	e8 eb 94 00 00       	call   ecd0 <async_exchange_begin@plt>
    57e5:	83 c4 10             	add    $0x10,%esp
    57e8:	89 c6                	mov    %eax,%esi
    57ea:	85 db                	test   %ebx,%ebx
    57ec:	0f 84 be 00 00 00    	je     58b0 <audio_pcm_test_format+0xe0>
    57f2:	8b 03                	mov    (%ebx),%eax
    57f4:	8b 7d 10             	mov    0x10(%ebp),%edi
    57f7:	89 45 dc             	mov    %eax,-0x24(%ebp)
    57fa:	85 ff                	test   %edi,%edi
    57fc:	0f 84 be 00 00 00    	je     58c0 <audio_pcm_test_format+0xf0>
    5802:	8b 4d 10             	mov    0x10(%ebp),%ecx
    5805:	8b 11                	mov    (%ecx),%edx
    5807:	8b 4d 14             	mov    0x14(%ebp),%ecx
    580a:	89 55 e0             	mov    %edx,-0x20(%ebp)
    580d:	85 c9                	test   %ecx,%ecx
    580f:	0f 84 bb 00 00 00    	je     58d0 <audio_pcm_test_format+0x100>
    5815:	8b 7d 14             	mov    0x14(%ebp),%edi
    5818:	8b 0f                	mov    (%edi),%ecx
    581a:	57                   	push   %edi
    581b:	8d 7d e4             	lea    -0x1c(%ebp),%edi
    581e:	6a 00                	push   $0x0
    5820:	6a 00                	push   $0x0
    5822:	57                   	push   %edi
    5823:	8d 7d e0             	lea    -0x20(%ebp),%edi
    5826:	57                   	push   %edi
    5827:	8d 7d dc             	lea    -0x24(%ebp),%edi
    582a:	57                   	push   %edi
    582b:	89 4d e4             	mov    %ecx,-0x1c(%ebp)
    582e:	51                   	push   %ecx
    582f:	52                   	push   %edx
    5830:	50                   	push   %eax
    5831:	6a 04                	push   $0x4
    5833:	68 04 04 00 00       	push   $0x404
    5838:	56                   	push   %esi
    5839:	e8 a2 91 00 00       	call   e9e0 <async_req_fast@plt>
    583e:	83 c4 24             	add    $0x24,%esp
    5841:	89 45 d4             	mov    %eax,-0x2c(%ebp)
    5844:	56                   	push   %esi
    5845:	e8 36 92 00 00       	call   ea80 <async_exchange_end@plt>
    584a:	8b 45 d4             	mov    -0x2c(%ebp),%eax
    584d:	83 c4 10             	add    $0x10,%esp
    5850:	85 c0                	test   %eax,%eax
    5852:	74 34                	je     5888 <audio_pcm_test_format+0xb8>
    5854:	83 f8 fd             	cmp    $0xfffffffd,%eax
    5857:	74 2f                	je     5888 <audio_pcm_test_format+0xb8>
    5859:	85 db                	test   %ebx,%ebx
    585b:	74 05                	je     5862 <audio_pcm_test_format+0x92>
    585d:	8b 55 dc             	mov    -0x24(%ebp),%edx
    5860:	89 13                	mov    %edx,(%ebx)
    5862:	8b 4d 10             	mov    0x10(%ebp),%ecx
    5865:	85 c9                	test   %ecx,%ecx
    5867:	74 08                	je     5871 <audio_pcm_test_format+0xa1>
    5869:	8b 55 e0             	mov    -0x20(%ebp),%edx
    586c:	8b 75 10             	mov    0x10(%ebp),%esi
    586f:	89 16                	mov    %edx,(%esi)
    5871:	8b 55 14             	mov    0x14(%ebp),%edx
    5874:	85 d2                	test   %edx,%edx
    5876:	74 08                	je     5880 <audio_pcm_test_format+0xb0>
    5878:	8b 4d 14             	mov    0x14(%ebp),%ecx
    587b:	8b 55 e4             	mov    -0x1c(%ebp),%edx
    587e:	89 11                	mov    %edx,(%ecx)
    5880:	8d 65 f4             	lea    -0xc(%ebp),%esp
    5883:	5b                   	pop    %ebx
    5884:	5e                   	pop    %esi
    5885:	5f                   	pop    %edi
    5886:	5d                   	pop    %ebp
    5887:	c3                   	ret    
    5888:	85 db                	test   %ebx,%ebx
    588a:	74 07                	je     5893 <audio_pcm_test_format+0xc3>
    588c:	8b 55 dc             	mov    -0x24(%ebp),%edx
    588f:	39 13                	cmp    %edx,(%ebx)
    5891:	75 cd                	jne    5860 <audio_pcm_test_format+0x90>
    5893:	8b 7d 10             	mov    0x10(%ebp),%edi
    5896:	85 ff                	test   %edi,%edi
    5898:	74 3e                	je     58d8 <audio_pcm_test_format+0x108>
    589a:	8b 75 10             	mov    0x10(%ebp),%esi
    589d:	8b 55 e0             	mov    -0x20(%ebp),%edx
    58a0:	39 16                	cmp    %edx,(%esi)
    58a2:	74 34                	je     58d8 <audio_pcm_test_format+0x108>
    58a4:	85 db                	test   %ebx,%ebx
    58a6:	75 b5                	jne    585d <audio_pcm_test_format+0x8d>
    58a8:	eb c5                	jmp    586f <audio_pcm_test_format+0x9f>
    58aa:	8d b6 00 00 00 00    	lea    0x0(%esi),%esi
    58b0:	31 c0                	xor    %eax,%eax
    58b2:	8b 7d 10             	mov    0x10(%ebp),%edi
    58b5:	89 45 dc             	mov    %eax,-0x24(%ebp)
    58b8:	85 ff                	test   %edi,%edi
    58ba:	0f 85 42 ff ff ff    	jne    5802 <audio_pcm_test_format+0x32>
    58c0:	31 d2                	xor    %edx,%edx
    58c2:	8b 4d 14             	mov    0x14(%ebp),%ecx
    58c5:	89 55 e0             	mov    %edx,-0x20(%ebp)
    58c8:	85 c9                	test   %ecx,%ecx
    58ca:	0f 85 45 ff ff ff    	jne    5815 <audio_pcm_test_format+0x45>
    58d0:	31 c9                	xor    %ecx,%ecx
    58d2:	e9 43 ff ff ff       	jmp    581a <audio_pcm_test_format+0x4a>
    58d7:	90                   	nop
    58d8:	8b 75 14             	mov    0x14(%ebp),%esi
    58db:	85 f6                	test   %esi,%esi
    58dd:	74 0e                	je     58ed <audio_pcm_test_format+0x11d>
    58df:	8b 75 14             	mov    0x14(%ebp),%esi
    58e2:	8b 4d e4             	mov    -0x1c(%ebp),%ecx
    58e5:	39 0e                	cmp    %ecx,(%esi)
    58e7:	0f 85 6c ff ff ff    	jne    5859 <audio_pcm_test_format+0x89>
    58ed:	31 c0                	xor    %eax,%eax
    58ef:	eb 8f                	jmp    5880 <audio_pcm_test_format+0xb0>
    58f1:	eb 0d                	jmp    5900 <audio_pcm_register_event_callback>
    58f3:	90                   	nop
    58f4:	90                   	nop
    58f5:	90                   	nop
    58f6:	90                   	nop
    58f7:	90                   	nop
    58f8:	90                   	nop
    58f9:	90                   	nop
    58fa:	90                   	nop
    58fb:	90                   	nop
    58fc:	90                   	nop
    58fd:	90                   	nop
    58fe:	90                   	nop
    58ff:	90                   	nop

00005900 <audio_pcm_register_event_callback>:
    5900:	55                   	push   %ebp
    5901:	89 e5                	mov    %esp,%ebp
    5903:	56                   	push   %esi
    5904:	53                   	push   %ebx
    5905:	83 ec 20             	sub    $0x20,%esp
    5908:	8b 75 0c             	mov    0xc(%ebp),%esi
    590b:	85 f6                	test   %esi,%esi
    590d:	74 71                	je     5980 <audio_pcm_register_event_callback+0x80>
    590f:	83 ec 0c             	sub    $0xc,%esp
    5912:	8b 4d 08             	mov    0x8(%ebp),%ecx
    5915:	51                   	push   %ecx
    5916:	e8 b5 93 00 00       	call   ecd0 <async_exchange_begin@plt>
    591b:	83 c4 0c             	add    $0xc,%esp
    591e:	89 c3                	mov    %eax,%ebx
    5920:	6a 00                	push   $0x0
    5922:	6a 00                	push   $0x0
    5924:	6a 00                	push   $0x0
    5926:	6a 00                	push   $0x0
    5928:	6a 00                	push   $0x0
    592a:	6a 00                	push   $0x0
    592c:	6a 00                	push   $0x0
    592e:	6a 00                	push   $0x0
    5930:	6a 02                	push   $0x2
    5932:	68 04 04 00 00       	push   $0x404
    5937:	50                   	push   %eax
    5938:	e8 a3 90 00 00       	call   e9e0 <async_req_fast@plt>
    593d:	83 c4 30             	add    $0x30,%esp
    5940:	85 c0                	test   %eax,%eax
    5942:	74 1c                	je     5960 <audio_pcm_register_event_callback+0x60>
    5944:	83 ec 0c             	sub    $0xc,%esp
    5947:	89 45 e4             	mov    %eax,-0x1c(%ebp)
    594a:	53                   	push   %ebx
    594b:	e8 30 91 00 00       	call   ea80 <async_exchange_end@plt>
    5950:	83 c4 10             	add    $0x10,%esp
    5953:	8b 45 e4             	mov    -0x1c(%ebp),%eax
    5956:	8d 65 f8             	lea    -0x8(%ebp),%esp
    5959:	5b                   	pop    %ebx
    595a:	5e                   	pop    %esi
    595b:	5d                   	pop    %ebp
    595c:	c3                   	ret    
    595d:	8d 76 00             	lea    0x0(%esi),%esi
    5960:	8b 55 10             	mov    0x10(%ebp),%edx
    5963:	50                   	push   %eax
    5964:	8d 45 f4             	lea    -0xc(%ebp),%eax
    5967:	50                   	push   %eax
    5968:	52                   	push   %edx
    5969:	56                   	push   %esi
    596a:	6a 00                	push   $0x0
    596c:	6a 00                	push   $0x0
    596e:	68 16 86 8f db       	push   $0xdb8f8616
    5973:	53                   	push   %ebx
    5974:	e8 67 92 00 00       	call   ebe0 <async_create_callback_port@plt>
    5979:	83 c4 20             	add    $0x20,%esp
    597c:	eb c6                	jmp    5944 <audio_pcm_register_event_callback+0x44>
    597e:	66 90                	xchg   %ax,%ax
    5980:	b8 f2 ff ff ff       	mov    $0xfffffff2,%eax
    5985:	eb cf                	jmp    5956 <audio_pcm_register_event_callback+0x56>
    5987:	89 f6                	mov    %esi,%esi
    5989:	8d bc 27 00 00 00 00 	lea    0x0(%edi,%eiz,1),%edi

00005990 <audio_pcm_unregister_event_callback>:
    5990:	55                   	push   %ebp
    5991:	89 e5                	mov    %esp,%ebp
    5993:	53                   	push   %ebx
    5994:	83 ec 20             	sub    $0x20,%esp
    5997:	8b 45 08             	mov    0x8(%ebp),%eax
    599a:	50                   	push   %eax
    599b:	e8 30 93 00 00       	call   ecd0 <async_exchange_begin@plt>
    59a0:	83 c4 0c             	add    $0xc,%esp
    59a3:	89 c3                	mov    %eax,%ebx
    59a5:	6a 00                	push   $0x0
    59a7:	6a 00                	push   $0x0
    59a9:	6a 00                	push   $0x0
    59ab:	6a 00                	push   $0x0
    59ad:	6a 00                	push   $0x0
    59af:	6a 00                	push   $0x0
    59b1:	6a 00                	push   $0x0
    59b3:	6a 00                	push   $0x0
    59b5:	6a 03                	push   $0x3
    59b7:	68 04 04 00 00       	push   $0x404
    59bc:	50                   	push   %eax
    59bd:	e8 1e 90 00 00       	call   e9e0 <async_req_fast@plt>
    59c2:	83 c4 24             	add    $0x24,%esp
    59c5:	89 45 f4             	mov    %eax,-0xc(%ebp)
    59c8:	53                   	push   %ebx
    59c9:	e8 b2 90 00 00       	call   ea80 <async_exchange_end@plt>
    59ce:	8b 45 f4             	mov    -0xc(%ebp),%eax
    59d1:	8b 5d fc             	mov    -0x4(%ebp),%ebx
    59d4:	c9                   	leave  
    59d5:	c3                   	ret    
    59d6:	8d 76 00             	lea    0x0(%esi),%esi
    59d9:	8d bc 27 00 00 00 00 	lea    0x0(%edi,%eiz,1),%edi

000059e0 <audio_pcm_get_buffer>:
    59e0:	55                   	push   %ebp
    59e1:	89 e5                	mov    %esp,%ebp
    59e3:	57                   	push   %edi
    59e4:	56                   	push   %esi
    59e5:	53                   	push   %ebx
    59e6:	83 ec 2c             	sub    $0x2c,%esp
    59e9:	8b 75 0c             	mov    0xc(%ebp),%esi
    59ec:	8b 5d 10             	mov    0x10(%ebp),%ebx
    59ef:	85 f6                	test   %esi,%esi
    59f1:	0f 84 91 00 00 00    	je     5a88 <audio_pcm_get_buffer+0xa8>
    59f7:	85 db                	test   %ebx,%ebx
    59f9:	0f 84 89 00 00 00    	je     5a88 <audio_pcm_get_buffer+0xa8>
    59ff:	83 ec 0c             	sub    $0xc,%esp
    5a02:	8b 55 08             	mov    0x8(%ebp),%edx
    5a05:	52                   	push   %edx
    5a06:	e8 c5 92 00 00       	call   ecd0 <async_exchange_begin@plt>
    5a0b:	83 c4 0c             	add    $0xc,%esp
    5a0e:	89 c7                	mov    %eax,%edi
    5a10:	8d 55 e0             	lea    -0x20(%ebp),%edx
    5a13:	8b 03                	mov    (%ebx),%eax
    5a15:	89 45 e0             	mov    %eax,-0x20(%ebp)
    5a18:	6a 00                	push   $0x0
    5a1a:	6a 00                	push   $0x0
    5a1c:	6a 00                	push   $0x0
    5a1e:	6a 00                	push   $0x0
    5a20:	52                   	push   %edx
    5a21:	6a 00                	push   $0x0
    5a23:	6a 00                	push   $0x0
    5a25:	50                   	push   %eax
    5a26:	6a 05                	push   $0x5
    5a28:	68 04 04 00 00       	push   $0x404
    5a2d:	57                   	push   %edi
    5a2e:	e8 ad 8f 00 00       	call   e9e0 <async_req_fast@plt>
    5a33:	83 c4 30             	add    $0x30,%esp
    5a36:	85 c0                	test   %eax,%eax
    5a38:	75 2d                	jne    5a67 <audio_pcm_get_buffer+0x87>
    5a3a:	83 ec 0c             	sub    $0xc,%esp
    5a3d:	8d 45 e4             	lea    -0x1c(%ebp),%eax
    5a40:	c7 45 e4 00 00 00 00 	movl   $0x0,-0x1c(%ebp)
    5a47:	50                   	push   %eax
    5a48:	8b 45 e0             	mov    -0x20(%ebp),%eax
    5a4b:	6a 00                	push   $0x0
    5a4d:	6a 00                	push   $0x0
    5a4f:	50                   	push   %eax
    5a50:	57                   	push   %edi
    5a51:	e8 3a 8f 00 00       	call   e990 <async_share_in_start@plt>
    5a56:	83 c4 20             	add    $0x20,%esp
    5a59:	85 c0                	test   %eax,%eax
    5a5b:	75 0a                	jne    5a67 <audio_pcm_get_buffer+0x87>
    5a5d:	8b 55 e4             	mov    -0x1c(%ebp),%edx
    5a60:	89 16                	mov    %edx,(%esi)
    5a62:	8b 55 e0             	mov    -0x20(%ebp),%edx
    5a65:	89 13                	mov    %edx,(%ebx)
    5a67:	83 ec 0c             	sub    $0xc,%esp
    5a6a:	89 45 d4             	mov    %eax,-0x2c(%ebp)
    5a6d:	57                   	push   %edi
    5a6e:	e8 0d 90 00 00       	call   ea80 <async_exchange_end@plt>
    5a73:	83 c4 10             	add    $0x10,%esp
    5a76:	8b 45 d4             	mov    -0x2c(%ebp),%eax
    5a79:	8d 65 f4             	lea    -0xc(%ebp),%esp
    5a7c:	5b                   	pop    %ebx
    5a7d:	5e                   	pop    %esi
    5a7e:	5f                   	pop    %edi
    5a7f:	5d                   	pop    %ebp
    5a80:	c3                   	ret    
    5a81:	8d b4 26 00 00 00 00 	lea    0x0(%esi,%eiz,1),%esi
    5a88:	b8 f2 ff ff ff       	mov    $0xfffffff2,%eax
    5a8d:	eb ea                	jmp    5a79 <audio_pcm_get_buffer+0x99>
    5a8f:	90                   	nop

00005a90 <audio_pcm_release_buffer>:
    5a90:	55                   	push   %ebp
    5a91:	89 e5                	mov    %esp,%ebp
    5a93:	53                   	push   %ebx
    5a94:	83 ec 20             	sub    $0x20,%esp
    5a97:	8b 45 08             	mov    0x8(%ebp),%eax
    5a9a:	50                   	push   %eax
    5a9b:	e8 30 92 00 00       	call   ecd0 <async_exchange_begin@plt>
    5aa0:	83 c4 0c             	add    $0xc,%esp
    5aa3:	89 c3                	mov    %eax,%ebx
    5aa5:	6a 00                	push   $0x0
    5aa7:	6a 00                	push   $0x0
    5aa9:	6a 00                	push   $0x0
    5aab:	6a 00                	push   $0x0
    5aad:	6a 00                	push   $0x0
    5aaf:	6a 00                	push   $0x0
    5ab1:	6a 00                	push   $0x0
    5ab3:	6a 00                	push   $0x0
    5ab5:	6a 06                	push   $0x6
    5ab7:	68 04 04 00 00       	push   $0x404
    5abc:	50                   	push   %eax
    5abd:	e8 1e 8f 00 00       	call   e9e0 <async_req_fast@plt>
    5ac2:	83 c4 24             	add    $0x24,%esp
    5ac5:	89 45 f4             	mov    %eax,-0xc(%ebp)
    5ac8:	53                   	push   %ebx
    5ac9:	e8 b2 8f 00 00       	call   ea80 <async_exchange_end@plt>
    5ace:	8b 45 f4             	mov    -0xc(%ebp),%eax
    5ad1:	8b 5d fc             	mov    -0x4(%ebp),%ebx
    5ad4:	c9                   	leave  
    5ad5:	c3                   	ret    
    5ad6:	8d 76 00             	lea    0x0(%esi),%esi
    5ad9:	8d bc 27 00 00 00 00 	lea    0x0(%edi,%eiz,1),%edi

00005ae0 <audio_pcm_start_playback_fragment>:
    5ae0:	55                   	push   %ebp
    5ae1:	89 e5                	mov    %esp,%ebp
    5ae3:	56                   	push   %esi
    5ae4:	53                   	push   %ebx
    5ae5:	83 ec 10             	sub    $0x10,%esp
    5ae8:	81 7d 10 ff ff 00 00 	cmpl   $0xffff,0x10(%ebp)
    5aef:	77 5f                	ja     5b50 <audio_pcm_start_playback_fragment+0x70>
    5af1:	f7 45 18 00 00 ff ff 	testl  $0xffff0000,0x18(%ebp)
    5af8:	75 5d                	jne    5b57 <audio_pcm_start_playback_fragment+0x77>
    5afa:	83 ec 0c             	sub    $0xc,%esp
    5afd:	8b 5d 10             	mov    0x10(%ebp),%ebx
    5b00:	8b 55 08             	mov    0x8(%ebp),%edx
    5b03:	8b 45 18             	mov    0x18(%ebp),%eax
    5b06:	c1 e3 10             	shl    $0x10,%ebx
    5b09:	52                   	push   %edx
    5b0a:	09 c3                	or     %eax,%ebx
    5b0c:	e8 bf 91 00 00       	call   ecd0 <async_exchange_begin@plt>
    5b11:	83 c4 0c             	add    $0xc,%esp
    5b14:	8b 4d 14             	mov    0x14(%ebp),%ecx
    5b17:	89 c6                	mov    %eax,%esi
    5b19:	6a 00                	push   $0x0
    5b1b:	6a 00                	push   $0x0
    5b1d:	6a 00                	push   $0x0
    5b1f:	6a 00                	push   $0x0
    5b21:	6a 00                	push   $0x0
    5b23:	53                   	push   %ebx
    5b24:	8b 5d 0c             	mov    0xc(%ebp),%ebx
    5b27:	51                   	push   %ecx
    5b28:	53                   	push   %ebx
    5b29:	6a 08                	push   $0x8
    5b2b:	68 04 04 00 00       	push   $0x404
    5b30:	50                   	push   %eax
    5b31:	e8 aa 8e 00 00       	call   e9e0 <async_req_fast@plt>
    5b36:	83 c4 24             	add    $0x24,%esp
    5b39:	56                   	push   %esi
    5b3a:	89 45 f4             	mov    %eax,-0xc(%ebp)
    5b3d:	e8 3e 8f 00 00       	call   ea80 <async_exchange_end@plt>
    5b42:	83 c4 10             	add    $0x10,%esp
    5b45:	8b 45 f4             	mov    -0xc(%ebp),%eax
    5b48:	8d 65 f8             	lea    -0x8(%ebp),%esp
    5b4b:	5b                   	pop    %ebx
    5b4c:	5e                   	pop    %esi
    5b4d:	5d                   	pop    %ebp
    5b4e:	c3                   	ret    
    5b4f:	90                   	nop
    5b50:	b8 f2 ff ff ff       	mov    $0xfffffff2,%eax
    5b55:	eb f1                	jmp    5b48 <audio_pcm_start_playback_fragment+0x68>
    5b57:	56                   	push   %esi
    5b58:	68 a6 01 00 00       	push   $0x1a6
    5b5d:	68 98 cf 00 00       	push   $0xcf98
    5b62:	68 00 d1 00 00       	push   $0xd100
    5b67:	e8 24 8f 00 00       	call   ea90 <assert_abort@plt>
    5b6c:	8d 74 26 00          	lea    0x0(%esi,%eiz,1),%esi

00005b70 <audio_pcm_last_playback_fragment>:
    5b70:	55                   	push   %ebp
    5b71:	89 e5                	mov    %esp,%ebp
    5b73:	53                   	push   %ebx
    5b74:	83 ec 20             	sub    $0x20,%esp
    5b77:	8b 45 08             	mov    0x8(%ebp),%eax
    5b7a:	50                   	push   %eax
    5b7b:	e8 50 91 00 00       	call   ecd0 <async_exchange_begin@plt>
    5b80:	83 c4 0c             	add    $0xc,%esp
    5b83:	89 c3                	mov    %eax,%ebx
    5b85:	6a 00                	push   $0x0
    5b87:	6a 00                	push   $0x0
    5b89:	6a 00                	push   $0x0
    5b8b:	6a 00                	push   $0x0
    5b8d:	6a 00                	push   $0x0
    5b8f:	6a 00                	push   $0x0
    5b91:	6a 00                	push   $0x0
    5b93:	6a 00                	push   $0x0
    5b95:	6a 09                	push   $0x9
    5b97:	68 04 04 00 00       	push   $0x404
    5b9c:	50                   	push   %eax
    5b9d:	e8 3e 8e 00 00       	call   e9e0 <async_req_fast@plt>
    5ba2:	83 c4 24             	add    $0x24,%esp
    5ba5:	89 45 f4             	mov    %eax,-0xc(%ebp)
    5ba8:	53                   	push   %ebx
    5ba9:	e8 d2 8e 00 00       	call   ea80 <async_exchange_end@plt>
    5bae:	8b 45 f4             	mov    -0xc(%ebp),%eax
    5bb1:	8b 5d fc             	mov    -0x4(%ebp),%ebx
    5bb4:	c9                   	leave  
    5bb5:	c3                   	ret    
    5bb6:	8d 76 00             	lea    0x0(%esi),%esi
    5bb9:	8d bc 27 00 00 00 00 	lea    0x0(%edi,%eiz,1),%edi

00005bc0 <audio_pcm_start_playback>:
    5bc0:	55                   	push   %ebp
    5bc1:	89 e5                	mov    %esp,%ebp
    5bc3:	56                   	push   %esi
    5bc4:	53                   	push   %ebx
    5bc5:	83 ec 10             	sub    $0x10,%esp
    5bc8:	81 7d 0c ff ff 00 00 	cmpl   $0xffff,0xc(%ebp)
    5bcf:	77 5f                	ja     5c30 <audio_pcm_start_playback+0x70>
    5bd1:	f7 45 14 00 00 ff ff 	testl  $0xffff0000,0x14(%ebp)
    5bd8:	75 5d                	jne    5c37 <audio_pcm_start_playback+0x77>
    5bda:	83 ec 0c             	sub    $0xc,%esp
    5bdd:	8b 5d 0c             	mov    0xc(%ebp),%ebx
    5be0:	8b 55 08             	mov    0x8(%ebp),%edx
    5be3:	8b 45 14             	mov    0x14(%ebp),%eax
    5be6:	c1 e3 10             	shl    $0x10,%ebx
    5be9:	52                   	push   %edx
    5bea:	09 c3                	or     %eax,%ebx
    5bec:	e8 df 90 00 00       	call   ecd0 <async_exchange_begin@plt>
    5bf1:	83 c4 0c             	add    $0xc,%esp
    5bf4:	8b 4d 10             	mov    0x10(%ebp),%ecx
    5bf7:	89 c6                	mov    %eax,%esi
    5bf9:	6a 00                	push   $0x0
    5bfb:	6a 00                	push   $0x0
    5bfd:	6a 00                	push   $0x0
    5bff:	6a 00                	push   $0x0
    5c01:	6a 00                	push   $0x0
    5c03:	53                   	push   %ebx
    5c04:	51                   	push   %ecx
    5c05:	6a 00                	push   $0x0
    5c07:	6a 08                	push   $0x8
    5c09:	68 04 04 00 00       	push   $0x404
    5c0e:	50                   	push   %eax
    5c0f:	e8 cc 8d 00 00       	call   e9e0 <async_req_fast@plt>
    5c14:	83 c4 24             	add    $0x24,%esp
    5c17:	89 45 f4             	mov    %eax,-0xc(%ebp)
    5c1a:	56                   	push   %esi
    5c1b:	e8 60 8e 00 00       	call   ea80 <async_exchange_end@plt>
    5c20:	83 c4 10             	add    $0x10,%esp
    5c23:	8b 45 f4             	mov    -0xc(%ebp),%eax
    5c26:	8d 65 f8             	lea    -0x8(%ebp),%esp
    5c29:	5b                   	pop    %ebx
    5c2a:	5e                   	pop    %esi
    5c2b:	5d                   	pop    %ebp
    5c2c:	c3                   	ret    
    5c2d:	8d 76 00             	lea    0x0(%esi),%esi
    5c30:	b8 f2 ff ff ff       	mov    $0xfffffff2,%eax
    5c35:	eb ef                	jmp    5c26 <audio_pcm_start_playback+0x66>
    5c37:	53                   	push   %ebx
    5c38:	68 a6 01 00 00       	push   $0x1a6
    5c3d:	68 98 cf 00 00       	push   $0xcf98
    5c42:	68 00 d1 00 00       	push   $0xd100
    5c47:	e8 44 8e 00 00       	call   ea90 <assert_abort@plt>
    5c4c:	8d 74 26 00          	lea    0x0(%esi,%eiz,1),%esi

00005c50 <audio_pcm_stop_playback_immediate>:
    5c50:	55                   	push   %ebp
    5c51:	89 e5                	mov    %esp,%ebp
    5c53:	53                   	push   %ebx
    5c54:	83 ec 20             	sub    $0x20,%esp
    5c57:	8b 45 08             	mov    0x8(%ebp),%eax
    5c5a:	50                   	push   %eax
    5c5b:	e8 70 90 00 00       	call   ecd0 <async_exchange_begin@plt>
    5c60:	83 c4 0c             	add    $0xc,%esp
    5c63:	89 c3                	mov    %eax,%ebx
    5c65:	6a 00                	push   $0x0
    5c67:	6a 00                	push   $0x0
    5c69:	6a 00                	push   $0x0
    5c6b:	6a 00                	push   $0x0
    5c6d:	6a 00                	push   $0x0
    5c6f:	6a 00                	push   $0x0
    5c71:	6a 00                	push   $0x0
    5c73:	6a 01                	push   $0x1
    5c75:	6a 09                	push   $0x9
    5c77:	68 04 04 00 00       	push   $0x404
    5c7c:	50                   	push   %eax
    5c7d:	e8 5e 8d 00 00       	call   e9e0 <async_req_fast@plt>
    5c82:	83 c4 24             	add    $0x24,%esp
    5c85:	89 45 f4             	mov    %eax,-0xc(%ebp)
    5c88:	53                   	push   %ebx
    5c89:	e8 f2 8d 00 00       	call   ea80 <async_exchange_end@plt>
    5c8e:	8b 45 f4             	mov    -0xc(%ebp),%eax
    5c91:	8b 5d fc             	mov    -0x4(%ebp),%ebx
    5c94:	c9                   	leave  
    5c95:	c3                   	ret    
    5c96:	8d 76 00             	lea    0x0(%esi),%esi
    5c99:	8d bc 27 00 00 00 00 	lea    0x0(%edi,%eiz,1),%edi

00005ca0 <audio_pcm_stop_playback>:
    5ca0:	55                   	push   %ebp
    5ca1:	89 e5                	mov    %esp,%ebp
    5ca3:	53                   	push   %ebx
    5ca4:	83 ec 20             	sub    $0x20,%esp
    5ca7:	8b 45 08             	mov    0x8(%ebp),%eax
    5caa:	50                   	push   %eax
    5cab:	e8 20 90 00 00       	call   ecd0 <async_exchange_begin@plt>
    5cb0:	83 c4 0c             	add    $0xc,%esp
    5cb3:	89 c3                	mov    %eax,%ebx
    5cb5:	6a 00                	push   $0x0
    5cb7:	6a 00                	push   $0x0
    5cb9:	6a 00                	push   $0x0
    5cbb:	6a 00                	push   $0x0
    5cbd:	6a 00                	push   $0x0
    5cbf:	6a 00                	push   $0x0
    5cc1:	6a 00                	push   $0x0
    5cc3:	6a 00                	push   $0x0
    5cc5:	6a 09                	push   $0x9
    5cc7:	68 04 04 00 00       	push   $0x404
    5ccc:	50                   	push   %eax
    5ccd:	e8 0e 8d 00 00       	call   e9e0 <async_req_fast@plt>
    5cd2:	83 c4 24             	add    $0x24,%esp
    5cd5:	89 45 f4             	mov    %eax,-0xc(%ebp)
    5cd8:	53                   	push   %ebx
    5cd9:	e8 a2 8d 00 00       	call   ea80 <async_exchange_end@plt>
    5cde:	8b 45 f4             	mov    -0xc(%ebp),%eax
    5ce1:	8b 5d fc             	mov    -0x4(%ebp),%ebx
    5ce4:	c9                   	leave  
    5ce5:	c3                   	ret    
    5ce6:	8d 76 00             	lea    0x0(%esi),%esi
    5ce9:	8d bc 27 00 00 00 00 	lea    0x0(%edi,%eiz,1),%edi

00005cf0 <audio_pcm_start_capture_fragment>:
    5cf0:	55                   	push   %ebp
    5cf1:	89 e5                	mov    %esp,%ebp
    5cf3:	56                   	push   %esi
    5cf4:	53                   	push   %ebx
    5cf5:	83 ec 10             	sub    $0x10,%esp
    5cf8:	81 7d 10 ff ff 00 00 	cmpl   $0xffff,0x10(%ebp)
    5cff:	77 5f                	ja     5d60 <audio_pcm_start_capture_fragment+0x70>
    5d01:	f7 45 18 00 00 ff ff 	testl  $0xffff0000,0x18(%ebp)
    5d08:	75 5d                	jne    5d67 <audio_pcm_start_capture_fragment+0x77>
    5d0a:	83 ec 0c             	sub    $0xc,%esp
    5d0d:	8b 5d 10             	mov    0x10(%ebp),%ebx
    5d10:	8b 55 08             	mov    0x8(%ebp),%edx
    5d13:	8b 45 18             	mov    0x18(%ebp),%eax
    5d16:	c1 e3 10             	shl    $0x10,%ebx
    5d19:	52                   	push   %edx
    5d1a:	09 c3                	or     %eax,%ebx
    5d1c:	e8 af 8f 00 00       	call   ecd0 <async_exchange_begin@plt>
    5d21:	83 c4 0c             	add    $0xc,%esp
    5d24:	8b 4d 14             	mov    0x14(%ebp),%ecx
    5d27:	89 c6                	mov    %eax,%esi
    5d29:	6a 00                	push   $0x0
    5d2b:	6a 00                	push   $0x0
    5d2d:	6a 00                	push   $0x0
    5d2f:	6a 00                	push   $0x0
    5d31:	6a 00                	push   $0x0
    5d33:	53                   	push   %ebx
    5d34:	8b 5d 0c             	mov    0xc(%ebp),%ebx
    5d37:	51                   	push   %ecx
    5d38:	53                   	push   %ebx
    5d39:	6a 0a                	push   $0xa
    5d3b:	68 04 04 00 00       	push   $0x404
    5d40:	50                   	push   %eax
    5d41:	e8 9a 8c 00 00       	call   e9e0 <async_req_fast@plt>
    5d46:	83 c4 24             	add    $0x24,%esp
    5d49:	56                   	push   %esi
    5d4a:	89 45 f4             	mov    %eax,-0xc(%ebp)
    5d4d:	e8 2e 8d 00 00       	call   ea80 <async_exchange_end@plt>
    5d52:	83 c4 10             	add    $0x10,%esp
    5d55:	8b 45 f4             	mov    -0xc(%ebp),%eax
    5d58:	8d 65 f8             	lea    -0x8(%ebp),%esp
    5d5b:	5b                   	pop    %ebx
    5d5c:	5e                   	pop    %esi
    5d5d:	5d                   	pop    %ebp
    5d5e:	c3                   	ret    
    5d5f:	90                   	nop
    5d60:	b8 f2 ff ff ff       	mov    $0xfffffff2,%eax
    5d65:	eb f1                	jmp    5d58 <audio_pcm_start_capture_fragment+0x68>
    5d67:	56                   	push   %esi
    5d68:	68 07 02 00 00       	push   $0x207
    5d6d:	68 98 cf 00 00       	push   $0xcf98
    5d72:	68 00 d1 00 00       	push   $0xd100
    5d77:	e8 14 8d 00 00       	call   ea90 <assert_abort@plt>
    5d7c:	8d 74 26 00          	lea    0x0(%esi,%eiz,1),%esi

00005d80 <audio_pcm_start_capture>:
    5d80:	55                   	push   %ebp
    5d81:	89 e5                	mov    %esp,%ebp
    5d83:	56                   	push   %esi
    5d84:	53                   	push   %ebx
    5d85:	83 ec 10             	sub    $0x10,%esp
    5d88:	81 7d 0c ff ff 00 00 	cmpl   $0xffff,0xc(%ebp)
    5d8f:	77 5f                	ja     5df0 <audio_pcm_start_capture+0x70>
    5d91:	f7 45 14 00 00 ff ff 	testl  $0xffff0000,0x14(%ebp)
    5d98:	75 5d                	jne    5df7 <audio_pcm_start_capture+0x77>
    5d9a:	83 ec 0c             	sub    $0xc,%esp
    5d9d:	8b 5d 0c             	mov    0xc(%ebp),%ebx
    5da0:	8b 55 08             	mov    0x8(%ebp),%edx
    5da3:	8b 45 14             	mov    0x14(%ebp),%eax
    5da6:	c1 e3 10             	shl    $0x10,%ebx
    5da9:	52                   	push   %edx
    5daa:	09 c3                	or     %eax,%ebx
    5dac:	e8 1f 8f 00 00       	call   ecd0 <async_exchange_begin@plt>
    5db1:	83 c4 0c             	add    $0xc,%esp
    5db4:	8b 4d 10             	mov    0x10(%ebp),%ecx
    5db7:	89 c6                	mov    %eax,%esi
    5db9:	6a 00                	push   $0x0
    5dbb:	6a 00                	push   $0x0
    5dbd:	6a 00                	push   $0x0
    5dbf:	6a 00                	push   $0x0
    5dc1:	6a 00                	push   $0x0
    5dc3:	53                   	push   %ebx
    5dc4:	51                   	push   %ecx
    5dc5:	6a 00                	push   $0x0
    5dc7:	6a 0a                	push   $0xa
    5dc9:	68 04 04 00 00       	push   $0x404
    5dce:	50                   	push   %eax
    5dcf:	e8 0c 8c 00 00       	call   e9e0 <async_req_fast@plt>
    5dd4:	83 c4 24             	add    $0x24,%esp
    5dd7:	89 45 f4             	mov    %eax,-0xc(%ebp)
    5dda:	56                   	push   %esi
    5ddb:	e8 a0 8c 00 00       	call   ea80 <async_exchange_end@plt>
    5de0:	83 c4 10             	add    $0x10,%esp
    5de3:	8b 45 f4             	mov    -0xc(%ebp),%eax
    5de6:	8d 65 f8             	lea    -0x8(%ebp),%esp
    5de9:	5b                   	pop    %ebx
    5dea:	5e                   	pop    %esi
    5deb:	5d                   	pop    %ebp
    5dec:	c3                   	ret    
    5ded:	8d 76 00             	lea    0x0(%esi),%esi
    5df0:	b8 f2 ff ff ff       	mov    $0xfffffff2,%eax
    5df5:	eb ef                	jmp    5de6 <audio_pcm_start_capture+0x66>
    5df7:	53                   	push   %ebx
    5df8:	68 07 02 00 00       	push   $0x207
    5dfd:	68 98 cf 00 00       	push   $0xcf98
    5e02:	68 00 d1 00 00       	push   $0xd100
    5e07:	e8 84 8c 00 00       	call   ea90 <assert_abort@plt>
    5e0c:	8d 74 26 00          	lea    0x0(%esi,%eiz,1),%esi

00005e10 <audio_pcm_last_capture_fragment>:
    5e10:	55                   	push   %ebp
    5e11:	89 e5                	mov    %esp,%ebp
    5e13:	53                   	push   %ebx
    5e14:	83 ec 20             	sub    $0x20,%esp
    5e17:	8b 45 08             	mov    0x8(%ebp),%eax
    5e1a:	50                   	push   %eax
    5e1b:	e8 b0 8e 00 00       	call   ecd0 <async_exchange_begin@plt>
    5e20:	83 c4 0c             	add    $0xc,%esp
    5e23:	89 c3                	mov    %eax,%ebx
    5e25:	6a 00                	push   $0x0
    5e27:	6a 00                	push   $0x0
    5e29:	6a 00                	push   $0x0
    5e2b:	6a 00                	push   $0x0
    5e2d:	6a 00                	push   $0x0
    5e2f:	6a 00                	push   $0x0
    5e31:	6a 00                	push   $0x0
    5e33:	6a 00                	push   $0x0
    5e35:	6a 0b                	push   $0xb
    5e37:	68 04 04 00 00       	push   $0x404
    5e3c:	50                   	push   %eax
    5e3d:	e8 9e 8b 00 00       	call   e9e0 <async_req_fast@plt>
    5e42:	83 c4 24             	add    $0x24,%esp
    5e45:	89 45 f4             	mov    %eax,-0xc(%ebp)
    5e48:	53                   	push   %ebx
    5e49:	e8 32 8c 00 00       	call   ea80 <async_exchange_end@plt>
    5e4e:	8b 45 f4             	mov    -0xc(%ebp),%eax
    5e51:	8b 5d fc             	mov    -0x4(%ebp),%ebx
    5e54:	c9                   	leave  
    5e55:	c3                   	ret    
    5e56:	8d 76 00             	lea    0x0(%esi),%esi
    5e59:	8d bc 27 00 00 00 00 	lea    0x0(%edi,%eiz,1),%edi

00005e60 <audio_pcm_stop_capture_immediate>:
    5e60:	55                   	push   %ebp
    5e61:	89 e5                	mov    %esp,%ebp
    5e63:	53                   	push   %ebx
    5e64:	83 ec 20             	sub    $0x20,%esp
    5e67:	8b 45 08             	mov    0x8(%ebp),%eax
    5e6a:	50                   	push   %eax
    5e6b:	e8 60 8e 00 00       	call   ecd0 <async_exchange_begin@plt>
    5e70:	83 c4 0c             	add    $0xc,%esp
    5e73:	89 c3                	mov    %eax,%ebx
    5e75:	6a 00                	push   $0x0
    5e77:	6a 00                	push   $0x0
    5e79:	6a 00                	push   $0x0
    5e7b:	6a 00                	push   $0x0
    5e7d:	6a 00                	push   $0x0
    5e7f:	6a 00                	push   $0x0
    5e81:	6a 00                	push   $0x0
    5e83:	6a 01                	push   $0x1
    5e85:	6a 0b                	push   $0xb
    5e87:	68 04 04 00 00       	push   $0x404
    5e8c:	50                   	push   %eax
    5e8d:	e8 4e 8b 00 00       	call   e9e0 <async_req_fast@plt>
    5e92:	83 c4 24             	add    $0x24,%esp
    5e95:	89 45 f4             	mov    %eax,-0xc(%ebp)
    5e98:	53                   	push   %ebx
    5e99:	e8 e2 8b 00 00       	call   ea80 <async_exchange_end@plt>
    5e9e:	8b 45 f4             	mov    -0xc(%ebp),%eax
    5ea1:	8b 5d fc             	mov    -0x4(%ebp),%ebx
    5ea4:	c9                   	leave  
    5ea5:	c3                   	ret    
    5ea6:	8d 76 00             	lea    0x0(%esi),%esi
    5ea9:	8d bc 27 00 00 00 00 	lea    0x0(%edi,%eiz,1),%edi

00005eb0 <audio_pcm_stop_capture>:
    5eb0:	55                   	push   %ebp
    5eb1:	89 e5                	mov    %esp,%ebp
    5eb3:	53                   	push   %ebx
    5eb4:	83 ec 20             	sub    $0x20,%esp
    5eb7:	8b 45 08             	mov    0x8(%ebp),%eax
    5eba:	50                   	push   %eax
    5ebb:	e8 10 8e 00 00       	call   ecd0 <async_exchange_begin@plt>
    5ec0:	83 c4 0c             	add    $0xc,%esp
    5ec3:	89 c3                	mov    %eax,%ebx
    5ec5:	6a 00                	push   $0x0
    5ec7:	6a 00                	push   $0x0
    5ec9:	6a 00                	push   $0x0
    5ecb:	6a 00                	push   $0x0
    5ecd:	6a 00                	push   $0x0
    5ecf:	6a 00                	push   $0x0
    5ed1:	6a 00                	push   $0x0
    5ed3:	6a 00                	push   $0x0
    5ed5:	6a 0b                	push   $0xb
    5ed7:	68 04 04 00 00       	push   $0x404
    5edc:	50                   	push   %eax
    5edd:	e8 fe 8a 00 00       	call   e9e0 <async_req_fast@plt>
    5ee2:	83 c4 24             	add    $0x24,%esp
    5ee5:	89 45 f4             	mov    %eax,-0xc(%ebp)
    5ee8:	53                   	push   %ebx
    5ee9:	e8 92 8b 00 00       	call   ea80 <async_exchange_end@plt>
    5eee:	8b 45 f4             	mov    -0xc(%ebp),%eax
    5ef1:	8b 5d fc             	mov    -0x4(%ebp),%ebx
    5ef4:	c9                   	leave  
    5ef5:	c3                   	ret    
    5ef6:	66 90                	xchg   %ax,%ax
    5ef8:	66 90                	xchg   %ax,%ax
    5efa:	66 90                	xchg   %ax,%ax
    5efc:	66 90                	xchg   %ax,%ax
    5efe:	66 90                	xchg   %ax,%ax

00005f00 <remote_hw_res_dma_channel_setup>:
    5f00:	55                   	push   %ebp
    5f01:	89 e5                	mov    %esp,%ebp
    5f03:	57                   	push   %edi
    5f04:	56                   	push   %esi
    5f05:	53                   	push   %ebx
    5f06:	83 ec 0c             	sub    $0xc,%esp
    5f09:	8b 45 0c             	mov    0xc(%ebp),%eax
    5f0c:	8b 75 08             	mov    0x8(%ebp),%esi
    5f0f:	8b 5d 10             	mov    0x10(%ebp),%ebx
    5f12:	8b 55 14             	mov    0x14(%ebp),%edx
    5f15:	8b 48 08             	mov    0x8(%eax),%ecx
    5f18:	85 c9                	test   %ecx,%ecx
    5f1a:	74 3c                	je     5f58 <remote_hw_res_dma_channel_setup+0x58>
    5f1c:	8b 42 08             	mov    0x8(%edx),%eax
    5f1f:	83 ec 0c             	sub    $0xc,%esp
    5f22:	89 c7                	mov    %eax,%edi
    5f24:	25 ff ff 00 00       	and    $0xffff,%eax
    5f29:	c1 ef 10             	shr    $0x10,%edi
    5f2c:	81 e7 ff 00 00 00    	and    $0xff,%edi
    5f32:	57                   	push   %edi
    5f33:	8b 7a 10             	mov    0x10(%edx),%edi
    5f36:	57                   	push   %edi
    5f37:	8b 52 0c             	mov    0xc(%edx),%edx
    5f3a:	52                   	push   %edx
    5f3b:	50                   	push   %eax
    5f3c:	56                   	push   %esi
    5f3d:	ff d1                	call   *%ecx
    5f3f:	89 5d 08             	mov    %ebx,0x8(%ebp)
    5f42:	89 45 0c             	mov    %eax,0xc(%ebp)
    5f45:	83 c4 20             	add    $0x20,%esp
    5f48:	8d 65 f4             	lea    -0xc(%ebp),%esp
    5f4b:	5b                   	pop    %ebx
    5f4c:	5e                   	pop    %esi
    5f4d:	5f                   	pop    %edi
    5f4e:	5d                   	pop    %ebp
    5f4f:	e9 9c 8a 00 00       	jmp    e9f0 <async_answer_0@plt>
    5f54:	8d 74 26 00          	lea    0x0(%esi,%eiz,1),%esi
    5f58:	89 5d 08             	mov    %ebx,0x8(%ebp)
    5f5b:	c7 45 0c f5 ff ff ff 	movl   $0xfffffff5,0xc(%ebp)
    5f62:	8d 65 f4             	lea    -0xc(%ebp),%esp
    5f65:	5b                   	pop    %ebx
    5f66:	5e                   	pop    %esi
    5f67:	5f                   	pop    %edi
    5f68:	5d                   	pop    %ebp
    5f69:	e9 82 8a 00 00       	jmp    e9f0 <async_answer_0@plt>
    5f6e:	66 90                	xchg   %ax,%ax

00005f70 <remote_hw_res_enable_interrupt>:
    5f70:	55                   	push   %ebp
    5f71:	89 e5                	mov    %esp,%ebp
    5f73:	53                   	push   %ebx
    5f74:	50                   	push   %eax
    5f75:	8b 45 0c             	mov    0xc(%ebp),%eax
    5f78:	8b 55 08             	mov    0x8(%ebp),%edx
    5f7b:	8b 5d 10             	mov    0x10(%ebp),%ebx
    5f7e:	8b 40 04             	mov    0x4(%eax),%eax
    5f81:	85 c0                	test   %eax,%eax
    5f83:	74 3b                	je     5fc0 <remote_hw_res_enable_interrupt+0x50>
    5f85:	83 ec 0c             	sub    $0xc,%esp
    5f88:	52                   	push   %edx
    5f89:	ff d0                	call   *%eax
    5f8b:	83 c4 10             	add    $0x10,%esp
    5f8e:	84 c0                	test   %al,%al
    5f90:	75 16                	jne    5fa8 <remote_hw_res_enable_interrupt+0x38>
    5f92:	89 5d 08             	mov    %ebx,0x8(%ebp)
    5f95:	8b 5d fc             	mov    -0x4(%ebp),%ebx
    5f98:	c7 45 0c fc ff ff ff 	movl   $0xfffffffc,0xc(%ebp)
    5f9f:	c9                   	leave  
    5fa0:	e9 4b 8a 00 00       	jmp    e9f0 <async_answer_0@plt>
    5fa5:	8d 76 00             	lea    0x0(%esi),%esi
    5fa8:	89 5d 08             	mov    %ebx,0x8(%ebp)
    5fab:	8b 5d fc             	mov    -0x4(%ebp),%ebx
    5fae:	c7 45 0c 00 00 00 00 	movl   $0x0,0xc(%ebp)
    5fb5:	c9                   	leave  
    5fb6:	e9 35 8a 00 00       	jmp    e9f0 <async_answer_0@plt>
    5fbb:	90                   	nop
    5fbc:	8d 74 26 00          	lea    0x0(%esi,%eiz,1),%esi
    5fc0:	89 5d 08             	mov    %ebx,0x8(%ebp)
    5fc3:	8b 5d fc             	mov    -0x4(%ebp),%ebx
    5fc6:	c7 45 0c f5 ff ff ff 	movl   $0xfffffff5,0xc(%ebp)
    5fcd:	c9                   	leave  
    5fce:	e9 1d 8a 00 00       	jmp    e9f0 <async_answer_0@plt>
    5fd3:	8d b6 00 00 00 00    	lea    0x0(%esi),%esi
    5fd9:	8d bc 27 00 00 00 00 	lea    0x0(%edi,%eiz,1),%edi

00005fe0 <remote_hw_res_dma_channel_remain>:
    5fe0:	55                   	push   %ebp
    5fe1:	89 e5                	mov    %esp,%ebp
    5fe3:	83 ec 18             	sub    $0x18,%esp
    5fe6:	8b 45 0c             	mov    0xc(%ebp),%eax
    5fe9:	8b 50 08             	mov    0x8(%eax),%edx
    5fec:	85 d2                	test   %edx,%edx
    5fee:	74 30                	je     6020 <remote_hw_res_dma_channel_remain+0x40>
    5ff0:	8b 55 14             	mov    0x14(%ebp),%edx
    5ff3:	c7 45 f4 00 00 00 00 	movl   $0x0,-0xc(%ebp)
    5ffa:	8b 52 08             	mov    0x8(%edx),%edx
    5ffd:	51                   	push   %ecx
    5ffe:	8d 4d f4             	lea    -0xc(%ebp),%ecx
    6001:	51                   	push   %ecx
    6002:	52                   	push   %edx
    6003:	8b 55 08             	mov    0x8(%ebp),%edx
    6006:	52                   	push   %edx
    6007:	ff 50 0c             	call   *0xc(%eax)
    600a:	83 c4 0c             	add    $0xc,%esp
    600d:	8b 4d f4             	mov    -0xc(%ebp),%ecx
    6010:	51                   	push   %ecx
    6011:	50                   	push   %eax
    6012:	8b 45 10             	mov    0x10(%ebp),%eax
    6015:	50                   	push   %eax
    6016:	e8 a5 8c 00 00       	call   ecc0 <async_answer_1@plt>
    601b:	83 c4 10             	add    $0x10,%esp
    601e:	c9                   	leave  
    601f:	c3                   	ret    
    6020:	50                   	push   %eax
    6021:	50                   	push   %eax
    6022:	8b 45 10             	mov    0x10(%ebp),%eax
    6025:	6a f5                	push   $0xfffffff5
    6027:	50                   	push   %eax
    6028:	e8 c3 89 00 00       	call   e9f0 <async_answer_0@plt>
    602d:	83 c4 10             	add    $0x10,%esp
    6030:	c9                   	leave  
    6031:	c3                   	ret    
    6032:	8d b4 26 00 00 00 00 	lea    0x0(%esi,%eiz,1),%esi
    6039:	8d bc 27 00 00 00 00 	lea    0x0(%edi,%eiz,1),%edi

00006040 <remote_hw_res_get_resource_list>:
    6040:	55                   	push   %ebp
    6041:	89 e5                	mov    %esp,%ebp
    6043:	53                   	push   %ebx
    6044:	83 ec 14             	sub    $0x14,%esp
    6047:	8b 45 0c             	mov    0xc(%ebp),%eax
    604a:	8b 00                	mov    (%eax),%eax
    604c:	85 c0                	test   %eax,%eax
    604e:	74 40                	je     6090 <remote_hw_res_get_resource_list+0x50>
    6050:	83 ec 0c             	sub    $0xc,%esp
    6053:	8b 55 08             	mov    0x8(%ebp),%edx
    6056:	52                   	push   %edx
    6057:	ff d0                	call   *%eax
    6059:	83 c4 10             	add    $0x10,%esp
    605c:	89 c3                	mov    %eax,%ebx
    605e:	85 c0                	test   %eax,%eax
    6060:	74 66                	je     60c8 <remote_hw_res_get_resource_list+0x88>
    6062:	50                   	push   %eax
    6063:	8b 03                	mov    (%ebx),%eax
    6065:	50                   	push   %eax
    6066:	8b 45 10             	mov    0x10(%ebp),%eax
    6069:	6a 00                	push   $0x0
    606b:	50                   	push   %eax
    606c:	e8 4f 8c 00 00       	call   ecc0 <async_answer_1@plt>
    6071:	58                   	pop    %eax
    6072:	8d 45 f4             	lea    -0xc(%ebp),%eax
    6075:	5a                   	pop    %edx
    6076:	50                   	push   %eax
    6077:	8d 45 10             	lea    0x10(%ebp),%eax
    607a:	50                   	push   %eax
    607b:	e8 a0 8b 00 00       	call   ec20 <async_data_read_receive@plt>
    6080:	83 c4 10             	add    $0x10,%esp
    6083:	84 c0                	test   %al,%al
    6085:	75 21                	jne    60a8 <remote_hw_res_get_resource_list+0x68>
    6087:	8b 5d fc             	mov    -0x4(%ebp),%ebx
    608a:	c9                   	leave  
    608b:	c3                   	ret    
    608c:	8d 74 26 00          	lea    0x0(%esi,%eiz,1),%esi
    6090:	8b 5d 10             	mov    0x10(%ebp),%ebx
    6093:	51                   	push   %ecx
    6094:	51                   	push   %ecx
    6095:	6a f5                	push   $0xfffffff5
    6097:	53                   	push   %ebx
    6098:	e8 53 89 00 00       	call   e9f0 <async_answer_0@plt>
    609d:	83 c4 10             	add    $0x10,%esp
    60a0:	8b 5d fc             	mov    -0x4(%ebp),%ebx
    60a3:	c9                   	leave  
    60a4:	c3                   	ret    
    60a5:	8d 76 00             	lea    0x0(%esi),%esi
    60a8:	50                   	push   %eax
    60a9:	8b 55 f4             	mov    -0xc(%ebp),%edx
    60ac:	8b 4b 04             	mov    0x4(%ebx),%ecx
    60af:	8b 5d 10             	mov    0x10(%ebp),%ebx
    60b2:	52                   	push   %edx
    60b3:	51                   	push   %ecx
    60b4:	53                   	push   %ebx
    60b5:	e8 c6 88 00 00       	call   e980 <async_data_read_finalize@plt>
    60ba:	83 c4 10             	add    $0x10,%esp
    60bd:	8b 5d fc             	mov    -0x4(%ebp),%ebx
    60c0:	c9                   	leave  
    60c1:	c3                   	ret    
    60c2:	8d b6 00 00 00 00    	lea    0x0(%esi),%esi
    60c8:	8b 5d 10             	mov    0x10(%ebp),%ebx
    60cb:	51                   	push   %ecx
    60cc:	51                   	push   %ecx
    60cd:	6a ff                	push   $0xffffffff
    60cf:	53                   	push   %ebx
    60d0:	e8 1b 89 00 00       	call   e9f0 <async_answer_0@plt>
    60d5:	83 c4 10             	add    $0x10,%esp
    60d8:	8b 5d fc             	mov    -0x4(%ebp),%ebx
    60db:	c9                   	leave  
    60dc:	c3                   	ret    
    60dd:	66 90                	xchg   %ax,%ax
    60df:	90                   	nop

000060e0 <remote_pio_window_get>:
    60e0:	55                   	push   %ebp
    60e1:	89 e5                	mov    %esp,%ebp
    60e3:	53                   	push   %ebx
    60e4:	83 ec 14             	sub    $0x14,%esp
    60e7:	8b 45 0c             	mov    0xc(%ebp),%eax
    60ea:	8b 00                	mov    (%eax),%eax
    60ec:	85 c0                	test   %eax,%eax
    60ee:	74 40                	je     6130 <remote_pio_window_get+0x50>
    60f0:	83 ec 0c             	sub    $0xc,%esp
    60f3:	8b 55 08             	mov    0x8(%ebp),%edx
    60f6:	52                   	push   %edx
    60f7:	ff d0                	call   *%eax
    60f9:	83 c4 10             	add    $0x10,%esp
    60fc:	89 c3                	mov    %eax,%ebx
    60fe:	85 c0                	test   %eax,%eax
    6100:	74 5e                	je     6160 <remote_pio_window_get+0x80>
    6102:	50                   	push   %eax
    6103:	50                   	push   %eax
    6104:	8b 45 10             	mov    0x10(%ebp),%eax
    6107:	6a 00                	push   $0x0
    6109:	50                   	push   %eax
    610a:	e8 e1 88 00 00       	call   e9f0 <async_answer_0@plt>
    610f:	58                   	pop    %eax
    6110:	8d 45 f4             	lea    -0xc(%ebp),%eax
    6113:	5a                   	pop    %edx
    6114:	50                   	push   %eax
    6115:	8d 45 10             	lea    0x10(%ebp),%eax
    6118:	50                   	push   %eax
    6119:	e8 02 8b 00 00       	call   ec20 <async_data_read_receive@plt>
    611e:	83 c4 10             	add    $0x10,%esp
    6121:	84 c0                	test   %al,%al
    6123:	75 23                	jne    6148 <remote_pio_window_get+0x68>
    6125:	8b 5d fc             	mov    -0x4(%ebp),%ebx
    6128:	c9                   	leave  
    6129:	c3                   	ret    
    612a:	8d b6 00 00 00 00    	lea    0x0(%esi),%esi
    6130:	8b 5d 10             	mov    0x10(%ebp),%ebx
    6133:	51                   	push   %ecx
    6134:	51                   	push   %ecx
    6135:	6a f5                	push   $0xfffffff5
    6137:	53                   	push   %ebx
    6138:	e8 b3 88 00 00       	call   e9f0 <async_answer_0@plt>
    613d:	83 c4 10             	add    $0x10,%esp
    6140:	8b 5d fc             	mov    -0x4(%ebp),%ebx
    6143:	c9                   	leave  
    6144:	c3                   	ret    
    6145:	8d 76 00             	lea    0x0(%esi),%esi
    6148:	8b 55 f4             	mov    -0xc(%ebp),%edx
    614b:	8b 4d 10             	mov    0x10(%ebp),%ecx
    614e:	50                   	push   %eax
    614f:	52                   	push   %edx
    6150:	53                   	push   %ebx
    6151:	51                   	push   %ecx
    6152:	e8 29 88 00 00       	call   e980 <async_data_read_finalize@plt>
    6157:	83 c4 10             	add    $0x10,%esp
    615a:	8b 5d fc             	mov    -0x4(%ebp),%ebx
    615d:	c9                   	leave  
    615e:	c3                   	ret    
    615f:	90                   	nop
    6160:	8b 5d 10             	mov    0x10(%ebp),%ebx
    6163:	51                   	push   %ecx
    6164:	51                   	push   %ecx
    6165:	6a ff                	push   $0xffffffff
    6167:	53                   	push   %ebx
    6168:	e8 83 88 00 00       	call   e9f0 <async_answer_0@plt>
    616d:	83 c4 10             	add    $0x10,%esp
    6170:	8b 5d fc             	mov    -0x4(%ebp),%ebx
    6173:	c9                   	leave  
    6174:	c3                   	ret    
    6175:	66 90                	xchg   %ax,%ax
    6177:	66 90                	xchg   %ax,%ax
    6179:	66 90                	xchg   %ax,%ax
    617b:	66 90                	xchg   %ax,%ax
    617d:	66 90                	xchg   %ax,%ax
    617f:	90                   	nop

00006180 <remote_char_write>:
    6180:	55                   	push   %ebp
    6181:	89 e5                	mov    %esp,%ebp
    6183:	56                   	push   %esi
    6184:	53                   	push   %ebx
    6185:	81 ec 18 01 00 00    	sub    $0x118,%esp
    618b:	8d 85 f4 fe ff ff    	lea    -0x10c(%ebp),%eax
    6191:	8b 5d 0c             	mov    0xc(%ebp),%ebx
    6194:	50                   	push   %eax
    6195:	8d 85 f0 fe ff ff    	lea    -0x110(%ebp),%eax
    619b:	50                   	push   %eax
    619c:	e8 2f 8c 00 00       	call   edd0 <async_data_write_receive@plt>
    61a1:	83 c4 10             	add    $0x10,%esp
    61a4:	84 c0                	test   %al,%al
    61a6:	74 70                	je     6218 <remote_char_write+0x98>
    61a8:	8b 73 04             	mov    0x4(%ebx),%esi
    61ab:	85 f6                	test   %esi,%esi
    61ad:	0f 84 95 00 00 00    	je     6248 <remote_char_write+0xc8>
    61b3:	8b 85 f4 fe ff ff    	mov    -0x10c(%ebp),%eax
    61b9:	3d 00 01 00 00       	cmp    $0x100,%eax
    61be:	76 0f                	jbe    61cf <remote_char_write+0x4f>
    61c0:	c7 85 f4 fe ff ff 00 	movl   $0x100,-0x10c(%ebp)
    61c7:	01 00 00 
    61ca:	b8 00 01 00 00       	mov    $0x100,%eax
    61cf:	8b 8d f0 fe ff ff    	mov    -0x110(%ebp),%ecx
    61d5:	8d b5 f8 fe ff ff    	lea    -0x108(%ebp),%esi
    61db:	52                   	push   %edx
    61dc:	50                   	push   %eax
    61dd:	56                   	push   %esi
    61de:	51                   	push   %ecx
    61df:	e8 5c 8b 00 00       	call   ed40 <async_data_write_finalize@plt>
    61e4:	83 c4 0c             	add    $0xc,%esp
    61e7:	8b 85 f4 fe ff ff    	mov    -0x10c(%ebp),%eax
    61ed:	50                   	push   %eax
    61ee:	8b 45 08             	mov    0x8(%ebp),%eax
    61f1:	56                   	push   %esi
    61f2:	50                   	push   %eax
    61f3:	ff 53 04             	call   *0x4(%ebx)
    61f6:	83 c4 10             	add    $0x10,%esp
    61f9:	85 c0                	test   %eax,%eax
    61fb:	78 33                	js     6230 <remote_char_write+0xb0>
    61fd:	8b 4d 10             	mov    0x10(%ebp),%ecx
    6200:	52                   	push   %edx
    6201:	50                   	push   %eax
    6202:	6a 00                	push   $0x0
    6204:	51                   	push   %ecx
    6205:	e8 b6 8a 00 00       	call   ecc0 <async_answer_1@plt>
    620a:	83 c4 10             	add    $0x10,%esp
    620d:	8d 65 f8             	lea    -0x8(%ebp),%esp
    6210:	5b                   	pop    %ebx
    6211:	5e                   	pop    %esi
    6212:	5d                   	pop    %ebp
    6213:	c3                   	ret    
    6214:	8d 74 26 00          	lea    0x0(%esi,%eiz,1),%esi
    6218:	50                   	push   %eax
    6219:	50                   	push   %eax
    621a:	8b 45 10             	mov    0x10(%ebp),%eax
    621d:	6a f2                	push   $0xfffffff2
    621f:	50                   	push   %eax
    6220:	e8 cb 87 00 00       	call   e9f0 <async_answer_0@plt>
    6225:	83 c4 10             	add    $0x10,%esp
    6228:	8d 65 f8             	lea    -0x8(%ebp),%esp
    622b:	5b                   	pop    %ebx
    622c:	5e                   	pop    %esi
    622d:	5d                   	pop    %ebp
    622e:	c3                   	ret    
    622f:	90                   	nop
    6230:	8b 75 10             	mov    0x10(%ebp),%esi
    6233:	53                   	push   %ebx
    6234:	53                   	push   %ebx
    6235:	50                   	push   %eax
    6236:	56                   	push   %esi
    6237:	e8 b4 87 00 00       	call   e9f0 <async_answer_0@plt>
    623c:	83 c4 10             	add    $0x10,%esp
    623f:	8d 65 f8             	lea    -0x8(%ebp),%esp
    6242:	5b                   	pop    %ebx
    6243:	5e                   	pop    %esi
    6244:	5d                   	pop    %ebp
    6245:	c3                   	ret    
    6246:	66 90                	xchg   %ax,%ax
    6248:	50                   	push   %eax
    6249:	8b 85 f0 fe ff ff    	mov    -0x110(%ebp),%eax
    624f:	6a 00                	push   $0x0
    6251:	6a 00                	push   $0x0
    6253:	50                   	push   %eax
    6254:	e8 e7 8a 00 00       	call   ed40 <async_data_write_finalize@plt>
    6259:	8b 4d 10             	mov    0x10(%ebp),%ecx
    625c:	58                   	pop    %eax
    625d:	5a                   	pop    %edx
    625e:	6a f5                	push   $0xfffffff5
    6260:	51                   	push   %ecx
    6261:	e8 8a 87 00 00       	call   e9f0 <async_answer_0@plt>
    6266:	83 c4 10             	add    $0x10,%esp
    6269:	eb a2                	jmp    620d <remote_char_write+0x8d>
    626b:	90                   	nop
    626c:	8d 74 26 00          	lea    0x0(%esi,%eiz,1),%esi

00006270 <remote_char_read>:
    6270:	55                   	push   %ebp
    6271:	89 e5                	mov    %esp,%ebp
    6273:	56                   	push   %esi
    6274:	53                   	push   %ebx
    6275:	81 ec 18 01 00 00    	sub    $0x118,%esp
    627b:	8d 85 f4 fe ff ff    	lea    -0x10c(%ebp),%eax
    6281:	50                   	push   %eax
    6282:	8d 85 f0 fe ff ff    	lea    -0x110(%ebp),%eax
    6288:	50                   	push   %eax
    6289:	e8 92 89 00 00       	call   ec20 <async_data_read_receive@plt>
    628e:	83 c4 10             	add    $0x10,%esp
    6291:	84 c0                	test   %al,%al
    6293:	0f 84 97 00 00 00    	je     6330 <remote_char_read+0xc0>
    6299:	8b 45 0c             	mov    0xc(%ebp),%eax
    629c:	8b 10                	mov    (%eax),%edx
    629e:	85 d2                	test   %edx,%edx
    62a0:	0f 84 a2 00 00 00    	je     6348 <remote_char_read+0xd8>
    62a6:	8b 85 f4 fe ff ff    	mov    -0x10c(%ebp),%eax
    62ac:	3d 00 01 00 00       	cmp    $0x100,%eax
    62b1:	76 0f                	jbe    62c2 <remote_char_read+0x52>
    62b3:	c7 85 f4 fe ff ff 00 	movl   $0x100,-0x10c(%ebp)
    62ba:	01 00 00 
    62bd:	b8 00 01 00 00       	mov    $0x100,%eax
    62c2:	8d b5 f8 fe ff ff    	lea    -0x108(%ebp),%esi
    62c8:	53                   	push   %ebx
    62c9:	50                   	push   %eax
    62ca:	8b 45 08             	mov    0x8(%ebp),%eax
    62cd:	56                   	push   %esi
    62ce:	50                   	push   %eax
    62cf:	ff d2                	call   *%edx
    62d1:	83 c4 10             	add    $0x10,%esp
    62d4:	89 c3                	mov    %eax,%ebx
    62d6:	85 c0                	test   %eax,%eax
    62d8:	78 2e                	js     6308 <remote_char_read+0x98>
    62da:	8b 95 f0 fe ff ff    	mov    -0x110(%ebp),%edx
    62e0:	50                   	push   %eax
    62e1:	53                   	push   %ebx
    62e2:	56                   	push   %esi
    62e3:	52                   	push   %edx
    62e4:	e8 97 86 00 00       	call   e980 <async_data_read_finalize@plt>
    62e9:	83 c4 0c             	add    $0xc,%esp
    62ec:	8b 4d 10             	mov    0x10(%ebp),%ecx
    62ef:	53                   	push   %ebx
    62f0:	6a 00                	push   $0x0
    62f2:	51                   	push   %ecx
    62f3:	e8 c8 89 00 00       	call   ecc0 <async_answer_1@plt>
    62f8:	83 c4 10             	add    $0x10,%esp
    62fb:	8d 65 f8             	lea    -0x8(%ebp),%esp
    62fe:	5b                   	pop    %ebx
    62ff:	5e                   	pop    %esi
    6300:	5d                   	pop    %ebp
    6301:	c3                   	ret    
    6302:	8d b6 00 00 00 00    	lea    0x0(%esi),%esi
    6308:	50                   	push   %eax
    6309:	8b 85 f0 fe ff ff    	mov    -0x110(%ebp),%eax
    630f:	6a 00                	push   $0x0
    6311:	56                   	push   %esi
    6312:	50                   	push   %eax
    6313:	e8 68 86 00 00       	call   e980 <async_data_read_finalize@plt>
    6318:	8b 4d 10             	mov    0x10(%ebp),%ecx
    631b:	58                   	pop    %eax
    631c:	5a                   	pop    %edx
    631d:	53                   	push   %ebx
    631e:	51                   	push   %ecx
    631f:	e8 cc 86 00 00       	call   e9f0 <async_answer_0@plt>
    6324:	83 c4 10             	add    $0x10,%esp
    6327:	8d 65 f8             	lea    -0x8(%ebp),%esp
    632a:	5b                   	pop    %ebx
    632b:	5e                   	pop    %esi
    632c:	5d                   	pop    %ebp
    632d:	c3                   	ret    
    632e:	66 90                	xchg   %ax,%ax
    6330:	8b 75 10             	mov    0x10(%ebp),%esi
    6333:	53                   	push   %ebx
    6334:	53                   	push   %ebx
    6335:	6a f2                	push   $0xfffffff2
    6337:	56                   	push   %esi
    6338:	e8 b3 86 00 00       	call   e9f0 <async_answer_0@plt>
    633d:	83 c4 10             	add    $0x10,%esp
    6340:	8d 65 f8             	lea    -0x8(%ebp),%esp
    6343:	5b                   	pop    %ebx
    6344:	5e                   	pop    %esi
    6345:	5d                   	pop    %ebp
    6346:	c3                   	ret    
    6347:	90                   	nop
    6348:	50                   	push   %eax
    6349:	8b 85 f0 fe ff ff    	mov    -0x110(%ebp),%eax
    634f:	6a 00                	push   $0x0
    6351:	6a 00                	push   $0x0
    6353:	50                   	push   %eax
    6354:	e8 27 86 00 00       	call   e980 <async_data_read_finalize@plt>
    6359:	8b 4d 10             	mov    0x10(%ebp),%ecx
    635c:	58                   	pop    %eax
    635d:	5a                   	pop    %edx
    635e:	6a f5                	push   $0xfffffff5
    6360:	51                   	push   %ecx
    6361:	e8 8a 86 00 00       	call   e9f0 <async_answer_0@plt>
    6366:	83 c4 10             	add    $0x10,%esp
    6369:	eb 90                	jmp    62fb <remote_char_read+0x8b>
    636b:	90                   	nop
    636c:	8d 74 26 00          	lea    0x0(%esi,%eiz,1),%esi

00006370 <char_dev_read>:
    6370:	55                   	push   %ebp
    6371:	89 e5                	mov    %esp,%ebp
    6373:	56                   	push   %esi
    6374:	53                   	push   %ebx
    6375:	83 ec 4c             	sub    $0x4c,%esp
    6378:	8b 4d 08             	mov    0x8(%ebp),%ecx
    637b:	51                   	push   %ecx
    637c:	e8 4f 89 00 00       	call   ecd0 <async_exchange_begin@plt>
    6381:	83 c4 0c             	add    $0xc,%esp
    6384:	89 c3                	mov    %eax,%ebx
    6386:	8d 45 d4             	lea    -0x2c(%ebp),%eax
    6389:	50                   	push   %eax
    638a:	6a 00                	push   $0x0
    638c:	6a 00                	push   $0x0
    638e:	6a 00                	push   $0x0
    6390:	6a 00                	push   $0x0
    6392:	68 02 04 00 00       	push   $0x402
    6397:	53                   	push   %ebx
    6398:	e8 63 86 00 00       	call   ea00 <async_send_fast@plt>
    639d:	83 c4 1c             	add    $0x1c,%esp
    63a0:	89 c6                	mov    %eax,%esi
    63a2:	8b 45 10             	mov    0x10(%ebp),%eax
    63a5:	50                   	push   %eax
    63a6:	8b 45 0c             	mov    0xc(%ebp),%eax
    63a9:	50                   	push   %eax
    63aa:	53                   	push   %ebx
    63ab:	e8 80 88 00 00       	call   ec30 <async_data_read_start@plt>
    63b0:	89 1c 24             	mov    %ebx,(%esp)
    63b3:	89 45 c4             	mov    %eax,-0x3c(%ebp)
    63b6:	e8 c5 86 00 00       	call   ea80 <async_exchange_end@plt>
    63bb:	8b 45 c4             	mov    -0x3c(%ebp),%eax
    63be:	83 c4 10             	add    $0x10,%esp
    63c1:	85 c0                	test   %eax,%eax
    63c3:	74 23                	je     63e8 <char_dev_read+0x78>
    63c5:	52                   	push   %edx
    63c6:	52                   	push   %edx
    63c7:	8d 55 d0             	lea    -0x30(%ebp),%edx
    63ca:	52                   	push   %edx
    63cb:	56                   	push   %esi
    63cc:	e8 3f 85 00 00       	call   e910 <async_wait_for@plt>
    63d1:	8b 55 d0             	mov    -0x30(%ebp),%edx
    63d4:	83 c4 10             	add    $0x10,%esp
    63d7:	8b 45 c4             	mov    -0x3c(%ebp),%eax
    63da:	85 d2                	test   %edx,%edx
    63dc:	75 2a                	jne    6408 <char_dev_read+0x98>
    63de:	8d 65 f8             	lea    -0x8(%ebp),%esp
    63e1:	5b                   	pop    %ebx
    63e2:	5e                   	pop    %esi
    63e3:	5d                   	pop    %ebp
    63e4:	c3                   	ret    
    63e5:	8d 76 00             	lea    0x0(%esi),%esi
    63e8:	50                   	push   %eax
    63e9:	50                   	push   %eax
    63ea:	8d 45 d0             	lea    -0x30(%ebp),%eax
    63ed:	50                   	push   %eax
    63ee:	56                   	push   %esi
    63ef:	e8 1c 85 00 00       	call   e910 <async_wait_for@plt>
    63f4:	8b 45 d0             	mov    -0x30(%ebp),%eax
    63f7:	83 c4 10             	add    $0x10,%esp
    63fa:	85 c0                	test   %eax,%eax
    63fc:	75 e0                	jne    63de <char_dev_read+0x6e>
    63fe:	8b 45 d8             	mov    -0x28(%ebp),%eax
    6401:	8d 65 f8             	lea    -0x8(%ebp),%esp
    6404:	5b                   	pop    %ebx
    6405:	5e                   	pop    %esi
    6406:	5d                   	pop    %ebp
    6407:	c3                   	ret    
    6408:	8d 65 f8             	lea    -0x8(%ebp),%esp
    640b:	89 d0                	mov    %edx,%eax
    640d:	5b                   	pop    %ebx
    640e:	5e                   	pop    %esi
    640f:	5d                   	pop    %ebp
    6410:	c3                   	ret    
    6411:	eb 0d                	jmp    6420 <char_dev_write>
    6413:	90                   	nop
    6414:	90                   	nop
    6415:	90                   	nop
    6416:	90                   	nop
    6417:	90                   	nop
    6418:	90                   	nop
    6419:	90                   	nop
    641a:	90                   	nop
    641b:	90                   	nop
    641c:	90                   	nop
    641d:	90                   	nop
    641e:	90                   	nop
    641f:	90                   	nop

00006420 <char_dev_write>:
    6420:	55                   	push   %ebp
    6421:	89 e5                	mov    %esp,%ebp
    6423:	56                   	push   %esi
    6424:	53                   	push   %ebx
    6425:	83 ec 4c             	sub    $0x4c,%esp
    6428:	8b 4d 08             	mov    0x8(%ebp),%ecx
    642b:	51                   	push   %ecx
    642c:	e8 9f 88 00 00       	call   ecd0 <async_exchange_begin@plt>
    6431:	83 c4 0c             	add    $0xc,%esp
    6434:	89 c3                	mov    %eax,%ebx
    6436:	8d 45 d4             	lea    -0x2c(%ebp),%eax
    6439:	50                   	push   %eax
    643a:	6a 00                	push   $0x0
    643c:	6a 00                	push   $0x0
    643e:	6a 00                	push   $0x0
    6440:	6a 01                	push   $0x1
    6442:	68 02 04 00 00       	push   $0x402
    6447:	53                   	push   %ebx
    6448:	e8 b3 85 00 00       	call   ea00 <async_send_fast@plt>
    644d:	83 c4 1c             	add    $0x1c,%esp
    6450:	89 c6                	mov    %eax,%esi
    6452:	8b 45 10             	mov    0x10(%ebp),%eax
    6455:	50                   	push   %eax
    6456:	8b 45 0c             	mov    0xc(%ebp),%eax
    6459:	50                   	push   %eax
    645a:	53                   	push   %ebx
    645b:	e8 f0 84 00 00       	call   e950 <async_data_write_start@plt>
    6460:	89 1c 24             	mov    %ebx,(%esp)
    6463:	89 45 c4             	mov    %eax,-0x3c(%ebp)
    6466:	e8 15 86 00 00       	call   ea80 <async_exchange_end@plt>
    646b:	8b 45 c4             	mov    -0x3c(%ebp),%eax
    646e:	83 c4 10             	add    $0x10,%esp
    6471:	85 c0                	test   %eax,%eax
    6473:	74 23                	je     6498 <char_dev_write+0x78>
    6475:	52                   	push   %edx
    6476:	52                   	push   %edx
    6477:	8d 55 d0             	lea    -0x30(%ebp),%edx
    647a:	52                   	push   %edx
    647b:	56                   	push   %esi
    647c:	e8 8f 84 00 00       	call   e910 <async_wait_for@plt>
    6481:	8b 55 d0             	mov    -0x30(%ebp),%edx
    6484:	83 c4 10             	add    $0x10,%esp
    6487:	8b 45 c4             	mov    -0x3c(%ebp),%eax
    648a:	85 d2                	test   %edx,%edx
    648c:	75 2a                	jne    64b8 <char_dev_write+0x98>
    648e:	8d 65 f8             	lea    -0x8(%ebp),%esp
    6491:	5b                   	pop    %ebx
    6492:	5e                   	pop    %esi
    6493:	5d                   	pop    %ebp
    6494:	c3                   	ret    
    6495:	8d 76 00             	lea    0x0(%esi),%esi
    6498:	50                   	push   %eax
    6499:	50                   	push   %eax
    649a:	8d 45 d0             	lea    -0x30(%ebp),%eax
    649d:	50                   	push   %eax
    649e:	56                   	push   %esi
    649f:	e8 6c 84 00 00       	call   e910 <async_wait_for@plt>
    64a4:	8b 45 d0             	mov    -0x30(%ebp),%eax
    64a7:	83 c4 10             	add    $0x10,%esp
    64aa:	85 c0                	test   %eax,%eax
    64ac:	75 e0                	jne    648e <char_dev_write+0x6e>
    64ae:	8b 45 d8             	mov    -0x28(%ebp),%eax
    64b1:	8d 65 f8             	lea    -0x8(%ebp),%esp
    64b4:	5b                   	pop    %ebx
    64b5:	5e                   	pop    %esi
    64b6:	5d                   	pop    %ebp
    64b7:	c3                   	ret    
    64b8:	8d 65 f8             	lea    -0x8(%ebp),%esp
    64bb:	89 d0                	mov    %edx,%eax
    64bd:	5b                   	pop    %ebx
    64be:	5e                   	pop    %esi
    64bf:	5d                   	pop    %ebp
    64c0:	c3                   	ret    
    64c1:	66 90                	xchg   %ax,%ax
    64c3:	66 90                	xchg   %ax,%ax
    64c5:	66 90                	xchg   %ax,%ax
    64c7:	66 90                	xchg   %ax,%ax
    64c9:	66 90                	xchg   %ax,%ax
    64cb:	66 90                	xchg   %ax,%ax
    64cd:	66 90                	xchg   %ax,%ax
    64cf:	90                   	nop

000064d0 <remote_nic_poll_now>:
    64d0:	55                   	push   %ebp
    64d1:	89 e5                	mov    %esp,%ebp
    64d3:	53                   	push   %ebx
    64d4:	50                   	push   %eax
    64d5:	8b 45 0c             	mov    0xc(%ebp),%eax
    64d8:	8b 55 08             	mov    0x8(%ebp),%edx
    64db:	8b 5d 10             	mov    0x10(%ebp),%ebx
    64de:	8b 80 a0 00 00 00    	mov    0xa0(%eax),%eax
    64e4:	85 c0                	test   %eax,%eax
    64e6:	74 18                	je     6500 <remote_nic_poll_now+0x30>
    64e8:	83 ec 0c             	sub    $0xc,%esp
    64eb:	52                   	push   %edx
    64ec:	ff d0                	call   *%eax
    64ee:	89 5d 08             	mov    %ebx,0x8(%ebp)
    64f1:	83 c4 10             	add    $0x10,%esp
    64f4:	8b 5d fc             	mov    -0x4(%ebp),%ebx
    64f7:	89 45 0c             	mov    %eax,0xc(%ebp)
    64fa:	c9                   	leave  
    64fb:	e9 f0 84 00 00       	jmp    e9f0 <async_answer_0@plt>
    6500:	89 5d 08             	mov    %ebx,0x8(%ebp)
    6503:	8b 5d fc             	mov    -0x4(%ebp),%ebx
    6506:	c7 45 0c f5 ff ff ff 	movl   $0xfffffff5,0xc(%ebp)
    650d:	c9                   	leave  
    650e:	e9 dd 84 00 00       	jmp    e9f0 <async_answer_0@plt>
    6513:	8d b6 00 00 00 00    	lea    0x0(%esi),%esi
    6519:	8d bc 27 00 00 00 00 	lea    0x0(%edi,%eiz,1),%edi

00006520 <remote_nic_offload_set>:
    6520:	55                   	push   %ebp
    6521:	89 e5                	mov    %esp,%ebp
    6523:	53                   	push   %ebx
    6524:	51                   	push   %ecx
    6525:	8b 45 0c             	mov    0xc(%ebp),%eax
    6528:	8b 4d 08             	mov    0x8(%ebp),%ecx
    652b:	8b 5d 10             	mov    0x10(%ebp),%ebx
    652e:	8b 55 14             	mov    0x14(%ebp),%edx
    6531:	8b 80 94 00 00 00    	mov    0x94(%eax),%eax
    6537:	85 c0                	test   %eax,%eax
    6539:	74 25                	je     6560 <remote_nic_offload_set+0x40>
    653b:	83 ec 04             	sub    $0x4,%esp
    653e:	ff 72 0c             	pushl  0xc(%edx)
    6541:	8b 52 08             	mov    0x8(%edx),%edx
    6544:	52                   	push   %edx
    6545:	51                   	push   %ecx
    6546:	ff d0                	call   *%eax
    6548:	89 5d 08             	mov    %ebx,0x8(%ebp)
    654b:	83 c4 10             	add    $0x10,%esp
    654e:	8b 5d fc             	mov    -0x4(%ebp),%ebx
    6551:	89 45 0c             	mov    %eax,0xc(%ebp)
    6554:	c9                   	leave  
    6555:	e9 96 84 00 00       	jmp    e9f0 <async_answer_0@plt>
    655a:	8d b6 00 00 00 00    	lea    0x0(%esi),%esi
    6560:	89 5d 08             	mov    %ebx,0x8(%ebp)
    6563:	8b 5d fc             	mov    -0x4(%ebp),%ebx
    6566:	c7 45 0c f5 ff ff ff 	movl   $0xfffffff5,0xc(%ebp)
    656d:	c9                   	leave  
    656e:	e9 7d 84 00 00       	jmp    e9f0 <async_answer_0@plt>
    6573:	8d b6 00 00 00 00    	lea    0x0(%esi),%esi
    6579:	8d bc 27 00 00 00 00 	lea    0x0(%edi,%eiz,1),%edi

00006580 <remote_nic_wol_virtue_remove>:
    6580:	55                   	push   %ebp
    6581:	89 e5                	mov    %esp,%ebp
    6583:	53                   	push   %ebx
    6584:	53                   	push   %ebx
    6585:	8b 45 0c             	mov    0xc(%ebp),%eax
    6588:	8b 55 08             	mov    0x8(%ebp),%edx
    658b:	8b 5d 10             	mov    0x10(%ebp),%ebx
    658e:	8b 4d 14             	mov    0x14(%ebp),%ecx
    6591:	8b 40 7c             	mov    0x7c(%eax),%eax
    6594:	85 c0                	test   %eax,%eax
    6596:	74 20                	je     65b8 <remote_nic_wol_virtue_remove+0x38>
    6598:	83 ec 08             	sub    $0x8,%esp
    659b:	8b 49 08             	mov    0x8(%ecx),%ecx
    659e:	51                   	push   %ecx
    659f:	52                   	push   %edx
    65a0:	ff d0                	call   *%eax
    65a2:	89 5d 08             	mov    %ebx,0x8(%ebp)
    65a5:	83 c4 10             	add    $0x10,%esp
    65a8:	8b 5d fc             	mov    -0x4(%ebp),%ebx
    65ab:	89 45 0c             	mov    %eax,0xc(%ebp)
    65ae:	c9                   	leave  
    65af:	e9 3c 84 00 00       	jmp    e9f0 <async_answer_0@plt>
    65b4:	8d 74 26 00          	lea    0x0(%esi,%eiz,1),%esi
    65b8:	89 5d 08             	mov    %ebx,0x8(%ebp)
    65bb:	8b 5d fc             	mov    -0x4(%ebp),%ebx
    65be:	c7 45 0c f5 ff ff ff 	movl   $0xfffffff5,0xc(%ebp)
    65c5:	c9                   	leave  
    65c6:	e9 25 84 00 00       	jmp    e9f0 <async_answer_0@plt>
    65cb:	90                   	nop
    65cc:	8d 74 26 00          	lea    0x0(%esi,%eiz,1),%esi

000065d0 <remote_nic_vlan_set_tag>:
    65d0:	55                   	push   %ebp
    65d1:	89 e5                	mov    %esp,%ebp
    65d3:	57                   	push   %edi
    65d4:	56                   	push   %esi
    65d5:	53                   	push   %ebx
    65d6:	83 ec 0c             	sub    $0xc,%esp
    65d9:	8b 55 0c             	mov    0xc(%ebp),%edx
    65dc:	8b 7d 08             	mov    0x8(%ebp),%edi
    65df:	8b 5d 10             	mov    0x10(%ebp),%ebx
    65e2:	8b 45 14             	mov    0x14(%ebp),%eax
    65e5:	8b 52 74             	mov    0x74(%edx),%edx
    65e8:	85 d2                	test   %edx,%edx
    65ea:	74 3c                	je     6628 <remote_nic_vlan_set_tag+0x58>
    65ec:	8b 70 10             	mov    0x10(%eax),%esi
    65ef:	31 c9                	xor    %ecx,%ecx
    65f1:	85 f6                	test   %esi,%esi
    65f3:	0f 95 c1             	setne  %cl
    65f6:	89 ce                	mov    %ecx,%esi
    65f8:	31 c9                	xor    %ecx,%ecx
    65fa:	56                   	push   %esi
    65fb:	8b 70 0c             	mov    0xc(%eax),%esi
    65fe:	85 f6                	test   %esi,%esi
    6600:	0f 95 c1             	setne  %cl
    6603:	89 ce                	mov    %ecx,%esi
    6605:	56                   	push   %esi
    6606:	8b 48 08             	mov    0x8(%eax),%ecx
    6609:	81 e1 ff ff 00 00    	and    $0xffff,%ecx
    660f:	51                   	push   %ecx
    6610:	57                   	push   %edi
    6611:	ff d2                	call   *%edx
    6613:	89 5d 08             	mov    %ebx,0x8(%ebp)
    6616:	89 45 0c             	mov    %eax,0xc(%ebp)
    6619:	83 c4 10             	add    $0x10,%esp
    661c:	8d 65 f4             	lea    -0xc(%ebp),%esp
    661f:	5b                   	pop    %ebx
    6620:	5e                   	pop    %esi
    6621:	5f                   	pop    %edi
    6622:	5d                   	pop    %ebp
    6623:	e9 c8 83 00 00       	jmp    e9f0 <async_answer_0@plt>
    6628:	89 5d 08             	mov    %ebx,0x8(%ebp)
    662b:	c7 45 0c f5 ff ff ff 	movl   $0xfffffff5,0xc(%ebp)
    6632:	8d 65 f4             	lea    -0xc(%ebp),%esp
    6635:	5b                   	pop    %ebx
    6636:	5e                   	pop    %esi
    6637:	5f                   	pop    %edi
    6638:	5d                   	pop    %ebp
    6639:	e9 b2 83 00 00       	jmp    e9f0 <async_answer_0@plt>
    663e:	66 90                	xchg   %ax,%ax

00006640 <remote_nic_defective_set_mode>:
    6640:	55                   	push   %ebp
    6641:	89 e5                	mov    %esp,%ebp
    6643:	53                   	push   %ebx
    6644:	53                   	push   %ebx
    6645:	8b 45 0c             	mov    0xc(%ebp),%eax
    6648:	8b 55 08             	mov    0x8(%ebp),%edx
    664b:	8b 5d 10             	mov    0x10(%ebp),%ebx
    664e:	8b 4d 14             	mov    0x14(%ebp),%ecx
    6651:	8b 40 60             	mov    0x60(%eax),%eax
    6654:	85 c0                	test   %eax,%eax
    6656:	74 20                	je     6678 <remote_nic_defective_set_mode+0x38>
    6658:	83 ec 08             	sub    $0x8,%esp
    665b:	8b 49 08             	mov    0x8(%ecx),%ecx
    665e:	51                   	push   %ecx
    665f:	52                   	push   %edx
    6660:	ff d0                	call   *%eax
    6662:	89 5d 08             	mov    %ebx,0x8(%ebp)
    6665:	83 c4 10             	add    $0x10,%esp
    6668:	8b 5d fc             	mov    -0x4(%ebp),%ebx
    666b:	89 45 0c             	mov    %eax,0xc(%ebp)
    666e:	c9                   	leave  
    666f:	e9 7c 83 00 00       	jmp    e9f0 <async_answer_0@plt>
    6674:	8d 74 26 00          	lea    0x0(%esi,%eiz,1),%esi
    6678:	89 5d 08             	mov    %ebx,0x8(%ebp)
    667b:	8b 5d fc             	mov    -0x4(%ebp),%ebx
    667e:	c7 45 0c f5 ff ff ff 	movl   $0xfffffff5,0xc(%ebp)
    6685:	c9                   	leave  
    6686:	e9 65 83 00 00       	jmp    e9f0 <async_answer_0@plt>
    668b:	90                   	nop
    668c:	8d 74 26 00          	lea    0x0(%esi,%eiz,1),%esi

00006690 <remote_nic_broadcast_set_mode>:
    6690:	55                   	push   %ebp
    6691:	89 e5                	mov    %esp,%ebp
    6693:	53                   	push   %ebx
    6694:	53                   	push   %ebx
    6695:	8b 45 0c             	mov    0xc(%ebp),%eax
    6698:	8b 55 08             	mov    0x8(%ebp),%edx
    669b:	8b 5d 10             	mov    0x10(%ebp),%ebx
    669e:	8b 4d 14             	mov    0x14(%ebp),%ecx
    66a1:	8b 40 58             	mov    0x58(%eax),%eax
    66a4:	85 c0                	test   %eax,%eax
    66a6:	74 20                	je     66c8 <remote_nic_broadcast_set_mode+0x38>
    66a8:	83 ec 08             	sub    $0x8,%esp
    66ab:	8b 49 08             	mov    0x8(%ecx),%ecx
    66ae:	51                   	push   %ecx
    66af:	52                   	push   %edx
    66b0:	ff d0                	call   *%eax
    66b2:	89 5d 08             	mov    %ebx,0x8(%ebp)
    66b5:	83 c4 10             	add    $0x10,%esp
    66b8:	8b 5d fc             	mov    -0x4(%ebp),%ebx
    66bb:	89 45 0c             	mov    %eax,0xc(%ebp)
    66be:	c9                   	leave  
    66bf:	e9 2c 83 00 00       	jmp    e9f0 <async_answer_0@plt>
    66c4:	8d 74 26 00          	lea    0x0(%esi,%eiz,1),%esi
    66c8:	89 5d 08             	mov    %ebx,0x8(%ebp)
    66cb:	8b 5d fc             	mov    -0x4(%ebp),%ebx
    66ce:	c7 45 0c f5 ff ff ff 	movl   $0xfffffff5,0xc(%ebp)
    66d5:	c9                   	leave  
    66d6:	e9 15 83 00 00       	jmp    e9f0 <async_answer_0@plt>
    66db:	90                   	nop
    66dc:	8d 74 26 00          	lea    0x0(%esi,%eiz,1),%esi

000066e0 <remote_nic_set_pause>:
    66e0:	55                   	push   %ebp
    66e1:	89 e5                	mov    %esp,%ebp
    66e3:	56                   	push   %esi
    66e4:	53                   	push   %ebx
    66e5:	8b 55 0c             	mov    0xc(%ebp),%edx
    66e8:	8b 4d 08             	mov    0x8(%ebp),%ecx
    66eb:	8b 5d 10             	mov    0x10(%ebp),%ebx
    66ee:	8b 45 14             	mov    0x14(%ebp),%eax
    66f1:	8b 52 40             	mov    0x40(%edx),%edx
    66f4:	85 d2                	test   %edx,%edx
    66f6:	74 28                	je     6720 <remote_nic_set_pause+0x40>
    66f8:	31 f6                	xor    %esi,%esi
    66fa:	66 8b 70 10          	mov    0x10(%eax),%si
    66fe:	56                   	push   %esi
    66ff:	8b 70 0c             	mov    0xc(%eax),%esi
    6702:	56                   	push   %esi
    6703:	8b 40 08             	mov    0x8(%eax),%eax
    6706:	50                   	push   %eax
    6707:	51                   	push   %ecx
    6708:	ff d2                	call   *%edx
    670a:	89 5d 08             	mov    %ebx,0x8(%ebp)
    670d:	89 45 0c             	mov    %eax,0xc(%ebp)
    6710:	83 c4 10             	add    $0x10,%esp
    6713:	8d 65 f8             	lea    -0x8(%ebp),%esp
    6716:	5b                   	pop    %ebx
    6717:	5e                   	pop    %esi
    6718:	5d                   	pop    %ebp
    6719:	e9 d2 82 00 00       	jmp    e9f0 <async_answer_0@plt>
    671e:	66 90                	xchg   %ax,%ax
    6720:	89 5d 08             	mov    %ebx,0x8(%ebp)
    6723:	c7 45 0c f5 ff ff ff 	movl   $0xfffffff5,0xc(%ebp)
    672a:	8d 65 f8             	lea    -0x8(%ebp),%esp
    672d:	5b                   	pop    %ebx
    672e:	5e                   	pop    %esi
    672f:	5d                   	pop    %ebp
    6730:	e9 bb 82 00 00       	jmp    e9f0 <async_answer_0@plt>
    6735:	8d 74 26 00          	lea    0x0(%esi,%eiz,1),%esi
    6739:	8d bc 27 00 00 00 00 	lea    0x0(%edi,%eiz,1),%edi

00006740 <remote_nic_autoneg_restart>:
    6740:	55                   	push   %ebp
    6741:	89 e5                	mov    %esp,%ebp
    6743:	53                   	push   %ebx
    6744:	50                   	push   %eax
    6745:	8b 45 0c             	mov    0xc(%ebp),%eax
    6748:	8b 55 08             	mov    0x8(%ebp),%edx
    674b:	8b 5d 10             	mov    0x10(%ebp),%ebx
    674e:	8b 40 38             	mov    0x38(%eax),%eax
    6751:	85 c0                	test   %eax,%eax
    6753:	74 1b                	je     6770 <remote_nic_autoneg_restart+0x30>
    6755:	83 ec 0c             	sub    $0xc,%esp
    6758:	52                   	push   %edx
    6759:	ff d0                	call   *%eax
    675b:	89 5d 08             	mov    %ebx,0x8(%ebp)
    675e:	83 c4 10             	add    $0x10,%esp
    6761:	8b 5d fc             	mov    -0x4(%ebp),%ebx
    6764:	89 45 0c             	mov    %eax,0xc(%ebp)
    6767:	c9                   	leave  
    6768:	e9 83 82 00 00       	jmp    e9f0 <async_answer_0@plt>
    676d:	8d 76 00             	lea    0x0(%esi),%esi
    6770:	89 5d 08             	mov    %ebx,0x8(%ebp)
    6773:	8b 5d fc             	mov    -0x4(%ebp),%ebx
    6776:	c7 45 0c f5 ff ff ff 	movl   $0xfffffff5,0xc(%ebp)
    677d:	c9                   	leave  
    677e:	e9 6d 82 00 00       	jmp    e9f0 <async_answer_0@plt>
    6783:	8d b6 00 00 00 00    	lea    0x0(%esi),%esi
    6789:	8d bc 27 00 00 00 00 	lea    0x0(%edi,%eiz,1),%edi

00006790 <remote_nic_autoneg_disable>:
    6790:	55                   	push   %ebp
    6791:	89 e5                	mov    %esp,%ebp
    6793:	53                   	push   %ebx
    6794:	50                   	push   %eax
    6795:	8b 45 0c             	mov    0xc(%ebp),%eax
    6798:	8b 55 08             	mov    0x8(%ebp),%edx
    679b:	8b 5d 10             	mov    0x10(%ebp),%ebx
    679e:	8b 40 30             	mov    0x30(%eax),%eax
    67a1:	85 c0                	test   %eax,%eax
    67a3:	74 1b                	je     67c0 <remote_nic_autoneg_disable+0x30>
    67a5:	83 ec 0c             	sub    $0xc,%esp
    67a8:	52                   	push   %edx
    67a9:	ff d0                	call   *%eax
    67ab:	89 5d 08             	mov    %ebx,0x8(%ebp)
    67ae:	83 c4 10             	add    $0x10,%esp
    67b1:	8b 5d fc             	mov    -0x4(%ebp),%ebx
    67b4:	89 45 0c             	mov    %eax,0xc(%ebp)
    67b7:	c9                   	leave  
    67b8:	e9 33 82 00 00       	jmp    e9f0 <async_answer_0@plt>
    67bd:	8d 76 00             	lea    0x0(%esi),%esi
    67c0:	89 5d 08             	mov    %ebx,0x8(%ebp)
    67c3:	8b 5d fc             	mov    -0x4(%ebp),%ebx
    67c6:	c7 45 0c f5 ff ff ff 	movl   $0xfffffff5,0xc(%ebp)
    67cd:	c9                   	leave  
    67ce:	e9 1d 82 00 00       	jmp    e9f0 <async_answer_0@plt>
    67d3:	8d b6 00 00 00 00    	lea    0x0(%esi),%esi
    67d9:	8d bc 27 00 00 00 00 	lea    0x0(%edi,%eiz,1),%edi

000067e0 <remote_nic_autoneg_enable>:
    67e0:	55                   	push   %ebp
    67e1:	89 e5                	mov    %esp,%ebp
    67e3:	53                   	push   %ebx
    67e4:	53                   	push   %ebx
    67e5:	8b 45 0c             	mov    0xc(%ebp),%eax
    67e8:	8b 55 08             	mov    0x8(%ebp),%edx
    67eb:	8b 5d 10             	mov    0x10(%ebp),%ebx
    67ee:	8b 4d 14             	mov    0x14(%ebp),%ecx
    67f1:	8b 40 2c             	mov    0x2c(%eax),%eax
    67f4:	85 c0                	test   %eax,%eax
    67f6:	74 20                	je     6818 <remote_nic_autoneg_enable+0x38>
    67f8:	83 ec 08             	sub    $0x8,%esp
    67fb:	8b 49 08             	mov    0x8(%ecx),%ecx
    67fe:	51                   	push   %ecx
    67ff:	52                   	push   %edx
    6800:	ff d0                	call   *%eax
    6802:	89 5d 08             	mov    %ebx,0x8(%ebp)
    6805:	83 c4 10             	add    $0x10,%esp
    6808:	8b 5d fc             	mov    -0x4(%ebp),%ebx
    680b:	89 45 0c             	mov    %eax,0xc(%ebp)
    680e:	c9                   	leave  
    680f:	e9 dc 81 00 00       	jmp    e9f0 <async_answer_0@plt>
    6814:	8d 74 26 00          	lea    0x0(%esi,%eiz,1),%esi
    6818:	89 5d 08             	mov    %ebx,0x8(%ebp)
    681b:	8b 5d fc             	mov    -0x4(%ebp),%ebx
    681e:	c7 45 0c f5 ff ff ff 	movl   $0xfffffff5,0xc(%ebp)
    6825:	c9                   	leave  
    6826:	e9 c5 81 00 00       	jmp    e9f0 <async_answer_0@plt>
    682b:	90                   	nop
    682c:	8d 74 26 00          	lea    0x0(%esi,%eiz,1),%esi

00006830 <remote_nic_set_operation_mode>:
    6830:	55                   	push   %ebp
    6831:	89 e5                	mov    %esp,%ebp
    6833:	53                   	push   %ebx
    6834:	52                   	push   %edx
    6835:	8b 55 0c             	mov    0xc(%ebp),%edx
    6838:	8b 4d 08             	mov    0x8(%ebp),%ecx
    683b:	8b 5d 10             	mov    0x10(%ebp),%ebx
    683e:	8b 45 14             	mov    0x14(%ebp),%eax
    6841:	8b 52 28             	mov    0x28(%edx),%edx
    6844:	85 d2                	test   %edx,%edx
    6846:	74 20                	je     6868 <remote_nic_set_operation_mode+0x38>
    6848:	ff 70 10             	pushl  0x10(%eax)
    684b:	ff 70 0c             	pushl  0xc(%eax)
    684e:	8b 40 08             	mov    0x8(%eax),%eax
    6851:	50                   	push   %eax
    6852:	51                   	push   %ecx
    6853:	ff d2                	call   *%edx
    6855:	89 5d 08             	mov    %ebx,0x8(%ebp)
    6858:	83 c4 10             	add    $0x10,%esp
    685b:	8b 5d fc             	mov    -0x4(%ebp),%ebx
    685e:	89 45 0c             	mov    %eax,0xc(%ebp)
    6861:	c9                   	leave  
    6862:	e9 89 81 00 00       	jmp    e9f0 <async_answer_0@plt>
    6867:	90                   	nop
    6868:	89 5d 08             	mov    %ebx,0x8(%ebp)
    686b:	8b 5d fc             	mov    -0x4(%ebp),%ebx
    686e:	c7 45 0c f5 ff ff ff 	movl   $0xfffffff5,0xc(%ebp)
    6875:	c9                   	leave  
    6876:	e9 75 81 00 00       	jmp    e9f0 <async_answer_0@plt>
    687b:	90                   	nop
    687c:	8d 74 26 00          	lea    0x0(%esi,%eiz,1),%esi

00006880 <remote_nic_poll_set_mode>:
    6880:	55                   	push   %ebp
    6881:	31 d2                	xor    %edx,%edx
    6883:	89 e5                	mov    %esp,%ebp
    6885:	56                   	push   %esi
    6886:	53                   	push   %ebx
    6887:	83 ec 10             	sub    $0x10,%esp
    688a:	8b 45 14             	mov    0x14(%ebp),%eax
    688d:	8b 70 08             	mov    0x8(%eax),%esi
    6890:	8b 40 0c             	mov    0xc(%eax),%eax
    6893:	85 c0                	test   %eax,%eax
    6895:	75 31                	jne    68c8 <remote_nic_poll_set_mode+0x48>
    6897:	8b 45 0c             	mov    0xc(%ebp),%eax
    689a:	8b 80 9c 00 00 00    	mov    0x9c(%eax),%eax
    68a0:	85 c0                	test   %eax,%eax
    68a2:	0f 84 90 00 00 00    	je     6938 <remote_nic_poll_set_mode+0xb8>
    68a8:	8b 5d 08             	mov    0x8(%ebp),%ebx
    68ab:	51                   	push   %ecx
    68ac:	52                   	push   %edx
    68ad:	56                   	push   %esi
    68ae:	53                   	push   %ebx
    68af:	ff d0                	call   *%eax
    68b1:	8b 4d 10             	mov    0x10(%ebp),%ecx
    68b4:	5e                   	pop    %esi
    68b5:	5a                   	pop    %edx
    68b6:	50                   	push   %eax
    68b7:	51                   	push   %ecx
    68b8:	e8 33 81 00 00       	call   e9f0 <async_answer_0@plt>
    68bd:	83 c4 10             	add    $0x10,%esp
    68c0:	8d 65 f8             	lea    -0x8(%ebp),%esp
    68c3:	5b                   	pop    %ebx
    68c4:	5e                   	pop    %esi
    68c5:	5d                   	pop    %ebp
    68c6:	c3                   	ret    
    68c7:	90                   	nop
    68c8:	8d 45 e8             	lea    -0x18(%ebp),%eax
    68cb:	53                   	push   %ebx
    68cc:	53                   	push   %ebx
    68cd:	50                   	push   %eax
    68ce:	8d 45 ec             	lea    -0x14(%ebp),%eax
    68d1:	50                   	push   %eax
    68d2:	e8 f9 84 00 00       	call   edd0 <async_data_write_receive@plt>
    68d7:	83 c4 10             	add    $0x10,%esp
    68da:	84 c0                	test   %al,%al
    68dc:	74 72                	je     6950 <remote_nic_poll_set_mode+0xd0>
    68de:	83 7d e8 08          	cmpl   $0x8,-0x18(%ebp)
    68e2:	74 24                	je     6908 <remote_nic_poll_set_mode+0x88>
    68e4:	50                   	push   %eax
    68e5:	50                   	push   %eax
    68e6:	8b 45 ec             	mov    -0x14(%ebp),%eax
    68e9:	6a fd                	push   $0xfffffffd
    68eb:	50                   	push   %eax
    68ec:	e8 ff 80 00 00       	call   e9f0 <async_answer_0@plt>
    68f1:	8b 4d 10             	mov    0x10(%ebp),%ecx
    68f4:	58                   	pop    %eax
    68f5:	5a                   	pop    %edx
    68f6:	6a fd                	push   $0xfffffffd
    68f8:	51                   	push   %ecx
    68f9:	e8 f2 80 00 00       	call   e9f0 <async_answer_0@plt>
    68fe:	83 c4 10             	add    $0x10,%esp
    6901:	8d 65 f8             	lea    -0x8(%ebp),%esp
    6904:	5b                   	pop    %ebx
    6905:	5e                   	pop    %esi
    6906:	5d                   	pop    %ebp
    6907:	c3                   	ret    
    6908:	8d 5d f0             	lea    -0x10(%ebp),%ebx
    690b:	50                   	push   %eax
    690c:	8b 45 ec             	mov    -0x14(%ebp),%eax
    690f:	6a 08                	push   $0x8
    6911:	53                   	push   %ebx
    6912:	50                   	push   %eax
    6913:	e8 28 84 00 00       	call   ed40 <async_data_write_finalize@plt>
    6918:	83 c4 10             	add    $0x10,%esp
    691b:	89 da                	mov    %ebx,%edx
    691d:	85 c0                	test   %eax,%eax
    691f:	0f 84 72 ff ff ff    	je     6897 <remote_nic_poll_set_mode+0x17>
    6925:	8b 75 10             	mov    0x10(%ebp),%esi
    6928:	53                   	push   %ebx
    6929:	53                   	push   %ebx
    692a:	6a f2                	push   $0xfffffff2
    692c:	56                   	push   %esi
    692d:	e8 be 80 00 00       	call   e9f0 <async_answer_0@plt>
    6932:	83 c4 10             	add    $0x10,%esp
    6935:	eb 89                	jmp    68c0 <remote_nic_poll_set_mode+0x40>
    6937:	90                   	nop
    6938:	8b 55 10             	mov    0x10(%ebp),%edx
    693b:	50                   	push   %eax
    693c:	50                   	push   %eax
    693d:	6a f5                	push   $0xfffffff5
    693f:	52                   	push   %edx
    6940:	e8 ab 80 00 00       	call   e9f0 <async_answer_0@plt>
    6945:	83 c4 10             	add    $0x10,%esp
    6948:	8d 65 f8             	lea    -0x8(%ebp),%esp
    694b:	5b                   	pop    %ebx
    694c:	5e                   	pop    %esi
    694d:	5d                   	pop    %ebp
    694e:	c3                   	ret    
    694f:	90                   	nop
    6950:	8b 75 ec             	mov    -0x14(%ebp),%esi
    6953:	53                   	push   %ebx
    6954:	53                   	push   %ebx
    6955:	6a f2                	push   $0xfffffff2
    6957:	56                   	push   %esi
    6958:	e8 93 80 00 00       	call   e9f0 <async_answer_0@plt>
    695d:	8b 4d 10             	mov    0x10(%ebp),%ecx
    6960:	58                   	pop    %eax
    6961:	5a                   	pop    %edx
    6962:	6a f2                	push   $0xfffffff2
    6964:	51                   	push   %ecx
    6965:	e8 86 80 00 00       	call   e9f0 <async_answer_0@plt>
    696a:	83 c4 10             	add    $0x10,%esp
    696d:	e9 4e ff ff ff       	jmp    68c0 <remote_nic_poll_set_mode+0x40>
    6972:	8d b4 26 00 00 00 00 	lea    0x0(%esi,%eiz,1),%esi
    6979:	8d bc 27 00 00 00 00 	lea    0x0(%edi,%eiz,1),%edi

00006980 <remote_nic_vlan_set_mask>:
    6980:	55                   	push   %ebp
    6981:	31 d2                	xor    %edx,%edx
    6983:	89 e5                	mov    %esp,%ebp
    6985:	53                   	push   %ebx
    6986:	81 ec 14 02 00 00    	sub    $0x214,%esp
    698c:	8b 45 14             	mov    0x14(%ebp),%eax
    698f:	8b 40 08             	mov    0x8(%eax),%eax
    6992:	85 c0                	test   %eax,%eax
    6994:	75 32                	jne    69c8 <remote_nic_vlan_set_mask+0x48>
    6996:	8b 45 0c             	mov    0xc(%ebp),%eax
    6999:	8b 40 70             	mov    0x70(%eax),%eax
    699c:	85 c0                	test   %eax,%eax
    699e:	0f 84 bc 00 00 00    	je     6a60 <remote_nic_vlan_set_mask+0xe0>
    69a4:	8b 5d 08             	mov    0x8(%ebp),%ebx
    69a7:	51                   	push   %ecx
    69a8:	51                   	push   %ecx
    69a9:	52                   	push   %edx
    69aa:	53                   	push   %ebx
    69ab:	ff d0                	call   *%eax
    69ad:	8b 5d 10             	mov    0x10(%ebp),%ebx
    69b0:	5a                   	pop    %edx
    69b1:	59                   	pop    %ecx
    69b2:	50                   	push   %eax
    69b3:	53                   	push   %ebx
    69b4:	e8 37 80 00 00       	call   e9f0 <async_answer_0@plt>
    69b9:	83 c4 10             	add    $0x10,%esp
    69bc:	8b 5d fc             	mov    -0x4(%ebp),%ebx
    69bf:	c9                   	leave  
    69c0:	c3                   	ret    
    69c1:	8d b4 26 00 00 00 00 	lea    0x0(%esi,%eiz,1),%esi
    69c8:	8d 85 f4 fd ff ff    	lea    -0x20c(%ebp),%eax
    69ce:	53                   	push   %ebx
    69cf:	53                   	push   %ebx
    69d0:	50                   	push   %eax
    69d1:	8d 85 f0 fd ff ff    	lea    -0x210(%ebp),%eax
    69d7:	50                   	push   %eax
    69d8:	e8 f3 83 00 00       	call   edd0 <async_data_write_receive@plt>
    69dd:	83 c4 10             	add    $0x10,%esp
    69e0:	84 c0                	test   %al,%al
    69e2:	0f 84 90 00 00 00    	je     6a78 <remote_nic_vlan_set_mask+0xf8>
    69e8:	81 bd f4 fd ff ff 00 	cmpl   $0x200,-0x20c(%ebp)
    69ef:	02 00 00 
    69f2:	74 2c                	je     6a20 <remote_nic_vlan_set_mask+0xa0>
    69f4:	50                   	push   %eax
    69f5:	50                   	push   %eax
    69f6:	8b 85 f0 fd ff ff    	mov    -0x210(%ebp),%eax
    69fc:	6a fd                	push   $0xfffffffd
    69fe:	50                   	push   %eax
    69ff:	e8 ec 7f 00 00       	call   e9f0 <async_answer_0@plt>
    6a04:	8b 5d 10             	mov    0x10(%ebp),%ebx
    6a07:	5a                   	pop    %edx
    6a08:	59                   	pop    %ecx
    6a09:	6a fd                	push   $0xfffffffd
    6a0b:	53                   	push   %ebx
    6a0c:	e8 df 7f 00 00       	call   e9f0 <async_answer_0@plt>
    6a11:	83 c4 10             	add    $0x10,%esp
    6a14:	8b 5d fc             	mov    -0x4(%ebp),%ebx
    6a17:	c9                   	leave  
    6a18:	c3                   	ret    
    6a19:	8d b4 26 00 00 00 00 	lea    0x0(%esi,%eiz,1),%esi
    6a20:	8d 9d f8 fd ff ff    	lea    -0x208(%ebp),%ebx
    6a26:	50                   	push   %eax
    6a27:	8b 85 f0 fd ff ff    	mov    -0x210(%ebp),%eax
    6a2d:	68 00 02 00 00       	push   $0x200
    6a32:	53                   	push   %ebx
    6a33:	50                   	push   %eax
    6a34:	e8 07 83 00 00       	call   ed40 <async_data_write_finalize@plt>
    6a39:	83 c4 10             	add    $0x10,%esp
    6a3c:	89 da                	mov    %ebx,%edx
    6a3e:	85 c0                	test   %eax,%eax
    6a40:	0f 84 50 ff ff ff    	je     6996 <remote_nic_vlan_set_mask+0x16>
    6a46:	50                   	push   %eax
    6a47:	50                   	push   %eax
    6a48:	8b 45 10             	mov    0x10(%ebp),%eax
    6a4b:	6a f2                	push   $0xfffffff2
    6a4d:	50                   	push   %eax
    6a4e:	e8 9d 7f 00 00       	call   e9f0 <async_answer_0@plt>
    6a53:	83 c4 10             	add    $0x10,%esp
    6a56:	e9 61 ff ff ff       	jmp    69bc <remote_nic_vlan_set_mask+0x3c>
    6a5b:	90                   	nop
    6a5c:	8d 74 26 00          	lea    0x0(%esi,%eiz,1),%esi
    6a60:	8b 55 10             	mov    0x10(%ebp),%edx
    6a63:	50                   	push   %eax
    6a64:	50                   	push   %eax
    6a65:	6a f5                	push   $0xfffffff5
    6a67:	52                   	push   %edx
    6a68:	e8 83 7f 00 00       	call   e9f0 <async_answer_0@plt>
    6a6d:	83 c4 10             	add    $0x10,%esp
    6a70:	8b 5d fc             	mov    -0x4(%ebp),%ebx
    6a73:	c9                   	leave  
    6a74:	c3                   	ret    
    6a75:	8d 76 00             	lea    0x0(%esi),%esi
    6a78:	50                   	push   %eax
    6a79:	50                   	push   %eax
    6a7a:	8b 85 f0 fd ff ff    	mov    -0x210(%ebp),%eax
    6a80:	6a f2                	push   $0xfffffff2
    6a82:	50                   	push   %eax
    6a83:	e8 68 7f 00 00       	call   e9f0 <async_answer_0@plt>
    6a88:	8b 4d 10             	mov    0x10(%ebp),%ecx
    6a8b:	58                   	pop    %eax
    6a8c:	5a                   	pop    %edx
    6a8d:	6a f2                	push   $0xfffffff2
    6a8f:	51                   	push   %ecx
    6a90:	e8 5b 7f 00 00       	call   e9f0 <async_answer_0@plt>
    6a95:	83 c4 10             	add    $0x10,%esp
    6a98:	e9 1f ff ff ff       	jmp    69bc <remote_nic_vlan_set_mask+0x3c>
    6a9d:	8d 76 00             	lea    0x0(%esi),%esi

00006aa0 <remote_nic_set_address>:
    6aa0:	55                   	push   %ebp
    6aa1:	89 e5                	mov    %esp,%ebp
    6aa3:	53                   	push   %ebx
    6aa4:	83 ec 1c             	sub    $0x1c,%esp
    6aa7:	8d 45 e8             	lea    -0x18(%ebp),%eax
    6aaa:	50                   	push   %eax
    6aab:	8d 45 ec             	lea    -0x14(%ebp),%eax
    6aae:	50                   	push   %eax
    6aaf:	e8 1c 83 00 00       	call   edd0 <async_data_write_receive@plt>
    6ab4:	83 c4 10             	add    $0x10,%esp
    6ab7:	84 c0                	test   %al,%al
    6ab9:	74 75                	je     6b30 <remote_nic_set_address+0x90>
    6abb:	8b 45 e8             	mov    -0x18(%ebp),%eax
    6abe:	83 f8 06             	cmp    $0x6,%eax
    6ac1:	77 45                	ja     6b08 <remote_nic_set_address+0x68>
    6ac3:	8b 4d ec             	mov    -0x14(%ebp),%ecx
    6ac6:	8d 5d f2             	lea    -0xe(%ebp),%ebx
    6ac9:	52                   	push   %edx
    6aca:	50                   	push   %eax
    6acb:	53                   	push   %ebx
    6acc:	51                   	push   %ecx
    6acd:	e8 6e 82 00 00       	call   ed40 <async_data_write_finalize@plt>
    6ad2:	83 c4 10             	add    $0x10,%esp
    6ad5:	85 c0                	test   %eax,%eax
    6ad7:	75 7f                	jne    6b58 <remote_nic_set_address+0xb8>
    6ad9:	8b 45 0c             	mov    0xc(%ebp),%eax
    6adc:	8b 40 14             	mov    0x14(%eax),%eax
    6adf:	85 c0                	test   %eax,%eax
    6ae1:	0f 84 89 00 00 00    	je     6b70 <remote_nic_set_address+0xd0>
    6ae7:	51                   	push   %ecx
    6ae8:	51                   	push   %ecx
    6ae9:	53                   	push   %ebx
    6aea:	8b 5d 08             	mov    0x8(%ebp),%ebx
    6aed:	53                   	push   %ebx
    6aee:	ff d0                	call   *%eax
    6af0:	8b 5d 10             	mov    0x10(%ebp),%ebx
    6af3:	5a                   	pop    %edx
    6af4:	59                   	pop    %ecx
    6af5:	50                   	push   %eax
    6af6:	53                   	push   %ebx
    6af7:	e8 f4 7e 00 00       	call   e9f0 <async_answer_0@plt>
    6afc:	83 c4 10             	add    $0x10,%esp
    6aff:	8b 5d fc             	mov    -0x4(%ebp),%ebx
    6b02:	c9                   	leave  
    6b03:	c3                   	ret    
    6b04:	8d 74 26 00          	lea    0x0(%esi,%eiz,1),%esi
    6b08:	8b 45 ec             	mov    -0x14(%ebp),%eax
    6b0b:	53                   	push   %ebx
    6b0c:	53                   	push   %ebx
    6b0d:	6a fd                	push   $0xfffffffd
    6b0f:	50                   	push   %eax
    6b10:	e8 db 7e 00 00       	call   e9f0 <async_answer_0@plt>
    6b15:	8b 4d 10             	mov    0x10(%ebp),%ecx
    6b18:	58                   	pop    %eax
    6b19:	5a                   	pop    %edx
    6b1a:	6a fd                	push   $0xfffffffd
    6b1c:	51                   	push   %ecx
    6b1d:	e8 ce 7e 00 00       	call   e9f0 <async_answer_0@plt>
    6b22:	83 c4 10             	add    $0x10,%esp
    6b25:	8b 5d fc             	mov    -0x4(%ebp),%ebx
    6b28:	c9                   	leave  
    6b29:	c3                   	ret    
    6b2a:	8d b6 00 00 00 00    	lea    0x0(%esi),%esi
    6b30:	8b 45 ec             	mov    -0x14(%ebp),%eax
    6b33:	53                   	push   %ebx
    6b34:	53                   	push   %ebx
    6b35:	6a f2                	push   $0xfffffff2
    6b37:	50                   	push   %eax
    6b38:	e8 b3 7e 00 00       	call   e9f0 <async_answer_0@plt>
    6b3d:	8b 4d 10             	mov    0x10(%ebp),%ecx
    6b40:	58                   	pop    %eax
    6b41:	5a                   	pop    %edx
    6b42:	6a f2                	push   $0xfffffff2
    6b44:	51                   	push   %ecx
    6b45:	e8 a6 7e 00 00       	call   e9f0 <async_answer_0@plt>
    6b4a:	83 c4 10             	add    $0x10,%esp
    6b4d:	8b 5d fc             	mov    -0x4(%ebp),%ebx
    6b50:	c9                   	leave  
    6b51:	c3                   	ret    
    6b52:	8d b6 00 00 00 00    	lea    0x0(%esi),%esi
    6b58:	50                   	push   %eax
    6b59:	50                   	push   %eax
    6b5a:	8b 45 10             	mov    0x10(%ebp),%eax
    6b5d:	6a f2                	push   $0xfffffff2
    6b5f:	50                   	push   %eax
    6b60:	e8 8b 7e 00 00       	call   e9f0 <async_answer_0@plt>
    6b65:	83 c4 10             	add    $0x10,%esp
    6b68:	8b 5d fc             	mov    -0x4(%ebp),%ebx
    6b6b:	c9                   	leave  
    6b6c:	c3                   	ret    
    6b6d:	8d 76 00             	lea    0x0(%esi),%esi
    6b70:	8b 55 10             	mov    0x10(%ebp),%edx
    6b73:	50                   	push   %eax
    6b74:	50                   	push   %eax
    6b75:	6a f5                	push   $0xfffffff5
    6b77:	52                   	push   %edx
    6b78:	e8 73 7e 00 00       	call   e9f0 <async_answer_0@plt>
    6b7d:	83 c4 10             	add    $0x10,%esp
    6b80:	e9 7a ff ff ff       	jmp    6aff <remote_nic_set_address+0x5f>
    6b85:	8d 74 26 00          	lea    0x0(%esi,%eiz,1),%esi
    6b89:	8d bc 27 00 00 00 00 	lea    0x0(%edi,%eiz,1),%edi

00006b90 <remote_nic_poll_get_mode>:
    6b90:	55                   	push   %ebp
    6b91:	89 e5                	mov    %esp,%ebp
    6b93:	57                   	push   %edi
    6b94:	56                   	push   %esi
    6b95:	53                   	push   %ebx
    6b96:	83 ec 2c             	sub    $0x2c,%esp
    6b99:	8b 45 0c             	mov    0xc(%ebp),%eax
    6b9c:	8b 80 98 00 00 00    	mov    0x98(%eax),%eax
    6ba2:	85 c0                	test   %eax,%eax
    6ba4:	0f 84 d6 00 00 00    	je     6c80 <remote_nic_poll_get_mode+0xf0>
    6baa:	8b 55 14             	mov    0x14(%ebp),%edx
    6bad:	8b 4d 08             	mov    0x8(%ebp),%ecx
    6bb0:	c7 45 d4 00 00 00 00 	movl   $0x0,-0x2c(%ebp)
    6bb7:	c7 45 e0 00 00 00 00 	movl   $0x0,-0x20(%ebp)
    6bbe:	8b 72 08             	mov    0x8(%edx),%esi
    6bc1:	c7 45 e4 00 00 00 00 	movl   $0x0,-0x1c(%ebp)
    6bc8:	8d 5d e0             	lea    -0x20(%ebp),%ebx
    6bcb:	52                   	push   %edx
    6bcc:	8d 55 d4             	lea    -0x2c(%ebp),%edx
    6bcf:	53                   	push   %ebx
    6bd0:	52                   	push   %edx
    6bd1:	51                   	push   %ecx
    6bd2:	ff d0                	call   *%eax
    6bd4:	83 c4 10             	add    $0x10,%esp
    6bd7:	89 c7                	mov    %eax,%edi
    6bd9:	85 c0                	test   %eax,%eax
    6bdb:	75 5b                	jne    6c38 <remote_nic_poll_get_mode+0xa8>
    6bdd:	85 f6                	test   %esi,%esi
    6bdf:	74 57                	je     6c38 <remote_nic_poll_get_mode+0xa8>
    6be1:	50                   	push   %eax
    6be2:	50                   	push   %eax
    6be3:	8d 45 d8             	lea    -0x28(%ebp),%eax
    6be6:	50                   	push   %eax
    6be7:	8d 45 dc             	lea    -0x24(%ebp),%eax
    6bea:	50                   	push   %eax
    6beb:	e8 30 80 00 00       	call   ec20 <async_data_read_receive@plt>
    6bf0:	83 c4 10             	add    $0x10,%esp
    6bf3:	84 c0                	test   %al,%al
    6bf5:	74 61                	je     6c58 <remote_nic_poll_get_mode+0xc8>
    6bf7:	83 7d d8 08          	cmpl   $0x8,-0x28(%ebp)
    6bfb:	74 2b                	je     6c28 <remote_nic_poll_get_mode+0x98>
    6bfd:	50                   	push   %eax
    6bfe:	50                   	push   %eax
    6bff:	8b 45 dc             	mov    -0x24(%ebp),%eax
    6c02:	6a fd                	push   $0xfffffffd
    6c04:	50                   	push   %eax
    6c05:	e8 e6 7d 00 00       	call   e9f0 <async_answer_0@plt>
    6c0a:	8b 4d 10             	mov    0x10(%ebp),%ecx
    6c0d:	58                   	pop    %eax
    6c0e:	5a                   	pop    %edx
    6c0f:	6a fd                	push   $0xfffffffd
    6c11:	51                   	push   %ecx
    6c12:	e8 d9 7d 00 00       	call   e9f0 <async_answer_0@plt>
    6c17:	83 c4 10             	add    $0x10,%esp
    6c1a:	8d 65 f4             	lea    -0xc(%ebp),%esp
    6c1d:	5b                   	pop    %ebx
    6c1e:	5e                   	pop    %esi
    6c1f:	5f                   	pop    %edi
    6c20:	5d                   	pop    %ebp
    6c21:	c3                   	ret    
    6c22:	8d b6 00 00 00 00    	lea    0x0(%esi),%esi
    6c28:	8b 45 dc             	mov    -0x24(%ebp),%eax
    6c2b:	56                   	push   %esi
    6c2c:	6a 08                	push   $0x8
    6c2e:	53                   	push   %ebx
    6c2f:	50                   	push   %eax
    6c30:	e8 4b 7d 00 00       	call   e980 <async_data_read_finalize@plt>
    6c35:	83 c4 10             	add    $0x10,%esp
    6c38:	8b 55 d4             	mov    -0x2c(%ebp),%edx
    6c3b:	8b 4d 10             	mov    0x10(%ebp),%ecx
    6c3e:	50                   	push   %eax
    6c3f:	52                   	push   %edx
    6c40:	57                   	push   %edi
    6c41:	51                   	push   %ecx
    6c42:	e8 79 80 00 00       	call   ecc0 <async_answer_1@plt>
    6c47:	83 c4 10             	add    $0x10,%esp
    6c4a:	8d 65 f4             	lea    -0xc(%ebp),%esp
    6c4d:	5b                   	pop    %ebx
    6c4e:	5e                   	pop    %esi
    6c4f:	5f                   	pop    %edi
    6c50:	5d                   	pop    %ebp
    6c51:	c3                   	ret    
    6c52:	8d b6 00 00 00 00    	lea    0x0(%esi),%esi
    6c58:	8b 75 dc             	mov    -0x24(%ebp),%esi
    6c5b:	53                   	push   %ebx
    6c5c:	53                   	push   %ebx
    6c5d:	6a f2                	push   $0xfffffff2
    6c5f:	56                   	push   %esi
    6c60:	e8 8b 7d 00 00       	call   e9f0 <async_answer_0@plt>
    6c65:	5f                   	pop    %edi
    6c66:	58                   	pop    %eax
    6c67:	8b 45 10             	mov    0x10(%ebp),%eax
    6c6a:	6a f2                	push   $0xfffffff2
    6c6c:	50                   	push   %eax
    6c6d:	e8 7e 7d 00 00       	call   e9f0 <async_answer_0@plt>
    6c72:	83 c4 10             	add    $0x10,%esp
    6c75:	8d 65 f4             	lea    -0xc(%ebp),%esp
    6c78:	5b                   	pop    %ebx
    6c79:	5e                   	pop    %esi
    6c7a:	5f                   	pop    %edi
    6c7b:	5d                   	pop    %ebp
    6c7c:	c3                   	ret    
    6c7d:	8d 76 00             	lea    0x0(%esi),%esi
    6c80:	8b 75 10             	mov    0x10(%ebp),%esi
    6c83:	53                   	push   %ebx
    6c84:	53                   	push   %ebx
    6c85:	6a f5                	push   $0xfffffff5
    6c87:	56                   	push   %esi
    6c88:	e8 63 7d 00 00       	call   e9f0 <async_answer_0@plt>
    6c8d:	83 c4 10             	add    $0x10,%esp
    6c90:	8d 65 f4             	lea    -0xc(%ebp),%esp
    6c93:	5b                   	pop    %ebx
    6c94:	5e                   	pop    %esi
    6c95:	5f                   	pop    %edi
    6c96:	5d                   	pop    %ebp
    6c97:	c3                   	ret    
    6c98:	90                   	nop
    6c99:	8d b4 26 00 00 00 00 	lea    0x0(%esi,%eiz,1),%esi

00006ca0 <remote_nic_wol_virtue_get_caps>:
    6ca0:	55                   	push   %ebp
    6ca1:	89 e5                	mov    %esp,%ebp
    6ca3:	83 ec 18             	sub    $0x18,%esp
    6ca6:	8b 45 0c             	mov    0xc(%ebp),%eax
    6ca9:	8b 80 88 00 00 00    	mov    0x88(%eax),%eax
    6caf:	85 c0                	test   %eax,%eax
    6cb1:	74 35                	je     6ce8 <remote_nic_wol_virtue_get_caps+0x48>
    6cb3:	52                   	push   %edx
    6cb4:	8d 55 f4             	lea    -0xc(%ebp),%edx
    6cb7:	52                   	push   %edx
    6cb8:	8b 55 14             	mov    0x14(%ebp),%edx
    6cbb:	c7 45 f4 ff ff ff ff 	movl   $0xffffffff,-0xc(%ebp)
    6cc2:	8b 4a 08             	mov    0x8(%edx),%ecx
    6cc5:	8b 55 08             	mov    0x8(%ebp),%edx
    6cc8:	51                   	push   %ecx
    6cc9:	52                   	push   %edx
    6cca:	ff d0                	call   *%eax
    6ccc:	83 c4 0c             	add    $0xc,%esp
    6ccf:	8b 4d f4             	mov    -0xc(%ebp),%ecx
    6cd2:	51                   	push   %ecx
    6cd3:	50                   	push   %eax
    6cd4:	8b 45 10             	mov    0x10(%ebp),%eax
    6cd7:	50                   	push   %eax
    6cd8:	e8 e3 7f 00 00       	call   ecc0 <async_answer_1@plt>
    6cdd:	83 c4 10             	add    $0x10,%esp
    6ce0:	c9                   	leave  
    6ce1:	c3                   	ret    
    6ce2:	8d b6 00 00 00 00    	lea    0x0(%esi),%esi
    6ce8:	50                   	push   %eax
    6ce9:	50                   	push   %eax
    6cea:	8b 45 10             	mov    0x10(%ebp),%eax
    6ced:	6a f5                	push   $0xfffffff5
    6cef:	50                   	push   %eax
    6cf0:	e8 fb 7c 00 00       	call   e9f0 <async_answer_0@plt>
    6cf5:	83 c4 10             	add    $0x10,%esp
    6cf8:	c9                   	leave  
    6cf9:	c3                   	ret    
    6cfa:	8d b6 00 00 00 00    	lea    0x0(%esi),%esi

00006d00 <remote_nic_defective_get_mode>:
    6d00:	55                   	push   %ebp
    6d01:	89 e5                	mov    %esp,%ebp
    6d03:	83 ec 18             	sub    $0x18,%esp
    6d06:	8b 45 0c             	mov    0xc(%ebp),%eax
    6d09:	8b 40 5c             	mov    0x5c(%eax),%eax
    6d0c:	85 c0                	test   %eax,%eax
    6d0e:	74 30                	je     6d40 <remote_nic_defective_get_mode+0x40>
    6d10:	8b 4d 08             	mov    0x8(%ebp),%ecx
    6d13:	c7 45 f4 00 00 00 00 	movl   $0x0,-0xc(%ebp)
    6d1a:	52                   	push   %edx
    6d1b:	52                   	push   %edx
    6d1c:	8d 55 f4             	lea    -0xc(%ebp),%edx
    6d1f:	52                   	push   %edx
    6d20:	51                   	push   %ecx
    6d21:	ff d0                	call   *%eax
    6d23:	83 c4 0c             	add    $0xc,%esp
    6d26:	8b 55 f4             	mov    -0xc(%ebp),%edx
    6d29:	8b 4d 10             	mov    0x10(%ebp),%ecx
    6d2c:	52                   	push   %edx
    6d2d:	50                   	push   %eax
    6d2e:	51                   	push   %ecx
    6d2f:	e8 8c 7f 00 00       	call   ecc0 <async_answer_1@plt>
    6d34:	83 c4 10             	add    $0x10,%esp
    6d37:	c9                   	leave  
    6d38:	c3                   	ret    
    6d39:	8d b4 26 00 00 00 00 	lea    0x0(%esi,%eiz,1),%esi
    6d40:	50                   	push   %eax
    6d41:	50                   	push   %eax
    6d42:	8b 45 10             	mov    0x10(%ebp),%eax
    6d45:	6a f5                	push   $0xfffffff5
    6d47:	50                   	push   %eax
    6d48:	e8 a3 7c 00 00       	call   e9f0 <async_answer_0@plt>
    6d4d:	83 c4 10             	add    $0x10,%esp
    6d50:	c9                   	leave  
    6d51:	c3                   	ret    
    6d52:	8d b4 26 00 00 00 00 	lea    0x0(%esi,%eiz,1),%esi
    6d59:	8d bc 27 00 00 00 00 	lea    0x0(%edi,%eiz,1),%edi

00006d60 <remote_nic_broadcast_get_mode>:
    6d60:	55                   	push   %ebp
    6d61:	89 e5                	mov    %esp,%ebp
    6d63:	83 ec 18             	sub    $0x18,%esp
    6d66:	8b 45 0c             	mov    0xc(%ebp),%eax
    6d69:	8b 40 54             	mov    0x54(%eax),%eax
    6d6c:	85 c0                	test   %eax,%eax
    6d6e:	74 30                	je     6da0 <remote_nic_broadcast_get_mode+0x40>
    6d70:	8b 4d 08             	mov    0x8(%ebp),%ecx
    6d73:	c7 45 f4 02 00 00 00 	movl   $0x2,-0xc(%ebp)
    6d7a:	52                   	push   %edx
    6d7b:	52                   	push   %edx
    6d7c:	8d 55 f4             	lea    -0xc(%ebp),%edx
    6d7f:	52                   	push   %edx
    6d80:	51                   	push   %ecx
    6d81:	ff d0                	call   *%eax
    6d83:	83 c4 0c             	add    $0xc,%esp
    6d86:	8b 55 f4             	mov    -0xc(%ebp),%edx
    6d89:	8b 4d 10             	mov    0x10(%ebp),%ecx
    6d8c:	52                   	push   %edx
    6d8d:	50                   	push   %eax
    6d8e:	51                   	push   %ecx
    6d8f:	e8 2c 7f 00 00       	call   ecc0 <async_answer_1@plt>
    6d94:	83 c4 10             	add    $0x10,%esp
    6d97:	c9                   	leave  
    6d98:	c3                   	ret    
    6d99:	8d b4 26 00 00 00 00 	lea    0x0(%esi,%eiz,1),%esi
    6da0:	50                   	push   %eax
    6da1:	50                   	push   %eax
    6da2:	8b 45 10             	mov    0x10(%ebp),%eax
    6da5:	6a f5                	push   $0xfffffff5
    6da7:	50                   	push   %eax
    6da8:	e8 43 7c 00 00       	call   e9f0 <async_answer_0@plt>
    6dad:	83 c4 10             	add    $0x10,%esp
    6db0:	c9                   	leave  
    6db1:	c3                   	ret    
    6db2:	8d b4 26 00 00 00 00 	lea    0x0(%esi,%eiz,1),%esi
    6db9:	8d bc 27 00 00 00 00 	lea    0x0(%edi,%eiz,1),%edi

00006dc0 <remote_nic_get_cable_state>:
    6dc0:	55                   	push   %ebp
    6dc1:	89 e5                	mov    %esp,%ebp
    6dc3:	83 ec 18             	sub    $0x18,%esp
    6dc6:	8b 45 0c             	mov    0xc(%ebp),%eax
    6dc9:	8b 40 20             	mov    0x20(%eax),%eax
    6dcc:	85 c0                	test   %eax,%eax
    6dce:	74 30                	je     6e00 <remote_nic_get_cable_state+0x40>
    6dd0:	8b 4d 08             	mov    0x8(%ebp),%ecx
    6dd3:	c7 45 f4 00 00 00 00 	movl   $0x0,-0xc(%ebp)
    6dda:	52                   	push   %edx
    6ddb:	52                   	push   %edx
    6ddc:	8d 55 f4             	lea    -0xc(%ebp),%edx
    6ddf:	52                   	push   %edx
    6de0:	51                   	push   %ecx
    6de1:	ff d0                	call   *%eax
    6de3:	83 c4 0c             	add    $0xc,%esp
    6de6:	8b 55 f4             	mov    -0xc(%ebp),%edx
    6de9:	8b 4d 10             	mov    0x10(%ebp),%ecx
    6dec:	52                   	push   %edx
    6ded:	50                   	push   %eax
    6dee:	51                   	push   %ecx
    6def:	e8 cc 7e 00 00       	call   ecc0 <async_answer_1@plt>
    6df4:	83 c4 10             	add    $0x10,%esp
    6df7:	c9                   	leave  
    6df8:	c3                   	ret    
    6df9:	8d b4 26 00 00 00 00 	lea    0x0(%esi,%eiz,1),%esi
    6e00:	50                   	push   %eax
    6e01:	50                   	push   %eax
    6e02:	8b 45 10             	mov    0x10(%ebp),%eax
    6e05:	6a f5                	push   $0xfffffff5
    6e07:	50                   	push   %eax
    6e08:	e8 e3 7b 00 00       	call   e9f0 <async_answer_0@plt>
    6e0d:	83 c4 10             	add    $0x10,%esp
    6e10:	c9                   	leave  
    6e11:	c3                   	ret    
    6e12:	8d b4 26 00 00 00 00 	lea    0x0(%esi,%eiz,1),%esi
    6e19:	8d bc 27 00 00 00 00 	lea    0x0(%edi,%eiz,1),%edi

00006e20 <remote_nic_offload_probe>:
    6e20:	55                   	push   %ebp
    6e21:	89 e5                	mov    %esp,%ebp
    6e23:	83 ec 18             	sub    $0x18,%esp
    6e26:	8b 45 0c             	mov    0xc(%ebp),%eax
    6e29:	8b 80 90 00 00 00    	mov    0x90(%eax),%eax
    6e2f:	85 c0                	test   %eax,%eax
    6e31:	74 35                	je     6e68 <remote_nic_offload_probe+0x48>
    6e33:	52                   	push   %edx
    6e34:	8d 55 f4             	lea    -0xc(%ebp),%edx
    6e37:	52                   	push   %edx
    6e38:	8b 4d 08             	mov    0x8(%ebp),%ecx
    6e3b:	8d 55 f0             	lea    -0x10(%ebp),%edx
    6e3e:	c7 45 f0 00 00 00 00 	movl   $0x0,-0x10(%ebp)
    6e45:	c7 45 f4 00 00 00 00 	movl   $0x0,-0xc(%ebp)
    6e4c:	52                   	push   %edx
    6e4d:	51                   	push   %ecx
    6e4e:	ff d0                	call   *%eax
    6e50:	8b 55 f4             	mov    -0xc(%ebp),%edx
    6e53:	8b 4d f0             	mov    -0x10(%ebp),%ecx
    6e56:	52                   	push   %edx
    6e57:	51                   	push   %ecx
    6e58:	50                   	push   %eax
    6e59:	8b 45 10             	mov    0x10(%ebp),%eax
    6e5c:	50                   	push   %eax
    6e5d:	e8 ce 7c 00 00       	call   eb30 <async_answer_2@plt>
    6e62:	83 c4 20             	add    $0x20,%esp
    6e65:	c9                   	leave  
    6e66:	c3                   	ret    
    6e67:	90                   	nop
    6e68:	50                   	push   %eax
    6e69:	50                   	push   %eax
    6e6a:	8b 45 10             	mov    0x10(%ebp),%eax
    6e6d:	6a f5                	push   $0xfffffff5
    6e6f:	50                   	push   %eax
    6e70:	e8 7b 7b 00 00       	call   e9f0 <async_answer_0@plt>
    6e75:	83 c4 10             	add    $0x10,%esp
    6e78:	c9                   	leave  
    6e79:	c3                   	ret    
    6e7a:	8d b6 00 00 00 00    	lea    0x0(%esi),%esi

00006e80 <remote_nic_vlan_get_mask>:
    6e80:	55                   	push   %ebp
    6e81:	89 e5                	mov    %esp,%ebp
    6e83:	56                   	push   %esi
    6e84:	53                   	push   %ebx
    6e85:	81 ec 10 02 00 00    	sub    $0x210,%esp
    6e8b:	8b 5d 0c             	mov    0xc(%ebp),%ebx
    6e8e:	8b 43 6c             	mov    0x6c(%ebx),%eax
    6e91:	85 c0                	test   %eax,%eax
    6e93:	0f 84 a7 00 00 00    	je     6f40 <remote_nic_vlan_get_mask+0xc0>
    6e99:	8d b5 f8 fd ff ff    	lea    -0x208(%ebp),%esi
    6e9f:	50                   	push   %eax
    6ea0:	68 00 02 00 00       	push   $0x200
    6ea5:	6a 00                	push   $0x0
    6ea7:	56                   	push   %esi
    6ea8:	e8 63 7d 00 00       	call   ec10 <memset@plt>
    6ead:	8b 4d 08             	mov    0x8(%ebp),%ecx
    6eb0:	58                   	pop    %eax
    6eb1:	5a                   	pop    %edx
    6eb2:	56                   	push   %esi
    6eb3:	51                   	push   %ecx
    6eb4:	ff 53 6c             	call   *0x6c(%ebx)
    6eb7:	83 c4 10             	add    $0x10,%esp
    6eba:	89 c3                	mov    %eax,%ebx
    6ebc:	85 c0                	test   %eax,%eax
    6ebe:	75 66                	jne    6f26 <remote_nic_vlan_get_mask+0xa6>
    6ec0:	50                   	push   %eax
    6ec1:	50                   	push   %eax
    6ec2:	8d 85 f4 fd ff ff    	lea    -0x20c(%ebp),%eax
    6ec8:	50                   	push   %eax
    6ec9:	8d 85 f0 fd ff ff    	lea    -0x210(%ebp),%eax
    6ecf:	50                   	push   %eax
    6ed0:	e8 4b 7d 00 00       	call   ec20 <async_data_read_receive@plt>
    6ed5:	83 c4 10             	add    $0x10,%esp
    6ed8:	84 c0                	test   %al,%al
    6eda:	74 0c                	je     6ee8 <remote_nic_vlan_get_mask+0x68>
    6edc:	81 bd f4 fd ff ff 00 	cmpl   $0x200,-0x20c(%ebp)
    6ee3:	02 00 00 
    6ee6:	74 28                	je     6f10 <remote_nic_vlan_get_mask+0x90>
    6ee8:	50                   	push   %eax
    6ee9:	50                   	push   %eax
    6eea:	8b 85 f0 fd ff ff    	mov    -0x210(%ebp),%eax
    6ef0:	6a f2                	push   $0xfffffff2
    6ef2:	50                   	push   %eax
    6ef3:	e8 f8 7a 00 00       	call   e9f0 <async_answer_0@plt>
    6ef8:	8b 4d 10             	mov    0x10(%ebp),%ecx
    6efb:	58                   	pop    %eax
    6efc:	5a                   	pop    %edx
    6efd:	6a f2                	push   $0xfffffff2
    6eff:	51                   	push   %ecx
    6f00:	e8 eb 7a 00 00       	call   e9f0 <async_answer_0@plt>
    6f05:	83 c4 10             	add    $0x10,%esp
    6f08:	8d 65 f8             	lea    -0x8(%ebp),%esp
    6f0b:	5b                   	pop    %ebx
    6f0c:	5e                   	pop    %esi
    6f0d:	5d                   	pop    %ebp
    6f0e:	c3                   	ret    
    6f0f:	90                   	nop
    6f10:	51                   	push   %ecx
    6f11:	68 00 02 00 00       	push   $0x200
    6f16:	56                   	push   %esi
    6f17:	8b b5 f0 fd ff ff    	mov    -0x210(%ebp),%esi
    6f1d:	56                   	push   %esi
    6f1e:	e8 5d 7a 00 00       	call   e980 <async_data_read_finalize@plt>
    6f23:	83 c4 10             	add    $0x10,%esp
    6f26:	8b 55 10             	mov    0x10(%ebp),%edx
    6f29:	50                   	push   %eax
    6f2a:	50                   	push   %eax
    6f2b:	53                   	push   %ebx
    6f2c:	52                   	push   %edx
    6f2d:	e8 be 7a 00 00       	call   e9f0 <async_answer_0@plt>
    6f32:	83 c4 10             	add    $0x10,%esp
    6f35:	8d 65 f8             	lea    -0x8(%ebp),%esp
    6f38:	5b                   	pop    %ebx
    6f39:	5e                   	pop    %esi
    6f3a:	5d                   	pop    %ebp
    6f3b:	c3                   	ret    
    6f3c:	8d 74 26 00          	lea    0x0(%esi,%eiz,1),%esi
    6f40:	8b 75 10             	mov    0x10(%ebp),%esi
    6f43:	53                   	push   %ebx
    6f44:	53                   	push   %ebx
    6f45:	6a f5                	push   $0xfffffff5
    6f47:	56                   	push   %esi
    6f48:	e8 a3 7a 00 00       	call   e9f0 <async_answer_0@plt>
    6f4d:	83 c4 10             	add    $0x10,%esp
    6f50:	8d 65 f8             	lea    -0x8(%ebp),%esp
    6f53:	5b                   	pop    %ebx
    6f54:	5e                   	pop    %esi
    6f55:	5d                   	pop    %ebp
    6f56:	c3                   	ret    
    6f57:	89 f6                	mov    %esi,%esi
    6f59:	8d bc 27 00 00 00 00 	lea    0x0(%edi,%eiz,1),%edi

00006f60 <remote_nic_get_device_info>:
    6f60:	55                   	push   %ebp
    6f61:	89 e5                	mov    %esp,%ebp
    6f63:	56                   	push   %esi
    6f64:	53                   	push   %ebx
    6f65:	81 ec 30 01 00 00    	sub    $0x130,%esp
    6f6b:	8b 5d 0c             	mov    0xc(%ebp),%ebx
    6f6e:	8b 43 1c             	mov    0x1c(%ebx),%eax
    6f71:	85 c0                	test   %eax,%eax
    6f73:	0f 84 cf 00 00 00    	je     7048 <remote_nic_get_device_info+0xe8>
    6f79:	8d b5 dc fe ff ff    	lea    -0x124(%ebp),%esi
    6f7f:	50                   	push   %eax
    6f80:	68 1c 01 00 00       	push   $0x11c
    6f85:	6a 00                	push   $0x0
    6f87:	56                   	push   %esi
    6f88:	e8 83 7c 00 00       	call   ec10 <memset@plt>
    6f8d:	8b 4d 08             	mov    0x8(%ebp),%ecx
    6f90:	58                   	pop    %eax
    6f91:	5a                   	pop    %edx
    6f92:	56                   	push   %esi
    6f93:	51                   	push   %ecx
    6f94:	ff 53 1c             	call   *0x1c(%ebx)
    6f97:	83 c4 10             	add    $0x10,%esp
    6f9a:	89 c3                	mov    %eax,%ebx
    6f9c:	85 c0                	test   %eax,%eax
    6f9e:	75 66                	jne    7006 <remote_nic_get_device_info+0xa6>
    6fa0:	50                   	push   %eax
    6fa1:	50                   	push   %eax
    6fa2:	8d 85 d8 fe ff ff    	lea    -0x128(%ebp),%eax
    6fa8:	50                   	push   %eax
    6fa9:	8d 85 d4 fe ff ff    	lea    -0x12c(%ebp),%eax
    6faf:	50                   	push   %eax
    6fb0:	e8 6b 7c 00 00       	call   ec20 <async_data_read_receive@plt>
    6fb5:	83 c4 10             	add    $0x10,%esp
    6fb8:	84 c0                	test   %al,%al
    6fba:	74 64                	je     7020 <remote_nic_get_device_info+0xc0>
    6fbc:	81 bd d8 fe ff ff 1b 	cmpl   $0x11b,-0x128(%ebp)
    6fc3:	01 00 00 
    6fc6:	77 28                	ja     6ff0 <remote_nic_get_device_info+0x90>
    6fc8:	50                   	push   %eax
    6fc9:	50                   	push   %eax
    6fca:	8b 85 d4 fe ff ff    	mov    -0x12c(%ebp),%eax
    6fd0:	6a fd                	push   $0xfffffffd
    6fd2:	50                   	push   %eax
    6fd3:	e8 18 7a 00 00       	call   e9f0 <async_answer_0@plt>
    6fd8:	8b 4d 10             	mov    0x10(%ebp),%ecx
    6fdb:	58                   	pop    %eax
    6fdc:	5a                   	pop    %edx
    6fdd:	6a fd                	push   $0xfffffffd
    6fdf:	51                   	push   %ecx
    6fe0:	e8 0b 7a 00 00       	call   e9f0 <async_answer_0@plt>
    6fe5:	83 c4 10             	add    $0x10,%esp
    6fe8:	8d 65 f8             	lea    -0x8(%ebp),%esp
    6feb:	5b                   	pop    %ebx
    6fec:	5e                   	pop    %esi
    6fed:	5d                   	pop    %ebp
    6fee:	c3                   	ret    
    6fef:	90                   	nop
    6ff0:	51                   	push   %ecx
    6ff1:	68 1c 01 00 00       	push   $0x11c
    6ff6:	56                   	push   %esi
    6ff7:	8b b5 d4 fe ff ff    	mov    -0x12c(%ebp),%esi
    6ffd:	56                   	push   %esi
    6ffe:	e8 7d 79 00 00       	call   e980 <async_data_read_finalize@plt>
    7003:	83 c4 10             	add    $0x10,%esp
    7006:	8b 55 10             	mov    0x10(%ebp),%edx
    7009:	50                   	push   %eax
    700a:	50                   	push   %eax
    700b:	53                   	push   %ebx
    700c:	52                   	push   %edx
    700d:	e8 de 79 00 00       	call   e9f0 <async_answer_0@plt>
    7012:	83 c4 10             	add    $0x10,%esp
    7015:	8d 65 f8             	lea    -0x8(%ebp),%esp
    7018:	5b                   	pop    %ebx
    7019:	5e                   	pop    %esi
    701a:	5d                   	pop    %ebp
    701b:	c3                   	ret    
    701c:	8d 74 26 00          	lea    0x0(%esi,%eiz,1),%esi
    7020:	8b b5 d4 fe ff ff    	mov    -0x12c(%ebp),%esi
    7026:	53                   	push   %ebx
    7027:	53                   	push   %ebx
    7028:	6a f2                	push   $0xfffffff2
    702a:	56                   	push   %esi
    702b:	e8 c0 79 00 00       	call   e9f0 <async_answer_0@plt>
    7030:	8b 4d 10             	mov    0x10(%ebp),%ecx
    7033:	58                   	pop    %eax
    7034:	5a                   	pop    %edx
    7035:	6a f2                	push   $0xfffffff2
    7037:	51                   	push   %ecx
    7038:	e8 b3 79 00 00       	call   e9f0 <async_answer_0@plt>
    703d:	83 c4 10             	add    $0x10,%esp
    7040:	8d 65 f8             	lea    -0x8(%ebp),%esp
    7043:	5b                   	pop    %ebx
    7044:	5e                   	pop    %esi
    7045:	5d                   	pop    %ebp
    7046:	c3                   	ret    
    7047:	90                   	nop
    7048:	8b 75 10             	mov    0x10(%ebp),%esi
    704b:	53                   	push   %ebx
    704c:	53                   	push   %ebx
    704d:	6a f5                	push   $0xfffffff5
    704f:	56                   	push   %esi
    7050:	e8 9b 79 00 00       	call   e9f0 <async_answer_0@plt>
    7055:	83 c4 10             	add    $0x10,%esp
    7058:	8d 65 f8             	lea    -0x8(%ebp),%esp
    705b:	5b                   	pop    %ebx
    705c:	5e                   	pop    %esi
    705d:	5d                   	pop    %ebp
    705e:	c3                   	ret    
    705f:	90                   	nop

00007060 <remote_nic_get_stats>:
    7060:	55                   	push   %ebp
    7061:	89 e5                	mov    %esp,%ebp
    7063:	56                   	push   %esi
    7064:	53                   	push   %ebx
    7065:	83 c4 80             	add    $0xffffff80,%esp
    7068:	8b 5d 0c             	mov    0xc(%ebp),%ebx
    706b:	8b 43 18             	mov    0x18(%ebx),%eax
    706e:	85 c0                	test   %eax,%eax
    7070:	0f 84 b2 00 00 00    	je     7128 <remote_nic_get_stats+0xc8>
    7076:	8d 75 8c             	lea    -0x74(%ebp),%esi
    7079:	50                   	push   %eax
    707a:	6a 6c                	push   $0x6c
    707c:	6a 00                	push   $0x0
    707e:	56                   	push   %esi
    707f:	e8 8c 7b 00 00       	call   ec10 <memset@plt>
    7084:	8b 4d 08             	mov    0x8(%ebp),%ecx
    7087:	58                   	pop    %eax
    7088:	5a                   	pop    %edx
    7089:	56                   	push   %esi
    708a:	51                   	push   %ecx
    708b:	ff 53 18             	call   *0x18(%ebx)
    708e:	83 c4 10             	add    $0x10,%esp
    7091:	89 c3                	mov    %eax,%ebx
    7093:	85 c0                	test   %eax,%eax
    7095:	75 51                	jne    70e8 <remote_nic_get_stats+0x88>
    7097:	50                   	push   %eax
    7098:	50                   	push   %eax
    7099:	8d 45 88             	lea    -0x78(%ebp),%eax
    709c:	50                   	push   %eax
    709d:	8d 45 84             	lea    -0x7c(%ebp),%eax
    70a0:	50                   	push   %eax
    70a1:	e8 7a 7b 00 00       	call   ec20 <async_data_read_receive@plt>
    70a6:	83 c4 10             	add    $0x10,%esp
    70a9:	84 c0                	test   %al,%al
    70ab:	74 53                	je     7100 <remote_nic_get_stats+0xa0>
    70ad:	83 7d 88 6b          	cmpl   $0x6b,-0x78(%ebp)
    70b1:	77 25                	ja     70d8 <remote_nic_get_stats+0x78>
    70b3:	50                   	push   %eax
    70b4:	50                   	push   %eax
    70b5:	8b 45 84             	mov    -0x7c(%ebp),%eax
    70b8:	6a fd                	push   $0xfffffffd
    70ba:	50                   	push   %eax
    70bb:	e8 30 79 00 00       	call   e9f0 <async_answer_0@plt>
    70c0:	8b 4d 10             	mov    0x10(%ebp),%ecx
    70c3:	58                   	pop    %eax
    70c4:	5a                   	pop    %edx
    70c5:	6a fd                	push   $0xfffffffd
    70c7:	51                   	push   %ecx
    70c8:	e8 23 79 00 00       	call   e9f0 <async_answer_0@plt>
    70cd:	83 c4 10             	add    $0x10,%esp
    70d0:	8d 65 f8             	lea    -0x8(%ebp),%esp
    70d3:	5b                   	pop    %ebx
    70d4:	5e                   	pop    %esi
    70d5:	5d                   	pop    %ebp
    70d6:	c3                   	ret    
    70d7:	90                   	nop
    70d8:	51                   	push   %ecx
    70d9:	6a 6c                	push   $0x6c
    70db:	56                   	push   %esi
    70dc:	8b 75 84             	mov    -0x7c(%ebp),%esi
    70df:	56                   	push   %esi
    70e0:	e8 9b 78 00 00       	call   e980 <async_data_read_finalize@plt>
    70e5:	83 c4 10             	add    $0x10,%esp
    70e8:	8b 55 10             	mov    0x10(%ebp),%edx
    70eb:	50                   	push   %eax
    70ec:	50                   	push   %eax
    70ed:	53                   	push   %ebx
    70ee:	52                   	push   %edx
    70ef:	e8 fc 78 00 00       	call   e9f0 <async_answer_0@plt>
    70f4:	83 c4 10             	add    $0x10,%esp
    70f7:	8d 65 f8             	lea    -0x8(%ebp),%esp
    70fa:	5b                   	pop    %ebx
    70fb:	5e                   	pop    %esi
    70fc:	5d                   	pop    %ebp
    70fd:	c3                   	ret    
    70fe:	66 90                	xchg   %ax,%ax
    7100:	8b 75 84             	mov    -0x7c(%ebp),%esi
    7103:	53                   	push   %ebx
    7104:	53                   	push   %ebx
    7105:	6a f2                	push   $0xfffffff2
    7107:	56                   	push   %esi
    7108:	e8 e3 78 00 00       	call   e9f0 <async_answer_0@plt>
    710d:	8b 4d 10             	mov    0x10(%ebp),%ecx
    7110:	58                   	pop    %eax
    7111:	5a                   	pop    %edx
    7112:	6a f2                	push   $0xfffffff2
    7114:	51                   	push   %ecx
    7115:	e8 d6 78 00 00       	call   e9f0 <async_answer_0@plt>
    711a:	83 c4 10             	add    $0x10,%esp
    711d:	8d 65 f8             	lea    -0x8(%ebp),%esp
    7120:	5b                   	pop    %ebx
    7121:	5e                   	pop    %esi
    7122:	5d                   	pop    %ebp
    7123:	c3                   	ret    
    7124:	8d 74 26 00          	lea    0x0(%esi,%eiz,1),%esi
    7128:	8b 75 10             	mov    0x10(%ebp),%esi
    712b:	53                   	push   %ebx
    712c:	53                   	push   %ebx
    712d:	6a f5                	push   $0xfffffff5
    712f:	56                   	push   %esi
    7130:	e8 bb 78 00 00       	call   e9f0 <async_answer_0@plt>
    7135:	83 c4 10             	add    $0x10,%esp
    7138:	8d 65 f8             	lea    -0x8(%ebp),%esp
    713b:	5b                   	pop    %ebx
    713c:	5e                   	pop    %esi
    713d:	5d                   	pop    %ebp
    713e:	c3                   	ret    
    713f:	90                   	nop

00007140 <remote_nic_get_address>:
    7140:	55                   	push   %ebp
    7141:	89 e5                	mov    %esp,%ebp
    7143:	56                   	push   %esi
    7144:	53                   	push   %ebx
    7145:	83 ec 10             	sub    $0x10,%esp
    7148:	8b 75 0c             	mov    0xc(%ebp),%esi
    714b:	8b 46 10             	mov    0x10(%esi),%eax
    714e:	85 c0                	test   %eax,%eax
    7150:	0f 84 ae 00 00 00    	je     7204 <remote_nic_get_address+0xc4>
    7156:	8d 5d f2             	lea    -0xe(%ebp),%ebx
    7159:	50                   	push   %eax
    715a:	6a 06                	push   $0x6
    715c:	6a 00                	push   $0x0
    715e:	53                   	push   %ebx
    715f:	e8 ac 7a 00 00       	call   ec10 <memset@plt>
    7164:	8b 4d 08             	mov    0x8(%ebp),%ecx
    7167:	58                   	pop    %eax
    7168:	5a                   	pop    %edx
    7169:	53                   	push   %ebx
    716a:	51                   	push   %ecx
    716b:	ff 56 10             	call   *0x10(%esi)
    716e:	83 c4 10             	add    $0x10,%esp
    7171:	89 c6                	mov    %eax,%esi
    7173:	85 c0                	test   %eax,%eax
    7175:	75 51                	jne    71c8 <remote_nic_get_address+0x88>
    7177:	50                   	push   %eax
    7178:	50                   	push   %eax
    7179:	8d 45 e8             	lea    -0x18(%ebp),%eax
    717c:	50                   	push   %eax
    717d:	8d 45 ec             	lea    -0x14(%ebp),%eax
    7180:	50                   	push   %eax
    7181:	e8 9a 7a 00 00       	call   ec20 <async_data_read_receive@plt>
    7186:	83 c4 10             	add    $0x10,%esp
    7189:	84 c0                	test   %al,%al
    718b:	74 53                	je     71e0 <remote_nic_get_address+0xa0>
    718d:	83 7d e8 06          	cmpl   $0x6,-0x18(%ebp)
    7191:	74 25                	je     71b8 <remote_nic_get_address+0x78>
    7193:	8b 45 ec             	mov    -0x14(%ebp),%eax
    7196:	56                   	push   %esi
    7197:	56                   	push   %esi
    7198:	6a fd                	push   $0xfffffffd
    719a:	50                   	push   %eax
    719b:	e8 50 78 00 00       	call   e9f0 <async_answer_0@plt>
    71a0:	8b 4d 10             	mov    0x10(%ebp),%ecx
    71a3:	58                   	pop    %eax
    71a4:	5a                   	pop    %edx
    71a5:	6a fd                	push   $0xfffffffd
    71a7:	51                   	push   %ecx
    71a8:	e8 43 78 00 00       	call   e9f0 <async_answer_0@plt>
    71ad:	83 c4 10             	add    $0x10,%esp
    71b0:	8d 65 f8             	lea    -0x8(%ebp),%esp
    71b3:	5b                   	pop    %ebx
    71b4:	5e                   	pop    %esi
    71b5:	5d                   	pop    %ebp
    71b6:	c3                   	ret    
    71b7:	90                   	nop
    71b8:	51                   	push   %ecx
    71b9:	6a 06                	push   $0x6
    71bb:	53                   	push   %ebx
    71bc:	8b 5d ec             	mov    -0x14(%ebp),%ebx
    71bf:	53                   	push   %ebx
    71c0:	e8 bb 77 00 00       	call   e980 <async_data_read_finalize@plt>
    71c5:	83 c4 10             	add    $0x10,%esp
    71c8:	8b 55 10             	mov    0x10(%ebp),%edx
    71cb:	50                   	push   %eax
    71cc:	50                   	push   %eax
    71cd:	56                   	push   %esi
    71ce:	52                   	push   %edx
    71cf:	e8 1c 78 00 00       	call   e9f0 <async_answer_0@plt>
    71d4:	83 c4 10             	add    $0x10,%esp
    71d7:	8d 65 f8             	lea    -0x8(%ebp),%esp
    71da:	5b                   	pop    %ebx
    71db:	5e                   	pop    %esi
    71dc:	5d                   	pop    %ebp
    71dd:	c3                   	ret    
    71de:	66 90                	xchg   %ax,%ax
    71e0:	8b 75 ec             	mov    -0x14(%ebp),%esi
    71e3:	53                   	push   %ebx
    71e4:	53                   	push   %ebx
    71e5:	6a f2                	push   $0xfffffff2
    71e7:	56                   	push   %esi
    71e8:	e8 03 78 00 00       	call   e9f0 <async_answer_0@plt>
    71ed:	8b 4d 10             	mov    0x10(%ebp),%ecx
    71f0:	58                   	pop    %eax
    71f1:	5a                   	pop    %edx
    71f2:	6a f2                	push   $0xfffffff2
    71f4:	51                   	push   %ecx
    71f5:	e8 f6 77 00 00       	call   e9f0 <async_answer_0@plt>
    71fa:	83 c4 10             	add    $0x10,%esp
    71fd:	8d 65 f8             	lea    -0x8(%ebp),%esp
    7200:	5b                   	pop    %ebx
    7201:	5e                   	pop    %esi
    7202:	5d                   	pop    %ebp
    7203:	c3                   	ret    
    7204:	53                   	push   %ebx
    7205:	68 75 05 00 00       	push   $0x575
    720a:	68 c4 e1 00 00       	push   $0xe1c4
    720f:	68 d9 e1 00 00       	push   $0xe1d9
    7214:	e8 77 78 00 00       	call   ea90 <assert_abort@plt>
    7219:	8d b4 26 00 00 00 00 	lea    0x0(%esi,%eiz,1),%esi

00007220 <remote_nic_wol_load_info>:
    7220:	55                   	push   %ebp
    7221:	89 e5                	mov    %esp,%ebp
    7223:	57                   	push   %edi
    7224:	56                   	push   %esi
    7225:	53                   	push   %ebx
    7226:	83 ec 1c             	sub    $0x1c,%esp
    7229:	8b 7d 0c             	mov    0xc(%ebp),%edi
    722c:	8b 8f 8c 00 00 00    	mov    0x8c(%edi),%ecx
    7232:	85 c9                	test   %ecx,%ecx
    7234:	0f 84 06 01 00 00    	je     7340 <remote_nic_wol_load_info+0x120>
    723a:	8b 45 14             	mov    0x14(%ebp),%eax
    723d:	c7 45 d8 00 00 00 00 	movl   $0x0,-0x28(%ebp)
    7244:	c7 45 dc 00 00 00 00 	movl   $0x0,-0x24(%ebp)
    724b:	8b 70 08             	mov    0x8(%eax),%esi
    724e:	85 f6                	test   %esi,%esi
    7250:	75 76                	jne    72c8 <remote_nic_wol_load_info+0xa8>
    7252:	31 db                	xor    %ebx,%ebx
    7254:	50                   	push   %eax
    7255:	56                   	push   %esi
    7256:	6a 00                	push   $0x0
    7258:	53                   	push   %ebx
    7259:	e8 b2 79 00 00       	call   ec10 <memset@plt>
    725e:	8d 45 d8             	lea    -0x28(%ebp),%eax
    7261:	89 04 24             	mov    %eax,(%esp)
    7264:	8d 45 dc             	lea    -0x24(%ebp),%eax
    7267:	53                   	push   %ebx
    7268:	56                   	push   %esi
    7269:	50                   	push   %eax
    726a:	8b 45 08             	mov    0x8(%ebp),%eax
    726d:	50                   	push   %eax
    726e:	ff 97 8c 00 00 00    	call   *0x8c(%edi)
    7274:	83 c4 20             	add    $0x20,%esp
    7277:	89 c7                	mov    %eax,%edi
    7279:	85 c0                	test   %eax,%eax
    727b:	0f 85 93 00 00 00    	jne    7314 <remote_nic_wol_load_info+0xf4>
    7281:	50                   	push   %eax
    7282:	50                   	push   %eax
    7283:	8d 45 e4             	lea    -0x1c(%ebp),%eax
    7286:	50                   	push   %eax
    7287:	8d 45 e0             	lea    -0x20(%ebp),%eax
    728a:	50                   	push   %eax
    728b:	e8 90 79 00 00       	call   ec20 <async_data_read_receive@plt>
    7290:	83 c4 10             	add    $0x10,%esp
    7293:	84 c0                	test   %al,%al
    7295:	75 59                	jne    72f0 <remote_nic_wol_load_info+0xd0>
    7297:	50                   	push   %eax
    7298:	50                   	push   %eax
    7299:	8b 45 e0             	mov    -0x20(%ebp),%eax
    729c:	6a f2                	push   $0xfffffff2
    729e:	50                   	push   %eax
    729f:	e8 4c 77 00 00       	call   e9f0 <async_answer_0@plt>
    72a4:	8b 4d 10             	mov    0x10(%ebp),%ecx
    72a7:	58                   	pop    %eax
    72a8:	5a                   	pop    %edx
    72a9:	6a f2                	push   $0xfffffff2
    72ab:	51                   	push   %ecx
    72ac:	e8 3f 77 00 00       	call   e9f0 <async_answer_0@plt>
    72b1:	89 1c 24             	mov    %ebx,(%esp)
    72b4:	e8 27 7b 00 00       	call   ede0 <free@plt>
    72b9:	83 c4 10             	add    $0x10,%esp
    72bc:	8d 65 f4             	lea    -0xc(%ebp),%esp
    72bf:	5b                   	pop    %ebx
    72c0:	5e                   	pop    %esi
    72c1:	5f                   	pop    %edi
    72c2:	5d                   	pop    %ebp
    72c3:	c3                   	ret    
    72c4:	8d 74 26 00          	lea    0x0(%esi,%eiz,1),%esi
    72c8:	83 ec 0c             	sub    $0xc,%esp
    72cb:	56                   	push   %esi
    72cc:	e8 df 76 00 00       	call   e9b0 <malloc@plt>
    72d1:	83 c4 10             	add    $0x10,%esp
    72d4:	89 c3                	mov    %eax,%ebx
    72d6:	85 c0                	test   %eax,%eax
    72d8:	0f 85 76 ff ff ff    	jne    7254 <remote_nic_wol_load_info+0x34>
    72de:	50                   	push   %eax
    72df:	50                   	push   %eax
    72e0:	8b 45 10             	mov    0x10(%ebp),%eax
    72e3:	6a fe                	push   $0xfffffffe
    72e5:	50                   	push   %eax
    72e6:	e8 05 77 00 00       	call   e9f0 <async_answer_0@plt>
    72eb:	83 c4 10             	add    $0x10,%esp
    72ee:	eb cc                	jmp    72bc <remote_nic_wol_load_info+0x9c>
    72f0:	8b 55 d8             	mov    -0x28(%ebp),%edx
    72f3:	8b 45 e4             	mov    -0x1c(%ebp),%eax
    72f6:	39 d0                	cmp    %edx,%eax
    72f8:	76 02                	jbe    72fc <remote_nic_wol_load_info+0xdc>
    72fa:	89 d0                	mov    %edx,%eax
    72fc:	39 f0                	cmp    %esi,%eax
    72fe:	76 02                	jbe    7302 <remote_nic_wol_load_info+0xe2>
    7300:	89 f0                	mov    %esi,%eax
    7302:	89 45 e4             	mov    %eax,-0x1c(%ebp)
    7305:	56                   	push   %esi
    7306:	50                   	push   %eax
    7307:	8b 45 e0             	mov    -0x20(%ebp),%eax
    730a:	53                   	push   %ebx
    730b:	50                   	push   %eax
    730c:	e8 6f 76 00 00       	call   e980 <async_data_read_finalize@plt>
    7311:	83 c4 10             	add    $0x10,%esp
    7314:	8b 55 dc             	mov    -0x24(%ebp),%edx
    7317:	8b 4d 10             	mov    0x10(%ebp),%ecx
    731a:	8b 45 d8             	mov    -0x28(%ebp),%eax
    731d:	50                   	push   %eax
    731e:	52                   	push   %edx
    731f:	57                   	push   %edi
    7320:	51                   	push   %ecx
    7321:	e8 0a 78 00 00       	call   eb30 <async_answer_2@plt>
    7326:	89 1c 24             	mov    %ebx,(%esp)
    7329:	e8 b2 7a 00 00       	call   ede0 <free@plt>
    732e:	83 c4 10             	add    $0x10,%esp
    7331:	8d 65 f4             	lea    -0xc(%ebp),%esp
    7334:	5b                   	pop    %ebx
    7335:	5e                   	pop    %esi
    7336:	5f                   	pop    %edi
    7337:	5d                   	pop    %ebp
    7338:	c3                   	ret    
    7339:	8d b4 26 00 00 00 00 	lea    0x0(%esi,%eiz,1),%esi
    7340:	8b 55 10             	mov    0x10(%ebp),%edx
    7343:	50                   	push   %eax
    7344:	50                   	push   %eax
    7345:	6a f5                	push   $0xfffffff5
    7347:	52                   	push   %edx
    7348:	e8 a3 76 00 00       	call   e9f0 <async_answer_0@plt>
    734d:	83 c4 10             	add    $0x10,%esp
    7350:	e9 67 ff ff ff       	jmp    72bc <remote_nic_wol_load_info+0x9c>
    7355:	8d 74 26 00          	lea    0x0(%esi,%eiz,1),%esi
    7359:	8d bc 27 00 00 00 00 	lea    0x0(%edi,%eiz,1),%edi

00007360 <remote_nic_wol_virtue_list>:
    7360:	55                   	push   %ebp
    7361:	89 e5                	mov    %esp,%ebp
    7363:	57                   	push   %edi
    7364:	56                   	push   %esi
    7365:	53                   	push   %ebx
    7366:	83 ec 2c             	sub    $0x2c,%esp
    7369:	8b 4d 0c             	mov    0xc(%ebp),%ecx
    736c:	8b 45 14             	mov    0x14(%ebp),%eax
    736f:	8b 91 84 00 00 00    	mov    0x84(%ecx),%edx
    7375:	85 d2                	test   %edx,%edx
    7377:	0f 84 2b 01 00 00    	je     74a8 <remote_nic_wol_virtue_list+0x148>
    737d:	8b 78 0c             	mov    0xc(%eax),%edi
    7380:	8b 70 08             	mov    0x8(%eax),%esi
    7383:	c7 45 dc 00 00 00 00 	movl   $0x0,-0x24(%ebp)
    738a:	85 ff                	test   %edi,%edi
    738c:	0f 84 9e 00 00 00    	je     7430 <remote_nic_wol_virtue_list+0xd0>
    7392:	83 ec 0c             	sub    $0xc,%esp
    7395:	8d 04 bd 00 00 00 00 	lea    0x0(,%edi,4),%eax
    739c:	89 45 d4             	mov    %eax,-0x2c(%ebp)
    739f:	50                   	push   %eax
    73a0:	e8 0b 76 00 00       	call   e9b0 <malloc@plt>
    73a5:	83 c4 10             	add    $0x10,%esp
    73a8:	89 c3                	mov    %eax,%ebx
    73aa:	85 c0                	test   %eax,%eax
    73ac:	0f 84 0e 01 00 00    	je     74c0 <remote_nic_wol_virtue_list+0x160>
    73b2:	8b 45 d4             	mov    -0x2c(%ebp),%eax
    73b5:	51                   	push   %ecx
    73b6:	50                   	push   %eax
    73b7:	6a 00                	push   $0x0
    73b9:	53                   	push   %ebx
    73ba:	e8 51 78 00 00       	call   ec10 <memset@plt>
    73bf:	8d 45 dc             	lea    -0x24(%ebp),%eax
    73c2:	89 04 24             	mov    %eax,(%esp)
    73c5:	8b 45 08             	mov    0x8(%ebp),%eax
    73c8:	53                   	push   %ebx
    73c9:	57                   	push   %edi
    73ca:	56                   	push   %esi
    73cb:	50                   	push   %eax
    73cc:	8b 45 0c             	mov    0xc(%ebp),%eax
    73cf:	ff 90 84 00 00 00    	call   *0x84(%eax)
    73d5:	8b 55 dc             	mov    -0x24(%ebp),%edx
    73d8:	83 c4 20             	add    $0x20,%esp
    73db:	85 d2                	test   %edx,%edx
    73dd:	74 7d                	je     745c <remote_nic_wol_virtue_list+0xfc>
    73df:	8d 45 e4             	lea    -0x1c(%ebp),%eax
    73e2:	56                   	push   %esi
    73e3:	56                   	push   %esi
    73e4:	50                   	push   %eax
    73e5:	8d 45 e0             	lea    -0x20(%ebp),%eax
    73e8:	50                   	push   %eax
    73e9:	e8 32 78 00 00       	call   ec20 <async_data_read_receive@plt>
    73ee:	83 c4 10             	add    $0x10,%esp
    73f1:	84 c0                	test   %al,%al
    73f3:	0f 84 87 00 00 00    	je     7480 <remote_nic_wol_virtue_list+0x120>
    73f9:	8b 45 dc             	mov    -0x24(%ebp),%eax
    73fc:	8d 14 85 00 00 00 00 	lea    0x0(,%eax,4),%edx
    7403:	8b 45 e4             	mov    -0x1c(%ebp),%eax
    7406:	39 c2                	cmp    %eax,%edx
    7408:	73 05                	jae    740f <remote_nic_wol_virtue_list+0xaf>
    740a:	89 55 e4             	mov    %edx,-0x1c(%ebp)
    740d:	89 d0                	mov    %edx,%eax
    740f:	8b 4d d4             	mov    -0x2c(%ebp),%ecx
    7412:	39 c1                	cmp    %eax,%ecx
    7414:	73 05                	jae    741b <remote_nic_wol_virtue_list+0xbb>
    7416:	89 4d e4             	mov    %ecx,-0x1c(%ebp)
    7419:	89 c8                	mov    %ecx,%eax
    741b:	57                   	push   %edi
    741c:	50                   	push   %eax
    741d:	8b 45 e0             	mov    -0x20(%ebp),%eax
    7420:	53                   	push   %ebx
    7421:	50                   	push   %eax
    7422:	e8 59 75 00 00       	call   e980 <async_data_read_finalize@plt>
    7427:	8b 55 dc             	mov    -0x24(%ebp),%edx
    742a:	83 c4 10             	add    $0x10,%esp
    742d:	eb 2d                	jmp    745c <remote_nic_wol_virtue_list+0xfc>
    742f:	90                   	nop
    7430:	50                   	push   %eax
    7431:	6a 00                	push   $0x0
    7433:	6a 00                	push   $0x0
    7435:	6a 00                	push   $0x0
    7437:	e8 d4 77 00 00       	call   ec10 <memset@plt>
    743c:	8d 45 dc             	lea    -0x24(%ebp),%eax
    743f:	89 04 24             	mov    %eax,(%esp)
    7442:	8b 55 08             	mov    0x8(%ebp),%edx
    7445:	8b 45 0c             	mov    0xc(%ebp),%eax
    7448:	6a 00                	push   $0x0
    744a:	6a 00                	push   $0x0
    744c:	56                   	push   %esi
    744d:	52                   	push   %edx
    744e:	31 db                	xor    %ebx,%ebx
    7450:	ff 90 84 00 00 00    	call   *0x84(%eax)
    7456:	8b 55 dc             	mov    -0x24(%ebp),%edx
    7459:	83 c4 20             	add    $0x20,%esp
    745c:	8b 75 10             	mov    0x10(%ebp),%esi
    745f:	51                   	push   %ecx
    7460:	52                   	push   %edx
    7461:	50                   	push   %eax
    7462:	56                   	push   %esi
    7463:	e8 58 78 00 00       	call   ecc0 <async_answer_1@plt>
    7468:	89 1c 24             	mov    %ebx,(%esp)
    746b:	e8 70 79 00 00       	call   ede0 <free@plt>
    7470:	83 c4 10             	add    $0x10,%esp
    7473:	8d 65 f4             	lea    -0xc(%ebp),%esp
    7476:	5b                   	pop    %ebx
    7477:	5e                   	pop    %esi
    7478:	5f                   	pop    %edi
    7479:	5d                   	pop    %ebp
    747a:	c3                   	ret    
    747b:	90                   	nop
    747c:	8d 74 26 00          	lea    0x0(%esi,%eiz,1),%esi
    7480:	50                   	push   %eax
    7481:	50                   	push   %eax
    7482:	8b 45 e0             	mov    -0x20(%ebp),%eax
    7485:	6a f2                	push   $0xfffffff2
    7487:	50                   	push   %eax
    7488:	e8 63 75 00 00       	call   e9f0 <async_answer_0@plt>
    748d:	8b 4d 10             	mov    0x10(%ebp),%ecx
    7490:	58                   	pop    %eax
    7491:	5a                   	pop    %edx
    7492:	6a f2                	push   $0xfffffff2
    7494:	51                   	push   %ecx
    7495:	e8 56 75 00 00       	call   e9f0 <async_answer_0@plt>
    749a:	89 1c 24             	mov    %ebx,(%esp)
    749d:	e8 3e 79 00 00       	call   ede0 <free@plt>
    74a2:	83 c4 10             	add    $0x10,%esp
    74a5:	eb cc                	jmp    7473 <remote_nic_wol_virtue_list+0x113>
    74a7:	90                   	nop
    74a8:	50                   	push   %eax
    74a9:	50                   	push   %eax
    74aa:	8b 45 10             	mov    0x10(%ebp),%eax
    74ad:	6a f5                	push   $0xfffffff5
    74af:	50                   	push   %eax
    74b0:	e8 3b 75 00 00       	call   e9f0 <async_answer_0@plt>
    74b5:	83 c4 10             	add    $0x10,%esp
    74b8:	eb b9                	jmp    7473 <remote_nic_wol_virtue_list+0x113>
    74ba:	8d b6 00 00 00 00    	lea    0x0(%esi),%esi
    74c0:	8b 45 10             	mov    0x10(%ebp),%eax
    74c3:	57                   	push   %edi
    74c4:	57                   	push   %edi
    74c5:	6a fe                	push   $0xfffffffe
    74c7:	50                   	push   %eax
    74c8:	e8 23 75 00 00       	call   e9f0 <async_answer_0@plt>
    74cd:	83 c4 10             	add    $0x10,%esp
    74d0:	eb a1                	jmp    7473 <remote_nic_wol_virtue_list+0x113>
    74d2:	8d b4 26 00 00 00 00 	lea    0x0(%esi,%eiz,1),%esi
    74d9:	8d bc 27 00 00 00 00 	lea    0x0(%edi,%eiz,1),%edi

000074e0 <remote_nic_wol_virtue_probe>:
    74e0:	55                   	push   %ebp
    74e1:	89 e5                	mov    %esp,%ebp
    74e3:	57                   	push   %edi
    74e4:	56                   	push   %esi
    74e5:	53                   	push   %ebx
    74e6:	83 ec 1c             	sub    $0x1c,%esp
    74e9:	8b 4d 0c             	mov    0xc(%ebp),%ecx
    74ec:	8b 45 14             	mov    0x14(%ebp),%eax
    74ef:	8b 91 80 00 00 00    	mov    0x80(%ecx),%edx
    74f5:	85 d2                	test   %edx,%edx
    74f7:	0f 84 2b 01 00 00    	je     7628 <remote_nic_wol_virtue_probe+0x148>
    74fd:	8b 58 0c             	mov    0xc(%eax),%ebx
    7500:	8b 78 08             	mov    0x8(%eax),%edi
    7503:	c7 45 d8 00 00 00 00 	movl   $0x0,-0x28(%ebp)
    750a:	c7 45 dc 00 00 00 00 	movl   $0x0,-0x24(%ebp)
    7511:	85 db                	test   %ebx,%ebx
    7513:	0f 84 8f 00 00 00    	je     75a8 <remote_nic_wol_virtue_probe+0xc8>
    7519:	83 ec 0c             	sub    $0xc,%esp
    751c:	53                   	push   %ebx
    751d:	e8 8e 74 00 00       	call   e9b0 <malloc@plt>
    7522:	83 c4 10             	add    $0x10,%esp
    7525:	89 c6                	mov    %eax,%esi
    7527:	85 c0                	test   %eax,%eax
    7529:	0f 84 11 01 00 00    	je     7640 <remote_nic_wol_virtue_probe+0x160>
    752f:	50                   	push   %eax
    7530:	53                   	push   %ebx
    7531:	6a 00                	push   $0x0
    7533:	56                   	push   %esi
    7534:	e8 d7 76 00 00       	call   ec10 <memset@plt>
    7539:	58                   	pop    %eax
    753a:	8d 45 dc             	lea    -0x24(%ebp),%eax
    753d:	5a                   	pop    %edx
    753e:	50                   	push   %eax
    753f:	8d 45 d8             	lea    -0x28(%ebp),%eax
    7542:	56                   	push   %esi
    7543:	53                   	push   %ebx
    7544:	50                   	push   %eax
    7545:	8b 45 0c             	mov    0xc(%ebp),%eax
    7548:	8b 4d 08             	mov    0x8(%ebp),%ecx
    754b:	57                   	push   %edi
    754c:	51                   	push   %ecx
    754d:	ff 90 80 00 00 00    	call   *0x80(%eax)
    7553:	89 c7                	mov    %eax,%edi
    7555:	8b 45 dc             	mov    -0x24(%ebp),%eax
    7558:	83 c4 20             	add    $0x20,%esp
    755b:	85 c0                	test   %eax,%eax
    755d:	74 7b                	je     75da <remote_nic_wol_virtue_probe+0xfa>
    755f:	50                   	push   %eax
    7560:	50                   	push   %eax
    7561:	8d 45 e4             	lea    -0x1c(%ebp),%eax
    7564:	50                   	push   %eax
    7565:	8d 45 e0             	lea    -0x20(%ebp),%eax
    7568:	50                   	push   %eax
    7569:	e8 b2 76 00 00       	call   ec20 <async_data_read_receive@plt>
    756e:	83 c4 10             	add    $0x10,%esp
    7571:	84 c0                	test   %al,%al
    7573:	0f 84 87 00 00 00    	je     7600 <remote_nic_wol_virtue_probe+0x120>
    7579:	8b 45 e4             	mov    -0x1c(%ebp),%eax
    757c:	8b 55 dc             	mov    -0x24(%ebp),%edx
    757f:	39 d0                	cmp    %edx,%eax
    7581:	76 05                	jbe    7588 <remote_nic_wol_virtue_probe+0xa8>
    7583:	89 55 e4             	mov    %edx,-0x1c(%ebp)
    7586:	89 d0                	mov    %edx,%eax
    7588:	39 c3                	cmp    %eax,%ebx
    758a:	73 05                	jae    7591 <remote_nic_wol_virtue_probe+0xb1>
    758c:	89 5d e4             	mov    %ebx,-0x1c(%ebp)
    758f:	89 d8                	mov    %ebx,%eax
    7591:	8b 4d e0             	mov    -0x20(%ebp),%ecx
    7594:	52                   	push   %edx
    7595:	50                   	push   %eax
    7596:	56                   	push   %esi
    7597:	51                   	push   %ecx
    7598:	e8 e3 73 00 00       	call   e980 <async_data_read_finalize@plt>
    759d:	8b 45 dc             	mov    -0x24(%ebp),%eax
    75a0:	83 c4 10             	add    $0x10,%esp
    75a3:	eb 35                	jmp    75da <remote_nic_wol_virtue_probe+0xfa>
    75a5:	8d 76 00             	lea    0x0(%esi),%esi
    75a8:	50                   	push   %eax
    75a9:	6a 00                	push   $0x0
    75ab:	6a 00                	push   $0x0
    75ad:	6a 00                	push   $0x0
    75af:	e8 5c 76 00 00       	call   ec10 <memset@plt>
    75b4:	8d 45 dc             	lea    -0x24(%ebp),%eax
    75b7:	5a                   	pop    %edx
    75b8:	59                   	pop    %ecx
    75b9:	50                   	push   %eax
    75ba:	8d 45 d8             	lea    -0x28(%ebp),%eax
    75bd:	6a 00                	push   $0x0
    75bf:	6a 00                	push   $0x0
    75c1:	50                   	push   %eax
    75c2:	8b 45 0c             	mov    0xc(%ebp),%eax
    75c5:	8b 5d 08             	mov    0x8(%ebp),%ebx
    75c8:	57                   	push   %edi
    75c9:	53                   	push   %ebx
    75ca:	ff 90 80 00 00 00    	call   *0x80(%eax)
    75d0:	31 f6                	xor    %esi,%esi
    75d2:	89 c7                	mov    %eax,%edi
    75d4:	83 c4 20             	add    $0x20,%esp
    75d7:	8b 45 dc             	mov    -0x24(%ebp),%eax
    75da:	8b 5d d8             	mov    -0x28(%ebp),%ebx
    75dd:	50                   	push   %eax
    75de:	53                   	push   %ebx
    75df:	57                   	push   %edi
    75e0:	8b 7d 10             	mov    0x10(%ebp),%edi
    75e3:	57                   	push   %edi
    75e4:	e8 47 75 00 00       	call   eb30 <async_answer_2@plt>
    75e9:	89 34 24             	mov    %esi,(%esp)
    75ec:	e8 ef 77 00 00       	call   ede0 <free@plt>
    75f1:	83 c4 10             	add    $0x10,%esp
    75f4:	8d 65 f4             	lea    -0xc(%ebp),%esp
    75f7:	5b                   	pop    %ebx
    75f8:	5e                   	pop    %esi
    75f9:	5f                   	pop    %edi
    75fa:	5d                   	pop    %ebp
    75fb:	c3                   	ret    
    75fc:	8d 74 26 00          	lea    0x0(%esi,%eiz,1),%esi
    7600:	8b 7d e0             	mov    -0x20(%ebp),%edi
    7603:	53                   	push   %ebx
    7604:	53                   	push   %ebx
    7605:	6a f2                	push   $0xfffffff2
    7607:	57                   	push   %edi
    7608:	e8 e3 73 00 00       	call   e9f0 <async_answer_0@plt>
    760d:	8b 4d 10             	mov    0x10(%ebp),%ecx
    7610:	58                   	pop    %eax
    7611:	5a                   	pop    %edx
    7612:	6a f2                	push   $0xfffffff2
    7614:	51                   	push   %ecx
    7615:	e8 d6 73 00 00       	call   e9f0 <async_answer_0@plt>
    761a:	89 34 24             	mov    %esi,(%esp)
    761d:	e8 be 77 00 00       	call   ede0 <free@plt>
    7622:	83 c4 10             	add    $0x10,%esp
    7625:	eb cd                	jmp    75f4 <remote_nic_wol_virtue_probe+0x114>
    7627:	90                   	nop
    7628:	50                   	push   %eax
    7629:	50                   	push   %eax
    762a:	8b 45 10             	mov    0x10(%ebp),%eax
    762d:	6a f5                	push   $0xfffffff5
    762f:	50                   	push   %eax
    7630:	e8 bb 73 00 00       	call   e9f0 <async_answer_0@plt>
    7635:	83 c4 10             	add    $0x10,%esp
    7638:	eb ba                	jmp    75f4 <remote_nic_wol_virtue_probe+0x114>
    763a:	8d b6 00 00 00 00    	lea    0x0(%esi),%esi
    7640:	50                   	push   %eax
    7641:	50                   	push   %eax
    7642:	8b 45 10             	mov    0x10(%ebp),%eax
    7645:	6a fe                	push   $0xfffffffe
    7647:	50                   	push   %eax
    7648:	e8 a3 73 00 00       	call   e9f0 <async_answer_0@plt>
    764d:	83 c4 10             	add    $0x10,%esp
    7650:	eb a2                	jmp    75f4 <remote_nic_wol_virtue_probe+0x114>
    7652:	8d b4 26 00 00 00 00 	lea    0x0(%esi,%eiz,1),%esi
    7659:	8d bc 27 00 00 00 00 	lea    0x0(%edi,%eiz,1),%edi

00007660 <remote_nic_wol_virtue_add>:
    7660:	55                   	push   %ebp
    7661:	89 e5                	mov    %esp,%ebp
    7663:	57                   	push   %edi
    7664:	56                   	push   %esi
    7665:	53                   	push   %ebx
    7666:	83 ec 1c             	sub    $0x1c,%esp
    7669:	8b 5d 0c             	mov    0xc(%ebp),%ebx
    766c:	8b 75 14             	mov    0x14(%ebp),%esi
    766f:	8b 43 78             	mov    0x78(%ebx),%eax
    7672:	8b 7e 0c             	mov    0xc(%esi),%edi
    7675:	85 c0                	test   %eax,%eax
    7677:	0f 84 eb 00 00 00    	je     7768 <remote_nic_wol_virtue_add+0x108>
    767d:	c7 45 e0 00 00 00 00 	movl   $0x0,-0x20(%ebp)
    7684:	85 ff                	test   %edi,%edi
    7686:	74 78                	je     7700 <remote_nic_wol_virtue_add+0xa0>
    7688:	8d 45 e0             	lea    -0x20(%ebp),%eax
    768b:	57                   	push   %edi
    768c:	57                   	push   %edi
    768d:	50                   	push   %eax
    768e:	8d 45 dc             	lea    -0x24(%ebp),%eax
    7691:	50                   	push   %eax
    7692:	e8 39 77 00 00       	call   edd0 <async_data_write_receive@plt>
    7697:	83 c4 10             	add    $0x10,%esp
    769a:	84 c0                	test   %al,%al
    769c:	75 2a                	jne    76c8 <remote_nic_wol_virtue_add+0x68>
    769e:	50                   	push   %eax
    769f:	50                   	push   %eax
    76a0:	8b 45 dc             	mov    -0x24(%ebp),%eax
    76a3:	6a f2                	push   $0xfffffff2
    76a5:	50                   	push   %eax
    76a6:	e8 45 73 00 00       	call   e9f0 <async_answer_0@plt>
    76ab:	8b 4d 10             	mov    0x10(%ebp),%ecx
    76ae:	58                   	pop    %eax
    76af:	5a                   	pop    %edx
    76b0:	6a f2                	push   $0xfffffff2
    76b2:	51                   	push   %ecx
    76b3:	e8 38 73 00 00       	call   e9f0 <async_answer_0@plt>
    76b8:	83 c4 10             	add    $0x10,%esp
    76bb:	8d 65 f4             	lea    -0xc(%ebp),%esp
    76be:	5b                   	pop    %ebx
    76bf:	5e                   	pop    %esi
    76c0:	5f                   	pop    %edi
    76c1:	5d                   	pop    %ebp
    76c2:	c3                   	ret    
    76c3:	90                   	nop
    76c4:	8d 74 26 00          	lea    0x0(%esi,%eiz,1),%esi
    76c8:	83 ec 0c             	sub    $0xc,%esp
    76cb:	8b 7d e0             	mov    -0x20(%ebp),%edi
    76ce:	57                   	push   %edi
    76cf:	e8 dc 72 00 00       	call   e9b0 <malloc@plt>
    76d4:	83 c4 10             	add    $0x10,%esp
    76d7:	89 c7                	mov    %eax,%edi
    76d9:	85 c0                	test   %eax,%eax
    76db:	0f 84 a7 00 00 00    	je     7788 <remote_nic_wol_virtue_add+0x128>
    76e1:	50                   	push   %eax
    76e2:	8b 45 e0             	mov    -0x20(%ebp),%eax
    76e5:	50                   	push   %eax
    76e6:	8b 45 dc             	mov    -0x24(%ebp),%eax
    76e9:	57                   	push   %edi
    76ea:	50                   	push   %eax
    76eb:	e8 50 76 00 00       	call   ed40 <async_data_write_finalize@plt>
    76f0:	83 c4 10             	add    $0x10,%esp
    76f3:	85 c0                	test   %eax,%eax
    76f5:	75 51                	jne    7748 <remote_nic_wol_virtue_add+0xe8>
    76f7:	8b 45 e0             	mov    -0x20(%ebp),%eax
    76fa:	eb 08                	jmp    7704 <remote_nic_wol_virtue_add+0xa4>
    76fc:	8d 74 26 00          	lea    0x0(%esi,%eiz,1),%esi
    7700:	31 c0                	xor    %eax,%eax
    7702:	31 ff                	xor    %edi,%edi
    7704:	83 ec 0c             	sub    $0xc,%esp
    7707:	8d 4d e4             	lea    -0x1c(%ebp),%ecx
    770a:	8b 55 08             	mov    0x8(%ebp),%edx
    770d:	c7 45 e4 00 00 00 00 	movl   $0x0,-0x1c(%ebp)
    7714:	51                   	push   %ecx
    7715:	50                   	push   %eax
    7716:	8b 46 08             	mov    0x8(%esi),%eax
    7719:	57                   	push   %edi
    771a:	50                   	push   %eax
    771b:	52                   	push   %edx
    771c:	ff 53 78             	call   *0x78(%ebx)
    771f:	83 c4 1c             	add    $0x1c,%esp
    7722:	8b 4d e4             	mov    -0x1c(%ebp),%ecx
    7725:	8b 5d 10             	mov    0x10(%ebp),%ebx
    7728:	51                   	push   %ecx
    7729:	50                   	push   %eax
    772a:	53                   	push   %ebx
    772b:	e8 90 75 00 00       	call   ecc0 <async_answer_1@plt>
    7730:	89 3c 24             	mov    %edi,(%esp)
    7733:	e8 a8 76 00 00       	call   ede0 <free@plt>
    7738:	83 c4 10             	add    $0x10,%esp
    773b:	8d 65 f4             	lea    -0xc(%ebp),%esp
    773e:	5b                   	pop    %ebx
    773f:	5e                   	pop    %esi
    7740:	5f                   	pop    %edi
    7741:	5d                   	pop    %ebp
    7742:	c3                   	ret    
    7743:	90                   	nop
    7744:	8d 74 26 00          	lea    0x0(%esi,%eiz,1),%esi
    7748:	8b 45 10             	mov    0x10(%ebp),%eax
    774b:	56                   	push   %esi
    774c:	56                   	push   %esi
    774d:	6a f2                	push   $0xfffffff2
    774f:	50                   	push   %eax
    7750:	e8 9b 72 00 00       	call   e9f0 <async_answer_0@plt>
    7755:	89 3c 24             	mov    %edi,(%esp)
    7758:	e8 83 76 00 00       	call   ede0 <free@plt>
    775d:	83 c4 10             	add    $0x10,%esp
    7760:	8d 65 f4             	lea    -0xc(%ebp),%esp
    7763:	5b                   	pop    %ebx
    7764:	5e                   	pop    %esi
    7765:	5f                   	pop    %edi
    7766:	5d                   	pop    %ebp
    7767:	c3                   	ret    
    7768:	85 ff                	test   %edi,%edi
    776a:	75 44                	jne    77b0 <remote_nic_wol_virtue_add+0x150>
    776c:	50                   	push   %eax
    776d:	50                   	push   %eax
    776e:	8b 45 10             	mov    0x10(%ebp),%eax
    7771:	6a f5                	push   $0xfffffff5
    7773:	50                   	push   %eax
    7774:	e8 77 72 00 00       	call   e9f0 <async_answer_0@plt>
    7779:	83 c4 10             	add    $0x10,%esp
    777c:	e9 fc fe ff ff       	jmp    767d <remote_nic_wol_virtue_add+0x1d>
    7781:	8d b4 26 00 00 00 00 	lea    0x0(%esi,%eiz,1),%esi
    7788:	50                   	push   %eax
    7789:	50                   	push   %eax
    778a:	8b 45 dc             	mov    -0x24(%ebp),%eax
    778d:	6a fe                	push   $0xfffffffe
    778f:	50                   	push   %eax
    7790:	e8 5b 72 00 00       	call   e9f0 <async_answer_0@plt>
    7795:	8b 5d 10             	mov    0x10(%ebp),%ebx
    7798:	5a                   	pop    %edx
    7799:	59                   	pop    %ecx
    779a:	6a fe                	push   $0xfffffffe
    779c:	53                   	push   %ebx
    779d:	e8 4e 72 00 00       	call   e9f0 <async_answer_0@plt>
    77a2:	83 c4 10             	add    $0x10,%esp
    77a5:	e9 11 ff ff ff       	jmp    76bb <remote_nic_wol_virtue_add+0x5b>
    77aa:	8d b6 00 00 00 00    	lea    0x0(%esi),%esi
    77b0:	50                   	push   %eax
    77b1:	50                   	push   %eax
    77b2:	8d 45 dc             	lea    -0x24(%ebp),%eax
    77b5:	6a 00                	push   $0x0
    77b7:	50                   	push   %eax
    77b8:	e8 13 76 00 00       	call   edd0 <async_data_write_receive@plt>
    77bd:	8b 4d dc             	mov    -0x24(%ebp),%ecx
    77c0:	58                   	pop    %eax
    77c1:	5a                   	pop    %edx
    77c2:	6a f5                	push   $0xfffffff5
    77c4:	51                   	push   %ecx
    77c5:	e8 26 72 00 00       	call   e9f0 <async_answer_0@plt>
    77ca:	83 c4 10             	add    $0x10,%esp
    77cd:	eb 9d                	jmp    776c <remote_nic_wol_virtue_add+0x10c>
    77cf:	90                   	nop

000077d0 <remote_nic_blocked_sources_set>:
    77d0:	55                   	push   %ebp
    77d1:	89 e5                	mov    %esp,%ebp
    77d3:	57                   	push   %edi
    77d4:	56                   	push   %esi
    77d5:	53                   	push   %ebx
    77d6:	83 ec 1c             	sub    $0x1c,%esp
    77d9:	31 f6                	xor    %esi,%esi
    77db:	8b 45 14             	mov    0x14(%ebp),%eax
    77de:	8b 58 08             	mov    0x8(%eax),%ebx
    77e1:	85 db                	test   %ebx,%ebx
    77e3:	75 3b                	jne    7820 <remote_nic_blocked_sources_set+0x50>
    77e5:	8b 45 0c             	mov    0xc(%ebp),%eax
    77e8:	8b 40 68             	mov    0x68(%eax),%eax
    77eb:	85 c0                	test   %eax,%eax
    77ed:	0f 84 cd 00 00 00    	je     78c0 <remote_nic_blocked_sources_set+0xf0>
    77f3:	51                   	push   %ecx
    77f4:	53                   	push   %ebx
    77f5:	8b 5d 08             	mov    0x8(%ebp),%ebx
    77f8:	56                   	push   %esi
    77f9:	53                   	push   %ebx
    77fa:	ff d0                	call   *%eax
    77fc:	8b 4d 10             	mov    0x10(%ebp),%ecx
    77ff:	5f                   	pop    %edi
    7800:	5a                   	pop    %edx
    7801:	50                   	push   %eax
    7802:	51                   	push   %ecx
    7803:	e8 e8 71 00 00       	call   e9f0 <async_answer_0@plt>
    7808:	83 c4 10             	add    $0x10,%esp
    780b:	83 ec 0c             	sub    $0xc,%esp
    780e:	56                   	push   %esi
    780f:	e8 cc 75 00 00       	call   ede0 <free@plt>
    7814:	83 c4 10             	add    $0x10,%esp
    7817:	8d 65 f4             	lea    -0xc(%ebp),%esp
    781a:	5b                   	pop    %ebx
    781b:	5e                   	pop    %esi
    781c:	5f                   	pop    %edi
    781d:	5d                   	pop    %ebp
    781e:	c3                   	ret    
    781f:	90                   	nop
    7820:	8d 45 e0             	lea    -0x20(%ebp),%eax
    7823:	56                   	push   %esi
    7824:	56                   	push   %esi
    7825:	50                   	push   %eax
    7826:	8d 45 e4             	lea    -0x1c(%ebp),%eax
    7829:	50                   	push   %eax
    782a:	e8 a1 75 00 00       	call   edd0 <async_data_write_receive@plt>
    782f:	83 c4 10             	add    $0x10,%esp
    7832:	84 c0                	test   %al,%al
    7834:	0f 84 9e 00 00 00    	je     78d8 <remote_nic_blocked_sources_set+0x108>
    783a:	8d 04 5b             	lea    (%ebx,%ebx,2),%eax
    783d:	01 c0                	add    %eax,%eax
    783f:	3b 45 e0             	cmp    -0x20(%ebp),%eax
    7842:	74 2c                	je     7870 <remote_nic_blocked_sources_set+0xa0>
    7844:	8b 75 e4             	mov    -0x1c(%ebp),%esi
    7847:	53                   	push   %ebx
    7848:	53                   	push   %ebx
    7849:	6a fd                	push   $0xfffffffd
    784b:	56                   	push   %esi
    784c:	e8 9f 71 00 00       	call   e9f0 <async_answer_0@plt>
    7851:	5f                   	pop    %edi
    7852:	58                   	pop    %eax
    7853:	8b 45 10             	mov    0x10(%ebp),%eax
    7856:	6a fd                	push   $0xfffffffd
    7858:	50                   	push   %eax
    7859:	e8 92 71 00 00       	call   e9f0 <async_answer_0@plt>
    785e:	83 c4 10             	add    $0x10,%esp
    7861:	8d 65 f4             	lea    -0xc(%ebp),%esp
    7864:	5b                   	pop    %ebx
    7865:	5e                   	pop    %esi
    7866:	5f                   	pop    %edi
    7867:	5d                   	pop    %ebp
    7868:	c3                   	ret    
    7869:	8d b4 26 00 00 00 00 	lea    0x0(%esi,%eiz,1),%esi
    7870:	83 ec 0c             	sub    $0xc,%esp
    7873:	50                   	push   %eax
    7874:	e8 37 71 00 00       	call   e9b0 <malloc@plt>
    7879:	83 c4 10             	add    $0x10,%esp
    787c:	89 c7                	mov    %eax,%edi
    787e:	89 c6                	mov    %eax,%esi
    7880:	85 c0                	test   %eax,%eax
    7882:	74 76                	je     78fa <remote_nic_blocked_sources_set+0x12a>
    7884:	50                   	push   %eax
    7885:	8b 45 e0             	mov    -0x20(%ebp),%eax
    7888:	50                   	push   %eax
    7889:	8b 45 e4             	mov    -0x1c(%ebp),%eax
    788c:	57                   	push   %edi
    788d:	50                   	push   %eax
    788e:	e8 ad 74 00 00       	call   ed40 <async_data_write_finalize@plt>
    7893:	83 c4 10             	add    $0x10,%esp
    7896:	85 c0                	test   %eax,%eax
    7898:	0f 84 47 ff ff ff    	je     77e5 <remote_nic_blocked_sources_set+0x15>
    789e:	8b 75 10             	mov    0x10(%ebp),%esi
    78a1:	53                   	push   %ebx
    78a2:	53                   	push   %ebx
    78a3:	6a f2                	push   $0xfffffff2
    78a5:	56                   	push   %esi
    78a6:	e8 45 71 00 00       	call   e9f0 <async_answer_0@plt>
    78ab:	89 3c 24             	mov    %edi,(%esp)
    78ae:	e8 2d 75 00 00       	call   ede0 <free@plt>
    78b3:	83 c4 10             	add    $0x10,%esp
    78b6:	e9 5c ff ff ff       	jmp    7817 <remote_nic_blocked_sources_set+0x47>
    78bb:	90                   	nop
    78bc:	8d 74 26 00          	lea    0x0(%esi,%eiz,1),%esi
    78c0:	8b 55 10             	mov    0x10(%ebp),%edx
    78c3:	50                   	push   %eax
    78c4:	50                   	push   %eax
    78c5:	6a f5                	push   $0xfffffff5
    78c7:	52                   	push   %edx
    78c8:	e8 23 71 00 00       	call   e9f0 <async_answer_0@plt>
    78cd:	83 c4 10             	add    $0x10,%esp
    78d0:	e9 36 ff ff ff       	jmp    780b <remote_nic_blocked_sources_set+0x3b>
    78d5:	8d 76 00             	lea    0x0(%esi),%esi
    78d8:	50                   	push   %eax
    78d9:	50                   	push   %eax
    78da:	8b 45 e4             	mov    -0x1c(%ebp),%eax
    78dd:	6a f2                	push   $0xfffffff2
    78df:	50                   	push   %eax
    78e0:	e8 0b 71 00 00       	call   e9f0 <async_answer_0@plt>
    78e5:	8b 4d 10             	mov    0x10(%ebp),%ecx
    78e8:	58                   	pop    %eax
    78e9:	5a                   	pop    %edx
    78ea:	6a f2                	push   $0xfffffff2
    78ec:	51                   	push   %ecx
    78ed:	e8 fe 70 00 00       	call   e9f0 <async_answer_0@plt>
    78f2:	83 c4 10             	add    $0x10,%esp
    78f5:	e9 1d ff ff ff       	jmp    7817 <remote_nic_blocked_sources_set+0x47>
    78fa:	50                   	push   %eax
    78fb:	50                   	push   %eax
    78fc:	8b 45 e4             	mov    -0x1c(%ebp),%eax
    78ff:	6a fe                	push   $0xfffffffe
    7901:	50                   	push   %eax
    7902:	e8 e9 70 00 00       	call   e9f0 <async_answer_0@plt>
    7907:	8b 4d 10             	mov    0x10(%ebp),%ecx
    790a:	58                   	pop    %eax
    790b:	5a                   	pop    %edx
    790c:	6a fe                	push   $0xfffffffe
    790e:	51                   	push   %ecx
    790f:	e8 dc 70 00 00       	call   e9f0 <async_answer_0@plt>
    7914:	83 c4 10             	add    $0x10,%esp
    7917:	e9 fb fe ff ff       	jmp    7817 <remote_nic_blocked_sources_set+0x47>
    791c:	8d 74 26 00          	lea    0x0(%esi,%eiz,1),%esi

00007920 <remote_nic_blocked_sources_get>:
    7920:	55                   	push   %ebp
    7921:	89 e5                	mov    %esp,%ebp
    7923:	57                   	push   %edi
    7924:	56                   	push   %esi
    7925:	53                   	push   %ebx
    7926:	83 ec 1c             	sub    $0x1c,%esp
    7929:	8b 45 0c             	mov    0xc(%ebp),%eax
    792c:	8b 50 64             	mov    0x64(%eax),%edx
    792f:	85 d2                	test   %edx,%edx
    7931:	0f 84 19 01 00 00    	je     7a50 <remote_nic_blocked_sources_get+0x130>
    7937:	8b 45 14             	mov    0x14(%ebp),%eax
    793a:	8b 70 08             	mov    0x8(%eax),%esi
    793d:	85 f6                	test   %esi,%esi
    793f:	75 4f                	jne    7990 <remote_nic_blocked_sources_get+0x70>
    7941:	50                   	push   %eax
    7942:	6a 00                	push   $0x0
    7944:	6a 00                	push   $0x0
    7946:	6a 00                	push   $0x0
    7948:	e8 c3 72 00 00       	call   ec10 <memset@plt>
    794d:	8d 45 dc             	lea    -0x24(%ebp),%eax
    7950:	50                   	push   %eax
    7951:	8b 55 08             	mov    0x8(%ebp),%edx
    7954:	8b 45 0c             	mov    0xc(%ebp),%eax
    7957:	6a 00                	push   $0x0
    7959:	c7 45 dc 00 00 00 00 	movl   $0x0,-0x24(%ebp)
    7960:	6a 00                	push   $0x0
    7962:	52                   	push   %edx
    7963:	31 db                	xor    %ebx,%ebx
    7965:	ff 50 64             	call   *0x64(%eax)
    7968:	8b 55 dc             	mov    -0x24(%ebp),%edx
    796b:	83 c4 20             	add    $0x20,%esp
    796e:	57                   	push   %edi
    796f:	52                   	push   %edx
    7970:	50                   	push   %eax
    7971:	8b 45 10             	mov    0x10(%ebp),%eax
    7974:	50                   	push   %eax
    7975:	e8 46 73 00 00       	call   ecc0 <async_answer_1@plt>
    797a:	89 1c 24             	mov    %ebx,(%esp)
    797d:	e8 5e 74 00 00       	call   ede0 <free@plt>
    7982:	83 c4 10             	add    $0x10,%esp
    7985:	8d 65 f4             	lea    -0xc(%ebp),%esp
    7988:	5b                   	pop    %ebx
    7989:	5e                   	pop    %esi
    798a:	5f                   	pop    %edi
    798b:	5d                   	pop    %ebp
    798c:	c3                   	ret    
    798d:	8d 76 00             	lea    0x0(%esi),%esi
    7990:	83 ec 0c             	sub    $0xc,%esp
    7993:	8d 3c 76             	lea    (%esi,%esi,2),%edi
    7996:	01 ff                	add    %edi,%edi
    7998:	57                   	push   %edi
    7999:	e8 12 70 00 00       	call   e9b0 <malloc@plt>
    799e:	83 c4 10             	add    $0x10,%esp
    79a1:	89 c3                	mov    %eax,%ebx
    79a3:	85 c0                	test   %eax,%eax
    79a5:	0f 84 dd 00 00 00    	je     7a88 <remote_nic_blocked_sources_get+0x168>
    79ab:	50                   	push   %eax
    79ac:	57                   	push   %edi
    79ad:	6a 00                	push   $0x0
    79af:	53                   	push   %ebx
    79b0:	e8 5b 72 00 00       	call   ec10 <memset@plt>
    79b5:	8d 45 dc             	lea    -0x24(%ebp),%eax
    79b8:	50                   	push   %eax
    79b9:	8b 45 08             	mov    0x8(%ebp),%eax
    79bc:	53                   	push   %ebx
    79bd:	56                   	push   %esi
    79be:	50                   	push   %eax
    79bf:	8b 45 0c             	mov    0xc(%ebp),%eax
    79c2:	c7 45 dc 00 00 00 00 	movl   $0x0,-0x24(%ebp)
    79c9:	ff 50 64             	call   *0x64(%eax)
    79cc:	83 c4 20             	add    $0x20,%esp
    79cf:	8b 55 dc             	mov    -0x24(%ebp),%edx
    79d2:	85 c0                	test   %eax,%eax
    79d4:	75 98                	jne    796e <remote_nic_blocked_sources_get+0x4e>
    79d6:	85 d2                	test   %edx,%edx
    79d8:	74 94                	je     796e <remote_nic_blocked_sources_get+0x4e>
    79da:	8d 45 e4             	lea    -0x1c(%ebp),%eax
    79dd:	56                   	push   %esi
    79de:	56                   	push   %esi
    79df:	50                   	push   %eax
    79e0:	8d 45 e0             	lea    -0x20(%ebp),%eax
    79e3:	50                   	push   %eax
    79e4:	e8 37 72 00 00       	call   ec20 <async_data_read_receive@plt>
    79e9:	83 c4 10             	add    $0x10,%esp
    79ec:	84 c0                	test   %al,%al
    79ee:	74 78                	je     7a68 <remote_nic_blocked_sources_get+0x148>
    79f0:	8b 45 dc             	mov    -0x24(%ebp),%eax
    79f3:	8d 14 40             	lea    (%eax,%eax,2),%edx
    79f6:	8b 45 e4             	mov    -0x1c(%ebp),%eax
    79f9:	01 d2                	add    %edx,%edx
    79fb:	39 c2                	cmp    %eax,%edx
    79fd:	73 05                	jae    7a04 <remote_nic_blocked_sources_get+0xe4>
    79ff:	89 55 e4             	mov    %edx,-0x1c(%ebp)
    7a02:	89 d0                	mov    %edx,%eax
    7a04:	39 f8                	cmp    %edi,%eax
    7a06:	76 05                	jbe    7a0d <remote_nic_blocked_sources_get+0xed>
    7a08:	89 7d e4             	mov    %edi,-0x1c(%ebp)
    7a0b:	89 f8                	mov    %edi,%eax
    7a0d:	8b 75 e0             	mov    -0x20(%ebp),%esi
    7a10:	51                   	push   %ecx
    7a11:	50                   	push   %eax
    7a12:	53                   	push   %ebx
    7a13:	56                   	push   %esi
    7a14:	e8 67 6f 00 00       	call   e980 <async_data_read_finalize@plt>
    7a19:	5f                   	pop    %edi
    7a1a:	58                   	pop    %eax
    7a1b:	8b 45 e0             	mov    -0x20(%ebp),%eax
    7a1e:	6a f2                	push   $0xfffffff2
    7a20:	50                   	push   %eax
    7a21:	e8 ca 6f 00 00       	call   e9f0 <async_answer_0@plt>
    7a26:	89 1c 24             	mov    %ebx,(%esp)
    7a29:	e8 b2 73 00 00       	call   ede0 <free@plt>
    7a2e:	83 c4 0c             	add    $0xc,%esp
    7a31:	8b 45 dc             	mov    -0x24(%ebp),%eax
    7a34:	50                   	push   %eax
    7a35:	8b 45 10             	mov    0x10(%ebp),%eax
    7a38:	6a 00                	push   $0x0
    7a3a:	50                   	push   %eax
    7a3b:	e8 80 72 00 00       	call   ecc0 <async_answer_1@plt>
    7a40:	83 c4 10             	add    $0x10,%esp
    7a43:	8d 65 f4             	lea    -0xc(%ebp),%esp
    7a46:	5b                   	pop    %ebx
    7a47:	5e                   	pop    %esi
    7a48:	5f                   	pop    %edi
    7a49:	5d                   	pop    %ebp
    7a4a:	c3                   	ret    
    7a4b:	90                   	nop
    7a4c:	8d 74 26 00          	lea    0x0(%esi,%eiz,1),%esi
    7a50:	50                   	push   %eax
    7a51:	50                   	push   %eax
    7a52:	8b 45 10             	mov    0x10(%ebp),%eax
    7a55:	6a f5                	push   $0xfffffff5
    7a57:	50                   	push   %eax
    7a58:	e8 93 6f 00 00       	call   e9f0 <async_answer_0@plt>
    7a5d:	83 c4 10             	add    $0x10,%esp
    7a60:	e9 20 ff ff ff       	jmp    7985 <remote_nic_blocked_sources_get+0x65>
    7a65:	8d 76 00             	lea    0x0(%esi),%esi
    7a68:	8b 55 e0             	mov    -0x20(%ebp),%edx
    7a6b:	50                   	push   %eax
    7a6c:	50                   	push   %eax
    7a6d:	6a f2                	push   $0xfffffff2
    7a6f:	52                   	push   %edx
    7a70:	e8 7b 6f 00 00       	call   e9f0 <async_answer_0@plt>
    7a75:	83 c4 0c             	add    $0xc,%esp
    7a78:	8b 4d dc             	mov    -0x24(%ebp),%ecx
    7a7b:	51                   	push   %ecx
    7a7c:	6a 00                	push   $0x0
    7a7e:	e9 ee fe ff ff       	jmp    7971 <remote_nic_blocked_sources_get+0x51>
    7a83:	90                   	nop
    7a84:	8d 74 26 00          	lea    0x0(%esi,%eiz,1),%esi
    7a88:	50                   	push   %eax
    7a89:	50                   	push   %eax
    7a8a:	8b 45 10             	mov    0x10(%ebp),%eax
    7a8d:	6a fe                	push   $0xfffffffe
    7a8f:	50                   	push   %eax
    7a90:	e8 5b 6f 00 00       	call   e9f0 <async_answer_0@plt>
    7a95:	83 c4 10             	add    $0x10,%esp
    7a98:	e9 e8 fe ff ff       	jmp    7985 <remote_nic_blocked_sources_get+0x65>
    7a9d:	8d 76 00             	lea    0x0(%esi),%esi

00007aa0 <remote_nic_multicast_set_mode>:
    7aa0:	55                   	push   %ebp
    7aa1:	89 e5                	mov    %esp,%ebp
    7aa3:	57                   	push   %edi
    7aa4:	56                   	push   %esi
    7aa5:	53                   	push   %ebx
    7aa6:	83 ec 2c             	sub    $0x2c,%esp
    7aa9:	31 f6                	xor    %esi,%esi
    7aab:	8b 45 14             	mov    0x14(%ebp),%eax
    7aae:	8b 58 0c             	mov    0xc(%eax),%ebx
    7ab1:	8b 78 08             	mov    0x8(%eax),%edi
    7ab4:	85 db                	test   %ebx,%ebx
    7ab6:	75 40                	jne    7af8 <remote_nic_multicast_set_mode+0x58>
    7ab8:	8b 45 0c             	mov    0xc(%ebp),%eax
    7abb:	8b 40 50             	mov    0x50(%eax),%eax
    7abe:	85 c0                	test   %eax,%eax
    7ac0:	0f 84 da 00 00 00    	je     7ba0 <remote_nic_multicast_set_mode+0x100>
    7ac6:	8b 4d 08             	mov    0x8(%ebp),%ecx
    7ac9:	53                   	push   %ebx
    7aca:	56                   	push   %esi
    7acb:	57                   	push   %edi
    7acc:	51                   	push   %ecx
    7acd:	ff d0                	call   *%eax
    7acf:	5b                   	pop    %ebx
    7ad0:	5f                   	pop    %edi
    7ad1:	50                   	push   %eax
    7ad2:	8b 45 10             	mov    0x10(%ebp),%eax
    7ad5:	50                   	push   %eax
    7ad6:	e8 15 6f 00 00       	call   e9f0 <async_answer_0@plt>
    7adb:	83 c4 10             	add    $0x10,%esp
    7ade:	83 ec 0c             	sub    $0xc,%esp
    7ae1:	56                   	push   %esi
    7ae2:	e8 f9 72 00 00       	call   ede0 <free@plt>
    7ae7:	83 c4 10             	add    $0x10,%esp
    7aea:	8d 65 f4             	lea    -0xc(%ebp),%esp
    7aed:	5b                   	pop    %ebx
    7aee:	5e                   	pop    %esi
    7aef:	5f                   	pop    %edi
    7af0:	5d                   	pop    %ebp
    7af1:	c3                   	ret    
    7af2:	8d b6 00 00 00 00    	lea    0x0(%esi),%esi
    7af8:	50                   	push   %eax
    7af9:	50                   	push   %eax
    7afa:	8d 45 e4             	lea    -0x1c(%ebp),%eax
    7afd:	50                   	push   %eax
    7afe:	8d 45 e0             	lea    -0x20(%ebp),%eax
    7b01:	50                   	push   %eax
    7b02:	e8 c9 72 00 00       	call   edd0 <async_data_write_receive@plt>
    7b07:	83 c4 10             	add    $0x10,%esp
    7b0a:	84 c0                	test   %al,%al
    7b0c:	0f 84 a6 00 00 00    	je     7bb8 <remote_nic_multicast_set_mode+0x118>
    7b12:	8d 04 5b             	lea    (%ebx,%ebx,2),%eax
    7b15:	01 c0                	add    %eax,%eax
    7b17:	3b 45 e4             	cmp    -0x1c(%ebp),%eax
    7b1a:	74 2c                	je     7b48 <remote_nic_multicast_set_mode+0xa8>
    7b1c:	50                   	push   %eax
    7b1d:	50                   	push   %eax
    7b1e:	8b 45 e0             	mov    -0x20(%ebp),%eax
    7b21:	6a fd                	push   $0xfffffffd
    7b23:	50                   	push   %eax
    7b24:	e8 c7 6e 00 00       	call   e9f0 <async_answer_0@plt>
    7b29:	8b 4d 10             	mov    0x10(%ebp),%ecx
    7b2c:	58                   	pop    %eax
    7b2d:	5a                   	pop    %edx
    7b2e:	6a fd                	push   $0xfffffffd
    7b30:	51                   	push   %ecx
    7b31:	e8 ba 6e 00 00       	call   e9f0 <async_answer_0@plt>
    7b36:	83 c4 10             	add    $0x10,%esp
    7b39:	8d 65 f4             	lea    -0xc(%ebp),%esp
    7b3c:	5b                   	pop    %ebx
    7b3d:	5e                   	pop    %esi
    7b3e:	5f                   	pop    %edi
    7b3f:	5d                   	pop    %ebp
    7b40:	c3                   	ret    
    7b41:	8d b4 26 00 00 00 00 	lea    0x0(%esi,%eiz,1),%esi
    7b48:	83 ec 0c             	sub    $0xc,%esp
    7b4b:	50                   	push   %eax
    7b4c:	e8 5f 6e 00 00       	call   e9b0 <malloc@plt>
    7b51:	83 c4 10             	add    $0x10,%esp
    7b54:	89 c2                	mov    %eax,%edx
    7b56:	89 c6                	mov    %eax,%esi
    7b58:	85 c0                	test   %eax,%eax
    7b5a:	74 7e                	je     7bda <remote_nic_multicast_set_mode+0x13a>
    7b5c:	50                   	push   %eax
    7b5d:	8b 45 e4             	mov    -0x1c(%ebp),%eax
    7b60:	50                   	push   %eax
    7b61:	8b 45 e0             	mov    -0x20(%ebp),%eax
    7b64:	52                   	push   %edx
    7b65:	89 55 d4             	mov    %edx,-0x2c(%ebp)
    7b68:	50                   	push   %eax
    7b69:	e8 d2 71 00 00       	call   ed40 <async_data_write_finalize@plt>
    7b6e:	83 c4 10             	add    $0x10,%esp
    7b71:	85 c0                	test   %eax,%eax
    7b73:	0f 84 3f ff ff ff    	je     7ab8 <remote_nic_multicast_set_mode+0x18>
    7b79:	50                   	push   %eax
    7b7a:	50                   	push   %eax
    7b7b:	8b 45 10             	mov    0x10(%ebp),%eax
    7b7e:	6a f2                	push   $0xfffffff2
    7b80:	50                   	push   %eax
    7b81:	e8 6a 6e 00 00       	call   e9f0 <async_answer_0@plt>
    7b86:	8b 55 d4             	mov    -0x2c(%ebp),%edx
    7b89:	89 14 24             	mov    %edx,(%esp)
    7b8c:	e8 4f 72 00 00       	call   ede0 <free@plt>
    7b91:	83 c4 10             	add    $0x10,%esp
    7b94:	e9 51 ff ff ff       	jmp    7aea <remote_nic_multicast_set_mode+0x4a>
    7b99:	8d b4 26 00 00 00 00 	lea    0x0(%esi,%eiz,1),%esi
    7ba0:	8b 55 10             	mov    0x10(%ebp),%edx
    7ba3:	50                   	push   %eax
    7ba4:	50                   	push   %eax
    7ba5:	6a f5                	push   $0xfffffff5
    7ba7:	52                   	push   %edx
    7ba8:	e8 43 6e 00 00       	call   e9f0 <async_answer_0@plt>
    7bad:	83 c4 10             	add    $0x10,%esp
    7bb0:	e9 29 ff ff ff       	jmp    7ade <remote_nic_multicast_set_mode+0x3e>
    7bb5:	8d 76 00             	lea    0x0(%esi),%esi
    7bb8:	8b 75 e0             	mov    -0x20(%ebp),%esi
    7bbb:	53                   	push   %ebx
    7bbc:	53                   	push   %ebx
    7bbd:	6a f2                	push   $0xfffffff2
    7bbf:	56                   	push   %esi
    7bc0:	e8 2b 6e 00 00       	call   e9f0 <async_answer_0@plt>
    7bc5:	5f                   	pop    %edi
    7bc6:	58                   	pop    %eax
    7bc7:	8b 45 10             	mov    0x10(%ebp),%eax
    7bca:	6a f2                	push   $0xfffffff2
    7bcc:	50                   	push   %eax
    7bcd:	e8 1e 6e 00 00       	call   e9f0 <async_answer_0@plt>
    7bd2:	83 c4 10             	add    $0x10,%esp
    7bd5:	e9 10 ff ff ff       	jmp    7aea <remote_nic_multicast_set_mode+0x4a>
    7bda:	8b 4d e0             	mov    -0x20(%ebp),%ecx
    7bdd:	52                   	push   %edx
    7bde:	52                   	push   %edx
    7bdf:	6a fe                	push   $0xfffffffe
    7be1:	51                   	push   %ecx
    7be2:	e8 09 6e 00 00       	call   e9f0 <async_answer_0@plt>
    7be7:	8b 7d 10             	mov    0x10(%ebp),%edi
    7bea:	5b                   	pop    %ebx
    7beb:	5e                   	pop    %esi
    7bec:	6a fe                	push   $0xfffffffe
    7bee:	57                   	push   %edi
    7bef:	e8 fc 6d 00 00       	call   e9f0 <async_answer_0@plt>
    7bf4:	83 c4 10             	add    $0x10,%esp
    7bf7:	e9 ee fe ff ff       	jmp    7aea <remote_nic_multicast_set_mode+0x4a>
    7bfc:	8d 74 26 00          	lea    0x0(%esi,%eiz,1),%esi

00007c00 <remote_nic_multicast_get_mode>:
    7c00:	55                   	push   %ebp
    7c01:	89 e5                	mov    %esp,%ebp
    7c03:	57                   	push   %edi
    7c04:	56                   	push   %esi
    7c05:	53                   	push   %ebx
    7c06:	83 ec 1c             	sub    $0x1c,%esp
    7c09:	8b 45 0c             	mov    0xc(%ebp),%eax
    7c0c:	8b 58 4c             	mov    0x4c(%eax),%ebx
    7c0f:	85 db                	test   %ebx,%ebx
    7c11:	0f 84 39 01 00 00    	je     7d50 <remote_nic_multicast_get_mode+0x150>
    7c17:	8b 45 14             	mov    0x14(%ebp),%eax
    7c1a:	8b 70 08             	mov    0x8(%eax),%esi
    7c1d:	85 f6                	test   %esi,%esi
    7c1f:	0f 84 cb 00 00 00    	je     7cf0 <remote_nic_multicast_get_mode+0xf0>
    7c25:	83 ec 0c             	sub    $0xc,%esp
    7c28:	8d 3c 76             	lea    (%esi,%esi,2),%edi
    7c2b:	01 ff                	add    %edi,%edi
    7c2d:	57                   	push   %edi
    7c2e:	e8 7d 6d 00 00       	call   e9b0 <malloc@plt>
    7c33:	83 c4 10             	add    $0x10,%esp
    7c36:	89 c3                	mov    %eax,%ebx
    7c38:	85 c0                	test   %eax,%eax
    7c3a:	0f 84 58 01 00 00    	je     7d98 <remote_nic_multicast_get_mode+0x198>
    7c40:	50                   	push   %eax
    7c41:	57                   	push   %edi
    7c42:	6a 00                	push   $0x0
    7c44:	53                   	push   %ebx
    7c45:	e8 c6 6f 00 00       	call   ec10 <memset@plt>
    7c4a:	8d 45 dc             	lea    -0x24(%ebp),%eax
    7c4d:	89 04 24             	mov    %eax,(%esp)
    7c50:	8d 45 d8             	lea    -0x28(%ebp),%eax
    7c53:	53                   	push   %ebx
    7c54:	56                   	push   %esi
    7c55:	50                   	push   %eax
    7c56:	8b 45 08             	mov    0x8(%ebp),%eax
    7c59:	50                   	push   %eax
    7c5a:	8b 45 0c             	mov    0xc(%ebp),%eax
    7c5d:	c7 45 d8 01 00 00 00 	movl   $0x1,-0x28(%ebp)
    7c64:	c7 45 dc 00 00 00 00 	movl   $0x0,-0x24(%ebp)
    7c6b:	ff 50 4c             	call   *0x4c(%eax)
    7c6e:	83 c4 20             	add    $0x20,%esp
    7c71:	89 c6                	mov    %eax,%esi
    7c73:	85 c0                	test   %eax,%eax
    7c75:	0f 85 ae 00 00 00    	jne    7d29 <remote_nic_multicast_get_mode+0x129>
    7c7b:	8b 45 dc             	mov    -0x24(%ebp),%eax
    7c7e:	85 c0                	test   %eax,%eax
    7c80:	0f 84 a3 00 00 00    	je     7d29 <remote_nic_multicast_get_mode+0x129>
    7c86:	8d 45 e4             	lea    -0x1c(%ebp),%eax
    7c89:	51                   	push   %ecx
    7c8a:	51                   	push   %ecx
    7c8b:	50                   	push   %eax
    7c8c:	8d 45 e0             	lea    -0x20(%ebp),%eax
    7c8f:	50                   	push   %eax
    7c90:	e8 8b 6f 00 00       	call   ec20 <async_data_read_receive@plt>
    7c95:	83 c4 10             	add    $0x10,%esp
    7c98:	84 c0                	test   %al,%al
    7c9a:	0f 84 c8 00 00 00    	je     7d68 <remote_nic_multicast_get_mode+0x168>
    7ca0:	8b 45 dc             	mov    -0x24(%ebp),%eax
    7ca3:	8d 14 40             	lea    (%eax,%eax,2),%edx
    7ca6:	8b 45 e4             	mov    -0x1c(%ebp),%eax
    7ca9:	01 d2                	add    %edx,%edx
    7cab:	39 c2                	cmp    %eax,%edx
    7cad:	73 05                	jae    7cb4 <remote_nic_multicast_get_mode+0xb4>
    7caf:	89 55 e4             	mov    %edx,-0x1c(%ebp)
    7cb2:	89 d0                	mov    %edx,%eax
    7cb4:	39 c7                	cmp    %eax,%edi
    7cb6:	73 05                	jae    7cbd <remote_nic_multicast_get_mode+0xbd>
    7cb8:	89 7d e4             	mov    %edi,-0x1c(%ebp)
    7cbb:	89 f8                	mov    %edi,%eax
    7cbd:	8b 75 e0             	mov    -0x20(%ebp),%esi
    7cc0:	51                   	push   %ecx
    7cc1:	50                   	push   %eax
    7cc2:	53                   	push   %ebx
    7cc3:	56                   	push   %esi
    7cc4:	e8 b7 6c 00 00       	call   e980 <async_data_read_finalize@plt>
    7cc9:	89 1c 24             	mov    %ebx,(%esp)
    7ccc:	e8 0f 71 00 00       	call   ede0 <free@plt>
    7cd1:	8b 7d dc             	mov    -0x24(%ebp),%edi
    7cd4:	8b 45 d8             	mov    -0x28(%ebp),%eax
    7cd7:	57                   	push   %edi
    7cd8:	50                   	push   %eax
    7cd9:	8b 45 10             	mov    0x10(%ebp),%eax
    7cdc:	6a 00                	push   $0x0
    7cde:	50                   	push   %eax
    7cdf:	e8 4c 6e 00 00       	call   eb30 <async_answer_2@plt>
    7ce4:	83 c4 20             	add    $0x20,%esp
    7ce7:	8d 65 f4             	lea    -0xc(%ebp),%esp
    7cea:	5b                   	pop    %ebx
    7ceb:	5e                   	pop    %esi
    7cec:	5f                   	pop    %edi
    7ced:	5d                   	pop    %ebp
    7cee:	c3                   	ret    
    7cef:	90                   	nop
    7cf0:	50                   	push   %eax
    7cf1:	6a 00                	push   $0x0
    7cf3:	6a 00                	push   $0x0
    7cf5:	6a 00                	push   $0x0
    7cf7:	e8 14 6f 00 00       	call   ec10 <memset@plt>
    7cfc:	8d 45 dc             	lea    -0x24(%ebp),%eax
    7cff:	89 04 24             	mov    %eax,(%esp)
    7d02:	8d 45 d8             	lea    -0x28(%ebp),%eax
    7d05:	6a 00                	push   $0x0
    7d07:	6a 00                	push   $0x0
    7d09:	50                   	push   %eax
    7d0a:	8b 45 0c             	mov    0xc(%ebp),%eax
    7d0d:	8b 55 08             	mov    0x8(%ebp),%edx
    7d10:	c7 45 d8 01 00 00 00 	movl   $0x1,-0x28(%ebp)
    7d17:	c7 45 dc 00 00 00 00 	movl   $0x0,-0x24(%ebp)
    7d1e:	52                   	push   %edx
    7d1f:	ff 50 4c             	call   *0x4c(%eax)
    7d22:	31 db                	xor    %ebx,%ebx
    7d24:	89 c6                	mov    %eax,%esi
    7d26:	83 c4 20             	add    $0x20,%esp
    7d29:	83 ec 0c             	sub    $0xc,%esp
    7d2c:	53                   	push   %ebx
    7d2d:	e8 ae 70 00 00       	call   ede0 <free@plt>
    7d32:	8b 5d dc             	mov    -0x24(%ebp),%ebx
    7d35:	8b 7d d8             	mov    -0x28(%ebp),%edi
    7d38:	8b 45 10             	mov    0x10(%ebp),%eax
    7d3b:	53                   	push   %ebx
    7d3c:	57                   	push   %edi
    7d3d:	56                   	push   %esi
    7d3e:	50                   	push   %eax
    7d3f:	e8 ec 6d 00 00       	call   eb30 <async_answer_2@plt>
    7d44:	83 c4 20             	add    $0x20,%esp
    7d47:	8d 65 f4             	lea    -0xc(%ebp),%esp
    7d4a:	5b                   	pop    %ebx
    7d4b:	5e                   	pop    %esi
    7d4c:	5f                   	pop    %edi
    7d4d:	5d                   	pop    %ebp
    7d4e:	c3                   	ret    
    7d4f:	90                   	nop
    7d50:	8b 4d 10             	mov    0x10(%ebp),%ecx
    7d53:	52                   	push   %edx
    7d54:	52                   	push   %edx
    7d55:	6a f5                	push   $0xfffffff5
    7d57:	51                   	push   %ecx
    7d58:	e8 93 6c 00 00       	call   e9f0 <async_answer_0@plt>
    7d5d:	83 c4 10             	add    $0x10,%esp
    7d60:	eb e5                	jmp    7d47 <remote_nic_multicast_get_mode+0x147>
    7d62:	8d b6 00 00 00 00    	lea    0x0(%esi),%esi
    7d68:	50                   	push   %eax
    7d69:	50                   	push   %eax
    7d6a:	8b 45 e0             	mov    -0x20(%ebp),%eax
    7d6d:	6a f2                	push   $0xfffffff2
    7d6f:	50                   	push   %eax
    7d70:	e8 7b 6c 00 00       	call   e9f0 <async_answer_0@plt>
    7d75:	8b 45 dc             	mov    -0x24(%ebp),%eax
    7d78:	8b 55 10             	mov    0x10(%ebp),%edx
    7d7b:	50                   	push   %eax
    7d7c:	8b 45 d8             	mov    -0x28(%ebp),%eax
    7d7f:	50                   	push   %eax
    7d80:	6a 00                	push   $0x0
    7d82:	52                   	push   %edx
    7d83:	e8 a8 6d 00 00       	call   eb30 <async_answer_2@plt>
    7d88:	83 c4 14             	add    $0x14,%esp
    7d8b:	53                   	push   %ebx
    7d8c:	e8 4f 70 00 00       	call   ede0 <free@plt>
    7d91:	83 c4 10             	add    $0x10,%esp
    7d94:	eb b1                	jmp    7d47 <remote_nic_multicast_get_mode+0x147>
    7d96:	66 90                	xchg   %ax,%ax
    7d98:	50                   	push   %eax
    7d99:	50                   	push   %eax
    7d9a:	8b 45 10             	mov    0x10(%ebp),%eax
    7d9d:	6a fe                	push   $0xfffffffe
    7d9f:	50                   	push   %eax
    7da0:	e8 4b 6c 00 00       	call   e9f0 <async_answer_0@plt>
    7da5:	83 c4 10             	add    $0x10,%esp
    7da8:	eb 9d                	jmp    7d47 <remote_nic_multicast_get_mode+0x147>
    7daa:	8d b6 00 00 00 00    	lea    0x0(%esi),%esi

00007db0 <remote_nic_unicast_set_mode>:
    7db0:	55                   	push   %ebp
    7db1:	89 e5                	mov    %esp,%ebp
    7db3:	57                   	push   %edi
    7db4:	56                   	push   %esi
    7db5:	53                   	push   %ebx
    7db6:	83 ec 2c             	sub    $0x2c,%esp
    7db9:	31 f6                	xor    %esi,%esi
    7dbb:	8b 45 14             	mov    0x14(%ebp),%eax
    7dbe:	8b 58 0c             	mov    0xc(%eax),%ebx
    7dc1:	8b 78 08             	mov    0x8(%eax),%edi
    7dc4:	85 db                	test   %ebx,%ebx
    7dc6:	75 40                	jne    7e08 <remote_nic_unicast_set_mode+0x58>
    7dc8:	8b 45 0c             	mov    0xc(%ebp),%eax
    7dcb:	8b 40 48             	mov    0x48(%eax),%eax
    7dce:	85 c0                	test   %eax,%eax
    7dd0:	0f 84 da 00 00 00    	je     7eb0 <remote_nic_unicast_set_mode+0x100>
    7dd6:	8b 4d 08             	mov    0x8(%ebp),%ecx
    7dd9:	53                   	push   %ebx
    7dda:	56                   	push   %esi
    7ddb:	57                   	push   %edi
    7ddc:	51                   	push   %ecx
    7ddd:	ff d0                	call   *%eax
    7ddf:	5b                   	pop    %ebx
    7de0:	5f                   	pop    %edi
    7de1:	50                   	push   %eax
    7de2:	8b 45 10             	mov    0x10(%ebp),%eax
    7de5:	50                   	push   %eax
    7de6:	e8 05 6c 00 00       	call   e9f0 <async_answer_0@plt>
    7deb:	83 c4 10             	add    $0x10,%esp
    7dee:	83 ec 0c             	sub    $0xc,%esp
    7df1:	56                   	push   %esi
    7df2:	e8 e9 6f 00 00       	call   ede0 <free@plt>
    7df7:	83 c4 10             	add    $0x10,%esp
    7dfa:	8d 65 f4             	lea    -0xc(%ebp),%esp
    7dfd:	5b                   	pop    %ebx
    7dfe:	5e                   	pop    %esi
    7dff:	5f                   	pop    %edi
    7e00:	5d                   	pop    %ebp
    7e01:	c3                   	ret    
    7e02:	8d b6 00 00 00 00    	lea    0x0(%esi),%esi
    7e08:	50                   	push   %eax
    7e09:	50                   	push   %eax
    7e0a:	8d 45 e0             	lea    -0x20(%ebp),%eax
    7e0d:	50                   	push   %eax
    7e0e:	8d 45 e4             	lea    -0x1c(%ebp),%eax
    7e11:	50                   	push   %eax
    7e12:	e8 b9 6f 00 00       	call   edd0 <async_data_write_receive@plt>
    7e17:	83 c4 10             	add    $0x10,%esp
    7e1a:	84 c0                	test   %al,%al
    7e1c:	0f 84 a6 00 00 00    	je     7ec8 <remote_nic_unicast_set_mode+0x118>
    7e22:	8d 04 5b             	lea    (%ebx,%ebx,2),%eax
    7e25:	01 c0                	add    %eax,%eax
    7e27:	3b 45 e0             	cmp    -0x20(%ebp),%eax
    7e2a:	74 2c                	je     7e58 <remote_nic_unicast_set_mode+0xa8>
    7e2c:	50                   	push   %eax
    7e2d:	50                   	push   %eax
    7e2e:	8b 45 e4             	mov    -0x1c(%ebp),%eax
    7e31:	6a fd                	push   $0xfffffffd
    7e33:	50                   	push   %eax
    7e34:	e8 b7 6b 00 00       	call   e9f0 <async_answer_0@plt>
    7e39:	8b 4d 10             	mov    0x10(%ebp),%ecx
    7e3c:	58                   	pop    %eax
    7e3d:	5a                   	pop    %edx
    7e3e:	6a fd                	push   $0xfffffffd
    7e40:	51                   	push   %ecx
    7e41:	e8 aa 6b 00 00       	call   e9f0 <async_answer_0@plt>
    7e46:	83 c4 10             	add    $0x10,%esp
    7e49:	8d 65 f4             	lea    -0xc(%ebp),%esp
    7e4c:	5b                   	pop    %ebx
    7e4d:	5e                   	pop    %esi
    7e4e:	5f                   	pop    %edi
    7e4f:	5d                   	pop    %ebp
    7e50:	c3                   	ret    
    7e51:	8d b4 26 00 00 00 00 	lea    0x0(%esi,%eiz,1),%esi
    7e58:	83 ec 0c             	sub    $0xc,%esp
    7e5b:	50                   	push   %eax
    7e5c:	e8 4f 6b 00 00       	call   e9b0 <malloc@plt>
    7e61:	83 c4 10             	add    $0x10,%esp
    7e64:	89 c2                	mov    %eax,%edx
    7e66:	89 c6                	mov    %eax,%esi
    7e68:	85 c0                	test   %eax,%eax
    7e6a:	74 7e                	je     7eea <remote_nic_unicast_set_mode+0x13a>
    7e6c:	50                   	push   %eax
    7e6d:	8b 45 e0             	mov    -0x20(%ebp),%eax
    7e70:	50                   	push   %eax
    7e71:	8b 45 e4             	mov    -0x1c(%ebp),%eax
    7e74:	52                   	push   %edx
    7e75:	89 55 d4             	mov    %edx,-0x2c(%ebp)
    7e78:	50                   	push   %eax
    7e79:	e8 c2 6e 00 00       	call   ed40 <async_data_write_finalize@plt>
    7e7e:	83 c4 10             	add    $0x10,%esp
    7e81:	85 c0                	test   %eax,%eax
    7e83:	0f 84 3f ff ff ff    	je     7dc8 <remote_nic_unicast_set_mode+0x18>
    7e89:	50                   	push   %eax
    7e8a:	50                   	push   %eax
    7e8b:	8b 45 10             	mov    0x10(%ebp),%eax
    7e8e:	6a f2                	push   $0xfffffff2
    7e90:	50                   	push   %eax
    7e91:	e8 5a 6b 00 00       	call   e9f0 <async_answer_0@plt>
    7e96:	8b 55 d4             	mov    -0x2c(%ebp),%edx
    7e99:	89 14 24             	mov    %edx,(%esp)
    7e9c:	e8 3f 6f 00 00       	call   ede0 <free@plt>
    7ea1:	83 c4 10             	add    $0x10,%esp
    7ea4:	e9 51 ff ff ff       	jmp    7dfa <remote_nic_unicast_set_mode+0x4a>
    7ea9:	8d b4 26 00 00 00 00 	lea    0x0(%esi,%eiz,1),%esi
    7eb0:	8b 55 10             	mov    0x10(%ebp),%edx
    7eb3:	50                   	push   %eax
    7eb4:	50                   	push   %eax
    7eb5:	6a f5                	push   $0xfffffff5
    7eb7:	52                   	push   %edx
    7eb8:	e8 33 6b 00 00       	call   e9f0 <async_answer_0@plt>
    7ebd:	83 c4 10             	add    $0x10,%esp
    7ec0:	e9 29 ff ff ff       	jmp    7dee <remote_nic_unicast_set_mode+0x3e>
    7ec5:	8d 76 00             	lea    0x0(%esi),%esi
    7ec8:	8b 75 e4             	mov    -0x1c(%ebp),%esi
    7ecb:	53                   	push   %ebx
    7ecc:	53                   	push   %ebx
    7ecd:	6a f2                	push   $0xfffffff2
    7ecf:	56                   	push   %esi
    7ed0:	e8 1b 6b 00 00       	call   e9f0 <async_answer_0@plt>
    7ed5:	5f                   	pop    %edi
    7ed6:	58                   	pop    %eax
    7ed7:	8b 45 10             	mov    0x10(%ebp),%eax
    7eda:	6a f2                	push   $0xfffffff2
    7edc:	50                   	push   %eax
    7edd:	e8 0e 6b 00 00       	call   e9f0 <async_answer_0@plt>
    7ee2:	83 c4 10             	add    $0x10,%esp
    7ee5:	e9 10 ff ff ff       	jmp    7dfa <remote_nic_unicast_set_mode+0x4a>
    7eea:	8b 4d e4             	mov    -0x1c(%ebp),%ecx
    7eed:	52                   	push   %edx
    7eee:	52                   	push   %edx
    7eef:	6a fe                	push   $0xfffffffe
    7ef1:	51                   	push   %ecx
    7ef2:	e8 f9 6a 00 00       	call   e9f0 <async_answer_0@plt>
    7ef7:	8b 7d 10             	mov    0x10(%ebp),%edi
    7efa:	5b                   	pop    %ebx
    7efb:	5e                   	pop    %esi
    7efc:	6a fe                	push   $0xfffffffe
    7efe:	57                   	push   %edi
    7eff:	e8 ec 6a 00 00       	call   e9f0 <async_answer_0@plt>
    7f04:	83 c4 10             	add    $0x10,%esp
    7f07:	e9 ee fe ff ff       	jmp    7dfa <remote_nic_unicast_set_mode+0x4a>
    7f0c:	8d 74 26 00          	lea    0x0(%esi,%eiz,1),%esi

00007f10 <remote_nic_unicast_get_mode>:
    7f10:	55                   	push   %ebp
    7f11:	89 e5                	mov    %esp,%ebp
    7f13:	57                   	push   %edi
    7f14:	56                   	push   %esi
    7f15:	53                   	push   %ebx
    7f16:	83 ec 1c             	sub    $0x1c,%esp
    7f19:	8b 45 0c             	mov    0xc(%ebp),%eax
    7f1c:	8b 40 44             	mov    0x44(%eax),%eax
    7f1f:	85 c0                	test   %eax,%eax
    7f21:	0f 84 49 01 00 00    	je     8070 <remote_nic_unicast_get_mode+0x160>
    7f27:	8b 45 14             	mov    0x14(%ebp),%eax
    7f2a:	8b 70 08             	mov    0x8(%eax),%esi
    7f2d:	85 f6                	test   %esi,%esi
    7f2f:	0f 84 db 00 00 00    	je     8010 <remote_nic_unicast_get_mode+0x100>
    7f35:	83 ec 0c             	sub    $0xc,%esp
    7f38:	8d 3c 76             	lea    (%esi,%esi,2),%edi
    7f3b:	01 ff                	add    %edi,%edi
    7f3d:	57                   	push   %edi
    7f3e:	e8 6d 6a 00 00       	call   e9b0 <malloc@plt>
    7f43:	83 c4 10             	add    $0x10,%esp
    7f46:	89 c3                	mov    %eax,%ebx
    7f48:	85 c0                	test   %eax,%eax
    7f4a:	0f 84 68 01 00 00    	je     80b8 <remote_nic_unicast_get_mode+0x1a8>
    7f50:	50                   	push   %eax
    7f51:	57                   	push   %edi
    7f52:	6a 00                	push   $0x0
    7f54:	53                   	push   %ebx
    7f55:	e8 b6 6c 00 00       	call   ec10 <memset@plt>
    7f5a:	8d 45 dc             	lea    -0x24(%ebp),%eax
    7f5d:	89 04 24             	mov    %eax,(%esp)
    7f60:	8d 45 d8             	lea    -0x28(%ebp),%eax
    7f63:	53                   	push   %ebx
    7f64:	56                   	push   %esi
    7f65:	50                   	push   %eax
    7f66:	8b 45 0c             	mov    0xc(%ebp),%eax
    7f69:	8b 55 08             	mov    0x8(%ebp),%edx
    7f6c:	c7 45 d8 02 00 00 00 	movl   $0x2,-0x28(%ebp)
    7f73:	c7 45 dc 00 00 00 00 	movl   $0x0,-0x24(%ebp)
    7f7a:	52                   	push   %edx
    7f7b:	ff 50 44             	call   *0x44(%eax)
    7f7e:	83 c4 20             	add    $0x20,%esp
    7f81:	89 c6                	mov    %eax,%esi
    7f83:	85 c0                	test   %eax,%eax
    7f85:	0f 85 be 00 00 00    	jne    8049 <remote_nic_unicast_get_mode+0x139>
    7f8b:	8b 45 dc             	mov    -0x24(%ebp),%eax
    7f8e:	85 c0                	test   %eax,%eax
    7f90:	0f 84 b3 00 00 00    	je     8049 <remote_nic_unicast_get_mode+0x139>
    7f96:	50                   	push   %eax
    7f97:	50                   	push   %eax
    7f98:	8d 45 e4             	lea    -0x1c(%ebp),%eax
    7f9b:	50                   	push   %eax
    7f9c:	8d 45 e0             	lea    -0x20(%ebp),%eax
    7f9f:	50                   	push   %eax
    7fa0:	e8 7b 6c 00 00       	call   ec20 <async_data_read_receive@plt>
    7fa5:	83 c4 10             	add    $0x10,%esp
    7fa8:	84 c0                	test   %al,%al
    7faa:	0f 84 d8 00 00 00    	je     8088 <remote_nic_unicast_get_mode+0x178>
    7fb0:	8b 45 dc             	mov    -0x24(%ebp),%eax
    7fb3:	8d 14 40             	lea    (%eax,%eax,2),%edx
    7fb6:	8b 45 e4             	mov    -0x1c(%ebp),%eax
    7fb9:	01 d2                	add    %edx,%edx
    7fbb:	39 c2                	cmp    %eax,%edx
    7fbd:	73 05                	jae    7fc4 <remote_nic_unicast_get_mode+0xb4>
    7fbf:	89 55 e4             	mov    %edx,-0x1c(%ebp)
    7fc2:	89 d0                	mov    %edx,%eax
    7fc4:	39 c7                	cmp    %eax,%edi
    7fc6:	73 05                	jae    7fcd <remote_nic_unicast_get_mode+0xbd>
    7fc8:	89 7d e4             	mov    %edi,-0x1c(%ebp)
    7fcb:	89 f8                	mov    %edi,%eax
    7fcd:	8b 75 e0             	mov    -0x20(%ebp),%esi
    7fd0:	51                   	push   %ecx
    7fd1:	50                   	push   %eax
    7fd2:	53                   	push   %ebx
    7fd3:	56                   	push   %esi
    7fd4:	e8 a7 69 00 00       	call   e980 <async_data_read_finalize@plt>
    7fd9:	5f                   	pop    %edi
    7fda:	58                   	pop    %eax
    7fdb:	8b 45 e0             	mov    -0x20(%ebp),%eax
    7fde:	6a f2                	push   $0xfffffff2
    7fe0:	50                   	push   %eax
    7fe1:	e8 0a 6a 00 00       	call   e9f0 <async_answer_0@plt>
    7fe6:	89 1c 24             	mov    %ebx,(%esp)
    7fe9:	e8 f2 6d 00 00       	call   ede0 <free@plt>
    7fee:	8b 45 dc             	mov    -0x24(%ebp),%eax
    7ff1:	50                   	push   %eax
    7ff2:	8b 45 d8             	mov    -0x28(%ebp),%eax
    7ff5:	50                   	push   %eax
    7ff6:	8b 45 10             	mov    0x10(%ebp),%eax
    7ff9:	6a 00                	push   $0x0
    7ffb:	50                   	push   %eax
    7ffc:	e8 2f 6b 00 00       	call   eb30 <async_answer_2@plt>
    8001:	83 c4 20             	add    $0x20,%esp
    8004:	8d 65 f4             	lea    -0xc(%ebp),%esp
    8007:	5b                   	pop    %ebx
    8008:	5e                   	pop    %esi
    8009:	5f                   	pop    %edi
    800a:	5d                   	pop    %ebp
    800b:	c3                   	ret    
    800c:	8d 74 26 00          	lea    0x0(%esi,%eiz,1),%esi
    8010:	50                   	push   %eax
    8011:	6a 00                	push   $0x0
    8013:	6a 00                	push   $0x0
    8015:	6a 00                	push   $0x0
    8017:	e8 f4 6b 00 00       	call   ec10 <memset@plt>
    801c:	8d 45 dc             	lea    -0x24(%ebp),%eax
    801f:	89 04 24             	mov    %eax,(%esp)
    8022:	8d 45 d8             	lea    -0x28(%ebp),%eax
    8025:	6a 00                	push   $0x0
    8027:	6a 00                	push   $0x0
    8029:	50                   	push   %eax
    802a:	8b 45 0c             	mov    0xc(%ebp),%eax
    802d:	8b 55 08             	mov    0x8(%ebp),%edx
    8030:	c7 45 d8 02 00 00 00 	movl   $0x2,-0x28(%ebp)
    8037:	c7 45 dc 00 00 00 00 	movl   $0x0,-0x24(%ebp)
    803e:	52                   	push   %edx
    803f:	ff 50 44             	call   *0x44(%eax)
    8042:	31 db                	xor    %ebx,%ebx
    8044:	89 c6                	mov    %eax,%esi
    8046:	83 c4 20             	add    $0x20,%esp
    8049:	83 ec 0c             	sub    $0xc,%esp
    804c:	53                   	push   %ebx
    804d:	e8 8e 6d 00 00       	call   ede0 <free@plt>
    8052:	8b 45 dc             	mov    -0x24(%ebp),%eax
    8055:	50                   	push   %eax
    8056:	8b 45 d8             	mov    -0x28(%ebp),%eax
    8059:	50                   	push   %eax
    805a:	8b 45 10             	mov    0x10(%ebp),%eax
    805d:	56                   	push   %esi
    805e:	50                   	push   %eax
    805f:	e8 cc 6a 00 00       	call   eb30 <async_answer_2@plt>
    8064:	83 c4 20             	add    $0x20,%esp
    8067:	8d 65 f4             	lea    -0xc(%ebp),%esp
    806a:	5b                   	pop    %ebx
    806b:	5e                   	pop    %esi
    806c:	5f                   	pop    %edi
    806d:	5d                   	pop    %ebp
    806e:	c3                   	ret    
    806f:	90                   	nop
    8070:	8b 7d 10             	mov    0x10(%ebp),%edi
    8073:	56                   	push   %esi
    8074:	56                   	push   %esi
    8075:	6a f5                	push   $0xfffffff5
    8077:	57                   	push   %edi
    8078:	e8 73 69 00 00       	call   e9f0 <async_answer_0@plt>
    807d:	83 c4 10             	add    $0x10,%esp
    8080:	eb e5                	jmp    8067 <remote_nic_unicast_get_mode+0x157>
    8082:	8d b6 00 00 00 00    	lea    0x0(%esi),%esi
    8088:	8b 55 e0             	mov    -0x20(%ebp),%edx
    808b:	50                   	push   %eax
    808c:	50                   	push   %eax
    808d:	6a f2                	push   $0xfffffff2
    808f:	52                   	push   %edx
    8090:	e8 5b 69 00 00       	call   e9f0 <async_answer_0@plt>
    8095:	8b 4d dc             	mov    -0x24(%ebp),%ecx
    8098:	8b 75 d8             	mov    -0x28(%ebp),%esi
    809b:	8b 7d 10             	mov    0x10(%ebp),%edi
    809e:	51                   	push   %ecx
    809f:	56                   	push   %esi
    80a0:	6a 00                	push   $0x0
    80a2:	57                   	push   %edi
    80a3:	e8 88 6a 00 00       	call   eb30 <async_answer_2@plt>
    80a8:	83 c4 14             	add    $0x14,%esp
    80ab:	53                   	push   %ebx
    80ac:	e8 2f 6d 00 00       	call   ede0 <free@plt>
    80b1:	83 c4 10             	add    $0x10,%esp
    80b4:	eb b1                	jmp    8067 <remote_nic_unicast_get_mode+0x157>
    80b6:	66 90                	xchg   %ax,%ax
    80b8:	8b 5d 10             	mov    0x10(%ebp),%ebx
    80bb:	51                   	push   %ecx
    80bc:	51                   	push   %ecx
    80bd:	6a fe                	push   $0xfffffffe
    80bf:	53                   	push   %ebx
    80c0:	e8 2b 69 00 00       	call   e9f0 <async_answer_0@plt>
    80c5:	83 c4 10             	add    $0x10,%esp
    80c8:	eb 9d                	jmp    8067 <remote_nic_unicast_get_mode+0x157>
    80ca:	8d b6 00 00 00 00    	lea    0x0(%esi),%esi

000080d0 <remote_nic_get_pause>:
    80d0:	55                   	push   %ebp
    80d1:	89 e5                	mov    %esp,%ebp
    80d3:	83 ec 18             	sub    $0x18,%esp
    80d6:	8b 45 0c             	mov    0xc(%ebp),%eax
    80d9:	8b 40 3c             	mov    0x3c(%eax),%eax
    80dc:	85 c0                	test   %eax,%eax
    80de:	74 38                	je     8118 <remote_nic_get_pause+0x48>
    80e0:	8d 55 ee             	lea    -0x12(%ebp),%edx
    80e3:	52                   	push   %edx
    80e4:	8d 55 f4             	lea    -0xc(%ebp),%edx
    80e7:	52                   	push   %edx
    80e8:	8d 55 f0             	lea    -0x10(%ebp),%edx
    80eb:	52                   	push   %edx
    80ec:	8b 55 08             	mov    0x8(%ebp),%edx
    80ef:	52                   	push   %edx
    80f0:	ff d0                	call   *%eax
    80f2:	31 d2                	xor    %edx,%edx
    80f4:	8b 4d f4             	mov    -0xc(%ebp),%ecx
    80f7:	66 8b 55 ee          	mov    -0x12(%ebp),%dx
    80fb:	89 14 24             	mov    %edx,(%esp)
    80fe:	51                   	push   %ecx
    80ff:	8b 55 f0             	mov    -0x10(%ebp),%edx
    8102:	8b 4d 10             	mov    0x10(%ebp),%ecx
    8105:	52                   	push   %edx
    8106:	50                   	push   %eax
    8107:	51                   	push   %ecx
    8108:	e8 03 6c 00 00       	call   ed10 <async_answer_3@plt>
    810d:	83 c4 20             	add    $0x20,%esp
    8110:	c9                   	leave  
    8111:	c3                   	ret    
    8112:	8d b6 00 00 00 00    	lea    0x0(%esi),%esi
    8118:	50                   	push   %eax
    8119:	50                   	push   %eax
    811a:	8b 45 10             	mov    0x10(%ebp),%eax
    811d:	6a f5                	push   $0xfffffff5
    811f:	50                   	push   %eax
    8120:	e8 cb 68 00 00       	call   e9f0 <async_answer_0@plt>
    8125:	83 c4 10             	add    $0x10,%esp
    8128:	c9                   	leave  
    8129:	c3                   	ret    
    812a:	8d b6 00 00 00 00    	lea    0x0(%esi),%esi

00008130 <remote_nic_get_operation_mode>:
    8130:	55                   	push   %ebp
    8131:	89 e5                	mov    %esp,%ebp
    8133:	83 ec 18             	sub    $0x18,%esp
    8136:	8b 45 0c             	mov    0xc(%ebp),%eax
    8139:	8b 40 24             	mov    0x24(%eax),%eax
    813c:	85 c0                	test   %eax,%eax
    813e:	74 48                	je     8188 <remote_nic_get_operation_mode+0x58>
    8140:	8d 55 f4             	lea    -0xc(%ebp),%edx
    8143:	c7 45 ec 00 00 00 00 	movl   $0x0,-0x14(%ebp)
    814a:	52                   	push   %edx
    814b:	8d 55 f0             	lea    -0x10(%ebp),%edx
    814e:	52                   	push   %edx
    814f:	8d 55 ec             	lea    -0x14(%ebp),%edx
    8152:	52                   	push   %edx
    8153:	c7 45 f0 00 00 00 00 	movl   $0x0,-0x10(%ebp)
    815a:	8b 55 08             	mov    0x8(%ebp),%edx
    815d:	c7 45 f4 00 00 00 00 	movl   $0x0,-0xc(%ebp)
    8164:	52                   	push   %edx
    8165:	ff d0                	call   *%eax
    8167:	59                   	pop    %ecx
    8168:	8b 55 f4             	mov    -0xc(%ebp),%edx
    816b:	8b 4d f0             	mov    -0x10(%ebp),%ecx
    816e:	52                   	push   %edx
    816f:	8b 55 ec             	mov    -0x14(%ebp),%edx
    8172:	51                   	push   %ecx
    8173:	8b 4d 10             	mov    0x10(%ebp),%ecx
    8176:	52                   	push   %edx
    8177:	50                   	push   %eax
    8178:	51                   	push   %ecx
    8179:	e8 92 6b 00 00       	call   ed10 <async_answer_3@plt>
    817e:	83 c4 20             	add    $0x20,%esp
    8181:	c9                   	leave  
    8182:	c3                   	ret    
    8183:	90                   	nop
    8184:	8d 74 26 00          	lea    0x0(%esi,%eiz,1),%esi
    8188:	50                   	push   %eax
    8189:	50                   	push   %eax
    818a:	8b 45 10             	mov    0x10(%ebp),%eax
    818d:	6a f5                	push   $0xfffffff5
    818f:	50                   	push   %eax
    8190:	e8 5b 68 00 00       	call   e9f0 <async_answer_0@plt>
    8195:	83 c4 10             	add    $0x10,%esp
    8198:	c9                   	leave  
    8199:	c3                   	ret    
    819a:	8d b6 00 00 00 00    	lea    0x0(%esi),%esi

000081a0 <remote_nic_autoneg_probe>:
    81a0:	55                   	push   %ebp
    81a1:	89 e5                	mov    %esp,%ebp
    81a3:	83 ec 18             	sub    $0x18,%esp
    81a6:	8b 45 0c             	mov    0xc(%ebp),%eax
    81a9:	8b 40 34             	mov    0x34(%eax),%eax
    81ac:	85 c0                	test   %eax,%eax
    81ae:	74 58                	je     8208 <remote_nic_autoneg_probe+0x68>
    81b0:	83 ec 0c             	sub    $0xc,%esp
    81b3:	8d 55 f4             	lea    -0xc(%ebp),%edx
    81b6:	c7 45 e8 00 00 00 00 	movl   $0x0,-0x18(%ebp)
    81bd:	c7 45 ec 00 00 00 00 	movl   $0x0,-0x14(%ebp)
    81c4:	52                   	push   %edx
    81c5:	8d 55 f0             	lea    -0x10(%ebp),%edx
    81c8:	52                   	push   %edx
    81c9:	8d 55 ec             	lea    -0x14(%ebp),%edx
    81cc:	52                   	push   %edx
    81cd:	8d 55 e8             	lea    -0x18(%ebp),%edx
    81d0:	52                   	push   %edx
    81d1:	c7 45 f0 03 00 00 00 	movl   $0x3,-0x10(%ebp)
    81d8:	8b 55 08             	mov    0x8(%ebp),%edx
    81db:	c7 45 f4 03 00 00 00 	movl   $0x3,-0xc(%ebp)
    81e2:	52                   	push   %edx
    81e3:	ff d0                	call   *%eax
    81e5:	83 c4 18             	add    $0x18,%esp
    81e8:	8b 4d f4             	mov    -0xc(%ebp),%ecx
    81eb:	8b 55 f0             	mov    -0x10(%ebp),%edx
    81ee:	51                   	push   %ecx
    81ef:	8b 4d ec             	mov    -0x14(%ebp),%ecx
    81f2:	52                   	push   %edx
    81f3:	8b 55 e8             	mov    -0x18(%ebp),%edx
    81f6:	51                   	push   %ecx
    81f7:	8b 4d 10             	mov    0x10(%ebp),%ecx
    81fa:	52                   	push   %edx
    81fb:	50                   	push   %eax
    81fc:	51                   	push   %ecx
    81fd:	e8 7e 69 00 00       	call   eb80 <async_answer_4@plt>
    8202:	83 c4 20             	add    $0x20,%esp
    8205:	c9                   	leave  
    8206:	c3                   	ret    
    8207:	90                   	nop
    8208:	50                   	push   %eax
    8209:	50                   	push   %eax
    820a:	8b 45 10             	mov    0x10(%ebp),%eax
    820d:	6a f5                	push   $0xfffffff5
    820f:	50                   	push   %eax
    8210:	e8 db 67 00 00       	call   e9f0 <async_answer_0@plt>
    8215:	83 c4 10             	add    $0x10,%esp
    8218:	c9                   	leave  
    8219:	c3                   	ret    
    821a:	8d b6 00 00 00 00    	lea    0x0(%esi),%esi

00008220 <remote_nic_set_state>:
    8220:	55                   	push   %ebp
    8221:	89 e5                	mov    %esp,%ebp
    8223:	53                   	push   %ebx
    8224:	50                   	push   %eax
    8225:	8b 45 0c             	mov    0xc(%ebp),%eax
    8228:	8b 55 08             	mov    0x8(%ebp),%edx
    822b:	8b 5d 10             	mov    0x10(%ebp),%ebx
    822e:	8b 4d 14             	mov    0x14(%ebp),%ecx
    8231:	8b 40 0c             	mov    0xc(%eax),%eax
    8234:	85 c0                	test   %eax,%eax
    8236:	74 1c                	je     8254 <remote_nic_set_state+0x34>
    8238:	83 ec 08             	sub    $0x8,%esp
    823b:	8b 49 08             	mov    0x8(%ecx),%ecx
    823e:	51                   	push   %ecx
    823f:	52                   	push   %edx
    8240:	ff d0                	call   *%eax
    8242:	89 5d 08             	mov    %ebx,0x8(%ebp)
    8245:	83 c4 10             	add    $0x10,%esp
    8248:	8b 5d fc             	mov    -0x4(%ebp),%ebx
    824b:	89 45 0c             	mov    %eax,0xc(%ebp)
    824e:	c9                   	leave  
    824f:	e9 9c 67 00 00       	jmp    e9f0 <async_answer_0@plt>
    8254:	53                   	push   %ebx
    8255:	68 69 05 00 00       	push   $0x569
    825a:	68 c4 e1 00 00       	push   $0xe1c4
    825f:	68 f0 e1 00 00       	push   $0xe1f0
    8264:	e8 27 68 00 00       	call   ea90 <assert_abort@plt>
    8269:	8d b4 26 00 00 00 00 	lea    0x0(%esi,%eiz,1),%esi

00008270 <remote_nic_callback_create>:
    8270:	55                   	push   %ebp
    8271:	89 e5                	mov    %esp,%ebp
    8273:	53                   	push   %ebx
    8274:	52                   	push   %edx
    8275:	8b 45 0c             	mov    0xc(%ebp),%eax
    8278:	8b 55 08             	mov    0x8(%ebp),%edx
    827b:	8b 5d 10             	mov    0x10(%ebp),%ebx
    827e:	8b 40 04             	mov    0x4(%eax),%eax
    8281:	85 c0                	test   %eax,%eax
    8283:	74 18                	je     829d <remote_nic_callback_create+0x2d>
    8285:	83 ec 0c             	sub    $0xc,%esp
    8288:	52                   	push   %edx
    8289:	ff d0                	call   *%eax
    828b:	89 5d 08             	mov    %ebx,0x8(%ebp)
    828e:	83 c4 10             	add    $0x10,%esp
    8291:	8b 5d fc             	mov    -0x4(%ebp),%ebx
    8294:	89 45 0c             	mov    %eax,0xc(%ebp)
    8297:	c9                   	leave  
    8298:	e9 53 67 00 00       	jmp    e9f0 <async_answer_0@plt>
    829d:	50                   	push   %eax
    829e:	68 53 05 00 00       	push   $0x553
    82a3:	68 c4 e1 00 00       	push   $0xe1c4
    82a8:	68 05 e2 00 00       	push   $0xe205
    82ad:	e8 de 67 00 00       	call   ea90 <assert_abort@plt>
    82b2:	8d b4 26 00 00 00 00 	lea    0x0(%esi,%eiz,1),%esi
    82b9:	8d bc 27 00 00 00 00 	lea    0x0(%edi,%eiz,1),%edi

000082c0 <remote_nic_get_state>:
    82c0:	55                   	push   %ebp
    82c1:	89 e5                	mov    %esp,%ebp
    82c3:	83 ec 18             	sub    $0x18,%esp
    82c6:	8b 45 0c             	mov    0xc(%ebp),%eax
    82c9:	8b 40 08             	mov    0x8(%eax),%eax
    82cc:	85 c0                	test   %eax,%eax
    82ce:	74 29                	je     82f9 <remote_nic_get_state+0x39>
    82d0:	8b 4d 08             	mov    0x8(%ebp),%ecx
    82d3:	c7 45 f4 03 00 00 00 	movl   $0x3,-0xc(%ebp)
    82da:	52                   	push   %edx
    82db:	52                   	push   %edx
    82dc:	8d 55 f4             	lea    -0xc(%ebp),%edx
    82df:	52                   	push   %edx
    82e0:	51                   	push   %ecx
    82e1:	ff d0                	call   *%eax
    82e3:	83 c4 0c             	add    $0xc,%esp
    82e6:	8b 55 f4             	mov    -0xc(%ebp),%edx
    82e9:	8b 4d 10             	mov    0x10(%ebp),%ecx
    82ec:	52                   	push   %edx
    82ed:	50                   	push   %eax
    82ee:	51                   	push   %ecx
    82ef:	e8 cc 69 00 00       	call   ecc0 <async_answer_1@plt>
    82f4:	83 c4 10             	add    $0x10,%esp
    82f7:	c9                   	leave  
    82f8:	c3                   	ret    
    82f9:	50                   	push   %eax
    82fa:	68 5d 05 00 00       	push   $0x55d
    82ff:	68 c4 e1 00 00       	push   $0xe1c4
    8304:	68 20 e2 00 00       	push   $0xe220
    8309:	e8 82 67 00 00       	call   ea90 <assert_abort@plt>
    830e:	66 90                	xchg   %ax,%ax

00008310 <remote_nic_send_frame>:
    8310:	55                   	push   %ebp
    8311:	89 e5                	mov    %esp,%ebp
    8313:	53                   	push   %ebx
    8314:	83 ec 14             	sub    $0x14,%esp
    8317:	8b 5d 0c             	mov    0xc(%ebp),%ebx
    831a:	8b 13                	mov    (%ebx),%edx
    831c:	85 d2                	test   %edx,%edx
    831e:	74 65                	je     8385 <remote_nic_send_frame+0x75>
    8320:	50                   	push   %eax
    8321:	50                   	push   %eax
    8322:	8d 45 f4             	lea    -0xc(%ebp),%eax
    8325:	50                   	push   %eax
    8326:	8d 45 f0             	lea    -0x10(%ebp),%eax
    8329:	6a 00                	push   $0x0
    832b:	6a 00                	push   $0x0
    832d:	6a 00                	push   $0x0
    832f:	6a 00                	push   $0x0
    8331:	50                   	push   %eax
    8332:	e8 19 6a 00 00       	call   ed50 <async_data_write_accept@plt>
    8337:	83 c4 20             	add    $0x20,%esp
    833a:	85 c0                	test   %eax,%eax
    833c:	75 32                	jne    8370 <remote_nic_send_frame+0x60>
    833e:	8b 55 f4             	mov    -0xc(%ebp),%edx
    8341:	8b 4d f0             	mov    -0x10(%ebp),%ecx
    8344:	50                   	push   %eax
    8345:	8b 45 08             	mov    0x8(%ebp),%eax
    8348:	52                   	push   %edx
    8349:	51                   	push   %ecx
    834a:	50                   	push   %eax
    834b:	ff 13                	call   *(%ebx)
    834d:	8b 5d 10             	mov    0x10(%ebp),%ebx
    8350:	5a                   	pop    %edx
    8351:	59                   	pop    %ecx
    8352:	50                   	push   %eax
    8353:	53                   	push   %ebx
    8354:	e8 97 66 00 00       	call   e9f0 <async_answer_0@plt>
    8359:	58                   	pop    %eax
    835a:	8b 45 f0             	mov    -0x10(%ebp),%eax
    835d:	50                   	push   %eax
    835e:	e8 7d 6a 00 00       	call   ede0 <free@plt>
    8363:	83 c4 10             	add    $0x10,%esp
    8366:	8b 5d fc             	mov    -0x4(%ebp),%ebx
    8369:	c9                   	leave  
    836a:	c3                   	ret    
    836b:	90                   	nop
    836c:	8d 74 26 00          	lea    0x0(%esi,%eiz,1),%esi
    8370:	50                   	push   %eax
    8371:	50                   	push   %eax
    8372:	8b 45 10             	mov    0x10(%ebp),%eax
    8375:	6a f2                	push   $0xfffffff2
    8377:	50                   	push   %eax
    8378:	e8 73 66 00 00       	call   e9f0 <async_answer_0@plt>
    837d:	83 c4 10             	add    $0x10,%esp
    8380:	8b 5d fc             	mov    -0x4(%ebp),%ebx
    8383:	c9                   	leave  
    8384:	c3                   	ret    
    8385:	50                   	push   %eax
    8386:	68 3e 05 00 00       	push   $0x53e
    838b:	68 c4 e1 00 00       	push   $0xe1c4
    8390:	68 35 e2 00 00       	push   $0xe235
    8395:	e8 f6 66 00 00       	call   ea90 <assert_abort@plt>
    839a:	8d b6 00 00 00 00    	lea    0x0(%esi),%esi

000083a0 <nic_send_frame>:
    83a0:	55                   	push   %ebp
    83a1:	89 e5                	mov    %esp,%ebp
    83a3:	56                   	push   %esi
    83a4:	53                   	push   %ebx
    83a5:	83 ec 3c             	sub    $0x3c,%esp
    83a8:	8b 55 08             	mov    0x8(%ebp),%edx
    83ab:	52                   	push   %edx
    83ac:	e8 1f 69 00 00       	call   ecd0 <async_exchange_begin@plt>
    83b1:	83 c4 0c             	add    $0xc,%esp
    83b4:	89 c3                	mov    %eax,%ebx
    83b6:	8d 45 d4             	lea    -0x2c(%ebp),%eax
    83b9:	50                   	push   %eax
    83ba:	6a 00                	push   $0x0
    83bc:	6a 00                	push   $0x0
    83be:	6a 00                	push   $0x0
    83c0:	6a 00                	push   $0x0
    83c2:	68 05 04 00 00       	push   $0x405
    83c7:	53                   	push   %ebx
    83c8:	e8 33 66 00 00       	call   ea00 <async_send_fast@plt>
    83cd:	83 c4 1c             	add    $0x1c,%esp
    83d0:	8b 4d 10             	mov    0x10(%ebp),%ecx
    83d3:	89 c6                	mov    %eax,%esi
    83d5:	8b 45 0c             	mov    0xc(%ebp),%eax
    83d8:	51                   	push   %ecx
    83d9:	50                   	push   %eax
    83da:	53                   	push   %ebx
    83db:	e8 70 65 00 00       	call   e950 <async_data_write_start@plt>
    83e0:	89 1c 24             	mov    %ebx,(%esp)
    83e3:	89 45 d0             	mov    %eax,-0x30(%ebp)
    83e6:	e8 95 66 00 00       	call   ea80 <async_exchange_end@plt>
    83eb:	8b 45 d0             	mov    -0x30(%ebp),%eax
    83ee:	83 c4 10             	add    $0x10,%esp
    83f1:	85 c0                	test   %eax,%eax
    83f3:	75 1b                	jne    8410 <nic_send_frame+0x70>
    83f5:	50                   	push   %eax
    83f6:	50                   	push   %eax
    83f7:	8d 45 d0             	lea    -0x30(%ebp),%eax
    83fa:	50                   	push   %eax
    83fb:	56                   	push   %esi
    83fc:	e8 0f 65 00 00       	call   e910 <async_wait_for@plt>
    8401:	8b 45 d0             	mov    -0x30(%ebp),%eax
    8404:	83 c4 10             	add    $0x10,%esp
    8407:	8d 65 f8             	lea    -0x8(%ebp),%esp
    840a:	5b                   	pop    %ebx
    840b:	5e                   	pop    %esi
    840c:	5d                   	pop    %ebp
    840d:	c3                   	ret    
    840e:	66 90                	xchg   %ax,%ax
    8410:	83 ec 0c             	sub    $0xc,%esp
    8413:	56                   	push   %esi
    8414:	e8 47 69 00 00       	call   ed60 <async_forget@plt>
    8419:	8b 45 d0             	mov    -0x30(%ebp),%eax
    841c:	83 c4 10             	add    $0x10,%esp
    841f:	8d 65 f8             	lea    -0x8(%ebp),%esp
    8422:	5b                   	pop    %ebx
    8423:	5e                   	pop    %esi
    8424:	5d                   	pop    %ebp
    8425:	c3                   	ret    
    8426:	8d 76 00             	lea    0x0(%esi),%esi
    8429:	8d bc 27 00 00 00 00 	lea    0x0(%edi,%eiz,1),%edi

00008430 <nic_callback_create>:
    8430:	55                   	push   %ebp
    8431:	89 e5                	mov    %esp,%ebp
    8433:	56                   	push   %esi
    8434:	53                   	push   %ebx
    8435:	83 ec 4c             	sub    $0x4c,%esp
    8438:	8b 4d 08             	mov    0x8(%ebp),%ecx
    843b:	51                   	push   %ecx
    843c:	e8 8f 68 00 00       	call   ecd0 <async_exchange_begin@plt>
    8441:	83 c4 0c             	add    $0xc,%esp
    8444:	89 c3                	mov    %eax,%ebx
    8446:	8d 45 d4             	lea    -0x2c(%ebp),%eax
    8449:	50                   	push   %eax
    844a:	6a 00                	push   $0x0
    844c:	6a 00                	push   $0x0
    844e:	6a 00                	push   $0x0
    8450:	6a 01                	push   $0x1
    8452:	68 05 04 00 00       	push   $0x405
    8457:	53                   	push   %ebx
    8458:	e8 a3 65 00 00       	call   ea00 <async_send_fast@plt>
    845d:	83 c4 1c             	add    $0x1c,%esp
    8460:	89 c6                	mov    %eax,%esi
    8462:	8d 45 d0             	lea    -0x30(%ebp),%eax
    8465:	50                   	push   %eax
    8466:	8b 45 10             	mov    0x10(%ebp),%eax
    8469:	50                   	push   %eax
    846a:	8b 45 0c             	mov    0xc(%ebp),%eax
    846d:	50                   	push   %eax
    846e:	6a 00                	push   $0x0
    8470:	6a 00                	push   $0x0
    8472:	68 e5 4e 8f 41       	push   $0x418f4ee5
    8477:	53                   	push   %ebx
    8478:	e8 63 67 00 00       	call   ebe0 <async_create_callback_port@plt>
    847d:	83 c4 20             	add    $0x20,%esp
    8480:	85 c0                	test   %eax,%eax
    8482:	75 24                	jne    84a8 <nic_callback_create+0x78>
    8484:	83 ec 0c             	sub    $0xc,%esp
    8487:	53                   	push   %ebx
    8488:	e8 f3 65 00 00       	call   ea80 <async_exchange_end@plt>
    848d:	58                   	pop    %eax
    848e:	8d 45 cc             	lea    -0x34(%ebp),%eax
    8491:	5a                   	pop    %edx
    8492:	50                   	push   %eax
    8493:	56                   	push   %esi
    8494:	e8 77 64 00 00       	call   e910 <async_wait_for@plt>
    8499:	8b 45 cc             	mov    -0x34(%ebp),%eax
    849c:	83 c4 10             	add    $0x10,%esp
    849f:	8d 65 f8             	lea    -0x8(%ebp),%esp
    84a2:	5b                   	pop    %ebx
    84a3:	5e                   	pop    %esi
    84a4:	5d                   	pop    %ebp
    84a5:	c3                   	ret    
    84a6:	66 90                	xchg   %ax,%ax
    84a8:	83 ec 0c             	sub    $0xc,%esp
    84ab:	89 45 c4             	mov    %eax,-0x3c(%ebp)
    84ae:	56                   	push   %esi
    84af:	e8 ac 68 00 00       	call   ed60 <async_forget@plt>
    84b4:	8b 45 c4             	mov    -0x3c(%ebp),%eax
    84b7:	83 c4 10             	add    $0x10,%esp
    84ba:	8d 65 f8             	lea    -0x8(%ebp),%esp
    84bd:	5b                   	pop    %ebx
    84be:	5e                   	pop    %esi
    84bf:	5d                   	pop    %ebp
    84c0:	c3                   	ret    
    84c1:	eb 0d                	jmp    84d0 <nic_get_state>
    84c3:	90                   	nop
    84c4:	90                   	nop
    84c5:	90                   	nop
    84c6:	90                   	nop
    84c7:	90                   	nop
    84c8:	90                   	nop
    84c9:	90                   	nop
    84ca:	90                   	nop
    84cb:	90                   	nop
    84cc:	90                   	nop
    84cd:	90                   	nop
    84ce:	90                   	nop
    84cf:	90                   	nop

000084d0 <nic_get_state>:
    84d0:	55                   	push   %ebp
    84d1:	89 e5                	mov    %esp,%ebp
    84d3:	56                   	push   %esi
    84d4:	53                   	push   %ebx
    84d5:	83 ec 20             	sub    $0x20,%esp
    84d8:	8b 5d 0c             	mov    0xc(%ebp),%ebx
    84db:	85 db                	test   %ebx,%ebx
    84dd:	74 4b                	je     852a <nic_get_state+0x5a>
    84df:	83 ec 0c             	sub    $0xc,%esp
    84e2:	8b 45 08             	mov    0x8(%ebp),%eax
    84e5:	50                   	push   %eax
    84e6:	e8 e5 67 00 00       	call   ecd0 <async_exchange_begin@plt>
    84eb:	83 c4 0c             	add    $0xc,%esp
    84ee:	89 c6                	mov    %eax,%esi
    84f0:	8d 45 f4             	lea    -0xc(%ebp),%eax
    84f3:	6a 00                	push   $0x0
    84f5:	6a 00                	push   $0x0
    84f7:	6a 00                	push   $0x0
    84f9:	6a 00                	push   $0x0
    84fb:	50                   	push   %eax
    84fc:	6a 00                	push   $0x0
    84fe:	6a 00                	push   $0x0
    8500:	6a 00                	push   $0x0
    8502:	6a 02                	push   $0x2
    8504:	68 05 04 00 00       	push   $0x405
    8509:	56                   	push   %esi
    850a:	e8 d1 64 00 00       	call   e9e0 <async_req_fast@plt>
    850f:	83 c4 24             	add    $0x24,%esp
    8512:	89 45 e4             	mov    %eax,-0x1c(%ebp)
    8515:	56                   	push   %esi
    8516:	e8 65 65 00 00       	call   ea80 <async_exchange_end@plt>
    851b:	8b 55 f4             	mov    -0xc(%ebp),%edx
    851e:	8b 45 e4             	mov    -0x1c(%ebp),%eax
    8521:	89 13                	mov    %edx,(%ebx)
    8523:	8d 65 f8             	lea    -0x8(%ebp),%esp
    8526:	5b                   	pop    %ebx
    8527:	5e                   	pop    %esi
    8528:	5d                   	pop    %ebp
    8529:	c3                   	ret    
    852a:	52                   	push   %edx
    852b:	68 a2 00 00 00       	push   $0xa2
    8530:	68 c4 e1 00 00       	push   $0xe1c4
    8535:	68 63 e2 00 00       	push   $0xe263
    853a:	e8 51 65 00 00       	call   ea90 <assert_abort@plt>
    853f:	90                   	nop

00008540 <nic_set_state>:
    8540:	55                   	push   %ebp
    8541:	89 e5                	mov    %esp,%ebp
    8543:	53                   	push   %ebx
    8544:	83 ec 20             	sub    $0x20,%esp
    8547:	8b 45 08             	mov    0x8(%ebp),%eax
    854a:	50                   	push   %eax
    854b:	e8 80 67 00 00       	call   ecd0 <async_exchange_begin@plt>
    8550:	83 c4 0c             	add    $0xc,%esp
    8553:	8b 55 0c             	mov    0xc(%ebp),%edx
    8556:	89 c3                	mov    %eax,%ebx
    8558:	6a 00                	push   $0x0
    855a:	6a 00                	push   $0x0
    855c:	6a 00                	push   $0x0
    855e:	6a 00                	push   $0x0
    8560:	6a 00                	push   $0x0
    8562:	6a 00                	push   $0x0
    8564:	6a 00                	push   $0x0
    8566:	52                   	push   %edx
    8567:	6a 03                	push   $0x3
    8569:	68 05 04 00 00       	push   $0x405
    856e:	50                   	push   %eax
    856f:	e8 6c 64 00 00       	call   e9e0 <async_req_fast@plt>
    8574:	83 c4 24             	add    $0x24,%esp
    8577:	89 45 f4             	mov    %eax,-0xc(%ebp)
    857a:	53                   	push   %ebx
    857b:	e8 00 65 00 00       	call   ea80 <async_exchange_end@plt>
    8580:	8b 45 f4             	mov    -0xc(%ebp),%eax
    8583:	8b 5d fc             	mov    -0x4(%ebp),%ebx
    8586:	c9                   	leave  
    8587:	c3                   	ret    
    8588:	90                   	nop
    8589:	8d b4 26 00 00 00 00 	lea    0x0(%esi,%eiz,1),%esi

00008590 <nic_get_address>:
    8590:	55                   	push   %ebp
    8591:	89 e5                	mov    %esp,%ebp
    8593:	57                   	push   %edi
    8594:	56                   	push   %esi
    8595:	53                   	push   %ebx
    8596:	83 ec 2c             	sub    $0x2c,%esp
    8599:	8b 75 0c             	mov    0xc(%ebp),%esi
    859c:	85 f6                	test   %esi,%esi
    859e:	74 60                	je     8600 <nic_get_address+0x70>
    85a0:	83 ec 0c             	sub    $0xc,%esp
    85a3:	8b 45 08             	mov    0x8(%ebp),%eax
    85a6:	50                   	push   %eax
    85a7:	e8 24 67 00 00       	call   ecd0 <async_exchange_begin@plt>
    85ac:	83 c4 0c             	add    $0xc,%esp
    85af:	89 c3                	mov    %eax,%ebx
    85b1:	6a 00                	push   $0x0
    85b3:	6a 00                	push   $0x0
    85b5:	6a 00                	push   $0x0
    85b7:	6a 00                	push   $0x0
    85b9:	6a 04                	push   $0x4
    85bb:	68 05 04 00 00       	push   $0x405
    85c0:	50                   	push   %eax
    85c1:	e8 3a 64 00 00       	call   ea00 <async_send_fast@plt>
    85c6:	83 c4 1c             	add    $0x1c,%esp
    85c9:	89 c7                	mov    %eax,%edi
    85cb:	6a 06                	push   $0x6
    85cd:	56                   	push   %esi
    85ce:	53                   	push   %ebx
    85cf:	e8 5c 66 00 00       	call   ec30 <async_data_read_start@plt>
    85d4:	89 1c 24             	mov    %ebx,(%esp)
    85d7:	89 45 d4             	mov    %eax,-0x2c(%ebp)
    85da:	e8 a1 64 00 00       	call   ea80 <async_exchange_end@plt>
    85df:	5a                   	pop    %edx
    85e0:	8d 55 e4             	lea    -0x1c(%ebp),%edx
    85e3:	59                   	pop    %ecx
    85e4:	52                   	push   %edx
    85e5:	57                   	push   %edi
    85e6:	e8 25 63 00 00       	call   e910 <async_wait_for@plt>
    85eb:	8b 45 d4             	mov    -0x2c(%ebp),%eax
    85ee:	83 c4 10             	add    $0x10,%esp
    85f1:	85 c0                	test   %eax,%eax
    85f3:	75 03                	jne    85f8 <nic_get_address+0x68>
    85f5:	8b 45 e4             	mov    -0x1c(%ebp),%eax
    85f8:	8d 65 f4             	lea    -0xc(%ebp),%esp
    85fb:	5b                   	pop    %ebx
    85fc:	5e                   	pop    %esi
    85fd:	5f                   	pop    %edi
    85fe:	5d                   	pop    %ebp
    85ff:	c3                   	ret    
    8600:	53                   	push   %ebx
    8601:	68 cc 00 00 00       	push   $0xcc
    8606:	68 c4 e1 00 00       	push   $0xe1c4
    860b:	68 e8 e1 00 00       	push   $0xe1e8
    8610:	e8 7b 64 00 00       	call   ea90 <assert_abort@plt>
    8615:	8d 74 26 00          	lea    0x0(%esi,%eiz,1),%esi
    8619:	8d bc 27 00 00 00 00 	lea    0x0(%edi,%eiz,1),%edi

00008620 <nic_set_address>:
    8620:	55                   	push   %ebp
    8621:	89 e5                	mov    %esp,%ebp
    8623:	57                   	push   %edi
    8624:	56                   	push   %esi
    8625:	53                   	push   %ebx
    8626:	83 ec 2c             	sub    $0x2c,%esp
    8629:	8b 75 0c             	mov    0xc(%ebp),%esi
    862c:	85 f6                	test   %esi,%esi
    862e:	74 60                	je     8690 <nic_set_address+0x70>
    8630:	83 ec 0c             	sub    $0xc,%esp
    8633:	8b 45 08             	mov    0x8(%ebp),%eax
    8636:	50                   	push   %eax
    8637:	e8 94 66 00 00       	call   ecd0 <async_exchange_begin@plt>
    863c:	83 c4 0c             	add    $0xc,%esp
    863f:	89 c3                	mov    %eax,%ebx
    8641:	6a 00                	push   $0x0
    8643:	6a 00                	push   $0x0
    8645:	6a 00                	push   $0x0
    8647:	6a 00                	push   $0x0
    8649:	6a 05                	push   $0x5
    864b:	68 05 04 00 00       	push   $0x405
    8650:	50                   	push   %eax
    8651:	e8 aa 63 00 00       	call   ea00 <async_send_fast@plt>
    8656:	83 c4 1c             	add    $0x1c,%esp
    8659:	89 c7                	mov    %eax,%edi
    865b:	6a 06                	push   $0x6
    865d:	56                   	push   %esi
    865e:	53                   	push   %ebx
    865f:	e8 ec 62 00 00       	call   e950 <async_data_write_start@plt>
    8664:	89 1c 24             	mov    %ebx,(%esp)
    8667:	89 45 d4             	mov    %eax,-0x2c(%ebp)
    866a:	e8 11 64 00 00       	call   ea80 <async_exchange_end@plt>
    866f:	5a                   	pop    %edx
    8670:	8d 55 e4             	lea    -0x1c(%ebp),%edx
    8673:	59                   	pop    %ecx
    8674:	52                   	push   %edx
    8675:	57                   	push   %edi
    8676:	e8 95 62 00 00       	call   e910 <async_wait_for@plt>
    867b:	8b 45 d4             	mov    -0x2c(%ebp),%eax
    867e:	83 c4 10             	add    $0x10,%esp
    8681:	85 c0                	test   %eax,%eax
    8683:	75 03                	jne    8688 <nic_set_address+0x68>
    8685:	8b 45 e4             	mov    -0x1c(%ebp),%eax
    8688:	8d 65 f4             	lea    -0xc(%ebp),%esp
    868b:	5b                   	pop    %ebx
    868c:	5e                   	pop    %esi
    868d:	5f                   	pop    %edi
    868e:	5d                   	pop    %ebp
    868f:	c3                   	ret    
    8690:	53                   	push   %ebx
    8691:	68 e7 00 00 00       	push   $0xe7
    8696:	68 c4 e1 00 00       	push   $0xe1c4
    869b:	68 e8 e1 00 00       	push   $0xe1e8
    86a0:	e8 eb 63 00 00       	call   ea90 <assert_abort@plt>
    86a5:	8d 74 26 00          	lea    0x0(%esi,%eiz,1),%esi
    86a9:	8d bc 27 00 00 00 00 	lea    0x0(%edi,%eiz,1),%edi

000086b0 <nic_get_stats>:
    86b0:	55                   	push   %ebp
    86b1:	89 e5                	mov    %esp,%ebp
    86b3:	56                   	push   %esi
    86b4:	53                   	push   %ebx
    86b5:	83 ec 10             	sub    $0x10,%esp
    86b8:	8b 75 0c             	mov    0xc(%ebp),%esi
    86bb:	85 f6                	test   %esi,%esi
    86bd:	74 72                	je     8731 <nic_get_stats+0x81>
    86bf:	83 ec 0c             	sub    $0xc,%esp
    86c2:	8b 55 08             	mov    0x8(%ebp),%edx
    86c5:	52                   	push   %edx
    86c6:	e8 05 66 00 00       	call   ecd0 <async_exchange_begin@plt>
    86cb:	83 c4 0c             	add    $0xc,%esp
    86ce:	89 c3                	mov    %eax,%ebx
    86d0:	6a 00                	push   $0x0
    86d2:	6a 00                	push   $0x0
    86d4:	6a 00                	push   $0x0
    86d6:	6a 00                	push   $0x0
    86d8:	6a 00                	push   $0x0
    86da:	6a 00                	push   $0x0
    86dc:	6a 00                	push   $0x0
    86de:	6a 00                	push   $0x0
    86e0:	6a 06                	push   $0x6
    86e2:	68 05 04 00 00       	push   $0x405
    86e7:	50                   	push   %eax
    86e8:	e8 f3 62 00 00       	call   e9e0 <async_req_fast@plt>
    86ed:	83 c4 30             	add    $0x30,%esp
    86f0:	85 c0                	test   %eax,%eax
    86f2:	75 24                	jne    8718 <nic_get_stats+0x68>
    86f4:	50                   	push   %eax
    86f5:	6a 6c                	push   $0x6c
    86f7:	56                   	push   %esi
    86f8:	53                   	push   %ebx
    86f9:	e8 32 65 00 00       	call   ec30 <async_data_read_start@plt>
    86fe:	89 1c 24             	mov    %ebx,(%esp)
    8701:	89 45 f4             	mov    %eax,-0xc(%ebp)
    8704:	e8 77 63 00 00       	call   ea80 <async_exchange_end@plt>
    8709:	8b 45 f4             	mov    -0xc(%ebp),%eax
    870c:	83 c4 10             	add    $0x10,%esp
    870f:	8d 65 f8             	lea    -0x8(%ebp),%esp
    8712:	5b                   	pop    %ebx
    8713:	5e                   	pop    %esi
    8714:	5d                   	pop    %ebp
    8715:	c3                   	ret    
    8716:	66 90                	xchg   %ax,%ax
    8718:	83 ec 0c             	sub    $0xc,%esp
    871b:	89 45 f4             	mov    %eax,-0xc(%ebp)
    871e:	53                   	push   %ebx
    871f:	e8 5c 63 00 00       	call   ea80 <async_exchange_end@plt>
    8724:	8b 45 f4             	mov    -0xc(%ebp),%eax
    8727:	83 c4 10             	add    $0x10,%esp
    872a:	8d 65 f8             	lea    -0x8(%ebp),%esp
    872d:	5b                   	pop    %ebx
    872e:	5e                   	pop    %esi
    872f:	5d                   	pop    %ebp
    8730:	c3                   	ret    
    8731:	51                   	push   %ecx
    8732:	68 02 01 00 00       	push   $0x102
    8737:	68 c4 e1 00 00       	push   $0xe1c4
    873c:	68 4b e2 00 00       	push   $0xe24b
    8741:	e8 4a 63 00 00       	call   ea90 <assert_abort@plt>
    8746:	8d 76 00             	lea    0x0(%esi),%esi
    8749:	8d bc 27 00 00 00 00 	lea    0x0(%edi,%eiz,1),%edi

00008750 <nic_get_device_info>:
    8750:	55                   	push   %ebp
    8751:	89 e5                	mov    %esp,%ebp
    8753:	57                   	push   %edi
    8754:	56                   	push   %esi
    8755:	53                   	push   %ebx
    8756:	83 ec 2c             	sub    $0x2c,%esp
    8759:	8b 75 0c             	mov    0xc(%ebp),%esi
    875c:	85 f6                	test   %esi,%esi
    875e:	74 63                	je     87c3 <nic_get_device_info+0x73>
    8760:	83 ec 0c             	sub    $0xc,%esp
    8763:	8b 45 08             	mov    0x8(%ebp),%eax
    8766:	50                   	push   %eax
    8767:	e8 64 65 00 00       	call   ecd0 <async_exchange_begin@plt>
    876c:	83 c4 0c             	add    $0xc,%esp
    876f:	89 c3                	mov    %eax,%ebx
    8771:	6a 00                	push   $0x0
    8773:	6a 00                	push   $0x0
    8775:	6a 00                	push   $0x0
    8777:	6a 00                	push   $0x0
    8779:	6a 07                	push   $0x7
    877b:	68 05 04 00 00       	push   $0x405
    8780:	50                   	push   %eax
    8781:	e8 7a 62 00 00       	call   ea00 <async_send_fast@plt>
    8786:	83 c4 1c             	add    $0x1c,%esp
    8789:	89 c7                	mov    %eax,%edi
    878b:	68 1c 01 00 00       	push   $0x11c
    8790:	56                   	push   %esi
    8791:	53                   	push   %ebx
    8792:	e8 99 64 00 00       	call   ec30 <async_data_read_start@plt>
    8797:	89 1c 24             	mov    %ebx,(%esp)
    879a:	89 45 d4             	mov    %eax,-0x2c(%ebp)
    879d:	e8 de 62 00 00       	call   ea80 <async_exchange_end@plt>
    87a2:	5a                   	pop    %edx
    87a3:	8d 55 e4             	lea    -0x1c(%ebp),%edx
    87a6:	59                   	pop    %ecx
    87a7:	52                   	push   %edx
    87a8:	57                   	push   %edi
    87a9:	e8 62 61 00 00       	call   e910 <async_wait_for@plt>
    87ae:	8b 45 d4             	mov    -0x2c(%ebp),%eax
    87b1:	83 c4 10             	add    $0x10,%esp
    87b4:	85 c0                	test   %eax,%eax
    87b6:	75 03                	jne    87bb <nic_get_device_info+0x6b>
    87b8:	8b 45 e4             	mov    -0x1c(%ebp),%eax
    87bb:	8d 65 f4             	lea    -0xc(%ebp),%esp
    87be:	5b                   	pop    %ebx
    87bf:	5e                   	pop    %esi
    87c0:	5f                   	pop    %edi
    87c1:	5d                   	pop    %ebp
    87c2:	c3                   	ret    
    87c3:	53                   	push   %ebx
    87c4:	68 20 01 00 00       	push   $0x120
    87c9:	68 c4 e1 00 00       	push   $0xe1c4
    87ce:	68 51 e2 00 00       	push   $0xe251
    87d3:	e8 b8 62 00 00       	call   ea90 <assert_abort@plt>
    87d8:	90                   	nop
    87d9:	8d b4 26 00 00 00 00 	lea    0x0(%esi,%eiz,1),%esi

000087e0 <nic_get_cable_state>:
    87e0:	55                   	push   %ebp
    87e1:	89 e5                	mov    %esp,%ebp
    87e3:	56                   	push   %esi
    87e4:	53                   	push   %ebx
    87e5:	83 ec 20             	sub    $0x20,%esp
    87e8:	8b 5d 0c             	mov    0xc(%ebp),%ebx
    87eb:	85 db                	test   %ebx,%ebx
    87ed:	74 4b                	je     883a <nic_get_cable_state+0x5a>
    87ef:	83 ec 0c             	sub    $0xc,%esp
    87f2:	8b 45 08             	mov    0x8(%ebp),%eax
    87f5:	50                   	push   %eax
    87f6:	e8 d5 64 00 00       	call   ecd0 <async_exchange_begin@plt>
    87fb:	83 c4 0c             	add    $0xc,%esp
    87fe:	89 c6                	mov    %eax,%esi
    8800:	8d 45 f4             	lea    -0xc(%ebp),%eax
    8803:	6a 00                	push   $0x0
    8805:	6a 00                	push   $0x0
    8807:	6a 00                	push   $0x0
    8809:	6a 00                	push   $0x0
    880b:	50                   	push   %eax
    880c:	6a 00                	push   $0x0
    880e:	6a 00                	push   $0x0
    8810:	6a 00                	push   $0x0
    8812:	6a 08                	push   $0x8
    8814:	68 05 04 00 00       	push   $0x405
    8819:	56                   	push   %esi
    881a:	e8 c1 61 00 00       	call   e9e0 <async_req_fast@plt>
    881f:	83 c4 24             	add    $0x24,%esp
    8822:	89 45 e4             	mov    %eax,-0x1c(%ebp)
    8825:	56                   	push   %esi
    8826:	e8 55 62 00 00       	call   ea80 <async_exchange_end@plt>
    882b:	8b 55 f4             	mov    -0xc(%ebp),%edx
    882e:	8b 45 e4             	mov    -0x1c(%ebp),%eax
    8831:	89 13                	mov    %edx,(%ebx)
    8833:	8d 65 f8             	lea    -0x8(%ebp),%esp
    8836:	5b                   	pop    %ebx
    8837:	5e                   	pop    %esi
    8838:	5d                   	pop    %ebp
    8839:	c3                   	ret    
    883a:	52                   	push   %edx
    883b:	68 3c 01 00 00       	push   $0x13c
    8840:	68 c4 e1 00 00       	push   $0xe1c4
    8845:	68 5d e2 00 00       	push   $0xe25d
    884a:	e8 41 62 00 00       	call   ea90 <assert_abort@plt>
    884f:	90                   	nop

00008850 <nic_get_operation_mode>:
    8850:	55                   	push   %ebp
    8851:	89 e5                	mov    %esp,%ebp
    8853:	57                   	push   %edi
    8854:	56                   	push   %esi
    8855:	53                   	push   %ebx
    8856:	83 ec 38             	sub    $0x38,%esp
    8859:	8b 4d 08             	mov    0x8(%ebp),%ecx
    885c:	8b 7d 0c             	mov    0xc(%ebp),%edi
    885f:	51                   	push   %ecx
    8860:	8b 5d 14             	mov    0x14(%ebp),%ebx
    8863:	e8 68 64 00 00       	call   ecd0 <async_exchange_begin@plt>
    8868:	83 c4 0c             	add    $0xc,%esp
    886b:	89 c6                	mov    %eax,%esi
    886d:	8d 45 e4             	lea    -0x1c(%ebp),%eax
    8870:	6a 00                	push   $0x0
    8872:	6a 00                	push   $0x0
    8874:	50                   	push   %eax
    8875:	8d 45 e0             	lea    -0x20(%ebp),%eax
    8878:	50                   	push   %eax
    8879:	8d 45 dc             	lea    -0x24(%ebp),%eax
    887c:	50                   	push   %eax
    887d:	6a 00                	push   $0x0
    887f:	6a 00                	push   $0x0
    8881:	6a 00                	push   $0x0
    8883:	6a 09                	push   $0x9
    8885:	68 05 04 00 00       	push   $0x405
    888a:	56                   	push   %esi
    888b:	e8 50 61 00 00       	call   e9e0 <async_req_fast@plt>
    8890:	83 c4 24             	add    $0x24,%esp
    8893:	89 45 d4             	mov    %eax,-0x2c(%ebp)
    8896:	56                   	push   %esi
    8897:	e8 e4 61 00 00       	call   ea80 <async_exchange_end@plt>
    889c:	83 c4 10             	add    $0x10,%esp
    889f:	8b 45 d4             	mov    -0x2c(%ebp),%eax
    88a2:	85 ff                	test   %edi,%edi
    88a4:	74 05                	je     88ab <nic_get_operation_mode+0x5b>
    88a6:	8b 55 dc             	mov    -0x24(%ebp),%edx
    88a9:	89 17                	mov    %edx,(%edi)
    88ab:	8b 55 10             	mov    0x10(%ebp),%edx
    88ae:	85 d2                	test   %edx,%edx
    88b0:	74 08                	je     88ba <nic_get_operation_mode+0x6a>
    88b2:	8b 4d 10             	mov    0x10(%ebp),%ecx
    88b5:	8b 55 e0             	mov    -0x20(%ebp),%edx
    88b8:	89 11                	mov    %edx,(%ecx)
    88ba:	85 db                	test   %ebx,%ebx
    88bc:	74 05                	je     88c3 <nic_get_operation_mode+0x73>
    88be:	8b 55 e4             	mov    -0x1c(%ebp),%edx
    88c1:	89 13                	mov    %edx,(%ebx)
    88c3:	8d 65 f4             	lea    -0xc(%ebp),%esp
    88c6:	5b                   	pop    %ebx
    88c7:	5e                   	pop    %esi
    88c8:	5f                   	pop    %edi
    88c9:	5d                   	pop    %ebp
    88ca:	c3                   	ret    
    88cb:	90                   	nop
    88cc:	8d 74 26 00          	lea    0x0(%esi,%eiz,1),%esi

000088d0 <nic_set_operation_mode>:
    88d0:	55                   	push   %ebp
    88d1:	89 e5                	mov    %esp,%ebp
    88d3:	53                   	push   %ebx
    88d4:	83 ec 20             	sub    $0x20,%esp
    88d7:	8b 45 08             	mov    0x8(%ebp),%eax
    88da:	50                   	push   %eax
    88db:	e8 f0 63 00 00       	call   ecd0 <async_exchange_begin@plt>
    88e0:	83 c4 0c             	add    $0xc,%esp
    88e3:	89 c3                	mov    %eax,%ebx
    88e5:	8b 55 14             	mov    0x14(%ebp),%edx
    88e8:	8b 4d 10             	mov    0x10(%ebp),%ecx
    88eb:	8b 45 0c             	mov    0xc(%ebp),%eax
    88ee:	6a 00                	push   $0x0
    88f0:	6a 00                	push   $0x0
    88f2:	6a 00                	push   $0x0
    88f4:	6a 00                	push   $0x0
    88f6:	6a 00                	push   $0x0
    88f8:	52                   	push   %edx
    88f9:	51                   	push   %ecx
    88fa:	50                   	push   %eax
    88fb:	6a 0a                	push   $0xa
    88fd:	68 05 04 00 00       	push   $0x405
    8902:	53                   	push   %ebx
    8903:	e8 d8 60 00 00       	call   e9e0 <async_req_fast@plt>
    8908:	83 c4 24             	add    $0x24,%esp
    890b:	89 45 f4             	mov    %eax,-0xc(%ebp)
    890e:	53                   	push   %ebx
    890f:	e8 6c 61 00 00       	call   ea80 <async_exchange_end@plt>
    8914:	8b 45 f4             	mov    -0xc(%ebp),%eax
    8917:	8b 5d fc             	mov    -0x4(%ebp),%ebx
    891a:	c9                   	leave  
    891b:	c3                   	ret    
    891c:	8d 74 26 00          	lea    0x0(%esi,%eiz,1),%esi

00008920 <nic_autoneg_enable>:
    8920:	55                   	push   %ebp
    8921:	89 e5                	mov    %esp,%ebp
    8923:	53                   	push   %ebx
    8924:	83 ec 20             	sub    $0x20,%esp
    8927:	8b 45 08             	mov    0x8(%ebp),%eax
    892a:	50                   	push   %eax
    892b:	e8 a0 63 00 00       	call   ecd0 <async_exchange_begin@plt>
    8930:	83 c4 0c             	add    $0xc,%esp
    8933:	8b 55 0c             	mov    0xc(%ebp),%edx
    8936:	89 c3                	mov    %eax,%ebx
    8938:	6a 00                	push   $0x0
    893a:	6a 00                	push   $0x0
    893c:	6a 00                	push   $0x0
    893e:	6a 00                	push   $0x0
    8940:	6a 00                	push   $0x0
    8942:	6a 00                	push   $0x0
    8944:	6a 00                	push   $0x0
    8946:	52                   	push   %edx
    8947:	6a 0b                	push   $0xb
    8949:	68 05 04 00 00       	push   $0x405
    894e:	50                   	push   %eax
    894f:	e8 8c 60 00 00       	call   e9e0 <async_req_fast@plt>
    8954:	83 c4 24             	add    $0x24,%esp
    8957:	89 45 f4             	mov    %eax,-0xc(%ebp)
    895a:	53                   	push   %ebx
    895b:	e8 20 61 00 00       	call   ea80 <async_exchange_end@plt>
    8960:	8b 45 f4             	mov    -0xc(%ebp),%eax
    8963:	8b 5d fc             	mov    -0x4(%ebp),%ebx
    8966:	c9                   	leave  
    8967:	c3                   	ret    
    8968:	90                   	nop
    8969:	8d b4 26 00 00 00 00 	lea    0x0(%esi,%eiz,1),%esi

00008970 <nic_autoneg_disable>:
    8970:	55                   	push   %ebp
    8971:	89 e5                	mov    %esp,%ebp
    8973:	53                   	push   %ebx
    8974:	83 ec 20             	sub    $0x20,%esp
    8977:	8b 45 08             	mov    0x8(%ebp),%eax
    897a:	50                   	push   %eax
    897b:	e8 50 63 00 00       	call   ecd0 <async_exchange_begin@plt>
    8980:	83 c4 0c             	add    $0xc,%esp
    8983:	89 c3                	mov    %eax,%ebx
    8985:	6a 00                	push   $0x0
    8987:	6a 00                	push   $0x0
    8989:	6a 00                	push   $0x0
    898b:	6a 00                	push   $0x0
    898d:	6a 00                	push   $0x0
    898f:	6a 00                	push   $0x0
    8991:	6a 00                	push   $0x0
    8993:	6a 00                	push   $0x0
    8995:	6a 0c                	push   $0xc
    8997:	68 05 04 00 00       	push   $0x405
    899c:	50                   	push   %eax
    899d:	e8 3e 60 00 00       	call   e9e0 <async_req_fast@plt>
    89a2:	83 c4 24             	add    $0x24,%esp
    89a5:	89 45 f4             	mov    %eax,-0xc(%ebp)
    89a8:	53                   	push   %ebx
    89a9:	e8 d2 60 00 00       	call   ea80 <async_exchange_end@plt>
    89ae:	8b 45 f4             	mov    -0xc(%ebp),%eax
    89b1:	8b 5d fc             	mov    -0x4(%ebp),%ebx
    89b4:	c9                   	leave  
    89b5:	c3                   	ret    
    89b6:	8d 76 00             	lea    0x0(%esi),%esi
    89b9:	8d bc 27 00 00 00 00 	lea    0x0(%edi,%eiz,1),%edi

000089c0 <nic_autoneg_probe>:
    89c0:	55                   	push   %ebp
    89c1:	89 e5                	mov    %esp,%ebp
    89c3:	57                   	push   %edi
    89c4:	56                   	push   %esi
    89c5:	53                   	push   %ebx
    89c6:	83 ec 38             	sub    $0x38,%esp
    89c9:	8b 45 08             	mov    0x8(%ebp),%eax
    89cc:	8b 7d 0c             	mov    0xc(%ebp),%edi
    89cf:	50                   	push   %eax
    89d0:	8b 5d 18             	mov    0x18(%ebp),%ebx
    89d3:	e8 f8 62 00 00       	call   ecd0 <async_exchange_begin@plt>
    89d8:	83 c4 0c             	add    $0xc,%esp
    89db:	89 c6                	mov    %eax,%esi
    89dd:	8d 45 e4             	lea    -0x1c(%ebp),%eax
    89e0:	6a 00                	push   $0x0
    89e2:	50                   	push   %eax
    89e3:	8d 45 e0             	lea    -0x20(%ebp),%eax
    89e6:	50                   	push   %eax
    89e7:	8d 45 dc             	lea    -0x24(%ebp),%eax
    89ea:	50                   	push   %eax
    89eb:	8d 45 d8             	lea    -0x28(%ebp),%eax
    89ee:	50                   	push   %eax
    89ef:	6a 00                	push   $0x0
    89f1:	6a 00                	push   $0x0
    89f3:	6a 00                	push   $0x0
    89f5:	6a 0d                	push   $0xd
    89f7:	68 05 04 00 00       	push   $0x405
    89fc:	56                   	push   %esi
    89fd:	e8 de 5f 00 00       	call   e9e0 <async_req_fast@plt>
    8a02:	83 c4 24             	add    $0x24,%esp
    8a05:	89 45 d4             	mov    %eax,-0x2c(%ebp)
    8a08:	56                   	push   %esi
    8a09:	e8 72 60 00 00       	call   ea80 <async_exchange_end@plt>
    8a0e:	83 c4 10             	add    $0x10,%esp
    8a11:	8b 45 d4             	mov    -0x2c(%ebp),%eax
    8a14:	85 ff                	test   %edi,%edi
    8a16:	74 05                	je     8a1d <nic_autoneg_probe+0x5d>
    8a18:	8b 55 d8             	mov    -0x28(%ebp),%edx
    8a1b:	89 17                	mov    %edx,(%edi)
    8a1d:	8b 4d 10             	mov    0x10(%ebp),%ecx
    8a20:	8b 31                	mov    (%ecx),%esi
    8a22:	85 f6                	test   %esi,%esi
    8a24:	74 05                	je     8a2b <nic_autoneg_probe+0x6b>
    8a26:	8b 55 dc             	mov    -0x24(%ebp),%edx
    8a29:	89 11                	mov    %edx,(%ecx)
    8a2b:	8b 55 14             	mov    0x14(%ebp),%edx
    8a2e:	85 d2                	test   %edx,%edx
    8a30:	74 08                	je     8a3a <nic_autoneg_probe+0x7a>
    8a32:	8b 4d 14             	mov    0x14(%ebp),%ecx
    8a35:	8b 55 e0             	mov    -0x20(%ebp),%edx
    8a38:	89 11                	mov    %edx,(%ecx)
    8a3a:	85 db                	test   %ebx,%ebx
    8a3c:	74 05                	je     8a43 <nic_autoneg_probe+0x83>
    8a3e:	8b 55 e4             	mov    -0x1c(%ebp),%edx
    8a41:	89 13                	mov    %edx,(%ebx)
    8a43:	8d 65 f4             	lea    -0xc(%ebp),%esp
    8a46:	5b                   	pop    %ebx
    8a47:	5e                   	pop    %esi
    8a48:	5f                   	pop    %edi
    8a49:	5d                   	pop    %ebp
    8a4a:	c3                   	ret    
    8a4b:	90                   	nop
    8a4c:	8d 74 26 00          	lea    0x0(%esi,%eiz,1),%esi

00008a50 <nic_autoneg_restart>:
    8a50:	55                   	push   %ebp
    8a51:	89 e5                	mov    %esp,%ebp
    8a53:	53                   	push   %ebx
    8a54:	83 ec 20             	sub    $0x20,%esp
    8a57:	8b 45 08             	mov    0x8(%ebp),%eax
    8a5a:	50                   	push   %eax
    8a5b:	e8 70 62 00 00       	call   ecd0 <async_exchange_begin@plt>
    8a60:	83 c4 0c             	add    $0xc,%esp
    8a63:	89 c3                	mov    %eax,%ebx
    8a65:	6a 00                	push   $0x0
    8a67:	6a 00                	push   $0x0
    8a69:	6a 00                	push   $0x0
    8a6b:	6a 00                	push   $0x0
    8a6d:	6a 00                	push   $0x0
    8a6f:	6a 00                	push   $0x0
    8a71:	6a 00                	push   $0x0
    8a73:	6a 00                	push   $0x0
    8a75:	6a 0e                	push   $0xe
    8a77:	68 05 04 00 00       	push   $0x405
    8a7c:	50                   	push   %eax
    8a7d:	e8 5e 5f 00 00       	call   e9e0 <async_req_fast@plt>
    8a82:	83 c4 24             	add    $0x24,%esp
    8a85:	89 45 f4             	mov    %eax,-0xc(%ebp)
    8a88:	53                   	push   %ebx
    8a89:	e8 f2 5f 00 00       	call   ea80 <async_exchange_end@plt>
    8a8e:	8b 45 f4             	mov    -0xc(%ebp),%eax
    8a91:	8b 5d fc             	mov    -0x4(%ebp),%ebx
    8a94:	c9                   	leave  
    8a95:	c3                   	ret    
    8a96:	8d 76 00             	lea    0x0(%esi),%esi
    8a99:	8d bc 27 00 00 00 00 	lea    0x0(%edi,%eiz,1),%edi

00008aa0 <nic_get_pause>:
    8aa0:	55                   	push   %ebp
    8aa1:	89 e5                	mov    %esp,%ebp
    8aa3:	57                   	push   %edi
    8aa4:	56                   	push   %esi
    8aa5:	53                   	push   %ebx
    8aa6:	83 ec 38             	sub    $0x38,%esp
    8aa9:	8b 4d 08             	mov    0x8(%ebp),%ecx
    8aac:	8b 7d 0c             	mov    0xc(%ebp),%edi
    8aaf:	51                   	push   %ecx
    8ab0:	8b 5d 14             	mov    0x14(%ebp),%ebx
    8ab3:	e8 18 62 00 00       	call   ecd0 <async_exchange_begin@plt>
    8ab8:	83 c4 0c             	add    $0xc,%esp
    8abb:	89 c6                	mov    %eax,%esi
    8abd:	8d 45 e4             	lea    -0x1c(%ebp),%eax
    8ac0:	6a 00                	push   $0x0
    8ac2:	6a 00                	push   $0x0
    8ac4:	50                   	push   %eax
    8ac5:	8d 45 e0             	lea    -0x20(%ebp),%eax
    8ac8:	50                   	push   %eax
    8ac9:	8d 45 dc             	lea    -0x24(%ebp),%eax
    8acc:	50                   	push   %eax
    8acd:	6a 00                	push   $0x0
    8acf:	6a 00                	push   $0x0
    8ad1:	6a 00                	push   $0x0
    8ad3:	6a 0f                	push   $0xf
    8ad5:	68 05 04 00 00       	push   $0x405
    8ada:	56                   	push   %esi
    8adb:	e8 00 5f 00 00       	call   e9e0 <async_req_fast@plt>
    8ae0:	83 c4 24             	add    $0x24,%esp
    8ae3:	89 45 d4             	mov    %eax,-0x2c(%ebp)
    8ae6:	56                   	push   %esi
    8ae7:	e8 94 5f 00 00       	call   ea80 <async_exchange_end@plt>
    8aec:	83 c4 10             	add    $0x10,%esp
    8aef:	8b 45 d4             	mov    -0x2c(%ebp),%eax
    8af2:	85 ff                	test   %edi,%edi
    8af4:	74 05                	je     8afb <nic_get_pause+0x5b>
    8af6:	8b 55 dc             	mov    -0x24(%ebp),%edx
    8af9:	89 17                	mov    %edx,(%edi)
    8afb:	8b 55 10             	mov    0x10(%ebp),%edx
    8afe:	85 d2                	test   %edx,%edx
    8b00:	74 08                	je     8b0a <nic_get_pause+0x6a>
    8b02:	8b 4d 10             	mov    0x10(%ebp),%ecx
    8b05:	8b 55 e0             	mov    -0x20(%ebp),%edx
    8b08:	89 11                	mov    %edx,(%ecx)
    8b0a:	85 db                	test   %ebx,%ebx
    8b0c:	74 06                	je     8b14 <nic_get_pause+0x74>
    8b0e:	8b 55 e4             	mov    -0x1c(%ebp),%edx
    8b11:	66 89 13             	mov    %dx,(%ebx)
    8b14:	8d 65 f4             	lea    -0xc(%ebp),%esp
    8b17:	5b                   	pop    %ebx
    8b18:	5e                   	pop    %esi
    8b19:	5f                   	pop    %edi
    8b1a:	5d                   	pop    %ebp
    8b1b:	c3                   	ret    
    8b1c:	8d 74 26 00          	lea    0x0(%esi,%eiz,1),%esi

00008b20 <nic_set_pause>:
    8b20:	55                   	push   %ebp
    8b21:	89 e5                	mov    %esp,%ebp
    8b23:	56                   	push   %esi
    8b24:	53                   	push   %ebx
    8b25:	83 ec 1c             	sub    $0x1c,%esp
    8b28:	8b 45 08             	mov    0x8(%ebp),%eax
    8b2b:	8b 5d 14             	mov    0x14(%ebp),%ebx
    8b2e:	50                   	push   %eax
    8b2f:	e8 9c 61 00 00       	call   ecd0 <async_exchange_begin@plt>
    8b34:	83 c4 0c             	add    $0xc,%esp
    8b37:	8b 55 10             	mov    0x10(%ebp),%edx
    8b3a:	8b 4d 0c             	mov    0xc(%ebp),%ecx
    8b3d:	81 e3 ff ff 00 00    	and    $0xffff,%ebx
    8b43:	6a 00                	push   $0x0
    8b45:	89 c6                	mov    %eax,%esi
    8b47:	6a 00                	push   $0x0
    8b49:	6a 00                	push   $0x0
    8b4b:	6a 00                	push   $0x0
    8b4d:	6a 00                	push   $0x0
    8b4f:	53                   	push   %ebx
    8b50:	52                   	push   %edx
    8b51:	51                   	push   %ecx
    8b52:	6a 10                	push   $0x10
    8b54:	68 05 04 00 00       	push   $0x405
    8b59:	50                   	push   %eax
    8b5a:	e8 81 5e 00 00       	call   e9e0 <async_req_fast@plt>
    8b5f:	83 c4 24             	add    $0x24,%esp
    8b62:	89 45 f4             	mov    %eax,-0xc(%ebp)
    8b65:	56                   	push   %esi
    8b66:	e8 15 5f 00 00       	call   ea80 <async_exchange_end@plt>
    8b6b:	8b 45 f4             	mov    -0xc(%ebp),%eax
    8b6e:	8d 65 f8             	lea    -0x8(%ebp),%esp
    8b71:	5b                   	pop    %ebx
    8b72:	5e                   	pop    %esi
    8b73:	5d                   	pop    %ebp
    8b74:	c3                   	ret    
    8b75:	8d 74 26 00          	lea    0x0(%esi,%eiz,1),%esi
    8b79:	8d bc 27 00 00 00 00 	lea    0x0(%edi,%eiz,1),%edi

00008b80 <nic_unicast_get_mode>:
    8b80:	55                   	push   %ebp
    8b81:	89 e5                	mov    %esp,%ebp
    8b83:	57                   	push   %edi
    8b84:	56                   	push   %esi
    8b85:	53                   	push   %ebx
    8b86:	83 ec 2c             	sub    $0x2c,%esp
    8b89:	8b 75 0c             	mov    0xc(%ebp),%esi
    8b8c:	8b 5d 10             	mov    0x10(%ebp),%ebx
    8b8f:	85 f6                	test   %esi,%esi
    8b91:	0f 84 a0 00 00 00    	je     8c37 <nic_unicast_get_mode+0xb7>
    8b97:	8b 45 14             	mov    0x14(%ebp),%eax
    8b9a:	85 c0                	test   %eax,%eax
    8b9c:	0f 84 8e 00 00 00    	je     8c30 <nic_unicast_get_mode+0xb0>
    8ba2:	83 ec 0c             	sub    $0xc,%esp
    8ba5:	8b 7d 08             	mov    0x8(%ebp),%edi
    8ba8:	57                   	push   %edi
    8ba9:	e8 22 61 00 00       	call   ecd0 <async_exchange_begin@plt>
    8bae:	83 c4 0c             	add    $0xc,%esp
    8bb1:	89 c7                	mov    %eax,%edi
    8bb3:	8d 45 e4             	lea    -0x1c(%ebp),%eax
    8bb6:	6a 00                	push   $0x0
    8bb8:	6a 00                	push   $0x0
    8bba:	6a 00                	push   $0x0
    8bbc:	50                   	push   %eax
    8bbd:	8d 45 e0             	lea    -0x20(%ebp),%eax
    8bc0:	50                   	push   %eax
    8bc1:	6a 00                	push   $0x0
    8bc3:	6a 00                	push   $0x0
    8bc5:	53                   	push   %ebx
    8bc6:	6a 11                	push   $0x11
    8bc8:	68 05 04 00 00       	push   $0x405
    8bcd:	57                   	push   %edi
    8bce:	e8 0d 5e 00 00       	call   e9e0 <async_req_fast@plt>
    8bd3:	83 c4 30             	add    $0x30,%esp
    8bd6:	85 c0                	test   %eax,%eax
    8bd8:	75 1f                	jne    8bf9 <nic_unicast_get_mode+0x79>
    8bda:	8b 4d e0             	mov    -0x20(%ebp),%ecx
    8bdd:	89 0e                	mov    %ecx,(%esi)
    8bdf:	8b 75 18             	mov    0x18(%ebp),%esi
    8be2:	85 f6                	test   %esi,%esi
    8be4:	74 08                	je     8bee <nic_unicast_get_mode+0x6e>
    8be6:	8b 55 18             	mov    0x18(%ebp),%edx
    8be9:	8b 4d e4             	mov    -0x1c(%ebp),%ecx
    8bec:	89 0a                	mov    %ecx,(%edx)
    8bee:	85 db                	test   %ebx,%ebx
    8bf0:	74 07                	je     8bf9 <nic_unicast_get_mode+0x79>
    8bf2:	8b 4d e4             	mov    -0x1c(%ebp),%ecx
    8bf5:	85 c9                	test   %ecx,%ecx
    8bf7:	75 1f                	jne    8c18 <nic_unicast_get_mode+0x98>
    8bf9:	83 ec 0c             	sub    $0xc,%esp
    8bfc:	89 45 d4             	mov    %eax,-0x2c(%ebp)
    8bff:	57                   	push   %edi
    8c00:	e8 7b 5e 00 00       	call   ea80 <async_exchange_end@plt>
    8c05:	8b 45 d4             	mov    -0x2c(%ebp),%eax
    8c08:	83 c4 10             	add    $0x10,%esp
    8c0b:	8d 65 f4             	lea    -0xc(%ebp),%esp
    8c0e:	5b                   	pop    %ebx
    8c0f:	5e                   	pop    %esi
    8c10:	5f                   	pop    %edi
    8c11:	5d                   	pop    %ebp
    8c12:	c3                   	ret    
    8c13:	90                   	nop
    8c14:	8d 74 26 00          	lea    0x0(%esi,%eiz,1),%esi
    8c18:	50                   	push   %eax
    8c19:	8d 04 5b             	lea    (%ebx,%ebx,2),%eax
    8c1c:	01 c0                	add    %eax,%eax
    8c1e:	8b 55 14             	mov    0x14(%ebp),%edx
    8c21:	50                   	push   %eax
    8c22:	52                   	push   %edx
    8c23:	57                   	push   %edi
    8c24:	e8 07 60 00 00       	call   ec30 <async_data_read_start@plt>
    8c29:	83 c4 10             	add    $0x10,%esp
    8c2c:	eb cb                	jmp    8bf9 <nic_unicast_get_mode+0x79>
    8c2e:	66 90                	xchg   %ax,%ax
    8c30:	31 db                	xor    %ebx,%ebx
    8c32:	e9 6b ff ff ff       	jmp    8ba2 <nic_unicast_get_mode+0x22>
    8c37:	50                   	push   %eax
    8c38:	68 3b 02 00 00       	push   $0x23b
    8c3d:	68 c4 e1 00 00       	push   $0xe1c4
    8c42:	68 69 e2 00 00       	push   $0xe269
    8c47:	e8 44 5e 00 00       	call   ea90 <assert_abort@plt>
    8c4c:	8d 74 26 00          	lea    0x0(%esi,%eiz,1),%esi

00008c50 <nic_unicast_set_mode>:
    8c50:	55                   	push   %ebp
    8c51:	89 e5                	mov    %esp,%ebp
    8c53:	57                   	push   %edi
    8c54:	56                   	push   %esi
    8c55:	53                   	push   %ebx
    8c56:	83 ec 2c             	sub    $0x2c,%esp
    8c59:	8b 75 10             	mov    0x10(%ebp),%esi
    8c5c:	8b 45 08             	mov    0x8(%ebp),%eax
    8c5f:	8b 5d 14             	mov    0x14(%ebp),%ebx
    8c62:	85 f6                	test   %esi,%esi
    8c64:	0f 84 96 00 00 00    	je     8d00 <nic_unicast_set_mode+0xb0>
    8c6a:	83 ec 0c             	sub    $0xc,%esp
    8c6d:	50                   	push   %eax
    8c6e:	e8 5d 60 00 00       	call   ecd0 <async_exchange_begin@plt>
    8c73:	83 c4 0c             	add    $0xc,%esp
    8c76:	8b 4d 0c             	mov    0xc(%ebp),%ecx
    8c79:	89 c7                	mov    %eax,%edi
    8c7b:	6a 00                	push   $0x0
    8c7d:	6a 00                	push   $0x0
    8c7f:	53                   	push   %ebx
    8c80:	51                   	push   %ecx
    8c81:	6a 12                	push   $0x12
    8c83:	68 05 04 00 00       	push   $0x405
    8c88:	50                   	push   %eax
    8c89:	e8 72 5d 00 00       	call   ea00 <async_send_fast@plt>
    8c8e:	83 c4 20             	add    $0x20,%esp
    8c91:	89 c6                	mov    %eax,%esi
    8c93:	85 db                	test   %ebx,%ebx
    8c95:	75 29                	jne    8cc0 <nic_unicast_set_mode+0x70>
    8c97:	83 ec 0c             	sub    $0xc,%esp
    8c9a:	57                   	push   %edi
    8c9b:	e8 e0 5d 00 00       	call   ea80 <async_exchange_end@plt>
    8ca0:	58                   	pop    %eax
    8ca1:	8d 45 e4             	lea    -0x1c(%ebp),%eax
    8ca4:	5a                   	pop    %edx
    8ca5:	50                   	push   %eax
    8ca6:	56                   	push   %esi
    8ca7:	e8 64 5c 00 00       	call   e910 <async_wait_for@plt>
    8cac:	83 c4 10             	add    $0x10,%esp
    8caf:	8b 45 e4             	mov    -0x1c(%ebp),%eax
    8cb2:	8d 65 f4             	lea    -0xc(%ebp),%esp
    8cb5:	5b                   	pop    %ebx
    8cb6:	5e                   	pop    %esi
    8cb7:	5f                   	pop    %edi
    8cb8:	5d                   	pop    %ebp
    8cb9:	c3                   	ret    
    8cba:	8d b6 00 00 00 00    	lea    0x0(%esi),%esi
    8cc0:	50                   	push   %eax
    8cc1:	8d 04 5b             	lea    (%ebx,%ebx,2),%eax
    8cc4:	01 c0                	add    %eax,%eax
    8cc6:	50                   	push   %eax
    8cc7:	8b 45 10             	mov    0x10(%ebp),%eax
    8cca:	50                   	push   %eax
    8ccb:	57                   	push   %edi
    8ccc:	e8 7f 5c 00 00       	call   e950 <async_data_write_start@plt>
    8cd1:	89 3c 24             	mov    %edi,(%esp)
    8cd4:	89 45 d4             	mov    %eax,-0x2c(%ebp)
    8cd7:	e8 a4 5d 00 00       	call   ea80 <async_exchange_end@plt>
    8cdc:	8d 4d e4             	lea    -0x1c(%ebp),%ecx
    8cdf:	58                   	pop    %eax
    8ce0:	5a                   	pop    %edx
    8ce1:	51                   	push   %ecx
    8ce2:	56                   	push   %esi
    8ce3:	e8 28 5c 00 00       	call   e910 <async_wait_for@plt>
    8ce8:	8b 45 d4             	mov    -0x2c(%ebp),%eax
    8ceb:	83 c4 10             	add    $0x10,%esp
    8cee:	85 c0                	test   %eax,%eax
    8cf0:	74 bd                	je     8caf <nic_unicast_set_mode+0x5f>
    8cf2:	8d 65 f4             	lea    -0xc(%ebp),%esp
    8cf5:	5b                   	pop    %ebx
    8cf6:	5e                   	pop    %esi
    8cf7:	5f                   	pop    %edi
    8cf8:	5d                   	pop    %ebp
    8cf9:	c3                   	ret    
    8cfa:	8d b6 00 00 00 00    	lea    0x0(%esi),%esi
    8d00:	83 ec 0c             	sub    $0xc,%esp
    8d03:	50                   	push   %eax
    8d04:	e8 c7 5f 00 00       	call   ecd0 <async_exchange_begin@plt>
    8d09:	83 c4 0c             	add    $0xc,%esp
    8d0c:	8b 4d 0c             	mov    0xc(%ebp),%ecx
    8d0f:	89 c3                	mov    %eax,%ebx
    8d11:	6a 00                	push   $0x0
    8d13:	6a 00                	push   $0x0
    8d15:	6a 00                	push   $0x0
    8d17:	51                   	push   %ecx
    8d18:	6a 12                	push   $0x12
    8d1a:	68 05 04 00 00       	push   $0x405
    8d1f:	50                   	push   %eax
    8d20:	e8 db 5c 00 00       	call   ea00 <async_send_fast@plt>
    8d25:	83 c4 14             	add    $0x14,%esp
    8d28:	89 c6                	mov    %eax,%esi
    8d2a:	53                   	push   %ebx
    8d2b:	e9 6b ff ff ff       	jmp    8c9b <nic_unicast_set_mode+0x4b>

00008d30 <nic_multicast_get_mode>:
    8d30:	55                   	push   %ebp
    8d31:	89 e5                	mov    %esp,%ebp
    8d33:	57                   	push   %edi
    8d34:	56                   	push   %esi
    8d35:	53                   	push   %ebx
    8d36:	83 ec 2c             	sub    $0x2c,%esp
    8d39:	8b 75 0c             	mov    0xc(%ebp),%esi
    8d3c:	8b 5d 10             	mov    0x10(%ebp),%ebx
    8d3f:	85 f6                	test   %esi,%esi
    8d41:	0f 84 a0 00 00 00    	je     8de7 <nic_multicast_get_mode+0xb7>
    8d47:	8b 45 14             	mov    0x14(%ebp),%eax
    8d4a:	85 c0                	test   %eax,%eax
    8d4c:	0f 84 8e 00 00 00    	je     8de0 <nic_multicast_get_mode+0xb0>
    8d52:	83 ec 0c             	sub    $0xc,%esp
    8d55:	8b 7d 08             	mov    0x8(%ebp),%edi
    8d58:	57                   	push   %edi
    8d59:	e8 72 5f 00 00       	call   ecd0 <async_exchange_begin@plt>
    8d5e:	83 c4 0c             	add    $0xc,%esp
    8d61:	89 c7                	mov    %eax,%edi
    8d63:	8d 45 e4             	lea    -0x1c(%ebp),%eax
    8d66:	6a 00                	push   $0x0
    8d68:	6a 00                	push   $0x0
    8d6a:	6a 00                	push   $0x0
    8d6c:	50                   	push   %eax
    8d6d:	8d 45 e0             	lea    -0x20(%ebp),%eax
    8d70:	50                   	push   %eax
    8d71:	6a 00                	push   $0x0
    8d73:	6a 00                	push   $0x0
    8d75:	53                   	push   %ebx
    8d76:	6a 13                	push   $0x13
    8d78:	68 05 04 00 00       	push   $0x405
    8d7d:	57                   	push   %edi
    8d7e:	e8 5d 5c 00 00       	call   e9e0 <async_req_fast@plt>
    8d83:	83 c4 30             	add    $0x30,%esp
    8d86:	85 c0                	test   %eax,%eax
    8d88:	75 1f                	jne    8da9 <nic_multicast_get_mode+0x79>
    8d8a:	8b 4d e0             	mov    -0x20(%ebp),%ecx
    8d8d:	89 0e                	mov    %ecx,(%esi)
    8d8f:	8b 75 18             	mov    0x18(%ebp),%esi
    8d92:	85 f6                	test   %esi,%esi
    8d94:	74 08                	je     8d9e <nic_multicast_get_mode+0x6e>
    8d96:	8b 55 18             	mov    0x18(%ebp),%edx
    8d99:	8b 4d e4             	mov    -0x1c(%ebp),%ecx
    8d9c:	89 0a                	mov    %ecx,(%edx)
    8d9e:	85 db                	test   %ebx,%ebx
    8da0:	74 07                	je     8da9 <nic_multicast_get_mode+0x79>
    8da2:	8b 4d e4             	mov    -0x1c(%ebp),%ecx
    8da5:	85 c9                	test   %ecx,%ecx
    8da7:	75 1f                	jne    8dc8 <nic_multicast_get_mode+0x98>
    8da9:	83 ec 0c             	sub    $0xc,%esp
    8dac:	89 45 d4             	mov    %eax,-0x2c(%ebp)
    8daf:	57                   	push   %edi
    8db0:	e8 cb 5c 00 00       	call   ea80 <async_exchange_end@plt>
    8db5:	8b 45 d4             	mov    -0x2c(%ebp),%eax
    8db8:	83 c4 10             	add    $0x10,%esp
    8dbb:	8d 65 f4             	lea    -0xc(%ebp),%esp
    8dbe:	5b                   	pop    %ebx
    8dbf:	5e                   	pop    %esi
    8dc0:	5f                   	pop    %edi
    8dc1:	5d                   	pop    %ebp
    8dc2:	c3                   	ret    
    8dc3:	90                   	nop
    8dc4:	8d 74 26 00          	lea    0x0(%esi,%eiz,1),%esi
    8dc8:	50                   	push   %eax
    8dc9:	8d 04 5b             	lea    (%ebx,%ebx,2),%eax
    8dcc:	01 c0                	add    %eax,%eax
    8dce:	8b 55 14             	mov    0x14(%ebp),%edx
    8dd1:	50                   	push   %eax
    8dd2:	52                   	push   %edx
    8dd3:	57                   	push   %edi
    8dd4:	e8 57 5e 00 00       	call   ec30 <async_data_read_start@plt>
    8dd9:	83 c4 10             	add    $0x10,%esp
    8ddc:	eb cb                	jmp    8da9 <nic_multicast_get_mode+0x79>
    8dde:	66 90                	xchg   %ax,%ax
    8de0:	31 db                	xor    %ebx,%ebx
    8de2:	e9 6b ff ff ff       	jmp    8d52 <nic_multicast_get_mode+0x22>
    8de7:	50                   	push   %eax
    8de8:	68 94 02 00 00       	push   $0x294
    8ded:	68 c4 e1 00 00       	push   $0xe1c4
    8df2:	68 69 e2 00 00       	push   $0xe269
    8df7:	e8 94 5c 00 00       	call   ea90 <assert_abort@plt>
    8dfc:	8d 74 26 00          	lea    0x0(%esi,%eiz,1),%esi

00008e00 <nic_multicast_set_mode>:
    8e00:	55                   	push   %ebp
    8e01:	89 e5                	mov    %esp,%ebp
    8e03:	57                   	push   %edi
    8e04:	56                   	push   %esi
    8e05:	53                   	push   %ebx
    8e06:	83 ec 2c             	sub    $0x2c,%esp
    8e09:	8b 75 10             	mov    0x10(%ebp),%esi
    8e0c:	8b 45 08             	mov    0x8(%ebp),%eax
    8e0f:	8b 5d 14             	mov    0x14(%ebp),%ebx
    8e12:	85 f6                	test   %esi,%esi
    8e14:	0f 84 96 00 00 00    	je     8eb0 <nic_multicast_set_mode+0xb0>
    8e1a:	83 ec 0c             	sub    $0xc,%esp
    8e1d:	50                   	push   %eax
    8e1e:	e8 ad 5e 00 00       	call   ecd0 <async_exchange_begin@plt>
    8e23:	83 c4 0c             	add    $0xc,%esp
    8e26:	8b 4d 0c             	mov    0xc(%ebp),%ecx
    8e29:	89 c7                	mov    %eax,%edi
    8e2b:	6a 00                	push   $0x0
    8e2d:	6a 00                	push   $0x0
    8e2f:	53                   	push   %ebx
    8e30:	51                   	push   %ecx
    8e31:	6a 14                	push   $0x14
    8e33:	68 05 04 00 00       	push   $0x405
    8e38:	50                   	push   %eax
    8e39:	e8 c2 5b 00 00       	call   ea00 <async_send_fast@plt>
    8e3e:	83 c4 20             	add    $0x20,%esp
    8e41:	89 c6                	mov    %eax,%esi
    8e43:	85 db                	test   %ebx,%ebx
    8e45:	75 29                	jne    8e70 <nic_multicast_set_mode+0x70>
    8e47:	83 ec 0c             	sub    $0xc,%esp
    8e4a:	57                   	push   %edi
    8e4b:	e8 30 5c 00 00       	call   ea80 <async_exchange_end@plt>
    8e50:	58                   	pop    %eax
    8e51:	8d 45 e4             	lea    -0x1c(%ebp),%eax
    8e54:	5a                   	pop    %edx
    8e55:	50                   	push   %eax
    8e56:	56                   	push   %esi
    8e57:	e8 b4 5a 00 00       	call   e910 <async_wait_for@plt>
    8e5c:	83 c4 10             	add    $0x10,%esp
    8e5f:	8b 45 e4             	mov    -0x1c(%ebp),%eax
    8e62:	8d 65 f4             	lea    -0xc(%ebp),%esp
    8e65:	5b                   	pop    %ebx
    8e66:	5e                   	pop    %esi
    8e67:	5f                   	pop    %edi
    8e68:	5d                   	pop    %ebp
    8e69:	c3                   	ret    
    8e6a:	8d b6 00 00 00 00    	lea    0x0(%esi),%esi
    8e70:	50                   	push   %eax
    8e71:	8d 04 5b             	lea    (%ebx,%ebx,2),%eax
    8e74:	01 c0                	add    %eax,%eax
    8e76:	50                   	push   %eax
    8e77:	8b 45 10             	mov    0x10(%ebp),%eax
    8e7a:	50                   	push   %eax
    8e7b:	57                   	push   %edi
    8e7c:	e8 cf 5a 00 00       	call   e950 <async_data_write_start@plt>
    8e81:	89 3c 24             	mov    %edi,(%esp)
    8e84:	89 45 d4             	mov    %eax,-0x2c(%ebp)
    8e87:	e8 f4 5b 00 00       	call   ea80 <async_exchange_end@plt>
    8e8c:	8d 4d e4             	lea    -0x1c(%ebp),%ecx
    8e8f:	58                   	pop    %eax
    8e90:	5a                   	pop    %edx
    8e91:	51                   	push   %ecx
    8e92:	56                   	push   %esi
    8e93:	e8 78 5a 00 00       	call   e910 <async_wait_for@plt>
    8e98:	8b 45 d4             	mov    -0x2c(%ebp),%eax
    8e9b:	83 c4 10             	add    $0x10,%esp
    8e9e:	85 c0                	test   %eax,%eax
    8ea0:	74 bd                	je     8e5f <nic_multicast_set_mode+0x5f>
    8ea2:	8d 65 f4             	lea    -0xc(%ebp),%esp
    8ea5:	5b                   	pop    %ebx
    8ea6:	5e                   	pop    %esi
    8ea7:	5f                   	pop    %edi
    8ea8:	5d                   	pop    %ebp
    8ea9:	c3                   	ret    
    8eaa:	8d b6 00 00 00 00    	lea    0x0(%esi),%esi
    8eb0:	83 ec 0c             	sub    $0xc,%esp
    8eb3:	50                   	push   %eax
    8eb4:	e8 17 5e 00 00       	call   ecd0 <async_exchange_begin@plt>
    8eb9:	83 c4 0c             	add    $0xc,%esp
    8ebc:	8b 4d 0c             	mov    0xc(%ebp),%ecx
    8ebf:	89 c3                	mov    %eax,%ebx
    8ec1:	6a 00                	push   $0x0
    8ec3:	6a 00                	push   $0x0
    8ec5:	6a 00                	push   $0x0
    8ec7:	51                   	push   %ecx
    8ec8:	6a 14                	push   $0x14
    8eca:	68 05 04 00 00       	push   $0x405
    8ecf:	50                   	push   %eax
    8ed0:	e8 2b 5b 00 00       	call   ea00 <async_send_fast@plt>
    8ed5:	83 c4 14             	add    $0x14,%esp
    8ed8:	89 c6                	mov    %eax,%esi
    8eda:	53                   	push   %ebx
    8edb:	e9 6b ff ff ff       	jmp    8e4b <nic_multicast_set_mode+0x4b>

00008ee0 <nic_broadcast_get_mode>:
    8ee0:	55                   	push   %ebp
    8ee1:	89 e5                	mov    %esp,%ebp
    8ee3:	56                   	push   %esi
    8ee4:	53                   	push   %ebx
    8ee5:	83 ec 20             	sub    $0x20,%esp
    8ee8:	8b 5d 0c             	mov    0xc(%ebp),%ebx
    8eeb:	85 db                	test   %ebx,%ebx
    8eed:	74 4b                	je     8f3a <nic_broadcast_get_mode+0x5a>
    8eef:	83 ec 0c             	sub    $0xc,%esp
    8ef2:	8b 45 08             	mov    0x8(%ebp),%eax
    8ef5:	50                   	push   %eax
    8ef6:	e8 d5 5d 00 00       	call   ecd0 <async_exchange_begin@plt>
    8efb:	83 c4 0c             	add    $0xc,%esp
    8efe:	89 c6                	mov    %eax,%esi
    8f00:	8d 45 f4             	lea    -0xc(%ebp),%eax
    8f03:	6a 00                	push   $0x0
    8f05:	6a 00                	push   $0x0
    8f07:	6a 00                	push   $0x0
    8f09:	6a 00                	push   $0x0
    8f0b:	50                   	push   %eax
    8f0c:	6a 00                	push   $0x0
    8f0e:	6a 00                	push   $0x0
    8f10:	6a 00                	push   $0x0
    8f12:	6a 15                	push   $0x15
    8f14:	68 05 04 00 00       	push   $0x405
    8f19:	56                   	push   %esi
    8f1a:	e8 c1 5a 00 00       	call   e9e0 <async_req_fast@plt>
    8f1f:	83 c4 24             	add    $0x24,%esp
    8f22:	89 45 e4             	mov    %eax,-0x1c(%ebp)
    8f25:	56                   	push   %esi
    8f26:	e8 55 5b 00 00       	call   ea80 <async_exchange_end@plt>
    8f2b:	8b 55 f4             	mov    -0xc(%ebp),%edx
    8f2e:	8b 45 e4             	mov    -0x1c(%ebp),%eax
    8f31:	89 13                	mov    %edx,(%ebx)
    8f33:	8d 65 f8             	lea    -0x8(%ebp),%esp
    8f36:	5b                   	pop    %ebx
    8f37:	5e                   	pop    %esi
    8f38:	5d                   	pop    %ebp
    8f39:	c3                   	ret    
    8f3a:	52                   	push   %edx
    8f3b:	68 e2 02 00 00       	push   $0x2e2
    8f40:	68 c4 e1 00 00       	push   $0xe1c4
    8f45:	68 69 e2 00 00       	push   $0xe269
    8f4a:	e8 41 5b 00 00       	call   ea90 <assert_abort@plt>
    8f4f:	90                   	nop

00008f50 <nic_broadcast_set_mode>:
    8f50:	55                   	push   %ebp
    8f51:	89 e5                	mov    %esp,%ebp
    8f53:	53                   	push   %ebx
    8f54:	83 ec 20             	sub    $0x20,%esp
    8f57:	8b 45 08             	mov    0x8(%ebp),%eax
    8f5a:	50                   	push   %eax
    8f5b:	e8 70 5d 00 00       	call   ecd0 <async_exchange_begin@plt>
    8f60:	83 c4 0c             	add    $0xc,%esp
    8f63:	8b 55 0c             	mov    0xc(%ebp),%edx
    8f66:	89 c3                	mov    %eax,%ebx
    8f68:	6a 00                	push   $0x0
    8f6a:	6a 00                	push   $0x0
    8f6c:	6a 00                	push   $0x0
    8f6e:	6a 00                	push   $0x0
    8f70:	6a 00                	push   $0x0
    8f72:	6a 00                	push   $0x0
    8f74:	6a 00                	push   $0x0
    8f76:	52                   	push   %edx
    8f77:	6a 16                	push   $0x16
    8f79:	68 05 04 00 00       	push   $0x405
    8f7e:	50                   	push   %eax
    8f7f:	e8 5c 5a 00 00       	call   e9e0 <async_req_fast@plt>
    8f84:	83 c4 24             	add    $0x24,%esp
    8f87:	89 45 f4             	mov    %eax,-0xc(%ebp)
    8f8a:	53                   	push   %ebx
    8f8b:	e8 f0 5a 00 00       	call   ea80 <async_exchange_end@plt>
    8f90:	8b 45 f4             	mov    -0xc(%ebp),%eax
    8f93:	8b 5d fc             	mov    -0x4(%ebp),%ebx
    8f96:	c9                   	leave  
    8f97:	c3                   	ret    
    8f98:	90                   	nop
    8f99:	8d b4 26 00 00 00 00 	lea    0x0(%esi,%eiz,1),%esi

00008fa0 <nic_defective_get_mode>:
    8fa0:	55                   	push   %ebp
    8fa1:	89 e5                	mov    %esp,%ebp
    8fa3:	56                   	push   %esi
    8fa4:	53                   	push   %ebx
    8fa5:	83 ec 20             	sub    $0x20,%esp
    8fa8:	8b 5d 0c             	mov    0xc(%ebp),%ebx
    8fab:	85 db                	test   %ebx,%ebx
    8fad:	74 4b                	je     8ffa <nic_defective_get_mode+0x5a>
    8faf:	83 ec 0c             	sub    $0xc,%esp
    8fb2:	8b 45 08             	mov    0x8(%ebp),%eax
    8fb5:	50                   	push   %eax
    8fb6:	e8 15 5d 00 00       	call   ecd0 <async_exchange_begin@plt>
    8fbb:	83 c4 0c             	add    $0xc,%esp
    8fbe:	89 c6                	mov    %eax,%esi
    8fc0:	8d 45 f4             	lea    -0xc(%ebp),%eax
    8fc3:	6a 00                	push   $0x0
    8fc5:	6a 00                	push   $0x0
    8fc7:	6a 00                	push   $0x0
    8fc9:	6a 00                	push   $0x0
    8fcb:	50                   	push   %eax
    8fcc:	6a 00                	push   $0x0
    8fce:	6a 00                	push   $0x0
    8fd0:	6a 00                	push   $0x0
    8fd2:	6a 17                	push   $0x17
    8fd4:	68 05 04 00 00       	push   $0x405
    8fd9:	56                   	push   %esi
    8fda:	e8 01 5a 00 00       	call   e9e0 <async_req_fast@plt>
    8fdf:	83 c4 24             	add    $0x24,%esp
    8fe2:	89 45 e4             	mov    %eax,-0x1c(%ebp)
    8fe5:	56                   	push   %esi
    8fe6:	e8 95 5a 00 00       	call   ea80 <async_exchange_end@plt>
    8feb:	8b 55 f4             	mov    -0xc(%ebp),%edx
    8fee:	8b 45 e4             	mov    -0x1c(%ebp),%eax
    8ff1:	89 13                	mov    %edx,(%ebx)
    8ff3:	8d 65 f8             	lea    -0x8(%ebp),%esp
    8ff6:	5b                   	pop    %ebx
    8ff7:	5e                   	pop    %esi
    8ff8:	5d                   	pop    %ebp
    8ff9:	c3                   	ret    
    8ffa:	52                   	push   %edx
    8ffb:	68 0c 03 00 00       	push   $0x30c
    9000:	68 c4 e1 00 00       	push   $0xe1c4
    9005:	68 69 e2 00 00       	push   $0xe269
    900a:	e8 81 5a 00 00       	call   ea90 <assert_abort@plt>
    900f:	90                   	nop

00009010 <nic_defective_set_mode>:
    9010:	55                   	push   %ebp
    9011:	89 e5                	mov    %esp,%ebp
    9013:	53                   	push   %ebx
    9014:	83 ec 20             	sub    $0x20,%esp
    9017:	8b 45 08             	mov    0x8(%ebp),%eax
    901a:	50                   	push   %eax
    901b:	e8 b0 5c 00 00       	call   ecd0 <async_exchange_begin@plt>
    9020:	83 c4 0c             	add    $0xc,%esp
    9023:	8b 55 0c             	mov    0xc(%ebp),%edx
    9026:	89 c3                	mov    %eax,%ebx
    9028:	6a 00                	push   $0x0
    902a:	6a 00                	push   $0x0
    902c:	6a 00                	push   $0x0
    902e:	6a 00                	push   $0x0
    9030:	6a 00                	push   $0x0
    9032:	6a 00                	push   $0x0
    9034:	6a 00                	push   $0x0
    9036:	52                   	push   %edx
    9037:	6a 18                	push   $0x18
    9039:	68 05 04 00 00       	push   $0x405
    903e:	50                   	push   %eax
    903f:	e8 9c 59 00 00       	call   e9e0 <async_req_fast@plt>
    9044:	83 c4 24             	add    $0x24,%esp
    9047:	89 45 f4             	mov    %eax,-0xc(%ebp)
    904a:	53                   	push   %ebx
    904b:	e8 30 5a 00 00       	call   ea80 <async_exchange_end@plt>
    9050:	8b 45 f4             	mov    -0xc(%ebp),%eax
    9053:	8b 5d fc             	mov    -0x4(%ebp),%ebx
    9056:	c9                   	leave  
    9057:	c3                   	ret    
    9058:	90                   	nop
    9059:	8d b4 26 00 00 00 00 	lea    0x0(%esi,%eiz,1),%esi

00009060 <nic_blocked_sources_get>:
    9060:	55                   	push   %ebp
    9061:	89 e5                	mov    %esp,%ebp
    9063:	57                   	push   %edi
    9064:	56                   	push   %esi
    9065:	53                   	push   %ebx
    9066:	83 ec 2c             	sub    $0x2c,%esp
    9069:	8b 45 10             	mov    0x10(%ebp),%eax
    906c:	8b 5d 0c             	mov    0xc(%ebp),%ebx
    906f:	8b 75 14             	mov    0x14(%ebp),%esi
    9072:	85 c0                	test   %eax,%eax
    9074:	0f 84 7e 00 00 00    	je     90f8 <nic_blocked_sources_get+0x98>
    907a:	83 ec 0c             	sub    $0xc,%esp
    907d:	8b 7d 08             	mov    0x8(%ebp),%edi
    9080:	57                   	push   %edi
    9081:	e8 4a 5c 00 00       	call   ecd0 <async_exchange_begin@plt>
    9086:	83 c4 0c             	add    $0xc,%esp
    9089:	89 c7                	mov    %eax,%edi
    908b:	8d 45 e4             	lea    -0x1c(%ebp),%eax
    908e:	6a 00                	push   $0x0
    9090:	6a 00                	push   $0x0
    9092:	6a 00                	push   $0x0
    9094:	6a 00                	push   $0x0
    9096:	50                   	push   %eax
    9097:	6a 00                	push   $0x0
    9099:	6a 00                	push   $0x0
    909b:	53                   	push   %ebx
    909c:	6a 19                	push   $0x19
    909e:	68 05 04 00 00       	push   $0x405
    90a3:	57                   	push   %edi
    90a4:	e8 37 59 00 00       	call   e9e0 <async_req_fast@plt>
    90a9:	83 c4 30             	add    $0x30,%esp
    90ac:	85 c0                	test   %eax,%eax
    90ae:	75 14                	jne    90c4 <nic_blocked_sources_get+0x64>
    90b0:	85 f6                	test   %esi,%esi
    90b2:	74 05                	je     90b9 <nic_blocked_sources_get+0x59>
    90b4:	8b 4d e4             	mov    -0x1c(%ebp),%ecx
    90b7:	89 0e                	mov    %ecx,(%esi)
    90b9:	85 db                	test   %ebx,%ebx
    90bb:	74 07                	je     90c4 <nic_blocked_sources_get+0x64>
    90bd:	8b 4d e4             	mov    -0x1c(%ebp),%ecx
    90c0:	85 c9                	test   %ecx,%ecx
    90c2:	75 1c                	jne    90e0 <nic_blocked_sources_get+0x80>
    90c4:	83 ec 0c             	sub    $0xc,%esp
    90c7:	89 45 d4             	mov    %eax,-0x2c(%ebp)
    90ca:	57                   	push   %edi
    90cb:	e8 b0 59 00 00       	call   ea80 <async_exchange_end@plt>
    90d0:	8b 45 d4             	mov    -0x2c(%ebp),%eax
    90d3:	83 c4 10             	add    $0x10,%esp
    90d6:	8d 65 f4             	lea    -0xc(%ebp),%esp
    90d9:	5b                   	pop    %ebx
    90da:	5e                   	pop    %esi
    90db:	5f                   	pop    %edi
    90dc:	5d                   	pop    %ebp
    90dd:	c3                   	ret    
    90de:	66 90                	xchg   %ax,%ax
    90e0:	50                   	push   %eax
    90e1:	8d 04 5b             	lea    (%ebx,%ebx,2),%eax
    90e4:	01 c0                	add    %eax,%eax
    90e6:	8b 55 10             	mov    0x10(%ebp),%edx
    90e9:	50                   	push   %eax
    90ea:	52                   	push   %edx
    90eb:	57                   	push   %edi
    90ec:	e8 3f 5b 00 00       	call   ec30 <async_data_read_start@plt>
    90f1:	83 c4 10             	add    $0x10,%esp
    90f4:	eb ce                	jmp    90c4 <nic_blocked_sources_get+0x64>
    90f6:	66 90                	xchg   %ax,%ax
    90f8:	31 db                	xor    %ebx,%ebx
    90fa:	e9 7b ff ff ff       	jmp    907a <nic_blocked_sources_get+0x1a>
    90ff:	90                   	nop

00009100 <nic_blocked_sources_set>:
    9100:	55                   	push   %ebp
    9101:	89 e5                	mov    %esp,%ebp
    9103:	57                   	push   %edi
    9104:	56                   	push   %esi
    9105:	53                   	push   %ebx
    9106:	83 ec 2c             	sub    $0x2c,%esp
    9109:	8b 4d 0c             	mov    0xc(%ebp),%ecx
    910c:	8b 45 08             	mov    0x8(%ebp),%eax
    910f:	8b 5d 10             	mov    0x10(%ebp),%ebx
    9112:	85 c9                	test   %ecx,%ecx
    9114:	0f 84 8e 00 00 00    	je     91a8 <nic_blocked_sources_set+0xa8>
    911a:	83 ec 0c             	sub    $0xc,%esp
    911d:	50                   	push   %eax
    911e:	e8 ad 5b 00 00       	call   ecd0 <async_exchange_begin@plt>
    9123:	83 c4 0c             	add    $0xc,%esp
    9126:	89 c6                	mov    %eax,%esi
    9128:	6a 00                	push   $0x0
    912a:	6a 00                	push   $0x0
    912c:	6a 00                	push   $0x0
    912e:	53                   	push   %ebx
    912f:	6a 1a                	push   $0x1a
    9131:	68 05 04 00 00       	push   $0x405
    9136:	50                   	push   %eax
    9137:	e8 c4 58 00 00       	call   ea00 <async_send_fast@plt>
    913c:	83 c4 20             	add    $0x20,%esp
    913f:	89 c7                	mov    %eax,%edi
    9141:	85 db                	test   %ebx,%ebx
    9143:	75 23                	jne    9168 <nic_blocked_sources_set+0x68>
    9145:	83 ec 0c             	sub    $0xc,%esp
    9148:	56                   	push   %esi
    9149:	e8 32 59 00 00       	call   ea80 <async_exchange_end@plt>
    914e:	58                   	pop    %eax
    914f:	8d 45 e4             	lea    -0x1c(%ebp),%eax
    9152:	5a                   	pop    %edx
    9153:	50                   	push   %eax
    9154:	57                   	push   %edi
    9155:	e8 b6 57 00 00       	call   e910 <async_wait_for@plt>
    915a:	83 c4 10             	add    $0x10,%esp
    915d:	8b 45 e4             	mov    -0x1c(%ebp),%eax
    9160:	8d 65 f4             	lea    -0xc(%ebp),%esp
    9163:	5b                   	pop    %ebx
    9164:	5e                   	pop    %esi
    9165:	5f                   	pop    %edi
    9166:	5d                   	pop    %ebp
    9167:	c3                   	ret    
    9168:	50                   	push   %eax
    9169:	8d 04 5b             	lea    (%ebx,%ebx,2),%eax
    916c:	01 c0                	add    %eax,%eax
    916e:	50                   	push   %eax
    916f:	8b 45 0c             	mov    0xc(%ebp),%eax
    9172:	50                   	push   %eax
    9173:	56                   	push   %esi
    9174:	e8 d7 57 00 00       	call   e950 <async_data_write_start@plt>
    9179:	89 34 24             	mov    %esi,(%esp)
    917c:	89 45 d4             	mov    %eax,-0x2c(%ebp)
    917f:	e8 fc 58 00 00       	call   ea80 <async_exchange_end@plt>
    9184:	8d 4d e4             	lea    -0x1c(%ebp),%ecx
    9187:	58                   	pop    %eax
    9188:	5a                   	pop    %edx
    9189:	51                   	push   %ecx
    918a:	57                   	push   %edi
    918b:	e8 80 57 00 00       	call   e910 <async_wait_for@plt>
    9190:	8b 45 d4             	mov    -0x2c(%ebp),%eax
    9193:	83 c4 10             	add    $0x10,%esp
    9196:	85 c0                	test   %eax,%eax
    9198:	74 c3                	je     915d <nic_blocked_sources_set+0x5d>
    919a:	8d 65 f4             	lea    -0xc(%ebp),%esp
    919d:	5b                   	pop    %ebx
    919e:	5e                   	pop    %esi
    919f:	5f                   	pop    %edi
    91a0:	5d                   	pop    %ebp
    91a1:	c3                   	ret    
    91a2:	8d b6 00 00 00 00    	lea    0x0(%esi),%esi
    91a8:	83 ec 0c             	sub    $0xc,%esp
    91ab:	50                   	push   %eax
    91ac:	e8 1f 5b 00 00       	call   ecd0 <async_exchange_begin@plt>
    91b1:	83 c4 0c             	add    $0xc,%esp
    91b4:	89 c3                	mov    %eax,%ebx
    91b6:	6a 00                	push   $0x0
    91b8:	6a 00                	push   $0x0
    91ba:	6a 00                	push   $0x0
    91bc:	6a 00                	push   $0x0
    91be:	6a 1a                	push   $0x1a
    91c0:	68 05 04 00 00       	push   $0x405
    91c5:	50                   	push   %eax
    91c6:	e8 35 58 00 00       	call   ea00 <async_send_fast@plt>
    91cb:	83 c4 14             	add    $0x14,%esp
    91ce:	89 c6                	mov    %eax,%esi
    91d0:	53                   	push   %ebx
    91d1:	e8 aa 58 00 00       	call   ea80 <async_exchange_end@plt>
    91d6:	8d 45 e4             	lea    -0x1c(%ebp),%eax
    91d9:	59                   	pop    %ecx
    91da:	5b                   	pop    %ebx
    91db:	50                   	push   %eax
    91dc:	56                   	push   %esi
    91dd:	e8 2e 57 00 00       	call   e910 <async_wait_for@plt>
    91e2:	83 c4 10             	add    $0x10,%esp
    91e5:	e9 73 ff ff ff       	jmp    915d <nic_blocked_sources_set+0x5d>
    91ea:	8d b6 00 00 00 00    	lea    0x0(%esi),%esi

000091f0 <nic_vlan_get_mask>:
    91f0:	55                   	push   %ebp
    91f1:	89 e5                	mov    %esp,%ebp
    91f3:	56                   	push   %esi
    91f4:	53                   	push   %ebx
    91f5:	83 ec 10             	sub    $0x10,%esp
    91f8:	8b 75 0c             	mov    0xc(%ebp),%esi
    91fb:	85 f6                	test   %esi,%esi
    91fd:	74 7a                	je     9279 <nic_vlan_get_mask+0x89>
    91ff:	83 ec 0c             	sub    $0xc,%esp
    9202:	8b 55 08             	mov    0x8(%ebp),%edx
    9205:	52                   	push   %edx
    9206:	e8 c5 5a 00 00       	call   ecd0 <async_exchange_begin@plt>
    920b:	83 c4 0c             	add    $0xc,%esp
    920e:	89 c3                	mov    %eax,%ebx
    9210:	6a 00                	push   $0x0
    9212:	6a 00                	push   $0x0
    9214:	6a 00                	push   $0x0
    9216:	6a 00                	push   $0x0
    9218:	6a 00                	push   $0x0
    921a:	6a 00                	push   $0x0
    921c:	6a 00                	push   $0x0
    921e:	6a 00                	push   $0x0
    9220:	6a 1b                	push   $0x1b
    9222:	68 05 04 00 00       	push   $0x405
    9227:	50                   	push   %eax
    9228:	e8 b3 57 00 00       	call   e9e0 <async_req_fast@plt>
    922d:	83 c4 30             	add    $0x30,%esp
    9230:	85 c0                	test   %eax,%eax
    9232:	75 2c                	jne    9260 <nic_vlan_get_mask+0x70>
    9234:	50                   	push   %eax
    9235:	68 00 02 00 00       	push   $0x200
    923a:	56                   	push   %esi
    923b:	53                   	push   %ebx
    923c:	e8 ef 59 00 00       	call   ec30 <async_data_read_start@plt>
    9241:	89 1c 24             	mov    %ebx,(%esp)
    9244:	89 45 f4             	mov    %eax,-0xc(%ebp)
    9247:	e8 34 58 00 00       	call   ea80 <async_exchange_end@plt>
    924c:	8b 45 f4             	mov    -0xc(%ebp),%eax
    924f:	83 c4 10             	add    $0x10,%esp
    9252:	8d 65 f8             	lea    -0x8(%ebp),%esp
    9255:	5b                   	pop    %ebx
    9256:	5e                   	pop    %esi
    9257:	5d                   	pop    %ebp
    9258:	c3                   	ret    
    9259:	8d b4 26 00 00 00 00 	lea    0x0(%esi,%eiz,1),%esi
    9260:	83 ec 0c             	sub    $0xc,%esp
    9263:	89 45 f4             	mov    %eax,-0xc(%ebp)
    9266:	53                   	push   %ebx
    9267:	e8 14 58 00 00       	call   ea80 <async_exchange_end@plt>
    926c:	8b 45 f4             	mov    -0xc(%ebp),%eax
    926f:	83 c4 10             	add    $0x10,%esp
    9272:	8d 65 f8             	lea    -0x8(%ebp),%esp
    9275:	5b                   	pop    %ebx
    9276:	5e                   	pop    %esi
    9277:	5d                   	pop    %ebp
    9278:	c3                   	ret    
    9279:	51                   	push   %ecx
    927a:	68 83 03 00 00       	push   $0x383
    927f:	68 c4 e1 00 00       	push   $0xe1c4
    9284:	68 6e e2 00 00       	push   $0xe26e
    9289:	e8 02 58 00 00       	call   ea90 <assert_abort@plt>
    928e:	66 90                	xchg   %ax,%ax

00009290 <nic_vlan_set_mask>:
    9290:	55                   	push   %ebp
    9291:	89 e5                	mov    %esp,%ebp
    9293:	57                   	push   %edi
    9294:	56                   	push   %esi
    9295:	53                   	push   %ebx
    9296:	83 ec 38             	sub    $0x38,%esp
    9299:	8b 7d 08             	mov    0x8(%ebp),%edi
    929c:	8b 5d 0c             	mov    0xc(%ebp),%ebx
    929f:	57                   	push   %edi
    92a0:	e8 2b 5a 00 00       	call   ecd0 <async_exchange_begin@plt>
    92a5:	83 c4 0c             	add    $0xc,%esp
    92a8:	89 c6                	mov    %eax,%esi
    92aa:	31 c0                	xor    %eax,%eax
    92ac:	85 db                	test   %ebx,%ebx
    92ae:	0f 95 c0             	setne  %al
    92b1:	6a 00                	push   $0x0
    92b3:	6a 00                	push   $0x0
    92b5:	6a 00                	push   $0x0
    92b7:	50                   	push   %eax
    92b8:	6a 1c                	push   $0x1c
    92ba:	68 05 04 00 00       	push   $0x405
    92bf:	56                   	push   %esi
    92c0:	e8 3b 57 00 00       	call   ea00 <async_send_fast@plt>
    92c5:	83 c4 20             	add    $0x20,%esp
    92c8:	89 c7                	mov    %eax,%edi
    92ca:	85 db                	test   %ebx,%ebx
    92cc:	74 3a                	je     9308 <nic_vlan_set_mask+0x78>
    92ce:	51                   	push   %ecx
    92cf:	68 00 02 00 00       	push   $0x200
    92d4:	53                   	push   %ebx
    92d5:	56                   	push   %esi
    92d6:	e8 75 56 00 00       	call   e950 <async_data_write_start@plt>
    92db:	89 34 24             	mov    %esi,(%esp)
    92de:	89 45 d4             	mov    %eax,-0x2c(%ebp)
    92e1:	e8 9a 57 00 00       	call   ea80 <async_exchange_end@plt>
    92e6:	8d 55 e4             	lea    -0x1c(%ebp),%edx
    92e9:	5b                   	pop    %ebx
    92ea:	5e                   	pop    %esi
    92eb:	52                   	push   %edx
    92ec:	57                   	push   %edi
    92ed:	e8 1e 56 00 00       	call   e910 <async_wait_for@plt>
    92f2:	8b 45 d4             	mov    -0x2c(%ebp),%eax
    92f5:	83 c4 10             	add    $0x10,%esp
    92f8:	85 c0                	test   %eax,%eax
    92fa:	74 24                	je     9320 <nic_vlan_set_mask+0x90>
    92fc:	8d 65 f4             	lea    -0xc(%ebp),%esp
    92ff:	5b                   	pop    %ebx
    9300:	5e                   	pop    %esi
    9301:	5f                   	pop    %edi
    9302:	5d                   	pop    %ebp
    9303:	c3                   	ret    
    9304:	8d 74 26 00          	lea    0x0(%esi,%eiz,1),%esi
    9308:	83 ec 0c             	sub    $0xc,%esp
    930b:	56                   	push   %esi
    930c:	e8 6f 57 00 00       	call   ea80 <async_exchange_end@plt>
    9311:	58                   	pop    %eax
    9312:	8d 45 e4             	lea    -0x1c(%ebp),%eax
    9315:	5a                   	pop    %edx
    9316:	50                   	push   %eax
    9317:	57                   	push   %edi
    9318:	e8 f3 55 00 00       	call   e910 <async_wait_for@plt>
    931d:	83 c4 10             	add    $0x10,%esp
    9320:	8b 45 e4             	mov    -0x1c(%ebp),%eax
    9323:	8d 65 f4             	lea    -0xc(%ebp),%esp
    9326:	5b                   	pop    %ebx
    9327:	5e                   	pop    %esi
    9328:	5f                   	pop    %edi
    9329:	5d                   	pop    %ebp
    932a:	c3                   	ret    
    932b:	90                   	nop
    932c:	8d 74 26 00          	lea    0x0(%esi,%eiz,1),%esi

00009330 <nic_vlan_set_tag>:
    9330:	55                   	push   %ebp
    9331:	89 e5                	mov    %esp,%ebp
    9333:	57                   	push   %edi
    9334:	56                   	push   %esi
    9335:	53                   	push   %ebx
    9336:	83 ec 28             	sub    $0x28,%esp
    9339:	8b 55 14             	mov    0x14(%ebp),%edx
    933c:	8b 45 08             	mov    0x8(%ebp),%eax
    933f:	8b 5d 0c             	mov    0xc(%ebp),%ebx
    9342:	8b 75 10             	mov    0x10(%ebp),%esi
    9345:	89 55 e4             	mov    %edx,-0x1c(%ebp)
    9348:	50                   	push   %eax
    9349:	e8 82 59 00 00       	call   ecd0 <async_exchange_begin@plt>
    934e:	83 c4 0c             	add    $0xc,%esp
    9351:	8b 55 e4             	mov    -0x1c(%ebp),%edx
    9354:	81 e6 ff 00 00 00    	and    $0xff,%esi
    935a:	81 e2 ff 00 00 00    	and    $0xff,%edx
    9360:	81 e3 ff ff 00 00    	and    $0xffff,%ebx
    9366:	6a 00                	push   $0x0
    9368:	89 c7                	mov    %eax,%edi
    936a:	6a 00                	push   $0x0
    936c:	6a 00                	push   $0x0
    936e:	6a 00                	push   $0x0
    9370:	6a 00                	push   $0x0
    9372:	52                   	push   %edx
    9373:	56                   	push   %esi
    9374:	53                   	push   %ebx
    9375:	6a 1d                	push   $0x1d
    9377:	68 05 04 00 00       	push   $0x405
    937c:	50                   	push   %eax
    937d:	e8 5e 56 00 00       	call   e9e0 <async_req_fast@plt>
    9382:	83 c4 24             	add    $0x24,%esp
    9385:	89 45 e4             	mov    %eax,-0x1c(%ebp)
    9388:	57                   	push   %edi
    9389:	e8 f2 56 00 00       	call   ea80 <async_exchange_end@plt>
    938e:	8b 45 e4             	mov    -0x1c(%ebp),%eax
    9391:	8d 65 f4             	lea    -0xc(%ebp),%esp
    9394:	5b                   	pop    %ebx
    9395:	5e                   	pop    %esi
    9396:	5f                   	pop    %edi
    9397:	5d                   	pop    %ebp
    9398:	c3                   	ret    
    9399:	8d b4 26 00 00 00 00 	lea    0x0(%esi,%eiz,1),%esi

000093a0 <nic_wol_virtue_add>:
    93a0:	55                   	push   %ebp
    93a1:	89 e5                	mov    %esp,%ebp
    93a3:	57                   	push   %edi
    93a4:	56                   	push   %esi
    93a5:	53                   	push   %ebx
    93a6:	83 ec 4c             	sub    $0x4c,%esp
    93a9:	8b 5d 18             	mov    0x18(%ebp),%ebx
    93ac:	85 db                	test   %ebx,%ebx
    93ae:	0f 84 b0 00 00 00    	je     9464 <nic_wol_virtue_add+0xc4>
    93b4:	8b 45 10             	mov    0x10(%ebp),%eax
    93b7:	85 c0                	test   %eax,%eax
    93b9:	8b 45 14             	mov    0x14(%ebp),%eax
    93bc:	0f 95 c3             	setne  %bl
    93bf:	85 c0                	test   %eax,%eax
    93c1:	0f 95 c0             	setne  %al
    93c4:	83 ec 0c             	sub    $0xc,%esp
    93c7:	21 c3                	and    %eax,%ebx
    93c9:	8b 45 08             	mov    0x8(%ebp),%eax
    93cc:	50                   	push   %eax
    93cd:	e8 fe 58 00 00       	call   ecd0 <async_exchange_begin@plt>
    93d2:	83 c4 0c             	add    $0xc,%esp
    93d5:	89 c6                	mov    %eax,%esi
    93d7:	8d 45 c4             	lea    -0x3c(%ebp),%eax
    93da:	8b 55 0c             	mov    0xc(%ebp),%edx
    93dd:	50                   	push   %eax
    93de:	31 c0                	xor    %eax,%eax
    93e0:	88 d8                	mov    %bl,%al
    93e2:	6a 00                	push   $0x0
    93e4:	50                   	push   %eax
    93e5:	52                   	push   %edx
    93e6:	6a 1e                	push   $0x1e
    93e8:	68 05 04 00 00       	push   $0x405
    93ed:	56                   	push   %esi
    93ee:	e8 0d 56 00 00       	call   ea00 <async_send_fast@plt>
    93f3:	83 c4 20             	add    $0x20,%esp
    93f6:	89 c7                	mov    %eax,%edi
    93f8:	84 db                	test   %bl,%bl
    93fa:	75 2c                	jne    9428 <nic_wol_virtue_add+0x88>
    93fc:	83 ec 0c             	sub    $0xc,%esp
    93ff:	56                   	push   %esi
    9400:	e8 7b 56 00 00       	call   ea80 <async_exchange_end@plt>
    9405:	58                   	pop    %eax
    9406:	8d 45 c0             	lea    -0x40(%ebp),%eax
    9409:	5a                   	pop    %edx
    940a:	50                   	push   %eax
    940b:	57                   	push   %edi
    940c:	e8 ff 54 00 00       	call   e910 <async_wait_for@plt>
    9411:	8b 4d 18             	mov    0x18(%ebp),%ecx
    9414:	8b 45 c8             	mov    -0x38(%ebp),%eax
    9417:	83 c4 10             	add    $0x10,%esp
    941a:	89 01                	mov    %eax,(%ecx)
    941c:	8b 45 c0             	mov    -0x40(%ebp),%eax
    941f:	8d 65 f4             	lea    -0xc(%ebp),%esp
    9422:	5b                   	pop    %ebx
    9423:	5e                   	pop    %esi
    9424:	5f                   	pop    %edi
    9425:	5d                   	pop    %ebp
    9426:	c3                   	ret    
    9427:	90                   	nop
    9428:	50                   	push   %eax
    9429:	8b 45 14             	mov    0x14(%ebp),%eax
    942c:	50                   	push   %eax
    942d:	8b 45 10             	mov    0x10(%ebp),%eax
    9430:	50                   	push   %eax
    9431:	56                   	push   %esi
    9432:	e8 19 55 00 00       	call   e950 <async_data_write_start@plt>
    9437:	83 c4 10             	add    $0x10,%esp
    943a:	85 c0                	test   %eax,%eax
    943c:	74 be                	je     93fc <nic_wol_virtue_add+0x5c>
    943e:	83 ec 0c             	sub    $0xc,%esp
    9441:	89 45 b4             	mov    %eax,-0x4c(%ebp)
    9444:	56                   	push   %esi
    9445:	e8 36 56 00 00       	call   ea80 <async_exchange_end@plt>
    944a:	8d 55 c0             	lea    -0x40(%ebp),%edx
    944d:	59                   	pop    %ecx
    944e:	5b                   	pop    %ebx
    944f:	52                   	push   %edx
    9450:	57                   	push   %edi
    9451:	e8 ba 54 00 00       	call   e910 <async_wait_for@plt>
    9456:	8b 45 b4             	mov    -0x4c(%ebp),%eax
    9459:	83 c4 10             	add    $0x10,%esp
    945c:	8d 65 f4             	lea    -0xc(%ebp),%esp
    945f:	5b                   	pop    %ebx
    9460:	5e                   	pop    %esi
    9461:	5f                   	pop    %edi
    9462:	5d                   	pop    %ebp
    9463:	c3                   	ret    
    9464:	51                   	push   %ecx
    9465:	68 de 03 00 00       	push   $0x3de
    946a:	68 c4 e1 00 00       	push   $0xe1c4
    946f:	68 73 e2 00 00       	push   $0xe273
    9474:	e8 17 56 00 00       	call   ea90 <assert_abort@plt>
    9479:	8d b4 26 00 00 00 00 	lea    0x0(%esi,%eiz,1),%esi

00009480 <nic_wol_virtue_remove>:
    9480:	55                   	push   %ebp
    9481:	89 e5                	mov    %esp,%ebp
    9483:	53                   	push   %ebx
    9484:	83 ec 20             	sub    $0x20,%esp
    9487:	8b 45 08             	mov    0x8(%ebp),%eax
    948a:	50                   	push   %eax
    948b:	e8 40 58 00 00       	call   ecd0 <async_exchange_begin@plt>
    9490:	83 c4 0c             	add    $0xc,%esp
    9493:	8b 55 0c             	mov    0xc(%ebp),%edx
    9496:	89 c3                	mov    %eax,%ebx
    9498:	6a 00                	push   $0x0
    949a:	6a 00                	push   $0x0
    949c:	6a 00                	push   $0x0
    949e:	6a 00                	push   $0x0
    94a0:	6a 00                	push   $0x0
    94a2:	6a 00                	push   $0x0
    94a4:	6a 00                	push   $0x0
    94a6:	52                   	push   %edx
    94a7:	6a 1f                	push   $0x1f
    94a9:	68 05 04 00 00       	push   $0x405
    94ae:	50                   	push   %eax
    94af:	e8 2c 55 00 00       	call   e9e0 <async_req_fast@plt>
    94b4:	83 c4 24             	add    $0x24,%esp
    94b7:	89 45 f4             	mov    %eax,-0xc(%ebp)
    94ba:	53                   	push   %ebx
    94bb:	e8 c0 55 00 00       	call   ea80 <async_exchange_end@plt>
    94c0:	8b 45 f4             	mov    -0xc(%ebp),%eax
    94c3:	8b 5d fc             	mov    -0x4(%ebp),%ebx
    94c6:	c9                   	leave  
    94c7:	c3                   	ret    
    94c8:	90                   	nop
    94c9:	8d b4 26 00 00 00 00 	lea    0x0(%esi,%eiz,1),%esi

000094d0 <nic_wol_virtue_probe>:
    94d0:	55                   	push   %ebp
    94d1:	89 e5                	mov    %esp,%ebp
    94d3:	57                   	push   %edi
    94d4:	56                   	push   %esi
    94d5:	53                   	push   %ebx
    94d6:	83 ec 2c             	sub    $0x2c,%esp
    94d9:	8b 45 18             	mov    0x18(%ebp),%eax
    94dc:	8b 7d 10             	mov    0x10(%ebp),%edi
    94df:	8b 5d 14             	mov    0x14(%ebp),%ebx
    94e2:	85 c0                	test   %eax,%eax
    94e4:	0f 84 96 00 00 00    	je     9580 <nic_wol_virtue_probe+0xb0>
    94ea:	83 ec 0c             	sub    $0xc,%esp
    94ed:	8b 45 08             	mov    0x8(%ebp),%eax
    94f0:	50                   	push   %eax
    94f1:	e8 da 57 00 00       	call   ecd0 <async_exchange_begin@plt>
    94f6:	83 c4 0c             	add    $0xc,%esp
    94f9:	89 c6                	mov    %eax,%esi
    94fb:	8d 45 e4             	lea    -0x1c(%ebp),%eax
    94fe:	6a 00                	push   $0x0
    9500:	6a 00                	push   $0x0
    9502:	6a 00                	push   $0x0
    9504:	50                   	push   %eax
    9505:	8d 45 e0             	lea    -0x20(%ebp),%eax
    9508:	50                   	push   %eax
    9509:	8b 45 0c             	mov    0xc(%ebp),%eax
    950c:	6a 00                	push   $0x0
    950e:	53                   	push   %ebx
    950f:	50                   	push   %eax
    9510:	6a 20                	push   $0x20
    9512:	68 05 04 00 00       	push   $0x405
    9517:	56                   	push   %esi
    9518:	e8 c3 54 00 00       	call   e9e0 <async_req_fast@plt>
    951d:	83 c4 30             	add    $0x30,%esp
    9520:	85 c0                	test   %eax,%eax
    9522:	75 23                	jne    9547 <nic_wol_virtue_probe+0x77>
    9524:	85 ff                	test   %edi,%edi
    9526:	74 05                	je     952d <nic_wol_virtue_probe+0x5d>
    9528:	8b 4d e0             	mov    -0x20(%ebp),%ecx
    952b:	89 0f                	mov    %ecx,(%edi)
    952d:	8b 7d 1c             	mov    0x1c(%ebp),%edi
    9530:	85 ff                	test   %edi,%edi
    9532:	74 08                	je     953c <nic_wol_virtue_probe+0x6c>
    9534:	8b 55 1c             	mov    0x1c(%ebp),%edx
    9537:	8b 4d e4             	mov    -0x1c(%ebp),%ecx
    953a:	89 0a                	mov    %ecx,(%edx)
    953c:	85 db                	test   %ebx,%ebx
    953e:	74 07                	je     9547 <nic_wol_virtue_probe+0x77>
    9540:	8b 4d e4             	mov    -0x1c(%ebp),%ecx
    9543:	85 c9                	test   %ecx,%ecx
    9545:	75 21                	jne    9568 <nic_wol_virtue_probe+0x98>
    9547:	83 ec 0c             	sub    $0xc,%esp
    954a:	89 45 d4             	mov    %eax,-0x2c(%ebp)
    954d:	56                   	push   %esi
    954e:	e8 2d 55 00 00       	call   ea80 <async_exchange_end@plt>
    9553:	8b 45 d4             	mov    -0x2c(%ebp),%eax
    9556:	83 c4 10             	add    $0x10,%esp
    9559:	8d 65 f4             	lea    -0xc(%ebp),%esp
    955c:	5b                   	pop    %ebx
    955d:	5e                   	pop    %esi
    955e:	5f                   	pop    %edi
    955f:	5d                   	pop    %ebp
    9560:	c3                   	ret    
    9561:	8d b4 26 00 00 00 00 	lea    0x0(%esi,%eiz,1),%esi
    9568:	8b 55 18             	mov    0x18(%ebp),%edx
    956b:	50                   	push   %eax
    956c:	53                   	push   %ebx
    956d:	52                   	push   %edx
    956e:	56                   	push   %esi
    956f:	e8 bc 56 00 00       	call   ec30 <async_data_read_start@plt>
    9574:	83 c4 10             	add    $0x10,%esp
    9577:	eb ce                	jmp    9547 <nic_wol_virtue_probe+0x77>
    9579:	8d b4 26 00 00 00 00 	lea    0x0(%esi,%eiz,1),%esi
    9580:	31 db                	xor    %ebx,%ebx
    9582:	e9 63 ff ff ff       	jmp    94ea <nic_wol_virtue_probe+0x1a>
    9587:	89 f6                	mov    %esi,%esi
    9589:	8d bc 27 00 00 00 00 	lea    0x0(%edi,%eiz,1),%edi

00009590 <nic_wol_virtue_list>:
    9590:	55                   	push   %ebp
    9591:	89 e5                	mov    %esp,%ebp
    9593:	57                   	push   %edi
    9594:	56                   	push   %esi
    9595:	53                   	push   %ebx
    9596:	83 ec 2c             	sub    $0x2c,%esp
    9599:	8b 55 14             	mov    0x14(%ebp),%edx
    959c:	8b 45 08             	mov    0x8(%ebp),%eax
    959f:	8b 5d 10             	mov    0x10(%ebp),%ebx
    95a2:	8b 75 18             	mov    0x18(%ebp),%esi
    95a5:	85 d2                	test   %edx,%edx
    95a7:	0f 84 9b 00 00 00    	je     9648 <nic_wol_virtue_list+0xb8>
    95ad:	83 ec 0c             	sub    $0xc,%esp
    95b0:	50                   	push   %eax
    95b1:	e8 1a 57 00 00       	call   ecd0 <async_exchange_begin@plt>
    95b6:	83 c4 0c             	add    $0xc,%esp
    95b9:	89 c7                	mov    %eax,%edi
    95bb:	8d 45 e4             	lea    -0x1c(%ebp),%eax
    95be:	6a 00                	push   $0x0
    95c0:	6a 00                	push   $0x0
    95c2:	6a 00                	push   $0x0
    95c4:	6a 00                	push   $0x0
    95c6:	50                   	push   %eax
    95c7:	8b 45 0c             	mov    0xc(%ebp),%eax
    95ca:	6a 00                	push   $0x0
    95cc:	53                   	push   %ebx
    95cd:	50                   	push   %eax
    95ce:	6a 21                	push   $0x21
    95d0:	68 05 04 00 00       	push   $0x405
    95d5:	57                   	push   %edi
    95d6:	e8 05 54 00 00       	call   e9e0 <async_req_fast@plt>
    95db:	83 c4 30             	add    $0x30,%esp
    95de:	85 f6                	test   %esi,%esi
    95e0:	0f 84 a2 00 00 00    	je     9688 <nic_wol_virtue_list+0xf8>
    95e6:	85 c0                	test   %eax,%eax
    95e8:	0f 95 c2             	setne  %dl
    95eb:	85 db                	test   %ebx,%ebx
    95ed:	0f 94 c1             	sete   %cl
    95f0:	09 ca                	or     %ecx,%edx
    95f2:	8b 4d e4             	mov    -0x1c(%ebp),%ecx
    95f5:	89 0e                	mov    %ecx,(%esi)
    95f7:	84 d2                	test   %dl,%dl
    95f9:	75 2d                	jne    9628 <nic_wol_virtue_list+0x98>
    95fb:	c1 e3 02             	shl    $0x2,%ebx
    95fe:	8b 4d 14             	mov    0x14(%ebp),%ecx
    9601:	52                   	push   %edx
    9602:	53                   	push   %ebx
    9603:	51                   	push   %ecx
    9604:	57                   	push   %edi
    9605:	e8 26 56 00 00       	call   ec30 <async_data_read_start@plt>
    960a:	89 3c 24             	mov    %edi,(%esp)
    960d:	89 45 d4             	mov    %eax,-0x2c(%ebp)
    9610:	e8 6b 54 00 00       	call   ea80 <async_exchange_end@plt>
    9615:	8b 45 d4             	mov    -0x2c(%ebp),%eax
    9618:	83 c4 10             	add    $0x10,%esp
    961b:	8d 65 f4             	lea    -0xc(%ebp),%esp
    961e:	5b                   	pop    %ebx
    961f:	5e                   	pop    %esi
    9620:	5f                   	pop    %edi
    9621:	5d                   	pop    %ebp
    9622:	c3                   	ret    
    9623:	90                   	nop
    9624:	8d 74 26 00          	lea    0x0(%esi,%eiz,1),%esi
    9628:	83 ec 0c             	sub    $0xc,%esp
    962b:	89 45 d4             	mov    %eax,-0x2c(%ebp)
    962e:	57                   	push   %edi
    962f:	e8 4c 54 00 00       	call   ea80 <async_exchange_end@plt>
    9634:	8b 45 d4             	mov    -0x2c(%ebp),%eax
    9637:	83 c4 10             	add    $0x10,%esp
    963a:	8d 65 f4             	lea    -0xc(%ebp),%esp
    963d:	5b                   	pop    %ebx
    963e:	5e                   	pop    %esi
    963f:	5f                   	pop    %edi
    9640:	5d                   	pop    %ebp
    9641:	c3                   	ret    
    9642:	8d b6 00 00 00 00    	lea    0x0(%esi),%esi
    9648:	83 ec 0c             	sub    $0xc,%esp
    964b:	50                   	push   %eax
    964c:	e8 7f 56 00 00       	call   ecd0 <async_exchange_begin@plt>
    9651:	83 c4 0c             	add    $0xc,%esp
    9654:	89 c7                	mov    %eax,%edi
    9656:	8d 45 e4             	lea    -0x1c(%ebp),%eax
    9659:	6a 00                	push   $0x0
    965b:	6a 00                	push   $0x0
    965d:	6a 00                	push   $0x0
    965f:	6a 00                	push   $0x0
    9661:	50                   	push   %eax
    9662:	8b 45 0c             	mov    0xc(%ebp),%eax
    9665:	6a 00                	push   $0x0
    9667:	6a 00                	push   $0x0
    9669:	50                   	push   %eax
    966a:	6a 21                	push   $0x21
    966c:	68 05 04 00 00       	push   $0x405
    9671:	57                   	push   %edi
    9672:	e8 69 53 00 00       	call   e9e0 <async_req_fast@plt>
    9677:	83 c4 30             	add    $0x30,%esp
    967a:	85 f6                	test   %esi,%esi
    967c:	74 aa                	je     9628 <nic_wol_virtue_list+0x98>
    967e:	b2 01                	mov    $0x1,%dl
    9680:	31 db                	xor    %ebx,%ebx
    9682:	e9 6b ff ff ff       	jmp    95f2 <nic_wol_virtue_list+0x62>
    9687:	90                   	nop
    9688:	85 db                	test   %ebx,%ebx
    968a:	0f 94 c1             	sete   %cl
    968d:	85 c0                	test   %eax,%eax
    968f:	0f 95 c2             	setne  %dl
    9692:	09 ca                	or     %ecx,%edx
    9694:	e9 5e ff ff ff       	jmp    95f7 <nic_wol_virtue_list+0x67>
    9699:	8d b4 26 00 00 00 00 	lea    0x0(%esi,%eiz,1),%esi

000096a0 <nic_wol_virtue_get_caps>:
    96a0:	55                   	push   %ebp
    96a1:	89 e5                	mov    %esp,%ebp
    96a3:	56                   	push   %esi
    96a4:	53                   	push   %ebx
    96a5:	83 ec 20             	sub    $0x20,%esp
    96a8:	8b 5d 10             	mov    0x10(%ebp),%ebx
    96ab:	85 db                	test   %ebx,%ebx
    96ad:	74 4d                	je     96fc <nic_wol_virtue_get_caps+0x5c>
    96af:	83 ec 0c             	sub    $0xc,%esp
    96b2:	8b 45 08             	mov    0x8(%ebp),%eax
    96b5:	50                   	push   %eax
    96b6:	e8 15 56 00 00       	call   ecd0 <async_exchange_begin@plt>
    96bb:	83 c4 0c             	add    $0xc,%esp
    96be:	8b 55 0c             	mov    0xc(%ebp),%edx
    96c1:	89 c6                	mov    %eax,%esi
    96c3:	8d 45 f4             	lea    -0xc(%ebp),%eax
    96c6:	6a 00                	push   $0x0
    96c8:	6a 00                	push   $0x0
    96ca:	6a 00                	push   $0x0
    96cc:	6a 00                	push   $0x0
    96ce:	50                   	push   %eax
    96cf:	6a 00                	push   $0x0
    96d1:	6a 00                	push   $0x0
    96d3:	52                   	push   %edx
    96d4:	6a 22                	push   $0x22
    96d6:	68 05 04 00 00       	push   $0x405
    96db:	56                   	push   %esi
    96dc:	e8 ff 52 00 00       	call   e9e0 <async_req_fast@plt>
    96e1:	83 c4 24             	add    $0x24,%esp
    96e4:	89 45 e4             	mov    %eax,-0x1c(%ebp)
    96e7:	56                   	push   %esi
    96e8:	e8 93 53 00 00       	call   ea80 <async_exchange_end@plt>
    96ed:	8b 55 f4             	mov    -0xc(%ebp),%edx
    96f0:	8b 45 e4             	mov    -0x1c(%ebp),%eax
    96f3:	89 13                	mov    %edx,(%ebx)
    96f5:	8d 65 f8             	lea    -0x8(%ebp),%esp
    96f8:	5b                   	pop    %ebx
    96f9:	5e                   	pop    %esi
    96fa:	5d                   	pop    %ebp
    96fb:	c3                   	ret    
    96fc:	51                   	push   %ecx
    96fd:	68 74 04 00 00       	push   $0x474
    9702:	68 c4 e1 00 00       	push   $0xe1c4
    9707:	68 76 e2 00 00       	push   $0xe276
    970c:	e8 7f 53 00 00       	call   ea90 <assert_abort@plt>
    9711:	eb 0d                	jmp    9720 <nic_wol_load_info>
    9713:	90                   	nop
    9714:	90                   	nop
    9715:	90                   	nop
    9716:	90                   	nop
    9717:	90                   	nop
    9718:	90                   	nop
    9719:	90                   	nop
    971a:	90                   	nop
    971b:	90                   	nop
    971c:	90                   	nop
    971d:	90                   	nop
    971e:	90                   	nop
    971f:	90                   	nop

00009720 <nic_wol_load_info>:
    9720:	55                   	push   %ebp
    9721:	89 e5                	mov    %esp,%ebp
    9723:	57                   	push   %edi
    9724:	56                   	push   %esi
    9725:	53                   	push   %ebx
    9726:	83 ec 2c             	sub    $0x2c,%esp
    9729:	8b 75 0c             	mov    0xc(%ebp),%esi
    972c:	8b 5d 10             	mov    0x10(%ebp),%ebx
    972f:	85 f6                	test   %esi,%esi
    9731:	0f 84 a0 00 00 00    	je     97d7 <nic_wol_load_info+0xb7>
    9737:	8b 45 14             	mov    0x14(%ebp),%eax
    973a:	85 c0                	test   %eax,%eax
    973c:	0f 84 8e 00 00 00    	je     97d0 <nic_wol_load_info+0xb0>
    9742:	83 ec 0c             	sub    $0xc,%esp
    9745:	8b 7d 08             	mov    0x8(%ebp),%edi
    9748:	57                   	push   %edi
    9749:	e8 82 55 00 00       	call   ecd0 <async_exchange_begin@plt>
    974e:	83 c4 0c             	add    $0xc,%esp
    9751:	89 c7                	mov    %eax,%edi
    9753:	8d 45 e4             	lea    -0x1c(%ebp),%eax
    9756:	6a 00                	push   $0x0
    9758:	6a 00                	push   $0x0
    975a:	6a 00                	push   $0x0
    975c:	50                   	push   %eax
    975d:	8d 45 e0             	lea    -0x20(%ebp),%eax
    9760:	50                   	push   %eax
    9761:	6a 00                	push   $0x0
    9763:	6a 00                	push   $0x0
    9765:	53                   	push   %ebx
    9766:	6a 23                	push   $0x23
    9768:	68 05 04 00 00       	push   $0x405
    976d:	57                   	push   %edi
    976e:	e8 6d 52 00 00       	call   e9e0 <async_req_fast@plt>
    9773:	83 c4 30             	add    $0x30,%esp
    9776:	85 c0                	test   %eax,%eax
    9778:	75 1f                	jne    9799 <nic_wol_load_info+0x79>
    977a:	8b 4d e0             	mov    -0x20(%ebp),%ecx
    977d:	89 0e                	mov    %ecx,(%esi)
    977f:	8b 75 18             	mov    0x18(%ebp),%esi
    9782:	85 f6                	test   %esi,%esi
    9784:	74 08                	je     978e <nic_wol_load_info+0x6e>
    9786:	8b 55 18             	mov    0x18(%ebp),%edx
    9789:	8b 4d e4             	mov    -0x1c(%ebp),%ecx
    978c:	89 0a                	mov    %ecx,(%edx)
    978e:	85 db                	test   %ebx,%ebx
    9790:	74 07                	je     9799 <nic_wol_load_info+0x79>
    9792:	8b 4d e4             	mov    -0x1c(%ebp),%ecx
    9795:	85 c9                	test   %ecx,%ecx
    9797:	75 1f                	jne    97b8 <nic_wol_load_info+0x98>
    9799:	83 ec 0c             	sub    $0xc,%esp
    979c:	89 45 d4             	mov    %eax,-0x2c(%ebp)
    979f:	57                   	push   %edi
    97a0:	e8 db 52 00 00       	call   ea80 <async_exchange_end@plt>
    97a5:	8b 45 d4             	mov    -0x2c(%ebp),%eax
    97a8:	83 c4 10             	add    $0x10,%esp
    97ab:	8d 65 f4             	lea    -0xc(%ebp),%esp
    97ae:	5b                   	pop    %ebx
    97af:	5e                   	pop    %esi
    97b0:	5f                   	pop    %edi
    97b1:	5d                   	pop    %ebp
    97b2:	c3                   	ret    
    97b3:	90                   	nop
    97b4:	8d 74 26 00          	lea    0x0(%esi,%eiz,1),%esi
    97b8:	8b 55 14             	mov    0x14(%ebp),%edx
    97bb:	50                   	push   %eax
    97bc:	53                   	push   %ebx
    97bd:	52                   	push   %edx
    97be:	57                   	push   %edi
    97bf:	e8 6c 54 00 00       	call   ec30 <async_data_read_start@plt>
    97c4:	83 c4 10             	add    $0x10,%esp
    97c7:	eb d0                	jmp    9799 <nic_wol_load_info+0x79>
    97c9:	8d b4 26 00 00 00 00 	lea    0x0(%esi,%eiz,1),%esi
    97d0:	31 db                	xor    %ebx,%ebx
    97d2:	e9 6b ff ff ff       	jmp    9742 <nic_wol_load_info+0x22>
    97d7:	50                   	push   %eax
    97d8:	68 9a 04 00 00       	push   $0x49a
    97dd:	68 c4 e1 00 00       	push   $0xe1c4
    97e2:	68 7c e2 00 00       	push   $0xe27c
    97e7:	e8 a4 52 00 00       	call   ea90 <assert_abort@plt>
    97ec:	8d 74 26 00          	lea    0x0(%esi,%eiz,1),%esi

000097f0 <nic_offload_probe>:
    97f0:	55                   	push   %ebp
    97f1:	89 e5                	mov    %esp,%ebp
    97f3:	57                   	push   %edi
    97f4:	56                   	push   %esi
    97f5:	53                   	push   %ebx
    97f6:	83 ec 2c             	sub    $0x2c,%esp
    97f9:	8b 5d 0c             	mov    0xc(%ebp),%ebx
    97fc:	8b 75 10             	mov    0x10(%ebp),%esi
    97ff:	85 db                	test   %ebx,%ebx
    9801:	74 57                	je     985a <nic_offload_probe+0x6a>
    9803:	85 f6                	test   %esi,%esi
    9805:	74 68                	je     986f <nic_offload_probe+0x7f>
    9807:	83 ec 0c             	sub    $0xc,%esp
    980a:	8b 45 08             	mov    0x8(%ebp),%eax
    980d:	50                   	push   %eax
    980e:	e8 bd 54 00 00       	call   ecd0 <async_exchange_begin@plt>
    9813:	83 c4 0c             	add    $0xc,%esp
    9816:	89 c7                	mov    %eax,%edi
    9818:	8d 45 e4             	lea    -0x1c(%ebp),%eax
    981b:	6a 00                	push   $0x0
    981d:	6a 00                	push   $0x0
    981f:	6a 00                	push   $0x0
    9821:	50                   	push   %eax
    9822:	8d 45 e0             	lea    -0x20(%ebp),%eax
    9825:	50                   	push   %eax
    9826:	6a 00                	push   $0x0
    9828:	6a 00                	push   $0x0
    982a:	6a 00                	push   $0x0
    982c:	6a 24                	push   $0x24
    982e:	68 05 04 00 00       	push   $0x405
    9833:	57                   	push   %edi
    9834:	e8 a7 51 00 00       	call   e9e0 <async_req_fast@plt>
    9839:	83 c4 24             	add    $0x24,%esp
    983c:	89 45 d4             	mov    %eax,-0x2c(%ebp)
    983f:	57                   	push   %edi
    9840:	e8 3b 52 00 00       	call   ea80 <async_exchange_end@plt>
    9845:	8b 55 e0             	mov    -0x20(%ebp),%edx
    9848:	8b 45 d4             	mov    -0x2c(%ebp),%eax
    984b:	89 13                	mov    %edx,(%ebx)
    984d:	8b 55 e4             	mov    -0x1c(%ebp),%edx
    9850:	89 16                	mov    %edx,(%esi)
    9852:	8d 65 f4             	lea    -0xc(%ebp),%esp
    9855:	5b                   	pop    %ebx
    9856:	5e                   	pop    %esi
    9857:	5f                   	pop    %edi
    9858:	5d                   	pop    %ebp
    9859:	c3                   	ret    
    985a:	51                   	push   %ecx
    985b:	68 c2 04 00 00       	push   $0x4c2
    9860:	68 c4 e1 00 00       	push   $0xe1c4
    9865:	68 89 e2 00 00       	push   $0xe289
    986a:	e8 21 52 00 00       	call   ea90 <assert_abort@plt>
    986f:	52                   	push   %edx
    9870:	68 c3 04 00 00       	push   $0x4c3
    9875:	68 c4 e1 00 00       	push   $0xe1c4
    987a:	68 93 e2 00 00       	push   $0xe293
    987f:	e8 0c 52 00 00       	call   ea90 <assert_abort@plt>
    9884:	8d b6 00 00 00 00    	lea    0x0(%esi),%esi
    988a:	8d bf 00 00 00 00    	lea    0x0(%edi),%edi

00009890 <nic_offload_set>:
    9890:	55                   	push   %ebp
    9891:	89 e5                	mov    %esp,%ebp
    9893:	53                   	push   %ebx
    9894:	83 ec 20             	sub    $0x20,%esp
    9897:	8b 45 08             	mov    0x8(%ebp),%eax
    989a:	50                   	push   %eax
    989b:	e8 30 54 00 00       	call   ecd0 <async_exchange_begin@plt>
    98a0:	83 c4 0c             	add    $0xc,%esp
    98a3:	8b 55 10             	mov    0x10(%ebp),%edx
    98a6:	8b 4d 0c             	mov    0xc(%ebp),%ecx
    98a9:	89 c3                	mov    %eax,%ebx
    98ab:	6a 00                	push   $0x0
    98ad:	6a 00                	push   $0x0
    98af:	6a 00                	push   $0x0
    98b1:	6a 00                	push   $0x0
    98b3:	6a 00                	push   $0x0
    98b5:	6a 00                	push   $0x0
    98b7:	52                   	push   %edx
    98b8:	51                   	push   %ecx
    98b9:	6a 0e                	push   $0xe
    98bb:	68 05 04 00 00       	push   $0x405
    98c0:	50                   	push   %eax
    98c1:	e8 1a 51 00 00       	call   e9e0 <async_req_fast@plt>
    98c6:	83 c4 24             	add    $0x24,%esp
    98c9:	89 45 f4             	mov    %eax,-0xc(%ebp)
    98cc:	53                   	push   %ebx
    98cd:	e8 ae 51 00 00       	call   ea80 <async_exchange_end@plt>
    98d2:	8b 45 f4             	mov    -0xc(%ebp),%eax
    98d5:	8b 5d fc             	mov    -0x4(%ebp),%ebx
    98d8:	c9                   	leave  
    98d9:	c3                   	ret    
    98da:	8d b6 00 00 00 00    	lea    0x0(%esi),%esi

000098e0 <nic_poll_get_mode>:
    98e0:	55                   	push   %ebp
    98e1:	89 e5                	mov    %esp,%ebp
    98e3:	57                   	push   %edi
    98e4:	56                   	push   %esi
    98e5:	53                   	push   %ebx
    98e6:	83 ec 2c             	sub    $0x2c,%esp
    98e9:	8b 75 0c             	mov    0xc(%ebp),%esi
    98ec:	8b 5d 10             	mov    0x10(%ebp),%ebx
    98ef:	85 f6                	test   %esi,%esi
    98f1:	74 6d                	je     9960 <nic_poll_get_mode+0x80>
    98f3:	83 ec 0c             	sub    $0xc,%esp
    98f6:	8b 55 08             	mov    0x8(%ebp),%edx
    98f9:	52                   	push   %edx
    98fa:	e8 d1 53 00 00       	call   ecd0 <async_exchange_begin@plt>
    98ff:	83 c4 0c             	add    $0xc,%esp
    9902:	89 c7                	mov    %eax,%edi
    9904:	8d 45 e4             	lea    -0x1c(%ebp),%eax
    9907:	6a 00                	push   $0x0
    9909:	6a 00                	push   $0x0
    990b:	6a 00                	push   $0x0
    990d:	6a 00                	push   $0x0
    990f:	50                   	push   %eax
    9910:	31 c0                	xor    %eax,%eax
    9912:	85 db                	test   %ebx,%ebx
    9914:	6a 00                	push   $0x0
    9916:	0f 95 c0             	setne  %al
    9919:	6a 00                	push   $0x0
    991b:	50                   	push   %eax
    991c:	6a 26                	push   $0x26
    991e:	68 05 04 00 00       	push   $0x405
    9923:	57                   	push   %edi
    9924:	e8 b7 50 00 00       	call   e9e0 <async_req_fast@plt>
    9929:	83 c4 30             	add    $0x30,%esp
    992c:	85 c0                	test   %eax,%eax
    992e:	75 16                	jne    9946 <nic_poll_get_mode+0x66>
    9930:	8b 55 e4             	mov    -0x1c(%ebp),%edx
    9933:	85 db                	test   %ebx,%ebx
    9935:	89 16                	mov    %edx,(%esi)
    9937:	74 0d                	je     9946 <nic_poll_get_mode+0x66>
    9939:	50                   	push   %eax
    993a:	6a 08                	push   $0x8
    993c:	53                   	push   %ebx
    993d:	57                   	push   %edi
    993e:	e8 ed 52 00 00       	call   ec30 <async_data_read_start@plt>
    9943:	83 c4 10             	add    $0x10,%esp
    9946:	83 ec 0c             	sub    $0xc,%esp
    9949:	89 45 d4             	mov    %eax,-0x2c(%ebp)
    994c:	57                   	push   %edi
    994d:	e8 2e 51 00 00       	call   ea80 <async_exchange_end@plt>
    9952:	8b 45 d4             	mov    -0x2c(%ebp),%eax
    9955:	83 c4 10             	add    $0x10,%esp
    9958:	8d 65 f4             	lea    -0xc(%ebp),%esp
    995b:	5b                   	pop    %ebx
    995c:	5e                   	pop    %esi
    995d:	5f                   	pop    %edi
    995e:	5d                   	pop    %ebp
    995f:	c3                   	ret    
    9960:	51                   	push   %ecx
    9961:	68 f2 04 00 00       	push   $0x4f2
    9966:	68 c4 e1 00 00       	push   $0xe1c4
    996b:	68 69 e2 00 00       	push   $0xe269
    9970:	e8 1b 51 00 00       	call   ea90 <assert_abort@plt>
    9975:	8d 74 26 00          	lea    0x0(%esi,%eiz,1),%esi
    9979:	8d bc 27 00 00 00 00 	lea    0x0(%edi,%eiz,1),%edi

00009980 <nic_poll_set_mode>:
    9980:	55                   	push   %ebp
    9981:	89 e5                	mov    %esp,%ebp
    9983:	57                   	push   %edi
    9984:	56                   	push   %esi
    9985:	53                   	push   %ebx
    9986:	83 ec 38             	sub    $0x38,%esp
    9989:	8b 7d 08             	mov    0x8(%ebp),%edi
    998c:	8b 5d 10             	mov    0x10(%ebp),%ebx
    998f:	57                   	push   %edi
    9990:	e8 3b 53 00 00       	call   ecd0 <async_exchange_begin@plt>
    9995:	83 c4 0c             	add    $0xc,%esp
    9998:	89 c6                	mov    %eax,%esi
    999a:	31 c0                	xor    %eax,%eax
    999c:	85 db                	test   %ebx,%ebx
    999e:	0f 95 c0             	setne  %al
    99a1:	6a 00                	push   $0x0
    99a3:	6a 00                	push   $0x0
    99a5:	50                   	push   %eax
    99a6:	8b 45 0c             	mov    0xc(%ebp),%eax
    99a9:	50                   	push   %eax
    99aa:	6a 27                	push   $0x27
    99ac:	68 05 04 00 00       	push   $0x405
    99b1:	56                   	push   %esi
    99b2:	e8 49 50 00 00       	call   ea00 <async_send_fast@plt>
    99b7:	83 c4 20             	add    $0x20,%esp
    99ba:	89 c7                	mov    %eax,%edi
    99bc:	85 db                	test   %ebx,%ebx
    99be:	74 38                	je     99f8 <nic_poll_set_mode+0x78>
    99c0:	51                   	push   %ecx
    99c1:	6a 08                	push   $0x8
    99c3:	53                   	push   %ebx
    99c4:	56                   	push   %esi
    99c5:	e8 86 4f 00 00       	call   e950 <async_data_write_start@plt>
    99ca:	89 34 24             	mov    %esi,(%esp)
    99cd:	89 45 d4             	mov    %eax,-0x2c(%ebp)
    99d0:	e8 ab 50 00 00       	call   ea80 <async_exchange_end@plt>
    99d5:	8d 55 e4             	lea    -0x1c(%ebp),%edx
    99d8:	5b                   	pop    %ebx
    99d9:	5e                   	pop    %esi
    99da:	52                   	push   %edx
    99db:	57                   	push   %edi
    99dc:	e8 2f 4f 00 00       	call   e910 <async_wait_for@plt>
    99e1:	8b 45 d4             	mov    -0x2c(%ebp),%eax
    99e4:	83 c4 10             	add    $0x10,%esp
    99e7:	85 c0                	test   %eax,%eax
    99e9:	74 25                	je     9a10 <nic_poll_set_mode+0x90>
    99eb:	8d 65 f4             	lea    -0xc(%ebp),%esp
    99ee:	5b                   	pop    %ebx
    99ef:	5e                   	pop    %esi
    99f0:	5f                   	pop    %edi
    99f1:	5d                   	pop    %ebp
    99f2:	c3                   	ret    
    99f3:	90                   	nop
    99f4:	8d 74 26 00          	lea    0x0(%esi,%eiz,1),%esi
    99f8:	83 ec 0c             	sub    $0xc,%esp
    99fb:	56                   	push   %esi
    99fc:	e8 7f 50 00 00       	call   ea80 <async_exchange_end@plt>
    9a01:	58                   	pop    %eax
    9a02:	8d 45 e4             	lea    -0x1c(%ebp),%eax
    9a05:	5a                   	pop    %edx
    9a06:	50                   	push   %eax
    9a07:	57                   	push   %edi
    9a08:	e8 03 4f 00 00       	call   e910 <async_wait_for@plt>
    9a0d:	83 c4 10             	add    $0x10,%esp
    9a10:	8b 45 e4             	mov    -0x1c(%ebp),%eax
    9a13:	8d 65 f4             	lea    -0xc(%ebp),%esp
    9a16:	5b                   	pop    %ebx
    9a17:	5e                   	pop    %esi
    9a18:	5f                   	pop    %edi
    9a19:	5d                   	pop    %ebp
    9a1a:	c3                   	ret    
    9a1b:	90                   	nop
    9a1c:	8d 74 26 00          	lea    0x0(%esi,%eiz,1),%esi

00009a20 <nic_poll_now>:
    9a20:	55                   	push   %ebp
    9a21:	89 e5                	mov    %esp,%ebp
    9a23:	53                   	push   %ebx
    9a24:	83 ec 20             	sub    $0x20,%esp
    9a27:	8b 45 08             	mov    0x8(%ebp),%eax
    9a2a:	50                   	push   %eax
    9a2b:	e8 a0 52 00 00       	call   ecd0 <async_exchange_begin@plt>
    9a30:	83 c4 0c             	add    $0xc,%esp
    9a33:	89 c3                	mov    %eax,%ebx
    9a35:	6a 00                	push   $0x0
    9a37:	6a 00                	push   $0x0
    9a39:	6a 00                	push   $0x0
    9a3b:	6a 00                	push   $0x0
    9a3d:	6a 00                	push   $0x0
    9a3f:	6a 00                	push   $0x0
    9a41:	6a 00                	push   $0x0
    9a43:	6a 00                	push   $0x0
    9a45:	6a 28                	push   $0x28
    9a47:	68 05 04 00 00       	push   $0x405
    9a4c:	50                   	push   %eax
    9a4d:	e8 8e 4f 00 00       	call   e9e0 <async_req_fast@plt>
    9a52:	83 c4 24             	add    $0x24,%esp
    9a55:	89 45 f4             	mov    %eax,-0xc(%ebp)
    9a58:	53                   	push   %ebx
    9a59:	e8 22 50 00 00       	call   ea80 <async_exchange_end@plt>
    9a5e:	8b 45 f4             	mov    -0xc(%ebp),%eax
    9a61:	8b 5d fc             	mov    -0x4(%ebp),%ebx
    9a64:	c9                   	leave  
    9a65:	c3                   	ret    
    9a66:	66 90                	xchg   %ax,%ax
    9a68:	66 90                	xchg   %ax,%ax
    9a6a:	66 90                	xchg   %ax,%ax
    9a6c:	66 90                	xchg   %ax,%ax
    9a6e:	66 90                	xchg   %ax,%ax

00009a70 <remote_ieee80211_connect>:
    9a70:	55                   	push   %ebp
    9a71:	89 e5                	mov    %esp,%ebp
    9a73:	57                   	push   %edi
    9a74:	56                   	push   %esi
    9a75:	53                   	push   %ebx
    9a76:	83 ec 5c             	sub    $0x5c,%esp
    9a79:	8b 45 0c             	mov    0xc(%ebp),%eax
    9a7c:	8b 78 04             	mov    0x4(%eax),%edi
    9a7f:	85 ff                	test   %edi,%edi
    9a81:	0f 84 ab 00 00 00    	je     9b32 <remote_ieee80211_connect+0xc2>
    9a87:	8d 75 a4             	lea    -0x5c(%ebp),%esi
    9a8a:	53                   	push   %ebx
    9a8b:	53                   	push   %ebx
    9a8c:	8d 5d a0             	lea    -0x60(%ebp),%ebx
    9a8f:	56                   	push   %esi
    9a90:	53                   	push   %ebx
    9a91:	e8 3a 53 00 00       	call   edd0 <async_data_write_receive@plt>
    9a96:	83 c4 10             	add    $0x10,%esp
    9a99:	84 c0                	test   %al,%al
    9a9b:	74 08                	je     9aa5 <remote_ieee80211_connect+0x35>
    9a9d:	8b 45 a4             	mov    -0x5c(%ebp),%eax
    9aa0:	83 f8 20             	cmp    $0x20,%eax
    9aa3:	76 2b                	jbe    9ad0 <remote_ieee80211_connect+0x60>
    9aa5:	8b 45 a0             	mov    -0x60(%ebp),%eax
    9aa8:	57                   	push   %edi
    9aa9:	57                   	push   %edi
    9aaa:	6a f2                	push   $0xfffffff2
    9aac:	50                   	push   %eax
    9aad:	e8 3e 4f 00 00       	call   e9f0 <async_answer_0@plt>
    9ab2:	8b 4d 10             	mov    0x10(%ebp),%ecx
    9ab5:	58                   	pop    %eax
    9ab6:	5a                   	pop    %edx
    9ab7:	6a f2                	push   $0xfffffff2
    9ab9:	51                   	push   %ecx
    9aba:	e8 31 4f 00 00       	call   e9f0 <async_answer_0@plt>
    9abf:	83 c4 10             	add    $0x10,%esp
    9ac2:	8d 65 f4             	lea    -0xc(%ebp),%esp
    9ac5:	5b                   	pop    %ebx
    9ac6:	5e                   	pop    %esi
    9ac7:	5f                   	pop    %edi
    9ac8:	5d                   	pop    %ebp
    9ac9:	c3                   	ret    
    9aca:	8d b6 00 00 00 00    	lea    0x0(%esi),%esi
    9ad0:	8b 4d a0             	mov    -0x60(%ebp),%ecx
    9ad3:	8d 7d a8             	lea    -0x58(%ebp),%edi
    9ad6:	52                   	push   %edx
    9ad7:	50                   	push   %eax
    9ad8:	57                   	push   %edi
    9ad9:	51                   	push   %ecx
    9ada:	e8 61 52 00 00       	call   ed40 <async_data_write_finalize@plt>
    9adf:	83 c4 10             	add    $0x10,%esp
    9ae2:	85 c0                	test   %eax,%eax
    9ae4:	75 bf                	jne    9aa5 <remote_ieee80211_connect+0x35>
    9ae6:	50                   	push   %eax
    9ae7:	50                   	push   %eax
    9ae8:	56                   	push   %esi
    9ae9:	53                   	push   %ebx
    9aea:	e8 e1 52 00 00       	call   edd0 <async_data_write_receive@plt>
    9aef:	83 c4 10             	add    $0x10,%esp
    9af2:	84 c0                	test   %al,%al
    9af4:	74 af                	je     9aa5 <remote_ieee80211_connect+0x35>
    9af6:	8b 45 a4             	mov    -0x5c(%ebp),%eax
    9af9:	83 f8 20             	cmp    $0x20,%eax
    9afc:	77 a7                	ja     9aa5 <remote_ieee80211_connect+0x35>
    9afe:	8b 75 a0             	mov    -0x60(%ebp),%esi
    9b01:	53                   	push   %ebx
    9b02:	8d 5d c8             	lea    -0x38(%ebp),%ebx
    9b05:	50                   	push   %eax
    9b06:	53                   	push   %ebx
    9b07:	56                   	push   %esi
    9b08:	e8 33 52 00 00       	call   ed40 <async_data_write_finalize@plt>
    9b0d:	83 c4 10             	add    $0x10,%esp
    9b10:	85 c0                	test   %eax,%eax
    9b12:	75 91                	jne    9aa5 <remote_ieee80211_connect+0x35>
    9b14:	50                   	push   %eax
    9b15:	8b 45 0c             	mov    0xc(%ebp),%eax
    9b18:	8b 55 08             	mov    0x8(%ebp),%edx
    9b1b:	53                   	push   %ebx
    9b1c:	57                   	push   %edi
    9b1d:	52                   	push   %edx
    9b1e:	ff 50 04             	call   *0x4(%eax)
    9b21:	8b 75 10             	mov    0x10(%ebp),%esi
    9b24:	59                   	pop    %ecx
    9b25:	5b                   	pop    %ebx
    9b26:	50                   	push   %eax
    9b27:	56                   	push   %esi
    9b28:	e8 c3 4e 00 00       	call   e9f0 <async_answer_0@plt>
    9b2d:	83 c4 10             	add    $0x10,%esp
    9b30:	eb 90                	jmp    9ac2 <remote_ieee80211_connect+0x52>
    9b32:	56                   	push   %esi
    9b33:	68 33 01 00 00       	push   $0x133
    9b38:	68 64 e3 00 00       	push   $0xe364
    9b3d:	68 7f e3 00 00       	push   $0xe37f
    9b42:	e8 49 4f 00 00       	call   ea90 <assert_abort@plt>
    9b47:	89 f6                	mov    %esi,%esi
    9b49:	8d bc 27 00 00 00 00 	lea    0x0(%edi,%eiz,1),%edi

00009b50 <remote_ieee80211_get_scan_results>:
    9b50:	55                   	push   %ebp
    9b51:	89 e5                	mov    %esp,%ebp
    9b53:	56                   	push   %esi
    9b54:	53                   	push   %ebx
    9b55:	81 ec 90 07 00 00    	sub    $0x790,%esp
    9b5b:	8b 75 0c             	mov    0xc(%ebp),%esi
    9b5e:	8b 06                	mov    (%esi),%eax
    9b60:	85 c0                	test   %eax,%eax
    9b62:	0f 84 df 00 00 00    	je     9c47 <remote_ieee80211_get_scan_results+0xf7>
    9b68:	8d 9d 74 f8 ff ff    	lea    -0x78c(%ebp),%ebx
    9b6e:	50                   	push   %eax
    9b6f:	68 84 07 00 00       	push   $0x784
    9b74:	6a 00                	push   $0x0
    9b76:	53                   	push   %ebx
    9b77:	e8 94 50 00 00       	call   ec10 <memset@plt>
    9b7c:	8b 45 14             	mov    0x14(%ebp),%eax
    9b7f:	83 c4 0c             	add    $0xc,%esp
    9b82:	8b 40 08             	mov    0x8(%eax),%eax
    9b85:	85 c0                	test   %eax,%eax
    9b87:	0f 95 c0             	setne  %al
    9b8a:	25 ff 00 00 00       	and    $0xff,%eax
    9b8f:	50                   	push   %eax
    9b90:	8b 45 08             	mov    0x8(%ebp),%eax
    9b93:	53                   	push   %ebx
    9b94:	50                   	push   %eax
    9b95:	ff 16                	call   *(%esi)
    9b97:	83 c4 10             	add    $0x10,%esp
    9b9a:	89 c6                	mov    %eax,%esi
    9b9c:	85 c0                	test   %eax,%eax
    9b9e:	75 66                	jne    9c06 <remote_ieee80211_get_scan_results+0xb6>
    9ba0:	50                   	push   %eax
    9ba1:	50                   	push   %eax
    9ba2:	8d 85 70 f8 ff ff    	lea    -0x790(%ebp),%eax
    9ba8:	50                   	push   %eax
    9ba9:	8d 85 6c f8 ff ff    	lea    -0x794(%ebp),%eax
    9baf:	50                   	push   %eax
    9bb0:	e8 6b 50 00 00       	call   ec20 <async_data_read_receive@plt>
    9bb5:	83 c4 10             	add    $0x10,%esp
    9bb8:	84 c0                	test   %al,%al
    9bba:	74 64                	je     9c20 <remote_ieee80211_get_scan_results+0xd0>
    9bbc:	81 bd 70 f8 ff ff 83 	cmpl   $0x783,-0x790(%ebp)
    9bc3:	07 00 00 
    9bc6:	77 28                	ja     9bf0 <remote_ieee80211_get_scan_results+0xa0>
    9bc8:	8b 85 6c f8 ff ff    	mov    -0x794(%ebp),%eax
    9bce:	56                   	push   %esi
    9bcf:	56                   	push   %esi
    9bd0:	6a fd                	push   $0xfffffffd
    9bd2:	50                   	push   %eax
    9bd3:	e8 18 4e 00 00       	call   e9f0 <async_answer_0@plt>
    9bd8:	8b 4d 10             	mov    0x10(%ebp),%ecx
    9bdb:	58                   	pop    %eax
    9bdc:	5a                   	pop    %edx
    9bdd:	6a fd                	push   $0xfffffffd
    9bdf:	51                   	push   %ecx
    9be0:	e8 0b 4e 00 00       	call   e9f0 <async_answer_0@plt>
    9be5:	83 c4 10             	add    $0x10,%esp
    9be8:	8d 65 f8             	lea    -0x8(%ebp),%esp
    9beb:	5b                   	pop    %ebx
    9bec:	5e                   	pop    %esi
    9bed:	5d                   	pop    %ebp
    9bee:	c3                   	ret    
    9bef:	90                   	nop
    9bf0:	51                   	push   %ecx
    9bf1:	68 84 07 00 00       	push   $0x784
    9bf6:	53                   	push   %ebx
    9bf7:	8b 9d 6c f8 ff ff    	mov    -0x794(%ebp),%ebx
    9bfd:	53                   	push   %ebx
    9bfe:	e8 7d 4d 00 00       	call   e980 <async_data_read_finalize@plt>
    9c03:	83 c4 10             	add    $0x10,%esp
    9c06:	8b 55 10             	mov    0x10(%ebp),%edx
    9c09:	50                   	push   %eax
    9c0a:	50                   	push   %eax
    9c0b:	56                   	push   %esi
    9c0c:	52                   	push   %edx
    9c0d:	e8 de 4d 00 00       	call   e9f0 <async_answer_0@plt>
    9c12:	83 c4 10             	add    $0x10,%esp
    9c15:	8d 65 f8             	lea    -0x8(%ebp),%esp
    9c18:	5b                   	pop    %ebx
    9c19:	5e                   	pop    %esi
    9c1a:	5d                   	pop    %ebp
    9c1b:	c3                   	ret    
    9c1c:	8d 74 26 00          	lea    0x0(%esi,%eiz,1),%esi
    9c20:	8b b5 6c f8 ff ff    	mov    -0x794(%ebp),%esi
    9c26:	53                   	push   %ebx
    9c27:	53                   	push   %ebx
    9c28:	6a f2                	push   $0xfffffff2
    9c2a:	56                   	push   %esi
    9c2b:	e8 c0 4d 00 00       	call   e9f0 <async_answer_0@plt>
    9c30:	8b 4d 10             	mov    0x10(%ebp),%ecx
    9c33:	58                   	pop    %eax
    9c34:	5a                   	pop    %edx
    9c35:	6a f2                	push   $0xfffffff2
    9c37:	51                   	push   %ecx
    9c38:	e8 b3 4d 00 00       	call   e9f0 <async_answer_0@plt>
    9c3d:	83 c4 10             	add    $0x10,%esp
    9c40:	8d 65 f8             	lea    -0x8(%ebp),%esp
    9c43:	5b                   	pop    %ebx
    9c44:	5e                   	pop    %esi
    9c45:	5d                   	pop    %ebp
    9c46:	c3                   	ret    
    9c47:	50                   	push   %eax
    9c48:	68 11 01 00 00       	push   $0x111
    9c4d:	68 64 e3 00 00       	push   $0xe364
    9c52:	68 cc e3 00 00       	push   $0xe3cc
    9c57:	e8 34 4e 00 00       	call   ea90 <assert_abort@plt>
    9c5c:	8d 74 26 00          	lea    0x0(%esi,%eiz,1),%esi

00009c60 <remote_ieee80211_disconnect>:
    9c60:	55                   	push   %ebp
    9c61:	89 e5                	mov    %esp,%ebp
    9c63:	53                   	push   %ebx
    9c64:	52                   	push   %edx
    9c65:	8b 45 0c             	mov    0xc(%ebp),%eax
    9c68:	8b 55 08             	mov    0x8(%ebp),%edx
    9c6b:	8b 5d 10             	mov    0x10(%ebp),%ebx
    9c6e:	8b 40 08             	mov    0x8(%eax),%eax
    9c71:	85 c0                	test   %eax,%eax
    9c73:	74 18                	je     9c8d <remote_ieee80211_disconnect+0x2d>
    9c75:	83 ec 0c             	sub    $0xc,%esp
    9c78:	52                   	push   %edx
    9c79:	ff d0                	call   *%eax
    9c7b:	89 5d 08             	mov    %ebx,0x8(%ebp)
    9c7e:	83 c4 10             	add    $0x10,%esp
    9c81:	8b 5d fc             	mov    -0x4(%ebp),%ebx
    9c84:	89 45 0c             	mov    %eax,0xc(%ebp)
    9c87:	c9                   	leave  
    9c88:	e9 63 4d 00 00       	jmp    e9f0 <async_answer_0@plt>
    9c8d:	50                   	push   %eax
    9c8e:	68 69 01 00 00       	push   $0x169
    9c93:	68 64 e3 00 00       	push   $0xe364
    9c98:	68 98 e3 00 00       	push   $0xe398
    9c9d:	e8 ee 4d 00 00       	call   ea90 <assert_abort@plt>
    9ca2:	8d b4 26 00 00 00 00 	lea    0x0(%esi,%eiz,1),%esi
    9ca9:	8d bc 27 00 00 00 00 	lea    0x0(%edi,%eiz,1),%edi

00009cb0 <ieee80211_get_scan_results>:
    9cb0:	55                   	push   %ebp
    9cb1:	89 e5                	mov    %esp,%ebp
    9cb3:	57                   	push   %edi
    9cb4:	56                   	push   %esi
    9cb5:	53                   	push   %ebx
    9cb6:	83 ec 2c             	sub    $0x2c,%esp
    9cb9:	8b 75 0c             	mov    0xc(%ebp),%esi
    9cbc:	8b 5d 10             	mov    0x10(%ebp),%ebx
    9cbf:	85 f6                	test   %esi,%esi
    9cc1:	74 6a                	je     9d2d <ieee80211_get_scan_results+0x7d>
    9cc3:	83 ec 0c             	sub    $0xc,%esp
    9cc6:	8b 45 08             	mov    0x8(%ebp),%eax
    9cc9:	81 e3 ff 00 00 00    	and    $0xff,%ebx
    9ccf:	50                   	push   %eax
    9cd0:	e8 fb 4f 00 00       	call   ecd0 <async_exchange_begin@plt>
    9cd5:	83 c4 0c             	add    $0xc,%esp
    9cd8:	89 c7                	mov    %eax,%edi
    9cda:	6a 00                	push   $0x0
    9cdc:	6a 00                	push   $0x0
    9cde:	6a 00                	push   $0x0
    9ce0:	53                   	push   %ebx
    9ce1:	6a 00                	push   $0x0
    9ce3:	68 06 04 00 00       	push   $0x406
    9ce8:	50                   	push   %eax
    9ce9:	e8 12 4d 00 00       	call   ea00 <async_send_fast@plt>
    9cee:	83 c4 1c             	add    $0x1c,%esp
    9cf1:	89 c3                	mov    %eax,%ebx
    9cf3:	68 84 07 00 00       	push   $0x784
    9cf8:	56                   	push   %esi
    9cf9:	57                   	push   %edi
    9cfa:	e8 31 4f 00 00       	call   ec30 <async_data_read_start@plt>
    9cff:	89 3c 24             	mov    %edi,(%esp)
    9d02:	89 45 d4             	mov    %eax,-0x2c(%ebp)
    9d05:	e8 76 4d 00 00       	call   ea80 <async_exchange_end@plt>
    9d0a:	5a                   	pop    %edx
    9d0b:	8d 55 e4             	lea    -0x1c(%ebp),%edx
    9d0e:	59                   	pop    %ecx
    9d0f:	52                   	push   %edx
    9d10:	53                   	push   %ebx
    9d11:	e8 fa 4b 00 00       	call   e910 <async_wait_for@plt>
    9d16:	8b 55 e4             	mov    -0x1c(%ebp),%edx
    9d19:	83 c4 10             	add    $0x10,%esp
    9d1c:	8b 45 d4             	mov    -0x2c(%ebp),%eax
    9d1f:	85 d2                	test   %edx,%edx
    9d21:	74 02                	je     9d25 <ieee80211_get_scan_results+0x75>
    9d23:	89 d0                	mov    %edx,%eax
    9d25:	8d 65 f4             	lea    -0xc(%ebp),%esp
    9d28:	5b                   	pop    %ebx
    9d29:	5e                   	pop    %esi
    9d2a:	5f                   	pop    %edi
    9d2b:	5d                   	pop    %ebp
    9d2c:	c3                   	ret    
    9d2d:	53                   	push   %ebx
    9d2e:	6a 43                	push   $0x43
    9d30:	68 64 e3 00 00       	push   $0xe364
    9d35:	68 b4 e3 00 00       	push   $0xe3b4
    9d3a:	e8 51 4d 00 00       	call   ea90 <assert_abort@plt>
    9d3f:	90                   	nop

00009d40 <ieee80211_connect>:
    9d40:	55                   	push   %ebp
    9d41:	89 e5                	mov    %esp,%ebp
    9d43:	57                   	push   %edi
    9d44:	56                   	push   %esi
    9d45:	53                   	push   %ebx
    9d46:	83 ec 3c             	sub    $0x3c,%esp
    9d49:	8b 75 0c             	mov    0xc(%ebp),%esi
    9d4c:	85 f6                	test   %esi,%esi
    9d4e:	0f 84 97 01 00 00    	je     9eeb <ieee80211_connect+0x1ab>
    9d54:	83 ec 0c             	sub    $0xc,%esp
    9d57:	8b 45 08             	mov    0x8(%ebp),%eax
    9d5a:	50                   	push   %eax
    9d5b:	e8 70 4f 00 00       	call   ecd0 <async_exchange_begin@plt>
    9d60:	83 c4 0c             	add    $0xc,%esp
    9d63:	89 c3                	mov    %eax,%ebx
    9d65:	6a 00                	push   $0x0
    9d67:	6a 00                	push   $0x0
    9d69:	6a 00                	push   $0x0
    9d6b:	6a 00                	push   $0x0
    9d6d:	6a 01                	push   $0x1
    9d6f:	68 06 04 00 00       	push   $0x406
    9d74:	50                   	push   %eax
    9d75:	e8 86 4c 00 00       	call   ea00 <async_send_fast@plt>
    9d7a:	83 c4 14             	add    $0x14,%esp
    9d7d:	89 c7                	mov    %eax,%edi
    9d7f:	56                   	push   %esi
    9d80:	e8 1b 4f 00 00       	call   eca0 <str_size@plt>
    9d85:	83 c4 0c             	add    $0xc,%esp
    9d88:	40                   	inc    %eax
    9d89:	50                   	push   %eax
    9d8a:	56                   	push   %esi
    9d8b:	53                   	push   %ebx
    9d8c:	e8 bf 4b 00 00       	call   e950 <async_data_write_start@plt>
    9d91:	83 c4 10             	add    $0x10,%esp
    9d94:	89 45 c4             	mov    %eax,-0x3c(%ebp)
    9d97:	85 c0                	test   %eax,%eax
    9d99:	75 30                	jne    9dcb <ieee80211_connect+0x8b>
    9d9b:	8b 45 10             	mov    0x10(%ebp),%eax
    9d9e:	85 c0                	test   %eax,%eax
    9da0:	0f 84 aa 00 00 00    	je     9e50 <ieee80211_connect+0x110>
    9da6:	83 ec 0c             	sub    $0xc,%esp
    9da9:	8b 75 10             	mov    0x10(%ebp),%esi
    9dac:	56                   	push   %esi
    9dad:	e8 ee 4e 00 00       	call   eca0 <str_size@plt>
    9db2:	83 c4 0c             	add    $0xc,%esp
    9db5:	40                   	inc    %eax
    9db6:	50                   	push   %eax
    9db7:	8b 45 10             	mov    0x10(%ebp),%eax
    9dba:	50                   	push   %eax
    9dbb:	53                   	push   %ebx
    9dbc:	e8 8f 4b 00 00       	call   e950 <async_data_write_start@plt>
    9dc1:	83 c4 10             	add    $0x10,%esp
    9dc4:	89 45 c4             	mov    %eax,-0x3c(%ebp)
    9dc7:	85 c0                	test   %eax,%eax
    9dc9:	74 2d                	je     9df8 <ieee80211_connect+0xb8>
    9dcb:	83 ec 0c             	sub    $0xc,%esp
    9dce:	53                   	push   %ebx
    9dcf:	e8 ac 4c 00 00       	call   ea80 <async_exchange_end@plt>
    9dd4:	8d 45 d8             	lea    -0x28(%ebp),%eax
    9dd7:	59                   	pop    %ecx
    9dd8:	5b                   	pop    %ebx
    9dd9:	50                   	push   %eax
    9dda:	57                   	push   %edi
    9ddb:	e8 30 4b 00 00       	call   e910 <async_wait_for@plt>
    9de0:	8b 45 d8             	mov    -0x28(%ebp),%eax
    9de3:	83 c4 10             	add    $0x10,%esp
    9de6:	85 c0                	test   %eax,%eax
    9de8:	75 03                	jne    9ded <ieee80211_connect+0xad>
    9dea:	8b 45 c4             	mov    -0x3c(%ebp),%eax
    9ded:	8d 65 f4             	lea    -0xc(%ebp),%esp
    9df0:	5b                   	pop    %ebx
    9df1:	5e                   	pop    %esi
    9df2:	5f                   	pop    %edi
    9df3:	5d                   	pop    %ebp
    9df4:	c3                   	ret    
    9df5:	8d 76 00             	lea    0x0(%esi),%esi
    9df8:	83 ec 0c             	sub    $0xc,%esp
    9dfb:	53                   	push   %ebx
    9dfc:	e8 7f 4c 00 00       	call   ea80 <async_exchange_end@plt>
    9e01:	58                   	pop    %eax
    9e02:	8d 45 c4             	lea    -0x3c(%ebp),%eax
    9e05:	5a                   	pop    %edx
    9e06:	50                   	push   %eax
    9e07:	57                   	push   %edi
    9e08:	e8 03 4b 00 00       	call   e910 <async_wait_for@plt>
    9e0d:	8b 45 c4             	mov    -0x3c(%ebp),%eax
    9e10:	83 c4 10             	add    $0x10,%esp
    9e13:	85 c0                	test   %eax,%eax
    9e15:	75 d6                	jne    9ded <ieee80211_connect+0xad>
    9e17:	8d 45 d2             	lea    -0x2e(%ebp),%eax
    9e1a:	8b 7d 08             	mov    0x8(%ebp),%edi
    9e1d:	56                   	push   %esi
    9e1e:	56                   	push   %esi
    9e1f:	50                   	push   %eax
    9e20:	57                   	push   %edi
    9e21:	e8 6a e7 ff ff       	call   8590 <nic_get_address>
    9e26:	83 c4 10             	add    $0x10,%esp
    9e29:	89 45 c4             	mov    %eax,-0x3c(%ebp)
    9e2c:	85 c0                	test   %eax,%eax
    9e2e:	75 bd                	jne    9ded <ieee80211_connect+0xad>
    9e30:	8d 45 cc             	lea    -0x34(%ebp),%eax
    9e33:	53                   	push   %ebx
    9e34:	53                   	push   %ebx
    9e35:	50                   	push   %eax
    9e36:	8d 45 c8             	lea    -0x38(%ebp),%eax
    9e39:	50                   	push   %eax
    9e3a:	e8 61 4f 00 00       	call   eda0 <inetcfg_get_link_list@plt>
    9e3f:	83 c4 10             	add    $0x10,%esp
    9e42:	85 c0                	test   %eax,%eax
    9e44:	74 1a                	je     9e60 <ieee80211_connect+0x120>
    9e46:	b8 f2 ff ff ff       	mov    $0xfffffff2,%eax
    9e4b:	eb a0                	jmp    9ded <ieee80211_connect+0xad>
    9e4d:	8d 76 00             	lea    0x0(%esi),%esi
    9e50:	c7 45 10 26 e5 00 00 	movl   $0xe526,0x10(%ebp)
    9e57:	e9 4a ff ff ff       	jmp    9da6 <ieee80211_connect+0x66>
    9e5c:	8d 74 26 00          	lea    0x0(%esi,%eiz,1),%esi
    9e60:	8b 4d cc             	mov    -0x34(%ebp),%ecx
    9e63:	85 c9                	test   %ecx,%ecx
    9e65:	74 df                	je     9e46 <ieee80211_connect+0x106>
    9e67:	31 db                	xor    %ebx,%ebx
    9e69:	8d 7d d8             	lea    -0x28(%ebp),%edi
    9e6c:	8d 74 26 00          	lea    0x0(%esi,%eiz,1),%esi
    9e70:	8d 34 9d 00 00 00 00 	lea    0x0(,%ebx,4),%esi
    9e77:	50                   	push   %eax
    9e78:	50                   	push   %eax
    9e79:	8b 45 c8             	mov    -0x38(%ebp),%eax
    9e7c:	57                   	push   %edi
    9e7d:	8b 14 30             	mov    (%eax,%esi,1),%edx
    9e80:	52                   	push   %edx
    9e81:	e8 2a 4d 00 00       	call   ebb0 <inetcfg_link_get@plt>
    9e86:	83 c4 10             	add    $0x10,%esp
    9e89:	85 c0                	test   %eax,%eax
    9e8b:	75 b9                	jne    9e46 <ieee80211_connect+0x106>
    9e8d:	8a 45 e0             	mov    -0x20(%ebp),%al
    9e90:	38 45 d2             	cmp    %al,-0x2e(%ebp)
    9e93:	75 4b                	jne    9ee0 <ieee80211_connect+0x1a0>
    9e95:	8a 45 e1             	mov    -0x1f(%ebp),%al
    9e98:	38 45 d3             	cmp    %al,-0x2d(%ebp)
    9e9b:	75 43                	jne    9ee0 <ieee80211_connect+0x1a0>
    9e9d:	8a 45 e2             	mov    -0x1e(%ebp),%al
    9ea0:	38 45 d4             	cmp    %al,-0x2c(%ebp)
    9ea3:	75 3b                	jne    9ee0 <ieee80211_connect+0x1a0>
    9ea5:	8a 45 e3             	mov    -0x1d(%ebp),%al
    9ea8:	38 45 d5             	cmp    %al,-0x2b(%ebp)
    9eab:	75 33                	jne    9ee0 <ieee80211_connect+0x1a0>
    9ead:	8a 45 e4             	mov    -0x1c(%ebp),%al
    9eb0:	38 45 d6             	cmp    %al,-0x2a(%ebp)
    9eb3:	75 2b                	jne    9ee0 <ieee80211_connect+0x1a0>
    9eb5:	8a 45 e5             	mov    -0x1b(%ebp),%al
    9eb8:	38 45 d7             	cmp    %al,-0x29(%ebp)
    9ebb:	75 23                	jne    9ee0 <ieee80211_connect+0x1a0>
    9ebd:	8b 45 c8             	mov    -0x38(%ebp),%eax
    9ec0:	8b 04 30             	mov    (%eax,%esi,1),%eax
    9ec3:	83 f8 ff             	cmp    $0xffffffff,%eax
    9ec6:	0f 84 7a ff ff ff    	je     9e46 <ieee80211_connect+0x106>
    9ecc:	83 ec 0c             	sub    $0xc,%esp
    9ecf:	50                   	push   %eax
    9ed0:	e8 1b 4d 00 00       	call   ebf0 <dhcp_discover@plt>
    9ed5:	83 c4 10             	add    $0x10,%esp
    9ed8:	e9 10 ff ff ff       	jmp    9ded <ieee80211_connect+0xad>
    9edd:	8d 76 00             	lea    0x0(%esi),%esi
    9ee0:	43                   	inc    %ebx
    9ee1:	3b 5d cc             	cmp    -0x34(%ebp),%ebx
    9ee4:	72 8a                	jb     9e70 <ieee80211_connect+0x130>
    9ee6:	e9 5b ff ff ff       	jmp    9e46 <ieee80211_connect+0x106>
    9eeb:	50                   	push   %eax
    9eec:	68 82 00 00 00       	push   $0x82
    9ef1:	68 64 e3 00 00       	push   $0xe364
    9ef6:	68 bc e3 00 00       	push   $0xe3bc
    9efb:	e8 90 4b 00 00       	call   ea90 <assert_abort@plt>

00009f00 <ieee80211_disconnect>:
    9f00:	55                   	push   %ebp
    9f01:	89 e5                	mov    %esp,%ebp
    9f03:	57                   	push   %edi
    9f04:	56                   	push   %esi
    9f05:	53                   	push   %ebx
    9f06:	81 ec 98 00 00 00    	sub    $0x98,%esp
    9f0c:	8b 75 08             	mov    0x8(%ebp),%esi
    9f0f:	56                   	push   %esi
    9f10:	e8 bb 4d 00 00       	call   ecd0 <async_exchange_begin@plt>
    9f15:	83 c4 0c             	add    $0xc,%esp
    9f18:	89 c3                	mov    %eax,%ebx
    9f1a:	6a 00                	push   $0x0
    9f1c:	6a 00                	push   $0x0
    9f1e:	6a 00                	push   $0x0
    9f20:	6a 00                	push   $0x0
    9f22:	6a 00                	push   $0x0
    9f24:	6a 00                	push   $0x0
    9f26:	6a 00                	push   $0x0
    9f28:	6a 00                	push   $0x0
    9f2a:	6a 02                	push   $0x2
    9f2c:	68 06 04 00 00       	push   $0x406
    9f31:	50                   	push   %eax
    9f32:	e8 a9 4a 00 00       	call   e9e0 <async_req_fast@plt>
    9f37:	83 c4 24             	add    $0x24,%esp
    9f3a:	89 c7                	mov    %eax,%edi
    9f3c:	53                   	push   %ebx
    9f3d:	e8 3e 4b 00 00       	call   ea80 <async_exchange_end@plt>
    9f42:	83 c4 10             	add    $0x10,%esp
    9f45:	85 ff                	test   %edi,%edi
    9f47:	74 0f                	je     9f58 <ieee80211_disconnect+0x58>
    9f49:	8d 65 f4             	lea    -0xc(%ebp),%esp
    9f4c:	89 f8                	mov    %edi,%eax
    9f4e:	5b                   	pop    %ebx
    9f4f:	5e                   	pop    %esi
    9f50:	5f                   	pop    %edi
    9f51:	5d                   	pop    %ebp
    9f52:	c3                   	ret    
    9f53:	90                   	nop
    9f54:	8d 74 26 00          	lea    0x0(%esi,%eiz,1),%esi
    9f58:	50                   	push   %eax
    9f59:	50                   	push   %eax
    9f5a:	8d 45 82             	lea    -0x7e(%ebp),%eax
    9f5d:	50                   	push   %eax
    9f5e:	56                   	push   %esi
    9f5f:	e8 2c e6 ff ff       	call   8590 <nic_get_address>
    9f64:	83 c4 10             	add    $0x10,%esp
    9f67:	89 c7                	mov    %eax,%edi
    9f69:	85 c0                	test   %eax,%eax
    9f6b:	75 dc                	jne    9f49 <ieee80211_disconnect+0x49>
    9f6d:	50                   	push   %eax
    9f6e:	50                   	push   %eax
    9f6f:	8d 85 7c ff ff ff    	lea    -0x84(%ebp),%eax
    9f75:	50                   	push   %eax
    9f76:	8d 85 74 ff ff ff    	lea    -0x8c(%ebp),%eax
    9f7c:	50                   	push   %eax
    9f7d:	e8 0e 4c 00 00       	call   eb90 <inetcfg_get_addr_list@plt>
    9f82:	83 c4 10             	add    $0x10,%esp
    9f85:	89 c7                	mov    %eax,%edi
    9f87:	85 c0                	test   %eax,%eax
    9f89:	75 be                	jne    9f49 <ieee80211_disconnect+0x49>
    9f8b:	8b 85 7c ff ff ff    	mov    -0x84(%ebp),%eax
    9f91:	31 db                	xor    %ebx,%ebx
    9f93:	85 c0                	test   %eax,%eax
    9f95:	0f 84 9e 00 00 00    	je     a039 <ieee80211_disconnect+0x139>
    9f9b:	90                   	nop
    9f9c:	8d 74 26 00          	lea    0x0(%esi,%eiz,1),%esi
    9fa0:	8d 45 98             	lea    -0x68(%ebp),%eax
    9fa3:	8d 34 9d 00 00 00 00 	lea    0x0(,%ebx,4),%esi
    9faa:	57                   	push   %edi
    9fab:	57                   	push   %edi
    9fac:	50                   	push   %eax
    9fad:	8b 85 74 ff ff ff    	mov    -0x8c(%ebp),%eax
    9fb3:	8b 04 30             	mov    (%eax,%esi,1),%eax
    9fb6:	50                   	push   %eax
    9fb7:	e8 64 49 00 00       	call   e920 <inetcfg_addr_get@plt>
    9fbc:	83 c4 10             	add    $0x10,%esp
    9fbf:	89 c7                	mov    %eax,%edi
    9fc1:	85 c0                	test   %eax,%eax
    9fc3:	75 84                	jne    9f49 <ieee80211_disconnect+0x49>
    9fc5:	8d 45 88             	lea    -0x78(%ebp),%eax
    9fc8:	8b 4d b0             	mov    -0x50(%ebp),%ecx
    9fcb:	52                   	push   %edx
    9fcc:	52                   	push   %edx
    9fcd:	50                   	push   %eax
    9fce:	51                   	push   %ecx
    9fcf:	e8 dc 4b 00 00       	call   ebb0 <inetcfg_link_get@plt>
    9fd4:	83 c4 10             	add    $0x10,%esp
    9fd7:	89 c7                	mov    %eax,%edi
    9fd9:	85 c0                	test   %eax,%eax
    9fdb:	0f 85 68 ff ff ff    	jne    9f49 <ieee80211_disconnect+0x49>
    9fe1:	8a 45 90             	mov    -0x70(%ebp),%al
    9fe4:	38 45 82             	cmp    %al,-0x7e(%ebp)
    9fe7:	75 43                	jne    a02c <ieee80211_disconnect+0x12c>
    9fe9:	8a 45 91             	mov    -0x6f(%ebp),%al
    9fec:	38 45 83             	cmp    %al,-0x7d(%ebp)
    9fef:	75 3b                	jne    a02c <ieee80211_disconnect+0x12c>
    9ff1:	8a 45 92             	mov    -0x6e(%ebp),%al
    9ff4:	38 45 84             	cmp    %al,-0x7c(%ebp)
    9ff7:	75 33                	jne    a02c <ieee80211_disconnect+0x12c>
    9ff9:	8a 45 93             	mov    -0x6d(%ebp),%al
    9ffc:	38 45 85             	cmp    %al,-0x7b(%ebp)
    9fff:	75 2b                	jne    a02c <ieee80211_disconnect+0x12c>
    a001:	8a 45 94             	mov    -0x6c(%ebp),%al
    a004:	38 45 86             	cmp    %al,-0x7a(%ebp)
    a007:	75 23                	jne    a02c <ieee80211_disconnect+0x12c>
    a009:	8a 45 95             	mov    -0x6b(%ebp),%al
    a00c:	38 45 87             	cmp    %al,-0x79(%ebp)
    a00f:	75 1b                	jne    a02c <ieee80211_disconnect+0x12c>
    a011:	8b 55 b4             	mov    -0x4c(%ebp),%edx
    a014:	50                   	push   %eax
    a015:	50                   	push   %eax
    a016:	68 c7 e3 00 00       	push   $0xe3c7
    a01b:	52                   	push   %edx
    a01c:	e8 ef 4a 00 00       	call   eb10 <str_test_prefix@plt>
    a021:	83 c4 10             	add    $0x10,%esp
    a024:	84 c0                	test   %al,%al
    a026:	0f 85 94 00 00 00    	jne    a0c0 <ieee80211_disconnect+0x1c0>
    a02c:	43                   	inc    %ebx
    a02d:	39 9d 7c ff ff ff    	cmp    %ebx,-0x84(%ebp)
    a033:	0f 87 67 ff ff ff    	ja     9fa0 <ieee80211_disconnect+0xa0>
    a039:	50                   	push   %eax
    a03a:	50                   	push   %eax
    a03b:	8d 85 7c ff ff ff    	lea    -0x84(%ebp),%eax
    a041:	50                   	push   %eax
    a042:	8d 85 78 ff ff ff    	lea    -0x88(%ebp),%eax
    a048:	50                   	push   %eax
    a049:	e8 52 4a 00 00       	call   eaa0 <inetcfg_get_sroute_list@plt>
    a04e:	83 c4 10             	add    $0x10,%esp
    a051:	89 c7                	mov    %eax,%edi
    a053:	85 c0                	test   %eax,%eax
    a055:	0f 85 ee fe ff ff    	jne    9f49 <ieee80211_disconnect+0x49>
    a05b:	8b 85 7c ff ff ff    	mov    -0x84(%ebp),%eax
    a061:	31 db                	xor    %ebx,%ebx
    a063:	85 c0                	test   %eax,%eax
    a065:	75 2d                	jne    a094 <ieee80211_disconnect+0x194>
    a067:	e9 dd fe ff ff       	jmp    9f49 <ieee80211_disconnect+0x49>
    a06c:	8d 74 26 00          	lea    0x0(%esi,%eiz,1),%esi
    a070:	50                   	push   %eax
    a071:	50                   	push   %eax
    a072:	8b 45 e4             	mov    -0x1c(%ebp),%eax
    a075:	68 c7 e3 00 00       	push   $0xe3c7
    a07a:	50                   	push   %eax
    a07b:	e8 90 4a 00 00       	call   eb10 <str_test_prefix@plt>
    a080:	83 c4 10             	add    $0x10,%esp
    a083:	84 c0                	test   %al,%al
    a085:	75 5d                	jne    a0e4 <ieee80211_disconnect+0x1e4>
    a087:	43                   	inc    %ebx
    a088:	39 9d 7c ff ff ff    	cmp    %ebx,-0x84(%ebp)
    a08e:	0f 86 b5 fe ff ff    	jbe    9f49 <ieee80211_disconnect+0x49>
    a094:	50                   	push   %eax
    a095:	50                   	push   %eax
    a096:	8d 45 b8             	lea    -0x48(%ebp),%eax
    a099:	8d 34 9d 00 00 00 00 	lea    0x0(,%ebx,4),%esi
    a0a0:	50                   	push   %eax
    a0a1:	8b 85 78 ff ff ff    	mov    -0x88(%ebp),%eax
    a0a7:	8b 04 30             	mov    (%eax,%esi,1),%eax
    a0aa:	50                   	push   %eax
    a0ab:	e8 30 48 00 00       	call   e8e0 <inetcfg_sroute_get@plt>
    a0b0:	83 c4 10             	add    $0x10,%esp
    a0b3:	85 c0                	test   %eax,%eax
    a0b5:	74 b9                	je     a070 <ieee80211_disconnect+0x170>
    a0b7:	89 c7                	mov    %eax,%edi
    a0b9:	e9 8b fe ff ff       	jmp    9f49 <ieee80211_disconnect+0x49>
    a0be:	66 90                	xchg   %ax,%ax
    a0c0:	8b 85 74 ff ff ff    	mov    -0x8c(%ebp),%eax
    a0c6:	83 ec 0c             	sub    $0xc,%esp
    a0c9:	8b 04 30             	mov    (%eax,%esi,1),%eax
    a0cc:	50                   	push   %eax
    a0cd:	e8 fe 49 00 00       	call   ead0 <inetcfg_addr_delete@plt>
    a0d2:	83 c4 10             	add    $0x10,%esp
    a0d5:	89 c7                	mov    %eax,%edi
    a0d7:	85 c0                	test   %eax,%eax
    a0d9:	0f 84 5a ff ff ff    	je     a039 <ieee80211_disconnect+0x139>
    a0df:	e9 65 fe ff ff       	jmp    9f49 <ieee80211_disconnect+0x49>
    a0e4:	8b 85 78 ff ff ff    	mov    -0x88(%ebp),%eax
    a0ea:	83 ec 0c             	sub    $0xc,%esp
    a0ed:	8b 0c 30             	mov    (%eax,%esi,1),%ecx
    a0f0:	51                   	push   %ecx
    a0f1:	e8 7a 4b 00 00       	call   ec70 <inetcfg_sroute_delete@plt>
    a0f6:	83 c4 10             	add    $0x10,%esp
    a0f9:	89 c7                	mov    %eax,%edi
    a0fb:	e9 49 fe ff ff       	jmp    9f49 <ieee80211_disconnect+0x49>

0000a100 <remote_usb_unregister_endpoint>:
    a100:	55                   	push   %ebp
    a101:	89 e5                	mov    %esp,%ebp
    a103:	53                   	push   %ebx
    a104:	50                   	push   %eax
    a105:	8b 45 0c             	mov    0xc(%ebp),%eax
    a108:	8b 4d 08             	mov    0x8(%ebp),%ecx
    a10b:	8b 5d 10             	mov    0x10(%ebp),%ebx
    a10e:	8b 55 14             	mov    0x14(%ebp),%edx
    a111:	8b 40 1c             	mov    0x1c(%eax),%eax
    a114:	85 c0                	test   %eax,%eax
    a116:	74 20                	je     a138 <remote_usb_unregister_endpoint+0x38>
    a118:	83 ec 04             	sub    $0x4,%esp
    a11b:	ff 72 0c             	pushl  0xc(%edx)
    a11e:	0f bf 52 08          	movswl 0x8(%edx),%edx
    a122:	52                   	push   %edx
    a123:	51                   	push   %ecx
    a124:	ff d0                	call   *%eax
    a126:	89 5d 08             	mov    %ebx,0x8(%ebp)
    a129:	83 c4 10             	add    $0x10,%esp
    a12c:	8b 5d fc             	mov    -0x4(%ebp),%ebx
    a12f:	89 45 0c             	mov    %eax,0xc(%ebp)
    a132:	c9                   	leave  
    a133:	e9 b8 48 00 00       	jmp    e9f0 <async_answer_0@plt>
    a138:	89 5d 08             	mov    %ebx,0x8(%ebp)
    a13b:	8b 5d fc             	mov    -0x4(%ebp),%ebx
    a13e:	c7 45 0c f5 ff ff ff 	movl   $0xfffffff5,0xc(%ebp)
    a145:	c9                   	leave  
    a146:	e9 a5 48 00 00       	jmp    e9f0 <async_answer_0@plt>
    a14b:	90                   	nop
    a14c:	8d 74 26 00          	lea    0x0(%esi,%eiz,1),%esi

0000a150 <remote_usb_register_endpoint>:
    a150:	55                   	push   %ebp
    a151:	89 e5                	mov    %esp,%ebp
    a153:	57                   	push   %edi
    a154:	56                   	push   %esi
    a155:	53                   	push   %ebx
    a156:	83 ec 0c             	sub    $0xc,%esp
    a159:	8b 45 0c             	mov    0xc(%ebp),%eax
    a15c:	8b 75 08             	mov    0x8(%ebp),%esi
    a15f:	8b 5d 10             	mov    0x10(%ebp),%ebx
    a162:	8b 55 14             	mov    0x14(%ebp),%edx
    a165:	8b 48 18             	mov    0x18(%eax),%ecx
    a168:	85 c9                	test   %ecx,%ecx
    a16a:	74 44                	je     a1b0 <remote_usb_register_endpoint+0x60>
    a16c:	8b 42 0c             	mov    0xc(%edx),%eax
    a16f:	57                   	push   %edi
    a170:	89 c7                	mov    %eax,%edi
    a172:	c1 ef 18             	shr    $0x18,%edi
    a175:	57                   	push   %edi
    a176:	89 c7                	mov    %eax,%edi
    a178:	c1 ef 10             	shr    $0x10,%edi
    a17b:	81 e7 ff 00 00 00    	and    $0xff,%edi
    a181:	57                   	push   %edi
    a182:	8b 7a 10             	mov    0x10(%edx),%edi
    a185:	57                   	push   %edi
    a186:	0f b6 fc             	movzbl %ah,%edi
    a189:	25 ff 00 00 00       	and    $0xff,%eax
    a18e:	57                   	push   %edi
    a18f:	50                   	push   %eax
    a190:	0f bf 42 08          	movswl 0x8(%edx),%eax
    a194:	50                   	push   %eax
    a195:	56                   	push   %esi
    a196:	ff d1                	call   *%ecx
    a198:	89 5d 08             	mov    %ebx,0x8(%ebp)
    a19b:	89 45 0c             	mov    %eax,0xc(%ebp)
    a19e:	83 c4 20             	add    $0x20,%esp
    a1a1:	8d 65 f4             	lea    -0xc(%ebp),%esp
    a1a4:	5b                   	pop    %ebx
    a1a5:	5e                   	pop    %esi
    a1a6:	5f                   	pop    %edi
    a1a7:	5d                   	pop    %ebp
    a1a8:	e9 43 48 00 00       	jmp    e9f0 <async_answer_0@plt>
    a1ad:	8d 76 00             	lea    0x0(%esi),%esi
    a1b0:	89 5d 08             	mov    %ebx,0x8(%ebp)
    a1b3:	c7 45 0c f5 ff ff ff 	movl   $0xfffffff5,0xc(%ebp)
    a1ba:	8d 65 f4             	lea    -0xc(%ebp),%esp
    a1bd:	5b                   	pop    %ebx
    a1be:	5e                   	pop    %esi
    a1bf:	5f                   	pop    %edi
    a1c0:	5d                   	pop    %ebp
    a1c1:	e9 2a 48 00 00       	jmp    e9f0 <async_answer_0@plt>
    a1c6:	8d 76 00             	lea    0x0(%esi),%esi
    a1c9:	8d bc 27 00 00 00 00 	lea    0x0(%edi,%eiz,1),%edi

0000a1d0 <remote_usb_device_remove>:
    a1d0:	55                   	push   %ebp
    a1d1:	89 e5                	mov    %esp,%ebp
    a1d3:	53                   	push   %ebx
    a1d4:	53                   	push   %ebx
    a1d5:	8b 45 0c             	mov    0xc(%ebp),%eax
    a1d8:	8b 55 08             	mov    0x8(%ebp),%edx
    a1db:	8b 5d 10             	mov    0x10(%ebp),%ebx
    a1de:	8b 4d 14             	mov    0x14(%ebp),%ecx
    a1e1:	8b 40 14             	mov    0x14(%eax),%eax
    a1e4:	85 c0                	test   %eax,%eax
    a1e6:	74 20                	je     a208 <remote_usb_device_remove+0x38>
    a1e8:	83 ec 08             	sub    $0x8,%esp
    a1eb:	8b 49 08             	mov    0x8(%ecx),%ecx
    a1ee:	51                   	push   %ecx
    a1ef:	52                   	push   %edx
    a1f0:	ff d0                	call   *%eax
    a1f2:	89 5d 08             	mov    %ebx,0x8(%ebp)
    a1f5:	83 c4 10             	add    $0x10,%esp
    a1f8:	8b 5d fc             	mov    -0x4(%ebp),%ebx
    a1fb:	89 45 0c             	mov    %eax,0xc(%ebp)
    a1fe:	c9                   	leave  
    a1ff:	e9 ec 47 00 00       	jmp    e9f0 <async_answer_0@plt>
    a204:	8d 74 26 00          	lea    0x0(%esi,%eiz,1),%esi
    a208:	89 5d 08             	mov    %ebx,0x8(%ebp)
    a20b:	8b 5d fc             	mov    -0x4(%ebp),%ebx
    a20e:	c7 45 0c f5 ff ff ff 	movl   $0xfffffff5,0xc(%ebp)
    a215:	c9                   	leave  
    a216:	e9 d5 47 00 00       	jmp    e9f0 <async_answer_0@plt>
    a21b:	90                   	nop
    a21c:	8d 74 26 00          	lea    0x0(%esi,%eiz,1),%esi

0000a220 <remote_usb_device_enumerate>:
    a220:	55                   	push   %ebp
    a221:	89 e5                	mov    %esp,%ebp
    a223:	53                   	push   %ebx
    a224:	53                   	push   %ebx
    a225:	8b 45 0c             	mov    0xc(%ebp),%eax
    a228:	8b 55 08             	mov    0x8(%ebp),%edx
    a22b:	8b 5d 10             	mov    0x10(%ebp),%ebx
    a22e:	8b 4d 14             	mov    0x14(%ebp),%ecx
    a231:	8b 40 10             	mov    0x10(%eax),%eax
    a234:	85 c0                	test   %eax,%eax
    a236:	74 20                	je     a258 <remote_usb_device_enumerate+0x38>
    a238:	83 ec 08             	sub    $0x8,%esp
    a23b:	8b 49 08             	mov    0x8(%ecx),%ecx
    a23e:	51                   	push   %ecx
    a23f:	52                   	push   %edx
    a240:	ff d0                	call   *%eax
    a242:	89 5d 08             	mov    %ebx,0x8(%ebp)
    a245:	83 c4 10             	add    $0x10,%esp
    a248:	8b 5d fc             	mov    -0x4(%ebp),%ebx
    a24b:	89 45 0c             	mov    %eax,0xc(%ebp)
    a24e:	c9                   	leave  
    a24f:	e9 9c 47 00 00       	jmp    e9f0 <async_answer_0@plt>
    a254:	8d 74 26 00          	lea    0x0(%esi,%eiz,1),%esi
    a258:	89 5d 08             	mov    %ebx,0x8(%ebp)
    a25b:	8b 5d fc             	mov    -0x4(%ebp),%ebx
    a25e:	c7 45 0c f5 ff ff ff 	movl   $0xfffffff5,0xc(%ebp)
    a265:	c9                   	leave  
    a266:	e9 85 47 00 00       	jmp    e9f0 <async_answer_0@plt>
    a26b:	90                   	nop
    a26c:	8d 74 26 00          	lea    0x0(%esi,%eiz,1),%esi

0000a270 <remote_usb_release_default_address>:
    a270:	55                   	push   %ebp
    a271:	89 e5                	mov    %esp,%ebp
    a273:	53                   	push   %ebx
    a274:	50                   	push   %eax
    a275:	8b 45 0c             	mov    0xc(%ebp),%eax
    a278:	8b 55 08             	mov    0x8(%ebp),%edx
    a27b:	8b 5d 10             	mov    0x10(%ebp),%ebx
    a27e:	8b 40 0c             	mov    0xc(%eax),%eax
    a281:	85 c0                	test   %eax,%eax
    a283:	74 1b                	je     a2a0 <remote_usb_release_default_address+0x30>
    a285:	83 ec 0c             	sub    $0xc,%esp
    a288:	52                   	push   %edx
    a289:	ff d0                	call   *%eax
    a28b:	89 5d 08             	mov    %ebx,0x8(%ebp)
    a28e:	83 c4 10             	add    $0x10,%esp
    a291:	8b 5d fc             	mov    -0x4(%ebp),%ebx
    a294:	89 45 0c             	mov    %eax,0xc(%ebp)
    a297:	c9                   	leave  
    a298:	e9 53 47 00 00       	jmp    e9f0 <async_answer_0@plt>
    a29d:	8d 76 00             	lea    0x0(%esi),%esi
    a2a0:	89 5d 08             	mov    %ebx,0x8(%ebp)
    a2a3:	8b 5d fc             	mov    -0x4(%ebp),%ebx
    a2a6:	c7 45 0c f5 ff ff ff 	movl   $0xfffffff5,0xc(%ebp)
    a2ad:	c9                   	leave  
    a2ae:	e9 3d 47 00 00       	jmp    e9f0 <async_answer_0@plt>
    a2b3:	8d b6 00 00 00 00    	lea    0x0(%esi),%esi
    a2b9:	8d bc 27 00 00 00 00 	lea    0x0(%edi,%eiz,1),%edi

0000a2c0 <remote_usb_reserve_default_address>:
    a2c0:	55                   	push   %ebp
    a2c1:	89 e5                	mov    %esp,%ebp
    a2c3:	53                   	push   %ebx
    a2c4:	53                   	push   %ebx
    a2c5:	8b 45 0c             	mov    0xc(%ebp),%eax
    a2c8:	8b 55 08             	mov    0x8(%ebp),%edx
    a2cb:	8b 5d 10             	mov    0x10(%ebp),%ebx
    a2ce:	8b 4d 14             	mov    0x14(%ebp),%ecx
    a2d1:	8b 40 08             	mov    0x8(%eax),%eax
    a2d4:	85 c0                	test   %eax,%eax
    a2d6:	74 20                	je     a2f8 <remote_usb_reserve_default_address+0x38>
    a2d8:	83 ec 08             	sub    $0x8,%esp
    a2db:	8b 49 08             	mov    0x8(%ecx),%ecx
    a2de:	51                   	push   %ecx
    a2df:	52                   	push   %edx
    a2e0:	ff d0                	call   *%eax
    a2e2:	89 5d 08             	mov    %ebx,0x8(%ebp)
    a2e5:	83 c4 10             	add    $0x10,%esp
    a2e8:	8b 5d fc             	mov    -0x4(%ebp),%ebx
    a2eb:	89 45 0c             	mov    %eax,0xc(%ebp)
    a2ee:	c9                   	leave  
    a2ef:	e9 fc 46 00 00       	jmp    e9f0 <async_answer_0@plt>
    a2f4:	8d 74 26 00          	lea    0x0(%esi,%eiz,1),%esi
    a2f8:	89 5d 08             	mov    %ebx,0x8(%ebp)
    a2fb:	8b 5d fc             	mov    -0x4(%ebp),%ebx
    a2fe:	c7 45 0c f5 ff ff ff 	movl   $0xfffffff5,0xc(%ebp)
    a305:	c9                   	leave  
    a306:	e9 e5 46 00 00       	jmp    e9f0 <async_answer_0@plt>
    a30b:	90                   	nop
    a30c:	8d 74 26 00          	lea    0x0(%esi,%eiz,1),%esi

0000a310 <remote_usb_get_my_device_handle>:
    a310:	55                   	push   %ebp
    a311:	89 e5                	mov    %esp,%ebp
    a313:	53                   	push   %ebx
    a314:	83 ec 14             	sub    $0x14,%esp
    a317:	8b 45 0c             	mov    0xc(%ebp),%eax
    a31a:	8b 5d 10             	mov    0x10(%ebp),%ebx
    a31d:	8b 40 04             	mov    0x4(%eax),%eax
    a320:	85 c0                	test   %eax,%eax
    a322:	74 3c                	je     a360 <remote_usb_get_my_device_handle+0x50>
    a324:	8b 4d 08             	mov    0x8(%ebp),%ecx
    a327:	52                   	push   %edx
    a328:	52                   	push   %edx
    a329:	8d 55 f4             	lea    -0xc(%ebp),%edx
    a32c:	52                   	push   %edx
    a32d:	51                   	push   %ecx
    a32e:	ff d0                	call   *%eax
    a330:	83 c4 10             	add    $0x10,%esp
    a333:	85 c0                	test   %eax,%eax
    a335:	75 19                	jne    a350 <remote_usb_get_my_device_handle+0x40>
    a337:	8b 55 f4             	mov    -0xc(%ebp),%edx
    a33a:	50                   	push   %eax
    a33b:	52                   	push   %edx
    a33c:	6a 00                	push   $0x0
    a33e:	53                   	push   %ebx
    a33f:	e8 7c 49 00 00       	call   ecc0 <async_answer_1@plt>
    a344:	83 c4 10             	add    $0x10,%esp
    a347:	8b 5d fc             	mov    -0x4(%ebp),%ebx
    a34a:	c9                   	leave  
    a34b:	c3                   	ret    
    a34c:	8d 74 26 00          	lea    0x0(%esi,%eiz,1),%esi
    a350:	51                   	push   %ecx
    a351:	51                   	push   %ecx
    a352:	50                   	push   %eax
    a353:	53                   	push   %ebx
    a354:	e8 97 46 00 00       	call   e9f0 <async_answer_0@plt>
    a359:	83 c4 10             	add    $0x10,%esp
    a35c:	eb d9                	jmp    a337 <remote_usb_get_my_device_handle+0x27>
    a35e:	66 90                	xchg   %ax,%ax
    a360:	50                   	push   %eax
    a361:	50                   	push   %eax
    a362:	6a f5                	push   $0xfffffff5
    a364:	53                   	push   %ebx
    a365:	e8 86 46 00 00       	call   e9f0 <async_answer_0@plt>
    a36a:	83 c4 10             	add    $0x10,%esp
    a36d:	8b 5d fc             	mov    -0x4(%ebp),%ebx
    a370:	c9                   	leave  
    a371:	c3                   	ret    
    a372:	8d b4 26 00 00 00 00 	lea    0x0(%esi,%eiz,1),%esi
    a379:	8d bc 27 00 00 00 00 	lea    0x0(%edi,%eiz,1),%edi

0000a380 <remote_usb_get_my_interface>:
    a380:	55                   	push   %ebp
    a381:	89 e5                	mov    %esp,%ebp
    a383:	83 ec 18             	sub    $0x18,%esp
    a386:	8b 45 0c             	mov    0xc(%ebp),%eax
    a389:	8b 00                	mov    (%eax),%eax
    a38b:	85 c0                	test   %eax,%eax
    a38d:	74 41                	je     a3d0 <remote_usb_get_my_interface+0x50>
    a38f:	8b 4d 08             	mov    0x8(%ebp),%ecx
    a392:	52                   	push   %edx
    a393:	52                   	push   %edx
    a394:	8d 55 f4             	lea    -0xc(%ebp),%edx
    a397:	52                   	push   %edx
    a398:	51                   	push   %ecx
    a399:	ff d0                	call   *%eax
    a39b:	83 c4 10             	add    $0x10,%esp
    a39e:	85 c0                	test   %eax,%eax
    a3a0:	74 16                	je     a3b8 <remote_usb_get_my_interface+0x38>
    a3a2:	8b 4d 10             	mov    0x10(%ebp),%ecx
    a3a5:	52                   	push   %edx
    a3a6:	52                   	push   %edx
    a3a7:	50                   	push   %eax
    a3a8:	51                   	push   %ecx
    a3a9:	e8 42 46 00 00       	call   e9f0 <async_answer_0@plt>
    a3ae:	83 c4 10             	add    $0x10,%esp
    a3b1:	c9                   	leave  
    a3b2:	c3                   	ret    
    a3b3:	90                   	nop
    a3b4:	8d 74 26 00          	lea    0x0(%esi,%eiz,1),%esi
    a3b8:	8b 55 f4             	mov    -0xc(%ebp),%edx
    a3bb:	8b 4d 10             	mov    0x10(%ebp),%ecx
    a3be:	50                   	push   %eax
    a3bf:	52                   	push   %edx
    a3c0:	6a 00                	push   $0x0
    a3c2:	51                   	push   %ecx
    a3c3:	e8 f8 48 00 00       	call   ecc0 <async_answer_1@plt>
    a3c8:	83 c4 10             	add    $0x10,%esp
    a3cb:	c9                   	leave  
    a3cc:	c3                   	ret    
    a3cd:	8d 76 00             	lea    0x0(%esi),%esi
    a3d0:	50                   	push   %eax
    a3d1:	50                   	push   %eax
    a3d2:	8b 45 10             	mov    0x10(%ebp),%eax
    a3d5:	6a f5                	push   $0xfffffff5
    a3d7:	50                   	push   %eax
    a3d8:	e8 13 46 00 00       	call   e9f0 <async_answer_0@plt>
    a3dd:	83 c4 10             	add    $0x10,%esp
    a3e0:	c9                   	leave  
    a3e1:	c3                   	ret    
    a3e2:	8d b4 26 00 00 00 00 	lea    0x0(%esi,%eiz,1),%esi
    a3e9:	8d bc 27 00 00 00 00 	lea    0x0(%edi,%eiz,1),%edi

0000a3f0 <callback_out>:
    a3f0:	55                   	push   %ebp
    a3f1:	89 e5                	mov    %esp,%ebp
    a3f3:	53                   	push   %ebx
    a3f4:	83 ec 0c             	sub    $0xc,%esp
    a3f7:	8b 5d 0c             	mov    0xc(%ebp),%ebx
    a3fa:	8b 45 08             	mov    0x8(%ebp),%eax
    a3fd:	50                   	push   %eax
    a3fe:	8b 13                	mov    (%ebx),%edx
    a400:	52                   	push   %edx
    a401:	e8 ea 45 00 00       	call   e9f0 <async_answer_0@plt>
    a406:	8b 43 08             	mov    0x8(%ebx),%eax
    a409:	83 c4 10             	add    $0x10,%esp
    a40c:	85 c0                	test   %eax,%eax
    a40e:	74 0c                	je     a41c <callback_out+0x2c>
    a410:	83 ec 0c             	sub    $0xc,%esp
    a413:	50                   	push   %eax
    a414:	e8 c7 49 00 00       	call   ede0 <free@plt>
    a419:	83 c4 10             	add    $0x10,%esp
    a41c:	89 5d 08             	mov    %ebx,0x8(%ebp)
    a41f:	8b 5d fc             	mov    -0x4(%ebp),%ebx
    a422:	c9                   	leave  
    a423:	e9 b8 49 00 00       	jmp    ede0 <free@plt>
    a428:	90                   	nop
    a429:	8d b4 26 00 00 00 00 	lea    0x0(%esi,%eiz,1),%esi

0000a430 <callback_in>:
    a430:	55                   	push   %ebp
    a431:	89 e5                	mov    %esp,%ebp
    a433:	53                   	push   %ebx
    a434:	53                   	push   %ebx
    a435:	8b 45 08             	mov    0x8(%ebp),%eax
    a438:	8b 55 0c             	mov    0xc(%ebp),%edx
    a43b:	8b 5d 10             	mov    0x10(%ebp),%ebx
    a43e:	85 c0                	test   %eax,%eax
    a440:	75 36                	jne    a478 <callback_in+0x48>
    a442:	8b 43 04             	mov    0x4(%ebx),%eax
    a445:	85 c0                	test   %eax,%eax
    a447:	75 4f                	jne    a498 <callback_in+0x68>
    a449:	50                   	push   %eax
    a44a:	50                   	push   %eax
    a44b:	6a 00                	push   $0x0
    a44d:	8b 13                	mov    (%ebx),%edx
    a44f:	52                   	push   %edx
    a450:	e8 9b 45 00 00       	call   e9f0 <async_answer_0@plt>
    a455:	8b 43 08             	mov    0x8(%ebx),%eax
    a458:	83 c4 10             	add    $0x10,%esp
    a45b:	85 c0                	test   %eax,%eax
    a45d:	74 0c                	je     a46b <callback_in+0x3b>
    a45f:	83 ec 0c             	sub    $0xc,%esp
    a462:	50                   	push   %eax
    a463:	e8 78 49 00 00       	call   ede0 <free@plt>
    a468:	83 c4 10             	add    $0x10,%esp
    a46b:	89 5d 08             	mov    %ebx,0x8(%ebp)
    a46e:	8b 5d fc             	mov    -0x4(%ebp),%ebx
    a471:	c9                   	leave  
    a472:	e9 69 49 00 00       	jmp    ede0 <free@plt>
    a477:	90                   	nop
    a478:	52                   	push   %edx
    a479:	52                   	push   %edx
    a47a:	50                   	push   %eax
    a47b:	8b 0b                	mov    (%ebx),%ecx
    a47d:	51                   	push   %ecx
    a47e:	e8 6d 45 00 00       	call   e9f0 <async_answer_0@plt>
    a483:	8b 43 04             	mov    0x4(%ebx),%eax
    a486:	83 c4 10             	add    $0x10,%esp
    a489:	85 c0                	test   %eax,%eax
    a48b:	75 23                	jne    a4b0 <callback_in+0x80>
    a48d:	8b 43 08             	mov    0x8(%ebx),%eax
    a490:	85 c0                	test   %eax,%eax
    a492:	75 cb                	jne    a45f <callback_in+0x2f>
    a494:	eb d5                	jmp    a46b <callback_in+0x3b>
    a496:	66 90                	xchg   %ax,%ax
    a498:	51                   	push   %ecx
    a499:	52                   	push   %edx
    a49a:	8b 53 08             	mov    0x8(%ebx),%edx
    a49d:	52                   	push   %edx
    a49e:	50                   	push   %eax
    a49f:	e8 dc 44 00 00       	call   e980 <async_data_read_finalize@plt>
    a4a4:	83 c4 10             	add    $0x10,%esp
    a4a7:	eb a0                	jmp    a449 <callback_in+0x19>
    a4a9:	8d b4 26 00 00 00 00 	lea    0x0(%esi,%eiz,1),%esi
    a4b0:	51                   	push   %ecx
    a4b1:	51                   	push   %ecx
    a4b2:	6a ef                	push   $0xffffffef
    a4b4:	50                   	push   %eax
    a4b5:	e8 36 45 00 00       	call   e9f0 <async_answer_0@plt>
    a4ba:	8b 43 08             	mov    0x8(%ebx),%eax
    a4bd:	83 c4 10             	add    $0x10,%esp
    a4c0:	85 c0                	test   %eax,%eax
    a4c2:	75 9b                	jne    a45f <callback_in+0x2f>
    a4c4:	eb a5                	jmp    a46b <callback_in+0x3b>
    a4c6:	8d 76 00             	lea    0x0(%esi),%esi
    a4c9:	8d bc 27 00 00 00 00 	lea    0x0(%edi,%eiz,1),%edi

0000a4d0 <remote_usb_write>:
    a4d0:	55                   	push   %ebp
    a4d1:	89 e5                	mov    %esp,%ebp
    a4d3:	57                   	push   %edi
    a4d4:	56                   	push   %esi
    a4d5:	53                   	push   %ebx
    a4d6:	83 ec 2c             	sub    $0x2c,%esp
    a4d9:	8b 55 08             	mov    0x8(%ebp),%edx
    a4dc:	8b 45 14             	mov    0x14(%ebp),%eax
    a4df:	85 d2                	test   %edx,%edx
    a4e1:	0f 84 53 01 00 00    	je     a63a <remote_usb_write+0x16a>
    a4e7:	8b 75 0c             	mov    0xc(%ebp),%esi
    a4ea:	85 f6                	test   %esi,%esi
    a4ec:	0f 84 33 01 00 00    	je     a625 <remote_usb_write+0x155>
    a4f2:	85 c0                	test   %eax,%eax
    a4f4:	0f 84 16 01 00 00    	je     a610 <remote_usb_write+0x140>
    a4fa:	8b 4d 0c             	mov    0xc(%ebp),%ecx
    a4fd:	8b 51 24             	mov    0x24(%ecx),%edx
    a500:	85 d2                	test   %edx,%edx
    a502:	0f 84 d8 00 00 00    	je     a5e0 <remote_usb_write+0x110>
    a508:	83 ec 0c             	sub    $0xc,%esp
    a50b:	8b 50 14             	mov    0x14(%eax),%edx
    a50e:	8b 70 08             	mov    0x8(%eax),%esi
    a511:	8b 58 0c             	mov    0xc(%eax),%ebx
    a514:	8b 40 10             	mov    0x10(%eax),%eax
    a517:	89 55 d4             	mov    %edx,-0x2c(%ebp)
    a51a:	6a 0c                	push   $0xc
    a51c:	89 45 d0             	mov    %eax,-0x30(%ebp)
    a51f:	e8 8c 44 00 00       	call   e9b0 <malloc@plt>
    a524:	83 c4 10             	add    $0x10,%esp
    a527:	89 c7                	mov    %eax,%edi
    a529:	85 c0                	test   %eax,%eax
    a52b:	0f 84 c7 00 00 00    	je     a5f8 <remote_usb_write+0x128>
    a531:	8b 45 10             	mov    0x10(%ebp),%eax
    a534:	c7 47 04 00 00 00 00 	movl   $0x0,0x4(%edi)
    a53b:	89 07                	mov    %eax,(%edi)
    a53d:	c7 47 08 00 00 00 00 	movl   $0x0,0x8(%edi)
    a544:	c7 45 e4 00 00 00 00 	movl   $0x0,-0x1c(%ebp)
    a54b:	85 db                	test   %ebx,%ebx
    a54d:	75 31                	jne    a580 <remote_usb_write+0xb0>
    a54f:	31 c0                	xor    %eax,%eax
    a551:	31 c9                	xor    %ecx,%ecx
    a553:	57                   	push   %edi
    a554:	68 f0 a3 00 00       	push   $0xa3f0
    a559:	51                   	push   %ecx
    a55a:	50                   	push   %eax
    a55b:	8b 45 d4             	mov    -0x2c(%ebp),%eax
    a55e:	50                   	push   %eax
    a55f:	8b 45 d0             	mov    -0x30(%ebp),%eax
    a562:	50                   	push   %eax
    a563:	8b 45 08             	mov    0x8(%ebp),%eax
    a566:	0f bf f6             	movswl %si,%esi
    a569:	56                   	push   %esi
    a56a:	50                   	push   %eax
    a56b:	8b 45 0c             	mov    0xc(%ebp),%eax
    a56e:	ff 50 24             	call   *0x24(%eax)
    a571:	83 c4 20             	add    $0x20,%esp
    a574:	85 c0                	test   %eax,%eax
    a576:	75 30                	jne    a5a8 <remote_usb_write+0xd8>
    a578:	8d 65 f4             	lea    -0xc(%ebp),%esp
    a57b:	5b                   	pop    %ebx
    a57c:	5e                   	pop    %esi
    a57d:	5f                   	pop    %edi
    a57e:	5d                   	pop    %ebp
    a57f:	c3                   	ret    
    a580:	50                   	push   %eax
    a581:	50                   	push   %eax
    a582:	8d 45 e4             	lea    -0x1c(%ebp),%eax
    a585:	50                   	push   %eax
    a586:	8d 47 08             	lea    0x8(%edi),%eax
    a589:	6a 00                	push   $0x0
    a58b:	53                   	push   %ebx
    a58c:	6a 01                	push   $0x1
    a58e:	6a 00                	push   $0x0
    a590:	50                   	push   %eax
    a591:	e8 ba 47 00 00       	call   ed50 <async_data_write_accept@plt>
    a596:	83 c4 20             	add    $0x20,%esp
    a599:	85 c0                	test   %eax,%eax
    a59b:	75 0b                	jne    a5a8 <remote_usb_write+0xd8>
    a59d:	8b 4d e4             	mov    -0x1c(%ebp),%ecx
    a5a0:	8b 47 08             	mov    0x8(%edi),%eax
    a5a3:	eb ae                	jmp    a553 <remote_usb_write+0x83>
    a5a5:	8d 76 00             	lea    0x0(%esi),%esi
    a5a8:	8b 5d 10             	mov    0x10(%ebp),%ebx
    a5ab:	51                   	push   %ecx
    a5ac:	51                   	push   %ecx
    a5ad:	50                   	push   %eax
    a5ae:	53                   	push   %ebx
    a5af:	e8 3c 44 00 00       	call   e9f0 <async_answer_0@plt>
    a5b4:	8b 47 08             	mov    0x8(%edi),%eax
    a5b7:	83 c4 10             	add    $0x10,%esp
    a5ba:	85 c0                	test   %eax,%eax
    a5bc:	74 0c                	je     a5ca <remote_usb_write+0xfa>
    a5be:	83 ec 0c             	sub    $0xc,%esp
    a5c1:	50                   	push   %eax
    a5c2:	e8 19 48 00 00       	call   ede0 <free@plt>
    a5c7:	83 c4 10             	add    $0x10,%esp
    a5ca:	83 ec 0c             	sub    $0xc,%esp
    a5cd:	57                   	push   %edi
    a5ce:	e8 0d 48 00 00       	call   ede0 <free@plt>
    a5d3:	83 c4 10             	add    $0x10,%esp
    a5d6:	8d 65 f4             	lea    -0xc(%ebp),%esp
    a5d9:	5b                   	pop    %ebx
    a5da:	5e                   	pop    %esi
    a5db:	5f                   	pop    %edi
    a5dc:	5d                   	pop    %ebp
    a5dd:	c3                   	ret    
    a5de:	66 90                	xchg   %ax,%ax
    a5e0:	50                   	push   %eax
    a5e1:	50                   	push   %eax
    a5e2:	8b 45 10             	mov    0x10(%ebp),%eax
    a5e5:	6a f5                	push   $0xfffffff5
    a5e7:	50                   	push   %eax
    a5e8:	e8 03 44 00 00       	call   e9f0 <async_answer_0@plt>
    a5ed:	83 c4 10             	add    $0x10,%esp
    a5f0:	8d 65 f4             	lea    -0xc(%ebp),%esp
    a5f3:	5b                   	pop    %ebx
    a5f4:	5e                   	pop    %esi
    a5f5:	5f                   	pop    %edi
    a5f6:	5d                   	pop    %ebp
    a5f7:	c3                   	ret    
    a5f8:	8b 55 10             	mov    0x10(%ebp),%edx
    a5fb:	50                   	push   %eax
    a5fc:	50                   	push   %eax
    a5fd:	6a fe                	push   $0xfffffffe
    a5ff:	52                   	push   %edx
    a600:	e8 eb 43 00 00       	call   e9f0 <async_answer_0@plt>
    a605:	83 c4 10             	add    $0x10,%esp
    a608:	8d 65 f4             	lea    -0xc(%ebp),%esp
    a60b:	5b                   	pop    %ebx
    a60c:	5e                   	pop    %esi
    a60d:	5f                   	pop    %edi
    a60e:	5d                   	pop    %ebp
    a60f:	c3                   	ret    
    a610:	51                   	push   %ecx
    a611:	68 42 02 00 00       	push   $0x242
    a616:	68 04 e4 00 00       	push   $0xe404
    a61b:	68 23 e4 00 00       	push   $0xe423
    a620:	e8 6b 44 00 00       	call   ea90 <assert_abort@plt>
    a625:	53                   	push   %ebx
    a626:	68 41 02 00 00       	push   $0x241
    a62b:	68 04 e4 00 00       	push   $0xe404
    a630:	68 1d e4 00 00       	push   $0xe41d
    a635:	e8 56 44 00 00       	call   ea90 <assert_abort@plt>
    a63a:	57                   	push   %edi
    a63b:	68 40 02 00 00       	push   $0x240
    a640:	68 04 e4 00 00       	push   $0xe404
    a645:	68 19 e4 00 00       	push   $0xe419
    a64a:	e8 41 44 00 00       	call   ea90 <assert_abort@plt>
    a64f:	90                   	nop

0000a650 <remote_usb_read>:
    a650:	55                   	push   %ebp
    a651:	89 e5                	mov    %esp,%ebp
    a653:	57                   	push   %edi
    a654:	56                   	push   %esi
    a655:	53                   	push   %ebx
    a656:	83 ec 2c             	sub    $0x2c,%esp
    a659:	8b 7d 08             	mov    0x8(%ebp),%edi
    a65c:	8b 5d 0c             	mov    0xc(%ebp),%ebx
    a65f:	8b 45 14             	mov    0x14(%ebp),%eax
    a662:	85 ff                	test   %edi,%edi
    a664:	0f 84 4c 01 00 00    	je     a7b6 <remote_usb_read+0x166>
    a66a:	85 db                	test   %ebx,%ebx
    a66c:	0f 84 6e 01 00 00    	je     a7e0 <remote_usb_read+0x190>
    a672:	85 c0                	test   %eax,%eax
    a674:	0f 84 51 01 00 00    	je     a7cb <remote_usb_read+0x17b>
    a67a:	8b 53 20             	mov    0x20(%ebx),%edx
    a67d:	85 d2                	test   %edx,%edx
    a67f:	0f 84 eb 00 00 00    	je     a770 <remote_usb_read+0x120>
    a685:	83 ec 0c             	sub    $0xc,%esp
    a688:	8b 50 10             	mov    0x10(%eax),%edx
    a68b:	8b 70 08             	mov    0x8(%eax),%esi
    a68e:	8b 40 0c             	mov    0xc(%eax),%eax
    a691:	89 45 d0             	mov    %eax,-0x30(%ebp)
    a694:	6a 0c                	push   $0xc
    a696:	89 55 d4             	mov    %edx,-0x2c(%ebp)
    a699:	e8 12 43 00 00       	call   e9b0 <malloc@plt>
    a69e:	83 c4 10             	add    $0x10,%esp
    a6a1:	89 c7                	mov    %eax,%edi
    a6a3:	85 c0                	test   %eax,%eax
    a6a5:	0f 84 dd 00 00 00    	je     a788 <remote_usb_read+0x138>
    a6ab:	8b 45 10             	mov    0x10(%ebp),%eax
    a6ae:	c7 47 04 00 00 00 00 	movl   $0x0,0x4(%edi)
    a6b5:	89 07                	mov    %eax,(%edi)
    a6b7:	c7 47 08 00 00 00 00 	movl   $0x0,0x8(%edi)
    a6be:	50                   	push   %eax
    a6bf:	50                   	push   %eax
    a6c0:	8d 45 e4             	lea    -0x1c(%ebp),%eax
    a6c3:	c7 45 e4 00 00 00 00 	movl   $0x0,-0x1c(%ebp)
    a6ca:	50                   	push   %eax
    a6cb:	8d 47 04             	lea    0x4(%edi),%eax
    a6ce:	50                   	push   %eax
    a6cf:	e8 4c 45 00 00       	call   ec20 <async_data_read_receive@plt>
    a6d4:	83 c4 10             	add    $0x10,%esp
    a6d7:	84 c0                	test   %al,%al
    a6d9:	75 3d                	jne    a718 <remote_usb_read+0xc8>
    a6db:	53                   	push   %ebx
    a6dc:	53                   	push   %ebx
    a6dd:	6a f8                	push   $0xfffffff8
    a6df:	8b 4d 10             	mov    0x10(%ebp),%ecx
    a6e2:	51                   	push   %ecx
    a6e3:	e8 08 43 00 00       	call   e9f0 <async_answer_0@plt>
    a6e8:	8b 47 08             	mov    0x8(%edi),%eax
    a6eb:	83 c4 10             	add    $0x10,%esp
    a6ee:	85 c0                	test   %eax,%eax
    a6f0:	74 0c                	je     a6fe <remote_usb_read+0xae>
    a6f2:	83 ec 0c             	sub    $0xc,%esp
    a6f5:	50                   	push   %eax
    a6f6:	e8 e5 46 00 00       	call   ede0 <free@plt>
    a6fb:	83 c4 10             	add    $0x10,%esp
    a6fe:	83 ec 0c             	sub    $0xc,%esp
    a701:	57                   	push   %edi
    a702:	e8 d9 46 00 00       	call   ede0 <free@plt>
    a707:	83 c4 10             	add    $0x10,%esp
    a70a:	8d 65 f4             	lea    -0xc(%ebp),%esp
    a70d:	5b                   	pop    %ebx
    a70e:	5e                   	pop    %esi
    a70f:	5f                   	pop    %edi
    a710:	5d                   	pop    %ebp
    a711:	c3                   	ret    
    a712:	8d b6 00 00 00 00    	lea    0x0(%esi),%esi
    a718:	83 ec 0c             	sub    $0xc,%esp
    a71b:	8b 4d e4             	mov    -0x1c(%ebp),%ecx
    a71e:	51                   	push   %ecx
    a71f:	e8 8c 42 00 00       	call   e9b0 <malloc@plt>
    a724:	83 c4 10             	add    $0x10,%esp
    a727:	89 47 08             	mov    %eax,0x8(%edi)
    a72a:	85 c0                	test   %eax,%eax
    a72c:	74 72                	je     a7a0 <remote_usb_read+0x150>
    a72e:	8b 4d e4             	mov    -0x1c(%ebp),%ecx
    a731:	57                   	push   %edi
    a732:	68 30 a4 00 00       	push   $0xa430
    a737:	51                   	push   %ecx
    a738:	50                   	push   %eax
    a739:	8b 45 d4             	mov    -0x2c(%ebp),%eax
    a73c:	50                   	push   %eax
    a73d:	8b 45 d0             	mov    -0x30(%ebp),%eax
    a740:	50                   	push   %eax
    a741:	8b 45 08             	mov    0x8(%ebp),%eax
    a744:	0f bf f6             	movswl %si,%esi
    a747:	56                   	push   %esi
    a748:	50                   	push   %eax
    a749:	ff 53 20             	call   *0x20(%ebx)
    a74c:	83 c4 20             	add    $0x20,%esp
    a74f:	89 c3                	mov    %eax,%ebx
    a751:	85 c0                	test   %eax,%eax
    a753:	74 b5                	je     a70a <remote_usb_read+0xba>
    a755:	56                   	push   %esi
    a756:	56                   	push   %esi
    a757:	50                   	push   %eax
    a758:	8b 47 04             	mov    0x4(%edi),%eax
    a75b:	50                   	push   %eax
    a75c:	e8 8f 42 00 00       	call   e9f0 <async_answer_0@plt>
    a761:	58                   	pop    %eax
    a762:	5a                   	pop    %edx
    a763:	53                   	push   %ebx
    a764:	e9 76 ff ff ff       	jmp    a6df <remote_usb_read+0x8f>
    a769:	8d b4 26 00 00 00 00 	lea    0x0(%esi,%eiz,1),%esi
    a770:	50                   	push   %eax
    a771:	50                   	push   %eax
    a772:	8b 45 10             	mov    0x10(%ebp),%eax
    a775:	6a f5                	push   $0xfffffff5
    a777:	50                   	push   %eax
    a778:	e8 73 42 00 00       	call   e9f0 <async_answer_0@plt>
    a77d:	83 c4 10             	add    $0x10,%esp
    a780:	8d 65 f4             	lea    -0xc(%ebp),%esp
    a783:	5b                   	pop    %ebx
    a784:	5e                   	pop    %esi
    a785:	5f                   	pop    %edi
    a786:	5d                   	pop    %ebp
    a787:	c3                   	ret    
    a788:	8b 55 10             	mov    0x10(%ebp),%edx
    a78b:	50                   	push   %eax
    a78c:	50                   	push   %eax
    a78d:	6a fe                	push   $0xfffffffe
    a78f:	52                   	push   %edx
    a790:	e8 5b 42 00 00       	call   e9f0 <async_answer_0@plt>
    a795:	83 c4 10             	add    $0x10,%esp
    a798:	8d 65 f4             	lea    -0xc(%ebp),%esp
    a79b:	5b                   	pop    %ebx
    a79c:	5e                   	pop    %esi
    a79d:	5f                   	pop    %edi
    a79e:	5d                   	pop    %ebp
    a79f:	c3                   	ret    
    a7a0:	50                   	push   %eax
    a7a1:	50                   	push   %eax
    a7a2:	6a fe                	push   $0xfffffffe
    a7a4:	8b 47 04             	mov    0x4(%edi),%eax
    a7a7:	50                   	push   %eax
    a7a8:	e8 43 42 00 00       	call   e9f0 <async_answer_0@plt>
    a7ad:	58                   	pop    %eax
    a7ae:	5a                   	pop    %edx
    a7af:	6a fe                	push   $0xfffffffe
    a7b1:	e9 29 ff ff ff       	jmp    a6df <remote_usb_read+0x8f>
    a7b6:	56                   	push   %esi
    a7b7:	68 0e 02 00 00       	push   $0x20e
    a7bc:	68 04 e4 00 00       	push   $0xe404
    a7c1:	68 19 e4 00 00       	push   $0xe419
    a7c6:	e8 c5 42 00 00       	call   ea90 <assert_abort@plt>
    a7cb:	51                   	push   %ecx
    a7cc:	68 10 02 00 00       	push   $0x210
    a7d1:	68 04 e4 00 00       	push   $0xe404
    a7d6:	68 23 e4 00 00       	push   $0xe423
    a7db:	e8 b0 42 00 00       	call   ea90 <assert_abort@plt>
    a7e0:	53                   	push   %ebx
    a7e1:	68 0f 02 00 00       	push   $0x20f
    a7e6:	68 04 e4 00 00       	push   $0xe404
    a7eb:	68 1d e4 00 00       	push   $0xe41d
    a7f0:	e8 9b 42 00 00       	call   ea90 <assert_abort@plt>
    a7f5:	8d 74 26 00          	lea    0x0(%esi,%eiz,1),%esi
    a7f9:	8d bc 27 00 00 00 00 	lea    0x0(%edi,%eiz,1),%edi

0000a800 <usb_dev_connect>:
    a800:	55                   	push   %ebp
    a801:	89 e5                	mov    %esp,%ebp
    a803:	83 ec 10             	sub    $0x10,%esp
    a806:	8b 45 08             	mov    0x8(%ebp),%eax
    a809:	6a 01                	push   $0x1
    a80b:	50                   	push   %eax
    a80c:	e8 9f 40 00 00       	call   e8b0 <devman_device_connect@plt>
    a811:	c9                   	leave  
    a812:	c3                   	ret    
    a813:	8d b6 00 00 00 00    	lea    0x0(%esi),%esi
    a819:	8d bc 27 00 00 00 00 	lea    0x0(%edi,%eiz,1),%edi

0000a820 <usb_dev_connect_to_self>:
    a820:	55                   	push   %ebp
    a821:	89 e5                	mov    %esp,%ebp
    a823:	83 ec 14             	sub    $0x14,%esp
    a826:	8b 45 08             	mov    0x8(%ebp),%eax
    a829:	50                   	push   %eax
    a82a:	e8 a1 97 ff ff       	call   3fd0 <ddf_dev_get_handle>
    a82f:	5a                   	pop    %edx
    a830:	59                   	pop    %ecx
    a831:	6a 01                	push   $0x1
    a833:	50                   	push   %eax
    a834:	e8 f7 40 00 00       	call   e930 <devman_parent_device_connect@plt>
    a839:	c9                   	leave  
    a83a:	c3                   	ret    
    a83b:	90                   	nop
    a83c:	8d 74 26 00          	lea    0x0(%esi,%eiz,1),%esi

0000a840 <usb_dev_disconnect>:
    a840:	55                   	push   %ebp
    a841:	89 e5                	mov    %esp,%ebp
    a843:	8b 45 08             	mov    0x8(%ebp),%eax
    a846:	85 c0                	test   %eax,%eax
    a848:	74 06                	je     a850 <usb_dev_disconnect+0x10>
    a84a:	5d                   	pop    %ebp
    a84b:	e9 b0 40 00 00       	jmp    e900 <async_hangup@plt>
    a850:	5d                   	pop    %ebp
    a851:	c3                   	ret    
    a852:	8d b4 26 00 00 00 00 	lea    0x0(%esi,%eiz,1),%esi
    a859:	8d bc 27 00 00 00 00 	lea    0x0(%edi,%eiz,1),%edi

0000a860 <usb_get_my_interface>:
    a860:	55                   	push   %ebp
    a861:	89 e5                	mov    %esp,%ebp
    a863:	53                   	push   %ebx
    a864:	83 ec 14             	sub    $0x14,%esp
    a867:	8b 45 08             	mov    0x8(%ebp),%eax
    a86a:	8b 5d 0c             	mov    0xc(%ebp),%ebx
    a86d:	85 c0                	test   %eax,%eax
    a86f:	74 37                	je     a8a8 <usb_get_my_interface+0x48>
    a871:	52                   	push   %edx
    a872:	8d 55 f4             	lea    -0xc(%ebp),%edx
    a875:	6a 00                	push   $0x0
    a877:	6a 00                	push   $0x0
    a879:	6a 00                	push   $0x0
    a87b:	6a 00                	push   $0x0
    a87d:	52                   	push   %edx
    a87e:	6a 00                	push   $0x0
    a880:	6a 00                	push   $0x0
    a882:	6a 00                	push   $0x0
    a884:	6a 00                	push   $0x0
    a886:	68 08 04 00 00       	push   $0x408
    a88b:	50                   	push   %eax
    a88c:	e8 4f 41 00 00       	call   e9e0 <async_req_fast@plt>
    a891:	83 c4 30             	add    $0x30,%esp
    a894:	85 c0                	test   %eax,%eax
    a896:	75 09                	jne    a8a1 <usb_get_my_interface+0x41>
    a898:	85 db                	test   %ebx,%ebx
    a89a:	74 05                	je     a8a1 <usb_get_my_interface+0x41>
    a89c:	8b 55 f4             	mov    -0xc(%ebp),%edx
    a89f:	89 13                	mov    %edx,(%ebx)
    a8a1:	8b 5d fc             	mov    -0x4(%ebp),%ebx
    a8a4:	c9                   	leave  
    a8a5:	c3                   	ret    
    a8a6:	66 90                	xchg   %ax,%ax
    a8a8:	b8 f6 ff ff ff       	mov    $0xfffffff6,%eax
    a8ad:	eb f2                	jmp    a8a1 <usb_get_my_interface+0x41>
    a8af:	90                   	nop

0000a8b0 <usb_get_my_device_handle>:
    a8b0:	55                   	push   %ebp
    a8b1:	89 e5                	mov    %esp,%ebp
    a8b3:	53                   	push   %ebx
    a8b4:	83 ec 18             	sub    $0x18,%esp
    a8b7:	8d 45 f4             	lea    -0xc(%ebp),%eax
    a8ba:	8b 5d 0c             	mov    0xc(%ebp),%ebx
    a8bd:	6a 00                	push   $0x0
    a8bf:	6a 00                	push   $0x0
    a8c1:	6a 00                	push   $0x0
    a8c3:	6a 00                	push   $0x0
    a8c5:	50                   	push   %eax
    a8c6:	8b 45 08             	mov    0x8(%ebp),%eax
    a8c9:	6a 00                	push   $0x0
    a8cb:	c7 45 f4 00 00 00 00 	movl   $0x0,-0xc(%ebp)
    a8d2:	6a 00                	push   $0x0
    a8d4:	6a 00                	push   $0x0
    a8d6:	6a 01                	push   $0x1
    a8d8:	68 08 04 00 00       	push   $0x408
    a8dd:	50                   	push   %eax
    a8de:	e8 fd 40 00 00       	call   e9e0 <async_req_fast@plt>
    a8e3:	83 c4 30             	add    $0x30,%esp
    a8e6:	85 c0                	test   %eax,%eax
    a8e8:	75 09                	jne    a8f3 <usb_get_my_device_handle+0x43>
    a8ea:	85 db                	test   %ebx,%ebx
    a8ec:	74 05                	je     a8f3 <usb_get_my_device_handle+0x43>
    a8ee:	8b 55 f4             	mov    -0xc(%ebp),%edx
    a8f1:	89 13                	mov    %edx,(%ebx)
    a8f3:	8b 5d fc             	mov    -0x4(%ebp),%ebx
    a8f6:	c9                   	leave  
    a8f7:	c3                   	ret    
    a8f8:	90                   	nop
    a8f9:	8d b4 26 00 00 00 00 	lea    0x0(%esi,%eiz,1),%esi

0000a900 <usb_reserve_default_address>:
    a900:	55                   	push   %ebp
    a901:	89 e5                	mov    %esp,%ebp
    a903:	83 ec 08             	sub    $0x8,%esp
    a906:	8b 45 08             	mov    0x8(%ebp),%eax
    a909:	85 c0                	test   %eax,%eax
    a90b:	74 2b                	je     a938 <usb_reserve_default_address+0x38>
    a90d:	8b 4d 0c             	mov    0xc(%ebp),%ecx
    a910:	52                   	push   %edx
    a911:	6a 00                	push   $0x0
    a913:	6a 00                	push   $0x0
    a915:	6a 00                	push   $0x0
    a917:	6a 00                	push   $0x0
    a919:	6a 00                	push   $0x0
    a91b:	6a 00                	push   $0x0
    a91d:	6a 00                	push   $0x0
    a91f:	51                   	push   %ecx
    a920:	6a 02                	push   $0x2
    a922:	68 08 04 00 00       	push   $0x408
    a927:	50                   	push   %eax
    a928:	e8 b3 40 00 00       	call   e9e0 <async_req_fast@plt>
    a92d:	83 c4 30             	add    $0x30,%esp
    a930:	c9                   	leave  
    a931:	c3                   	ret    
    a932:	8d b6 00 00 00 00    	lea    0x0(%esi),%esi
    a938:	b8 f6 ff ff ff       	mov    $0xfffffff6,%eax
    a93d:	c9                   	leave  
    a93e:	c3                   	ret    
    a93f:	90                   	nop

0000a940 <usb_release_default_address>:
    a940:	55                   	push   %ebp
    a941:	89 e5                	mov    %esp,%ebp
    a943:	83 ec 08             	sub    $0x8,%esp
    a946:	8b 45 08             	mov    0x8(%ebp),%eax
    a949:	85 c0                	test   %eax,%eax
    a94b:	74 23                	je     a970 <usb_release_default_address+0x30>
    a94d:	52                   	push   %edx
    a94e:	6a 00                	push   $0x0
    a950:	6a 00                	push   $0x0
    a952:	6a 00                	push   $0x0
    a954:	6a 00                	push   $0x0
    a956:	6a 00                	push   $0x0
    a958:	6a 00                	push   $0x0
    a95a:	6a 00                	push   $0x0
    a95c:	6a 00                	push   $0x0
    a95e:	6a 03                	push   $0x3
    a960:	68 08 04 00 00       	push   $0x408
    a965:	50                   	push   %eax
    a966:	e8 75 40 00 00       	call   e9e0 <async_req_fast@plt>
    a96b:	83 c4 30             	add    $0x30,%esp
    a96e:	c9                   	leave  
    a96f:	c3                   	ret    
    a970:	b8 f6 ff ff ff       	mov    $0xfffffff6,%eax
    a975:	c9                   	leave  
    a976:	c3                   	ret    
    a977:	89 f6                	mov    %esi,%esi
    a979:	8d bc 27 00 00 00 00 	lea    0x0(%edi,%eiz,1),%edi

0000a980 <usb_device_enumerate>:
    a980:	55                   	push   %ebp
    a981:	89 e5                	mov    %esp,%ebp
    a983:	83 ec 08             	sub    $0x8,%esp
    a986:	8b 45 08             	mov    0x8(%ebp),%eax
    a989:	85 c0                	test   %eax,%eax
    a98b:	74 2b                	je     a9b8 <usb_device_enumerate+0x38>
    a98d:	8b 4d 0c             	mov    0xc(%ebp),%ecx
    a990:	52                   	push   %edx
    a991:	6a 00                	push   $0x0
    a993:	6a 00                	push   $0x0
    a995:	6a 00                	push   $0x0
    a997:	6a 00                	push   $0x0
    a999:	6a 00                	push   $0x0
    a99b:	6a 00                	push   $0x0
    a99d:	6a 00                	push   $0x0
    a99f:	51                   	push   %ecx
    a9a0:	6a 04                	push   $0x4
    a9a2:	68 08 04 00 00       	push   $0x408
    a9a7:	50                   	push   %eax
    a9a8:	e8 33 40 00 00       	call   e9e0 <async_req_fast@plt>
    a9ad:	83 c4 30             	add    $0x30,%esp
    a9b0:	c9                   	leave  
    a9b1:	c3                   	ret    
    a9b2:	8d b6 00 00 00 00    	lea    0x0(%esi),%esi
    a9b8:	b8 f6 ff ff ff       	mov    $0xfffffff6,%eax
    a9bd:	c9                   	leave  
    a9be:	c3                   	ret    
    a9bf:	90                   	nop

0000a9c0 <usb_device_remove>:
    a9c0:	55                   	push   %ebp
    a9c1:	89 e5                	mov    %esp,%ebp
    a9c3:	83 ec 08             	sub    $0x8,%esp
    a9c6:	8b 45 08             	mov    0x8(%ebp),%eax
    a9c9:	85 c0                	test   %eax,%eax
    a9cb:	74 2b                	je     a9f8 <usb_device_remove+0x38>
    a9cd:	8b 4d 0c             	mov    0xc(%ebp),%ecx
    a9d0:	52                   	push   %edx
    a9d1:	6a 00                	push   $0x0
    a9d3:	6a 00                	push   $0x0
    a9d5:	6a 00                	push   $0x0
    a9d7:	6a 00                	push   $0x0
    a9d9:	6a 00                	push   $0x0
    a9db:	6a 00                	push   $0x0
    a9dd:	6a 00                	push   $0x0
    a9df:	51                   	push   %ecx
    a9e0:	6a 05                	push   $0x5
    a9e2:	68 08 04 00 00       	push   $0x408
    a9e7:	50                   	push   %eax
    a9e8:	e8 f3 3f 00 00       	call   e9e0 <async_req_fast@plt>
    a9ed:	83 c4 30             	add    $0x30,%esp
    a9f0:	c9                   	leave  
    a9f1:	c3                   	ret    
    a9f2:	8d b6 00 00 00 00    	lea    0x0(%esi),%esi
    a9f8:	b8 f6 ff ff ff       	mov    $0xfffffff6,%eax
    a9fd:	c9                   	leave  
    a9fe:	c3                   	ret    
    a9ff:	90                   	nop

0000aa00 <usb_register_endpoint>:
    aa00:	55                   	push   %ebp
    aa01:	89 e5                	mov    %esp,%ebp
    aa03:	56                   	push   %esi
    aa04:	53                   	push   %ebx
    aa05:	8b 4d 08             	mov    0x8(%ebp),%ecx
    aa08:	8b 55 0c             	mov    0xc(%ebp),%edx
    aa0b:	85 c9                	test   %ecx,%ecx
    aa0d:	74 51                	je     aa60 <usb_register_endpoint+0x60>
    aa0f:	0f b6 75 20          	movzbl 0x20(%ebp),%esi
    aa13:	31 c0                	xor    %eax,%eax
    aa15:	81 e6 ff 00 00 00    	and    $0xff,%esi
    aa1b:	8a 45 10             	mov    0x10(%ebp),%al
    aa1e:	8b 5d 1c             	mov    0x1c(%ebp),%ebx
    aa21:	c1 e6 10             	shl    $0x10,%esi
    aa24:	8a 65 14             	mov    0x14(%ebp),%ah
    aa27:	c1 e3 18             	shl    $0x18,%ebx
    aa2a:	25 ff ff 00 00       	and    $0xffff,%eax
    aa2f:	09 f0                	or     %esi,%eax
    aa31:	8b 75 18             	mov    0x18(%ebp),%esi
    aa34:	09 d8                	or     %ebx,%eax
    aa36:	53                   	push   %ebx
    aa37:	0f bf d2             	movswl %dx,%edx
    aa3a:	6a 00                	push   $0x0
    aa3c:	6a 00                	push   $0x0
    aa3e:	6a 00                	push   $0x0
    aa40:	6a 00                	push   $0x0
    aa42:	6a 00                	push   $0x0
    aa44:	56                   	push   %esi
    aa45:	50                   	push   %eax
    aa46:	52                   	push   %edx
    aa47:	6a 06                	push   $0x6
    aa49:	68 08 04 00 00       	push   $0x408
    aa4e:	51                   	push   %ecx
    aa4f:	e8 8c 3f 00 00       	call   e9e0 <async_req_fast@plt>
    aa54:	83 c4 30             	add    $0x30,%esp
    aa57:	8d 65 f8             	lea    -0x8(%ebp),%esp
    aa5a:	5b                   	pop    %ebx
    aa5b:	5e                   	pop    %esi
    aa5c:	5d                   	pop    %ebp
    aa5d:	c3                   	ret    
    aa5e:	66 90                	xchg   %ax,%ax
    aa60:	b8 f6 ff ff ff       	mov    $0xfffffff6,%eax
    aa65:	eb f0                	jmp    aa57 <usb_register_endpoint+0x57>
    aa67:	89 f6                	mov    %esi,%esi
    aa69:	8d bc 27 00 00 00 00 	lea    0x0(%edi,%eiz,1),%edi

0000aa70 <usb_unregister_endpoint>:
    aa70:	55                   	push   %ebp
    aa71:	89 e5                	mov    %esp,%ebp
    aa73:	83 ec 08             	sub    $0x8,%esp
    aa76:	8b 55 08             	mov    0x8(%ebp),%edx
    aa79:	8b 45 0c             	mov    0xc(%ebp),%eax
    aa7c:	85 d2                	test   %edx,%edx
    aa7e:	74 28                	je     aaa8 <usb_unregister_endpoint+0x38>
    aa80:	98                   	cwtl   
    aa81:	51                   	push   %ecx
    aa82:	8b 4d 10             	mov    0x10(%ebp),%ecx
    aa85:	6a 00                	push   $0x0
    aa87:	6a 00                	push   $0x0
    aa89:	6a 00                	push   $0x0
    aa8b:	6a 00                	push   $0x0
    aa8d:	6a 00                	push   $0x0
    aa8f:	6a 00                	push   $0x0
    aa91:	51                   	push   %ecx
    aa92:	50                   	push   %eax
    aa93:	6a 07                	push   $0x7
    aa95:	68 08 04 00 00       	push   $0x408
    aa9a:	52                   	push   %edx
    aa9b:	e8 40 3f 00 00       	call   e9e0 <async_req_fast@plt>
    aaa0:	83 c4 30             	add    $0x30,%esp
    aaa3:	c9                   	leave  
    aaa4:	c3                   	ret    
    aaa5:	8d 76 00             	lea    0x0(%esi),%esi
    aaa8:	b8 f6 ff ff ff       	mov    $0xfffffff6,%eax
    aaad:	c9                   	leave  
    aaae:	c3                   	ret    
    aaaf:	90                   	nop

0000aab0 <usb_read>:
    aab0:	55                   	push   %ebp
    aab1:	89 e5                	mov    %esp,%ebp
    aab3:	57                   	push   %edi
    aab4:	56                   	push   %esi
    aab5:	53                   	push   %ebx
    aab6:	83 ec 4c             	sub    $0x4c,%esp
    aab9:	8b 5d 08             	mov    0x8(%ebp),%ebx
    aabc:	8b 45 1c             	mov    0x1c(%ebp),%eax
    aabf:	8b 7d 0c             	mov    0xc(%ebp),%edi
    aac2:	8b 55 10             	mov    0x10(%ebp),%edx
    aac5:	8b 4d 14             	mov    0x14(%ebp),%ecx
    aac8:	89 45 b4             	mov    %eax,-0x4c(%ebp)
    aacb:	85 db                	test   %ebx,%ebx
    aacd:	0f 84 c3 00 00 00    	je     ab96 <usb_read+0xe6>
    aad3:	85 c0                	test   %eax,%eax
    aad5:	75 11                	jne    aae8 <usb_read+0x38>
    aad7:	89 d6                	mov    %edx,%esi
    aad9:	09 ce                	or     %ecx,%esi
    aadb:	75 0b                	jne    aae8 <usb_read+0x38>
    aadd:	8d 65 f4             	lea    -0xc(%ebp),%esp
    aae0:	5b                   	pop    %ebx
    aae1:	5e                   	pop    %esi
    aae2:	5f                   	pop    %edi
    aae3:	5d                   	pop    %ebp
    aae4:	c3                   	ret    
    aae5:	8d 76 00             	lea    0x0(%esi),%esi
    aae8:	0f bf ff             	movswl %di,%edi
    aaeb:	50                   	push   %eax
    aaec:	6a 00                	push   $0x0
    aaee:	51                   	push   %ecx
    aaef:	52                   	push   %edx
    aaf0:	57                   	push   %edi
    aaf1:	6a 08                	push   $0x8
    aaf3:	68 08 04 00 00       	push   $0x408
    aaf8:	53                   	push   %ebx
    aaf9:	e8 02 3f 00 00       	call   ea00 <async_send_fast@plt>
    aafe:	83 c4 20             	add    $0x20,%esp
    ab01:	89 c7                	mov    %eax,%edi
    ab03:	85 c0                	test   %eax,%eax
    ab05:	74 69                	je     ab70 <usb_read+0xc0>
    ab07:	8d 45 c4             	lea    -0x3c(%ebp),%eax
    ab0a:	8b 75 b4             	mov    -0x4c(%ebp),%esi
    ab0d:	50                   	push   %eax
    ab0e:	8b 45 18             	mov    0x18(%ebp),%eax
    ab11:	56                   	push   %esi
    ab12:	50                   	push   %eax
    ab13:	53                   	push   %ebx
    ab14:	e8 27 3f 00 00       	call   ea40 <async_data_read@plt>
    ab19:	83 c4 10             	add    $0x10,%esp
    ab1c:	85 c0                	test   %eax,%eax
    ab1e:	74 60                	je     ab80 <usb_read+0xd0>
    ab20:	52                   	push   %edx
    ab21:	52                   	push   %edx
    ab22:	8d 55 bc             	lea    -0x44(%ebp),%edx
    ab25:	52                   	push   %edx
    ab26:	50                   	push   %eax
    ab27:	e8 e4 3d 00 00       	call   e910 <async_wait_for@plt>
    ab2c:	8d 45 c0             	lea    -0x40(%ebp),%eax
    ab2f:	59                   	pop    %ecx
    ab30:	5b                   	pop    %ebx
    ab31:	50                   	push   %eax
    ab32:	57                   	push   %edi
    ab33:	e8 d8 3d 00 00       	call   e910 <async_wait_for@plt>
    ab38:	8b 45 bc             	mov    -0x44(%ebp),%eax
    ab3b:	83 c4 10             	add    $0x10,%esp
    ab3e:	85 c0                	test   %eax,%eax
    ab40:	74 0e                	je     ab50 <usb_read+0xa0>
    ab42:	8b 55 c0             	mov    -0x40(%ebp),%edx
    ab45:	85 d2                	test   %edx,%edx
    ab47:	74 94                	je     aadd <usb_read+0x2d>
    ab49:	89 d0                	mov    %edx,%eax
    ab4b:	eb 90                	jmp    aadd <usb_read+0x2d>
    ab4d:	8d 76 00             	lea    0x0(%esi),%esi
    ab50:	8b 45 c0             	mov    -0x40(%ebp),%eax
    ab53:	85 c0                	test   %eax,%eax
    ab55:	75 86                	jne    aadd <usb_read+0x2d>
    ab57:	8b 45 20             	mov    0x20(%ebp),%eax
    ab5a:	8b 55 cc             	mov    -0x34(%ebp),%edx
    ab5d:	89 10                	mov    %edx,(%eax)
    ab5f:	8d 65 f4             	lea    -0xc(%ebp),%esp
    ab62:	31 c0                	xor    %eax,%eax
    ab64:	5b                   	pop    %ebx
    ab65:	5e                   	pop    %esi
    ab66:	5f                   	pop    %edi
    ab67:	5d                   	pop    %ebp
    ab68:	c3                   	ret    
    ab69:	8d b4 26 00 00 00 00 	lea    0x0(%esi,%eiz,1),%esi
    ab70:	b8 fe ff ff ff       	mov    $0xfffffffe,%eax
    ab75:	e9 63 ff ff ff       	jmp    aadd <usb_read+0x2d>
    ab7a:	8d b6 00 00 00 00    	lea    0x0(%esi),%esi
    ab80:	83 ec 0c             	sub    $0xc,%esp
    ab83:	57                   	push   %edi
    ab84:	e8 d7 41 00 00       	call   ed60 <async_forget@plt>
    ab89:	83 c4 10             	add    $0x10,%esp
    ab8c:	b8 fe ff ff ff       	mov    $0xfffffffe,%eax
    ab91:	e9 47 ff ff ff       	jmp    aadd <usb_read+0x2d>
    ab96:	b8 f6 ff ff ff       	mov    $0xfffffff6,%eax
    ab9b:	e9 3d ff ff ff       	jmp    aadd <usb_read+0x2d>

0000aba0 <usb_write>:
    aba0:	55                   	push   %ebp
    aba1:	89 e5                	mov    %esp,%ebp
    aba3:	57                   	push   %edi
    aba4:	56                   	push   %esi
    aba5:	53                   	push   %ebx
    aba6:	83 ec 2c             	sub    $0x2c,%esp
    aba9:	8b 75 08             	mov    0x8(%ebp),%esi
    abac:	8b 45 0c             	mov    0xc(%ebp),%eax
    abaf:	89 45 d4             	mov    %eax,-0x2c(%ebp)
    abb2:	8b 55 10             	mov    0x10(%ebp),%edx
    abb5:	8b 4d 14             	mov    0x14(%ebp),%ecx
    abb8:	8b 5d 1c             	mov    0x1c(%ebp),%ebx
    abbb:	85 f6                	test   %esi,%esi
    abbd:	0f 84 8f 00 00 00    	je     ac52 <usb_write+0xb2>
    abc3:	85 db                	test   %ebx,%ebx
    abc5:	75 11                	jne    abd8 <usb_write+0x38>
    abc7:	89 d7                	mov    %edx,%edi
    abc9:	31 c0                	xor    %eax,%eax
    abcb:	09 cf                	or     %ecx,%edi
    abcd:	75 09                	jne    abd8 <usb_write+0x38>
    abcf:	8d 65 f4             	lea    -0xc(%ebp),%esp
    abd2:	5b                   	pop    %ebx
    abd3:	5e                   	pop    %esi
    abd4:	5f                   	pop    %edi
    abd5:	5d                   	pop    %ebp
    abd6:	c3                   	ret    
    abd7:	90                   	nop
    abd8:	0f bf 7d d4          	movswl -0x2c(%ebp),%edi
    abdc:	6a 00                	push   $0x0
    abde:	51                   	push   %ecx
    abdf:	52                   	push   %edx
    abe0:	53                   	push   %ebx
    abe1:	57                   	push   %edi
    abe2:	6a 09                	push   $0x9
    abe4:	68 08 04 00 00       	push   $0x408
    abe9:	56                   	push   %esi
    abea:	e8 b1 3f 00 00       	call   eba0 <async_send_slow@plt>
    abef:	83 c4 20             	add    $0x20,%esp
    abf2:	89 c7                	mov    %eax,%edi
    abf4:	85 c0                	test   %eax,%eax
    abf6:	74 50                	je     ac48 <usb_write+0xa8>
    abf8:	85 db                	test   %ebx,%ebx
    abfa:	74 13                	je     ac0f <usb_write+0x6f>
    abfc:	8b 4d 18             	mov    0x18(%ebp),%ecx
    abff:	52                   	push   %edx
    ac00:	53                   	push   %ebx
    ac01:	51                   	push   %ecx
    ac02:	56                   	push   %esi
    ac03:	e8 48 3d 00 00       	call   e950 <async_data_write_start@plt>
    ac08:	83 c4 10             	add    $0x10,%esp
    ac0b:	85 c0                	test   %eax,%eax
    ac0d:	75 21                	jne    ac30 <usb_write+0x90>
    ac0f:	50                   	push   %eax
    ac10:	50                   	push   %eax
    ac11:	8d 45 e4             	lea    -0x1c(%ebp),%eax
    ac14:	50                   	push   %eax
    ac15:	57                   	push   %edi
    ac16:	e8 f5 3c 00 00       	call   e910 <async_wait_for@plt>
    ac1b:	8b 45 e4             	mov    -0x1c(%ebp),%eax
    ac1e:	83 c4 10             	add    $0x10,%esp
    ac21:	8d 65 f4             	lea    -0xc(%ebp),%esp
    ac24:	5b                   	pop    %ebx
    ac25:	5e                   	pop    %esi
    ac26:	5f                   	pop    %edi
    ac27:	5d                   	pop    %ebp
    ac28:	c3                   	ret    
    ac29:	8d b4 26 00 00 00 00 	lea    0x0(%esi,%eiz,1),%esi
    ac30:	83 ec 0c             	sub    $0xc,%esp
    ac33:	89 45 d4             	mov    %eax,-0x2c(%ebp)
    ac36:	57                   	push   %edi
    ac37:	e8 24 41 00 00       	call   ed60 <async_forget@plt>
    ac3c:	83 c4 10             	add    $0x10,%esp
    ac3f:	8b 45 d4             	mov    -0x2c(%ebp),%eax
    ac42:	eb 8b                	jmp    abcf <usb_write+0x2f>
    ac44:	8d 74 26 00          	lea    0x0(%esi,%eiz,1),%esi
    ac48:	b8 fe ff ff ff       	mov    $0xfffffffe,%eax
    ac4d:	e9 7d ff ff ff       	jmp    abcf <usb_write+0x2f>
    ac52:	b8 f6 ff ff ff       	mov    $0xfffffff6,%eax
    ac57:	e9 73 ff ff ff       	jmp    abcf <usb_write+0x2f>
    ac5c:	66 90                	xchg   %ax,%ax
    ac5e:	66 90                	xchg   %ax,%ax

0000ac60 <remote_config_space_write_32>:
    ac60:	55                   	push   %ebp
    ac61:	89 e5                	mov    %esp,%ebp
    ac63:	53                   	push   %ebx
    ac64:	53                   	push   %ebx
    ac65:	8b 45 0c             	mov    0xc(%ebp),%eax
    ac68:	8b 4d 08             	mov    0x8(%ebp),%ecx
    ac6b:	8b 5d 10             	mov    0x10(%ebp),%ebx
    ac6e:	8b 55 14             	mov    0x14(%ebp),%edx
    ac71:	85 c0                	test   %eax,%eax
    ac73:	74 56                	je     accb <remote_config_space_write_32+0x6b>
    ac75:	8b 40 14             	mov    0x14(%eax),%eax
    ac78:	85 c0                	test   %eax,%eax
    ac7a:	74 3c                	je     acb8 <remote_config_space_write_32+0x58>
    ac7c:	83 ec 04             	sub    $0x4,%esp
    ac7f:	ff 72 0c             	pushl  0xc(%edx)
    ac82:	8b 52 08             	mov    0x8(%edx),%edx
    ac85:	52                   	push   %edx
    ac86:	51                   	push   %ecx
    ac87:	ff d0                	call   *%eax
    ac89:	83 c4 10             	add    $0x10,%esp
    ac8c:	85 c0                	test   %eax,%eax
    ac8e:	75 18                	jne    aca8 <remote_config_space_write_32+0x48>
    ac90:	89 5d 08             	mov    %ebx,0x8(%ebp)
    ac93:	8b 5d fc             	mov    -0x4(%ebp),%ebx
    ac96:	c7 45 0c 00 00 00 00 	movl   $0x0,0xc(%ebp)
    ac9d:	c9                   	leave  
    ac9e:	e9 4d 3d 00 00       	jmp    e9f0 <async_answer_0@plt>
    aca3:	90                   	nop
    aca4:	8d 74 26 00          	lea    0x0(%esi,%eiz,1),%esi
    aca8:	89 5d 08             	mov    %ebx,0x8(%ebp)
    acab:	8b 5d fc             	mov    -0x4(%ebp),%ebx
    acae:	89 45 0c             	mov    %eax,0xc(%ebp)
    acb1:	c9                   	leave  
    acb2:	e9 39 3d 00 00       	jmp    e9f0 <async_answer_0@plt>
    acb7:	90                   	nop
    acb8:	89 5d 08             	mov    %ebx,0x8(%ebp)
    acbb:	8b 5d fc             	mov    -0x4(%ebp),%ebx
    acbe:	c7 45 0c f5 ff ff ff 	movl   $0xfffffff5,0xc(%ebp)
    acc5:	c9                   	leave  
    acc6:	e9 25 3d 00 00       	jmp    e9f0 <async_answer_0@plt>
    accb:	51                   	push   %ecx
    accc:	68 f3 00 00 00       	push   $0xf3
    acd1:	68 88 e4 00 00       	push   $0xe488
    acd6:	68 1d e4 00 00       	push   $0xe41d
    acdb:	e8 b0 3d 00 00       	call   ea90 <assert_abort@plt>

0000ace0 <remote_config_space_write_16>:
    ace0:	55                   	push   %ebp
    ace1:	89 e5                	mov    %esp,%ebp
    ace3:	56                   	push   %esi
    ace4:	53                   	push   %ebx
    ace5:	8b 45 0c             	mov    0xc(%ebp),%eax
    ace8:	8b 4d 08             	mov    0x8(%ebp),%ecx
    aceb:	8b 5d 10             	mov    0x10(%ebp),%ebx
    acee:	8b 55 14             	mov    0x14(%ebp),%edx
    acf1:	85 c0                	test   %eax,%eax
    acf3:	74 60                	je     ad55 <remote_config_space_write_16+0x75>
    acf5:	8b 40 10             	mov    0x10(%eax),%eax
    acf8:	85 c0                	test   %eax,%eax
    acfa:	74 44                	je     ad40 <remote_config_space_write_16+0x60>
    acfc:	56                   	push   %esi
    acfd:	31 f6                	xor    %esi,%esi
    acff:	66 8b 72 0c          	mov    0xc(%edx),%si
    ad03:	56                   	push   %esi
    ad04:	8b 52 08             	mov    0x8(%edx),%edx
    ad07:	52                   	push   %edx
    ad08:	51                   	push   %ecx
    ad09:	ff d0                	call   *%eax
    ad0b:	83 c4 10             	add    $0x10,%esp
    ad0e:	85 c0                	test   %eax,%eax
    ad10:	75 16                	jne    ad28 <remote_config_space_write_16+0x48>
    ad12:	89 5d 08             	mov    %ebx,0x8(%ebp)
    ad15:	c7 45 0c 00 00 00 00 	movl   $0x0,0xc(%ebp)
    ad1c:	8d 65 f8             	lea    -0x8(%ebp),%esp
    ad1f:	5b                   	pop    %ebx
    ad20:	5e                   	pop    %esi
    ad21:	5d                   	pop    %ebp
    ad22:	e9 c9 3c 00 00       	jmp    e9f0 <async_answer_0@plt>
    ad27:	90                   	nop
    ad28:	89 5d 08             	mov    %ebx,0x8(%ebp)
    ad2b:	89 45 0c             	mov    %eax,0xc(%ebp)
    ad2e:	8d 65 f8             	lea    -0x8(%ebp),%esp
    ad31:	5b                   	pop    %ebx
    ad32:	5e                   	pop    %esi
    ad33:	5d                   	pop    %ebp
    ad34:	e9 b7 3c 00 00       	jmp    e9f0 <async_answer_0@plt>
    ad39:	8d b4 26 00 00 00 00 	lea    0x0(%esi,%eiz,1),%esi
    ad40:	89 5d 08             	mov    %ebx,0x8(%ebp)
    ad43:	c7 45 0c f5 ff ff ff 	movl   $0xfffffff5,0xc(%ebp)
    ad4a:	8d 65 f8             	lea    -0x8(%ebp),%esp
    ad4d:	5b                   	pop    %ebx
    ad4e:	5e                   	pop    %esi
    ad4f:	5d                   	pop    %ebp
    ad50:	e9 9b 3c 00 00       	jmp    e9f0 <async_answer_0@plt>
    ad55:	51                   	push   %ecx
    ad56:	68 e1 00 00 00       	push   $0xe1
    ad5b:	68 88 e4 00 00       	push   $0xe488
    ad60:	68 1d e4 00 00       	push   $0xe41d
    ad65:	e8 26 3d 00 00       	call   ea90 <assert_abort@plt>
    ad6a:	8d b6 00 00 00 00    	lea    0x0(%esi),%esi

0000ad70 <remote_config_space_write_8>:
    ad70:	55                   	push   %ebp
    ad71:	89 e5                	mov    %esp,%ebp
    ad73:	56                   	push   %esi
    ad74:	53                   	push   %ebx
    ad75:	8b 45 0c             	mov    0xc(%ebp),%eax
    ad78:	8b 4d 08             	mov    0x8(%ebp),%ecx
    ad7b:	8b 5d 10             	mov    0x10(%ebp),%ebx
    ad7e:	8b 55 14             	mov    0x14(%ebp),%edx
    ad81:	85 c0                	test   %eax,%eax
    ad83:	74 68                	je     aded <remote_config_space_write_8+0x7d>
    ad85:	8b 40 0c             	mov    0xc(%eax),%eax
    ad88:	85 c0                	test   %eax,%eax
    ad8a:	74 4c                	je     add8 <remote_config_space_write_8+0x68>
    ad8c:	56                   	push   %esi
    ad8d:	0f b6 72 0c          	movzbl 0xc(%edx),%esi
    ad91:	81 e6 ff 00 00 00    	and    $0xff,%esi
    ad97:	56                   	push   %esi
    ad98:	8b 52 08             	mov    0x8(%edx),%edx
    ad9b:	52                   	push   %edx
    ad9c:	51                   	push   %ecx
    ad9d:	ff d0                	call   *%eax
    ad9f:	83 c4 10             	add    $0x10,%esp
    ada2:	85 c0                	test   %eax,%eax
    ada4:	75 1a                	jne    adc0 <remote_config_space_write_8+0x50>
    ada6:	89 5d 08             	mov    %ebx,0x8(%ebp)
    ada9:	c7 45 0c 00 00 00 00 	movl   $0x0,0xc(%ebp)
    adb0:	8d 65 f8             	lea    -0x8(%ebp),%esp
    adb3:	5b                   	pop    %ebx
    adb4:	5e                   	pop    %esi
    adb5:	5d                   	pop    %ebp
    adb6:	e9 35 3c 00 00       	jmp    e9f0 <async_answer_0@plt>
    adbb:	90                   	nop
    adbc:	8d 74 26 00          	lea    0x0(%esi,%eiz,1),%esi
    adc0:	89 5d 08             	mov    %ebx,0x8(%ebp)
    adc3:	89 45 0c             	mov    %eax,0xc(%ebp)
    adc6:	8d 65 f8             	lea    -0x8(%ebp),%esp
    adc9:	5b                   	pop    %ebx
    adca:	5e                   	pop    %esi
    adcb:	5d                   	pop    %ebp
    adcc:	e9 1f 3c 00 00       	jmp    e9f0 <async_answer_0@plt>
    add1:	8d b4 26 00 00 00 00 	lea    0x0(%esi,%eiz,1),%esi
    add8:	89 5d 08             	mov    %ebx,0x8(%ebp)
    addb:	c7 45 0c f5 ff ff ff 	movl   $0xfffffff5,0xc(%ebp)
    ade2:	8d 65 f8             	lea    -0x8(%ebp),%esp
    ade5:	5b                   	pop    %ebx
    ade6:	5e                   	pop    %esi
    ade7:	5d                   	pop    %ebp
    ade8:	e9 03 3c 00 00       	jmp    e9f0 <async_answer_0@plt>
    aded:	51                   	push   %ecx
    adee:	68 cf 00 00 00       	push   $0xcf
    adf3:	68 88 e4 00 00       	push   $0xe488
    adf8:	68 1d e4 00 00       	push   $0xe41d
    adfd:	e8 8e 3c 00 00       	call   ea90 <assert_abort@plt>
    ae02:	8d b4 26 00 00 00 00 	lea    0x0(%esi,%eiz,1),%esi
    ae09:	8d bc 27 00 00 00 00 	lea    0x0(%edi,%eiz,1),%edi

0000ae10 <remote_config_space_read_32>:
    ae10:	55                   	push   %ebp
    ae11:	89 e5                	mov    %esp,%ebp
    ae13:	83 ec 18             	sub    $0x18,%esp
    ae16:	8b 45 0c             	mov    0xc(%ebp),%eax
    ae19:	85 c0                	test   %eax,%eax
    ae1b:	74 5d                	je     ae7a <remote_config_space_read_32+0x6a>
    ae1d:	8b 40 08             	mov    0x8(%eax),%eax
    ae20:	85 c0                	test   %eax,%eax
    ae22:	74 44                	je     ae68 <remote_config_space_read_32+0x58>
    ae24:	52                   	push   %edx
    ae25:	8d 55 f4             	lea    -0xc(%ebp),%edx
    ae28:	52                   	push   %edx
    ae29:	8b 55 14             	mov    0x14(%ebp),%edx
    ae2c:	8b 4a 08             	mov    0x8(%edx),%ecx
    ae2f:	8b 55 08             	mov    0x8(%ebp),%edx
    ae32:	51                   	push   %ecx
    ae33:	52                   	push   %edx
    ae34:	ff d0                	call   *%eax
    ae36:	83 c4 10             	add    $0x10,%esp
    ae39:	85 c0                	test   %eax,%eax
    ae3b:	74 13                	je     ae50 <remote_config_space_read_32+0x40>
    ae3d:	8b 4d 10             	mov    0x10(%ebp),%ecx
    ae40:	52                   	push   %edx
    ae41:	52                   	push   %edx
    ae42:	50                   	push   %eax
    ae43:	51                   	push   %ecx
    ae44:	e8 a7 3b 00 00       	call   e9f0 <async_answer_0@plt>
    ae49:	83 c4 10             	add    $0x10,%esp
    ae4c:	c9                   	leave  
    ae4d:	c3                   	ret    
    ae4e:	66 90                	xchg   %ax,%ax
    ae50:	8b 55 f4             	mov    -0xc(%ebp),%edx
    ae53:	8b 4d 10             	mov    0x10(%ebp),%ecx
    ae56:	50                   	push   %eax
    ae57:	52                   	push   %edx
    ae58:	6a 00                	push   $0x0
    ae5a:	51                   	push   %ecx
    ae5b:	e8 60 3e 00 00       	call   ecc0 <async_answer_1@plt>
    ae60:	83 c4 10             	add    $0x10,%esp
    ae63:	c9                   	leave  
    ae64:	c3                   	ret    
    ae65:	8d 76 00             	lea    0x0(%esi),%esi
    ae68:	8b 45 10             	mov    0x10(%ebp),%eax
    ae6b:	51                   	push   %ecx
    ae6c:	51                   	push   %ecx
    ae6d:	6a f5                	push   $0xfffffff5
    ae6f:	50                   	push   %eax
    ae70:	e8 7b 3b 00 00       	call   e9f0 <async_answer_0@plt>
    ae75:	83 c4 10             	add    $0x10,%esp
    ae78:	c9                   	leave  
    ae79:	c3                   	ret    
    ae7a:	50                   	push   %eax
    ae7b:	68 bd 00 00 00       	push   $0xbd
    ae80:	68 88 e4 00 00       	push   $0xe488
    ae85:	68 1d e4 00 00       	push   $0xe41d
    ae8a:	e8 01 3c 00 00       	call   ea90 <assert_abort@plt>
    ae8f:	90                   	nop

0000ae90 <remote_config_space_read_16>:
    ae90:	55                   	push   %ebp
    ae91:	89 e5                	mov    %esp,%ebp
    ae93:	83 ec 18             	sub    $0x18,%esp
    ae96:	8b 45 0c             	mov    0xc(%ebp),%eax
    ae99:	85 c0                	test   %eax,%eax
    ae9b:	74 5d                	je     aefa <remote_config_space_read_16+0x6a>
    ae9d:	8b 40 04             	mov    0x4(%eax),%eax
    aea0:	85 c0                	test   %eax,%eax
    aea2:	74 44                	je     aee8 <remote_config_space_read_16+0x58>
    aea4:	52                   	push   %edx
    aea5:	8d 55 f6             	lea    -0xa(%ebp),%edx
    aea8:	52                   	push   %edx
    aea9:	8b 55 14             	mov    0x14(%ebp),%edx
    aeac:	8b 4a 08             	mov    0x8(%edx),%ecx
    aeaf:	8b 55 08             	mov    0x8(%ebp),%edx
    aeb2:	51                   	push   %ecx
    aeb3:	52                   	push   %edx
    aeb4:	ff d0                	call   *%eax
    aeb6:	83 c4 10             	add    $0x10,%esp
    aeb9:	85 c0                	test   %eax,%eax
    aebb:	74 13                	je     aed0 <remote_config_space_read_16+0x40>
    aebd:	51                   	push   %ecx
    aebe:	51                   	push   %ecx
    aebf:	50                   	push   %eax
    aec0:	8b 45 10             	mov    0x10(%ebp),%eax
    aec3:	50                   	push   %eax
    aec4:	e8 27 3b 00 00       	call   e9f0 <async_answer_0@plt>
    aec9:	83 c4 10             	add    $0x10,%esp
    aecc:	c9                   	leave  
    aecd:	c3                   	ret    
    aece:	66 90                	xchg   %ax,%ax
    aed0:	50                   	push   %eax
    aed1:	31 c0                	xor    %eax,%eax
    aed3:	66 8b 45 f6          	mov    -0xa(%ebp),%ax
    aed7:	8b 55 10             	mov    0x10(%ebp),%edx
    aeda:	50                   	push   %eax
    aedb:	6a 00                	push   $0x0
    aedd:	52                   	push   %edx
    aede:	e8 dd 3d 00 00       	call   ecc0 <async_answer_1@plt>
    aee3:	83 c4 10             	add    $0x10,%esp
    aee6:	c9                   	leave  
    aee7:	c3                   	ret    
    aee8:	8b 45 10             	mov    0x10(%ebp),%eax
    aeeb:	51                   	push   %ecx
    aeec:	51                   	push   %ecx
    aeed:	6a f5                	push   $0xfffffff5
    aeef:	50                   	push   %eax
    aef0:	e8 fb 3a 00 00       	call   e9f0 <async_answer_0@plt>
    aef5:	83 c4 10             	add    $0x10,%esp
    aef8:	c9                   	leave  
    aef9:	c3                   	ret    
    aefa:	50                   	push   %eax
    aefb:	68 ac 00 00 00       	push   $0xac
    af00:	68 88 e4 00 00       	push   $0xe488
    af05:	68 1d e4 00 00       	push   $0xe41d
    af0a:	e8 81 3b 00 00       	call   ea90 <assert_abort@plt>
    af0f:	90                   	nop

0000af10 <remote_config_space_read_8>:
    af10:	55                   	push   %ebp
    af11:	89 e5                	mov    %esp,%ebp
    af13:	83 ec 18             	sub    $0x18,%esp
    af16:	8b 45 0c             	mov    0xc(%ebp),%eax
    af19:	85 c0                	test   %eax,%eax
    af1b:	74 5d                	je     af7a <remote_config_space_read_8+0x6a>
    af1d:	8b 00                	mov    (%eax),%eax
    af1f:	85 c0                	test   %eax,%eax
    af21:	74 45                	je     af68 <remote_config_space_read_8+0x58>
    af23:	52                   	push   %edx
    af24:	8d 55 f7             	lea    -0x9(%ebp),%edx
    af27:	52                   	push   %edx
    af28:	8b 55 14             	mov    0x14(%ebp),%edx
    af2b:	8b 4a 08             	mov    0x8(%edx),%ecx
    af2e:	8b 55 08             	mov    0x8(%ebp),%edx
    af31:	51                   	push   %ecx
    af32:	52                   	push   %edx
    af33:	ff d0                	call   *%eax
    af35:	83 c4 10             	add    $0x10,%esp
    af38:	85 c0                	test   %eax,%eax
    af3a:	74 14                	je     af50 <remote_config_space_read_8+0x40>
    af3c:	51                   	push   %ecx
    af3d:	51                   	push   %ecx
    af3e:	50                   	push   %eax
    af3f:	8b 45 10             	mov    0x10(%ebp),%eax
    af42:	50                   	push   %eax
    af43:	e8 a8 3a 00 00       	call   e9f0 <async_answer_0@plt>
    af48:	83 c4 10             	add    $0x10,%esp
    af4b:	c9                   	leave  
    af4c:	c3                   	ret    
    af4d:	8d 76 00             	lea    0x0(%esi),%esi
    af50:	50                   	push   %eax
    af51:	31 c0                	xor    %eax,%eax
    af53:	8a 45 f7             	mov    -0x9(%ebp),%al
    af56:	8b 55 10             	mov    0x10(%ebp),%edx
    af59:	50                   	push   %eax
    af5a:	6a 00                	push   $0x0
    af5c:	52                   	push   %edx
    af5d:	e8 5e 3d 00 00       	call   ecc0 <async_answer_1@plt>
    af62:	83 c4 10             	add    $0x10,%esp
    af65:	c9                   	leave  
    af66:	c3                   	ret    
    af67:	90                   	nop
    af68:	8b 45 10             	mov    0x10(%ebp),%eax
    af6b:	51                   	push   %ecx
    af6c:	51                   	push   %ecx
    af6d:	6a f5                	push   $0xfffffff5
    af6f:	50                   	push   %eax
    af70:	e8 7b 3a 00 00       	call   e9f0 <async_answer_0@plt>
    af75:	83 c4 10             	add    $0x10,%esp
    af78:	c9                   	leave  
    af79:	c3                   	ret    
    af7a:	50                   	push   %eax
    af7b:	68 9a 00 00 00       	push   $0x9a
    af80:	68 88 e4 00 00       	push   $0xe488
    af85:	68 1d e4 00 00       	push   $0xe41d
    af8a:	e8 01 3b 00 00       	call   ea90 <assert_abort@plt>
    af8f:	90                   	nop

0000af90 <pci_config_space_read_8>:
    af90:	55                   	push   %ebp
    af91:	89 e5                	mov    %esp,%ebp
    af93:	53                   	push   %ebx
    af94:	83 ec 30             	sub    $0x30,%esp
    af97:	8b 45 08             	mov    0x8(%ebp),%eax
    af9a:	c7 45 f4 00 00 00 00 	movl   $0x0,-0xc(%ebp)
    afa1:	50                   	push   %eax
    afa2:	e8 29 3d 00 00       	call   ecd0 <async_exchange_begin@plt>
    afa7:	83 c4 0c             	add    $0xc,%esp
    afaa:	8b 55 0c             	mov    0xc(%ebp),%edx
    afad:	89 c3                	mov    %eax,%ebx
    afaf:	8d 45 f4             	lea    -0xc(%ebp),%eax
    afb2:	6a 00                	push   $0x0
    afb4:	6a 00                	push   $0x0
    afb6:	6a 00                	push   $0x0
    afb8:	6a 00                	push   $0x0
    afba:	50                   	push   %eax
    afbb:	6a 00                	push   $0x0
    afbd:	6a 00                	push   $0x0
    afbf:	52                   	push   %edx
    afc0:	6a 00                	push   $0x0
    afc2:	68 07 04 00 00       	push   $0x407
    afc7:	53                   	push   %ebx
    afc8:	e8 13 3a 00 00       	call   e9e0 <async_req_fast@plt>
    afcd:	83 c4 24             	add    $0x24,%esp
    afd0:	89 45 e4             	mov    %eax,-0x1c(%ebp)
    afd3:	53                   	push   %ebx
    afd4:	e8 a7 3a 00 00       	call   ea80 <async_exchange_end@plt>
    afd9:	8b 55 10             	mov    0x10(%ebp),%edx
    afdc:	8b 4d f4             	mov    -0xc(%ebp),%ecx
    afdf:	8b 45 e4             	mov    -0x1c(%ebp),%eax
    afe2:	88 0a                	mov    %cl,(%edx)
    afe4:	8b 5d fc             	mov    -0x4(%ebp),%ebx
    afe7:	c9                   	leave  
    afe8:	c3                   	ret    
    afe9:	8d b4 26 00 00 00 00 	lea    0x0(%esi,%eiz,1),%esi

0000aff0 <pci_config_space_read_16>:
    aff0:	55                   	push   %ebp
    aff1:	89 e5                	mov    %esp,%ebp
    aff3:	53                   	push   %ebx
    aff4:	83 ec 30             	sub    $0x30,%esp
    aff7:	8b 45 08             	mov    0x8(%ebp),%eax
    affa:	c7 45 f4 00 00 00 00 	movl   $0x0,-0xc(%ebp)
    b001:	50                   	push   %eax
    b002:	e8 c9 3c 00 00       	call   ecd0 <async_exchange_begin@plt>
    b007:	83 c4 0c             	add    $0xc,%esp
    b00a:	8b 55 0c             	mov    0xc(%ebp),%edx
    b00d:	89 c3                	mov    %eax,%ebx
    b00f:	8d 45 f4             	lea    -0xc(%ebp),%eax
    b012:	6a 00                	push   $0x0
    b014:	6a 00                	push   $0x0
    b016:	6a 00                	push   $0x0
    b018:	6a 00                	push   $0x0
    b01a:	50                   	push   %eax
    b01b:	6a 00                	push   $0x0
    b01d:	6a 00                	push   $0x0
    b01f:	52                   	push   %edx
    b020:	6a 01                	push   $0x1
    b022:	68 07 04 00 00       	push   $0x407
    b027:	53                   	push   %ebx
    b028:	e8 b3 39 00 00       	call   e9e0 <async_req_fast@plt>
    b02d:	83 c4 24             	add    $0x24,%esp
    b030:	89 45 e4             	mov    %eax,-0x1c(%ebp)
    b033:	53                   	push   %ebx
    b034:	e8 47 3a 00 00       	call   ea80 <async_exchange_end@plt>
    b039:	8b 55 10             	mov    0x10(%ebp),%edx
    b03c:	8b 4d f4             	mov    -0xc(%ebp),%ecx
    b03f:	8b 45 e4             	mov    -0x1c(%ebp),%eax
    b042:	8b 5d fc             	mov    -0x4(%ebp),%ebx
    b045:	66 89 0a             	mov    %cx,(%edx)
    b048:	c9                   	leave  
    b049:	c3                   	ret    
    b04a:	8d b6 00 00 00 00    	lea    0x0(%esi),%esi

0000b050 <pci_config_space_read_32>:
    b050:	55                   	push   %ebp
    b051:	89 e5                	mov    %esp,%ebp
    b053:	53                   	push   %ebx
    b054:	83 ec 30             	sub    $0x30,%esp
    b057:	8b 45 08             	mov    0x8(%ebp),%eax
    b05a:	c7 45 f4 00 00 00 00 	movl   $0x0,-0xc(%ebp)
    b061:	50                   	push   %eax
    b062:	e8 69 3c 00 00       	call   ecd0 <async_exchange_begin@plt>
    b067:	83 c4 0c             	add    $0xc,%esp
    b06a:	8b 55 0c             	mov    0xc(%ebp),%edx
    b06d:	89 c3                	mov    %eax,%ebx
    b06f:	8d 45 f4             	lea    -0xc(%ebp),%eax
    b072:	6a 00                	push   $0x0
    b074:	6a 00                	push   $0x0
    b076:	6a 00                	push   $0x0
    b078:	6a 00                	push   $0x0
    b07a:	50                   	push   %eax
    b07b:	6a 00                	push   $0x0
    b07d:	6a 00                	push   $0x0
    b07f:	52                   	push   %edx
    b080:	6a 02                	push   $0x2
    b082:	68 07 04 00 00       	push   $0x407
    b087:	53                   	push   %ebx
    b088:	e8 53 39 00 00       	call   e9e0 <async_req_fast@plt>
    b08d:	83 c4 24             	add    $0x24,%esp
    b090:	89 45 e4             	mov    %eax,-0x1c(%ebp)
    b093:	53                   	push   %ebx
    b094:	e8 e7 39 00 00       	call   ea80 <async_exchange_end@plt>
    b099:	8b 55 10             	mov    0x10(%ebp),%edx
    b09c:	8b 4d f4             	mov    -0xc(%ebp),%ecx
    b09f:	8b 45 e4             	mov    -0x1c(%ebp),%eax
    b0a2:	8b 5d fc             	mov    -0x4(%ebp),%ebx
    b0a5:	89 0a                	mov    %ecx,(%edx)
    b0a7:	c9                   	leave  
    b0a8:	c3                   	ret    
    b0a9:	8d b4 26 00 00 00 00 	lea    0x0(%esi,%eiz,1),%esi

0000b0b0 <pci_config_space_write_8>:
    b0b0:	55                   	push   %ebp
    b0b1:	89 e5                	mov    %esp,%ebp
    b0b3:	56                   	push   %esi
    b0b4:	53                   	push   %ebx
    b0b5:	83 ec 1c             	sub    $0x1c,%esp
    b0b8:	8b 45 08             	mov    0x8(%ebp),%eax
    b0bb:	8b 5d 10             	mov    0x10(%ebp),%ebx
    b0be:	50                   	push   %eax
    b0bf:	e8 0c 3c 00 00       	call   ecd0 <async_exchange_begin@plt>
    b0c4:	83 c4 0c             	add    $0xc,%esp
    b0c7:	8b 55 0c             	mov    0xc(%ebp),%edx
    b0ca:	81 e3 ff 00 00 00    	and    $0xff,%ebx
    b0d0:	89 c6                	mov    %eax,%esi
    b0d2:	6a 00                	push   $0x0
    b0d4:	6a 00                	push   $0x0
    b0d6:	6a 00                	push   $0x0
    b0d8:	6a 00                	push   $0x0
    b0da:	6a 00                	push   $0x0
    b0dc:	6a 00                	push   $0x0
    b0de:	53                   	push   %ebx
    b0df:	52                   	push   %edx
    b0e0:	6a 03                	push   $0x3
    b0e2:	68 07 04 00 00       	push   $0x407
    b0e7:	50                   	push   %eax
    b0e8:	e8 f3 38 00 00       	call   e9e0 <async_req_fast@plt>
    b0ed:	83 c4 24             	add    $0x24,%esp
    b0f0:	89 45 f4             	mov    %eax,-0xc(%ebp)
    b0f3:	56                   	push   %esi
    b0f4:	e8 87 39 00 00       	call   ea80 <async_exchange_end@plt>
    b0f9:	8b 45 f4             	mov    -0xc(%ebp),%eax
    b0fc:	8d 65 f8             	lea    -0x8(%ebp),%esp
    b0ff:	5b                   	pop    %ebx
    b100:	5e                   	pop    %esi
    b101:	5d                   	pop    %ebp
    b102:	c3                   	ret    
    b103:	8d b6 00 00 00 00    	lea    0x0(%esi),%esi
    b109:	8d bc 27 00 00 00 00 	lea    0x0(%edi,%eiz,1),%edi

0000b110 <pci_config_space_write_16>:
    b110:	55                   	push   %ebp
    b111:	89 e5                	mov    %esp,%ebp
    b113:	56                   	push   %esi
    b114:	53                   	push   %ebx
    b115:	83 ec 1c             	sub    $0x1c,%esp
    b118:	8b 45 08             	mov    0x8(%ebp),%eax
    b11b:	8b 5d 10             	mov    0x10(%ebp),%ebx
    b11e:	50                   	push   %eax
    b11f:	e8 ac 3b 00 00       	call   ecd0 <async_exchange_begin@plt>
    b124:	83 c4 0c             	add    $0xc,%esp
    b127:	8b 55 0c             	mov    0xc(%ebp),%edx
    b12a:	81 e3 ff ff 00 00    	and    $0xffff,%ebx
    b130:	89 c6                	mov    %eax,%esi
    b132:	6a 00                	push   $0x0
    b134:	6a 00                	push   $0x0
    b136:	6a 00                	push   $0x0
    b138:	6a 00                	push   $0x0
    b13a:	6a 00                	push   $0x0
    b13c:	6a 00                	push   $0x0
    b13e:	53                   	push   %ebx
    b13f:	52                   	push   %edx
    b140:	6a 04                	push   $0x4
    b142:	68 07 04 00 00       	push   $0x407
    b147:	50                   	push   %eax
    b148:	e8 93 38 00 00       	call   e9e0 <async_req_fast@plt>
    b14d:	83 c4 24             	add    $0x24,%esp
    b150:	89 45 f4             	mov    %eax,-0xc(%ebp)
    b153:	56                   	push   %esi
    b154:	e8 27 39 00 00       	call   ea80 <async_exchange_end@plt>
    b159:	8b 45 f4             	mov    -0xc(%ebp),%eax
    b15c:	8d 65 f8             	lea    -0x8(%ebp),%esp
    b15f:	5b                   	pop    %ebx
    b160:	5e                   	pop    %esi
    b161:	5d                   	pop    %ebp
    b162:	c3                   	ret    
    b163:	8d b6 00 00 00 00    	lea    0x0(%esi),%esi
    b169:	8d bc 27 00 00 00 00 	lea    0x0(%edi,%eiz,1),%edi

0000b170 <pci_config_space_write_32>:
    b170:	55                   	push   %ebp
    b171:	89 e5                	mov    %esp,%ebp
    b173:	53                   	push   %ebx
    b174:	83 ec 20             	sub    $0x20,%esp
    b177:	8b 45 08             	mov    0x8(%ebp),%eax
    b17a:	50                   	push   %eax
    b17b:	e8 50 3b 00 00       	call   ecd0 <async_exchange_begin@plt>
    b180:	83 c4 0c             	add    $0xc,%esp
    b183:	8b 55 10             	mov    0x10(%ebp),%edx
    b186:	8b 4d 0c             	mov    0xc(%ebp),%ecx
    b189:	89 c3                	mov    %eax,%ebx
    b18b:	6a 00                	push   $0x0
    b18d:	6a 00                	push   $0x0
    b18f:	6a 00                	push   $0x0
    b191:	6a 00                	push   $0x0
    b193:	6a 00                	push   $0x0
    b195:	6a 00                	push   $0x0
    b197:	52                   	push   %edx
    b198:	51                   	push   %ecx
    b199:	6a 05                	push   $0x5
    b19b:	68 07 04 00 00       	push   $0x407
    b1a0:	50                   	push   %eax
    b1a1:	e8 3a 38 00 00       	call   e9e0 <async_req_fast@plt>
    b1a6:	83 c4 24             	add    $0x24,%esp
    b1a9:	89 45 f4             	mov    %eax,-0xc(%ebp)
    b1ac:	53                   	push   %ebx
    b1ad:	e8 ce 38 00 00       	call   ea80 <async_exchange_end@plt>
    b1b2:	8b 45 f4             	mov    -0xc(%ebp),%eax
    b1b5:	8b 5d fc             	mov    -0x4(%ebp),%ebx
    b1b8:	c9                   	leave  
    b1b9:	c3                   	ret    
    b1ba:	66 90                	xchg   %ax,%ax
    b1bc:	66 90                	xchg   %ax,%ax
    b1be:	66 90                	xchg   %ax,%ax

0000b1c0 <callback_out>:
    b1c0:	55                   	push   %ebp
    b1c1:	89 e5                	mov    %esp,%ebp
    b1c3:	53                   	push   %ebx
    b1c4:	83 ec 0c             	sub    $0xc,%esp
    b1c7:	8b 5d 0c             	mov    0xc(%ebp),%ebx
    b1ca:	8b 45 08             	mov    0x8(%ebp),%eax
    b1cd:	50                   	push   %eax
    b1ce:	8b 13                	mov    (%ebx),%edx
    b1d0:	52                   	push   %edx
    b1d1:	e8 1a 38 00 00       	call   e9f0 <async_answer_0@plt>
    b1d6:	8b 43 08             	mov    0x8(%ebx),%eax
    b1d9:	83 c4 10             	add    $0x10,%esp
    b1dc:	85 c0                	test   %eax,%eax
    b1de:	74 0c                	je     b1ec <callback_out+0x2c>
    b1e0:	83 ec 0c             	sub    $0xc,%esp
    b1e3:	50                   	push   %eax
    b1e4:	e8 f7 3b 00 00       	call   ede0 <free@plt>
    b1e9:	83 c4 10             	add    $0x10,%esp
    b1ec:	89 5d 08             	mov    %ebx,0x8(%ebp)
    b1ef:	8b 5d fc             	mov    -0x4(%ebp),%ebx
    b1f2:	c9                   	leave  
    b1f3:	e9 e8 3b 00 00       	jmp    ede0 <free@plt>
    b1f8:	90                   	nop
    b1f9:	8d b4 26 00 00 00 00 	lea    0x0(%esi,%eiz,1),%esi

0000b200 <callback_in>:
    b200:	55                   	push   %ebp
    b201:	89 e5                	mov    %esp,%ebp
    b203:	53                   	push   %ebx
    b204:	53                   	push   %ebx
    b205:	8b 45 08             	mov    0x8(%ebp),%eax
    b208:	8b 55 0c             	mov    0xc(%ebp),%edx
    b20b:	8b 5d 10             	mov    0x10(%ebp),%ebx
    b20e:	85 c0                	test   %eax,%eax
    b210:	75 36                	jne    b248 <callback_in+0x48>
    b212:	8b 43 04             	mov    0x4(%ebx),%eax
    b215:	85 c0                	test   %eax,%eax
    b217:	75 4f                	jne    b268 <callback_in+0x68>
    b219:	50                   	push   %eax
    b21a:	50                   	push   %eax
    b21b:	6a 00                	push   $0x0
    b21d:	8b 13                	mov    (%ebx),%edx
    b21f:	52                   	push   %edx
    b220:	e8 cb 37 00 00       	call   e9f0 <async_answer_0@plt>
    b225:	8b 43 08             	mov    0x8(%ebx),%eax
    b228:	83 c4 10             	add    $0x10,%esp
    b22b:	85 c0                	test   %eax,%eax
    b22d:	74 0c                	je     b23b <callback_in+0x3b>
    b22f:	83 ec 0c             	sub    $0xc,%esp
    b232:	50                   	push   %eax
    b233:	e8 a8 3b 00 00       	call   ede0 <free@plt>
    b238:	83 c4 10             	add    $0x10,%esp
    b23b:	89 5d 08             	mov    %ebx,0x8(%ebp)
    b23e:	8b 5d fc             	mov    -0x4(%ebp),%ebx
    b241:	c9                   	leave  
    b242:	e9 99 3b 00 00       	jmp    ede0 <free@plt>
    b247:	90                   	nop
    b248:	52                   	push   %edx
    b249:	52                   	push   %edx
    b24a:	50                   	push   %eax
    b24b:	8b 0b                	mov    (%ebx),%ecx
    b24d:	51                   	push   %ecx
    b24e:	e8 9d 37 00 00       	call   e9f0 <async_answer_0@plt>
    b253:	8b 43 04             	mov    0x4(%ebx),%eax
    b256:	83 c4 10             	add    $0x10,%esp
    b259:	85 c0                	test   %eax,%eax
    b25b:	75 23                	jne    b280 <callback_in+0x80>
    b25d:	8b 43 08             	mov    0x8(%ebx),%eax
    b260:	85 c0                	test   %eax,%eax
    b262:	75 cb                	jne    b22f <callback_in+0x2f>
    b264:	eb d5                	jmp    b23b <callback_in+0x3b>
    b266:	66 90                	xchg   %ax,%ax
    b268:	51                   	push   %ecx
    b269:	52                   	push   %edx
    b26a:	8b 53 08             	mov    0x8(%ebx),%edx
    b26d:	52                   	push   %edx
    b26e:	50                   	push   %eax
    b26f:	e8 0c 37 00 00       	call   e980 <async_data_read_finalize@plt>
    b274:	83 c4 10             	add    $0x10,%esp
    b277:	eb a0                	jmp    b219 <callback_in+0x19>
    b279:	8d b4 26 00 00 00 00 	lea    0x0(%esi,%eiz,1),%esi
    b280:	51                   	push   %ecx
    b281:	51                   	push   %ecx
    b282:	6a ef                	push   $0xffffffef
    b284:	50                   	push   %eax
    b285:	e8 66 37 00 00       	call   e9f0 <async_answer_0@plt>
    b28a:	8b 43 08             	mov    0x8(%ebx),%eax
    b28d:	83 c4 10             	add    $0x10,%esp
    b290:	85 c0                	test   %eax,%eax
    b292:	75 9b                	jne    b22f <callback_in+0x2f>
    b294:	eb a5                	jmp    b23b <callback_in+0x3b>
    b296:	8d 76 00             	lea    0x0(%esi),%esi
    b299:	8d bc 27 00 00 00 00 	lea    0x0(%edi,%eiz,1),%edi

0000b2a0 <remote_usbhc_write>:
    b2a0:	55                   	push   %ebp
    b2a1:	89 e5                	mov    %esp,%ebp
    b2a3:	57                   	push   %edi
    b2a4:	56                   	push   %esi
    b2a5:	53                   	push   %ebx
    b2a6:	83 ec 2c             	sub    $0x2c,%esp
    b2a9:	8b 7d 08             	mov    0x8(%ebp),%edi
    b2ac:	8b 5d 0c             	mov    0xc(%ebp),%ebx
    b2af:	8b 45 14             	mov    0x14(%ebp),%eax
    b2b2:	85 ff                	test   %edi,%edi
    b2b4:	0f 84 58 01 00 00    	je     b412 <remote_usbhc_write+0x172>
    b2ba:	85 db                	test   %ebx,%ebx
    b2bc:	0f 84 3b 01 00 00    	je     b3fd <remote_usbhc_write+0x15d>
    b2c2:	85 c0                	test   %eax,%eax
    b2c4:	0f 84 1e 01 00 00    	je     b3e8 <remote_usbhc_write+0x148>
    b2ca:	8b 53 04             	mov    0x4(%ebx),%edx
    b2cd:	85 d2                	test   %edx,%edx
    b2cf:	0f 84 e3 00 00 00    	je     b3b8 <remote_usbhc_write+0x118>
    b2d5:	83 ec 0c             	sub    $0xc,%esp
    b2d8:	8b 48 08             	mov    0x8(%eax),%ecx
    b2db:	8b 50 14             	mov    0x14(%eax),%edx
    b2de:	8b 70 0c             	mov    0xc(%eax),%esi
    b2e1:	8b 40 10             	mov    0x10(%eax),%eax
    b2e4:	89 4d cc             	mov    %ecx,-0x34(%ebp)
    b2e7:	6a 0c                	push   $0xc
    b2e9:	89 45 d0             	mov    %eax,-0x30(%ebp)
    b2ec:	89 55 d4             	mov    %edx,-0x2c(%ebp)
    b2ef:	e8 bc 36 00 00       	call   e9b0 <malloc@plt>
    b2f4:	83 c4 10             	add    $0x10,%esp
    b2f7:	89 c7                	mov    %eax,%edi
    b2f9:	85 c0                	test   %eax,%eax
    b2fb:	0f 84 cf 00 00 00    	je     b3d0 <remote_usbhc_write+0x130>
    b301:	8b 45 10             	mov    0x10(%ebp),%eax
    b304:	c7 47 04 00 00 00 00 	movl   $0x0,0x4(%edi)
    b30b:	89 07                	mov    %eax,(%edi)
    b30d:	c7 47 08 00 00 00 00 	movl   $0x0,0x8(%edi)
    b314:	c7 45 e4 00 00 00 00 	movl   $0x0,-0x1c(%ebp)
    b31b:	85 f6                	test   %esi,%esi
    b31d:	75 31                	jne    b350 <remote_usbhc_write+0xb0>
    b31f:	31 c0                	xor    %eax,%eax
    b321:	31 c9                	xor    %ecx,%ecx
    b323:	57                   	push   %edi
    b324:	8b 75 d4             	mov    -0x2c(%ebp),%esi
    b327:	68 c0 b1 00 00       	push   $0xb1c0
    b32c:	51                   	push   %ecx
    b32d:	50                   	push   %eax
    b32e:	8b 45 d0             	mov    -0x30(%ebp),%eax
    b331:	56                   	push   %esi
    b332:	50                   	push   %eax
    b333:	8b 45 cc             	mov    -0x34(%ebp),%eax
    b336:	50                   	push   %eax
    b337:	8b 45 08             	mov    0x8(%ebp),%eax
    b33a:	50                   	push   %eax
    b33b:	ff 53 04             	call   *0x4(%ebx)
    b33e:	83 c4 20             	add    $0x20,%esp
    b341:	85 c0                	test   %eax,%eax
    b343:	75 3b                	jne    b380 <remote_usbhc_write+0xe0>
    b345:	8d 65 f4             	lea    -0xc(%ebp),%esp
    b348:	5b                   	pop    %ebx
    b349:	5e                   	pop    %esi
    b34a:	5f                   	pop    %edi
    b34b:	5d                   	pop    %ebp
    b34c:	c3                   	ret    
    b34d:	8d 76 00             	lea    0x0(%esi),%esi
    b350:	50                   	push   %eax
    b351:	50                   	push   %eax
    b352:	8d 45 e4             	lea    -0x1c(%ebp),%eax
    b355:	50                   	push   %eax
    b356:	8d 47 08             	lea    0x8(%edi),%eax
    b359:	6a 00                	push   $0x0
    b35b:	68 fc 03 00 00       	push   $0x3fc
    b360:	6a 01                	push   $0x1
    b362:	6a 00                	push   $0x0
    b364:	50                   	push   %eax
    b365:	e8 e6 39 00 00       	call   ed50 <async_data_write_accept@plt>
    b36a:	83 c4 20             	add    $0x20,%esp
    b36d:	85 c0                	test   %eax,%eax
    b36f:	75 0f                	jne    b380 <remote_usbhc_write+0xe0>
    b371:	8b 4d e4             	mov    -0x1c(%ebp),%ecx
    b374:	8b 47 08             	mov    0x8(%edi),%eax
    b377:	eb aa                	jmp    b323 <remote_usbhc_write+0x83>
    b379:	8d b4 26 00 00 00 00 	lea    0x0(%esi,%eiz,1),%esi
    b380:	8b 5d 10             	mov    0x10(%ebp),%ebx
    b383:	51                   	push   %ecx
    b384:	51                   	push   %ecx
    b385:	50                   	push   %eax
    b386:	53                   	push   %ebx
    b387:	e8 64 36 00 00       	call   e9f0 <async_answer_0@plt>
    b38c:	8b 47 08             	mov    0x8(%edi),%eax
    b38f:	83 c4 10             	add    $0x10,%esp
    b392:	85 c0                	test   %eax,%eax
    b394:	74 0c                	je     b3a2 <remote_usbhc_write+0x102>
    b396:	83 ec 0c             	sub    $0xc,%esp
    b399:	50                   	push   %eax
    b39a:	e8 41 3a 00 00       	call   ede0 <free@plt>
    b39f:	83 c4 10             	add    $0x10,%esp
    b3a2:	83 ec 0c             	sub    $0xc,%esp
    b3a5:	57                   	push   %edi
    b3a6:	e8 35 3a 00 00       	call   ede0 <free@plt>
    b3ab:	83 c4 10             	add    $0x10,%esp
    b3ae:	8d 65 f4             	lea    -0xc(%ebp),%esp
    b3b1:	5b                   	pop    %ebx
    b3b2:	5e                   	pop    %esi
    b3b3:	5f                   	pop    %edi
    b3b4:	5d                   	pop    %ebp
    b3b5:	c3                   	ret    
    b3b6:	66 90                	xchg   %ax,%ax
    b3b8:	50                   	push   %eax
    b3b9:	50                   	push   %eax
    b3ba:	8b 45 10             	mov    0x10(%ebp),%eax
    b3bd:	6a f5                	push   $0xfffffff5
    b3bf:	50                   	push   %eax
    b3c0:	e8 2b 36 00 00       	call   e9f0 <async_answer_0@plt>
    b3c5:	83 c4 10             	add    $0x10,%esp
    b3c8:	8d 65 f4             	lea    -0xc(%ebp),%esp
    b3cb:	5b                   	pop    %ebx
    b3cc:	5e                   	pop    %esi
    b3cd:	5f                   	pop    %edi
    b3ce:	5d                   	pop    %ebp
    b3cf:	c3                   	ret    
    b3d0:	8b 55 10             	mov    0x10(%ebp),%edx
    b3d3:	50                   	push   %eax
    b3d4:	50                   	push   %eax
    b3d5:	6a fe                	push   $0xfffffffe
    b3d7:	52                   	push   %edx
    b3d8:	e8 13 36 00 00       	call   e9f0 <async_answer_0@plt>
    b3dd:	83 c4 10             	add    $0x10,%esp
    b3e0:	8d 65 f4             	lea    -0xc(%ebp),%esp
    b3e3:	5b                   	pop    %ebx
    b3e4:	5e                   	pop    %esi
    b3e5:	5f                   	pop    %edi
    b3e6:	5d                   	pop    %ebp
    b3e7:	c3                   	ret    
    b3e8:	51                   	push   %ecx
    b3e9:	68 43 01 00 00       	push   $0x143
    b3ee:	68 c0 e4 00 00       	push   $0xe4c0
    b3f3:	68 23 e4 00 00       	push   $0xe423
    b3f8:	e8 93 36 00 00       	call   ea90 <assert_abort@plt>
    b3fd:	53                   	push   %ebx
    b3fe:	68 42 01 00 00       	push   $0x142
    b403:	68 c0 e4 00 00       	push   $0xe4c0
    b408:	68 1d e4 00 00       	push   $0xe41d
    b40d:	e8 7e 36 00 00       	call   ea90 <assert_abort@plt>
    b412:	56                   	push   %esi
    b413:	68 41 01 00 00       	push   $0x141
    b418:	68 c0 e4 00 00       	push   $0xe4c0
    b41d:	68 19 e4 00 00       	push   $0xe419
    b422:	e8 69 36 00 00       	call   ea90 <assert_abort@plt>
    b427:	89 f6                	mov    %esi,%esi
    b429:	8d bc 27 00 00 00 00 	lea    0x0(%edi,%eiz,1),%edi

0000b430 <remote_usbhc_read>:
    b430:	55                   	push   %ebp
    b431:	89 e5                	mov    %esp,%ebp
    b433:	57                   	push   %edi
    b434:	56                   	push   %esi
    b435:	53                   	push   %ebx
    b436:	83 ec 2c             	sub    $0x2c,%esp
    b439:	8b 7d 08             	mov    0x8(%ebp),%edi
    b43c:	8b 5d 0c             	mov    0xc(%ebp),%ebx
    b43f:	8b 45 14             	mov    0x14(%ebp),%eax
    b442:	85 ff                	test   %edi,%edi
    b444:	0f 84 51 01 00 00    	je     b59b <remote_usbhc_read+0x16b>
    b44a:	85 db                	test   %ebx,%ebx
    b44c:	0f 84 73 01 00 00    	je     b5c5 <remote_usbhc_read+0x195>
    b452:	85 c0                	test   %eax,%eax
    b454:	0f 84 56 01 00 00    	je     b5b0 <remote_usbhc_read+0x180>
    b45a:	8b 13                	mov    (%ebx),%edx
    b45c:	85 d2                	test   %edx,%edx
    b45e:	0f 84 f4 00 00 00    	je     b558 <remote_usbhc_read+0x128>
    b464:	83 ec 0c             	sub    $0xc,%esp
    b467:	8b 50 10             	mov    0x10(%eax),%edx
    b46a:	8b 70 08             	mov    0x8(%eax),%esi
    b46d:	8b 40 0c             	mov    0xc(%eax),%eax
    b470:	89 45 d0             	mov    %eax,-0x30(%ebp)
    b473:	6a 0c                	push   $0xc
    b475:	89 55 d4             	mov    %edx,-0x2c(%ebp)
    b478:	e8 33 35 00 00       	call   e9b0 <malloc@plt>
    b47d:	83 c4 10             	add    $0x10,%esp
    b480:	89 c7                	mov    %eax,%edi
    b482:	85 c0                	test   %eax,%eax
    b484:	0f 84 e6 00 00 00    	je     b570 <remote_usbhc_read+0x140>
    b48a:	8b 45 10             	mov    0x10(%ebp),%eax
    b48d:	c7 47 04 00 00 00 00 	movl   $0x0,0x4(%edi)
    b494:	89 07                	mov    %eax,(%edi)
    b496:	c7 47 08 00 00 00 00 	movl   $0x0,0x8(%edi)
    b49d:	50                   	push   %eax
    b49e:	50                   	push   %eax
    b49f:	8d 45 e4             	lea    -0x1c(%ebp),%eax
    b4a2:	c7 45 e4 00 00 00 00 	movl   $0x0,-0x1c(%ebp)
    b4a9:	50                   	push   %eax
    b4aa:	8d 47 04             	lea    0x4(%edi),%eax
    b4ad:	50                   	push   %eax
    b4ae:	e8 6d 37 00 00       	call   ec20 <async_data_read_receive@plt>
    b4b3:	83 c4 10             	add    $0x10,%esp
    b4b6:	84 c0                	test   %al,%al
    b4b8:	75 1e                	jne    b4d8 <remote_usbhc_read+0xa8>
    b4ba:	8b 75 10             	mov    0x10(%ebp),%esi
    b4bd:	53                   	push   %ebx
    b4be:	53                   	push   %ebx
    b4bf:	6a f8                	push   $0xfffffff8
    b4c1:	56                   	push   %esi
    b4c2:	e8 29 35 00 00       	call   e9f0 <async_answer_0@plt>
    b4c7:	83 c4 10             	add    $0x10,%esp
    b4ca:	8d 65 f4             	lea    -0xc(%ebp),%esp
    b4cd:	5b                   	pop    %ebx
    b4ce:	5e                   	pop    %esi
    b4cf:	5f                   	pop    %edi
    b4d0:	5d                   	pop    %ebp
    b4d1:	c3                   	ret    
    b4d2:	8d b6 00 00 00 00    	lea    0x0(%esi),%esi
    b4d8:	83 ec 0c             	sub    $0xc,%esp
    b4db:	8b 4d e4             	mov    -0x1c(%ebp),%ecx
    b4de:	51                   	push   %ecx
    b4df:	e8 cc 34 00 00       	call   e9b0 <malloc@plt>
    b4e4:	83 c4 10             	add    $0x10,%esp
    b4e7:	89 47 08             	mov    %eax,0x8(%edi)
    b4ea:	85 c0                	test   %eax,%eax
    b4ec:	0f 84 96 00 00 00    	je     b588 <remote_usbhc_read+0x158>
    b4f2:	8b 4d e4             	mov    -0x1c(%ebp),%ecx
    b4f5:	57                   	push   %edi
    b4f6:	68 00 b2 00 00       	push   $0xb200
    b4fb:	51                   	push   %ecx
    b4fc:	50                   	push   %eax
    b4fd:	8b 45 d4             	mov    -0x2c(%ebp),%eax
    b500:	50                   	push   %eax
    b501:	8b 45 d0             	mov    -0x30(%ebp),%eax
    b504:	50                   	push   %eax
    b505:	8b 45 08             	mov    0x8(%ebp),%eax
    b508:	56                   	push   %esi
    b509:	50                   	push   %eax
    b50a:	ff 13                	call   *(%ebx)
    b50c:	83 c4 20             	add    $0x20,%esp
    b50f:	89 c3                	mov    %eax,%ebx
    b511:	85 c0                	test   %eax,%eax
    b513:	74 b5                	je     b4ca <remote_usbhc_read+0x9a>
    b515:	56                   	push   %esi
    b516:	56                   	push   %esi
    b517:	50                   	push   %eax
    b518:	8b 47 04             	mov    0x4(%edi),%eax
    b51b:	50                   	push   %eax
    b51c:	e8 cf 34 00 00       	call   e9f0 <async_answer_0@plt>
    b521:	58                   	pop    %eax
    b522:	5a                   	pop    %edx
    b523:	53                   	push   %ebx
    b524:	8b 4d 10             	mov    0x10(%ebp),%ecx
    b527:	51                   	push   %ecx
    b528:	e8 c3 34 00 00       	call   e9f0 <async_answer_0@plt>
    b52d:	8b 47 08             	mov    0x8(%edi),%eax
    b530:	83 c4 10             	add    $0x10,%esp
    b533:	85 c0                	test   %eax,%eax
    b535:	74 0c                	je     b543 <remote_usbhc_read+0x113>
    b537:	83 ec 0c             	sub    $0xc,%esp
    b53a:	50                   	push   %eax
    b53b:	e8 a0 38 00 00       	call   ede0 <free@plt>
    b540:	83 c4 10             	add    $0x10,%esp
    b543:	83 ec 0c             	sub    $0xc,%esp
    b546:	57                   	push   %edi
    b547:	e8 94 38 00 00       	call   ede0 <free@plt>
    b54c:	83 c4 10             	add    $0x10,%esp
    b54f:	8d 65 f4             	lea    -0xc(%ebp),%esp
    b552:	5b                   	pop    %ebx
    b553:	5e                   	pop    %esi
    b554:	5f                   	pop    %edi
    b555:	5d                   	pop    %ebp
    b556:	c3                   	ret    
    b557:	90                   	nop
    b558:	50                   	push   %eax
    b559:	50                   	push   %eax
    b55a:	8b 45 10             	mov    0x10(%ebp),%eax
    b55d:	6a f5                	push   $0xfffffff5
    b55f:	50                   	push   %eax
    b560:	e8 8b 34 00 00       	call   e9f0 <async_answer_0@plt>
    b565:	83 c4 10             	add    $0x10,%esp
    b568:	8d 65 f4             	lea    -0xc(%ebp),%esp
    b56b:	5b                   	pop    %ebx
    b56c:	5e                   	pop    %esi
    b56d:	5f                   	pop    %edi
    b56e:	5d                   	pop    %ebp
    b56f:	c3                   	ret    
    b570:	8b 55 10             	mov    0x10(%ebp),%edx
    b573:	50                   	push   %eax
    b574:	50                   	push   %eax
    b575:	6a fe                	push   $0xfffffffe
    b577:	52                   	push   %edx
    b578:	e8 73 34 00 00       	call   e9f0 <async_answer_0@plt>
    b57d:	83 c4 10             	add    $0x10,%esp
    b580:	8d 65 f4             	lea    -0xc(%ebp),%esp
    b583:	5b                   	pop    %ebx
    b584:	5e                   	pop    %esi
    b585:	5f                   	pop    %edi
    b586:	5d                   	pop    %ebp
    b587:	c3                   	ret    
    b588:	50                   	push   %eax
    b589:	50                   	push   %eax
    b58a:	6a fe                	push   $0xfffffffe
    b58c:	8b 47 04             	mov    0x4(%edi),%eax
    b58f:	50                   	push   %eax
    b590:	e8 5b 34 00 00       	call   e9f0 <async_answer_0@plt>
    b595:	58                   	pop    %eax
    b596:	5a                   	pop    %edx
    b597:	6a fe                	push   $0xfffffffe
    b599:	eb 89                	jmp    b524 <remote_usbhc_read+0xf4>
    b59b:	56                   	push   %esi
    b59c:	68 10 01 00 00       	push   $0x110
    b5a1:	68 c0 e4 00 00       	push   $0xe4c0
    b5a6:	68 19 e4 00 00       	push   $0xe419
    b5ab:	e8 e0 34 00 00       	call   ea90 <assert_abort@plt>
    b5b0:	51                   	push   %ecx
    b5b1:	68 12 01 00 00       	push   $0x112
    b5b6:	68 c0 e4 00 00       	push   $0xe4c0
    b5bb:	68 23 e4 00 00       	push   $0xe423
    b5c0:	e8 cb 34 00 00       	call   ea90 <assert_abort@plt>
    b5c5:	53                   	push   %ebx
    b5c6:	68 11 01 00 00       	push   $0x111
    b5cb:	68 c0 e4 00 00       	push   $0xe4c0
    b5d0:	68 1d e4 00 00       	push   $0xe41d
    b5d5:	e8 b6 34 00 00       	call   ea90 <assert_abort@plt>
    b5da:	8d b6 00 00 00 00    	lea    0x0(%esi),%esi

0000b5e0 <usbhc_read>:
    b5e0:	55                   	push   %ebp
    b5e1:	89 e5                	mov    %esp,%ebp
    b5e3:	57                   	push   %edi
    b5e4:	56                   	push   %esi
    b5e5:	53                   	push   %ebx
    b5e6:	83 ec 4c             	sub    $0x4c,%esp
    b5e9:	8b 5d 08             	mov    0x8(%ebp),%ebx
    b5ec:	8b 45 0c             	mov    0xc(%ebp),%eax
    b5ef:	8b 7d 10             	mov    0x10(%ebp),%edi
    b5f2:	8b 4d 14             	mov    0x14(%ebp),%ecx
    b5f5:	8b 75 18             	mov    0x18(%ebp),%esi
    b5f8:	66 89 45 b6          	mov    %ax,-0x4a(%ebp)
    b5fc:	85 db                	test   %ebx,%ebx
    b5fe:	0f 84 d2 00 00 00    	je     b6d6 <usbhc_read+0xf6>
    b604:	8b 45 20             	mov    0x20(%ebp),%eax
    b607:	85 c0                	test   %eax,%eax
    b609:	75 15                	jne    b620 <usbhc_read+0x40>
    b60b:	89 ca                	mov    %ecx,%edx
    b60d:	31 c0                	xor    %eax,%eax
    b60f:	09 f2                	or     %esi,%edx
    b611:	75 0d                	jne    b620 <usbhc_read+0x40>
    b613:	8d 65 f4             	lea    -0xc(%ebp),%esp
    b616:	5b                   	pop    %ebx
    b617:	5e                   	pop    %esi
    b618:	5f                   	pop    %edi
    b619:	5d                   	pop    %ebp
    b61a:	c3                   	ret    
    b61b:	90                   	nop
    b61c:	8d 74 26 00          	lea    0x0(%esi,%eiz,1),%esi
    b620:	c1 e7 10             	shl    $0x10,%edi
    b623:	31 d2                	xor    %edx,%edx
    b625:	66 8b 55 b6          	mov    -0x4a(%ebp),%dx
    b629:	50                   	push   %eax
    b62a:	09 d7                	or     %edx,%edi
    b62c:	6a 00                	push   $0x0
    b62e:	56                   	push   %esi
    b62f:	51                   	push   %ecx
    b630:	57                   	push   %edi
    b631:	6a 00                	push   $0x0
    b633:	68 09 04 00 00       	push   $0x409
    b638:	53                   	push   %ebx
    b639:	e8 c2 33 00 00       	call   ea00 <async_send_fast@plt>
    b63e:	83 c4 20             	add    $0x20,%esp
    b641:	89 c6                	mov    %eax,%esi
    b643:	85 c0                	test   %eax,%eax
    b645:	74 69                	je     b6b0 <usbhc_read+0xd0>
    b647:	8d 45 c4             	lea    -0x3c(%ebp),%eax
    b64a:	8b 7d 20             	mov    0x20(%ebp),%edi
    b64d:	50                   	push   %eax
    b64e:	8b 45 1c             	mov    0x1c(%ebp),%eax
    b651:	57                   	push   %edi
    b652:	50                   	push   %eax
    b653:	53                   	push   %ebx
    b654:	e8 e7 33 00 00       	call   ea40 <async_data_read@plt>
    b659:	83 c4 10             	add    $0x10,%esp
    b65c:	85 c0                	test   %eax,%eax
    b65e:	74 60                	je     b6c0 <usbhc_read+0xe0>
    b660:	52                   	push   %edx
    b661:	52                   	push   %edx
    b662:	8d 55 bc             	lea    -0x44(%ebp),%edx
    b665:	52                   	push   %edx
    b666:	50                   	push   %eax
    b667:	e8 a4 32 00 00       	call   e910 <async_wait_for@plt>
    b66c:	8d 45 c0             	lea    -0x40(%ebp),%eax
    b66f:	59                   	pop    %ecx
    b670:	5b                   	pop    %ebx
    b671:	50                   	push   %eax
    b672:	56                   	push   %esi
    b673:	e8 98 32 00 00       	call   e910 <async_wait_for@plt>
    b678:	8b 45 bc             	mov    -0x44(%ebp),%eax
    b67b:	83 c4 10             	add    $0x10,%esp
    b67e:	85 c0                	test   %eax,%eax
    b680:	74 0e                	je     b690 <usbhc_read+0xb0>
    b682:	8b 55 c0             	mov    -0x40(%ebp),%edx
    b685:	85 d2                	test   %edx,%edx
    b687:	74 8a                	je     b613 <usbhc_read+0x33>
    b689:	89 d0                	mov    %edx,%eax
    b68b:	eb 86                	jmp    b613 <usbhc_read+0x33>
    b68d:	8d 76 00             	lea    0x0(%esi),%esi
    b690:	8b 45 c0             	mov    -0x40(%ebp),%eax
    b693:	85 c0                	test   %eax,%eax
    b695:	0f 85 78 ff ff ff    	jne    b613 <usbhc_read+0x33>
    b69b:	8b 45 24             	mov    0x24(%ebp),%eax
    b69e:	8b 55 cc             	mov    -0x34(%ebp),%edx
    b6a1:	89 10                	mov    %edx,(%eax)
    b6a3:	8d 65 f4             	lea    -0xc(%ebp),%esp
    b6a6:	31 c0                	xor    %eax,%eax
    b6a8:	5b                   	pop    %ebx
    b6a9:	5e                   	pop    %esi
    b6aa:	5f                   	pop    %edi
    b6ab:	5d                   	pop    %ebp
    b6ac:	c3                   	ret    
    b6ad:	8d 76 00             	lea    0x0(%esi),%esi
    b6b0:	b8 fe ff ff ff       	mov    $0xfffffffe,%eax
    b6b5:	e9 59 ff ff ff       	jmp    b613 <usbhc_read+0x33>
    b6ba:	8d b6 00 00 00 00    	lea    0x0(%esi),%esi
    b6c0:	83 ec 0c             	sub    $0xc,%esp
    b6c3:	56                   	push   %esi
    b6c4:	e8 97 36 00 00       	call   ed60 <async_forget@plt>
    b6c9:	83 c4 10             	add    $0x10,%esp
    b6cc:	b8 fe ff ff ff       	mov    $0xfffffffe,%eax
    b6d1:	e9 3d ff ff ff       	jmp    b613 <usbhc_read+0x33>
    b6d6:	b8 f6 ff ff ff       	mov    $0xfffffff6,%eax
    b6db:	e9 33 ff ff ff       	jmp    b613 <usbhc_read+0x33>

0000b6e0 <usbhc_write>:
    b6e0:	55                   	push   %ebp
    b6e1:	89 e5                	mov    %esp,%ebp
    b6e3:	57                   	push   %edi
    b6e4:	56                   	push   %esi
    b6e5:	53                   	push   %ebx
    b6e6:	83 ec 2c             	sub    $0x2c,%esp
    b6e9:	8b 45 0c             	mov    0xc(%ebp),%eax
    b6ec:	8b 7d 10             	mov    0x10(%ebp),%edi
    b6ef:	66 89 45 d4          	mov    %ax,-0x2c(%ebp)
    b6f3:	8b 45 08             	mov    0x8(%ebp),%eax
    b6f6:	8b 4d 14             	mov    0x14(%ebp),%ecx
    b6f9:	8b 75 18             	mov    0x18(%ebp),%esi
    b6fc:	8b 5d 20             	mov    0x20(%ebp),%ebx
    b6ff:	85 c0                	test   %eax,%eax
    b701:	0f 84 9b 00 00 00    	je     b7a2 <usbhc_write+0xc2>
    b707:	85 db                	test   %ebx,%ebx
    b709:	75 15                	jne    b720 <usbhc_write+0x40>
    b70b:	89 ca                	mov    %ecx,%edx
    b70d:	31 c0                	xor    %eax,%eax
    b70f:	09 f2                	or     %esi,%edx
    b711:	75 0d                	jne    b720 <usbhc_write+0x40>
    b713:	8d 65 f4             	lea    -0xc(%ebp),%esp
    b716:	5b                   	pop    %ebx
    b717:	5e                   	pop    %esi
    b718:	5f                   	pop    %edi
    b719:	5d                   	pop    %ebp
    b71a:	c3                   	ret    
    b71b:	90                   	nop
    b71c:	8d 74 26 00          	lea    0x0(%esi,%eiz,1),%esi
    b720:	31 d2                	xor    %edx,%edx
    b722:	6a 00                	push   $0x0
    b724:	c1 e7 10             	shl    $0x10,%edi
    b727:	66 8b 55 d4          	mov    -0x2c(%ebp),%dx
    b72b:	56                   	push   %esi
    b72c:	09 d7                	or     %edx,%edi
    b72e:	8b 75 08             	mov    0x8(%ebp),%esi
    b731:	51                   	push   %ecx
    b732:	53                   	push   %ebx
    b733:	57                   	push   %edi
    b734:	6a 01                	push   $0x1
    b736:	68 09 04 00 00       	push   $0x409
    b73b:	56                   	push   %esi
    b73c:	e8 5f 34 00 00       	call   eba0 <async_send_slow@plt>
    b741:	83 c4 20             	add    $0x20,%esp
    b744:	89 c6                	mov    %eax,%esi
    b746:	85 c0                	test   %eax,%eax
    b748:	74 4e                	je     b798 <usbhc_write+0xb8>
    b74a:	85 db                	test   %ebx,%ebx
    b74c:	74 16                	je     b764 <usbhc_write+0x84>
    b74e:	8b 4d 1c             	mov    0x1c(%ebp),%ecx
    b751:	52                   	push   %edx
    b752:	53                   	push   %ebx
    b753:	8b 5d 08             	mov    0x8(%ebp),%ebx
    b756:	51                   	push   %ecx
    b757:	53                   	push   %ebx
    b758:	e8 f3 31 00 00       	call   e950 <async_data_write_start@plt>
    b75d:	83 c4 10             	add    $0x10,%esp
    b760:	85 c0                	test   %eax,%eax
    b762:	75 1c                	jne    b780 <usbhc_write+0xa0>
    b764:	50                   	push   %eax
    b765:	50                   	push   %eax
    b766:	8d 45 e4             	lea    -0x1c(%ebp),%eax
    b769:	50                   	push   %eax
    b76a:	56                   	push   %esi
    b76b:	e8 a0 31 00 00       	call   e910 <async_wait_for@plt>
    b770:	8b 45 e4             	mov    -0x1c(%ebp),%eax
    b773:	83 c4 10             	add    $0x10,%esp
    b776:	8d 65 f4             	lea    -0xc(%ebp),%esp
    b779:	5b                   	pop    %ebx
    b77a:	5e                   	pop    %esi
    b77b:	5f                   	pop    %edi
    b77c:	5d                   	pop    %ebp
    b77d:	c3                   	ret    
    b77e:	66 90                	xchg   %ax,%ax
    b780:	83 ec 0c             	sub    $0xc,%esp
    b783:	89 45 d4             	mov    %eax,-0x2c(%ebp)
    b786:	56                   	push   %esi
    b787:	e8 d4 35 00 00       	call   ed60 <async_forget@plt>
    b78c:	83 c4 10             	add    $0x10,%esp
    b78f:	8b 45 d4             	mov    -0x2c(%ebp),%eax
    b792:	e9 7c ff ff ff       	jmp    b713 <usbhc_write+0x33>
    b797:	90                   	nop
    b798:	b8 fe ff ff ff       	mov    $0xfffffffe,%eax
    b79d:	e9 71 ff ff ff       	jmp    b713 <usbhc_write+0x33>
    b7a2:	b8 f6 ff ff ff       	mov    $0xfffffff6,%eax
    b7a7:	e9 67 ff ff ff       	jmp    b713 <usbhc_write+0x33>
    b7ac:	66 90                	xchg   %ax,%ax
    b7ae:	66 90                	xchg   %ax,%ax

0000b7b0 <remote_usbhid_get_report_descriptor>:
    b7b0:	55                   	push   %ebp
    b7b1:	89 e5                	mov    %esp,%ebp
    b7b3:	56                   	push   %esi
    b7b4:	53                   	push   %ebx
    b7b5:	83 ec 10             	sub    $0x10,%esp
    b7b8:	8b 5d 0c             	mov    0xc(%ebp),%ebx
    b7bb:	8b 43 0c             	mov    0xc(%ebx),%eax
    b7be:	85 c0                	test   %eax,%eax
    b7c0:	0f 84 02 01 00 00    	je     b8c8 <remote_usbhid_get_report_descriptor+0x118>
    b7c6:	50                   	push   %eax
    b7c7:	50                   	push   %eax
    b7c8:	8d 45 ec             	lea    -0x14(%ebp),%eax
    b7cb:	50                   	push   %eax
    b7cc:	8d 45 f0             	lea    -0x10(%ebp),%eax
    b7cf:	50                   	push   %eax
    b7d0:	e8 4b 34 00 00       	call   ec20 <async_data_read_receive@plt>
    b7d5:	83 c4 10             	add    $0x10,%esp
    b7d8:	84 c0                	test   %al,%al
    b7da:	0f 84 98 00 00 00    	je     b878 <remote_usbhid_get_report_descriptor+0xc8>
    b7e0:	8b 45 ec             	mov    -0x14(%ebp),%eax
    b7e3:	85 c0                	test   %eax,%eax
    b7e5:	75 29                	jne    b810 <remote_usbhid_get_report_descriptor+0x60>
    b7e7:	8b 45 f0             	mov    -0x10(%ebp),%eax
    b7ea:	56                   	push   %esi
    b7eb:	56                   	push   %esi
    b7ec:	6a f2                	push   $0xfffffff2
    b7ee:	50                   	push   %eax
    b7ef:	e8 fc 31 00 00       	call   e9f0 <async_answer_0@plt>
    b7f4:	8b 4d 10             	mov    0x10(%ebp),%ecx
    b7f7:	58                   	pop    %eax
    b7f8:	5a                   	pop    %edx
    b7f9:	6a f2                	push   $0xfffffff2
    b7fb:	51                   	push   %ecx
    b7fc:	e8 ef 31 00 00       	call   e9f0 <async_answer_0@plt>
    b801:	83 c4 10             	add    $0x10,%esp
    b804:	8d 65 f8             	lea    -0x8(%ebp),%esp
    b807:	5b                   	pop    %ebx
    b808:	5e                   	pop    %esi
    b809:	5d                   	pop    %ebp
    b80a:	c3                   	ret    
    b80b:	90                   	nop
    b80c:	8d 74 26 00          	lea    0x0(%esi,%eiz,1),%esi
    b810:	83 ec 0c             	sub    $0xc,%esp
    b813:	50                   	push   %eax
    b814:	e8 97 31 00 00       	call   e9b0 <malloc@plt>
    b819:	83 c4 10             	add    $0x10,%esp
    b81c:	89 c6                	mov    %eax,%esi
    b81e:	85 c0                	test   %eax,%eax
    b820:	0f 84 ba 00 00 00    	je     b8e0 <remote_usbhid_get_report_descriptor+0x130>
    b826:	8d 45 f4             	lea    -0xc(%ebp),%eax
    b829:	c7 45 f4 00 00 00 00 	movl   $0x0,-0xc(%ebp)
    b830:	50                   	push   %eax
    b831:	8b 45 ec             	mov    -0x14(%ebp),%eax
    b834:	50                   	push   %eax
    b835:	8b 45 08             	mov    0x8(%ebp),%eax
    b838:	56                   	push   %esi
    b839:	50                   	push   %eax
    b83a:	ff 53 0c             	call   *0xc(%ebx)
    b83d:	8b 55 f4             	mov    -0xc(%ebp),%edx
    b840:	83 c4 10             	add    $0x10,%esp
    b843:	3b 55 ec             	cmp    -0x14(%ebp),%edx
    b846:	76 48                	jbe    b890 <remote_usbhid_get_report_descriptor+0xe0>
    b848:	bb fd ff ff ff       	mov    $0xfffffffd,%ebx
    b84d:	83 ec 0c             	sub    $0xc,%esp
    b850:	56                   	push   %esi
    b851:	e8 8a 35 00 00       	call   ede0 <free@plt>
    b856:	8b 4d f0             	mov    -0x10(%ebp),%ecx
    b859:	58                   	pop    %eax
    b85a:	5a                   	pop    %edx
    b85b:	53                   	push   %ebx
    b85c:	51                   	push   %ecx
    b85d:	e8 8e 31 00 00       	call   e9f0 <async_answer_0@plt>
    b862:	5e                   	pop    %esi
    b863:	58                   	pop    %eax
    b864:	8b 45 10             	mov    0x10(%ebp),%eax
    b867:	53                   	push   %ebx
    b868:	50                   	push   %eax
    b869:	e8 82 31 00 00       	call   e9f0 <async_answer_0@plt>
    b86e:	83 c4 10             	add    $0x10,%esp
    b871:	8d 65 f8             	lea    -0x8(%ebp),%esp
    b874:	5b                   	pop    %ebx
    b875:	5e                   	pop    %esi
    b876:	5d                   	pop    %ebp
    b877:	c3                   	ret    
    b878:	8b 75 10             	mov    0x10(%ebp),%esi
    b87b:	53                   	push   %ebx
    b87c:	53                   	push   %ebx
    b87d:	6a f2                	push   $0xfffffff2
    b87f:	56                   	push   %esi
    b880:	e8 6b 31 00 00       	call   e9f0 <async_answer_0@plt>
    b885:	83 c4 10             	add    $0x10,%esp
    b888:	8d 65 f8             	lea    -0x8(%ebp),%esp
    b88b:	5b                   	pop    %ebx
    b88c:	5e                   	pop    %esi
    b88d:	5d                   	pop    %ebp
    b88e:	c3                   	ret    
    b88f:	90                   	nop
    b890:	89 c3                	mov    %eax,%ebx
    b892:	85 c0                	test   %eax,%eax
    b894:	75 b7                	jne    b84d <remote_usbhid_get_report_descriptor+0x9d>
    b896:	50                   	push   %eax
    b897:	52                   	push   %edx
    b898:	8b 55 f0             	mov    -0x10(%ebp),%edx
    b89b:	56                   	push   %esi
    b89c:	52                   	push   %edx
    b89d:	e8 de 30 00 00       	call   e980 <async_data_read_finalize@plt>
    b8a2:	8b 45 10             	mov    0x10(%ebp),%eax
    b8a5:	59                   	pop    %ecx
    b8a6:	5b                   	pop    %ebx
    b8a7:	6a 00                	push   $0x0
    b8a9:	50                   	push   %eax
    b8aa:	e8 41 31 00 00       	call   e9f0 <async_answer_0@plt>
    b8af:	89 34 24             	mov    %esi,(%esp)
    b8b2:	e8 29 35 00 00       	call   ede0 <free@plt>
    b8b7:	83 c4 10             	add    $0x10,%esp
    b8ba:	8d 65 f8             	lea    -0x8(%ebp),%esp
    b8bd:	5b                   	pop    %ebx
    b8be:	5e                   	pop    %esi
    b8bf:	5d                   	pop    %ebp
    b8c0:	c3                   	ret    
    b8c1:	8d b4 26 00 00 00 00 	lea    0x0(%esi,%eiz,1),%esi
    b8c8:	50                   	push   %eax
    b8c9:	50                   	push   %eax
    b8ca:	8b 45 10             	mov    0x10(%ebp),%eax
    b8cd:	6a f5                	push   $0xfffffff5
    b8cf:	50                   	push   %eax
    b8d0:	e8 1b 31 00 00       	call   e9f0 <async_answer_0@plt>
    b8d5:	83 c4 10             	add    $0x10,%esp
    b8d8:	8d 65 f8             	lea    -0x8(%ebp),%esp
    b8db:	5b                   	pop    %ebx
    b8dc:	5e                   	pop    %esi
    b8dd:	5d                   	pop    %ebp
    b8de:	c3                   	ret    
    b8df:	90                   	nop
    b8e0:	50                   	push   %eax
    b8e1:	50                   	push   %eax
    b8e2:	8b 45 f0             	mov    -0x10(%ebp),%eax
    b8e5:	6a fe                	push   $0xfffffffe
    b8e7:	50                   	push   %eax
    b8e8:	e8 03 31 00 00       	call   e9f0 <async_answer_0@plt>
    b8ed:	8b 5d 10             	mov    0x10(%ebp),%ebx
    b8f0:	5a                   	pop    %edx
    b8f1:	59                   	pop    %ecx
    b8f2:	6a fe                	push   $0xfffffffe
    b8f4:	53                   	push   %ebx
    b8f5:	e8 f6 30 00 00       	call   e9f0 <async_answer_0@plt>
    b8fa:	83 c4 10             	add    $0x10,%esp
    b8fd:	e9 02 ff ff ff       	jmp    b804 <remote_usbhid_get_report_descriptor+0x54>
    b902:	8d b4 26 00 00 00 00 	lea    0x0(%esi,%eiz,1),%esi
    b909:	8d bc 27 00 00 00 00 	lea    0x0(%edi,%eiz,1),%edi

0000b910 <remote_usbhid_get_report_descriptor_length>:
    b910:	55                   	push   %ebp
    b911:	89 e5                	mov    %esp,%ebp
    b913:	53                   	push   %ebx
    b914:	50                   	push   %eax
    b915:	8b 45 0c             	mov    0xc(%ebp),%eax
    b918:	8b 55 08             	mov    0x8(%ebp),%edx
    b91b:	8b 5d 10             	mov    0x10(%ebp),%ebx
    b91e:	8b 40 08             	mov    0x8(%eax),%eax
    b921:	85 c0                	test   %eax,%eax
    b923:	74 23                	je     b948 <remote_usbhid_get_report_descriptor_length+0x38>
    b925:	83 ec 0c             	sub    $0xc,%esp
    b928:	52                   	push   %edx
    b929:	ff d0                	call   *%eax
    b92b:	89 5d 08             	mov    %ebx,0x8(%ebp)
    b92e:	83 c4 10             	add    $0x10,%esp
    b931:	8b 5d fc             	mov    -0x4(%ebp),%ebx
    b934:	89 45 10             	mov    %eax,0x10(%ebp)
    b937:	c7 45 0c 00 00 00 00 	movl   $0x0,0xc(%ebp)
    b93e:	c9                   	leave  
    b93f:	e9 7c 33 00 00       	jmp    ecc0 <async_answer_1@plt>
    b944:	8d 74 26 00          	lea    0x0(%esi,%eiz,1),%esi
    b948:	89 5d 08             	mov    %ebx,0x8(%ebp)
    b94b:	8b 5d fc             	mov    -0x4(%ebp),%ebx
    b94e:	c7 45 0c f5 ff ff ff 	movl   $0xfffffff5,0xc(%ebp)
    b955:	c9                   	leave  
    b956:	e9 95 30 00 00       	jmp    e9f0 <async_answer_0@plt>
    b95b:	90                   	nop
    b95c:	8d 74 26 00          	lea    0x0(%esi,%eiz,1),%esi

0000b960 <remote_usbhid_get_event>:
    b960:	55                   	push   %ebp
    b961:	89 e5                	mov    %esp,%ebp
    b963:	57                   	push   %edi
    b964:	56                   	push   %esi
    b965:	53                   	push   %ebx
    b966:	83 ec 1c             	sub    $0x1c,%esp
    b969:	8b 5d 0c             	mov    0xc(%ebp),%ebx
    b96c:	8b 4b 04             	mov    0x4(%ebx),%ecx
    b96f:	85 c9                	test   %ecx,%ecx
    b971:	0f 84 11 01 00 00    	je     ba88 <remote_usbhid_get_event+0x128>
    b977:	8b 45 14             	mov    0x14(%ebp),%eax
    b97a:	8b 70 08             	mov    0x8(%eax),%esi
    b97d:	50                   	push   %eax
    b97e:	50                   	push   %eax
    b97f:	8d 45 d8             	lea    -0x28(%ebp),%eax
    b982:	50                   	push   %eax
    b983:	8d 45 dc             	lea    -0x24(%ebp),%eax
    b986:	50                   	push   %eax
    b987:	e8 94 32 00 00       	call   ec20 <async_data_read_receive@plt>
    b98c:	83 c4 10             	add    $0x10,%esp
    b98f:	84 c0                	test   %al,%al
    b991:	0f 84 a9 00 00 00    	je     ba40 <remote_usbhid_get_event+0xe0>
    b997:	8b 45 d8             	mov    -0x28(%ebp),%eax
    b99a:	85 c0                	test   %eax,%eax
    b99c:	75 2a                	jne    b9c8 <remote_usbhid_get_event+0x68>
    b99e:	8b 75 dc             	mov    -0x24(%ebp),%esi
    b9a1:	53                   	push   %ebx
    b9a2:	53                   	push   %ebx
    b9a3:	6a f2                	push   $0xfffffff2
    b9a5:	56                   	push   %esi
    b9a6:	e8 45 30 00 00       	call   e9f0 <async_answer_0@plt>
    b9ab:	5f                   	pop    %edi
    b9ac:	58                   	pop    %eax
    b9ad:	8b 45 10             	mov    0x10(%ebp),%eax
    b9b0:	6a f2                	push   $0xfffffff2
    b9b2:	50                   	push   %eax
    b9b3:	e8 38 30 00 00       	call   e9f0 <async_answer_0@plt>
    b9b8:	83 c4 10             	add    $0x10,%esp
    b9bb:	8d 65 f4             	lea    -0xc(%ebp),%esp
    b9be:	5b                   	pop    %ebx
    b9bf:	5e                   	pop    %esi
    b9c0:	5f                   	pop    %edi
    b9c1:	5d                   	pop    %ebp
    b9c2:	c3                   	ret    
    b9c3:	90                   	nop
    b9c4:	8d 74 26 00          	lea    0x0(%esi,%eiz,1),%esi
    b9c8:	83 ec 0c             	sub    $0xc,%esp
    b9cb:	50                   	push   %eax
    b9cc:	e8 df 2f 00 00       	call   e9b0 <malloc@plt>
    b9d1:	83 c4 10             	add    $0x10,%esp
    b9d4:	89 c7                	mov    %eax,%edi
    b9d6:	85 c0                	test   %eax,%eax
    b9d8:	0f 84 c2 00 00 00    	je     baa0 <remote_usbhid_get_event+0x140>
    b9de:	50                   	push   %eax
    b9df:	50                   	push   %eax
    b9e0:	8d 45 e4             	lea    -0x1c(%ebp),%eax
    b9e3:	56                   	push   %esi
    b9e4:	50                   	push   %eax
    b9e5:	8d 45 e0             	lea    -0x20(%ebp),%eax
    b9e8:	50                   	push   %eax
    b9e9:	8b 45 d8             	mov    -0x28(%ebp),%eax
    b9ec:	50                   	push   %eax
    b9ed:	8b 45 08             	mov    0x8(%ebp),%eax
    b9f0:	57                   	push   %edi
    b9f1:	50                   	push   %eax
    b9f2:	ff 53 04             	call   *0x4(%ebx)
    b9f5:	83 c4 20             	add    $0x20,%esp
    b9f8:	89 c3                	mov    %eax,%ebx
    b9fa:	85 c0                	test   %eax,%eax
    b9fc:	75 5a                	jne    ba58 <remote_usbhid_get_event+0xf8>
    b9fe:	8b 45 e0             	mov    -0x20(%ebp),%eax
    ba01:	8b 55 d8             	mov    -0x28(%ebp),%edx
    ba04:	39 d0                	cmp    %edx,%eax
    ba06:	72 05                	jb     ba0d <remote_usbhid_get_event+0xad>
    ba08:	89 55 e0             	mov    %edx,-0x20(%ebp)
    ba0b:	89 d0                	mov    %edx,%eax
    ba0d:	8b 4d dc             	mov    -0x24(%ebp),%ecx
    ba10:	52                   	push   %edx
    ba11:	50                   	push   %eax
    ba12:	57                   	push   %edi
    ba13:	51                   	push   %ecx
    ba14:	e8 67 2f 00 00       	call   e980 <async_data_read_finalize@plt>
    ba19:	89 3c 24             	mov    %edi,(%esp)
    ba1c:	e8 bf 33 00 00       	call   ede0 <free@plt>
    ba21:	83 c4 0c             	add    $0xc,%esp
    ba24:	8b 5d e4             	mov    -0x1c(%ebp),%ebx
    ba27:	8b 75 10             	mov    0x10(%ebp),%esi
    ba2a:	53                   	push   %ebx
    ba2b:	6a 00                	push   $0x0
    ba2d:	56                   	push   %esi
    ba2e:	e8 8d 32 00 00       	call   ecc0 <async_answer_1@plt>
    ba33:	83 c4 10             	add    $0x10,%esp
    ba36:	8d 65 f4             	lea    -0xc(%ebp),%esp
    ba39:	5b                   	pop    %ebx
    ba3a:	5e                   	pop    %esi
    ba3b:	5f                   	pop    %edi
    ba3c:	5d                   	pop    %ebp
    ba3d:	c3                   	ret    
    ba3e:	66 90                	xchg   %ax,%ax
    ba40:	50                   	push   %eax
    ba41:	50                   	push   %eax
    ba42:	8b 45 10             	mov    0x10(%ebp),%eax
    ba45:	6a f8                	push   $0xfffffff8
    ba47:	50                   	push   %eax
    ba48:	e8 a3 2f 00 00       	call   e9f0 <async_answer_0@plt>
    ba4d:	83 c4 10             	add    $0x10,%esp
    ba50:	8d 65 f4             	lea    -0xc(%ebp),%esp
    ba53:	5b                   	pop    %ebx
    ba54:	5e                   	pop    %esi
    ba55:	5f                   	pop    %edi
    ba56:	5d                   	pop    %ebp
    ba57:	c3                   	ret    
    ba58:	83 ec 0c             	sub    $0xc,%esp
    ba5b:	57                   	push   %edi
    ba5c:	e8 7f 33 00 00       	call   ede0 <free@plt>
    ba61:	5f                   	pop    %edi
    ba62:	58                   	pop    %eax
    ba63:	8b 45 dc             	mov    -0x24(%ebp),%eax
    ba66:	53                   	push   %ebx
    ba67:	50                   	push   %eax
    ba68:	e8 83 2f 00 00       	call   e9f0 <async_answer_0@plt>
    ba6d:	8b 4d 10             	mov    0x10(%ebp),%ecx
    ba70:	58                   	pop    %eax
    ba71:	5a                   	pop    %edx
    ba72:	53                   	push   %ebx
    ba73:	51                   	push   %ecx
    ba74:	e8 77 2f 00 00       	call   e9f0 <async_answer_0@plt>
    ba79:	83 c4 10             	add    $0x10,%esp
    ba7c:	e9 3a ff ff ff       	jmp    b9bb <remote_usbhid_get_event+0x5b>
    ba81:	8d b4 26 00 00 00 00 	lea    0x0(%esi,%eiz,1),%esi
    ba88:	8b 55 10             	mov    0x10(%ebp),%edx
    ba8b:	50                   	push   %eax
    ba8c:	50                   	push   %eax
    ba8d:	6a f5                	push   $0xfffffff5
    ba8f:	52                   	push   %edx
    ba90:	e8 5b 2f 00 00       	call   e9f0 <async_answer_0@plt>
    ba95:	83 c4 10             	add    $0x10,%esp
    ba98:	8d 65 f4             	lea    -0xc(%ebp),%esp
    ba9b:	5b                   	pop    %ebx
    ba9c:	5e                   	pop    %esi
    ba9d:	5f                   	pop    %edi
    ba9e:	5d                   	pop    %ebp
    ba9f:	c3                   	ret    
    baa0:	50                   	push   %eax
    baa1:	50                   	push   %eax
    baa2:	8b 45 dc             	mov    -0x24(%ebp),%eax
    baa5:	6a fe                	push   $0xfffffffe
    baa7:	50                   	push   %eax
    baa8:	e8 43 2f 00 00       	call   e9f0 <async_answer_0@plt>
    baad:	8b 4d 10             	mov    0x10(%ebp),%ecx
    bab0:	58                   	pop    %eax
    bab1:	5a                   	pop    %edx
    bab2:	6a fe                	push   $0xfffffffe
    bab4:	51                   	push   %ecx
    bab5:	e8 36 2f 00 00       	call   e9f0 <async_answer_0@plt>
    baba:	83 c4 10             	add    $0x10,%esp
    babd:	e9 f9 fe ff ff       	jmp    b9bb <remote_usbhid_get_event+0x5b>
    bac2:	8d b4 26 00 00 00 00 	lea    0x0(%esi,%eiz,1),%esi
    bac9:	8d bc 27 00 00 00 00 	lea    0x0(%edi,%eiz,1),%edi

0000bad0 <remote_usbhid_get_event_length>:
    bad0:	55                   	push   %ebp
    bad1:	89 e5                	mov    %esp,%ebp
    bad3:	57                   	push   %edi
    bad4:	56                   	push   %esi
    bad5:	53                   	push   %ebx
    bad6:	83 ec 18             	sub    $0x18,%esp
    bad9:	8b 7d 0c             	mov    0xc(%ebp),%edi
    badc:	8b 75 08             	mov    0x8(%ebp),%esi
    badf:	68 e8 e4 00 00       	push   $0xe4e8
    bae4:	8b 5d 10             	mov    0x10(%ebp),%ebx
    bae7:	e8 04 2e 00 00       	call   e8f0 <printf@plt>
    baec:	8b 07                	mov    (%edi),%eax
    baee:	83 c4 10             	add    $0x10,%esp
    baf1:	85 c0                	test   %eax,%eax
    baf3:	74 23                	je     bb18 <remote_usbhid_get_event_length+0x48>
    baf5:	83 ec 0c             	sub    $0xc,%esp
    baf8:	56                   	push   %esi
    baf9:	ff d0                	call   *%eax
    bafb:	89 5d 08             	mov    %ebx,0x8(%ebp)
    bafe:	89 45 10             	mov    %eax,0x10(%ebp)
    bb01:	c7 45 0c 00 00 00 00 	movl   $0x0,0xc(%ebp)
    bb08:	83 c4 10             	add    $0x10,%esp
    bb0b:	8d 65 f4             	lea    -0xc(%ebp),%esp
    bb0e:	5b                   	pop    %ebx
    bb0f:	5e                   	pop    %esi
    bb10:	5f                   	pop    %edi
    bb11:	5d                   	pop    %ebp
    bb12:	e9 a9 31 00 00       	jmp    ecc0 <async_answer_1@plt>
    bb17:	90                   	nop
    bb18:	83 ec 0c             	sub    $0xc,%esp
    bb1b:	68 0c e5 00 00       	push   $0xe50c
    bb20:	e8 cb 2d 00 00       	call   e8f0 <printf@plt>
    bb25:	89 5d 08             	mov    %ebx,0x8(%ebp)
    bb28:	c7 45 0c f5 ff ff ff 	movl   $0xfffffff5,0xc(%ebp)
    bb2f:	83 c4 10             	add    $0x10,%esp
    bb32:	8d 65 f4             	lea    -0xc(%ebp),%esp
    bb35:	5b                   	pop    %ebx
    bb36:	5e                   	pop    %esi
    bb37:	5f                   	pop    %edi
    bb38:	5d                   	pop    %ebp
    bb39:	e9 b2 2e 00 00       	jmp    e9f0 <async_answer_0@plt>
    bb3e:	66 90                	xchg   %ax,%ax

0000bb40 <usbhid_dev_get_event_length>:
    bb40:	55                   	push   %ebp
    bb41:	89 e5                	mov    %esp,%ebp
    bb43:	56                   	push   %esi
    bb44:	53                   	push   %ebx
    bb45:	83 ec 20             	sub    $0x20,%esp
    bb48:	8b 45 08             	mov    0x8(%ebp),%eax
    bb4b:	8b 5d 0c             	mov    0xc(%ebp),%ebx
    bb4e:	85 c0                	test   %eax,%eax
    bb50:	74 56                	je     bba8 <usbhid_dev_get_event_length+0x68>
    bb52:	83 ec 0c             	sub    $0xc,%esp
    bb55:	50                   	push   %eax
    bb56:	e8 75 31 00 00       	call   ecd0 <async_exchange_begin@plt>
    bb5b:	83 c4 0c             	add    $0xc,%esp
    bb5e:	89 c6                	mov    %eax,%esi
    bb60:	8d 45 f4             	lea    -0xc(%ebp),%eax
    bb63:	6a 00                	push   $0x0
    bb65:	6a 00                	push   $0x0
    bb67:	6a 00                	push   $0x0
    bb69:	6a 00                	push   $0x0
    bb6b:	50                   	push   %eax
    bb6c:	6a 00                	push   $0x0
    bb6e:	6a 00                	push   $0x0
    bb70:	6a 00                	push   $0x0
    bb72:	6a 00                	push   $0x0
    bb74:	68 0a 04 00 00       	push   $0x40a
    bb79:	56                   	push   %esi
    bb7a:	e8 61 2e 00 00       	call   e9e0 <async_req_fast@plt>
    bb7f:	83 c4 24             	add    $0x24,%esp
    bb82:	89 45 e4             	mov    %eax,-0x1c(%ebp)
    bb85:	56                   	push   %esi
    bb86:	e8 f5 2e 00 00       	call   ea80 <async_exchange_end@plt>
    bb8b:	8b 45 e4             	mov    -0x1c(%ebp),%eax
    bb8e:	83 c4 10             	add    $0x10,%esp
    bb91:	85 c0                	test   %eax,%eax
    bb93:	75 09                	jne    bb9e <usbhid_dev_get_event_length+0x5e>
    bb95:	85 db                	test   %ebx,%ebx
    bb97:	74 05                	je     bb9e <usbhid_dev_get_event_length+0x5e>
    bb99:	8b 55 f4             	mov    -0xc(%ebp),%edx
    bb9c:	89 13                	mov    %edx,(%ebx)
    bb9e:	8d 65 f8             	lea    -0x8(%ebp),%esp
    bba1:	5b                   	pop    %ebx
    bba2:	5e                   	pop    %esi
    bba3:	5d                   	pop    %ebp
    bba4:	c3                   	ret    
    bba5:	8d 76 00             	lea    0x0(%esi),%esi
    bba8:	b8 f2 ff ff ff       	mov    $0xfffffff2,%eax
    bbad:	eb ef                	jmp    bb9e <usbhid_dev_get_event_length+0x5e>
    bbaf:	90                   	nop

0000bbb0 <usbhid_dev_get_event>:
    bbb0:	55                   	push   %ebp
    bbb1:	89 e5                	mov    %esp,%ebp
    bbb3:	57                   	push   %edi
    bbb4:	56                   	push   %esi
    bbb5:	53                   	push   %ebx
    bbb6:	83 ec 6c             	sub    $0x6c,%esp
    bbb9:	8b 75 08             	mov    0x8(%ebp),%esi
    bbbc:	8b 5d 10             	mov    0x10(%ebp),%ebx
    bbbf:	85 f6                	test   %esi,%esi
    bbc1:	0f 84 01 01 00 00    	je     bcc8 <usbhid_dev_get_event+0x118>
    bbc7:	8b 45 0c             	mov    0xc(%ebp),%eax
    bbca:	85 c0                	test   %eax,%eax
    bbcc:	0f 84 12 01 00 00    	je     bce4 <usbhid_dev_get_event+0x134>
    bbd2:	85 db                	test   %ebx,%ebx
    bbd4:	0f 84 ee 00 00 00    	je     bcc8 <usbhid_dev_get_event+0x118>
    bbda:	83 ec 0c             	sub    $0xc,%esp
    bbdd:	53                   	push   %ebx
    bbde:	e8 cd 2d 00 00       	call   e9b0 <malloc@plt>
    bbe3:	83 c4 10             	add    $0x10,%esp
    bbe6:	89 c7                	mov    %eax,%edi
    bbe8:	85 c0                	test   %eax,%eax
    bbea:	0f 84 f4 00 00 00    	je     bce4 <usbhid_dev_get_event+0x134>
    bbf0:	83 ec 0c             	sub    $0xc,%esp
    bbf3:	56                   	push   %esi
    bbf4:	e8 d7 30 00 00       	call   ecd0 <async_exchange_begin@plt>
    bbf9:	83 c4 0c             	add    $0xc,%esp
    bbfc:	89 c6                	mov    %eax,%esi
    bbfe:	8d 45 a0             	lea    -0x60(%ebp),%eax
    bc01:	50                   	push   %eax
    bc02:	8b 45 1c             	mov    0x1c(%ebp),%eax
    bc05:	6a 00                	push   $0x0
    bc07:	6a 00                	push   $0x0
    bc09:	50                   	push   %eax
    bc0a:	6a 01                	push   $0x1
    bc0c:	68 0a 04 00 00       	push   $0x40a
    bc11:	56                   	push   %esi
    bc12:	e8 e9 2d 00 00       	call   ea00 <async_send_fast@plt>
    bc17:	83 c4 20             	add    $0x20,%esp
    bc1a:	89 45 94             	mov    %eax,-0x6c(%ebp)
    bc1d:	85 c0                	test   %eax,%eax
    bc1f:	0f 84 ab 00 00 00    	je     bcd0 <usbhid_dev_get_event+0x120>
    bc25:	8d 45 c4             	lea    -0x3c(%ebp),%eax
    bc28:	50                   	push   %eax
    bc29:	53                   	push   %ebx
    bc2a:	57                   	push   %edi
    bc2b:	56                   	push   %esi
    bc2c:	e8 0f 2e 00 00       	call   ea40 <async_data_read@plt>
    bc31:	89 34 24             	mov    %esi,(%esp)
    bc34:	89 c3                	mov    %eax,%ebx
    bc36:	e8 45 2e 00 00       	call   ea80 <async_exchange_end@plt>
    bc3b:	83 c4 10             	add    $0x10,%esp
    bc3e:	85 db                	test   %ebx,%ebx
    bc40:	0f 84 aa 00 00 00    	je     bcf0 <usbhid_dev_get_event+0x140>
    bc46:	50                   	push   %eax
    bc47:	50                   	push   %eax
    bc48:	8d 45 98             	lea    -0x68(%ebp),%eax
    bc4b:	50                   	push   %eax
    bc4c:	53                   	push   %ebx
    bc4d:	e8 be 2c 00 00       	call   e910 <async_wait_for@plt>
    bc52:	58                   	pop    %eax
    bc53:	8b 4d 94             	mov    -0x6c(%ebp),%ecx
    bc56:	8d 45 9c             	lea    -0x64(%ebp),%eax
    bc59:	5a                   	pop    %edx
    bc5a:	50                   	push   %eax
    bc5b:	51                   	push   %ecx
    bc5c:	e8 af 2c 00 00       	call   e910 <async_wait_for@plt>
    bc61:	8b 45 98             	mov    -0x68(%ebp),%eax
    bc64:	83 c4 10             	add    $0x10,%esp
    bc67:	85 c0                	test   %eax,%eax
    bc69:	74 15                	je     bc80 <usbhid_dev_get_event+0xd0>
    bc6b:	8b 55 9c             	mov    -0x64(%ebp),%edx
    bc6e:	85 d2                	test   %edx,%edx
    bc70:	74 15                	je     bc87 <usbhid_dev_get_event+0xd7>
    bc72:	8d 65 f4             	lea    -0xc(%ebp),%esp
    bc75:	89 d0                	mov    %edx,%eax
    bc77:	5b                   	pop    %ebx
    bc78:	5e                   	pop    %esi
    bc79:	5f                   	pop    %edi
    bc7a:	5d                   	pop    %ebp
    bc7b:	c3                   	ret    
    bc7c:	8d 74 26 00          	lea    0x0(%esi,%eiz,1),%esi
    bc80:	8b 45 9c             	mov    -0x64(%ebp),%eax
    bc83:	85 c0                	test   %eax,%eax
    bc85:	74 09                	je     bc90 <usbhid_dev_get_event+0xe0>
    bc87:	8d 65 f4             	lea    -0xc(%ebp),%esp
    bc8a:	5b                   	pop    %ebx
    bc8b:	5e                   	pop    %esi
    bc8c:	5f                   	pop    %edi
    bc8d:	5d                   	pop    %ebp
    bc8e:	c3                   	ret    
    bc8f:	90                   	nop
    bc90:	8b 5d cc             	mov    -0x34(%ebp),%ebx
    bc93:	8b 4d 0c             	mov    0xc(%ebp),%ecx
    bc96:	52                   	push   %edx
    bc97:	53                   	push   %ebx
    bc98:	57                   	push   %edi
    bc99:	51                   	push   %ecx
    bc9a:	e8 01 2d 00 00       	call   e9a0 <memcpy@plt>
    bc9f:	8b 75 14             	mov    0x14(%ebp),%esi
    bca2:	83 c4 10             	add    $0x10,%esp
    bca5:	85 f6                	test   %esi,%esi
    bca7:	74 05                	je     bcae <usbhid_dev_get_event+0xfe>
    bca9:	8b 45 14             	mov    0x14(%ebp),%eax
    bcac:	89 18                	mov    %ebx,(%eax)
    bcae:	8b 45 18             	mov    0x18(%ebp),%eax
    bcb1:	85 c0                	test   %eax,%eax
    bcb3:	74 63                	je     bd18 <usbhid_dev_get_event+0x168>
    bcb5:	8b 4d 18             	mov    0x18(%ebp),%ecx
    bcb8:	8b 45 a4             	mov    -0x5c(%ebp),%eax
    bcbb:	89 01                	mov    %eax,(%ecx)
    bcbd:	8d 65 f4             	lea    -0xc(%ebp),%esp
    bcc0:	31 c0                	xor    %eax,%eax
    bcc2:	5b                   	pop    %ebx
    bcc3:	5e                   	pop    %esi
    bcc4:	5f                   	pop    %edi
    bcc5:	5d                   	pop    %ebp
    bcc6:	c3                   	ret    
    bcc7:	90                   	nop
    bcc8:	b8 f2 ff ff ff       	mov    $0xfffffff2,%eax
    bccd:	eb b8                	jmp    bc87 <usbhid_dev_get_event+0xd7>
    bccf:	90                   	nop
    bcd0:	83 ec 0c             	sub    $0xc,%esp
    bcd3:	56                   	push   %esi
    bcd4:	e8 a7 2d 00 00       	call   ea80 <async_exchange_end@plt>
    bcd9:	89 3c 24             	mov    %edi,(%esp)
    bcdc:	e8 ff 30 00 00       	call   ede0 <free@plt>
    bce1:	83 c4 10             	add    $0x10,%esp
    bce4:	b8 fe ff ff ff       	mov    $0xfffffffe,%eax
    bce9:	eb 9c                	jmp    bc87 <usbhid_dev_get_event+0xd7>
    bceb:	90                   	nop
    bcec:	8d 74 26 00          	lea    0x0(%esi,%eiz,1),%esi
    bcf0:	83 ec 0c             	sub    $0xc,%esp
    bcf3:	8b 5d 94             	mov    -0x6c(%ebp),%ebx
    bcf6:	53                   	push   %ebx
    bcf7:	e8 64 30 00 00       	call   ed60 <async_forget@plt>
    bcfc:	89 3c 24             	mov    %edi,(%esp)
    bcff:	e8 dc 30 00 00       	call   ede0 <free@plt>
    bd04:	83 c4 10             	add    $0x10,%esp
    bd07:	b8 fe ff ff ff       	mov    $0xfffffffe,%eax
    bd0c:	e9 76 ff ff ff       	jmp    bc87 <usbhid_dev_get_event+0xd7>
    bd11:	8d b4 26 00 00 00 00 	lea    0x0(%esi,%eiz,1),%esi
    bd18:	31 c0                	xor    %eax,%eax
    bd1a:	e9 68 ff ff ff       	jmp    bc87 <usbhid_dev_get_event+0xd7>
    bd1f:	90                   	nop

0000bd20 <usbhid_dev_get_report_descriptor_length>:
    bd20:	55                   	push   %ebp
    bd21:	89 e5                	mov    %esp,%ebp
    bd23:	56                   	push   %esi
    bd24:	53                   	push   %ebx
    bd25:	83 ec 20             	sub    $0x20,%esp
    bd28:	8b 45 08             	mov    0x8(%ebp),%eax
    bd2b:	8b 5d 0c             	mov    0xc(%ebp),%ebx
    bd2e:	85 c0                	test   %eax,%eax
    bd30:	74 56                	je     bd88 <usbhid_dev_get_report_descriptor_length+0x68>
    bd32:	83 ec 0c             	sub    $0xc,%esp
    bd35:	50                   	push   %eax
    bd36:	e8 95 2f 00 00       	call   ecd0 <async_exchange_begin@plt>
    bd3b:	83 c4 0c             	add    $0xc,%esp
    bd3e:	89 c6                	mov    %eax,%esi
    bd40:	8d 45 f4             	lea    -0xc(%ebp),%eax
    bd43:	6a 00                	push   $0x0
    bd45:	6a 00                	push   $0x0
    bd47:	6a 00                	push   $0x0
    bd49:	6a 00                	push   $0x0
    bd4b:	50                   	push   %eax
    bd4c:	6a 00                	push   $0x0
    bd4e:	6a 00                	push   $0x0
    bd50:	6a 00                	push   $0x0
    bd52:	6a 02                	push   $0x2
    bd54:	68 0a 04 00 00       	push   $0x40a
    bd59:	56                   	push   %esi
    bd5a:	e8 81 2c 00 00       	call   e9e0 <async_req_fast@plt>
    bd5f:	83 c4 24             	add    $0x24,%esp
    bd62:	89 45 e4             	mov    %eax,-0x1c(%ebp)
    bd65:	56                   	push   %esi
    bd66:	e8 15 2d 00 00       	call   ea80 <async_exchange_end@plt>
    bd6b:	8b 45 e4             	mov    -0x1c(%ebp),%eax
    bd6e:	83 c4 10             	add    $0x10,%esp
    bd71:	85 c0                	test   %eax,%eax
    bd73:	75 09                	jne    bd7e <usbhid_dev_get_report_descriptor_length+0x5e>
    bd75:	85 db                	test   %ebx,%ebx
    bd77:	74 05                	je     bd7e <usbhid_dev_get_report_descriptor_length+0x5e>
    bd79:	8b 55 f4             	mov    -0xc(%ebp),%edx
    bd7c:	89 13                	mov    %edx,(%ebx)
    bd7e:	8d 65 f8             	lea    -0x8(%ebp),%esp
    bd81:	5b                   	pop    %ebx
    bd82:	5e                   	pop    %esi
    bd83:	5d                   	pop    %ebp
    bd84:	c3                   	ret    
    bd85:	8d 76 00             	lea    0x0(%esi),%esi
    bd88:	b8 f2 ff ff ff       	mov    $0xfffffff2,%eax
    bd8d:	eb ef                	jmp    bd7e <usbhid_dev_get_report_descriptor_length+0x5e>
    bd8f:	90                   	nop

0000bd90 <usbhid_dev_get_report_descriptor>:
    bd90:	55                   	push   %ebp
    bd91:	89 e5                	mov    %esp,%ebp
    bd93:	57                   	push   %edi
    bd94:	56                   	push   %esi
    bd95:	53                   	push   %ebx
    bd96:	83 ec 3c             	sub    $0x3c,%esp
    bd99:	8b 45 08             	mov    0x8(%ebp),%eax
    bd9c:	8b 5d 0c             	mov    0xc(%ebp),%ebx
    bd9f:	85 c0                	test   %eax,%eax
    bda1:	0f 84 c1 00 00 00    	je     be68 <usbhid_dev_get_report_descriptor+0xd8>
    bda7:	85 db                	test   %ebx,%ebx
    bda9:	0f 84 f5 00 00 00    	je     bea4 <usbhid_dev_get_report_descriptor+0x114>
    bdaf:	8b 55 10             	mov    0x10(%ebp),%edx
    bdb2:	85 d2                	test   %edx,%edx
    bdb4:	0f 84 ae 00 00 00    	je     be68 <usbhid_dev_get_report_descriptor+0xd8>
    bdba:	83 ec 0c             	sub    $0xc,%esp
    bdbd:	50                   	push   %eax
    bdbe:	e8 0d 2f 00 00       	call   ecd0 <async_exchange_begin@plt>
    bdc3:	83 c4 0c             	add    $0xc,%esp
    bdc6:	89 c6                	mov    %eax,%esi
    bdc8:	6a 00                	push   $0x0
    bdca:	6a 00                	push   $0x0
    bdcc:	6a 00                	push   $0x0
    bdce:	6a 00                	push   $0x0
    bdd0:	6a 03                	push   $0x3
    bdd2:	68 0a 04 00 00       	push   $0x40a
    bdd7:	50                   	push   %eax
    bdd8:	e8 23 2c 00 00       	call   ea00 <async_send_fast@plt>
    bddd:	83 c4 20             	add    $0x20,%esp
    bde0:	89 c7                	mov    %eax,%edi
    bde2:	85 c0                	test   %eax,%eax
    bde4:	0f 84 86 00 00 00    	je     be70 <usbhid_dev_get_report_descriptor+0xe0>
    bdea:	8d 45 c4             	lea    -0x3c(%ebp),%eax
    bded:	50                   	push   %eax
    bdee:	8b 45 10             	mov    0x10(%ebp),%eax
    bdf1:	50                   	push   %eax
    bdf2:	53                   	push   %ebx
    bdf3:	56                   	push   %esi
    bdf4:	e8 47 2c 00 00       	call   ea40 <async_data_read@plt>
    bdf9:	89 c3                	mov    %eax,%ebx
    bdfb:	89 34 24             	mov    %esi,(%esp)
    bdfe:	e8 7d 2c 00 00       	call   ea80 <async_exchange_end@plt>
    be03:	83 c4 10             	add    $0x10,%esp
    be06:	85 db                	test   %ebx,%ebx
    be08:	74 7e                	je     be88 <usbhid_dev_get_report_descriptor+0xf8>
    be0a:	8d 45 bc             	lea    -0x44(%ebp),%eax
    be0d:	51                   	push   %ecx
    be0e:	51                   	push   %ecx
    be0f:	50                   	push   %eax
    be10:	53                   	push   %ebx
    be11:	e8 fa 2a 00 00       	call   e910 <async_wait_for@plt>
    be16:	8d 45 c0             	lea    -0x40(%ebp),%eax
    be19:	5b                   	pop    %ebx
    be1a:	5e                   	pop    %esi
    be1b:	50                   	push   %eax
    be1c:	57                   	push   %edi
    be1d:	e8 ee 2a 00 00       	call   e910 <async_wait_for@plt>
    be22:	8b 45 bc             	mov    -0x44(%ebp),%eax
    be25:	83 c4 10             	add    $0x10,%esp
    be28:	85 c0                	test   %eax,%eax
    be2a:	75 24                	jne    be50 <usbhid_dev_get_report_descriptor+0xc0>
    be2c:	8b 45 c0             	mov    -0x40(%ebp),%eax
    be2f:	85 c0                	test   %eax,%eax
    be31:	75 11                	jne    be44 <usbhid_dev_get_report_descriptor+0xb4>
    be33:	8b 55 14             	mov    0x14(%ebp),%edx
    be36:	8b 45 cc             	mov    -0x34(%ebp),%eax
    be39:	85 d2                	test   %edx,%edx
    be3b:	74 63                	je     bea0 <usbhid_dev_get_report_descriptor+0x110>
    be3d:	8b 4d 14             	mov    0x14(%ebp),%ecx
    be40:	89 01                	mov    %eax,(%ecx)
    be42:	31 c0                	xor    %eax,%eax
    be44:	8d 65 f4             	lea    -0xc(%ebp),%esp
    be47:	5b                   	pop    %ebx
    be48:	5e                   	pop    %esi
    be49:	5f                   	pop    %edi
    be4a:	5d                   	pop    %ebp
    be4b:	c3                   	ret    
    be4c:	8d 74 26 00          	lea    0x0(%esi,%eiz,1),%esi
    be50:	8b 55 c0             	mov    -0x40(%ebp),%edx
    be53:	85 d2                	test   %edx,%edx
    be55:	74 ed                	je     be44 <usbhid_dev_get_report_descriptor+0xb4>
    be57:	8d 65 f4             	lea    -0xc(%ebp),%esp
    be5a:	89 d0                	mov    %edx,%eax
    be5c:	5b                   	pop    %ebx
    be5d:	5e                   	pop    %esi
    be5e:	5f                   	pop    %edi
    be5f:	5d                   	pop    %ebp
    be60:	c3                   	ret    
    be61:	8d b4 26 00 00 00 00 	lea    0x0(%esi,%eiz,1),%esi
    be68:	b8 f2 ff ff ff       	mov    $0xfffffff2,%eax
    be6d:	eb d5                	jmp    be44 <usbhid_dev_get_report_descriptor+0xb4>
    be6f:	90                   	nop
    be70:	83 ec 0c             	sub    $0xc,%esp
    be73:	56                   	push   %esi
    be74:	e8 07 2c 00 00       	call   ea80 <async_exchange_end@plt>
    be79:	83 c4 10             	add    $0x10,%esp
    be7c:	b8 fe ff ff ff       	mov    $0xfffffffe,%eax
    be81:	eb c1                	jmp    be44 <usbhid_dev_get_report_descriptor+0xb4>
    be83:	90                   	nop
    be84:	8d 74 26 00          	lea    0x0(%esi,%eiz,1),%esi
    be88:	83 ec 0c             	sub    $0xc,%esp
    be8b:	57                   	push   %edi
    be8c:	e8 cf 2e 00 00       	call   ed60 <async_forget@plt>
    be91:	83 c4 10             	add    $0x10,%esp
    be94:	b8 fe ff ff ff       	mov    $0xfffffffe,%eax
    be99:	eb a9                	jmp    be44 <usbhid_dev_get_report_descriptor+0xb4>
    be9b:	90                   	nop
    be9c:	8d 74 26 00          	lea    0x0(%esi,%eiz,1),%esi
    bea0:	31 c0                	xor    %eax,%eax
    bea2:	eb a0                	jmp    be44 <usbhid_dev_get_report_descriptor+0xb4>
    bea4:	b8 fe ff ff ff       	mov    $0xfffffffe,%eax
    bea9:	eb 99                	jmp    be44 <usbhid_dev_get_report_descriptor+0xb4>
    beab:	66 90                	xchg   %ax,%ax
    bead:	66 90                	xchg   %ax,%ax
    beaf:	90                   	nop

0000beb0 <remote_clock_time_set>:
    beb0:	55                   	push   %ebp
    beb1:	89 e5                	mov    %esp,%ebp
    beb3:	56                   	push   %esi
    beb4:	53                   	push   %ebx
    beb5:	83 ec 38             	sub    $0x38,%esp
    beb8:	8d 45 cc             	lea    -0x34(%ebp),%eax
    bebb:	8b 5d 0c             	mov    0xc(%ebp),%ebx
    bebe:	50                   	push   %eax
    bebf:	8d 45 c8             	lea    -0x38(%ebp),%eax
    bec2:	50                   	push   %eax
    bec3:	e8 08 2f 00 00       	call   edd0 <async_data_write_receive@plt>
    bec8:	83 c4 10             	add    $0x10,%esp
    becb:	84 c0                	test   %al,%al
    becd:	74 39                	je     bf08 <remote_clock_time_set+0x58>
    becf:	8b 73 04             	mov    0x4(%ebx),%esi
    bed2:	85 f6                	test   %esi,%esi
    bed4:	74 4a                	je     bf20 <remote_clock_time_set+0x70>
    bed6:	8b 55 c8             	mov    -0x38(%ebp),%edx
    bed9:	8d 75 d0             	lea    -0x30(%ebp),%esi
    bedc:	50                   	push   %eax
    bedd:	6a 28                	push   $0x28
    bedf:	56                   	push   %esi
    bee0:	52                   	push   %edx
    bee1:	e8 5a 2e 00 00       	call   ed40 <async_data_write_finalize@plt>
    bee6:	59                   	pop    %ecx
    bee7:	58                   	pop    %eax
    bee8:	8b 45 08             	mov    0x8(%ebp),%eax
    beeb:	56                   	push   %esi
    beec:	50                   	push   %eax
    beed:	ff 53 04             	call   *0x4(%ebx)
    bef0:	8b 5d 10             	mov    0x10(%ebp),%ebx
    bef3:	5a                   	pop    %edx
    bef4:	59                   	pop    %ecx
    bef5:	50                   	push   %eax
    bef6:	53                   	push   %ebx
    bef7:	e8 f4 2a 00 00       	call   e9f0 <async_answer_0@plt>
    befc:	83 c4 10             	add    $0x10,%esp
    beff:	8d 65 f8             	lea    -0x8(%ebp),%esp
    bf02:	5b                   	pop    %ebx
    bf03:	5e                   	pop    %esi
    bf04:	5d                   	pop    %ebp
    bf05:	c3                   	ret    
    bf06:	66 90                	xchg   %ax,%ax
    bf08:	50                   	push   %eax
    bf09:	50                   	push   %eax
    bf0a:	8b 45 10             	mov    0x10(%ebp),%eax
    bf0d:	6a f2                	push   $0xfffffff2
    bf0f:	50                   	push   %eax
    bf10:	e8 db 2a 00 00       	call   e9f0 <async_answer_0@plt>
    bf15:	83 c4 10             	add    $0x10,%esp
    bf18:	8d 65 f8             	lea    -0x8(%ebp),%esp
    bf1b:	5b                   	pop    %ebx
    bf1c:	5e                   	pop    %esi
    bf1d:	5d                   	pop    %ebp
    bf1e:	c3                   	ret    
    bf1f:	90                   	nop
    bf20:	8b 45 c8             	mov    -0x38(%ebp),%eax
    bf23:	56                   	push   %esi
    bf24:	56                   	push   %esi
    bf25:	6a f5                	push   $0xfffffff5
    bf27:	50                   	push   %eax
    bf28:	e8 c3 2a 00 00       	call   e9f0 <async_answer_0@plt>
    bf2d:	8b 4d 10             	mov    0x10(%ebp),%ecx
    bf30:	58                   	pop    %eax
    bf31:	5a                   	pop    %edx
    bf32:	6a f5                	push   $0xfffffff5
    bf34:	51                   	push   %ecx
    bf35:	e8 b6 2a 00 00       	call   e9f0 <async_answer_0@plt>
    bf3a:	83 c4 10             	add    $0x10,%esp
    bf3d:	8d 65 f8             	lea    -0x8(%ebp),%esp
    bf40:	5b                   	pop    %ebx
    bf41:	5e                   	pop    %esi
    bf42:	5d                   	pop    %ebp
    bf43:	c3                   	ret    
    bf44:	8d b6 00 00 00 00    	lea    0x0(%esi),%esi
    bf4a:	8d bf 00 00 00 00    	lea    0x0(%edi),%edi

0000bf50 <remote_clock_time_get>:
    bf50:	55                   	push   %ebp
    bf51:	89 e5                	mov    %esp,%ebp
    bf53:	56                   	push   %esi
    bf54:	53                   	push   %ebx
    bf55:	83 ec 38             	sub    $0x38,%esp
    bf58:	8d 45 cc             	lea    -0x34(%ebp),%eax
    bf5b:	50                   	push   %eax
    bf5c:	8d 45 c8             	lea    -0x38(%ebp),%eax
    bf5f:	50                   	push   %eax
    bf60:	e8 bb 2c 00 00       	call   ec20 <async_data_read_receive@plt>
    bf65:	83 c4 10             	add    $0x10,%esp
    bf68:	84 c0                	test   %al,%al
    bf6a:	74 6c                	je     bfd8 <remote_clock_time_get+0x88>
    bf6c:	8b 45 0c             	mov    0xc(%ebp),%eax
    bf6f:	8b 00                	mov    (%eax),%eax
    bf71:	85 c0                	test   %eax,%eax
    bf73:	74 7b                	je     bff0 <remote_clock_time_get+0xa0>
    bf75:	8b 55 08             	mov    0x8(%ebp),%edx
    bf78:	8d 75 d0             	lea    -0x30(%ebp),%esi
    bf7b:	53                   	push   %ebx
    bf7c:	53                   	push   %ebx
    bf7d:	56                   	push   %esi
    bf7e:	52                   	push   %edx
    bf7f:	ff d0                	call   *%eax
    bf81:	83 c4 10             	add    $0x10,%esp
    bf84:	89 c3                	mov    %eax,%ebx
    bf86:	85 c0                	test   %eax,%eax
    bf88:	74 26                	je     bfb0 <remote_clock_time_get+0x60>
    bf8a:	50                   	push   %eax
    bf8b:	50                   	push   %eax
    bf8c:	8b 45 c8             	mov    -0x38(%ebp),%eax
    bf8f:	53                   	push   %ebx
    bf90:	50                   	push   %eax
    bf91:	e8 5a 2a 00 00       	call   e9f0 <async_answer_0@plt>
    bf96:	8b 4d 10             	mov    0x10(%ebp),%ecx
    bf99:	58                   	pop    %eax
    bf9a:	5a                   	pop    %edx
    bf9b:	53                   	push   %ebx
    bf9c:	51                   	push   %ecx
    bf9d:	e8 4e 2a 00 00       	call   e9f0 <async_answer_0@plt>
    bfa2:	83 c4 10             	add    $0x10,%esp
    bfa5:	8d 65 f8             	lea    -0x8(%ebp),%esp
    bfa8:	5b                   	pop    %ebx
    bfa9:	5e                   	pop    %esi
    bfaa:	5d                   	pop    %ebp
    bfab:	c3                   	ret    
    bfac:	8d 74 26 00          	lea    0x0(%esi,%eiz,1),%esi
    bfb0:	8b 55 c8             	mov    -0x38(%ebp),%edx
    bfb3:	50                   	push   %eax
    bfb4:	6a 28                	push   $0x28
    bfb6:	56                   	push   %esi
    bfb7:	52                   	push   %edx
    bfb8:	e8 c3 29 00 00       	call   e980 <async_data_read_finalize@plt>
    bfbd:	8b 75 10             	mov    0x10(%ebp),%esi
    bfc0:	59                   	pop    %ecx
    bfc1:	5b                   	pop    %ebx
    bfc2:	6a 00                	push   $0x0
    bfc4:	56                   	push   %esi
    bfc5:	e8 26 2a 00 00       	call   e9f0 <async_answer_0@plt>
    bfca:	83 c4 10             	add    $0x10,%esp
    bfcd:	8d 65 f8             	lea    -0x8(%ebp),%esp
    bfd0:	5b                   	pop    %ebx
    bfd1:	5e                   	pop    %esi
    bfd2:	5d                   	pop    %ebp
    bfd3:	c3                   	ret    
    bfd4:	8d 74 26 00          	lea    0x0(%esi,%eiz,1),%esi
    bfd8:	50                   	push   %eax
    bfd9:	50                   	push   %eax
    bfda:	8b 45 10             	mov    0x10(%ebp),%eax
    bfdd:	6a f2                	push   $0xfffffff2
    bfdf:	50                   	push   %eax
    bfe0:	e8 0b 2a 00 00       	call   e9f0 <async_answer_0@plt>
    bfe5:	83 c4 10             	add    $0x10,%esp
    bfe8:	8d 65 f8             	lea    -0x8(%ebp),%esp
    bfeb:	5b                   	pop    %ebx
    bfec:	5e                   	pop    %esi
    bfed:	5d                   	pop    %ebp
    bfee:	c3                   	ret    
    bfef:	90                   	nop
    bff0:	8b 5d c8             	mov    -0x38(%ebp),%ebx
    bff3:	51                   	push   %ecx
    bff4:	51                   	push   %ecx
    bff5:	6a f5                	push   $0xfffffff5
    bff7:	53                   	push   %ebx
    bff8:	e8 f3 29 00 00       	call   e9f0 <async_answer_0@plt>
    bffd:	5e                   	pop    %esi
    bffe:	58                   	pop    %eax
    bfff:	8b 45 10             	mov    0x10(%ebp),%eax
    c002:	6a f5                	push   $0xfffffff5
    c004:	50                   	push   %eax
    c005:	e8 e6 29 00 00       	call   e9f0 <async_answer_0@plt>
    c00a:	83 c4 10             	add    $0x10,%esp
    c00d:	8d 65 f8             	lea    -0x8(%ebp),%esp
    c010:	5b                   	pop    %ebx
    c011:	5e                   	pop    %esi
    c012:	5d                   	pop    %ebp
    c013:	c3                   	ret    
    c014:	66 90                	xchg   %ax,%ax
    c016:	66 90                	xchg   %ax,%ax
    c018:	66 90                	xchg   %ax,%ax
    c01a:	66 90                	xchg   %ax,%ax
    c01c:	66 90                	xchg   %ax,%ax
    c01e:	66 90                	xchg   %ax,%ax

0000c020 <remote_led_color_set>:
    c020:	55                   	push   %ebp
    c021:	89 e5                	mov    %esp,%ebp
    c023:	53                   	push   %ebx
    c024:	50                   	push   %eax
    c025:	8b 45 14             	mov    0x14(%ebp),%eax
    c028:	8b 55 08             	mov    0x8(%ebp),%edx
    c02b:	8b 5d 10             	mov    0x10(%ebp),%ebx
    c02e:	8b 48 08             	mov    0x8(%eax),%ecx
    c031:	8b 45 0c             	mov    0xc(%ebp),%eax
    c034:	8b 00                	mov    (%eax),%eax
    c036:	85 c0                	test   %eax,%eax
    c038:	74 1e                	je     c058 <remote_led_color_set+0x38>
    c03a:	83 ec 08             	sub    $0x8,%esp
    c03d:	51                   	push   %ecx
    c03e:	52                   	push   %edx
    c03f:	ff d0                	call   *%eax
    c041:	89 5d 08             	mov    %ebx,0x8(%ebp)
    c044:	83 c4 10             	add    $0x10,%esp
    c047:	8b 5d fc             	mov    -0x4(%ebp),%ebx
    c04a:	89 45 0c             	mov    %eax,0xc(%ebp)
    c04d:	c9                   	leave  
    c04e:	e9 9d 29 00 00       	jmp    e9f0 <async_answer_0@plt>
    c053:	90                   	nop
    c054:	8d 74 26 00          	lea    0x0(%esi,%eiz,1),%esi
    c058:	89 5d 08             	mov    %ebx,0x8(%ebp)
    c05b:	8b 5d fc             	mov    -0x4(%ebp),%ebx
    c05e:	c7 45 0c f5 ff ff ff 	movl   $0xfffffff5,0xc(%ebp)
    c065:	c9                   	leave  
    c066:	e9 85 29 00 00       	jmp    e9f0 <async_answer_0@plt>
    c06b:	66 90                	xchg   %ax,%ax
    c06d:	66 90                	xchg   %ax,%ax
    c06f:	90                   	nop

0000c070 <remote_battery_charge_level_get>:
    c070:	55                   	push   %ebp
    c071:	89 e5                	mov    %esp,%ebp
    c073:	83 ec 18             	sub    $0x18,%esp
    c076:	8b 45 0c             	mov    0xc(%ebp),%eax
    c079:	8b 40 04             	mov    0x4(%eax),%eax
    c07c:	85 c0                	test   %eax,%eax
    c07e:	74 40                	je     c0c0 <remote_battery_charge_level_get+0x50>
    c080:	8b 4d 08             	mov    0x8(%ebp),%ecx
    c083:	52                   	push   %edx
    c084:	52                   	push   %edx
    c085:	8d 55 f4             	lea    -0xc(%ebp),%edx
    c088:	52                   	push   %edx
    c089:	51                   	push   %ecx
    c08a:	ff d0                	call   *%eax
    c08c:	83 c4 10             	add    $0x10,%esp
    c08f:	85 c0                	test   %eax,%eax
    c091:	74 15                	je     c0a8 <remote_battery_charge_level_get+0x38>
    c093:	8b 4d 10             	mov    0x10(%ebp),%ecx
    c096:	52                   	push   %edx
    c097:	52                   	push   %edx
    c098:	50                   	push   %eax
    c099:	51                   	push   %ecx
    c09a:	e8 51 29 00 00       	call   e9f0 <async_answer_0@plt>
    c09f:	83 c4 10             	add    $0x10,%esp
    c0a2:	c9                   	leave  
    c0a3:	c3                   	ret    
    c0a4:	8d 74 26 00          	lea    0x0(%esi,%eiz,1),%esi
    c0a8:	8b 55 f4             	mov    -0xc(%ebp),%edx
    c0ab:	8b 4d 10             	mov    0x10(%ebp),%ecx
    c0ae:	50                   	push   %eax
    c0af:	52                   	push   %edx
    c0b0:	6a 00                	push   $0x0
    c0b2:	51                   	push   %ecx
    c0b3:	e8 08 2c 00 00       	call   ecc0 <async_answer_1@plt>
    c0b8:	83 c4 10             	add    $0x10,%esp
    c0bb:	c9                   	leave  
    c0bc:	c3                   	ret    
    c0bd:	8d 76 00             	lea    0x0(%esi),%esi
    c0c0:	50                   	push   %eax
    c0c1:	50                   	push   %eax
    c0c2:	8b 45 10             	mov    0x10(%ebp),%eax
    c0c5:	6a f5                	push   $0xfffffff5
    c0c7:	50                   	push   %eax
    c0c8:	e8 23 29 00 00       	call   e9f0 <async_answer_0@plt>
    c0cd:	83 c4 10             	add    $0x10,%esp
    c0d0:	c9                   	leave  
    c0d1:	c3                   	ret    
    c0d2:	8d b4 26 00 00 00 00 	lea    0x0(%esi,%eiz,1),%esi
    c0d9:	8d bc 27 00 00 00 00 	lea    0x0(%edi,%eiz,1),%edi

0000c0e0 <remote_battery_status_get>:
    c0e0:	55                   	push   %ebp
    c0e1:	89 e5                	mov    %esp,%ebp
    c0e3:	83 ec 18             	sub    $0x18,%esp
    c0e6:	8b 45 0c             	mov    0xc(%ebp),%eax
    c0e9:	8b 00                	mov    (%eax),%eax
    c0eb:	85 c0                	test   %eax,%eax
    c0ed:	74 41                	je     c130 <remote_battery_status_get+0x50>
    c0ef:	8b 4d 08             	mov    0x8(%ebp),%ecx
    c0f2:	52                   	push   %edx
    c0f3:	52                   	push   %edx
    c0f4:	8d 55 f4             	lea    -0xc(%ebp),%edx
    c0f7:	52                   	push   %edx
    c0f8:	51                   	push   %ecx
    c0f9:	ff d0                	call   *%eax
    c0fb:	83 c4 10             	add    $0x10,%esp
    c0fe:	85 c0                	test   %eax,%eax
    c100:	74 16                	je     c118 <remote_battery_status_get+0x38>
    c102:	8b 4d 10             	mov    0x10(%ebp),%ecx
    c105:	52                   	push   %edx
    c106:	52                   	push   %edx
    c107:	50                   	push   %eax
    c108:	51                   	push   %ecx
    c109:	e8 e2 28 00 00       	call   e9f0 <async_answer_0@plt>
    c10e:	83 c4 10             	add    $0x10,%esp
    c111:	c9                   	leave  
    c112:	c3                   	ret    
    c113:	90                   	nop
    c114:	8d 74 26 00          	lea    0x0(%esi,%eiz,1),%esi
    c118:	8b 55 f4             	mov    -0xc(%ebp),%edx
    c11b:	8b 4d 10             	mov    0x10(%ebp),%ecx
    c11e:	50                   	push   %eax
    c11f:	52                   	push   %edx
    c120:	6a 00                	push   $0x0
    c122:	51                   	push   %ecx
    c123:	e8 98 2b 00 00       	call   ecc0 <async_answer_1@plt>
    c128:	83 c4 10             	add    $0x10,%esp
    c12b:	c9                   	leave  
    c12c:	c3                   	ret    
    c12d:	8d 76 00             	lea    0x0(%esi),%esi
    c130:	50                   	push   %eax
    c131:	50                   	push   %eax
    c132:	8b 45 10             	mov    0x10(%ebp),%eax
    c135:	6a f5                	push   $0xfffffff5
    c137:	50                   	push   %eax
    c138:	e8 b3 28 00 00       	call   e9f0 <async_answer_0@plt>
    c13d:	83 c4 10             	add    $0x10,%esp
    c140:	c9                   	leave  
    c141:	c3                   	ret    
    c142:	8d b4 26 00 00 00 00 	lea    0x0(%esi,%eiz,1),%esi
    c149:	8d bc 27 00 00 00 00 	lea    0x0(%edi,%eiz,1),%edi

0000c150 <battery_status_get>:
    c150:	55                   	push   %ebp
    c151:	89 e5                	mov    %esp,%ebp
    c153:	53                   	push   %ebx
    c154:	83 ec 30             	sub    $0x30,%esp
    c157:	8b 45 08             	mov    0x8(%ebp),%eax
    c15a:	50                   	push   %eax
    c15b:	e8 70 2b 00 00       	call   ecd0 <async_exchange_begin@plt>
    c160:	83 c4 0c             	add    $0xc,%esp
    c163:	89 c3                	mov    %eax,%ebx
    c165:	8d 45 f4             	lea    -0xc(%ebp),%eax
    c168:	6a 00                	push   $0x0
    c16a:	6a 00                	push   $0x0
    c16c:	6a 00                	push   $0x0
    c16e:	6a 00                	push   $0x0
    c170:	50                   	push   %eax
    c171:	6a 00                	push   $0x0
    c173:	6a 00                	push   $0x0
    c175:	6a 00                	push   $0x0
    c177:	6a 00                	push   $0x0
    c179:	68 0d 04 00 00       	push   $0x40d
    c17e:	53                   	push   %ebx
    c17f:	e8 5c 28 00 00       	call   e9e0 <async_req_fast@plt>
    c184:	83 c4 24             	add    $0x24,%esp
    c187:	89 45 e4             	mov    %eax,-0x1c(%ebp)
    c18a:	53                   	push   %ebx
    c18b:	e8 f0 28 00 00       	call   ea80 <async_exchange_end@plt>
    c190:	8b 45 e4             	mov    -0x1c(%ebp),%eax
    c193:	83 c4 10             	add    $0x10,%esp
    c196:	85 c0                	test   %eax,%eax
    c198:	75 08                	jne    c1a2 <battery_status_get+0x52>
    c19a:	8b 55 0c             	mov    0xc(%ebp),%edx
    c19d:	8b 4d f4             	mov    -0xc(%ebp),%ecx
    c1a0:	89 0a                	mov    %ecx,(%edx)
    c1a2:	8b 5d fc             	mov    -0x4(%ebp),%ebx
    c1a5:	c9                   	leave  
    c1a6:	c3                   	ret    
    c1a7:	89 f6                	mov    %esi,%esi
    c1a9:	8d bc 27 00 00 00 00 	lea    0x0(%edi,%eiz,1),%edi

0000c1b0 <battery_charge_level_get>:
    c1b0:	55                   	push   %ebp
    c1b1:	89 e5                	mov    %esp,%ebp
    c1b3:	53                   	push   %ebx
    c1b4:	83 ec 30             	sub    $0x30,%esp
    c1b7:	8b 45 08             	mov    0x8(%ebp),%eax
    c1ba:	50                   	push   %eax
    c1bb:	e8 10 2b 00 00       	call   ecd0 <async_exchange_begin@plt>
    c1c0:	83 c4 0c             	add    $0xc,%esp
    c1c3:	89 c3                	mov    %eax,%ebx
    c1c5:	8d 45 f4             	lea    -0xc(%ebp),%eax
    c1c8:	6a 00                	push   $0x0
    c1ca:	6a 00                	push   $0x0
    c1cc:	6a 00                	push   $0x0
    c1ce:	6a 00                	push   $0x0
    c1d0:	50                   	push   %eax
    c1d1:	6a 00                	push   $0x0
    c1d3:	6a 00                	push   $0x0
    c1d5:	6a 00                	push   $0x0
    c1d7:	6a 01                	push   $0x1
    c1d9:	68 0d 04 00 00       	push   $0x40d
    c1de:	53                   	push   %ebx
    c1df:	e8 fc 27 00 00       	call   e9e0 <async_req_fast@plt>
    c1e4:	83 c4 24             	add    $0x24,%esp
    c1e7:	89 45 e4             	mov    %eax,-0x1c(%ebp)
    c1ea:	53                   	push   %ebx
    c1eb:	e8 90 28 00 00       	call   ea80 <async_exchange_end@plt>
    c1f0:	8b 45 e4             	mov    -0x1c(%ebp),%eax
    c1f3:	83 c4 10             	add    $0x10,%esp
    c1f6:	85 c0                	test   %eax,%eax
    c1f8:	75 08                	jne    c202 <battery_charge_level_get+0x52>
    c1fa:	8b 55 0c             	mov    0xc(%ebp),%edx
    c1fd:	8b 4d f4             	mov    -0xc(%ebp),%ecx
    c200:	89 0a                	mov    %ecx,(%edx)
    c202:	8b 5d fc             	mov    -0x4(%ebp),%ebx
    c205:	c9                   	leave  
    c206:	c3                   	ret    
    c207:	66 90                	xchg   %ax,%ax
    c209:	66 90                	xchg   %ax,%ax
    c20b:	66 90                	xchg   %ax,%ax
    c20d:	66 90                	xchg   %ax,%ax
    c20f:	90                   	nop

0000c210 <remote_ahci_write_blocks>:
    c210:	55                   	push   %ebp
    c211:	89 e5                	mov    %esp,%ebp
    c213:	56                   	push   %esi
    c214:	53                   	push   %ebx
    c215:	83 ec 10             	sub    $0x10,%esp
    c218:	8b 75 0c             	mov    0xc(%ebp),%esi
    c21b:	8b 5d 14             	mov    0x14(%ebp),%ebx
    c21e:	8b 46 0c             	mov    0xc(%esi),%eax
    c221:	85 c0                	test   %eax,%eax
    c223:	74 53                	je     c278 <remote_ahci_write_blocks+0x68>
    c225:	50                   	push   %eax
    c226:	8d 45 ec             	lea    -0x14(%ebp),%eax
    c229:	50                   	push   %eax
    c22a:	8d 45 e8             	lea    -0x18(%ebp),%eax
    c22d:	50                   	push   %eax
    c22e:	8d 45 f0             	lea    -0x10(%ebp),%eax
    c231:	50                   	push   %eax
    c232:	e8 99 27 00 00       	call   e9d0 <async_share_out_receive@plt>
    c237:	8d 45 f4             	lea    -0xc(%ebp),%eax
    c23a:	5a                   	pop    %edx
    c23b:	59                   	pop    %ecx
    c23c:	50                   	push   %eax
    c23d:	8b 45 f0             	mov    -0x10(%ebp),%eax
    c240:	50                   	push   %eax
    c241:	e8 ba 28 00 00       	call   eb00 <async_share_out_finalize@plt>
    c246:	58                   	pop    %eax
    c247:	8b 45 f4             	mov    -0xc(%ebp),%eax
    c24a:	50                   	push   %eax
    c24b:	8b 43 10             	mov    0x10(%ebx),%eax
    c24e:	50                   	push   %eax
    c24f:	8b 43 0c             	mov    0xc(%ebx),%eax
    c252:	8b 53 08             	mov    0x8(%ebx),%edx
    c255:	52                   	push   %edx
    c256:	50                   	push   %eax
    c257:	8b 45 08             	mov    0x8(%ebp),%eax
    c25a:	50                   	push   %eax
    c25b:	ff 56 10             	call   *0x10(%esi)
    c25e:	83 c4 18             	add    $0x18,%esp
    c261:	50                   	push   %eax
    c262:	8b 45 10             	mov    0x10(%ebp),%eax
    c265:	50                   	push   %eax
    c266:	e8 85 27 00 00       	call   e9f0 <async_answer_0@plt>
    c26b:	83 c4 10             	add    $0x10,%esp
    c26e:	8d 65 f8             	lea    -0x8(%ebp),%esp
    c271:	5b                   	pop    %ebx
    c272:	5e                   	pop    %esi
    c273:	5d                   	pop    %ebp
    c274:	c3                   	ret    
    c275:	8d 76 00             	lea    0x0(%esi),%esi
    c278:	8b 4d 10             	mov    0x10(%ebp),%ecx
    c27b:	52                   	push   %edx
    c27c:	52                   	push   %edx
    c27d:	6a f5                	push   $0xfffffff5
    c27f:	51                   	push   %ecx
    c280:	e8 6b 27 00 00       	call   e9f0 <async_answer_0@plt>
    c285:	83 c4 10             	add    $0x10,%esp
    c288:	8d 65 f8             	lea    -0x8(%ebp),%esp
    c28b:	5b                   	pop    %ebx
    c28c:	5e                   	pop    %esi
    c28d:	5d                   	pop    %ebp
    c28e:	c3                   	ret    
    c28f:	90                   	nop

0000c290 <remote_ahci_read_blocks>:
    c290:	55                   	push   %ebp
    c291:	89 e5                	mov    %esp,%ebp
    c293:	56                   	push   %esi
    c294:	53                   	push   %ebx
    c295:	83 ec 10             	sub    $0x10,%esp
    c298:	8b 75 0c             	mov    0xc(%ebp),%esi
    c29b:	8b 5d 14             	mov    0x14(%ebp),%ebx
    c29e:	8b 46 0c             	mov    0xc(%esi),%eax
    c2a1:	85 c0                	test   %eax,%eax
    c2a3:	74 53                	je     c2f8 <remote_ahci_read_blocks+0x68>
    c2a5:	50                   	push   %eax
    c2a6:	8d 45 ec             	lea    -0x14(%ebp),%eax
    c2a9:	50                   	push   %eax
    c2aa:	8d 45 e8             	lea    -0x18(%ebp),%eax
    c2ad:	50                   	push   %eax
    c2ae:	8d 45 f0             	lea    -0x10(%ebp),%eax
    c2b1:	50                   	push   %eax
    c2b2:	e8 19 27 00 00       	call   e9d0 <async_share_out_receive@plt>
    c2b7:	8d 45 f4             	lea    -0xc(%ebp),%eax
    c2ba:	5a                   	pop    %edx
    c2bb:	59                   	pop    %ecx
    c2bc:	50                   	push   %eax
    c2bd:	8b 45 f0             	mov    -0x10(%ebp),%eax
    c2c0:	50                   	push   %eax
    c2c1:	e8 3a 28 00 00       	call   eb00 <async_share_out_finalize@plt>
    c2c6:	58                   	pop    %eax
    c2c7:	8b 45 f4             	mov    -0xc(%ebp),%eax
    c2ca:	50                   	push   %eax
    c2cb:	8b 43 10             	mov    0x10(%ebx),%eax
    c2ce:	50                   	push   %eax
    c2cf:	8b 43 0c             	mov    0xc(%ebx),%eax
    c2d2:	8b 53 08             	mov    0x8(%ebx),%edx
    c2d5:	52                   	push   %edx
    c2d6:	50                   	push   %eax
    c2d7:	8b 45 08             	mov    0x8(%ebp),%eax
    c2da:	50                   	push   %eax
    c2db:	ff 56 0c             	call   *0xc(%esi)
    c2de:	83 c4 18             	add    $0x18,%esp
    c2e1:	50                   	push   %eax
    c2e2:	8b 45 10             	mov    0x10(%ebp),%eax
    c2e5:	50                   	push   %eax
    c2e6:	e8 05 27 00 00       	call   e9f0 <async_answer_0@plt>
    c2eb:	83 c4 10             	add    $0x10,%esp
    c2ee:	8d 65 f8             	lea    -0x8(%ebp),%esp
    c2f1:	5b                   	pop    %ebx
    c2f2:	5e                   	pop    %esi
    c2f3:	5d                   	pop    %ebp
    c2f4:	c3                   	ret    
    c2f5:	8d 76 00             	lea    0x0(%esi),%esi
    c2f8:	8b 4d 10             	mov    0x10(%ebp),%ecx
    c2fb:	52                   	push   %edx
    c2fc:	52                   	push   %edx
    c2fd:	6a f5                	push   $0xfffffff5
    c2ff:	51                   	push   %ecx
    c300:	e8 eb 26 00 00       	call   e9f0 <async_answer_0@plt>
    c305:	83 c4 10             	add    $0x10,%esp
    c308:	8d 65 f8             	lea    -0x8(%ebp),%esp
    c30b:	5b                   	pop    %ebx
    c30c:	5e                   	pop    %esi
    c30d:	5d                   	pop    %ebp
    c30e:	c3                   	ret    
    c30f:	90                   	nop

0000c310 <remote_ahci_get_block_size>:
    c310:	55                   	push   %ebp
    c311:	89 e5                	mov    %esp,%ebp
    c313:	83 ec 18             	sub    $0x18,%esp
    c316:	8b 45 0c             	mov    0xc(%ebp),%eax
    c319:	8b 40 08             	mov    0x8(%eax),%eax
    c31c:	85 c0                	test   %eax,%eax
    c31e:	74 40                	je     c360 <remote_ahci_get_block_size+0x50>
    c320:	8b 4d 08             	mov    0x8(%ebp),%ecx
    c323:	52                   	push   %edx
    c324:	52                   	push   %edx
    c325:	8d 55 f4             	lea    -0xc(%ebp),%edx
    c328:	52                   	push   %edx
    c329:	51                   	push   %ecx
    c32a:	ff d0                	call   *%eax
    c32c:	83 c4 10             	add    $0x10,%esp
    c32f:	85 c0                	test   %eax,%eax
    c331:	74 15                	je     c348 <remote_ahci_get_block_size+0x38>
    c333:	8b 4d 10             	mov    0x10(%ebp),%ecx
    c336:	52                   	push   %edx
    c337:	52                   	push   %edx
    c338:	50                   	push   %eax
    c339:	51                   	push   %ecx
    c33a:	e8 b1 26 00 00       	call   e9f0 <async_answer_0@plt>
    c33f:	83 c4 10             	add    $0x10,%esp
    c342:	c9                   	leave  
    c343:	c3                   	ret    
    c344:	8d 74 26 00          	lea    0x0(%esi,%eiz,1),%esi
    c348:	8b 55 f4             	mov    -0xc(%ebp),%edx
    c34b:	8b 4d 10             	mov    0x10(%ebp),%ecx
    c34e:	50                   	push   %eax
    c34f:	52                   	push   %edx
    c350:	6a 00                	push   $0x0
    c352:	51                   	push   %ecx
    c353:	e8 68 29 00 00       	call   ecc0 <async_answer_1@plt>
    c358:	83 c4 10             	add    $0x10,%esp
    c35b:	c9                   	leave  
    c35c:	c3                   	ret    
    c35d:	8d 76 00             	lea    0x0(%esi),%esi
    c360:	50                   	push   %eax
    c361:	50                   	push   %eax
    c362:	8b 45 10             	mov    0x10(%ebp),%eax
    c365:	6a f5                	push   $0xfffffff5
    c367:	50                   	push   %eax
    c368:	e8 83 26 00 00       	call   e9f0 <async_answer_0@plt>
    c36d:	83 c4 10             	add    $0x10,%esp
    c370:	c9                   	leave  
    c371:	c3                   	ret    
    c372:	8d b4 26 00 00 00 00 	lea    0x0(%esi,%eiz,1),%esi
    c379:	8d bc 27 00 00 00 00 	lea    0x0(%edi,%eiz,1),%edi

0000c380 <remote_ahci_get_num_blocks>:
    c380:	55                   	push   %ebp
    c381:	89 e5                	mov    %esp,%ebp
    c383:	83 ec 18             	sub    $0x18,%esp
    c386:	8b 45 0c             	mov    0xc(%ebp),%eax
    c389:	8b 40 04             	mov    0x4(%eax),%eax
    c38c:	85 c0                	test   %eax,%eax
    c38e:	74 40                	je     c3d0 <remote_ahci_get_num_blocks+0x50>
    c390:	8b 4d 08             	mov    0x8(%ebp),%ecx
    c393:	52                   	push   %edx
    c394:	52                   	push   %edx
    c395:	8d 55 f0             	lea    -0x10(%ebp),%edx
    c398:	52                   	push   %edx
    c399:	51                   	push   %ecx
    c39a:	ff d0                	call   *%eax
    c39c:	83 c4 10             	add    $0x10,%esp
    c39f:	85 c0                	test   %eax,%eax
    c3a1:	74 15                	je     c3b8 <remote_ahci_get_num_blocks+0x38>
    c3a3:	51                   	push   %ecx
    c3a4:	51                   	push   %ecx
    c3a5:	50                   	push   %eax
    c3a6:	8b 45 10             	mov    0x10(%ebp),%eax
    c3a9:	50                   	push   %eax
    c3aa:	e8 41 26 00 00       	call   e9f0 <async_answer_0@plt>
    c3af:	83 c4 10             	add    $0x10,%esp
    c3b2:	c9                   	leave  
    c3b3:	c3                   	ret    
    c3b4:	8d 74 26 00          	lea    0x0(%esi,%eiz,1),%esi
    c3b8:	8b 45 f0             	mov    -0x10(%ebp),%eax
    c3bb:	8b 55 10             	mov    0x10(%ebp),%edx
    c3be:	50                   	push   %eax
    c3bf:	6a 00                	push   $0x0
    c3c1:	6a 00                	push   $0x0
    c3c3:	52                   	push   %edx
    c3c4:	e8 67 27 00 00       	call   eb30 <async_answer_2@plt>
    c3c9:	83 c4 10             	add    $0x10,%esp
    c3cc:	c9                   	leave  
    c3cd:	c3                   	ret    
    c3ce:	66 90                	xchg   %ax,%ax
    c3d0:	50                   	push   %eax
    c3d1:	50                   	push   %eax
    c3d2:	8b 45 10             	mov    0x10(%ebp),%eax
    c3d5:	6a f5                	push   $0xfffffff5
    c3d7:	50                   	push   %eax
    c3d8:	e8 13 26 00 00       	call   e9f0 <async_answer_0@plt>
    c3dd:	83 c4 10             	add    $0x10,%esp
    c3e0:	c9                   	leave  
    c3e1:	c3                   	ret    
    c3e2:	8d b4 26 00 00 00 00 	lea    0x0(%esi,%eiz,1),%esi
    c3e9:	8d bc 27 00 00 00 00 	lea    0x0(%edi,%eiz,1),%edi

0000c3f0 <remote_ahci_get_sata_device_name>:
    c3f0:	55                   	push   %ebp
    c3f1:	89 e5                	mov    %esp,%ebp
    c3f3:	57                   	push   %edi
    c3f4:	56                   	push   %esi
    c3f5:	53                   	push   %ebx
    c3f6:	83 ec 1c             	sub    $0x1c,%esp
    c3f9:	8b 7d 0c             	mov    0xc(%ebp),%edi
    c3fc:	8b 07                	mov    (%edi),%eax
    c3fe:	85 c0                	test   %eax,%eax
    c400:	74 76                	je     c478 <remote_ahci_get_sata_device_name+0x88>
    c402:	8b 45 14             	mov    0x14(%ebp),%eax
    c405:	83 ec 0c             	sub    $0xc,%esp
    c408:	8b 70 08             	mov    0x8(%eax),%esi
    c40b:	56                   	push   %esi
    c40c:	e8 9f 25 00 00       	call   e9b0 <malloc@plt>
    c411:	83 c4 10             	add    $0x10,%esp
    c414:	89 c3                	mov    %eax,%ebx
    c416:	85 c0                	test   %eax,%eax
    c418:	74 76                	je     c490 <remote_ahci_get_sata_device_name+0xa0>
    c41a:	50                   	push   %eax
    c41b:	8b 45 08             	mov    0x8(%ebp),%eax
    c41e:	53                   	push   %ebx
    c41f:	56                   	push   %esi
    c420:	50                   	push   %eax
    c421:	ff 17                	call   *(%edi)
    c423:	89 c7                	mov    %eax,%edi
    c425:	58                   	pop    %eax
    c426:	8d 45 e0             	lea    -0x20(%ebp),%eax
    c429:	5a                   	pop    %edx
    c42a:	50                   	push   %eax
    c42b:	8d 45 e4             	lea    -0x1c(%ebp),%eax
    c42e:	50                   	push   %eax
    c42f:	e8 ec 27 00 00       	call   ec20 <async_data_read_receive@plt>
    c434:	83 c4 10             	add    $0x10,%esp
    c437:	84 c0                	test   %al,%al
    c439:	74 05                	je     c440 <remote_ahci_get_sata_device_name+0x50>
    c43b:	3b 75 e0             	cmp    -0x20(%ebp),%esi
    c43e:	74 20                	je     c460 <remote_ahci_get_sata_device_name+0x70>
    c440:	83 ec 0c             	sub    $0xc,%esp
    c443:	53                   	push   %ebx
    c444:	e8 97 29 00 00       	call   ede0 <free@plt>
    c449:	8b 4d 10             	mov    0x10(%ebp),%ecx
    c44c:	58                   	pop    %eax
    c44d:	5a                   	pop    %edx
    c44e:	57                   	push   %edi
    c44f:	51                   	push   %ecx
    c450:	e8 9b 25 00 00       	call   e9f0 <async_answer_0@plt>
    c455:	83 c4 10             	add    $0x10,%esp
    c458:	8d 65 f4             	lea    -0xc(%ebp),%esp
    c45b:	5b                   	pop    %ebx
    c45c:	5e                   	pop    %esi
    c45d:	5f                   	pop    %edi
    c45e:	5d                   	pop    %ebp
    c45f:	c3                   	ret    
    c460:	50                   	push   %eax
    c461:	8b 45 e4             	mov    -0x1c(%ebp),%eax
    c464:	56                   	push   %esi
    c465:	53                   	push   %ebx
    c466:	50                   	push   %eax
    c467:	e8 14 25 00 00       	call   e980 <async_data_read_finalize@plt>
    c46c:	83 c4 10             	add    $0x10,%esp
    c46f:	eb cf                	jmp    c440 <remote_ahci_get_sata_device_name+0x50>
    c471:	8d b4 26 00 00 00 00 	lea    0x0(%esi,%eiz,1),%esi
    c478:	8b 7d 10             	mov    0x10(%ebp),%edi
    c47b:	56                   	push   %esi
    c47c:	56                   	push   %esi
    c47d:	6a f5                	push   $0xfffffff5
    c47f:	57                   	push   %edi
    c480:	e8 6b 25 00 00       	call   e9f0 <async_answer_0@plt>
    c485:	83 c4 10             	add    $0x10,%esp
    c488:	8d 65 f4             	lea    -0xc(%ebp),%esp
    c48b:	5b                   	pop    %ebx
    c48c:	5e                   	pop    %esi
    c48d:	5f                   	pop    %edi
    c48e:	5d                   	pop    %ebp
    c48f:	c3                   	ret    
    c490:	8b 5d 10             	mov    0x10(%ebp),%ebx
    c493:	51                   	push   %ecx
    c494:	51                   	push   %ecx
    c495:	6a fe                	push   $0xfffffffe
    c497:	53                   	push   %ebx
    c498:	e8 53 25 00 00       	call   e9f0 <async_answer_0@plt>
    c49d:	83 c4 10             	add    $0x10,%esp
    c4a0:	8d 65 f4             	lea    -0xc(%ebp),%esp
    c4a3:	5b                   	pop    %ebx
    c4a4:	5e                   	pop    %esi
    c4a5:	5f                   	pop    %edi
    c4a6:	5d                   	pop    %ebp
    c4a7:	c3                   	ret    
    c4a8:	90                   	nop
    c4a9:	8d b4 26 00 00 00 00 	lea    0x0(%esi,%eiz,1),%esi

0000c4b0 <ahci_get_sess>:
    c4b0:	55                   	push   %ebp
    c4b1:	89 e5                	mov    %esp,%ebp
    c4b3:	57                   	push   %edi
    c4b4:	56                   	push   %esi
    c4b5:	53                   	push   %ebx
    c4b6:	81 ec 10 04 00 00    	sub    $0x410,%esp
    c4bc:	8d 9d e8 fb ff ff    	lea    -0x418(%ebp),%ebx
    c4c2:	8b 7d 0c             	mov    0xc(%ebp),%edi
    c4c5:	8b 75 08             	mov    0x8(%ebp),%esi
    c4c8:	c7 07 00 00 00 00    	movl   $0x0,(%edi)
    c4ce:	68 00 04 00 00       	push   $0x400
    c4d3:	53                   	push   %ebx
    c4d4:	56                   	push   %esi
    c4d5:	e8 16 29 00 00       	call   edf0 <devman_fun_get_name@plt>
    c4da:	83 c4 10             	add    $0x10,%esp
    c4dd:	85 c0                	test   %eax,%eax
    c4df:	75 57                	jne    c538 <ahci_get_sess+0x88>
    c4e1:	83 ec 0c             	sub    $0xc,%esp
    c4e4:	53                   	push   %ebx
    c4e5:	e8 b6 27 00 00       	call   eca0 <str_size@plt>
    c4ea:	83 c4 10             	add    $0x10,%esp
    c4ed:	83 f8 05             	cmp    $0x5,%eax
    c4f0:	76 46                	jbe    c538 <ahci_get_sess+0x88>
    c4f2:	52                   	push   %edx
    c4f3:	6a 05                	push   $0x5
    c4f5:	68 6c e5 00 00       	push   $0xe56c
    c4fa:	53                   	push   %ebx
    c4fb:	e8 b0 27 00 00       	call   ecb0 <str_lcmp@plt>
    c500:	83 c4 10             	add    $0x10,%esp
    c503:	85 c0                	test   %eax,%eax
    c505:	75 31                	jne    c538 <ahci_get_sess+0x88>
    c507:	50                   	push   %eax
    c508:	50                   	push   %eax
    c509:	6a 01                	push   $0x1
    c50b:	56                   	push   %esi
    c50c:	e8 9f 23 00 00       	call   e8b0 <devman_device_connect@plt>
    c511:	83 c4 10             	add    $0x10,%esp
    c514:	89 c6                	mov    %eax,%esi
    c516:	85 c0                	test   %eax,%eax
    c518:	74 20                	je     c53a <ahci_get_sess+0x8a>
    c51a:	83 ec 0c             	sub    $0xc,%esp
    c51d:	53                   	push   %ebx
    c51e:	e8 3d 26 00 00       	call   eb60 <str_dup@plt>
    c523:	83 c4 10             	add    $0x10,%esp
    c526:	89 07                	mov    %eax,(%edi)
    c528:	8d 65 f4             	lea    -0xc(%ebp),%esp
    c52b:	89 f0                	mov    %esi,%eax
    c52d:	5b                   	pop    %ebx
    c52e:	5e                   	pop    %esi
    c52f:	5f                   	pop    %edi
    c530:	5d                   	pop    %ebp
    c531:	c3                   	ret    
    c532:	8d b6 00 00 00 00    	lea    0x0(%esi),%esi
    c538:	31 f6                	xor    %esi,%esi
    c53a:	8d 65 f4             	lea    -0xc(%ebp),%esp
    c53d:	89 f0                	mov    %esi,%eax
    c53f:	5b                   	pop    %ebx
    c540:	5e                   	pop    %esi
    c541:	5f                   	pop    %edi
    c542:	5d                   	pop    %ebp
    c543:	c3                   	ret    
    c544:	8d b6 00 00 00 00    	lea    0x0(%esi),%esi
    c54a:	8d bf 00 00 00 00    	lea    0x0(%edi),%edi

0000c550 <ahci_get_sata_device_name>:
    c550:	55                   	push   %ebp
    c551:	89 e5                	mov    %esp,%ebp
    c553:	57                   	push   %edi
    c554:	56                   	push   %esi
    c555:	53                   	push   %ebx
    c556:	83 ec 28             	sub    $0x28,%esp
    c559:	8b 7d 08             	mov    0x8(%ebp),%edi
    c55c:	8b 75 0c             	mov    0xc(%ebp),%esi
    c55f:	57                   	push   %edi
    c560:	e8 6b 27 00 00       	call   ecd0 <async_exchange_begin@plt>
    c565:	83 c4 10             	add    $0x10,%esp
    c568:	85 c0                	test   %eax,%eax
    c56a:	74 44                	je     c5b0 <ahci_get_sata_device_name+0x60>
    c56c:	89 c3                	mov    %eax,%ebx
    c56e:	50                   	push   %eax
    c56f:	6a 00                	push   $0x0
    c571:	6a 00                	push   $0x0
    c573:	6a 00                	push   $0x0
    c575:	56                   	push   %esi
    c576:	6a 00                	push   $0x0
    c578:	68 0e 04 00 00       	push   $0x40e
    c57d:	53                   	push   %ebx
    c57e:	e8 7d 24 00 00       	call   ea00 <async_send_fast@plt>
    c583:	83 c4 1c             	add    $0x1c,%esp
    c586:	8b 55 10             	mov    0x10(%ebp),%edx
    c589:	89 c7                	mov    %eax,%edi
    c58b:	56                   	push   %esi
    c58c:	52                   	push   %edx
    c58d:	53                   	push   %ebx
    c58e:	e8 9d 26 00 00       	call   ec30 <async_data_read_start@plt>
    c593:	8d 45 e4             	lea    -0x1c(%ebp),%eax
    c596:	59                   	pop    %ecx
    c597:	5b                   	pop    %ebx
    c598:	50                   	push   %eax
    c599:	57                   	push   %edi
    c59a:	e8 71 23 00 00       	call   e910 <async_wait_for@plt>
    c59f:	8b 45 e4             	mov    -0x1c(%ebp),%eax
    c5a2:	83 c4 10             	add    $0x10,%esp
    c5a5:	8d 65 f4             	lea    -0xc(%ebp),%esp
    c5a8:	5b                   	pop    %ebx
    c5a9:	5e                   	pop    %esi
    c5aa:	5f                   	pop    %edi
    c5ab:	5d                   	pop    %ebp
    c5ac:	c3                   	ret    
    c5ad:	8d 76 00             	lea    0x0(%esi),%esi
    c5b0:	b8 f2 ff ff ff       	mov    $0xfffffff2,%eax
    c5b5:	eb ee                	jmp    c5a5 <ahci_get_sata_device_name+0x55>
    c5b7:	89 f6                	mov    %esi,%esi
    c5b9:	8d bc 27 00 00 00 00 	lea    0x0(%edi,%eiz,1),%edi

0000c5c0 <ahci_get_num_blocks>:
    c5c0:	55                   	push   %ebp
    c5c1:	89 e5                	mov    %esp,%ebp
    c5c3:	57                   	push   %edi
    c5c4:	56                   	push   %esi
    c5c5:	53                   	push   %ebx
    c5c6:	83 ec 38             	sub    $0x38,%esp
    c5c9:	8b 55 08             	mov    0x8(%ebp),%edx
    c5cc:	52                   	push   %edx
    c5cd:	e8 fe 26 00 00       	call   ecd0 <async_exchange_begin@plt>
    c5d2:	83 c4 10             	add    $0x10,%esp
    c5d5:	85 c0                	test   %eax,%eax
    c5d7:	74 57                	je     c630 <ahci_get_num_blocks+0x70>
    c5d9:	89 c6                	mov    %eax,%esi
    c5db:	50                   	push   %eax
    c5dc:	8d 45 e4             	lea    -0x1c(%ebp),%eax
    c5df:	6a 00                	push   $0x0
    c5e1:	6a 00                	push   $0x0
    c5e3:	6a 00                	push   $0x0
    c5e5:	50                   	push   %eax
    c5e6:	8d 45 e0             	lea    -0x20(%ebp),%eax
    c5e9:	50                   	push   %eax
    c5ea:	6a 00                	push   $0x0
    c5ec:	6a 00                	push   $0x0
    c5ee:	6a 00                	push   $0x0
    c5f0:	6a 01                	push   $0x1
    c5f2:	68 0e 04 00 00       	push   $0x40e
    c5f7:	56                   	push   %esi
    c5f8:	e8 e3 23 00 00       	call   e9e0 <async_req_fast@plt>
    c5fd:	83 c4 24             	add    $0x24,%esp
    c600:	89 45 d4             	mov    %eax,-0x2c(%ebp)
    c603:	56                   	push   %esi
    c604:	e8 77 24 00 00       	call   ea80 <async_exchange_end@plt>
    c609:	8b 45 d4             	mov    -0x2c(%ebp),%eax
    c60c:	83 c4 10             	add    $0x10,%esp
    c60f:	85 c0                	test   %eax,%eax
    c611:	75 0e                	jne    c621 <ahci_get_num_blocks+0x61>
    c613:	8b 55 0c             	mov    0xc(%ebp),%edx
    c616:	8b 75 e0             	mov    -0x20(%ebp),%esi
    c619:	8b 4d e4             	mov    -0x1c(%ebp),%ecx
    c61c:	89 0a                	mov    %ecx,(%edx)
    c61e:	89 72 04             	mov    %esi,0x4(%edx)
    c621:	8d 65 f4             	lea    -0xc(%ebp),%esp
    c624:	5b                   	pop    %ebx
    c625:	5e                   	pop    %esi
    c626:	5f                   	pop    %edi
    c627:	5d                   	pop    %ebp
    c628:	c3                   	ret    
    c629:	8d b4 26 00 00 00 00 	lea    0x0(%esi,%eiz,1),%esi
    c630:	b8 f2 ff ff ff       	mov    $0xfffffff2,%eax
    c635:	eb ea                	jmp    c621 <ahci_get_num_blocks+0x61>
    c637:	89 f6                	mov    %esi,%esi
    c639:	8d bc 27 00 00 00 00 	lea    0x0(%edi,%eiz,1),%edi

0000c640 <ahci_get_block_size>:
    c640:	55                   	push   %ebp
    c641:	89 e5                	mov    %esp,%ebp
    c643:	53                   	push   %ebx
    c644:	83 ec 30             	sub    $0x30,%esp
    c647:	8b 55 08             	mov    0x8(%ebp),%edx
    c64a:	52                   	push   %edx
    c64b:	e8 80 26 00 00       	call   ecd0 <async_exchange_begin@plt>
    c650:	83 c4 10             	add    $0x10,%esp
    c653:	85 c0                	test   %eax,%eax
    c655:	74 49                	je     c6a0 <ahci_get_block_size+0x60>
    c657:	89 c3                	mov    %eax,%ebx
    c659:	50                   	push   %eax
    c65a:	8d 45 f4             	lea    -0xc(%ebp),%eax
    c65d:	6a 00                	push   $0x0
    c65f:	6a 00                	push   $0x0
    c661:	6a 00                	push   $0x0
    c663:	6a 00                	push   $0x0
    c665:	50                   	push   %eax
    c666:	6a 00                	push   $0x0
    c668:	6a 00                	push   $0x0
    c66a:	6a 00                	push   $0x0
    c66c:	6a 02                	push   $0x2
    c66e:	68 0e 04 00 00       	push   $0x40e
    c673:	53                   	push   %ebx
    c674:	e8 67 23 00 00       	call   e9e0 <async_req_fast@plt>
    c679:	83 c4 24             	add    $0x24,%esp
    c67c:	89 45 e4             	mov    %eax,-0x1c(%ebp)
    c67f:	53                   	push   %ebx
    c680:	e8 fb 23 00 00       	call   ea80 <async_exchange_end@plt>
    c685:	8b 45 e4             	mov    -0x1c(%ebp),%eax
    c688:	83 c4 10             	add    $0x10,%esp
    c68b:	85 c0                	test   %eax,%eax
    c68d:	75 08                	jne    c697 <ahci_get_block_size+0x57>
    c68f:	8b 55 0c             	mov    0xc(%ebp),%edx
    c692:	8b 4d f4             	mov    -0xc(%ebp),%ecx
    c695:	89 0a                	mov    %ecx,(%edx)
    c697:	8b 5d fc             	mov    -0x4(%ebp),%ebx
    c69a:	c9                   	leave  
    c69b:	c3                   	ret    
    c69c:	8d 74 26 00          	lea    0x0(%esi,%eiz,1),%esi
    c6a0:	b8 f2 ff ff ff       	mov    $0xfffffff2,%eax
    c6a5:	eb f0                	jmp    c697 <ahci_get_block_size+0x57>
    c6a7:	89 f6                	mov    %esi,%esi
    c6a9:	8d bc 27 00 00 00 00 	lea    0x0(%edi,%eiz,1),%edi

0000c6b0 <ahci_read_blocks>:
    c6b0:	55                   	push   %ebp
    c6b1:	89 e5                	mov    %esp,%ebp
    c6b3:	56                   	push   %esi
    c6b4:	53                   	push   %ebx
    c6b5:	83 ec 1c             	sub    $0x1c,%esp
    c6b8:	8b 45 08             	mov    0x8(%ebp),%eax
    c6bb:	8b 75 0c             	mov    0xc(%ebp),%esi
    c6be:	50                   	push   %eax
    c6bf:	e8 0c 26 00 00       	call   ecd0 <async_exchange_begin@plt>
    c6c4:	83 c4 10             	add    $0x10,%esp
    c6c7:	85 c0                	test   %eax,%eax
    c6c9:	74 4d                	je     c718 <ahci_read_blocks+0x68>
    c6cb:	89 c3                	mov    %eax,%ebx
    c6cd:	8b 55 14             	mov    0x14(%ebp),%edx
    c6d0:	50                   	push   %eax
    c6d1:	6a 00                	push   $0x0
    c6d3:	52                   	push   %edx
    c6d4:	56                   	push   %esi
    c6d5:	6a 00                	push   $0x0
    c6d7:	6a 03                	push   $0x3
    c6d9:	68 0e 04 00 00       	push   $0x40e
    c6de:	53                   	push   %ebx
    c6df:	e8 1c 23 00 00       	call   ea00 <async_send_fast@plt>
    c6e4:	83 c4 1c             	add    $0x1c,%esp
    c6e7:	8b 4d 18             	mov    0x18(%ebp),%ecx
    c6ea:	6a 03                	push   $0x3
    c6ec:	51                   	push   %ecx
    c6ed:	53                   	push   %ebx
    c6ee:	89 c6                	mov    %eax,%esi
    c6f0:	e8 2b 26 00 00       	call   ed20 <async_share_out_start@plt>
    c6f5:	89 1c 24             	mov    %ebx,(%esp)
    c6f8:	e8 83 23 00 00       	call   ea80 <async_exchange_end@plt>
    c6fd:	5b                   	pop    %ebx
    c6fe:	58                   	pop    %eax
    c6ff:	8d 45 f4             	lea    -0xc(%ebp),%eax
    c702:	50                   	push   %eax
    c703:	56                   	push   %esi
    c704:	e8 07 22 00 00       	call   e910 <async_wait_for@plt>
    c709:	8b 45 f4             	mov    -0xc(%ebp),%eax
    c70c:	83 c4 10             	add    $0x10,%esp
    c70f:	8d 65 f8             	lea    -0x8(%ebp),%esp
    c712:	5b                   	pop    %ebx
    c713:	5e                   	pop    %esi
    c714:	5d                   	pop    %ebp
    c715:	c3                   	ret    
    c716:	66 90                	xchg   %ax,%ax
    c718:	b8 f2 ff ff ff       	mov    $0xfffffff2,%eax
    c71d:	eb f0                	jmp    c70f <ahci_read_blocks+0x5f>
    c71f:	90                   	nop

0000c720 <ahci_write_blocks>:
    c720:	55                   	push   %ebp
    c721:	89 e5                	mov    %esp,%ebp
    c723:	56                   	push   %esi
    c724:	53                   	push   %ebx
    c725:	83 ec 1c             	sub    $0x1c,%esp
    c728:	8b 45 08             	mov    0x8(%ebp),%eax
    c72b:	8b 75 0c             	mov    0xc(%ebp),%esi
    c72e:	50                   	push   %eax
    c72f:	e8 9c 25 00 00       	call   ecd0 <async_exchange_begin@plt>
    c734:	83 c4 10             	add    $0x10,%esp
    c737:	85 c0                	test   %eax,%eax
    c739:	74 4d                	je     c788 <ahci_write_blocks+0x68>
    c73b:	89 c3                	mov    %eax,%ebx
    c73d:	8b 55 14             	mov    0x14(%ebp),%edx
    c740:	50                   	push   %eax
    c741:	6a 00                	push   $0x0
    c743:	52                   	push   %edx
    c744:	56                   	push   %esi
    c745:	6a 00                	push   $0x0
    c747:	6a 04                	push   $0x4
    c749:	68 0e 04 00 00       	push   $0x40e
    c74e:	53                   	push   %ebx
    c74f:	e8 ac 22 00 00       	call   ea00 <async_send_fast@plt>
    c754:	83 c4 1c             	add    $0x1c,%esp
    c757:	8b 4d 18             	mov    0x18(%ebp),%ecx
    c75a:	6a 03                	push   $0x3
    c75c:	51                   	push   %ecx
    c75d:	53                   	push   %ebx
    c75e:	89 c6                	mov    %eax,%esi
    c760:	e8 bb 25 00 00       	call   ed20 <async_share_out_start@plt>
    c765:	89 1c 24             	mov    %ebx,(%esp)
    c768:	e8 13 23 00 00       	call   ea80 <async_exchange_end@plt>
    c76d:	5b                   	pop    %ebx
    c76e:	58                   	pop    %eax
    c76f:	8d 45 f4             	lea    -0xc(%ebp),%eax
    c772:	50                   	push   %eax
    c773:	56                   	push   %esi
    c774:	e8 97 21 00 00       	call   e910 <async_wait_for@plt>
    c779:	8b 45 f4             	mov    -0xc(%ebp),%eax
    c77c:	83 c4 10             	add    $0x10,%esp
    c77f:	8d 65 f8             	lea    -0x8(%ebp),%esp
    c782:	5b                   	pop    %ebx
    c783:	5e                   	pop    %esi
    c784:	5d                   	pop    %ebp
    c785:	c3                   	ret    
    c786:	66 90                	xchg   %ax,%ax
    c788:	b8 f2 ff ff ff       	mov    $0xfffffff2,%eax
    c78d:	eb f0                	jmp    c77f <ahci_write_blocks+0x5f>
    c78f:	61                   	popa   
    c790:	74 61                	je     c7f3 <ahci_write_blocks+0xd3>
    c792:	5f                   	pop    %edi
    c793:	62 64 2e 63          	bound  %esp,0x63(%esi,%ebp,1)
    c797:	00 62 6c             	add    %ah,0x6c(%edx)
    c79a:	6b 5f 73 69          	imul   $0x69,0x73(%edi),%ebx
    c79e:	7a 65                	jp     c805 <ahci_write_blocks+0xe5>
    c7a0:	20 25 20 32 20 3d    	and    %ah,0x3d203220
    c7a6:	3d 20 30 00 44       	cmp    $0x44003020,%eax
    c7ab:	65 76 69             	gs jbe c817 <ahci_write_blocks+0xf7>
    c7ae:	63 65 20             	arpl   %sp,0x20(%ebp)
    c7b1:	69 6e 71 75 69 72 79 	imul   $0x79726975,0x71(%esi),%ebp
    c7b8:	20 66 61             	and    %ah,0x61(%esi)
    c7bb:	69 6c 65 64 2e 00 52 	imul   $0x6552002e,0x64(%ebp,%eiz,2),%ebp
    c7c2:	65 
    c7c3:	61                   	popa   
    c7c4:	64 20 63 61          	and    %ah,%fs:0x61(%ebx)
    c7c8:	70 61                	jo     c82b <ahci_write_blocks+0x10b>
    c7ca:	63 69 74             	arpl   %bp,0x74(%ecx)
    c7cd:	79 20                	jns    c7ef <ahci_write_blocks+0xcf>
    c7cf:	63 6f 6d             	arpl   %bp,0x6d(%edi)
    c7d2:	6d                   	insl   (%dx),%es:(%edi)
    c7d3:	61                   	popa   
    c7d4:	6e                   	outsb  %ds:(%esi),(%dx)
    c7d5:	64 20 66 61          	and    %ah,%fs:0x61(%esi)
    c7d9:	69 6c 65 64 2e 00 61 	imul   $0x7461002e,0x64(%ebp,%eiz,2),%ebp
    c7e0:	74 
    c7e1:	61                   	popa   
    c7e2:	5f                   	pop    %edi
    c7e3:	63 74 72 6c          	arpl   %si,0x6c(%edx,%esi,2)
    c7e7:	5f                   	pop    %edi
    c7e8:	69 6e 69 74 28 29 00 	imul   $0x292874,0x69(%esi),%ebp
    c7ef:	49                   	dec    %ecx
    c7f0:	2f                   	das    
    c7f1:	4f                   	dec    %edi
    c7f2:	20 61 64             	and    %ah,0x64(%ecx)
    c7f5:	64 72 65             	fs jb  c85d <ahci_write_blocks+0x13d>
    c7f8:	73 73                	jae    c86d <ahci_write_blocks+0x14d>
    c7fa:	20 25 70 2f 25 70    	and    %ah,0x70252f70
    c800:	00 49 64             	add    %cl,0x64(%ecx)
    c803:	65 6e                	outsb  %gs:(%esi),(%dx)
    c805:	74 69                	je     c870 <ahci_write_blocks+0x150>
    c807:	66 79 20             	data16 jns c82a <ahci_write_blocks+0x10a>
    c80a:	64 72 69             	fs jb  c876 <ahci_write_blocks+0x156>
    c80d:	76 65                	jbe    c874 <ahci_write_blocks+0x154>
    c80f:	20 25 64 2e 2e 2e    	and    %ah,0x2e2e2e64
    c815:	00 4c 42 41          	add    %cl,0x41(%edx,%eax,2)
    c819:	2d 32 38 00 4c       	sub    $0x4c003832,%eax
    c81e:	42                   	inc    %edx
    c81f:	41                   	inc    %ecx
    c820:	2d 34 38 00 50       	sub    $0x50003834,%eax
    c825:	41                   	inc    %ecx
    c826:	43                   	inc    %ebx
    c827:	4b                   	dec    %ebx
    c828:	45                   	inc    %ebp
    c829:	54                   	push   %esp
    c82a:	00 20                	add    %ah,(%eax)
    c82c:	25 6c 6c 75 20       	and    $0x20756c6c,%eax
    c831:	4d                   	dec    %ebp
    c832:	42                   	inc    %edx
    c833:	2e 00 25 73 3a 20 25 	add    %ah,%cs:0x25203a73
    c83a:	73 20                	jae    c85c <ahci_write_blocks+0x13c>
    c83c:	25 6c 6c 75 20       	and    $0x20756c6c,%eax
    c841:	62 6c 6f 63          	bound  %ebp,0x63(%edi,%ebp,2)
    c845:	6b 73 25 73          	imul   $0x73,0x25(%ebx),%esi
    c849:	00 4e 6f             	add    %cl,0x6f(%esi)
    c84c:	74 20                	je     c86e <ahci_write_blocks+0x14e>
    c84e:	66 6f                	outsw  %ds:(%esi),(%dx)
    c850:	75 6e                	jne    c8c0 <ahci_write_blocks+0x1a0>
    c852:	64 2e 00 4e 6f       	fs add %cl,%cs:0x6f(%esi)
    c857:	20 64 69 73          	and    %ah,0x73(%ecx,%ebp,2)
    c85b:	6b 73 20 64          	imul   $0x64,0x20(%ebx),%esi
    c85f:	65 74 65             	gs je  c8c7 <ahci_write_blocks+0x1a7>
    c862:	63 74 65 64          	arpl   %si,0x64(%ebp,%eiz,2)
    c866:	2e 00 3a             	add    %bh,%cs:(%edx)
    c869:	20 61 74             	and    %ah,0x74(%ecx)
    c86c:	61                   	popa   
    c86d:	5f                   	pop    %edi
    c86e:	63 74 72 6c          	arpl   %si,0x6c(%edx,%esi,2)
    c872:	5f                   	pop    %edi
    c873:	72 65                	jb     c8da <ahci_write_blocks+0x1ba>
    c875:	6d                   	insl   (%dx),%es:(%edi)
    c876:	6f                   	outsl  %ds:(%esi),(%dx)
    c877:	76 65                	jbe    c8de <ahci_write_blocks+0x1be>
    c879:	28 29                	sub    %ch,(%ecx)
    c87b:	00 61 74             	add    %ah,0x74(%ecx)
    c87e:	61                   	popa   
    c87f:	5f                   	pop    %edi
    c880:	63 74 72 6c          	arpl   %si,0x6c(%edx,%esi,2)
    c884:	5f                   	pop    %edi
    c885:	67 6f                	outsl  %ds:(%si),(%dx)
    c887:	6e                   	outsb  %ds:(%esi),(%dx)
    c888:	65 28 29             	sub    %ch,%gs:(%ecx)
    c88b:	00 50 65             	add    %dl,0x65(%eax)
    c88e:	72 69                	jb     c8f9 <ahci_write_blocks+0x1d9>
    c890:	70 68                	jo     c8fa <ahci_write_blocks+0x1da>
    c892:	65 72 61             	gs jb  c8f6 <ahci_write_blocks+0x1d6>
    c895:	6c                   	insb   (%dx),%es:(%edi)
    c896:	20 64 65 76          	and    %ah,0x76(%ebp,%eiz,2)
    c89a:	69 63 65 20 74 79 70 	imul   $0x70797420,0x65(%ebx),%esp
    c8a1:	65 20 69 73          	and    %ch,%gs:0x73(%ecx)
    c8a5:	20 6e 6f             	and    %ch,0x6f(%esi)
    c8a8:	74 20                	je     c8ca <ahci_write_blocks+0x1aa>
    c8aa:	43                   	inc    %ebx
    c8ab:	44                   	inc    %esp
    c8ac:	2d 52 4f 4d 2e       	sub    $0x2e4d4f52,%eax
    c8b1:	00 00                	add    %al,(%eax)
    c8b3:	00 41 54             	add    %al,0x54(%ecx)
    c8b6:	41                   	inc    %ecx
    c8b7:	20 72 65             	and    %dh,0x65(%edx)
    c8ba:	67 69 73 74 65 72 2d 	imul   $0x6f2d7265,0x74(%bp,%di),%esi
    c8c1:	6f 
    c8c2:	6e                   	outsb  %ds:(%esi),(%dx)
    c8c3:	6c                   	insb   (%dx),%es:(%edi)
    c8c4:	79 20                	jns    c8e6 <ahci_write_blocks+0x1c6>
    c8c6:	64 65 76 69          	fs gs jbe c933 <ahci_write_blocks+0x213>
    c8ca:	63 65 20             	arpl   %sp,0x20(%ebp)
    c8cd:	66 6f                	outsw  %ds:(%esi),(%dx)
    c8cf:	75 6e                	jne    c93f <ahci_write_blocks+0x21f>
    c8d1:	64 2e 00 43 61       	fs add %al,%cs:0x61(%ebx)
    c8d6:	6e                   	outsb  %ds:(%esi),(%dx)
    c8d7:	6e                   	outsb  %ds:(%esi),(%dx)
    c8d8:	6f                   	outsl  %ds:(%esi),(%dx)
    c8d9:	74 20                	je     c8fb <ahci_write_blocks+0x1db>
    c8db:	69 6e 69 74 69 61 6c 	imul   $0x6c616974,0x69(%esi),%ebp
    c8e2:	69 7a 65 20 64 65 76 	imul   $0x76656420,0x65(%edx),%edi
    c8e9:	69 63 65 20 49 2f 4f 	imul   $0x4f2f4920,0x65(%ebx),%esp
    c8f0:	20 73 70             	and    %dh,0x70(%ebx)
    c8f3:	61                   	popa   
    c8f4:	63 65 2e             	arpl   %sp,0x2e(%ebp)
    c8f7:	00 43 48             	add    %al,0x48(%ebx)
    c8fa:	53                   	push   %ebx
    c8fb:	20 25 75 20 63 79    	and    %ah,0x79632075
    c901:	6c                   	insb   (%dx),%es:(%edi)
    c902:	69 6e 64 65 72 73 2c 	imul   $0x2c737265,0x64(%esi),%ebp
    c909:	20 25 75 20 68 65    	and    %ah,0x65682075
    c90f:	61                   	popa   
    c910:	64 73 2c             	fs jae c93f <ahci_write_blocks+0x21f>
    c913:	20 25 75 20 73 65    	and    %ah,0x65732075
    c919:	63 74 6f 72          	arpl   %si,0x72(%edi,%ebp,2)
    c91d:	73 00                	jae    c91f <ahci_write_blocks+0x1ff>
    c91f:	00 55 6e             	add    %dl,0x6e(%ebp)
    c922:	61                   	popa   
    c923:	62 6c 65 20          	bound  %ebp,0x20(%ebp,%eiz,2)
    c927:	74 6f                	je     c998 <ahci_write_blocks+0x278>
    c929:	20 63 72             	and    %ah,0x72(%ebx)
    c92c:	65 61                	gs popa 
    c92e:	74 65                	je     c995 <ahci_write_blocks+0x275>
    c930:	20 66 75             	and    %ah,0x75(%esi)
    c933:	6e                   	outsb  %ds:(%esi),(%dx)
    c934:	63 74 69 6f          	arpl   %si,0x6f(%ecx,%ebp,2)
    c938:	6e                   	outsb  %ds:(%esi),(%dx)
    c939:	20 66 6f             	and    %ah,0x6f(%esi)
    c93c:	72 20                	jb     c95e <ahci_write_blocks+0x23e>
    c93e:	64 69 73 6b 20 25 64 	imul   $0x2e642520,%fs:0x6b(%ebx),%esi
    c945:	2e 
    c946:	00 00                	add    %al,(%eax)
    c948:	55                   	push   %ebp
    c949:	6e                   	outsb  %ds:(%esi),(%dx)
    c94a:	61                   	popa   
    c94b:	62 6c 65 20          	bound  %ebp,0x20(%ebp,%eiz,2)
    c94f:	74 6f                	je     c9c0 <ahci_write_blocks+0x2a0>
    c951:	20 63 6c             	and    %ah,0x6c(%ebx)
    c954:	65 61                	gs popa 
    c956:	6e                   	outsb  %ds:(%esi),(%dx)
    c957:	20 75 70             	and    %dh,0x70(%ebp)
    c95a:	20 66 75             	and    %ah,0x75(%esi)
    c95d:	6e                   	outsb  %ds:(%esi),(%dx)
    c95e:	63 74 69 6f          	arpl   %si,0x6f(%ecx,%ebp,2)
    c962:	6e                   	outsb  %ds:(%esi),(%dx)
    c963:	20 66 6f             	and    %ah,0x6f(%esi)
    c966:	72 20                	jb     c988 <ahci_write_blocks+0x268>
    c968:	64 69 73 6b 20 25 64 	imul   $0x2e642520,%fs:0x6b(%ebx),%esi
    c96f:	2e 
    c970:	00 61 74             	add    %ah,0x74(%ecx)
    c973:	61                   	popa   
    c974:	5f                   	pop    %edi
    c975:	66 75 6e             	data16 jne c9e6 <ahci_write_blocks+0x2c6>
    c978:	5f                   	pop    %edi
    c979:	6f                   	outsl  %ds:(%esi),(%dx)
    c97a:	66 66 6c             	data16 data16 insb (%dx),%es:(%edi)
    c97d:	69 6e 65 28 29 00 61 	imul   $0x61002928,0x65(%esi),%ebp
    c984:	74 61                	je     c9e7 <ahci_write_blocks+0x2c7>
    c986:	5f                   	pop    %edi
    c987:	66 75 6e             	data16 jne c9f8 <ahci_write_blocks+0x2d8>
    c98a:	5f                   	pop    %edi
    c98b:	6f                   	outsl  %ds:(%esi),(%dx)
    c98c:	6e                   	outsb  %ds:(%esi),(%dx)
    c98d:	6c                   	insb   (%dx),%es:(%edi)
    c98e:	69 6e 65 28 29 00 61 	imul   $0x61002928,0x65(%esi),%ebp
    c995:	74 61                	je     c9f8 <ahci_write_blocks+0x2d8>
    c997:	5f                   	pop    %edi
    c998:	64 65 76 5f          	fs gs jbe c9fb <ahci_write_blocks+0x2db>
    c99c:	67 6f                	outsl  %ds:(%si),(%dx)
    c99e:	6e                   	outsb  %ds:(%esi),(%dx)
    c99f:	65 28 25 70 29 00 61 	sub    %ah,%gs:0x61002970
    c9a6:	74 61                	je     ca09 <ahci_write_blocks+0x2e9>
    c9a8:	5f                   	pop    %edi
    c9a9:	64 65 76 5f          	fs gs jbe ca0c <ahci_write_blocks+0x2ec>
    c9ad:	72 65                	jb     ca14 <ahci_write_blocks+0x2f4>
    c9af:	6d                   	insl   (%dx),%es:(%edi)
    c9b0:	6f                   	outsl  %ds:(%esi),(%dx)
    c9b1:	76 65                	jbe    ca18 <ahci_write_blocks+0x2f8>
    c9b3:	28 25 70 29 00 46    	sub    %ah,0x46002970
    c9b9:	61                   	popa   
    c9ba:	69 6c 65 64 20 61 6c 	imul   $0x6c6c6120,0x64(%ebp,%eiz,2),%ebp
    c9c1:	6c 
    c9c2:	6f                   	outsl  %ds:(%esi),(%dx)
    c9c3:	63 61 74             	arpl   %sp,0x74(%ecx)
    c9c6:	69 6e 67 20 73 6f 66 	imul   $0x666f7320,0x67(%esi),%ebp
    c9cd:	74 20                	je     c9ef <ahci_write_blocks+0x2cf>
    c9cf:	73 74                	jae    ca45 <ahci_write_blocks+0x325>
    c9d1:	61                   	popa   
    c9d2:	74 65                	je     ca39 <ahci_write_blocks+0x319>
    c9d4:	2e 00 64 25 75       	add    %ah,%cs:0x75(%ebp,%eiz,1)
    c9d9:	00 4f 75             	add    %cl,0x75(%edi)
    c9dc:	74 20                	je     c9fe <ahci_write_blocks+0x2de>
    c9de:	6f                   	outsl  %ds:(%esi),(%dx)
    c9df:	66 20 6d 65          	data16 and %ch,0x65(%ebp)
    c9e3:	6d                   	insl   (%dx),%es:(%edi)
    c9e4:	6f                   	outsl  %ds:(%esi),(%dx)
    c9e5:	72 79                	jb     ca60 <ahci_write_blocks+0x340>
    c9e7:	2e 00 46 61          	add    %al,%cs:0x61(%esi)
    c9eb:	69 6c 65 64 20 63 72 	imul   $0x65726320,0x64(%ebp,%eiz,2),%ebp
    c9f2:	65 
    c9f3:	61                   	popa   
    c9f4:	74 69                	je     ca5f <ahci_write_blocks+0x33f>
    c9f6:	6e                   	outsb  %ds:(%esi),(%dx)
    c9f7:	67 20 44 44          	and    %al,0x44(%si)
    c9fb:	46                   	inc    %esi
    c9fc:	20 66 75             	and    %ah,0x75(%esi)
    c9ff:	6e                   	outsb  %ds:(%esi),(%dx)
    ca00:	63 74 69 6f          	arpl   %si,0x6f(%ecx,%ebp,2)
    ca04:	6e                   	outsb  %ds:(%esi),(%dx)
    ca05:	2e 00 46 61          	add    %al,%cs:0x61(%esi)
    ca09:	69 6c 65 64 20 61 6c 	imul   $0x6c6c6120,0x64(%ebp,%eiz,2),%ebp
    ca10:	6c 
    ca11:	6f                   	outsl  %ds:(%esi),(%dx)
    ca12:	63 61 74             	arpl   %sp,0x74(%ecx)
    ca15:	69 6e 67 20 73 6f 66 	imul   $0x666f7320,0x67(%esi),%ebp
    ca1c:	74 73                	je     ca91 <ahci_write_blocks+0x371>
    ca1e:	74 61                	je     ca81 <ahci_write_blocks+0x361>
    ca20:	74 65                	je     ca87 <ahci_write_blocks+0x367>
    ca22:	2e 00 64 69 73       	add    %ah,%cs:0x73(%ecx,%ebp,2)
    ca27:	6b 00 61             	imul   $0x61,(%eax),%eax
    ca2a:	74 61                	je     ca8d <ahci_write_blocks+0x36d>
    ca2c:	5f                   	pop    %edi
    ca2d:	66 75 6e             	data16 jne ca9e <ahci_write_blocks+0x37e>
    ca30:	5f                   	pop    %edi
    ca31:	72 65                	jb     ca98 <ahci_write_blocks+0x378>
    ca33:	6d                   	insl   (%dx),%es:(%edi)
    ca34:	6f                   	outsl  %ds:(%esi),(%dx)
    ca35:	76 65                	jbe    ca9c <ahci_write_blocks+0x37c>
    ca37:	28 25 70 2c 20 27    	sub    %ah,0x27202c70
    ca3d:	25 73 27 29 00       	and    $0x292773,%eax
    ca42:	61                   	popa   
    ca43:	74 61                	je     caa6 <ahci_write_blocks+0x386>
    ca45:	5f                   	pop    %edi
    ca46:	66 75 6e             	data16 jne cab7 <ahci_write_blocks+0x397>
    ca49:	5f                   	pop    %edi
    ca4a:	75 6e                	jne    caba <ahci_write_blocks+0x39a>
    ca4c:	62 69 6e             	bound  %ebp,0x6e(%ecx)
    ca4f:	64 28 25 70 2c 20 27 	sub    %ah,%fs:0x27202c70
    ca56:	25 73 27 29 00       	and    $0x292773,%eax
    ca5b:	61                   	popa   
    ca5c:	74 61                	je     cabf <ahci_write_blocks+0x39f>
    ca5e:	5f                   	pop    %edi
    ca5f:	62 64 00 66          	bound  %esp,0x66(%eax,%eax,1)
    ca63:	90                   	nop
    ca64:	46                   	inc    %esi
    ca65:	61                   	popa   
    ca66:	69 6c 65 64 20 69 6e 	imul   $0x696e6920,0x64(%ebp,%eiz,2),%ebp
    ca6d:	69 
    ca6e:	74 69                	je     cad9 <ahci_write_blocks+0x3b9>
    ca70:	61                   	popa   
    ca71:	6c                   	insb   (%dx),%es:(%edi)
    ca72:	69 7a 69 6e 67 20 41 	imul   $0x4120676e,0x69(%edx),%edi
    ca79:	54                   	push   %esp
    ca7a:	41                   	inc    %ecx
    ca7b:	20 63 6f             	and    %ah,0x6f(%ebx)
    ca7e:	6e                   	outsb  %ds:(%esi),(%dx)
    ca7f:	74 72                	je     caf3 <ahci_write_blocks+0x3d3>
    ca81:	6f                   	outsl  %ds:(%esi),(%dx)
    ca82:	6c                   	insb   (%dx),%es:(%edi)
    ca83:	6c                   	insb   (%dx),%es:(%edi)
    ca84:	65 72 2e             	gs jb  cab5 <ahci_write_blocks+0x395>
    ca87:	00 49 6e             	add    %cl,0x6e(%ecx)
    ca8a:	76 61                	jbe    caed <ahci_write_blocks+0x3cd>
    ca8c:	6c                   	insb   (%dx),%es:(%edi)
    ca8d:	69 64 20 48 57 20 72 	imul   $0x65722057,0x48(%eax,%eiz,1),%esp
    ca94:	65 
    ca95:	73 6f                	jae    cb06 <ahci_write_blocks+0x3e6>
    ca97:	75 72                	jne    cb0b <ahci_write_blocks+0x3eb>
    ca99:	63 65 20             	arpl   %sp,0x20(%ebp)
    ca9c:	63 6f 6e             	arpl   %bp,0x6e(%edi)
    ca9f:	66 69 67 75 72 61    	imul   $0x6172,0x75(%edi),%sp
    caa5:	74 69                	je     cb10 <ahci_write_blocks+0x3f0>
    caa7:	6f                   	outsl  %ds:(%esi),(%dx)
    caa8:	6e                   	outsb  %ds:(%esi),(%dx)
    caa9:	2e 00 00             	add    %al,%cs:(%eax)
    caac:	46                   	inc    %esi
    caad:	61                   	popa   
    caae:	69 6c 65 64 20 62 69 	imul   $0x6e696220,0x64(%ebp,%eiz,2),%ebp
    cab5:	6e 
    cab6:	64 69 6e 67 20 44 44 	imul   $0x46444420,%fs:0x67(%esi),%ebp
    cabd:	46 
    cabe:	20 66 75             	and    %ah,0x75(%esi)
    cac1:	6e                   	outsb  %ds:(%esi),(%dx)
    cac2:	63 74 69 6f          	arpl   %si,0x6f(%ecx,%ebp,2)
    cac6:	6e                   	outsb  %ds:(%esi),(%dx)
    cac7:	20 25 73 3a 20 25    	and    %ah,0x25203a73
    cacd:	73 00                	jae    cacf <ahci_write_blocks+0x3af>
    cacf:	00 45 72             	add    %al,0x72(%ebp)
    cad2:	72 6f                	jb     cb43 <ahci_write_blocks+0x423>
    cad4:	72 20                	jb     caf6 <ahci_write_blocks+0x3d6>
    cad6:	6f                   	outsl  %ds:(%esi),(%dx)
    cad7:	66 66 6c             	data16 data16 insb (%dx),%es:(%edi)
    cada:	69 6e 69 6e 67 20 66 	imul   $0x6620676e,0x69(%esi),%ebp
    cae1:	75 6e                	jne    cb51 <ahci_write_blocks+0x431>
    cae3:	63 74 69 6f          	arpl   %si,0x6f(%ecx,%ebp,2)
    cae7:	6e                   	outsb  %ds:(%esi),(%dx)
    cae8:	20 27                	and    %ah,(%edi)
    caea:	25 73 27 2e 00       	and    $0x2e2773,%eax
    caef:	00 46 61             	add    %al,0x61(%esi)
    caf2:	69 6c 65 64 20 75 6e 	imul   $0x626e7520,0x64(%ebp,%eiz,2),%ebp
    caf9:	62 
    cafa:	69 6e 64 69 6e 67 20 	imul   $0x20676e69,0x64(%esi),%ebp
    cb01:	66 75 6e             	data16 jne cb72 <ahci_write_blocks+0x452>
    cb04:	63 74 69 6f          	arpl   %si,0x6f(%ecx,%ebp,2)
    cb08:	6e                   	outsb  %ds:(%esi),(%dx)
    cb09:	20 27                	and    %ah,(%edi)
    cb0b:	25 73 27 2e 00       	and    $0x2e2773,%eax
    cb10:	61                   	popa   
    cb11:	74 61                	je     cb74 <ahci_write_blocks+0x454>
    cb13:	5f                   	pop    %edi
    cb14:	62 64 3a 20          	bound  %esp,0x20(%edx,%edi,1)
    cb18:	48                   	dec    %eax
    cb19:	65 6c                	gs insb (%dx),%es:(%edi)
    cb1b:	65 6e                	outsb  %gs:(%esi),(%dx)
    cb1d:	4f                   	dec    %edi
    cb1e:	53                   	push   %ebx
    cb1f:	20 41 54             	and    %al,0x54(%ecx)
    cb22:	41                   	inc    %ecx
    cb23:	28 50 49             	sub    %dl,0x49(%eax)
    cb26:	29 20                	sub    %esp,(%eax)
    cb28:	64 65 76 69          	fs gs jbe cb95 <ahci_write_blocks+0x475>
    cb2c:	63 65 20             	arpl   %sp,0x20(%ebp)
    cb2f:	64 72 69             	fs jb  cb9b <ahci_write_blocks+0x47b>
    cb32:	76 65                	jbe    cb99 <ahci_write_blocks+0x479>
    cb34:	72 0a                	jb     cb40 <ahci_write_blocks+0x420>
    cb36:	00 67 65             	add    %ah,0x65(%edi)
    cb39:	6e                   	outsb  %ds:(%esi),(%dx)
    cb3a:	65 72 69             	gs jb  cba6 <ahci_write_blocks+0x486>
    cb3d:	63 2f                	arpl   %bp,(%edi)
    cb3f:	64 72 69             	fs jb  cbab <ahci_write_blocks+0x48b>
    cb42:	76 65                	jbe    cba9 <ahci_write_blocks+0x489>
    cb44:	72 2e                	jb     cb74 <ahci_write_blocks+0x454>
    cb46:	63 00                	arpl   %ax,(%eax)
    cb48:	69 73 5f 76 61 6c 69 	imul   $0x696c6176,0x5f(%ebx),%esi
    cb4f:	64 5f                	fs pop %edi
    cb51:	69 66 61 63 65 5f 69 	imul   $0x695f6563,0x61(%esi),%esp
    cb58:	64 78 28             	fs js  cb83 <ahci_write_blocks+0x463>
    cb5b:	69 64 78 29 00 72 65 	imul   $0x6d657200,0x29(%eax,%edi,2),%esp
    cb62:	6d 
    cb63:	5f                   	pop    %edi
    cb64:	69 66 61 63 65 20 21 	imul   $0x21206563,0x61(%esi),%esp
    cb6b:	3d 20 4e 55 4c       	cmp    $0x4c554e20,%eax
    cb70:	4c                   	dec    %esp
    cb71:	00 64 65 76          	add    %ah,0x76(%ebp,%eiz,2)
    cb75:	2d 3e 64 72 69       	sub    $0x6972643e,%eax
    cb7a:	76 65                	jbe    cbe1 <ahci_write_blocks+0x4c1>
    cb7c:	72 5f                	jb     cbdd <ahci_write_blocks+0x4bd>
    cb7e:	64 61                	fs popa 
    cb80:	74 61                	je     cbe3 <ahci_write_blocks+0x4c3>
    cb82:	20 3d 3d 20 4e 55    	and    %bh,0x554e203d
    cb88:	4c                   	dec    %esp
    cb89:	4c                   	dec    %esp
    cb8a:	00 64 65 76          	add    %ah,0x76(%ebp,%eiz,2)
    cb8e:	2d 3e 70 61 72       	sub    $0x7261703e,%eax
    cb93:	65 6e                	outsb  %gs:(%esi),(%dx)
    cb95:	74 5f                	je     cbf6 <ahci_write_blocks+0x4d6>
    cb97:	73 65                	jae    cbfe <ahci_write_blocks+0x4de>
    cb99:	73 73                	jae    cc0e <ahci_write_blocks+0x4ee>
    cb9b:	20 3d 3d 20 4e 55    	and    %bh,0x554e203d
    cba1:	4c                   	dec    %esp
    cba2:	4c                   	dec    %esp
    cba3:	00 64 65 76          	add    %ah,0x76(%ebp,%eiz,2)
    cba7:	2d 3e 6e 61 6d       	sub    $0x6d616e3e,%eax
    cbac:	65 20 3d 3d 20 4e 55 	and    %bh,%gs:0x554e203d
    cbb3:	4c                   	dec    %esp
    cbb4:	4c                   	dec    %esp
    cbb5:	00 66 75             	add    %ah,0x75(%esi)
    cbb8:	6e                   	outsb  %ds:(%esi),(%dx)
    cbb9:	2d 3e 62 6f 75       	sub    $0x756f623e,%eax
    cbbe:	6e                   	outsb  %ds:(%esi),(%dx)
    cbbf:	64 20 3d 3d 20 66 61 	and    %bh,%fs:0x6166203d
    cbc6:	6c                   	insb   (%dx),%es:(%edi)
    cbc7:	73 65                	jae    cc2e <ahci_write_blocks+0x50e>
    cbc9:	00 66 75             	add    %ah,0x75(%esi)
    cbcc:	6e                   	outsb  %ds:(%esi),(%dx)
    cbcd:	2d 3e 64 72 69       	sub    $0x6972643e,%eax
    cbd2:	76 65                	jbe    cc39 <ahci_write_blocks+0x519>
    cbd4:	72 5f                	jb     cc35 <ahci_write_blocks+0x515>
    cbd6:	64 61                	fs popa 
    cbd8:	74 61                	je     cc3b <ahci_write_blocks+0x51b>
    cbda:	20 3d 3d 20 4e 55    	and    %bh,0x554e203d
    cbe0:	4c                   	dec    %esp
    cbe1:	4c                   	dec    %esp
    cbe2:	00 66 75             	add    %ah,0x75(%esi)
    cbe5:	6e                   	outsb  %ds:(%esi),(%dx)
    cbe6:	2d 3e 6e 61 6d       	sub    $0x6d616e3e,%eax
    cbeb:	65 20 21             	and    %ah,%gs:(%ecx)
    cbee:	3d 20 4e 55 4c       	cmp    $0x4c554e20,%eax
    cbf3:	4c                   	dec    %esp
    cbf4:	00 66 75             	add    %ah,0x75(%esi)
    cbf7:	6e                   	outsb  %ds:(%esi),(%dx)
    cbf8:	2d 3e 64 65 76       	sub    $0x7665643e,%eax
    cbfd:	20 21                	and    %ah,(%ecx)
    cbff:	3d 20 4e 55 4c       	cmp    $0x4c554e20,%eax
    cc04:	4c                   	dec    %esp
    cc05:	00 66 75             	add    %ah,0x75(%esi)
    cc08:	6e                   	outsb  %ds:(%esi),(%dx)
    cc09:	2d 3e 62 6f 75       	sub    $0x756f623e,%eax
    cc0e:	6e                   	outsb  %ds:(%esi),(%dx)
    cc0f:	64 20 3d 3d 20 74 72 	and    %bh,%fs:0x7274203d
    cc16:	75 65                	jne    cc7d <ahci_write_blocks+0x55d>
    cc18:	00 66 75             	add    %ah,0x75(%esi)
    cc1b:	6e                   	outsb  %ds:(%esi),(%dx)
    cc1c:	2d 3e 66 74 79       	sub    $0x7974663e,%eax
    cc21:	70 65                	jo     cc88 <ahci_write_blocks+0x568>
    cc23:	20 3d 3d 20 66 75    	and    %bh,0x7566203d
    cc29:	6e                   	outsb  %ds:(%esi),(%dx)
    cc2a:	5f                   	pop    %edi
    cc2b:	69 6e 6e 65 72 00 66 	imul   $0x66007265,0x6e(%esi),%ebp
    cc32:	75 6e                	jne    cca2 <ahci_write_blocks+0x582>
    cc34:	2d 3e 63 6f 6e       	sub    $0x6e6f633e,%eax
    cc39:	6e                   	outsb  %ds:(%esi),(%dx)
    cc3a:	5f                   	pop    %edi
    cc3b:	68 61 6e 64 6c       	push   $0x6c646e61
    cc40:	65 72 20             	gs jb  cc63 <ahci_write_blocks+0x543>
    cc43:	3d 3d 20 4e 55       	cmp    $0x554e203d,%eax
    cc48:	4c                   	dec    %esp
    cc49:	4c                   	dec    %esp
    cc4a:	00 66 75             	add    %ah,0x75(%esi)
    cc4d:	6e                   	outsb  %ds:(%esi),(%dx)
    cc4e:	2d 3e 6f 70 73       	sub    $0x73706f3e,%eax
    cc53:	20 3d 3d 20 4e 55    	and    %bh,0x554e203d
    cc59:	4c                   	dec    %esp
    cc5a:	4c                   	dec    %esp
    cc5b:	00 66 75             	add    %ah,0x75(%esi)
    cc5e:	6e                   	outsb  %ds:(%esi),(%dx)
    cc5f:	2d 3e 66 74 79       	sub    $0x7974663e,%eax
    cc64:	70 65                	jo     cccb <ahci_write_blocks+0x5ab>
    cc66:	20 3d 3d 20 66 75    	and    %bh,0x7566203d
    cc6c:	6e                   	outsb  %ds:(%esi),(%dx)
    cc6d:	5f                   	pop    %edi
    cc6e:	65 78 70             	gs js  cce1 <ahci_write_blocks+0x5c1>
    cc71:	6f                   	outsl  %ds:(%esi),(%dx)
    cc72:	73 65                	jae    ccd9 <ahci_write_blocks+0x5b9>
    cc74:	64 00 64 72 69       	add    %ah,%fs:0x69(%edx,%esi,2)
    cc79:	76 65                	jbe    cce0 <ahci_write_blocks+0x5c0>
    cc7b:	72 20                	jb     cc9d <ahci_write_blocks+0x57d>
    cc7d:	61                   	popa   
    cc7e:	6c                   	insb   (%dx),%es:(%edi)
    cc7f:	72 65                	jb     cce6 <ahci_write_blocks+0x5c6>
    cc81:	61                   	popa   
    cc82:	64 79 20             	fs jns cca5 <ahci_write_blocks+0x585>
    cc85:	73 74                	jae    ccfb <ahci_write_blocks+0x5db>
    cc87:	61                   	popa   
    cc88:	72 74                	jb     ccfe <ahci_write_blocks+0x5de>
    cc8a:	65 64 00 66 90       	gs add %ah,%fs:-0x70(%esi)
    cc8f:	90                   	nop
    cc90:	66 69 62 72 69 6c    	imul   $0x6c69,0x72(%edx),%sp
    cc96:	5f                   	pop    %edi
    cc97:	6d                   	insl   (%dx),%es:(%edi)
    cc98:	75 74                	jne    cd0e <ahci_write_blocks+0x5ee>
    cc9a:	65 78 5f             	gs js  ccfc <ahci_write_blocks+0x5dc>
    cc9d:	69 73 5f 6c 6f 63 6b 	imul   $0x6b636f6c,0x5f(%ebx),%esi
    cca4:	65 64 28 26          	gs sub %ah,%fs:(%esi)
    cca8:	66 75 6e             	data16 jne cd19 <ahci_write_blocks+0x5f9>
    ccab:	63 74 69 6f          	arpl   %si,0x6f(%ecx,%ebp,2)
    ccaf:	6e                   	outsb  %ds:(%esi),(%dx)
    ccb0:	73 5f                	jae    cd11 <ahci_write_blocks+0x5f1>
    ccb2:	6d                   	insl   (%dx),%es:(%edi)
    ccb3:	75 74                	jne    cd29 <ahci_write_blocks+0x609>
    ccb5:	65 78 29             	gs js  cce1 <ahci_write_blocks+0x5c1>
    ccb8:	00 00                	add    %al,(%eax)
    ccba:	00 00                	add    %al,(%eax)
    ccbc:	25 73 3a 20 64       	and    $0x64203a73,%eax
    ccc1:	72 69                	jb     cd2c <ahci_write_blocks+0x60c>
    ccc3:	76 65                	jbe    cd2a <ahci_write_blocks+0x60a>
    ccc5:	72 5f                	jb     cd26 <ahci_write_blocks+0x606>
    ccc7:	63 6f 6e             	arpl   %bp,0x6e(%edi)
    ccca:	6e                   	outsb  %ds:(%esi),(%dx)
    cccb:	65 63 74 69 6f       	arpl   %si,%gs:0x6f(%ecx,%ebp,2)
    ccd0:	6e                   	outsb  %ds:(%esi),(%dx)
    ccd1:	5f                   	pop    %edi
    ccd2:	67 65 6e             	outsb  %gs:(%si),(%dx)
    ccd5:	20 65 72             	and    %ah,0x72(%ebp)
    ccd8:	72 6f                	jb     cd49 <ahci_write_blocks+0x629>
    ccda:	72 20                	jb     ccfc <ahci_write_blocks+0x5dc>
    ccdc:	2d 20 69 6e 76       	sub    $0x766e6920,%eax
    cce1:	61                   	popa   
    cce2:	6c                   	insb   (%dx),%es:(%edi)
    cce3:	69 64 20 69 6e 74 65 	imul   $0x7265746e,0x69(%eax,%eiz,1),%esp
    ccea:	72 
    cceb:	66 61                	popaw  
    cced:	63 65 20             	arpl   %sp,0x20(%ebp)
    ccf0:	69 64 20 25 64 2e 00 	imul   $0x2e64,0x25(%eax,%eiz,1),%esp
    ccf7:	00 
    ccf8:	25 73 3a 20 64       	and    $0x64203a73,%eax
    ccfd:	72 69                	jb     cd68 <ahci_write_blocks+0x648>
    ccff:	76 65                	jbe    cd66 <ahci_write_blocks+0x646>
    cd01:	72 5f                	jb     cd62 <ahci_write_blocks+0x642>
    cd03:	63 6f 6e             	arpl   %bp,0x6e(%edi)
    cd06:	6e                   	outsb  %ds:(%esi),(%dx)
    cd07:	65 63 74 69 6f       	arpl   %si,%gs:0x6f(%ecx,%ebp,2)
    cd0c:	6e                   	outsb  %ds:(%esi),(%dx)
    cd0d:	5f                   	pop    %edi
    cd0e:	67 65 6e             	outsb  %gs:(%si),(%dx)
    cd11:	20 65 72             	and    %ah,0x72(%ebp)
    cd14:	72 6f                	jb     cd85 <ahci_write_blocks+0x665>
    cd16:	72 20                	jb     cd38 <ahci_write_blocks+0x618>
    cd18:	2d 20 00 00 46       	sub    $0x46000020,%eax
    cd1d:	75 6e                	jne    cd8d <ahci_write_blocks+0x66d>
    cd1f:	63 74 69 6f          	arpl   %si,0x6f(%ecx,%ebp,2)
    cd23:	6e                   	outsb  %ds:(%esi),(%dx)
    cd24:	20 77 69             	and    %dh,0x69(%edi)
    cd27:	74 68                	je     cd91 <ahci_write_blocks+0x671>
    cd29:	20 68 61             	and    %ch,0x61(%eax)
    cd2c:	6e                   	outsb  %ds:(%esi),(%dx)
    cd2d:	64 6c                	fs insb (%dx),%es:(%edi)
    cd2f:	65 20 25 75 20 68 61 	and    %ah,%gs:0x61682075
    cd36:	73 20                	jae    cd58 <ahci_write_blocks+0x638>
    cd38:	6e                   	outsb  %ds:(%esi),(%dx)
    cd39:	6f                   	outsl  %ds:(%esi),(%dx)
    cd3a:	20 69 6e             	and    %ch,0x6e(%ecx)
    cd3d:	74 65                	je     cda4 <ahci_write_blocks+0x684>
    cd3f:	72 66                	jb     cda7 <ahci_write_blocks+0x687>
    cd41:	61                   	popa   
    cd42:	63 65 20             	arpl   %sp,0x20(%ebp)
    cd45:	77 69                	ja     cdb0 <ahci_write_blocks+0x690>
    cd47:	74 68                	je     cdb1 <ahci_write_blocks+0x691>
    cd49:	20 69 64             	and    %ch,0x64(%ecx)
    cd4c:	20 25 64 2e 0a 00    	and    %ah,0xa2e64
    cd52:	00 00                	add    %al,(%eax)
    cd54:	25 73 3a 20 64       	and    $0x64203a73,%eax
    cd59:	72 69                	jb     cdc4 <ahci_write_blocks+0x6a4>
    cd5b:	76 65                	jbe    cdc2 <ahci_write_blocks+0x6a2>
    cd5d:	72 5f                	jb     cdbe <ahci_write_blocks+0x69e>
    cd5f:	63 6f 6e             	arpl   %bp,0x6e(%edi)
    cd62:	6e                   	outsb  %ds:(%esi),(%dx)
    cd63:	65 63 74 69 6f       	arpl   %si,%gs:0x6f(%ecx,%ebp,2)
    cd68:	6e                   	outsb  %ds:(%esi),(%dx)
    cd69:	5f                   	pop    %edi
    cd6a:	67 65 6e             	outsb  %gs:(%si),(%dx)
    cd6d:	20 65 72             	and    %ah,0x72(%ebp)
    cd70:	72 6f                	jb     cde1 <ahci_write_blocks+0x6c1>
    cd72:	72 20                	jb     cd94 <ahci_write_blocks+0x674>
    cd74:	2d 20 69 6e 76       	sub    $0x766e6920,%eax
    cd79:	61                   	popa   
    cd7a:	6c                   	insb   (%dx),%es:(%edi)
    cd7b:	69 64 20 69 6e 74 65 	imul   $0x7265746e,0x69(%eax,%eiz,1),%esp
    cd82:	72 
    cd83:	66 61                	popaw  
    cd85:	63 65 20             	arpl   %sp,0x20(%ebp)
    cd88:	6d                   	insl   (%dx),%es:(%edi)
    cd89:	65 74 68             	gs je  cdf4 <ahci_write_blocks+0x6d4>
    cd8c:	6f                   	outsl  %ds:(%esi),(%dx)
    cd8d:	64 2e 00 25 73 3a 20 	fs add %ah,%cs:0x64203a73
    cd94:	64 
    cd95:	72 69                	jb     ce00 <ahci_write_blocks+0x6e0>
    cd97:	76 65                	jbe    cdfe <ahci_write_blocks+0x6de>
    cd99:	72 5f                	jb     cdfa <ahci_write_blocks+0x6da>
    cd9b:	63 6f 6e             	arpl   %bp,0x6e(%edi)
    cd9e:	6e                   	outsb  %ds:(%esi),(%dx)
    cd9f:	65 63 74 69 6f       	arpl   %si,%gs:0x6f(%ecx,%ebp,2)
    cda4:	6e                   	outsb  %ds:(%esi),(%dx)
    cda5:	5f                   	pop    %edi
    cda6:	67 65 6e             	outsb  %gs:(%si),(%dx)
    cda9:	20 65 72             	and    %ah,0x72(%ebp)
    cdac:	72 6f                	jb     ce1d <ahci_write_blocks+0x6fd>
    cdae:	72 20                	jb     cdd0 <ahci_write_blocks+0x6b0>
    cdb0:	2d 20 6e 6f 20       	sub    $0x206f6e20,%eax
    cdb5:	66 75 6e             	data16 jne ce26 <ahci_write_blocks+0x706>
    cdb8:	63 74 69 6f          	arpl   %si,0x6f(%ecx,%ebp,2)
    cdbc:	6e                   	outsb  %ds:(%esi),(%dx)
    cdbd:	20 77 69             	and    %dh,0x69(%edi)
    cdc0:	74 68                	je     ce2a <ahci_write_blocks+0x70a>
    cdc2:	20 68 61             	and    %ch,0x61(%eax)
    cdc5:	6e                   	outsb  %ds:(%esi),(%dx)
    cdc6:	64 6c                	fs insb (%dx),%es:(%edi)
    cdc8:	65 20 25 75 20 77 61 	and    %ah,%gs:0x61772075
    cdcf:	73 20                	jae    cdf1 <ahci_write_blocks+0x6d1>
    cdd1:	66 6f                	outsw  %ds:(%esi),(%dx)
    cdd3:	75 6e                	jne    ce43 <ahci_write_blocks+0x723>
    cdd5:	64 2e 0a 00          	fs or  %cs:(%eax),%al
    cdd9:	00 00                	add    %al,(%eax)
    cddb:	00 66 69             	add    %ah,0x69(%esi)
    cdde:	62 72 69             	bound  %esi,0x69(%edx)
    cde1:	6c                   	insb   (%dx),%es:(%edi)
    cde2:	5f                   	pop    %edi
    cde3:	6d                   	insl   (%dx),%es:(%edi)
    cde4:	75 74                	jne    ce5a <ahci_write_blocks+0x73a>
    cde6:	65 78 5f             	gs js  ce48 <ahci_write_blocks+0x728>
    cde9:	69 73 5f 6c 6f 63 6b 	imul   $0x6b636f6c,0x5f(%ebx),%esi
    cdf0:	65 64 28 26          	gs sub %ah,%fs:(%esi)
    cdf4:	64 65 76 69          	fs gs jbe ce61 <ahci_write_blocks+0x741>
    cdf8:	63 65 73             	arpl   %sp,0x73(%ebp)
    cdfb:	5f                   	pop    %edi
    cdfc:	6d                   	insl   (%dx),%es:(%edi)
    cdfd:	75 74                	jne    ce73 <ahci_write_blocks+0x753>
    cdff:	65 78 29             	gs js  ce2b <ahci_write_blocks+0x70b>
    ce02:	00 00                	add    %al,(%eax)
    ce04:	45                   	inc    %ebp
    ce05:	72 72                	jb     ce79 <ahci_write_blocks+0x759>
    ce07:	6f                   	outsl  %ds:(%esi),(%dx)
    ce08:	72 3a                	jb     ce44 <ahci_write_blocks+0x724>
    ce0a:	20 46 61             	and    %al,0x61(%esi)
    ce0d:	69 6c 65 64 20 74 6f 	imul   $0x206f7420,0x64(%ebp,%eiz,2),%ebp
    ce14:	20 
    ce15:	72 65                	jb     ce7c <ahci_write_blocks+0x75c>
    ce17:	67 69 73 74 65 72 20 	imul   $0x64207265,0x74(%bp,%di),%esi
    ce1e:	64 
    ce1f:	72 69                	jb     ce8a <remote_ifaces+0xa>
    ce21:	76 65                	jbe    ce88 <remote_ifaces+0x8>
    ce23:	72 20                	jb     ce45 <ahci_write_blocks+0x725>
    ce25:	77 69                	ja     ce90 <remote_ifaces+0x10>
    ce27:	74 68                	je     ce91 <remote_ifaces+0x11>
    ce29:	20 64 65 76          	and    %ah,0x76(%ebp,%eiz,2)
    ce2d:	69 63 65 20 6d 61 6e 	imul   $0x6e616d20,0x65(%ebx),%esp
    ce34:	61                   	popa   
    ce35:	67 65 72 20          	addr16 gs jb ce59 <ahci_write_blocks+0x739>
    ce39:	28 25 73 29 2e 0a    	sub    %ah,0xa2e2973
    ce3f:	00 18                	add    %bl,(%eax)
    ce41:	3d 00 00 18 3c       	cmp    $0x3c180000,%eax
    ce46:	00 00                	add    %al,(%eax)
    ce48:	90                   	nop
    ce49:	3b 00                	cmp    (%eax),%eax
    ce4b:	00 e8                	add    %ch,%al
    ce4d:	3a 00                	cmp    (%eax),%al
    ce4f:	00 f0                	add    %dh,%al
    ce51:	3d 00 00 67 65       	cmp    $0x65670000,%eax
    ce56:	6e                   	outsb  %ds:(%esi),(%dx)
    ce57:	65 72 69             	gs jb  cec3 <remote_audio_mixer_iface+0x7>
    ce5a:	63 2f                	arpl   %bp,(%edi)
    ce5c:	64 65 76 5f          	fs gs jbe cebf <remote_audio_mixer_iface+0x3>
    ce60:	69 66 61 63 65 2e 63 	imul   $0x632e6563,0x61(%esi),%esp
    ce67:	00 66 90             	add    %ah,-0x70(%esi)
    ce6a:	66 90                	xchg   %ax,%ax
    ce6c:	66 90                	xchg   %ax,%ax
    ce6e:	66 90                	xchg   %ax,%ax
    ce70:	66 90                	xchg   %ax,%ax
    ce72:	66 90                	xchg   %ax,%ax
    ce74:	66 90                	xchg   %ax,%ax
    ce76:	66 90                	xchg   %ax,%ax
    ce78:	66 90                	xchg   %ax,%ax
    ce7a:	66 90                	xchg   %ax,%ax
    ce7c:	66 90                	xchg   %ax,%ax
    ce7e:	66 90                	xchg   %ax,%ax

0000ce80 <remote_ifaces>:
    ce80:	90 e1 00 00 a8 e1 00 00 b4 e1 00 00 bc ce 00 00     ................
    ce90:	54 e1 00 00 a0 e2 00 00 f0 e3 00 00 a0 e4 00 00     T...............
    cea0:	40 e4 00 00 d8 e4 00 00 28 e5 00 00 40 e5 00 00     @.......(...@...
    ceb0:	50 e5 00 00 5c e5 00 00 74 e5 00 00                 P...\...t...

0000cebc <remote_audio_mixer_iface>:
    cebc:	04 00 00 00 c4 ce 00 00                             ........

0000cec4 <remote_audio_mixer_iface_ops>:
    cec4:	60 4a 00 00 50 49 00 00 a0 48 00 00 f0 48 00 00     `J..PI...H...H..
    ced4:	52 65 63 65 69 76 69 6e 67 20 73 68 61 72 65 20     Receiving share 
    cee4:	72 65 71 75 65 73 74 2e 00 46 61 69 6c 65 64 20     request..Failed 
    cef4:	74 6f 20 73 68 61 72 65 20 70 63 6d 20 62 75 66     to share pcm buf
    cf04:	66 65 72 2e 00 43 61 6c 6c 69 6e 67 20 73 68 61     fer..Calling sha
    cf14:	72 65 20 66 69 6e 61 6c 69 7a 65 2e 00 46 61 69     re finalize..Fai
    cf24:	6c 65 64 20 74 6f 20 73 68 61 72 65 20 62 75 66     led to share buf
    cf34:	66 65 72 2e 00 42 75 66 66 65 72 20 73 68 61 72     fer..Buffer shar
    cf44:	65 64 20 77 69 74 68 20 73 69 7a 65 20 25 7a 75     ed with size %zu
    cf54:	2e 00 46 61 69 6c 65 64 20 74 6f 20 73 65 74 20     ..Failed to set 
    cf64:	65 76 65 6e 74 20 63 61 6c 6c 62 61 63 6b 2e 00     event callback..
    cf74:	55 4e 4b 4e 4f 57 4e 20 43 41 50 00 55 4e 4b 4e     UNKNOWN CAP.UNKN
    cf84:	4f 57 4e 20 45 56 45 4e 54 00 61 75 64 69 6f 2d     OWN EVENT.audio-
    cf94:	70 63 6d 00 67 65 6e 65 72 69 63 2f 72 65 6d 6f     pcm.generic/remo
    cfa4:	74 65 5f 61 75 64 69 6f 5f 70 63 6d 2e 63 00 50     te_audio_pcm.c.P
    cfb4:	4c 41 59 42 41 43 4b 20 53 54 41 52 54 45 44 00     LAYBACK STARTED.
    cfc4:	43 41 50 54 55 52 45 20 53 54 41 52 54 45 44 00     CAPTURE STARTED.
    cfd4:	46 52 41 47 4d 45 4e 54 20 50 4c 41 59 45 44 00     FRAGMENT PLAYED.
    cfe4:	46 52 41 47 4d 45 4e 54 20 43 41 50 54 55 52 45     FRAGMENT CAPTURE
    cff4:	44 00 50 4c 41 59 42 41 43 4b 20 54 45 52 4d 49     D.PLAYBACK TERMI
    d004:	4e 41 54 45 44 00 43 41 50 54 55 52 45 20 54 45     NATED.CAPTURE TE
    d014:	52 4d 49 4e 41 54 45 44 00 43 41 50 54 55 52 45     RMINATED.CAPTURE
    d024:	00 50 4c 41 59 42 41 43 4b 00 4d 41 58 49 4d 55     .PLAYBACK.MAXIMU
    d034:	4d 20 42 55 46 46 45 52 20 53 49 5a 45 00 4b 4e     M BUFFER SIZE.KN
    d044:	4f 57 53 20 42 55 46 46 45 52 20 50 4f 53 49 54     OWS BUFFER POSIT
    d054:	49 4f 4e 00 46 52 41 47 4d 45 4e 54 20 49 4e 54     ION.FRAGMENT INT
    d064:	45 52 52 55 50 54 53 00 4d 49 4e 49 4d 55 4d 20     ERRUPTS.MINIMUM 
    d074:	46 52 41 47 4d 45 4e 54 20 53 49 5a 45 00 4d 41     FRAGMENT SIZE.MA
    d084:	58 49 4d 55 4d 20 46 52 41 47 4d 45 4e 54 20 53     XIMUM FRAGMENT S
    d094:	49 5a 45 00 43 68 65 63 6b 69 6e 67 20 72 65 71     IZE.Checking req
    d0a4:	75 65 73 74 65 64 20 73 68 61 72 65 20 73 69 7a     uested share siz
    d0b4:	65 2e 00 00 49 6e 63 6f 72 72 65 63 74 20 70 63     e...Incorrect pc
    d0c4:	6d 20 62 75 66 66 65 72 20 73 69 7a 65 20 72 65     m buffer size re
    d0d4:	71 75 65 73 74 65 64 2e 00 00 00 00 46 61 69 6c     quested.....Fail
    d0e4:	65 64 20 74 6f 20 63 72 65 61 74 65 20 65 76 65     ed to create eve
    d0f4:	6e 74 20 63 61 6c 6c 62 61 63 6b 00 28 66 6f 72     nt callback.(for
    d104:	6d 61 74 20 26 20 55 49 4e 54 31 36 5f 4d 41 58     mat & UINT16_MAX
    d114:	29 20 3d 3d 20 66 6f 72 6d 61 74 00                 ) == format.

0000d120 <events.2836>:
	...
    e120:	b3 cf 00 00 c4 cf 00 00 d4 cf 00 00 e4 cf 00 00     ................
    e130:	f6 cf 00 00 0a d0 00 00                             ........

0000e138 <caps.2832>:
    e138:	1d d0 00 00 25 d0 00 00 2e d0 00 00 42 d0 00 00     ....%.......B...
    e148:	58 d0 00 00 6c d0 00 00 82 d0 00 00                 X...l.......

0000e154 <remote_audio_pcm_iface>:
    e154:	0c 00 00 00 60 e1 00 00 00 00 00 00                 ....`.......

0000e160 <remote_audio_pcm_iface_ops>:
    e160:	b0 53 00 00 70 50 00 00 d0 52 00 00 b0 4f 00 00     .S..pP...R...O..
    e170:	60 52 00 00 d0 50 00 00 60 4f 00 00 20 50 00 00     `R...P..`O.. P..
    e180:	00 4f 00 00 a0 4e 00 00 40 4e 00 00 e0 4d 00 00     .O...N..@N...M..

0000e190 <remote_hw_res_iface>:
    e190:	04 00 00 00 98 e1 00 00                             ........

0000e198 <remote_hw_res_iface_ops>:
    e198:	40 60 00 00 70 5f 00 00 00 5f 00 00 e0 5f 00 00     @`..p_..._..._..

0000e1a8 <remote_pio_window_iface>:
    e1a8:	01 00 00 00 b0 e1 00 00                             ........

0000e1b0 <remote_pio_window_iface_ops>:
    e1b0:	e0 60 00 00                                         .`..

0000e1b4 <remote_char_dev_iface>:
    e1b4:	02 00 00 00 bc e1 00 00                             ........

0000e1bc <remote_char_dev_iface_ops>:
    e1bc:	70 62 00 00 80 61 00 00 67 65 6e 65 72 69 63 2f     pb...a..generic/
    e1cc:	72 65 6d 6f 74 65 5f 6e 69 63 2e 63 00 6e 69 63     remote_nic.c.nic
    e1dc:	5f 69 66 61 63 65 2d 3e 67 65 74 5f 61 64 64 72     _iface->get_addr
    e1ec:	65 73 73 00 6e 69 63 5f 69 66 61 63 65 2d 3e 73     ess.nic_iface->s
    e1fc:	65 74 5f 73 74 61 74 65 00 6e 69 63 5f 69 66 61     et_state.nic_ifa
    e20c:	63 65 2d 3e 63 61 6c 6c 62 61 63 6b 5f 63 72 65     ce->callback_cre
    e21c:	61 74 65 00 6e 69 63 5f 69 66 61 63 65 2d 3e 67     ate.nic_iface->g
    e22c:	65 74 5f 73 74 61 74 65 00 6e 69 63 5f 69 66 61     et_state.nic_ifa
    e23c:	63 65 2d 3e 73 65 6e 64 5f 66 72 61 6d 65 00 73     ce->send_frame.s
    e24c:	74 61 74 73 00 64 65 76 69 63 65 5f 69 6e 66 6f     tats.device_info
    e25c:	00 63 61 62 6c 65 5f 73 74 61 74 65 00 6d 6f 64     .cable_state.mod
    e26c:	65 00 6d 61 73 6b 00 69 64 00 63 6f 75 6e 74 00     e.mask.id.count.
    e27c:	6d 61 74 63 68 65 64 5f 74 79 70 65 00 73 75 70     matched_type.sup
    e28c:	70 6f 72 74 65 64 00 61 63 74 69 76 65 00 66 90     ported.active.f.
    e29c:	66 90 66 90                                         f.f.

0000e2a0 <remote_nic_iface>:
    e2a0:	29 00 00 00 c0 e2 00 00 00 00 00 00 00 00 00 00     )...............
	...

0000e2c0 <remote_nic_iface_ops>:
    e2c0:	10 83 00 00 70 82 00 00 c0 82 00 00 20 82 00 00     ....p....... ...
    e2d0:	40 71 00 00 a0 6a 00 00 60 70 00 00 60 6f 00 00     @q...j..`p..`o..
    e2e0:	c0 6d 00 00 30 81 00 00 30 68 00 00 e0 67 00 00     .m..0...0h...g..
    e2f0:	90 67 00 00 a0 81 00 00 40 67 00 00 d0 80 00 00     .g......@g......
    e300:	e0 66 00 00 10 7f 00 00 b0 7d 00 00 00 7c 00 00     .f.......}...|..
    e310:	a0 7a 00 00 60 6d 00 00 90 66 00 00 00 6d 00 00     .z..`m...f...m..
    e320:	40 66 00 00 20 79 00 00 d0 77 00 00 80 6e 00 00     @f.. y...w...n..
    e330:	80 69 00 00 d0 65 00 00 60 76 00 00 80 65 00 00     .i...e..`v...e..
    e340:	e0 74 00 00 60 73 00 00 a0 6c 00 00 20 72 00 00     .t..`s...l.. r..
    e350:	20 6e 00 00 20 65 00 00 90 6b 00 00 80 68 00 00      n.. e...k...h..
    e360:	d0 64 00 00 67 65 6e 65 72 69 63 2f 72 65 6d 6f     .d..generic/remo
    e370:	74 65 5f 69 65 65 65 38 30 32 31 31 2e 63 00 69     te_ieee80211.c.i
    e380:	65 65 65 38 30 32 31 31 5f 69 66 61 63 65 2d 3e     eee80211_iface->
    e390:	63 6f 6e 6e 65 63 74 00 69 65 65 65 38 30 32 31     connect.ieee8021
    e3a0:	31 5f 69 66 61 63 65 2d 3e 64 69 73 63 6f 6e 6e     1_iface->disconn
    e3b0:	65 63 74 00 72 65 73 75 6c 74 73 00 73 73 69 64     ect.results.ssid
    e3c0:	5f 73 74 61 72 74 00 64 68 63 70 00 69 65 65 65     _start.dhcp.ieee
    e3d0:	38 30 32 31 31 5f 69 66 61 63 65 2d 3e 67 65 74     80211_iface->get
    e3e0:	5f 73 63 61 6e 5f 72 65 73 75 6c 74 73 00 66 90     _scan_results.f.

0000e3f0 <remote_ieee80211_iface>:
    e3f0:	03 00 00 00 f8 e3 00 00                             ........

0000e3f8 <remote_ieee80211_iface_ops>:
    e3f8:	50 9b 00 00 70 9a 00 00 60 9c 00 00 67 65 6e 65     P...p...`...gene
    e408:	72 69 63 2f 72 65 6d 6f 74 65 5f 75 73 62 2e 63     ric/remote_usb.c
    e418:	00 66 75 6e 00 69 66 61 63 65 00 63 61 6c 6c 00     .fun.iface.call.
    e428:	66 90 66 90 66 90 66 90 66 90 66 90 66 90 66 90     f.f.f.f.f.f.f.f.
    e438:	66 90 66 90 66 90 66 90                             f.f.f.f.

0000e440 <remote_usb_iface>:
    e440:	0a 00 00 00 60 e4 00 00 00 00 00 00 00 00 00 00     ....`...........
	...

0000e460 <remote_usb_iface_ops>:
    e460:	80 a3 00 00 10 a3 00 00 c0 a2 00 00 70 a2 00 00     ............p...
    e470:	20 a2 00 00 d0 a1 00 00 50 a1 00 00 00 a1 00 00      .......P.......
    e480:	50 a6 00 00 d0 a4 00 00 67 65 6e 65 72 69 63 2f     P.......generic/
    e490:	72 65 6d 6f 74 65 5f 70 63 69 2e 63 00 66 90 90     remote_pci.c.f..

0000e4a0 <remote_pci_iface>:
    e4a0:	06 00 00 00 a8 e4 00 00                             ........

0000e4a8 <remote_pci_iface_ops>:
    e4a8:	10 af 00 00 90 ae 00 00 10 ae 00 00 70 ad 00 00     ............p...
    e4b8:	e0 ac 00 00 60 ac 00 00 67 65 6e 65 72 69 63 2f     ....`...generic/
    e4c8:	72 65 6d 6f 74 65 5f 75 73 62 68 63 2e 63 00 90     remote_usbhc.c..

0000e4d8 <remote_usbhc_iface>:
    e4d8:	02 00 00 00 e0 e4 00 00                             ........

0000e4e0 <remote_usbhc_iface_ops>:
    e4e0:	30 b4 00 00 a0 b2 00 00 72 65 6d 6f 74 65 5f 75     0.......remote_u
    e4f0:	73 62 68 69 64 5f 67 65 74 5f 65 76 65 6e 74 5f     sbhid_get_event_
    e500:	6c 65 6e 67 74 68 28 29 0a 00 00 00 47 65 74 20     length()....Get 
    e510:	65 76 65 6e 74 20 6c 65 6e 67 74 68 20 6e 6f 74     event length not
    e520:	20 73 65 74 21 0a 00 90                              set!...

0000e528 <remote_usbhid_iface>:
    e528:	04 00 00 00 30 e5 00 00                             ....0...

0000e530 <remote_usbhid_iface_ops>:
    e530:	d0 ba 00 00 60 b9 00 00 10 b9 00 00 b0 b7 00 00     ....`...........

0000e540 <remote_clock_dev_iface>:
    e540:	02 00 00 00 48 e5 00 00                             ....H...

0000e548 <remote_clock_dev_iface_ops>:
    e548:	50 bf 00 00 b0 be 00 00                             P.......

0000e550 <remote_led_dev_iface>:
    e550:	01 00 00 00 58 e5 00 00                             ....X...

0000e558 <remote_led_dev_iface_ops>:
    e558:	20 c0 00 00                                          ...

0000e55c <remote_battery_dev_iface>:
    e55c:	02 00 00 00 64 e5 00 00                             ....d...

0000e564 <remote_battery_dev_iface_ops>:
    e564:	e0 c0 00 00 70 c0 00 00 61 68 63 69 5f 00 66 90     ....p...ahci_.f.

0000e574 <remote_ahci_iface>:
    e574:	05 00 00 00 7c e5 00 00                             ....|...

0000e57c <remote_ahci_iface_ops>:
    e57c:	f0 c3 00 00 80 c3 00 00 10 c3 00 00 90 c2 00 00     ................
    e58c:	10 c2 00 00                                         ....

Disassembly of section .plt:

0000e870 <pio_enable@plt-0x10>:
    e870:	ff 35 f0 0d 01 00    	pushl  0x10df0
    e876:	ff 25 f4 0d 01 00    	jmp    *0x10df4
    e87c:	00 00                	add    %al,(%eax)
	...

0000e880 <pio_enable@plt>:
    e880:	ff 25 f8 0d 01 00    	jmp    *0x10df8
    e886:	68 00 00 00 00       	push   $0x0
    e88b:	e9 e0 ff ff ff       	jmp    e870 <remote_ahci_iface_ops+0x2f4>

0000e890 <__main@plt>:
    e890:	ff 25 fc 0d 01 00    	jmp    *0x10dfc
    e896:	68 08 00 00 00       	push   $0x8
    e89b:	e9 d0 ff ff ff       	jmp    e870 <remote_ahci_iface_ops+0x2f4>

0000e8a0 <loc_category_get_id@plt>:
    e8a0:	ff 25 00 0e 01 00    	jmp    *0x10e00
    e8a6:	68 10 00 00 00       	push   $0x10
    e8ab:	e9 c0 ff ff ff       	jmp    e870 <remote_ahci_iface_ops+0x2f4>

0000e8b0 <devman_device_connect@plt>:
    e8b0:	ff 25 04 0e 01 00    	jmp    *0x10e04
    e8b6:	68 18 00 00 00       	push   $0x18
    e8bb:	e9 b0 ff ff ff       	jmp    e870 <remote_ahci_iface_ops+0x2f4>

0000e8c0 <task_retval@plt>:
    e8c0:	ff 25 08 0e 01 00    	jmp    *0x10e08
    e8c6:	68 20 00 00 00       	push   $0x20
    e8cb:	e9 a0 ff ff ff       	jmp    e870 <remote_ahci_iface_ops+0x2f4>

0000e8d0 <loc_service_connect@plt>:
    e8d0:	ff 25 0c 0e 01 00    	jmp    *0x10e0c
    e8d6:	68 28 00 00 00       	push   $0x28
    e8db:	e9 90 ff ff ff       	jmp    e870 <remote_ahci_iface_ops+0x2f4>

0000e8e0 <inetcfg_sroute_get@plt>:
    e8e0:	ff 25 10 0e 01 00    	jmp    *0x10e10
    e8e6:	68 30 00 00 00       	push   $0x30
    e8eb:	e9 80 ff ff ff       	jmp    e870 <remote_ahci_iface_ops+0x2f4>

0000e8f0 <printf@plt>:
    e8f0:	ff 25 14 0e 01 00    	jmp    *0x10e14
    e8f6:	68 38 00 00 00       	push   $0x38
    e8fb:	e9 70 ff ff ff       	jmp    e870 <remote_ahci_iface_ops+0x2f4>

0000e900 <async_hangup@plt>:
    e900:	ff 25 18 0e 01 00    	jmp    *0x10e18
    e906:	68 40 00 00 00       	push   $0x40
    e90b:	e9 60 ff ff ff       	jmp    e870 <remote_ahci_iface_ops+0x2f4>

0000e910 <async_wait_for@plt>:
    e910:	ff 25 1c 0e 01 00    	jmp    *0x10e1c
    e916:	68 48 00 00 00       	push   $0x48
    e91b:	e9 50 ff ff ff       	jmp    e870 <remote_ahci_iface_ops+0x2f4>

0000e920 <inetcfg_addr_get@plt>:
    e920:	ff 25 20 0e 01 00    	jmp    *0x10e20
    e926:	68 50 00 00 00       	push   $0x50
    e92b:	e9 40 ff ff ff       	jmp    e870 <remote_ahci_iface_ops+0x2f4>

0000e930 <devman_parent_device_connect@plt>:
    e930:	ff 25 24 0e 01 00    	jmp    *0x10e24
    e936:	68 58 00 00 00       	push   $0x58
    e93b:	e9 30 ff ff ff       	jmp    e870 <remote_ahci_iface_ops+0x2f4>

0000e940 <log_init@plt>:
    e940:	ff 25 28 0e 01 00    	jmp    *0x10e28
    e946:	68 60 00 00 00       	push   $0x60
    e94b:	e9 20 ff ff ff       	jmp    e870 <remote_ahci_iface_ops+0x2f4>

0000e950 <async_data_write_start@plt>:
    e950:	ff 25 2c 0e 01 00    	jmp    *0x10e2c
    e956:	68 68 00 00 00       	push   $0x68
    e95b:	e9 10 ff ff ff       	jmp    e870 <remote_ahci_iface_ops+0x2f4>

0000e960 <fibril_mutex_is_locked@plt>:
    e960:	ff 25 30 0e 01 00    	jmp    *0x10e30
    e966:	68 70 00 00 00       	push   $0x70
    e96b:	e9 00 ff ff ff       	jmp    e870 <remote_ahci_iface_ops+0x2f4>

0000e970 <devman_drv_fun_online@plt>:
    e970:	ff 25 34 0e 01 00    	jmp    *0x10e34
    e976:	68 78 00 00 00       	push   $0x78
    e97b:	e9 f0 fe ff ff       	jmp    e870 <remote_ahci_iface_ops+0x2f4>

0000e980 <async_data_read_finalize@plt>:
    e980:	ff 25 38 0e 01 00    	jmp    *0x10e38
    e986:	68 80 00 00 00       	push   $0x80
    e98b:	e9 e0 fe ff ff       	jmp    e870 <remote_ahci_iface_ops+0x2f4>

0000e990 <async_share_in_start@plt>:
    e990:	ff 25 3c 0e 01 00    	jmp    *0x10e3c
    e996:	68 88 00 00 00       	push   $0x88
    e99b:	e9 d0 fe ff ff       	jmp    e870 <remote_ahci_iface_ops+0x2f4>

0000e9a0 <memcpy@plt>:
    e9a0:	ff 25 40 0e 01 00    	jmp    *0x10e40
    e9a6:	68 90 00 00 00       	push   $0x90
    e9ab:	e9 c0 fe ff ff       	jmp    e870 <remote_ahci_iface_ops+0x2f4>

0000e9b0 <malloc@plt>:
    e9b0:	ff 25 44 0e 01 00    	jmp    *0x10e44
    e9b6:	68 98 00 00 00       	push   $0x98
    e9bb:	e9 b0 fe ff ff       	jmp    e870 <remote_ahci_iface_ops+0x2f4>

0000e9c0 <devman_add_device_to_category@plt>:
    e9c0:	ff 25 48 0e 01 00    	jmp    *0x10e48
    e9c6:	68 a0 00 00 00       	push   $0xa0
    e9cb:	e9 a0 fe ff ff       	jmp    e870 <remote_ahci_iface_ops+0x2f4>

0000e9d0 <async_share_out_receive@plt>:
    e9d0:	ff 25 4c 0e 01 00    	jmp    *0x10e4c
    e9d6:	68 a8 00 00 00       	push   $0xa8
    e9db:	e9 90 fe ff ff       	jmp    e870 <remote_ahci_iface_ops+0x2f4>

0000e9e0 <async_req_fast@plt>:
    e9e0:	ff 25 50 0e 01 00    	jmp    *0x10e50
    e9e6:	68 b0 00 00 00       	push   $0xb0
    e9eb:	e9 80 fe ff ff       	jmp    e870 <remote_ahci_iface_ops+0x2f4>

0000e9f0 <async_answer_0@plt>:
    e9f0:	ff 25 54 0e 01 00    	jmp    *0x10e54
    e9f6:	68 b8 00 00 00       	push   $0xb8
    e9fb:	e9 70 fe ff ff       	jmp    e870 <remote_ahci_iface_ops+0x2f4>

0000ea00 <async_send_fast@plt>:
    ea00:	ff 25 58 0e 01 00    	jmp    *0x10e58
    ea06:	68 c0 00 00 00       	push   $0xc0
    ea0b:	e9 60 fe ff ff       	jmp    e870 <remote_ahci_iface_ops+0x2f4>

0000ea10 <bd_conn@plt>:
    ea10:	ff 25 5c 0e 01 00    	jmp    *0x10e5c
    ea16:	68 c8 00 00 00       	push   $0xc8
    ea1b:	e9 50 fe ff ff       	jmp    e870 <remote_ahci_iface_ops+0x2f4>

0000ea20 <__umoddi3@plt>:
    ea20:	ff 25 60 0e 01 00    	jmp    *0x10e60
    ea26:	68 d0 00 00 00       	push   $0xd0
    ea2b:	e9 40 fe ff ff       	jmp    e870 <remote_ahci_iface_ops+0x2f4>

0000ea30 <__udivdi3@plt>:
    ea30:	ff 25 64 0e 01 00    	jmp    *0x10e64
    ea36:	68 d8 00 00 00       	push   $0xd8
    ea3b:	e9 30 fe ff ff       	jmp    e870 <remote_ahci_iface_ops+0x2f4>

0000ea40 <async_data_read@plt>:
    ea40:	ff 25 68 0e 01 00    	jmp    *0x10e68
    ea46:	68 e0 00 00 00       	push   $0xe0
    ea4b:	e9 20 fe ff ff       	jmp    e870 <remote_ahci_iface_ops+0x2f4>

0000ea50 <log_msgv@plt>:
    ea50:	ff 25 6c 0e 01 00    	jmp    *0x10e6c
    ea56:	68 e8 00 00 00       	push   $0xe8
    ea5b:	e9 10 fe ff ff       	jmp    e870 <remote_ahci_iface_ops+0x2f4>

0000ea60 <devman_add_function@plt>:
    ea60:	ff 25 70 0e 01 00    	jmp    *0x10e70
    ea66:	68 f0 00 00 00       	push   $0xf0
    ea6b:	e9 00 fe ff ff       	jmp    e870 <remote_ahci_iface_ops+0x2f4>

0000ea70 <pio_read_8@plt>:
    ea70:	ff 25 74 0e 01 00    	jmp    *0x10e74
    ea76:	68 f8 00 00 00       	push   $0xf8
    ea7b:	e9 f0 fd ff ff       	jmp    e870 <remote_ahci_iface_ops+0x2f4>

0000ea80 <async_exchange_end@plt>:
    ea80:	ff 25 78 0e 01 00    	jmp    *0x10e78
    ea86:	68 00 01 00 00       	push   $0x100
    ea8b:	e9 e0 fd ff ff       	jmp    e870 <remote_ahci_iface_ops+0x2f4>

0000ea90 <assert_abort@plt>:
    ea90:	ff 25 7c 0e 01 00    	jmp    *0x10e7c
    ea96:	68 08 01 00 00       	push   $0x108
    ea9b:	e9 d0 fd ff ff       	jmp    e870 <remote_ahci_iface_ops+0x2f4>

0000eaa0 <inetcfg_get_sroute_list@plt>:
    eaa0:	ff 25 80 0e 01 00    	jmp    *0x10e80
    eaa6:	68 10 01 00 00       	push   $0x110
    eaab:	e9 c0 fd ff ff       	jmp    e870 <remote_ahci_iface_ops+0x2f4>

0000eab0 <calloc@plt>:
    eab0:	ff 25 84 0e 01 00    	jmp    *0x10e84
    eab6:	68 18 01 00 00       	push   $0x118
    eabb:	e9 b0 fd ff ff       	jmp    e870 <remote_ahci_iface_ops+0x2f4>

0000eac0 <pio_write_16@plt>:
    eac0:	ff 25 88 0e 01 00    	jmp    *0x10e88
    eac6:	68 20 01 00 00       	push   $0x120
    eacb:	e9 a0 fd ff ff       	jmp    e870 <remote_ahci_iface_ops+0x2f4>

0000ead0 <inetcfg_addr_delete@plt>:
    ead0:	ff 25 8c 0e 01 00    	jmp    *0x10e8c
    ead6:	68 28 01 00 00       	push   $0x128
    eadb:	e9 90 fd ff ff       	jmp    e870 <remote_ahci_iface_ops+0x2f4>

0000eae0 <devman_remove_function@plt>:
    eae0:	ff 25 90 0e 01 00    	jmp    *0x10e90
    eae6:	68 30 01 00 00       	push   $0x130
    eaeb:	e9 80 fd ff ff       	jmp    e870 <remote_ahci_iface_ops+0x2f4>

0000eaf0 <pio_write_8@plt>:
    eaf0:	ff 25 94 0e 01 00    	jmp    *0x10e94
    eaf6:	68 38 01 00 00       	push   $0x138
    eafb:	e9 70 fd ff ff       	jmp    e870 <remote_ahci_iface_ops+0x2f4>

0000eb00 <async_share_out_finalize@plt>:
    eb00:	ff 25 98 0e 01 00    	jmp    *0x10e98
    eb06:	68 40 01 00 00       	push   $0x140
    eb0b:	e9 60 fd ff ff       	jmp    e870 <remote_ahci_iface_ops+0x2f4>

0000eb10 <str_test_prefix@plt>:
    eb10:	ff 25 9c 0e 01 00    	jmp    *0x10e9c
    eb16:	68 48 01 00 00       	push   $0x148
    eb1b:	e9 50 fd ff ff       	jmp    e870 <remote_ahci_iface_ops+0x2f4>

0000eb20 <bd_srvs_init@plt>:
    eb20:	ff 25 a0 0e 01 00    	jmp    *0x10ea0
    eb26:	68 50 01 00 00       	push   $0x150
    eb2b:	e9 40 fd ff ff       	jmp    e870 <remote_ahci_iface_ops+0x2f4>

0000eb30 <async_answer_2@plt>:
    eb30:	ff 25 a4 0e 01 00    	jmp    *0x10ea4
    eb36:	68 58 01 00 00       	push   $0x158
    eb3b:	e9 30 fd ff ff       	jmp    e870 <remote_ahci_iface_ops+0x2f4>

0000eb40 <fibril_mutex_unlock@plt>:
    eb40:	ff 25 a8 0e 01 00    	jmp    *0x10ea8
    eb46:	68 60 01 00 00       	push   $0x160
    eb4b:	e9 20 fd ff ff       	jmp    e870 <remote_ahci_iface_ops+0x2f4>

0000eb50 <async_callback_receive_start@plt>:
    eb50:	ff 25 ac 0e 01 00    	jmp    *0x10eac
    eb56:	68 68 01 00 00       	push   $0x168
    eb5b:	e9 10 fd ff ff       	jmp    e870 <remote_ahci_iface_ops+0x2f4>

0000eb60 <str_dup@plt>:
    eb60:	ff 25 b0 0e 01 00    	jmp    *0x10eb0
    eb66:	68 70 01 00 00       	push   $0x170
    eb6b:	e9 00 fd ff ff       	jmp    e870 <remote_ahci_iface_ops+0x2f4>

0000eb70 <fibril_mutex_initialize@plt>:
    eb70:	ff 25 b4 0e 01 00    	jmp    *0x10eb4
    eb76:	68 78 01 00 00       	push   $0x178
    eb7b:	e9 f0 fc ff ff       	jmp    e870 <remote_ahci_iface_ops+0x2f4>

0000eb80 <async_answer_4@plt>:
    eb80:	ff 25 b8 0e 01 00    	jmp    *0x10eb8
    eb86:	68 80 01 00 00       	push   $0x180
    eb8b:	e9 e0 fc ff ff       	jmp    e870 <remote_ahci_iface_ops+0x2f4>

0000eb90 <inetcfg_get_addr_list@plt>:
    eb90:	ff 25 bc 0e 01 00    	jmp    *0x10ebc
    eb96:	68 88 01 00 00       	push   $0x188
    eb9b:	e9 d0 fc ff ff       	jmp    e870 <remote_ahci_iface_ops+0x2f4>

0000eba0 <async_send_slow@plt>:
    eba0:	ff 25 c0 0e 01 00    	jmp    *0x10ec0
    eba6:	68 90 01 00 00       	push   $0x190
    ebab:	e9 c0 fc ff ff       	jmp    e870 <remote_ahci_iface_ops+0x2f4>

0000ebb0 <inetcfg_link_get@plt>:
    ebb0:	ff 25 c4 0e 01 00    	jmp    *0x10ec4
    ebb6:	68 98 01 00 00       	push   $0x198
    ebbb:	e9 b0 fc ff ff       	jmp    e870 <remote_ahci_iface_ops+0x2f4>

0000ebc0 <devman_drv_fun_offline@plt>:
    ebc0:	ff 25 c8 0e 01 00    	jmp    *0x10ec8
    ebc6:	68 a0 01 00 00       	push   $0x1a0
    ebcb:	e9 a0 fc ff ff       	jmp    e870 <remote_ahci_iface_ops+0x2f4>

0000ebd0 <pio_read_16@plt>:
    ebd0:	ff 25 cc 0e 01 00    	jmp    *0x10ecc
    ebd6:	68 a8 01 00 00       	push   $0x1a8
    ebdb:	e9 90 fc ff ff       	jmp    e870 <remote_ahci_iface_ops+0x2f4>

0000ebe0 <async_create_callback_port@plt>:
    ebe0:	ff 25 d0 0e 01 00    	jmp    *0x10ed0
    ebe6:	68 b0 01 00 00       	push   $0x1b0
    ebeb:	e9 80 fc ff ff       	jmp    e870 <remote_ahci_iface_ops+0x2f4>

0000ebf0 <dhcp_discover@plt>:
    ebf0:	ff 25 d4 0e 01 00    	jmp    *0x10ed4
    ebf6:	68 b8 01 00 00       	push   $0x1b8
    ebfb:	e9 70 fc ff ff       	jmp    e870 <remote_ahci_iface_ops+0x2f4>

0000ec00 <devman_driver_register@plt>:
    ec00:	ff 25 d8 0e 01 00    	jmp    *0x10ed8
    ec06:	68 c0 01 00 00       	push   $0x1c0
    ec0b:	e9 60 fc ff ff       	jmp    e870 <remote_ahci_iface_ops+0x2f4>

0000ec10 <memset@plt>:
    ec10:	ff 25 dc 0e 01 00    	jmp    *0x10edc
    ec16:	68 c8 01 00 00       	push   $0x1c8
    ec1b:	e9 50 fc ff ff       	jmp    e870 <remote_ahci_iface_ops+0x2f4>

0000ec20 <async_data_read_receive@plt>:
    ec20:	ff 25 e0 0e 01 00    	jmp    *0x10ee0
    ec26:	68 d0 01 00 00       	push   $0x1d0
    ec2b:	e9 40 fc ff ff       	jmp    e870 <remote_ahci_iface_ops+0x2f4>

0000ec30 <async_data_read_start@plt>:
    ec30:	ff 25 e4 0e 01 00    	jmp    *0x10ee4
    ec36:	68 d8 01 00 00       	push   $0x1d8
    ec3b:	e9 30 fc ff ff       	jmp    e870 <remote_ahci_iface_ops+0x2f4>

0000ec40 <async_share_in_receive@plt>:
    ec40:	ff 25 e8 0e 01 00    	jmp    *0x10ee8
    ec46:	68 e0 01 00 00       	push   $0x1e0
    ec4b:	e9 20 fc ff ff       	jmp    e870 <remote_ahci_iface_ops+0x2f4>

0000ec50 <async_usleep@plt>:
    ec50:	ff 25 ec 0e 01 00    	jmp    *0x10eec
    ec56:	68 e8 01 00 00       	push   $0x1e8
    ec5b:	e9 10 fc ff ff       	jmp    e870 <remote_ahci_iface_ops+0x2f4>

0000ec60 <asprintf@plt>:
    ec60:	ff 25 f0 0e 01 00    	jmp    *0x10ef0
    ec66:	68 f0 01 00 00       	push   $0x1f0
    ec6b:	e9 00 fc ff ff       	jmp    e870 <remote_ahci_iface_ops+0x2f4>

0000ec70 <inetcfg_sroute_delete@plt>:
    ec70:	ff 25 f4 0e 01 00    	jmp    *0x10ef4
    ec76:	68 f8 01 00 00       	push   $0x1f8
    ec7b:	e9 f0 fb ff ff       	jmp    e870 <remote_ahci_iface_ops+0x2f4>

0000ec80 <loc_category_get_svcs@plt>:
    ec80:	ff 25 f8 0e 01 00    	jmp    *0x10ef8
    ec86:	68 00 02 00 00       	push   $0x200
    ec8b:	e9 e0 fb ff ff       	jmp    e870 <remote_ahci_iface_ops+0x2f4>

0000ec90 <async_get_call_timeout@plt>:
    ec90:	ff 25 fc 0e 01 00    	jmp    *0x10efc
    ec96:	68 08 02 00 00       	push   $0x208
    ec9b:	e9 d0 fb ff ff       	jmp    e870 <remote_ahci_iface_ops+0x2f4>

0000eca0 <str_size@plt>:
    eca0:	ff 25 00 0f 01 00    	jmp    *0x10f00
    eca6:	68 10 02 00 00       	push   $0x210
    ecab:	e9 c0 fb ff ff       	jmp    e870 <remote_ahci_iface_ops+0x2f4>

0000ecb0 <str_lcmp@plt>:
    ecb0:	ff 25 04 0f 01 00    	jmp    *0x10f04
    ecb6:	68 18 02 00 00       	push   $0x218
    ecbb:	e9 b0 fb ff ff       	jmp    e870 <remote_ahci_iface_ops+0x2f4>

0000ecc0 <async_answer_1@plt>:
    ecc0:	ff 25 08 0f 01 00    	jmp    *0x10f08
    ecc6:	68 20 02 00 00       	push   $0x220
    eccb:	e9 a0 fb ff ff       	jmp    e870 <remote_ahci_iface_ops+0x2f4>

0000ecd0 <async_exchange_begin@plt>:
    ecd0:	ff 25 0c 0f 01 00    	jmp    *0x10f0c
    ecd6:	68 28 02 00 00       	push   $0x228
    ecdb:	e9 90 fb ff ff       	jmp    e870 <remote_ahci_iface_ops+0x2f4>

0000ece0 <str_error@plt>:
    ece0:	ff 25 10 0f 01 00    	jmp    *0x10f10
    ece6:	68 30 02 00 00       	push   $0x230
    eceb:	e9 80 fb ff ff       	jmp    e870 <remote_ahci_iface_ops+0x2f4>

0000ecf0 <devman_fun_get_handle@plt>:
    ecf0:	ff 25 14 0f 01 00    	jmp    *0x10f14
    ecf6:	68 38 02 00 00       	push   $0x238
    ecfb:	e9 70 fb ff ff       	jmp    e870 <remote_ahci_iface_ops+0x2f4>

0000ed00 <async_share_in_finalize@plt>:
    ed00:	ff 25 18 0f 01 00    	jmp    *0x10f18
    ed06:	68 40 02 00 00       	push   $0x240
    ed0b:	e9 60 fb ff ff       	jmp    e870 <remote_ahci_iface_ops+0x2f4>

0000ed10 <async_answer_3@plt>:
    ed10:	ff 25 1c 0f 01 00    	jmp    *0x10f1c
    ed16:	68 48 02 00 00       	push   $0x248
    ed1b:	e9 50 fb ff ff       	jmp    e870 <remote_ahci_iface_ops+0x2f4>

0000ed20 <async_share_out_start@plt>:
    ed20:	ff 25 20 0f 01 00    	jmp    *0x10f20
    ed26:	68 50 02 00 00       	push   $0x250
    ed2b:	e9 40 fb ff ff       	jmp    e870 <remote_ahci_iface_ops+0x2f4>

0000ed30 <async_create_port@plt>:
    ed30:	ff 25 24 0f 01 00    	jmp    *0x10f24
    ed36:	68 58 02 00 00       	push   $0x258
    ed3b:	e9 30 fb ff ff       	jmp    e870 <remote_ahci_iface_ops+0x2f4>

0000ed40 <async_data_write_finalize@plt>:
    ed40:	ff 25 28 0f 01 00    	jmp    *0x10f28
    ed46:	68 60 02 00 00       	push   $0x260
    ed4b:	e9 20 fb ff ff       	jmp    e870 <remote_ahci_iface_ops+0x2f4>

0000ed50 <async_data_write_accept@plt>:
    ed50:	ff 25 2c 0f 01 00    	jmp    *0x10f2c
    ed56:	68 68 02 00 00       	push   $0x268
    ed5b:	e9 10 fb ff ff       	jmp    e870 <remote_ahci_iface_ops+0x2f4>

0000ed60 <async_forget@plt>:
    ed60:	ff 25 30 0f 01 00    	jmp    *0x10f30
    ed66:	68 70 02 00 00       	push   $0x270
    ed6b:	e9 00 fb ff ff       	jmp    e870 <remote_ahci_iface_ops+0x2f4>

0000ed70 <hw_res_get_list_parsed@plt>:
    ed70:	ff 25 34 0f 01 00    	jmp    *0x10f34
    ed76:	68 78 02 00 00       	push   $0x278
    ed7b:	e9 f0 fa ff ff       	jmp    e870 <remote_ahci_iface_ops+0x2f4>

0000ed80 <chr_encode@plt>:
    ed80:	ff 25 38 0f 01 00    	jmp    *0x10f38
    ed86:	68 80 02 00 00       	push   $0x280
    ed8b:	e9 e0 fa ff ff       	jmp    e870 <remote_ahci_iface_ops+0x2f4>

0000ed90 <fibril_switch@plt>:
    ed90:	ff 25 3c 0f 01 00    	jmp    *0x10f3c
    ed96:	68 88 02 00 00       	push   $0x288
    ed9b:	e9 d0 fa ff ff       	jmp    e870 <remote_ahci_iface_ops+0x2f4>

0000eda0 <inetcfg_get_link_list@plt>:
    eda0:	ff 25 40 0f 01 00    	jmp    *0x10f40
    eda6:	68 90 02 00 00       	push   $0x290
    edab:	e9 c0 fa ff ff       	jmp    e870 <remote_ahci_iface_ops+0x2f4>

0000edb0 <__syscall_fast@plt>:
    edb0:	ff 25 44 0f 01 00    	jmp    *0x10f44
    edb6:	68 98 02 00 00       	push   $0x298
    edbb:	e9 b0 fa ff ff       	jmp    e870 <remote_ahci_iface_ops+0x2f4>

0000edc0 <async_set_fallback_port_handler@plt>:
    edc0:	ff 25 48 0f 01 00    	jmp    *0x10f48
    edc6:	68 a0 02 00 00       	push   $0x2a0
    edcb:	e9 a0 fa ff ff       	jmp    e870 <remote_ahci_iface_ops+0x2f4>

0000edd0 <async_data_write_receive@plt>:
    edd0:	ff 25 4c 0f 01 00    	jmp    *0x10f4c
    edd6:	68 a8 02 00 00       	push   $0x2a8
    eddb:	e9 90 fa ff ff       	jmp    e870 <remote_ahci_iface_ops+0x2f4>

0000ede0 <free@plt>:
    ede0:	ff 25 50 0f 01 00    	jmp    *0x10f50
    ede6:	68 b0 02 00 00       	push   $0x2b0
    edeb:	e9 80 fa ff ff       	jmp    e870 <remote_ahci_iface_ops+0x2f4>

0000edf0 <devman_fun_get_name@plt>:
    edf0:	ff 25 54 0f 01 00    	jmp    *0x10f54
    edf6:	68 b8 02 00 00       	push   $0x2b8
    edfb:	e9 70 fa ff ff       	jmp    e870 <remote_ahci_iface_ops+0x2f4>

0000ee00 <fibril_mutex_lock@plt>:
    ee00:	ff 25 58 0f 01 00    	jmp    *0x10f58
    ee06:	68 c0 02 00 00       	push   $0x2c0
    ee0b:	e9 60 fa ff ff       	jmp    e870 <remote_ahci_iface_ops+0x2f4>
