
ata_bd:     file format elf32-i386


Disassembly of section .init:

000010f4 <__entry>:
    10f4:	66 8c d0             	mov    %ss,%ax
    10f7:	8e d8                	mov    %eax,%ds
    10f9:	8e c0                	mov    %eax,%es
    10fb:	8e e0                	mov    %eax,%fs
    10fd:	b8 01 00 00 00       	mov    $0x1,%eax
    1102:	0f a2                	cpuid  
    1104:	0f ba e2 0b          	bt     $0xb,%edx
    1108:	73 0c                	jae    1116 <__entry+0x22>
    110a:	8d 05 60 0f 01 00    	lea    0x10f60,%eax
    1110:	c7 00 b0 ed 00 00    	movl   $0xedb0,(%eax)
    1116:	6a 00                	push   $0x0
    1118:	6a 00                	push   $0x0
    111a:	89 e5                	mov    %esp,%ebp
    111c:	57                   	push   %edi
    111d:	e8 6e d7 00 00       	call   e890 <__main@plt>

Disassembly of section .text:

00001140 <ata_bd_open>:
    1140:	55                   	push   %ebp
    1141:	31 c0                	xor    %eax,%eax
    1143:	89 e5                	mov    %esp,%ebp
    1145:	5d                   	pop    %ebp
    1146:	c3                   	ret    
    1147:	89 f6                	mov    %esi,%esi
    1149:	8d bc 27 00 00 00 00 	lea    0x0(%edi,%eiz,1),%edi

00001150 <ata_bd_close>:
    1150:	55                   	push   %ebp
    1151:	31 c0                	xor    %eax,%eax
    1153:	89 e5                	mov    %esp,%ebp
    1155:	5d                   	pop    %ebp
    1156:	c3                   	ret    
    1157:	89 f6                	mov    %esi,%esi
    1159:	8d bc 27 00 00 00 00 	lea    0x0(%edi,%eiz,1),%edi

00001160 <ata_bd_get_block_size>:
    1160:	55                   	push   %ebp
    1161:	89 e5                	mov    %esp,%ebp
    1163:	8b 45 08             	mov    0x8(%ebp),%eax
    1166:	8b 00                	mov    (%eax),%eax
    1168:	8b 40 04             	mov    0x4(%eax),%eax
    116b:	8b 50 28             	mov    0x28(%eax),%edx
    116e:	8b 45 0c             	mov    0xc(%ebp),%eax
    1171:	89 10                	mov    %edx,(%eax)
    1173:	31 c0                	xor    %eax,%eax
    1175:	5d                   	pop    %ebp
    1176:	c3                   	ret    
    1177:	89 f6                	mov    %esi,%esi
    1179:	8d bc 27 00 00 00 00 	lea    0x0(%edi,%eiz,1),%edi

00001180 <ata_bd_get_num_blocks>:
    1180:	55                   	push   %ebp
    1181:	89 e5                	mov    %esp,%ebp
    1183:	53                   	push   %ebx
    1184:	8b 45 08             	mov    0x8(%ebp),%eax
    1187:	8b 00                	mov    (%eax),%eax
    1189:	8b 40 04             	mov    0x4(%eax),%eax
    118c:	8b 58 24             	mov    0x24(%eax),%ebx
    118f:	8b 48 20             	mov    0x20(%eax),%ecx
    1192:	8b 45 0c             	mov    0xc(%ebp),%eax
    1195:	89 08                	mov    %ecx,(%eax)
    1197:	89 58 04             	mov    %ebx,0x4(%eax)
    119a:	5b                   	pop    %ebx
    119b:	31 c0                	xor    %eax,%eax
    119d:	5d                   	pop    %ebp
    119e:	c3                   	ret    
    119f:	90                   	nop

000011a0 <ata_bd_write_blocks>:
    11a0:	55                   	push   %ebp
    11a1:	89 e5                	mov    %esp,%ebp
    11a3:	57                   	push   %edi
    11a4:	56                   	push   %esi
    11a5:	53                   	push   %ebx
    11a6:	83 ec 4c             	sub    $0x4c,%esp
    11a9:	8b 55 10             	mov    0x10(%ebp),%edx
    11ac:	8b 45 0c             	mov    0xc(%ebp),%eax
    11af:	89 55 d4             	mov    %edx,-0x2c(%ebp)
    11b2:	8b 55 08             	mov    0x8(%ebp),%edx
    11b5:	89 45 d0             	mov    %eax,-0x30(%ebp)
    11b8:	8b 45 14             	mov    0x14(%ebp),%eax
    11bb:	8b 12                	mov    (%edx),%edx
    11bd:	8b 4a 04             	mov    0x4(%edx),%ecx
    11c0:	89 4d cc             	mov    %ecx,-0x34(%ebp)
    11c3:	8b 59 0c             	mov    0xc(%ecx),%ebx
    11c6:	85 db                	test   %ebx,%ebx
    11c8:	0f 85 29 05 00 00    	jne    16f7 <ata_bd_write_blocks+0x557>
    11ce:	8b 51 28             	mov    0x28(%ecx),%edx
    11d1:	0f af d0             	imul   %eax,%edx
    11d4:	3b 55 1c             	cmp    0x1c(%ebp),%edx
    11d7:	77 51                	ja     122a <ata_bd_write_blocks+0x8a>
    11d9:	85 c0                	test   %eax,%eax
    11db:	0f 84 62 03 00 00    	je     1543 <ata_bd_write_blocks+0x3a3>
    11e1:	8b 5d d0             	mov    -0x30(%ebp),%ebx
    11e4:	8b 75 d4             	mov    -0x2c(%ebp),%esi
    11e7:	89 d9                	mov    %ebx,%ecx
    11e9:	88 5d cb             	mov    %bl,-0x35(%ebp)
    11ec:	83 c1 01             	add    $0x1,%ecx
    11ef:	89 f3                	mov    %esi,%ebx
    11f1:	83 d3 00             	adc    $0x0,%ebx
    11f4:	48                   	dec    %eax
    11f5:	31 d2                	xor    %edx,%edx
    11f7:	01 c1                	add    %eax,%ecx
    11f9:	11 d3                	adc    %edx,%ebx
    11fb:	89 4d b0             	mov    %ecx,-0x50(%ebp)
    11fe:	89 5d b4             	mov    %ebx,-0x4c(%ebp)
    1201:	8d b4 26 00 00 00 00 	lea    0x0(%esi,%eiz,1),%esi
    1208:	8b 7d cc             	mov    -0x34(%ebp),%edi
    120b:	8d 45 dc             	lea    -0x24(%ebp),%eax
    120e:	8b 77 04             	mov    0x4(%edi),%esi
    1211:	52                   	push   %edx
    1212:	6a 0c                	push   $0xc
    1214:	6a 00                	push   $0x0
    1216:	50                   	push   %eax
    1217:	e8 f4 d9 00 00       	call   ec10 <memset@plt>
    121c:	8b 5d d4             	mov    -0x2c(%ebp),%ebx
    121f:	83 c4 10             	add    $0x10,%esp
    1222:	8b 4d d0             	mov    -0x30(%ebp),%ecx
    1225:	39 5f 24             	cmp    %ebx,0x24(%edi)
    1228:	73 0e                	jae    1238 <ata_bd_write_blocks+0x98>
    122a:	b8 f2 ff ff ff       	mov    $0xfffffff2,%eax
    122f:	8d 65 f4             	lea    -0xc(%ebp),%esp
    1232:	5b                   	pop    %ebx
    1233:	5e                   	pop    %esi
    1234:	5f                   	pop    %edi
    1235:	5d                   	pop    %ebp
    1236:	c3                   	ret    
    1237:	90                   	nop
    1238:	77 05                	ja     123f <ata_bd_write_blocks+0x9f>
    123a:	39 4f 20             	cmp    %ecx,0x20(%edi)
    123d:	76 eb                	jbe    122a <ata_bd_write_blocks+0x8a>
    123f:	8b 45 cc             	mov    -0x34(%ebp),%eax
    1242:	8b 48 10             	mov    0x10(%eax),%ecx
    1245:	89 4d dc             	mov    %ecx,-0x24(%ebp)
    1248:	83 f9 01             	cmp    $0x1,%ecx
    124b:	0f 84 15 04 00 00    	je     1666 <ata_bd_write_blocks+0x4c6>
    1251:	0f 82 5f 03 00 00    	jb     15b6 <ata_bd_write_blocks+0x416>
    1257:	83 f9 02             	cmp    $0x2,%ecx
    125a:	0f 85 3e 03 00 00    	jne    159e <ata_bd_write_blocks+0x3fe>
    1260:	8a 45 cb             	mov    -0x35(%ebp),%al
    1263:	8b 55 d4             	mov    -0x2c(%ebp),%edx
    1266:	88 45 e0             	mov    %al,-0x20(%ebp)
    1269:	8b 45 d0             	mov    -0x30(%ebp),%eax
    126c:	0f ac d0 08          	shrd   $0x8,%edx,%eax
    1270:	88 45 e1             	mov    %al,-0x1f(%ebp)
    1273:	8b 55 d4             	mov    -0x2c(%ebp),%edx
    1276:	8b 45 d0             	mov    -0x30(%ebp),%eax
    1279:	c6 45 e6 00          	movb   $0x0,-0x1a(%ebp)
    127d:	0f ac d0 10          	shrd   $0x10,%edx,%eax
    1281:	88 45 e2             	mov    %al,-0x1e(%ebp)
    1284:	8b 55 d4             	mov    -0x2c(%ebp),%edx
    1287:	8b 45 d0             	mov    -0x30(%ebp),%eax
    128a:	0f ac d0 18          	shrd   $0x18,%edx,%eax
    128e:	88 45 e3             	mov    %al,-0x1d(%ebp)
    1291:	8b 45 d4             	mov    -0x2c(%ebp),%eax
    1294:	88 45 e4             	mov    %al,-0x1c(%ebp)
    1297:	c1 e8 08             	shr    $0x8,%eax
    129a:	88 45 e5             	mov    %al,-0x1b(%ebp)
    129d:	31 c0                	xor    %eax,%eax
    129f:	8b 55 cc             	mov    -0x34(%ebp),%edx
    12a2:	b3 50                	mov    $0x50,%bl
    12a4:	f6 82 d0 00 00 00 01 	testb  $0x1,0xd0(%edx)
    12ab:	75 0a                	jne    12b7 <ata_bd_write_blocks+0x117>
    12ad:	b2 40                	mov    $0x40,%dl
    12af:	31 db                	xor    %ebx,%ebx
    12b1:	85 c9                	test   %ecx,%ecx
    12b3:	74 02                	je     12b7 <ata_bd_write_blocks+0x117>
    12b5:	88 d3                	mov    %dl,%bl
    12b7:	83 ec 0c             	sub    $0xc,%esp
    12ba:	09 c3                	or     %eax,%ebx
    12bc:	8d 86 bc 01 00 00    	lea    0x1bc(%esi),%eax
    12c2:	50                   	push   %eax
    12c3:	89 45 c0             	mov    %eax,-0x40(%ebp)
    12c6:	e8 35 db 00 00       	call   ee00 <fibril_mutex_lock@plt>
    12cb:	8b 46 0c             	mov    0xc(%esi),%eax
    12ce:	83 c0 07             	add    $0x7,%eax
    12d1:	89 04 24             	mov    %eax,(%esp)
    12d4:	e8 97 d7 00 00       	call   ea70 <pio_read_8@plt>
    12d9:	83 c4 10             	add    $0x10,%esp
    12dc:	84 c0                	test   %al,%al
    12de:	79 22                	jns    1302 <ata_bd_write_blocks+0x162>
    12e0:	bf 63 00 00 00       	mov    $0x63,%edi
    12e5:	8d 76 00             	lea    0x0(%esi),%esi
    12e8:	83 ec 0c             	sub    $0xc,%esp
    12eb:	8b 46 0c             	mov    0xc(%esi),%eax
    12ee:	83 c0 07             	add    $0x7,%eax
    12f1:	50                   	push   %eax
    12f2:	e8 79 d7 00 00       	call   ea70 <pio_read_8@plt>
    12f7:	83 c4 10             	add    $0x10,%esp
    12fa:	84 c0                	test   %al,%al
    12fc:	0f 88 a6 00 00 00    	js     13a8 <ata_bd_write_blocks+0x208>
    1302:	52                   	push   %edx
    1303:	52                   	push   %edx
    1304:	8b 46 0c             	mov    0xc(%esi),%eax
    1307:	83 c0 06             	add    $0x6,%eax
    130a:	0f be db             	movsbl %bl,%ebx
    130d:	53                   	push   %ebx
    130e:	50                   	push   %eax
    130f:	e8 dc d7 00 00       	call   eaf0 <pio_write_8@plt>
    1314:	8b 46 0c             	mov    0xc(%esi),%eax
    1317:	83 c0 07             	add    $0x7,%eax
    131a:	bb 64 00 00 00       	mov    $0x64,%ebx
    131f:	89 04 24             	mov    %eax,(%esp)
    1322:	e8 49 d7 00 00       	call   ea70 <pio_read_8@plt>
    1327:	83 c4 10             	add    $0x10,%esp
    132a:	eb 19                	jmp    1345 <ata_bd_write_blocks+0x1a5>
    132c:	8d 74 26 00          	lea    0x0(%esi,%eiz,1),%esi
    1330:	4b                   	dec    %ebx
    1331:	74 1a                	je     134d <ata_bd_write_blocks+0x1ad>
    1333:	83 ec 0c             	sub    $0xc,%esp
    1336:	8b 46 0c             	mov    0xc(%esi),%eax
    1339:	83 c0 07             	add    $0x7,%eax
    133c:	50                   	push   %eax
    133d:	e8 2e d7 00 00       	call   ea70 <pio_read_8@plt>
    1342:	83 c4 10             	add    $0x10,%esp
    1345:	84 c0                	test   %al,%al
    1347:	78 e7                	js     1330 <ata_bd_write_blocks+0x190>
    1349:	a8 40                	test   $0x40,%al
    134b:	74 e3                	je     1330 <ata_bd_write_blocks+0x190>
    134d:	bb e8 03 00 00       	mov    $0x3e8,%ebx
    1352:	eb 16                	jmp    136a <ata_bd_write_blocks+0x1ca>
    1354:	8d 74 26 00          	lea    0x0(%esi,%eiz,1),%esi
    1358:	83 ec 0c             	sub    $0xc,%esp
    135b:	8b 46 0c             	mov    0xc(%esi),%eax
    135e:	83 c0 07             	add    $0x7,%eax
    1361:	50                   	push   %eax
    1362:	e8 09 d7 00 00       	call   ea70 <pio_read_8@plt>
    1367:	83 c4 10             	add    $0x10,%esp
    136a:	84 c0                	test   %al,%al
    136c:	78 08                	js     1376 <ata_bd_write_blocks+0x1d6>
    136e:	a8 40                	test   $0x40,%al
    1370:	0f 85 82 00 00 00    	jne    13f8 <ata_bd_write_blocks+0x258>
    1376:	83 ec 0c             	sub    $0xc,%esp
    1379:	68 10 27 00 00       	push   $0x2710
    137e:	e8 cd d8 00 00       	call   ec50 <async_usleep@plt>
    1383:	83 c4 10             	add    $0x10,%esp
    1386:	4b                   	dec    %ebx
    1387:	75 cf                	jne    1358 <ata_bd_write_blocks+0x1b8>
    1389:	83 ec 0c             	sub    $0xc,%esp
    138c:	8b 45 c0             	mov    -0x40(%ebp),%eax
    138f:	50                   	push   %eax
    1390:	e8 ab d7 00 00       	call   eb40 <fibril_mutex_unlock@plt>
    1395:	83 c4 10             	add    $0x10,%esp
    1398:	8d 65 f4             	lea    -0xc(%ebp),%esp
    139b:	b8 f6 fe ff ff       	mov    $0xfffffef6,%eax
    13a0:	5b                   	pop    %ebx
    13a1:	5e                   	pop    %esi
    13a2:	5f                   	pop    %edi
    13a3:	5d                   	pop    %ebp
    13a4:	c3                   	ret    
    13a5:	8d 76 00             	lea    0x0(%esi),%esi
    13a8:	4f                   	dec    %edi
    13a9:	0f 85 39 ff ff ff    	jne    12e8 <ata_bd_write_blocks+0x148>
    13af:	83 ec 0c             	sub    $0xc,%esp
    13b2:	bf 63 00 00 00       	mov    $0x63,%edi
    13b7:	68 10 27 00 00       	push   $0x2710
    13bc:	e8 8f d8 00 00       	call   ec50 <async_usleep@plt>
    13c1:	83 c4 10             	add    $0x10,%esp
    13c4:	83 ec 0c             	sub    $0xc,%esp
    13c7:	8b 46 0c             	mov    0xc(%esi),%eax
    13ca:	83 c0 07             	add    $0x7,%eax
    13cd:	50                   	push   %eax
    13ce:	e8 9d d6 00 00       	call   ea70 <pio_read_8@plt>
    13d3:	83 c4 10             	add    $0x10,%esp
    13d6:	84 c0                	test   %al,%al
    13d8:	0f 89 24 ff ff ff    	jns    1302 <ata_bd_write_blocks+0x162>
    13de:	83 ec 0c             	sub    $0xc,%esp
    13e1:	68 10 27 00 00       	push   $0x2710
    13e6:	e8 65 d8 00 00       	call   ec50 <async_usleep@plt>
    13eb:	83 c4 10             	add    $0x10,%esp
    13ee:	4f                   	dec    %edi
    13ef:	75 d3                	jne    13c4 <ata_bd_write_blocks+0x224>
    13f1:	eb 96                	jmp    1389 <ata_bd_write_blocks+0x1e9>
    13f3:	90                   	nop
    13f4:	8d 74 26 00          	lea    0x0(%esi,%eiz,1),%esi
    13f8:	8b 46 0c             	mov    0xc(%esi),%eax
    13fb:	83 7d dc 02          	cmpl   $0x2,-0x24(%ebp)
    13ff:	8d 50 02             	lea    0x2(%eax),%edx
    1402:	0f 84 93 02 00 00    	je     169b <ata_bd_write_blocks+0x4fb>
    1408:	8d 78 03             	lea    0x3(%eax),%edi
    140b:	8d 58 04             	lea    0x4(%eax),%ebx
    140e:	83 c0 05             	add    $0x5,%eax
    1411:	89 45 b8             	mov    %eax,-0x48(%ebp)
    1414:	50                   	push   %eax
    1415:	50                   	push   %eax
    1416:	6a 01                	push   $0x1
    1418:	52                   	push   %edx
    1419:	e8 d2 d6 00 00       	call   eaf0 <pio_write_8@plt>
    141e:	58                   	pop    %eax
    141f:	31 c0                	xor    %eax,%eax
    1421:	5a                   	pop    %edx
    1422:	8a 45 e0             	mov    -0x20(%ebp),%al
    1425:	50                   	push   %eax
    1426:	57                   	push   %edi
    1427:	e8 c4 d6 00 00       	call   eaf0 <pio_write_8@plt>
    142c:	31 c0                	xor    %eax,%eax
    142e:	8a 45 e1             	mov    -0x1f(%ebp),%al
    1431:	59                   	pop    %ecx
    1432:	5f                   	pop    %edi
    1433:	50                   	push   %eax
    1434:	53                   	push   %ebx
    1435:	e8 b6 d6 00 00       	call   eaf0 <pio_write_8@plt>
    143a:	58                   	pop    %eax
    143b:	31 c0                	xor    %eax,%eax
    143d:	8a 45 e2             	mov    -0x1e(%ebp),%al
    1440:	8b 4d b8             	mov    -0x48(%ebp),%ecx
    1443:	5a                   	pop    %edx
    1444:	50                   	push   %eax
    1445:	51                   	push   %ecx
    1446:	e8 a5 d6 00 00       	call   eaf0 <pio_write_8@plt>
    144b:	5b                   	pop    %ebx
    144c:	5f                   	pop    %edi
    144d:	8b 7d cc             	mov    -0x34(%ebp),%edi
    1450:	83 7f 10 02          	cmpl   $0x2,0x10(%edi)
    1454:	0f 94 c0             	sete   %al
    1457:	25 ff 00 00 00       	and    $0xff,%eax
    145c:	8d 04 85 30 00 00 00 	lea    0x30(,%eax,4),%eax
    1463:	50                   	push   %eax
    1464:	8b 46 0c             	mov    0xc(%esi),%eax
    1467:	83 c0 07             	add    $0x7,%eax
    146a:	50                   	push   %eax
    146b:	e8 80 d6 00 00       	call   eaf0 <pio_write_8@plt>
    1470:	89 f8                	mov    %edi,%eax
    1472:	8b 7f 28             	mov    0x28(%edi),%edi
    1475:	83 c4 10             	add    $0x10,%esp
    1478:	8b 70 04             	mov    0x4(%eax),%esi
    147b:	f7 c7 01 00 00 00    	test   $0x1,%edi
    1481:	0f 85 8d 02 00 00    	jne    1714 <ata_bd_write_blocks+0x574>
    1487:	83 ec 0c             	sub    $0xc,%esp
    148a:	8b 46 0c             	mov    0xc(%esi),%eax
    148d:	83 c0 07             	add    $0x7,%eax
    1490:	50                   	push   %eax
    1491:	e8 da d5 00 00       	call   ea70 <pio_read_8@plt>
    1496:	83 c4 10             	add    $0x10,%esp
    1499:	84 c0                	test   %al,%al
    149b:	79 25                	jns    14c2 <ata_bd_write_blocks+0x322>
    149d:	bb 63 00 00 00       	mov    $0x63,%ebx
    14a2:	8d b6 00 00 00 00    	lea    0x0(%esi),%esi
    14a8:	83 ec 0c             	sub    $0xc,%esp
    14ab:	8b 46 0c             	mov    0xc(%esi),%eax
    14ae:	83 c0 07             	add    $0x7,%eax
    14b1:	50                   	push   %eax
    14b2:	e8 b9 d5 00 00       	call   ea70 <pio_read_8@plt>
    14b7:	83 c4 10             	add    $0x10,%esp
    14ba:	84 c0                	test   %al,%al
    14bc:	0f 88 8e 00 00 00    	js     1550 <ata_bd_write_blocks+0x3b0>
    14c2:	a8 08                	test   $0x8,%al
    14c4:	74 31                	je     14f7 <ata_bd_write_blocks+0x357>
    14c6:	89 fa                	mov    %edi,%edx
    14c8:	d1 ea                	shr    %edx
    14ca:	74 2b                	je     14f7 <ata_bd_write_blocks+0x357>
    14cc:	8b 7d 18             	mov    0x18(%ebp),%edi
    14cf:	88 45 b8             	mov    %al,-0x48(%ebp)
    14d2:	8d 1c 57             	lea    (%edi,%edx,2),%ebx
    14d5:	8d 76 00             	lea    0x0(%esi),%esi
    14d8:	31 d2                	xor    %edx,%edx
    14da:	50                   	push   %eax
    14db:	50                   	push   %eax
    14dc:	83 c7 02             	add    $0x2,%edi
    14df:	66 8b 57 fe          	mov    -0x2(%edi),%dx
    14e3:	8b 46 0c             	mov    0xc(%esi),%eax
    14e6:	52                   	push   %edx
    14e7:	50                   	push   %eax
    14e8:	e8 d3 d5 00 00       	call   eac0 <pio_write_16@plt>
    14ed:	83 c4 10             	add    $0x10,%esp
    14f0:	39 fb                	cmp    %edi,%ebx
    14f2:	75 e4                	jne    14d8 <ata_bd_write_blocks+0x338>
    14f4:	8a 45 b8             	mov    -0x48(%ebp),%al
    14f7:	a8 01                	test   $0x1,%al
    14f9:	0f 85 8a fe ff ff    	jne    1389 <ata_bd_write_blocks+0x1e9>
    14ff:	83 ec 0c             	sub    $0xc,%esp
    1502:	8b 4d c0             	mov    -0x40(%ebp),%ecx
    1505:	51                   	push   %ecx
    1506:	e8 35 d6 00 00       	call   eb40 <fibril_mutex_unlock@plt>
    150b:	83 45 d0 01          	addl   $0x1,-0x30(%ebp)
    150f:	8b 45 cc             	mov    -0x34(%ebp),%eax
    1512:	8b 5d 18             	mov    0x18(%ebp),%ebx
    1515:	83 55 d4 00          	adcl   $0x0,-0x2c(%ebp)
    1519:	8b 75 d0             	mov    -0x30(%ebp),%esi
    151c:	8b 40 28             	mov    0x28(%eax),%eax
    151f:	8b 7d d4             	mov    -0x2c(%ebp),%edi
    1522:	01 c3                	add    %eax,%ebx
    1524:	8b 4d b0             	mov    -0x50(%ebp),%ecx
    1527:	89 5d 18             	mov    %ebx,0x18(%ebp)
    152a:	89 f0                	mov    %esi,%eax
    152c:	8b 5d b4             	mov    -0x4c(%ebp),%ebx
    152f:	89 fa                	mov    %edi,%edx
    1531:	31 c8                	xor    %ecx,%eax
    1533:	31 da                	xor    %ebx,%edx
    1535:	fe 45 cb             	incb   -0x35(%ebp)
    1538:	83 c4 10             	add    $0x10,%esp
    153b:	09 c2                	or     %eax,%edx
    153d:	0f 85 c5 fc ff ff    	jne    1208 <ata_bd_write_blocks+0x68>
    1543:	31 c0                	xor    %eax,%eax
    1545:	e9 e5 fc ff ff       	jmp    122f <ata_bd_write_blocks+0x8f>
    154a:	8d b6 00 00 00 00    	lea    0x0(%esi),%esi
    1550:	4b                   	dec    %ebx
    1551:	0f 85 51 ff ff ff    	jne    14a8 <ata_bd_write_blocks+0x308>
    1557:	83 ec 0c             	sub    $0xc,%esp
    155a:	bb 63 00 00 00       	mov    $0x63,%ebx
    155f:	68 10 27 00 00       	push   $0x2710
    1564:	e8 e7 d6 00 00       	call   ec50 <async_usleep@plt>
    1569:	83 c4 10             	add    $0x10,%esp
    156c:	83 ec 0c             	sub    $0xc,%esp
    156f:	8b 46 0c             	mov    0xc(%esi),%eax
    1572:	83 c0 07             	add    $0x7,%eax
    1575:	50                   	push   %eax
    1576:	e8 f5 d4 00 00       	call   ea70 <pio_read_8@plt>
    157b:	83 c4 10             	add    $0x10,%esp
    157e:	84 c0                	test   %al,%al
    1580:	0f 89 3c ff ff ff    	jns    14c2 <ata_bd_write_blocks+0x322>
    1586:	83 ec 0c             	sub    $0xc,%esp
    1589:	68 10 27 00 00       	push   $0x2710
    158e:	e8 bd d6 00 00       	call   ec50 <async_usleep@plt>
    1593:	83 c4 10             	add    $0x10,%esp
    1596:	4b                   	dec    %ebx
    1597:	75 d3                	jne    156c <ata_bd_write_blocks+0x3cc>
    1599:	e9 eb fd ff ff       	jmp    1389 <ata_bd_write_blocks+0x1e9>
    159e:	f6 80 d0 00 00 00 01 	testb  $0x1,0xd0(%eax)
    15a5:	8a 45 e6             	mov    -0x1a(%ebp),%al
    15a8:	0f 85 53 01 00 00    	jne    1701 <ata_bd_write_blocks+0x561>
    15ae:	83 e0 0f             	and    $0xf,%eax
    15b1:	e9 f7 fc ff ff       	jmp    12ad <ata_bd_write_blocks+0x10d>
    15b6:	8b 78 1c             	mov    0x1c(%eax),%edi
    15b9:	8b 48 14             	mov    0x14(%eax),%ecx
    15bc:	0f af cf             	imul   %edi,%ecx
    15bf:	31 db                	xor    %ebx,%ebx
    15c1:	89 4d c0             	mov    %ecx,-0x40(%ebp)
    15c4:	53                   	push   %ebx
    15c5:	89 5d c4             	mov    %ebx,-0x3c(%ebp)
    15c8:	51                   	push   %ecx
    15c9:	8b 5d d0             	mov    -0x30(%ebp),%ebx
    15cc:	8b 4d d4             	mov    -0x2c(%ebp),%ecx
    15cf:	51                   	push   %ecx
    15d0:	53                   	push   %ebx
    15d1:	e8 5a d4 00 00       	call   ea30 <__udivdi3@plt>
    15d6:	83 c4 10             	add    $0x10,%esp
    15d9:	8b 4d c0             	mov    -0x40(%ebp),%ecx
    15dc:	8b 5d c4             	mov    -0x3c(%ebp),%ebx
    15df:	89 45 b8             	mov    %eax,-0x48(%ebp)
    15e2:	8b 45 d4             	mov    -0x2c(%ebp),%eax
    15e5:	53                   	push   %ebx
    15e6:	51                   	push   %ecx
    15e7:	50                   	push   %eax
    15e8:	8b 45 d0             	mov    -0x30(%ebp),%eax
    15eb:	50                   	push   %eax
    15ec:	89 55 bc             	mov    %edx,-0x44(%ebp)
    15ef:	e8 2c d4 00 00       	call   ea20 <__umoddi3@plt>
    15f4:	83 c4 10             	add    $0x10,%esp
    15f7:	89 45 c0             	mov    %eax,-0x40(%ebp)
    15fa:	89 55 c4             	mov    %edx,-0x3c(%ebp)
    15fd:	8b 45 b8             	mov    -0x48(%ebp),%eax
    1600:	8b 55 bc             	mov    -0x44(%ebp),%edx
    1603:	88 45 e1             	mov    %al,-0x1f(%ebp)
    1606:	31 db                	xor    %ebx,%ebx
    1608:	0f ac d0 08          	shrd   $0x8,%edx,%eax
    160c:	88 45 e2             	mov    %al,-0x1e(%ebp)
    160f:	8b 45 c4             	mov    -0x3c(%ebp),%eax
    1612:	53                   	push   %ebx
    1613:	57                   	push   %edi
    1614:	50                   	push   %eax
    1615:	8b 45 c0             	mov    -0x40(%ebp),%eax
    1618:	89 7d b8             	mov    %edi,-0x48(%ebp)
    161b:	89 5d bc             	mov    %ebx,-0x44(%ebp)
    161e:	50                   	push   %eax
    161f:	e8 0c d4 00 00       	call   ea30 <__udivdi3@plt>
    1624:	89 c7                	mov    %eax,%edi
    1626:	83 c4 10             	add    $0x10,%esp
    1629:	83 e7 0f             	and    $0xf,%edi
    162c:	8b 4d b8             	mov    -0x48(%ebp),%ecx
    162f:	89 f8                	mov    %edi,%eax
    1631:	8b 5d bc             	mov    -0x44(%ebp),%ebx
    1634:	88 45 e6             	mov    %al,-0x1a(%ebp)
    1637:	8b 45 c4             	mov    -0x3c(%ebp),%eax
    163a:	53                   	push   %ebx
    163b:	51                   	push   %ecx
    163c:	50                   	push   %eax
    163d:	8b 45 c0             	mov    -0x40(%ebp),%eax
    1640:	50                   	push   %eax
    1641:	e8 da d3 00 00       	call   ea20 <__umoddi3@plt>
    1646:	40                   	inc    %eax
    1647:	83 c4 10             	add    $0x10,%esp
    164a:	88 45 e0             	mov    %al,-0x20(%ebp)
    164d:	8b 45 cc             	mov    -0x34(%ebp),%eax
    1650:	f6 80 d0 00 00 00 01 	testb  $0x1,0xd0(%eax)
    1657:	89 f8                	mov    %edi,%eax
    1659:	0f 84 ae 00 00 00    	je     170d <ata_bd_write_blocks+0x56d>
    165f:	b3 10                	mov    $0x10,%bl
    1661:	e9 51 fc ff ff       	jmp    12b7 <ata_bd_write_blocks+0x117>
    1666:	8a 45 cb             	mov    -0x35(%ebp),%al
    1669:	8b 55 d4             	mov    -0x2c(%ebp),%edx
    166c:	88 45 e0             	mov    %al,-0x20(%ebp)
    166f:	8b 45 d0             	mov    -0x30(%ebp),%eax
    1672:	0f ac d0 08          	shrd   $0x8,%edx,%eax
    1676:	88 45 e1             	mov    %al,-0x1f(%ebp)
    1679:	8b 55 d4             	mov    -0x2c(%ebp),%edx
    167c:	8b 45 d0             	mov    -0x30(%ebp),%eax
    167f:	0f ac d0 10          	shrd   $0x10,%edx,%eax
    1683:	88 45 e2             	mov    %al,-0x1e(%ebp)
    1686:	8b 55 d4             	mov    -0x2c(%ebp),%edx
    1689:	8b 45 d0             	mov    -0x30(%ebp),%eax
    168c:	0f ac d0 18          	shrd   $0x18,%edx,%eax
    1690:	83 e0 0f             	and    $0xf,%eax
    1693:	88 45 e6             	mov    %al,-0x1a(%ebp)
    1696:	e9 04 fc ff ff       	jmp    129f <ata_bd_write_blocks+0xff>
    169b:	89 45 b8             	mov    %eax,-0x48(%ebp)
    169e:	89 55 ac             	mov    %edx,-0x54(%ebp)
    16a1:	50                   	push   %eax
    16a2:	50                   	push   %eax
    16a3:	6a 00                	push   $0x0
    16a5:	52                   	push   %edx
    16a6:	e8 45 d4 00 00       	call   eaf0 <pio_write_8@plt>
    16ab:	8b 45 b8             	mov    -0x48(%ebp),%eax
    16ae:	31 c9                	xor    %ecx,%ecx
    16b0:	8d 78 03             	lea    0x3(%eax),%edi
    16b3:	8a 4d e3             	mov    -0x1d(%ebp),%cl
    16b6:	58                   	pop    %eax
    16b7:	5a                   	pop    %edx
    16b8:	51                   	push   %ecx
    16b9:	57                   	push   %edi
    16ba:	e8 31 d4 00 00       	call   eaf0 <pio_write_8@plt>
    16bf:	8b 45 b8             	mov    -0x48(%ebp),%eax
    16c2:	59                   	pop    %ecx
    16c3:	31 c9                	xor    %ecx,%ecx
    16c5:	8a 4d e4             	mov    -0x1c(%ebp),%cl
    16c8:	8d 58 04             	lea    0x4(%eax),%ebx
    16cb:	58                   	pop    %eax
    16cc:	51                   	push   %ecx
    16cd:	53                   	push   %ebx
    16ce:	e8 1d d4 00 00       	call   eaf0 <pio_write_8@plt>
    16d3:	8b 45 b8             	mov    -0x48(%ebp),%eax
    16d6:	83 c0 05             	add    $0x5,%eax
    16d9:	89 c1                	mov    %eax,%ecx
    16db:	89 45 b8             	mov    %eax,-0x48(%ebp)
    16de:	58                   	pop    %eax
    16df:	31 c0                	xor    %eax,%eax
    16e1:	8a 45 e5             	mov    -0x1b(%ebp),%al
    16e4:	5a                   	pop    %edx
    16e5:	50                   	push   %eax
    16e6:	51                   	push   %ecx
    16e7:	e8 04 d4 00 00       	call   eaf0 <pio_write_8@plt>
    16ec:	83 c4 10             	add    $0x10,%esp
    16ef:	8b 55 ac             	mov    -0x54(%ebp),%edx
    16f2:	e9 1d fd ff ff       	jmp    1414 <ata_bd_write_blocks+0x274>
    16f7:	b8 f5 ff ff ff       	mov    $0xfffffff5,%eax
    16fc:	e9 2e fb ff ff       	jmp    122f <ata_bd_write_blocks+0x8f>
    1701:	83 e0 0f             	and    $0xf,%eax
    1704:	b2 50                	mov    $0x50,%dl
    1706:	b3 10                	mov    $0x10,%bl
    1708:	e9 a4 fb ff ff       	jmp    12b1 <ata_bd_write_blocks+0x111>
    170d:	31 db                	xor    %ebx,%ebx
    170f:	e9 a3 fb ff ff       	jmp    12b7 <ata_bd_write_blocks+0x117>
    1714:	50                   	push   %eax
    1715:	68 83 02 00 00       	push   $0x283
    171a:	68 8f c7 00 00       	push   $0xc78f
    171f:	68 98 c7 00 00       	push   $0xc798
    1724:	e8 67 d3 00 00       	call   ea90 <assert_abort@plt>
    1729:	8d b4 26 00 00 00 00 	lea    0x0(%esi,%eiz,1),%esi

00001730 <ata_bd_sync_cache>:
    1730:	55                   	push   %ebp
    1731:	89 e5                	mov    %esp,%ebp
    1733:	57                   	push   %edi
    1734:	56                   	push   %esi
    1735:	53                   	push   %ebx
    1736:	83 ec 1c             	sub    $0x1c,%esp
    1739:	8b 45 08             	mov    0x8(%ebp),%eax
    173c:	8b 00                	mov    (%eax),%eax
    173e:	8b 40 04             	mov    0x4(%eax),%eax
    1741:	89 45 e0             	mov    %eax,-0x20(%ebp)
    1744:	8b 58 04             	mov    0x4(%eax),%ebx
    1747:	8b 80 d0 00 00 00    	mov    0xd0(%eax),%eax
    174d:	89 c7                	mov    %eax,%edi
    174f:	83 e7 01             	and    $0x1,%edi
    1752:	74 05                	je     1759 <ata_bd_sync_cache+0x29>
    1754:	bf 10 00 00 00       	mov    $0x10,%edi
    1759:	83 ec 0c             	sub    $0xc,%esp
    175c:	8d 83 bc 01 00 00    	lea    0x1bc(%ebx),%eax
    1762:	89 45 e4             	mov    %eax,-0x1c(%ebp)
    1765:	50                   	push   %eax
    1766:	e8 95 d6 00 00       	call   ee00 <fibril_mutex_lock@plt>
    176b:	8b 43 0c             	mov    0xc(%ebx),%eax
    176e:	83 c0 07             	add    $0x7,%eax
    1771:	89 04 24             	mov    %eax,(%esp)
    1774:	e8 f7 d2 00 00       	call   ea70 <pio_read_8@plt>
    1779:	83 c4 10             	add    $0x10,%esp
    177c:	84 c0                	test   %al,%al
    177e:	79 22                	jns    17a2 <ata_bd_sync_cache+0x72>
    1780:	be 63 00 00 00       	mov    $0x63,%esi
    1785:	8d 76 00             	lea    0x0(%esi),%esi
    1788:	83 ec 0c             	sub    $0xc,%esp
    178b:	8b 43 0c             	mov    0xc(%ebx),%eax
    178e:	83 c0 07             	add    $0x7,%eax
    1791:	50                   	push   %eax
    1792:	e8 d9 d2 00 00       	call   ea70 <pio_read_8@plt>
    1797:	83 c4 10             	add    $0x10,%esp
    179a:	84 c0                	test   %al,%al
    179c:	0f 88 a6 00 00 00    	js     1848 <ata_bd_sync_cache+0x118>
    17a2:	51                   	push   %ecx
    17a3:	51                   	push   %ecx
    17a4:	8b 43 0c             	mov    0xc(%ebx),%eax
    17a7:	57                   	push   %edi
    17a8:	83 c0 06             	add    $0x6,%eax
    17ab:	be 64 00 00 00       	mov    $0x64,%esi
    17b0:	50                   	push   %eax
    17b1:	e8 3a d3 00 00       	call   eaf0 <pio_write_8@plt>
    17b6:	8b 43 0c             	mov    0xc(%ebx),%eax
    17b9:	83 c0 07             	add    $0x7,%eax
    17bc:	89 04 24             	mov    %eax,(%esp)
    17bf:	e8 ac d2 00 00       	call   ea70 <pio_read_8@plt>
    17c4:	83 c4 10             	add    $0x10,%esp
    17c7:	eb 1c                	jmp    17e5 <ata_bd_sync_cache+0xb5>
    17c9:	8d b4 26 00 00 00 00 	lea    0x0(%esi,%eiz,1),%esi
    17d0:	4e                   	dec    %esi
    17d1:	74 1a                	je     17ed <ata_bd_sync_cache+0xbd>
    17d3:	83 ec 0c             	sub    $0xc,%esp
    17d6:	8b 43 0c             	mov    0xc(%ebx),%eax
    17d9:	83 c0 07             	add    $0x7,%eax
    17dc:	50                   	push   %eax
    17dd:	e8 8e d2 00 00       	call   ea70 <pio_read_8@plt>
    17e2:	83 c4 10             	add    $0x10,%esp
    17e5:	84 c0                	test   %al,%al
    17e7:	78 e7                	js     17d0 <ata_bd_sync_cache+0xa0>
    17e9:	a8 40                	test   $0x40,%al
    17eb:	74 e3                	je     17d0 <ata_bd_sync_cache+0xa0>
    17ed:	be e8 03 00 00       	mov    $0x3e8,%esi
    17f2:	eb 16                	jmp    180a <ata_bd_sync_cache+0xda>
    17f4:	8d 74 26 00          	lea    0x0(%esi,%eiz,1),%esi
    17f8:	83 ec 0c             	sub    $0xc,%esp
    17fb:	8b 43 0c             	mov    0xc(%ebx),%eax
    17fe:	83 c0 07             	add    $0x7,%eax
    1801:	50                   	push   %eax
    1802:	e8 69 d2 00 00       	call   ea70 <pio_read_8@plt>
    1807:	83 c4 10             	add    $0x10,%esp
    180a:	84 c0                	test   %al,%al
    180c:	78 08                	js     1816 <ata_bd_sync_cache+0xe6>
    180e:	a8 40                	test   $0x40,%al
    1810:	0f 85 82 00 00 00    	jne    1898 <ata_bd_sync_cache+0x168>
    1816:	83 ec 0c             	sub    $0xc,%esp
    1819:	68 10 27 00 00       	push   $0x2710
    181e:	e8 2d d4 00 00       	call   ec50 <async_usleep@plt>
    1823:	83 c4 10             	add    $0x10,%esp
    1826:	4e                   	dec    %esi
    1827:	75 cf                	jne    17f8 <ata_bd_sync_cache+0xc8>
    1829:	83 ec 0c             	sub    $0xc,%esp
    182c:	8b 55 e4             	mov    -0x1c(%ebp),%edx
    182f:	bb f6 fe ff ff       	mov    $0xfffffef6,%ebx
    1834:	52                   	push   %edx
    1835:	e8 06 d3 00 00       	call   eb40 <fibril_mutex_unlock@plt>
    183a:	83 c4 10             	add    $0x10,%esp
    183d:	8d 65 f4             	lea    -0xc(%ebp),%esp
    1840:	89 d8                	mov    %ebx,%eax
    1842:	5b                   	pop    %ebx
    1843:	5e                   	pop    %esi
    1844:	5f                   	pop    %edi
    1845:	5d                   	pop    %ebp
    1846:	c3                   	ret    
    1847:	90                   	nop
    1848:	4e                   	dec    %esi
    1849:	0f 85 39 ff ff ff    	jne    1788 <ata_bd_sync_cache+0x58>
    184f:	83 ec 0c             	sub    $0xc,%esp
    1852:	be 63 00 00 00       	mov    $0x63,%esi
    1857:	68 10 27 00 00       	push   $0x2710
    185c:	e8 ef d3 00 00       	call   ec50 <async_usleep@plt>
    1861:	83 c4 10             	add    $0x10,%esp
    1864:	83 ec 0c             	sub    $0xc,%esp
    1867:	8b 43 0c             	mov    0xc(%ebx),%eax
    186a:	83 c0 07             	add    $0x7,%eax
    186d:	50                   	push   %eax
    186e:	e8 fd d1 00 00       	call   ea70 <pio_read_8@plt>
    1873:	83 c4 10             	add    $0x10,%esp
    1876:	84 c0                	test   %al,%al
    1878:	0f 89 24 ff ff ff    	jns    17a2 <ata_bd_sync_cache+0x72>
    187e:	83 ec 0c             	sub    $0xc,%esp
    1881:	68 10 27 00 00       	push   $0x2710
    1886:	e8 c5 d3 00 00       	call   ec50 <async_usleep@plt>
    188b:	83 c4 10             	add    $0x10,%esp
    188e:	4e                   	dec    %esi
    188f:	75 d3                	jne    1864 <ata_bd_sync_cache+0x134>
    1891:	eb 96                	jmp    1829 <ata_bd_sync_cache+0xf9>
    1893:	90                   	nop
    1894:	8d 74 26 00          	lea    0x0(%esi,%eiz,1),%esi
    1898:	50                   	push   %eax
    1899:	50                   	push   %eax
    189a:	8b 43 0c             	mov    0xc(%ebx),%eax
    189d:	68 e7 00 00 00       	push   $0xe7
    18a2:	83 c0 07             	add    $0x7,%eax
    18a5:	50                   	push   %eax
    18a6:	e8 45 d2 00 00       	call   eaf0 <pio_write_8@plt>
    18ab:	8b 45 e0             	mov    -0x20(%ebp),%eax
    18ae:	8b 70 04             	mov    0x4(%eax),%esi
    18b1:	8b 46 0c             	mov    0xc(%esi),%eax
    18b4:	83 c0 07             	add    $0x7,%eax
    18b7:	89 04 24             	mov    %eax,(%esp)
    18ba:	e8 b1 d1 00 00       	call   ea70 <pio_read_8@plt>
    18bf:	83 c4 10             	add    $0x10,%esp
    18c2:	84 c0                	test   %al,%al
    18c4:	79 23                	jns    18e9 <ata_bd_sync_cache+0x1b9>
    18c6:	bb 63 00 00 00       	mov    $0x63,%ebx
    18cb:	eb 06                	jmp    18d3 <ata_bd_sync_cache+0x1a3>
    18cd:	8d 76 00             	lea    0x0(%esi),%esi
    18d0:	4b                   	dec    %ebx
    18d1:	74 35                	je     1908 <ata_bd_sync_cache+0x1d8>
    18d3:	83 ec 0c             	sub    $0xc,%esp
    18d6:	8b 46 0c             	mov    0xc(%esi),%eax
    18d9:	83 c0 07             	add    $0x7,%eax
    18dc:	50                   	push   %eax
    18dd:	e8 8e d1 00 00       	call   ea70 <pio_read_8@plt>
    18e2:	83 c4 10             	add    $0x10,%esp
    18e5:	84 c0                	test   %al,%al
    18e7:	78 e7                	js     18d0 <ata_bd_sync_cache+0x1a0>
    18e9:	a8 01                	test   $0x1,%al
    18eb:	75 59                	jne    1946 <ata_bd_sync_cache+0x216>
    18ed:	31 db                	xor    %ebx,%ebx
    18ef:	83 ec 0c             	sub    $0xc,%esp
    18f2:	8b 75 e4             	mov    -0x1c(%ebp),%esi
    18f5:	56                   	push   %esi
    18f6:	e8 45 d2 00 00       	call   eb40 <fibril_mutex_unlock@plt>
    18fb:	83 c4 10             	add    $0x10,%esp
    18fe:	8d 65 f4             	lea    -0xc(%ebp),%esp
    1901:	89 d8                	mov    %ebx,%eax
    1903:	5b                   	pop    %ebx
    1904:	5e                   	pop    %esi
    1905:	5f                   	pop    %edi
    1906:	5d                   	pop    %ebp
    1907:	c3                   	ret    
    1908:	83 ec 0c             	sub    $0xc,%esp
    190b:	bb 63 00 00 00       	mov    $0x63,%ebx
    1910:	68 10 27 00 00       	push   $0x2710
    1915:	e8 36 d3 00 00       	call   ec50 <async_usleep@plt>
    191a:	83 c4 10             	add    $0x10,%esp
    191d:	83 ec 0c             	sub    $0xc,%esp
    1920:	8b 46 0c             	mov    0xc(%esi),%eax
    1923:	83 c0 07             	add    $0x7,%eax
    1926:	50                   	push   %eax
    1927:	e8 44 d1 00 00       	call   ea70 <pio_read_8@plt>
    192c:	83 c4 10             	add    $0x10,%esp
    192f:	84 c0                	test   %al,%al
    1931:	79 b6                	jns    18e9 <ata_bd_sync_cache+0x1b9>
    1933:	83 ec 0c             	sub    $0xc,%esp
    1936:	68 10 27 00 00       	push   $0x2710
    193b:	e8 10 d3 00 00       	call   ec50 <async_usleep@plt>
    1940:	83 c4 10             	add    $0x10,%esp
    1943:	4b                   	dec    %ebx
    1944:	75 d7                	jne    191d <ata_bd_sync_cache+0x1ed>
    1946:	bb f6 fe ff ff       	mov    $0xfffffef6,%ebx
    194b:	eb a2                	jmp    18ef <ata_bd_sync_cache+0x1bf>
    194d:	8d 76 00             	lea    0x0(%esi),%esi

00001950 <ata_cmd_packet.constprop.12>:
    1950:	55                   	push   %ebp
    1951:	89 e5                	mov    %esp,%ebp
    1953:	57                   	push   %edi
    1954:	56                   	push   %esi
    1955:	53                   	push   %ebx
    1956:	83 ec 28             	sub    $0x28,%esp
    1959:	89 c6                	mov    %eax,%esi
    195b:	8b 58 04             	mov    0x4(%eax),%ebx
    195e:	89 55 dc             	mov    %edx,-0x24(%ebp)
    1961:	89 4d e0             	mov    %ecx,-0x20(%ebp)
    1964:	8d 83 bc 01 00 00    	lea    0x1bc(%ebx),%eax
    196a:	50                   	push   %eax
    196b:	89 45 e4             	mov    %eax,-0x1c(%ebp)
    196e:	e8 8d d4 00 00       	call   ee00 <fibril_mutex_lock@plt>
    1973:	8b be d0 00 00 00    	mov    0xd0(%esi),%edi
    1979:	83 c4 10             	add    $0x10,%esp
    197c:	83 e7 01             	and    $0x1,%edi
    197f:	74 05                	je     1986 <ata_cmd_packet.constprop.12+0x36>
    1981:	bf 10 00 00 00       	mov    $0x10,%edi
    1986:	83 ec 0c             	sub    $0xc,%esp
    1989:	8b 43 0c             	mov    0xc(%ebx),%eax
    198c:	83 c0 07             	add    $0x7,%eax
    198f:	50                   	push   %eax
    1990:	e8 db d0 00 00       	call   ea70 <pio_read_8@plt>
    1995:	83 c4 10             	add    $0x10,%esp
    1998:	84 c0                	test   %al,%al
    199a:	79 26                	jns    19c2 <ata_cmd_packet.constprop.12+0x72>
    199c:	be 63 00 00 00       	mov    $0x63,%esi
    19a1:	8d b4 26 00 00 00 00 	lea    0x0(%esi,%eiz,1),%esi
    19a8:	83 ec 0c             	sub    $0xc,%esp
    19ab:	8b 43 0c             	mov    0xc(%ebx),%eax
    19ae:	83 c0 07             	add    $0x7,%eax
    19b1:	50                   	push   %eax
    19b2:	e8 b9 d0 00 00       	call   ea70 <pio_read_8@plt>
    19b7:	83 c4 10             	add    $0x10,%esp
    19ba:	84 c0                	test   %al,%al
    19bc:	0f 88 0e 01 00 00    	js     1ad0 <ata_cmd_packet.constprop.12+0x180>
    19c2:	50                   	push   %eax
    19c3:	50                   	push   %eax
    19c4:	8b 43 0c             	mov    0xc(%ebx),%eax
    19c7:	57                   	push   %edi
    19c8:	83 c0 06             	add    $0x6,%eax
    19cb:	50                   	push   %eax
    19cc:	e8 1f d1 00 00       	call   eaf0 <pio_write_8@plt>
    19d1:	8b 43 0c             	mov    0xc(%ebx),%eax
    19d4:	83 c0 07             	add    $0x7,%eax
    19d7:	89 04 24             	mov    %eax,(%esp)
    19da:	e8 91 d0 00 00       	call   ea70 <pio_read_8@plt>
    19df:	83 c4 10             	add    $0x10,%esp
    19e2:	a8 88                	test   $0x88,%al
    19e4:	74 1f                	je     1a05 <ata_cmd_packet.constprop.12+0xb5>
    19e6:	be 63 00 00 00       	mov    $0x63,%esi
    19eb:	83 ec 0c             	sub    $0xc,%esp
    19ee:	8b 43 0c             	mov    0xc(%ebx),%eax
    19f1:	83 c0 07             	add    $0x7,%eax
    19f4:	50                   	push   %eax
    19f5:	e8 76 d0 00 00       	call   ea70 <pio_read_8@plt>
    19fa:	83 c4 10             	add    $0x10,%esp
    19fd:	a8 88                	test   $0x88,%al
    19ff:	0f 85 1b 01 00 00    	jne    1b20 <ata_cmd_packet.constprop.12+0x1d0>
    1a05:	52                   	push   %edx
    1a06:	52                   	push   %edx
    1a07:	8b 43 0c             	mov    0xc(%ebx),%eax
    1a0a:	68 fe 00 00 00       	push   $0xfe
    1a0f:	83 c0 04             	add    $0x4,%eax
    1a12:	50                   	push   %eax
    1a13:	e8 d8 d0 00 00       	call   eaf0 <pio_write_8@plt>
    1a18:	8b 43 0c             	mov    0xc(%ebx),%eax
    1a1b:	59                   	pop    %ecx
    1a1c:	83 c0 05             	add    $0x5,%eax
    1a1f:	5e                   	pop    %esi
    1a20:	68 ff 00 00 00       	push   $0xff
    1a25:	50                   	push   %eax
    1a26:	e8 c5 d0 00 00       	call   eaf0 <pio_write_8@plt>
    1a2b:	5f                   	pop    %edi
    1a2c:	58                   	pop    %eax
    1a2d:	8b 43 0c             	mov    0xc(%ebx),%eax
    1a30:	83 c0 07             	add    $0x7,%eax
    1a33:	68 a0 00 00 00       	push   $0xa0
    1a38:	50                   	push   %eax
    1a39:	e8 b2 d0 00 00       	call   eaf0 <pio_write_8@plt>
    1a3e:	8b 43 0c             	mov    0xc(%ebx),%eax
    1a41:	be 64 00 00 00       	mov    $0x64,%esi
    1a46:	83 c0 07             	add    $0x7,%eax
    1a49:	89 04 24             	mov    %eax,(%esp)
    1a4c:	e8 1f d0 00 00       	call   ea70 <pio_read_8@plt>
    1a51:	83 c4 10             	add    $0x10,%esp
    1a54:	eb 17                	jmp    1a6d <ata_cmd_packet.constprop.12+0x11d>
    1a56:	66 90                	xchg   %ax,%ax
    1a58:	4e                   	dec    %esi
    1a59:	74 1a                	je     1a75 <ata_cmd_packet.constprop.12+0x125>
    1a5b:	83 ec 0c             	sub    $0xc,%esp
    1a5e:	8b 43 0c             	mov    0xc(%ebx),%eax
    1a61:	83 c0 07             	add    $0x7,%eax
    1a64:	50                   	push   %eax
    1a65:	e8 06 d0 00 00       	call   ea70 <pio_read_8@plt>
    1a6a:	83 c4 10             	add    $0x10,%esp
    1a6d:	84 c0                	test   %al,%al
    1a6f:	78 e7                	js     1a58 <ata_cmd_packet.constprop.12+0x108>
    1a71:	a8 08                	test   $0x8,%al
    1a73:	74 e3                	je     1a58 <ata_cmd_packet.constprop.12+0x108>
    1a75:	be 64 00 00 00       	mov    $0x64,%esi
    1a7a:	eb 16                	jmp    1a92 <ata_cmd_packet.constprop.12+0x142>
    1a7c:	8d 74 26 00          	lea    0x0(%esi,%eiz,1),%esi
    1a80:	83 ec 0c             	sub    $0xc,%esp
    1a83:	8b 43 0c             	mov    0xc(%ebx),%eax
    1a86:	83 c0 07             	add    $0x7,%eax
    1a89:	50                   	push   %eax
    1a8a:	e8 e1 cf 00 00       	call   ea70 <pio_read_8@plt>
    1a8f:	83 c4 10             	add    $0x10,%esp
    1a92:	84 c0                	test   %al,%al
    1a94:	78 08                	js     1a9e <ata_cmd_packet.constprop.12+0x14e>
    1a96:	a8 08                	test   $0x8,%al
    1a98:	0f 85 d2 00 00 00    	jne    1b70 <ata_cmd_packet.constprop.12+0x220>
    1a9e:	83 ec 0c             	sub    $0xc,%esp
    1aa1:	68 10 27 00 00       	push   $0x2710
    1aa6:	e8 a5 d1 00 00       	call   ec50 <async_usleep@plt>
    1aab:	83 c4 10             	add    $0x10,%esp
    1aae:	4e                   	dec    %esi
    1aaf:	75 cf                	jne    1a80 <ata_cmd_packet.constprop.12+0x130>
    1ab1:	83 ec 0c             	sub    $0xc,%esp
    1ab4:	8b 45 e4             	mov    -0x1c(%ebp),%eax
    1ab7:	50                   	push   %eax
    1ab8:	e8 83 d0 00 00       	call   eb40 <fibril_mutex_unlock@plt>
    1abd:	83 c4 10             	add    $0x10,%esp
    1ac0:	b8 f6 fe ff ff       	mov    $0xfffffef6,%eax
    1ac5:	8d 65 f4             	lea    -0xc(%ebp),%esp
    1ac8:	5b                   	pop    %ebx
    1ac9:	5e                   	pop    %esi
    1aca:	5f                   	pop    %edi
    1acb:	5d                   	pop    %ebp
    1acc:	c3                   	ret    
    1acd:	8d 76 00             	lea    0x0(%esi),%esi
    1ad0:	4e                   	dec    %esi
    1ad1:	0f 85 d1 fe ff ff    	jne    19a8 <ata_cmd_packet.constprop.12+0x58>
    1ad7:	83 ec 0c             	sub    $0xc,%esp
    1ada:	be 63 00 00 00       	mov    $0x63,%esi
    1adf:	68 10 27 00 00       	push   $0x2710
    1ae4:	e8 67 d1 00 00       	call   ec50 <async_usleep@plt>
    1ae9:	83 c4 10             	add    $0x10,%esp
    1aec:	83 ec 0c             	sub    $0xc,%esp
    1aef:	8b 43 0c             	mov    0xc(%ebx),%eax
    1af2:	83 c0 07             	add    $0x7,%eax
    1af5:	50                   	push   %eax
    1af6:	e8 75 cf 00 00       	call   ea70 <pio_read_8@plt>
    1afb:	83 c4 10             	add    $0x10,%esp
    1afe:	84 c0                	test   %al,%al
    1b00:	0f 89 bc fe ff ff    	jns    19c2 <ata_cmd_packet.constprop.12+0x72>
    1b06:	83 ec 0c             	sub    $0xc,%esp
    1b09:	68 10 27 00 00       	push   $0x2710
    1b0e:	e8 3d d1 00 00       	call   ec50 <async_usleep@plt>
    1b13:	83 c4 10             	add    $0x10,%esp
    1b16:	4e                   	dec    %esi
    1b17:	75 d3                	jne    1aec <ata_cmd_packet.constprop.12+0x19c>
    1b19:	eb 96                	jmp    1ab1 <ata_cmd_packet.constprop.12+0x161>
    1b1b:	90                   	nop
    1b1c:	8d 74 26 00          	lea    0x0(%esi,%eiz,1),%esi
    1b20:	4e                   	dec    %esi
    1b21:	0f 85 c4 fe ff ff    	jne    19eb <ata_cmd_packet.constprop.12+0x9b>
    1b27:	83 ec 0c             	sub    $0xc,%esp
    1b2a:	be 63 00 00 00       	mov    $0x63,%esi
    1b2f:	68 10 27 00 00       	push   $0x2710
    1b34:	e8 17 d1 00 00       	call   ec50 <async_usleep@plt>
    1b39:	83 c4 10             	add    $0x10,%esp
    1b3c:	83 ec 0c             	sub    $0xc,%esp
    1b3f:	8b 43 0c             	mov    0xc(%ebx),%eax
    1b42:	83 c0 07             	add    $0x7,%eax
    1b45:	50                   	push   %eax
    1b46:	e8 25 cf 00 00       	call   ea70 <pio_read_8@plt>
    1b4b:	83 c4 10             	add    $0x10,%esp
    1b4e:	a8 88                	test   $0x88,%al
    1b50:	0f 84 af fe ff ff    	je     1a05 <ata_cmd_packet.constprop.12+0xb5>
    1b56:	83 ec 0c             	sub    $0xc,%esp
    1b59:	68 10 27 00 00       	push   $0x2710
    1b5e:	e8 ed d0 00 00       	call   ec50 <async_usleep@plt>
    1b63:	83 c4 10             	add    $0x10,%esp
    1b66:	4e                   	dec    %esi
    1b67:	75 d3                	jne    1b3c <ata_cmd_packet.constprop.12+0x1ec>
    1b69:	e9 43 ff ff ff       	jmp    1ab1 <ata_cmd_packet.constprop.12+0x161>
    1b6e:	66 90                	xchg   %ax,%ax
    1b70:	8b 7d dc             	mov    -0x24(%ebp),%edi
    1b73:	8d 77 0c             	lea    0xc(%edi),%esi
    1b76:	66 90                	xchg   %ax,%ax
    1b78:	50                   	push   %eax
    1b79:	50                   	push   %eax
    1b7a:	31 c0                	xor    %eax,%eax
    1b7c:	8b 53 0c             	mov    0xc(%ebx),%edx
    1b7f:	66 8b 07             	mov    (%edi),%ax
    1b82:	83 c7 02             	add    $0x2,%edi
    1b85:	50                   	push   %eax
    1b86:	52                   	push   %edx
    1b87:	e8 34 cf 00 00       	call   eac0 <pio_write_16@plt>
    1b8c:	83 c4 10             	add    $0x10,%esp
    1b8f:	39 fe                	cmp    %edi,%esi
    1b91:	75 e5                	jne    1b78 <ata_cmd_packet.constprop.12+0x228>
    1b93:	83 ec 0c             	sub    $0xc,%esp
    1b96:	8b 43 0c             	mov    0xc(%ebx),%eax
    1b99:	83 c0 07             	add    $0x7,%eax
    1b9c:	50                   	push   %eax
    1b9d:	e8 ce ce 00 00       	call   ea70 <pio_read_8@plt>
    1ba2:	83 c4 10             	add    $0x10,%esp
    1ba5:	88 c2                	mov    %al,%dl
    1ba7:	84 c0                	test   %al,%al
    1ba9:	79 21                	jns    1bcc <ata_cmd_packet.constprop.12+0x27c>
    1bab:	be 63 00 00 00       	mov    $0x63,%esi
    1bb0:	83 ec 0c             	sub    $0xc,%esp
    1bb3:	8b 43 0c             	mov    0xc(%ebx),%eax
    1bb6:	83 c0 07             	add    $0x7,%eax
    1bb9:	50                   	push   %eax
    1bba:	e8 b1 ce 00 00       	call   ea70 <pio_read_8@plt>
    1bbf:	83 c4 10             	add    $0x10,%esp
    1bc2:	84 c0                	test   %al,%al
    1bc4:	0f 88 be 00 00 00    	js     1c88 <ata_cmd_packet.constprop.12+0x338>
    1bca:	88 c2                	mov    %al,%dl
    1bcc:	f6 c2 08             	test   $0x8,%dl
    1bcf:	0f 84 dc fe ff ff    	je     1ab1 <ata_cmd_packet.constprop.12+0x161>
    1bd5:	83 ec 0c             	sub    $0xc,%esp
    1bd8:	8b 43 0c             	mov    0xc(%ebx),%eax
    1bdb:	83 c0 04             	add    $0x4,%eax
    1bde:	88 55 db             	mov    %dl,-0x25(%ebp)
    1be1:	50                   	push   %eax
    1be2:	e8 89 ce 00 00       	call   ea70 <pio_read_8@plt>
    1be7:	88 45 dc             	mov    %al,-0x24(%ebp)
    1bea:	8b 43 0c             	mov    0xc(%ebx),%eax
    1bed:	83 c0 05             	add    $0x5,%eax
    1bf0:	89 04 24             	mov    %eax,(%esp)
    1bf3:	e8 78 ce 00 00       	call   ea70 <pio_read_8@plt>
    1bf8:	0f b6 75 dc          	movzbl -0x24(%ebp),%esi
    1bfc:	89 c7                	mov    %eax,%edi
    1bfe:	81 e6 ff 00 00 00    	and    $0xff,%esi
    1c04:	81 e7 ff 00 00 00    	and    $0xff,%edi
    1c0a:	83 c4 10             	add    $0x10,%esp
    1c0d:	c1 e7 08             	shl    $0x8,%edi
    1c10:	8d 04 37             	lea    (%edi,%esi,1),%eax
    1c13:	89 45 dc             	mov    %eax,-0x24(%ebp)
    1c16:	3b 45 08             	cmp    0x8(%ebp),%eax
    1c19:	0f 87 92 fe ff ff    	ja     1ab1 <ata_cmd_packet.constprop.12+0x161>
    1c1f:	40                   	inc    %eax
    1c20:	8a 55 db             	mov    -0x25(%ebp),%dl
    1c23:	d1 e8                	shr    %eax
    1c25:	74 26                	je     1c4d <ata_cmd_packet.constprop.12+0x2fd>
    1c27:	8b 7d e0             	mov    -0x20(%ebp),%edi
    1c2a:	88 55 e0             	mov    %dl,-0x20(%ebp)
    1c2d:	8d 34 47             	lea    (%edi,%eax,2),%esi
    1c30:	83 ec 0c             	sub    $0xc,%esp
    1c33:	8b 43 0c             	mov    0xc(%ebx),%eax
    1c36:	83 c7 02             	add    $0x2,%edi
    1c39:	50                   	push   %eax
    1c3a:	e8 91 cf 00 00       	call   ebd0 <pio_read_16@plt>
    1c3f:	66 89 47 fe          	mov    %ax,-0x2(%edi)
    1c43:	83 c4 10             	add    $0x10,%esp
    1c46:	39 fe                	cmp    %edi,%esi
    1c48:	75 e6                	jne    1c30 <ata_cmd_packet.constprop.12+0x2e0>
    1c4a:	8a 55 e0             	mov    -0x20(%ebp),%dl
    1c4d:	83 ec 0c             	sub    $0xc,%esp
    1c50:	8b 45 e4             	mov    -0x1c(%ebp),%eax
    1c53:	88 55 e0             	mov    %dl,-0x20(%ebp)
    1c56:	50                   	push   %eax
    1c57:	e8 e4 ce 00 00       	call   eb40 <fibril_mutex_unlock@plt>
    1c5c:	8a 55 e0             	mov    -0x20(%ebp),%dl
    1c5f:	83 c4 10             	add    $0x10,%esp
    1c62:	83 e2 01             	and    $0x1,%edx
    1c65:	0f 85 55 fe ff ff    	jne    1ac0 <ata_cmd_packet.constprop.12+0x170>
    1c6b:	8b 45 0c             	mov    0xc(%ebp),%eax
    1c6e:	85 c0                	test   %eax,%eax
    1c70:	74 64                	je     1cd6 <ata_cmd_packet.constprop.12+0x386>
    1c72:	8b 45 0c             	mov    0xc(%ebp),%eax
    1c75:	8b 4d dc             	mov    -0x24(%ebp),%ecx
    1c78:	89 08                	mov    %ecx,(%eax)
    1c7a:	8d 65 f4             	lea    -0xc(%ebp),%esp
    1c7d:	31 c0                	xor    %eax,%eax
    1c7f:	5b                   	pop    %ebx
    1c80:	5e                   	pop    %esi
    1c81:	5f                   	pop    %edi
    1c82:	5d                   	pop    %ebp
    1c83:	c3                   	ret    
    1c84:	8d 74 26 00          	lea    0x0(%esi,%eiz,1),%esi
    1c88:	4e                   	dec    %esi
    1c89:	0f 85 21 ff ff ff    	jne    1bb0 <ata_cmd_packet.constprop.12+0x260>
    1c8f:	83 ec 0c             	sub    $0xc,%esp
    1c92:	be 63 00 00 00       	mov    $0x63,%esi
    1c97:	68 10 27 00 00       	push   $0x2710
    1c9c:	e8 af cf 00 00       	call   ec50 <async_usleep@plt>
    1ca1:	83 c4 10             	add    $0x10,%esp
    1ca4:	83 ec 0c             	sub    $0xc,%esp
    1ca7:	8b 43 0c             	mov    0xc(%ebx),%eax
    1caa:	83 c0 07             	add    $0x7,%eax
    1cad:	50                   	push   %eax
    1cae:	e8 bd cd 00 00       	call   ea70 <pio_read_8@plt>
    1cb3:	83 c4 10             	add    $0x10,%esp
    1cb6:	84 c0                	test   %al,%al
    1cb8:	0f 89 0c ff ff ff    	jns    1bca <ata_cmd_packet.constprop.12+0x27a>
    1cbe:	83 ec 0c             	sub    $0xc,%esp
    1cc1:	68 10 27 00 00       	push   $0x2710
    1cc6:	e8 85 cf 00 00       	call   ec50 <async_usleep@plt>
    1ccb:	83 c4 10             	add    $0x10,%esp
    1cce:	4e                   	dec    %esi
    1ccf:	75 d3                	jne    1ca4 <ata_cmd_packet.constprop.12+0x354>
    1cd1:	e9 db fd ff ff       	jmp    1ab1 <ata_cmd_packet.constprop.12+0x161>
    1cd6:	31 c0                	xor    %eax,%eax
    1cd8:	e9 e8 fd ff ff       	jmp    1ac5 <ata_cmd_packet.constprop.12+0x175>
    1cdd:	8d 76 00             	lea    0x0(%esi),%esi

00001ce0 <ata_bd_read_blocks>:
    1ce0:	55                   	push   %ebp
    1ce1:	89 e5                	mov    %esp,%ebp
    1ce3:	57                   	push   %edi
    1ce4:	56                   	push   %esi
    1ce5:	53                   	push   %ebx
    1ce6:	83 ec 4c             	sub    $0x4c,%esp
    1ce9:	8b 55 10             	mov    0x10(%ebp),%edx
    1cec:	8b 45 0c             	mov    0xc(%ebp),%eax
    1cef:	89 55 cc             	mov    %edx,-0x34(%ebp)
    1cf2:	8b 55 08             	mov    0x8(%ebp),%edx
    1cf5:	89 45 c8             	mov    %eax,-0x38(%ebp)
    1cf8:	8b 45 14             	mov    0x14(%ebp),%eax
    1cfb:	8b 12                	mov    (%edx),%edx
    1cfd:	8b 4a 04             	mov    0x4(%edx),%ecx
    1d00:	89 4d d4             	mov    %ecx,-0x2c(%ebp)
    1d03:	8b 59 28             	mov    0x28(%ecx),%ebx
    1d06:	89 da                	mov    %ebx,%edx
    1d08:	0f af d0             	imul   %eax,%edx
    1d0b:	3b 55 1c             	cmp    0x1c(%ebp),%edx
    1d0e:	77 45                	ja     1d55 <ata_bd_read_blocks+0x75>
    1d10:	85 c0                	test   %eax,%eax
    1d12:	0f 84 ba 00 00 00    	je     1dd2 <ata_bd_read_blocks+0xf2>
    1d18:	8b 4d c8             	mov    -0x38(%ebp),%ecx
    1d1b:	01 c8                	add    %ecx,%eax
    1d1d:	89 4d d0             	mov    %ecx,-0x30(%ebp)
    1d20:	89 45 bc             	mov    %eax,-0x44(%ebp)
    1d23:	90                   	nop
    1d24:	8d 74 26 00          	lea    0x0(%esi,%eiz,1),%esi
    1d28:	8b 7d d4             	mov    -0x2c(%ebp),%edi
    1d2b:	8b 4f 0c             	mov    0xc(%edi),%ecx
    1d2e:	85 c9                	test   %ecx,%ecx
    1d30:	75 36                	jne    1d68 <ata_bd_read_blocks+0x88>
    1d32:	8d 45 dc             	lea    -0x24(%ebp),%eax
    1d35:	8b 77 04             	mov    0x4(%edi),%esi
    1d38:	52                   	push   %edx
    1d39:	6a 0c                	push   $0xc
    1d3b:	6a 00                	push   $0x0
    1d3d:	50                   	push   %eax
    1d3e:	e8 cd ce 00 00       	call   ec10 <memset@plt>
    1d43:	8b 5d cc             	mov    -0x34(%ebp),%ebx
    1d46:	83 c4 10             	add    $0x10,%esp
    1d49:	8b 4d c8             	mov    -0x38(%ebp),%ecx
    1d4c:	39 5f 24             	cmp    %ebx,0x24(%edi)
    1d4f:	0f 83 8b 00 00 00    	jae    1de0 <ata_bd_read_blocks+0x100>
    1d55:	b8 f2 ff ff ff       	mov    $0xfffffff2,%eax
    1d5a:	8d 65 f4             	lea    -0xc(%ebp),%esp
    1d5d:	5b                   	pop    %ebx
    1d5e:	5e                   	pop    %esi
    1d5f:	5f                   	pop    %edi
    1d60:	5d                   	pop    %ebp
    1d61:	c3                   	ret    
    1d62:	8d b6 00 00 00 00    	lea    0x0(%esi),%esi
    1d68:	83 7d cc 00          	cmpl   $0x0,-0x34(%ebp)
    1d6c:	77 e7                	ja     1d55 <ata_bd_read_blocks+0x75>
    1d6e:	8d 45 dc             	lea    -0x24(%ebp),%eax
    1d71:	57                   	push   %edi
    1d72:	6a 0c                	push   $0xc
    1d74:	6a 00                	push   $0x0
    1d76:	50                   	push   %eax
    1d77:	e8 94 ce 00 00       	call   ec10 <memset@plt>
    1d7c:	8b 45 d0             	mov    -0x30(%ebp),%eax
    1d7f:	8b 4d 18             	mov    0x18(%ebp),%ecx
    1d82:	0f c8                	bswap  %eax
    1d84:	89 45 de             	mov    %eax,-0x22(%ebp)
    1d87:	58                   	pop    %eax
    1d88:	8b 45 d4             	mov    -0x2c(%ebp),%eax
    1d8b:	5a                   	pop    %edx
    1d8c:	8d 55 dc             	lea    -0x24(%ebp),%edx
    1d8f:	6a 00                	push   $0x0
    1d91:	c6 45 dc a8          	movb   $0xa8,-0x24(%ebp)
    1d95:	53                   	push   %ebx
    1d96:	c7 45 e2 00 00 00 01 	movl   $0x1000000,-0x1e(%ebp)
    1d9d:	e8 ae fb ff ff       	call   1950 <ata_cmd_packet.constprop.12>
    1da2:	83 c4 10             	add    $0x10,%esp
    1da5:	85 c0                	test   %eax,%eax
    1da7:	75 b1                	jne    1d5a <ata_bd_read_blocks+0x7a>
    1da9:	83 45 c8 01          	addl   $0x1,-0x38(%ebp)
    1dad:	8b 45 d4             	mov    -0x2c(%ebp),%eax
    1db0:	8b 75 d0             	mov    -0x30(%ebp),%esi
    1db3:	83 55 cc 00          	adcl   $0x0,-0x34(%ebp)
    1db7:	46                   	inc    %esi
    1db8:	8b 58 28             	mov    0x28(%eax),%ebx
    1dbb:	8b 4d 18             	mov    0x18(%ebp),%ecx
    1dbe:	89 75 d0             	mov    %esi,-0x30(%ebp)
    1dc1:	01 d9                	add    %ebx,%ecx
    1dc3:	8b 45 d0             	mov    -0x30(%ebp),%eax
    1dc6:	89 4d 18             	mov    %ecx,0x18(%ebp)
    1dc9:	3b 45 bc             	cmp    -0x44(%ebp),%eax
    1dcc:	0f 85 56 ff ff ff    	jne    1d28 <ata_bd_read_blocks+0x48>
    1dd2:	8d 65 f4             	lea    -0xc(%ebp),%esp
    1dd5:	31 c0                	xor    %eax,%eax
    1dd7:	5b                   	pop    %ebx
    1dd8:	5e                   	pop    %esi
    1dd9:	5f                   	pop    %edi
    1dda:	5d                   	pop    %ebp
    1ddb:	c3                   	ret    
    1ddc:	8d 74 26 00          	lea    0x0(%esi,%eiz,1),%esi
    1de0:	77 09                	ja     1deb <ata_bd_read_blocks+0x10b>
    1de2:	39 4f 20             	cmp    %ecx,0x20(%edi)
    1de5:	0f 86 6a ff ff ff    	jbe    1d55 <ata_bd_read_blocks+0x75>
    1deb:	8b 45 d4             	mov    -0x2c(%ebp),%eax
    1dee:	8b 48 10             	mov    0x10(%eax),%ecx
    1df1:	89 4d dc             	mov    %ecx,-0x24(%ebp)
    1df4:	83 f9 01             	cmp    $0x1,%ecx
    1df7:	0f 84 dd 03 00 00    	je     21da <ata_bd_read_blocks+0x4fa>
    1dfd:	0f 82 27 03 00 00    	jb     212a <ata_bd_read_blocks+0x44a>
    1e03:	83 f9 02             	cmp    $0x2,%ecx
    1e06:	0f 85 06 03 00 00    	jne    2112 <ata_bd_read_blocks+0x432>
    1e0c:	8a 45 d0             	mov    -0x30(%ebp),%al
    1e0f:	8b 55 cc             	mov    -0x34(%ebp),%edx
    1e12:	88 45 e0             	mov    %al,-0x20(%ebp)
    1e15:	8b 45 c8             	mov    -0x38(%ebp),%eax
    1e18:	0f ac d0 08          	shrd   $0x8,%edx,%eax
    1e1c:	88 45 e1             	mov    %al,-0x1f(%ebp)
    1e1f:	8b 55 cc             	mov    -0x34(%ebp),%edx
    1e22:	8b 45 c8             	mov    -0x38(%ebp),%eax
    1e25:	c6 45 e6 00          	movb   $0x0,-0x1a(%ebp)
    1e29:	0f ac d0 10          	shrd   $0x10,%edx,%eax
    1e2d:	88 45 e2             	mov    %al,-0x1e(%ebp)
    1e30:	8b 55 cc             	mov    -0x34(%ebp),%edx
    1e33:	8b 45 c8             	mov    -0x38(%ebp),%eax
    1e36:	0f ac d0 18          	shrd   $0x18,%edx,%eax
    1e3a:	88 45 e3             	mov    %al,-0x1d(%ebp)
    1e3d:	8b 45 cc             	mov    -0x34(%ebp),%eax
    1e40:	88 45 e4             	mov    %al,-0x1c(%ebp)
    1e43:	c1 e8 08             	shr    $0x8,%eax
    1e46:	88 45 e5             	mov    %al,-0x1b(%ebp)
    1e49:	31 c0                	xor    %eax,%eax
    1e4b:	8b 55 d4             	mov    -0x2c(%ebp),%edx
    1e4e:	b3 50                	mov    $0x50,%bl
    1e50:	f6 82 d0 00 00 00 01 	testb  $0x1,0xd0(%edx)
    1e57:	75 0a                	jne    1e63 <ata_bd_read_blocks+0x183>
    1e59:	b2 40                	mov    $0x40,%dl
    1e5b:	31 db                	xor    %ebx,%ebx
    1e5d:	85 c9                	test   %ecx,%ecx
    1e5f:	74 02                	je     1e63 <ata_bd_read_blocks+0x183>
    1e61:	88 d3                	mov    %dl,%bl
    1e63:	83 ec 0c             	sub    $0xc,%esp
    1e66:	09 c3                	or     %eax,%ebx
    1e68:	8d 86 bc 01 00 00    	lea    0x1bc(%esi),%eax
    1e6e:	50                   	push   %eax
    1e6f:	89 45 c0             	mov    %eax,-0x40(%ebp)
    1e72:	e8 89 cf 00 00       	call   ee00 <fibril_mutex_lock@plt>
    1e77:	8b 46 0c             	mov    0xc(%esi),%eax
    1e7a:	83 c0 07             	add    $0x7,%eax
    1e7d:	89 04 24             	mov    %eax,(%esp)
    1e80:	e8 eb cb 00 00       	call   ea70 <pio_read_8@plt>
    1e85:	83 c4 10             	add    $0x10,%esp
    1e88:	84 c0                	test   %al,%al
    1e8a:	79 26                	jns    1eb2 <ata_bd_read_blocks+0x1d2>
    1e8c:	bf 63 00 00 00       	mov    $0x63,%edi
    1e91:	8d b4 26 00 00 00 00 	lea    0x0(%esi,%eiz,1),%esi
    1e98:	83 ec 0c             	sub    $0xc,%esp
    1e9b:	8b 46 0c             	mov    0xc(%esi),%eax
    1e9e:	83 c0 07             	add    $0x7,%eax
    1ea1:	50                   	push   %eax
    1ea2:	e8 c9 cb 00 00       	call   ea70 <pio_read_8@plt>
    1ea7:	83 c4 10             	add    $0x10,%esp
    1eaa:	84 c0                	test   %al,%al
    1eac:	0f 88 a6 00 00 00    	js     1f58 <ata_bd_read_blocks+0x278>
    1eb2:	52                   	push   %edx
    1eb3:	52                   	push   %edx
    1eb4:	8b 46 0c             	mov    0xc(%esi),%eax
    1eb7:	83 c0 06             	add    $0x6,%eax
    1eba:	0f be db             	movsbl %bl,%ebx
    1ebd:	53                   	push   %ebx
    1ebe:	50                   	push   %eax
    1ebf:	e8 2c cc 00 00       	call   eaf0 <pio_write_8@plt>
    1ec4:	8b 46 0c             	mov    0xc(%esi),%eax
    1ec7:	83 c0 07             	add    $0x7,%eax
    1eca:	bb 64 00 00 00       	mov    $0x64,%ebx
    1ecf:	89 04 24             	mov    %eax,(%esp)
    1ed2:	e8 99 cb 00 00       	call   ea70 <pio_read_8@plt>
    1ed7:	83 c4 10             	add    $0x10,%esp
    1eda:	eb 19                	jmp    1ef5 <ata_bd_read_blocks+0x215>
    1edc:	8d 74 26 00          	lea    0x0(%esi,%eiz,1),%esi
    1ee0:	4b                   	dec    %ebx
    1ee1:	74 1a                	je     1efd <ata_bd_read_blocks+0x21d>
    1ee3:	83 ec 0c             	sub    $0xc,%esp
    1ee6:	8b 46 0c             	mov    0xc(%esi),%eax
    1ee9:	83 c0 07             	add    $0x7,%eax
    1eec:	50                   	push   %eax
    1eed:	e8 7e cb 00 00       	call   ea70 <pio_read_8@plt>
    1ef2:	83 c4 10             	add    $0x10,%esp
    1ef5:	84 c0                	test   %al,%al
    1ef7:	78 e7                	js     1ee0 <ata_bd_read_blocks+0x200>
    1ef9:	a8 40                	test   $0x40,%al
    1efb:	74 e3                	je     1ee0 <ata_bd_read_blocks+0x200>
    1efd:	bb e8 03 00 00       	mov    $0x3e8,%ebx
    1f02:	eb 16                	jmp    1f1a <ata_bd_read_blocks+0x23a>
    1f04:	8d 74 26 00          	lea    0x0(%esi,%eiz,1),%esi
    1f08:	83 ec 0c             	sub    $0xc,%esp
    1f0b:	8b 46 0c             	mov    0xc(%esi),%eax
    1f0e:	83 c0 07             	add    $0x7,%eax
    1f11:	50                   	push   %eax
    1f12:	e8 59 cb 00 00       	call   ea70 <pio_read_8@plt>
    1f17:	83 c4 10             	add    $0x10,%esp
    1f1a:	84 c0                	test   %al,%al
    1f1c:	78 08                	js     1f26 <ata_bd_read_blocks+0x246>
    1f1e:	a8 40                	test   $0x40,%al
    1f20:	0f 85 82 00 00 00    	jne    1fa8 <ata_bd_read_blocks+0x2c8>
    1f26:	83 ec 0c             	sub    $0xc,%esp
    1f29:	68 10 27 00 00       	push   $0x2710
    1f2e:	e8 1d cd 00 00       	call   ec50 <async_usleep@plt>
    1f33:	83 c4 10             	add    $0x10,%esp
    1f36:	4b                   	dec    %ebx
    1f37:	75 cf                	jne    1f08 <ata_bd_read_blocks+0x228>
    1f39:	83 ec 0c             	sub    $0xc,%esp
    1f3c:	8b 45 c0             	mov    -0x40(%ebp),%eax
    1f3f:	50                   	push   %eax
    1f40:	e8 fb cb 00 00       	call   eb40 <fibril_mutex_unlock@plt>
    1f45:	83 c4 10             	add    $0x10,%esp
    1f48:	8d 65 f4             	lea    -0xc(%ebp),%esp
    1f4b:	b8 f6 fe ff ff       	mov    $0xfffffef6,%eax
    1f50:	5b                   	pop    %ebx
    1f51:	5e                   	pop    %esi
    1f52:	5f                   	pop    %edi
    1f53:	5d                   	pop    %ebp
    1f54:	c3                   	ret    
    1f55:	8d 76 00             	lea    0x0(%esi),%esi
    1f58:	4f                   	dec    %edi
    1f59:	0f 85 39 ff ff ff    	jne    1e98 <ata_bd_read_blocks+0x1b8>
    1f5f:	83 ec 0c             	sub    $0xc,%esp
    1f62:	bf 63 00 00 00       	mov    $0x63,%edi
    1f67:	68 10 27 00 00       	push   $0x2710
    1f6c:	e8 df cc 00 00       	call   ec50 <async_usleep@plt>
    1f71:	83 c4 10             	add    $0x10,%esp
    1f74:	83 ec 0c             	sub    $0xc,%esp
    1f77:	8b 46 0c             	mov    0xc(%esi),%eax
    1f7a:	83 c0 07             	add    $0x7,%eax
    1f7d:	50                   	push   %eax
    1f7e:	e8 ed ca 00 00       	call   ea70 <pio_read_8@plt>
    1f83:	83 c4 10             	add    $0x10,%esp
    1f86:	84 c0                	test   %al,%al
    1f88:	0f 89 24 ff ff ff    	jns    1eb2 <ata_bd_read_blocks+0x1d2>
    1f8e:	83 ec 0c             	sub    $0xc,%esp
    1f91:	68 10 27 00 00       	push   $0x2710
    1f96:	e8 b5 cc 00 00       	call   ec50 <async_usleep@plt>
    1f9b:	83 c4 10             	add    $0x10,%esp
    1f9e:	4f                   	dec    %edi
    1f9f:	75 d3                	jne    1f74 <ata_bd_read_blocks+0x294>
    1fa1:	eb 96                	jmp    1f39 <ata_bd_read_blocks+0x259>
    1fa3:	90                   	nop
    1fa4:	8d 74 26 00          	lea    0x0(%esi,%eiz,1),%esi
    1fa8:	8b 46 0c             	mov    0xc(%esi),%eax
    1fab:	83 7d dc 02          	cmpl   $0x2,-0x24(%ebp)
    1faf:	8d 50 02             	lea    0x2(%eax),%edx
    1fb2:	0f 84 57 02 00 00    	je     220f <ata_bd_read_blocks+0x52f>
    1fb8:	8d 78 03             	lea    0x3(%eax),%edi
    1fbb:	8d 58 04             	lea    0x4(%eax),%ebx
    1fbe:	83 c0 05             	add    $0x5,%eax
    1fc1:	89 45 b0             	mov    %eax,-0x50(%ebp)
    1fc4:	50                   	push   %eax
    1fc5:	50                   	push   %eax
    1fc6:	6a 01                	push   $0x1
    1fc8:	52                   	push   %edx
    1fc9:	e8 22 cb 00 00       	call   eaf0 <pio_write_8@plt>
    1fce:	58                   	pop    %eax
    1fcf:	31 c0                	xor    %eax,%eax
    1fd1:	5a                   	pop    %edx
    1fd2:	8a 45 e0             	mov    -0x20(%ebp),%al
    1fd5:	50                   	push   %eax
    1fd6:	57                   	push   %edi
    1fd7:	e8 14 cb 00 00       	call   eaf0 <pio_write_8@plt>
    1fdc:	31 c0                	xor    %eax,%eax
    1fde:	8a 45 e1             	mov    -0x1f(%ebp),%al
    1fe1:	59                   	pop    %ecx
    1fe2:	5f                   	pop    %edi
    1fe3:	50                   	push   %eax
    1fe4:	53                   	push   %ebx
    1fe5:	e8 06 cb 00 00       	call   eaf0 <pio_write_8@plt>
    1fea:	58                   	pop    %eax
    1feb:	31 c0                	xor    %eax,%eax
    1fed:	8a 45 e2             	mov    -0x1e(%ebp),%al
    1ff0:	8b 4d b0             	mov    -0x50(%ebp),%ecx
    1ff3:	5a                   	pop    %edx
    1ff4:	50                   	push   %eax
    1ff5:	51                   	push   %ecx
    1ff6:	e8 f5 ca 00 00       	call   eaf0 <pio_write_8@plt>
    1ffb:	5b                   	pop    %ebx
    1ffc:	5f                   	pop    %edi
    1ffd:	8b 7d d4             	mov    -0x2c(%ebp),%edi
    2000:	83 7f 10 02          	cmpl   $0x2,0x10(%edi)
    2004:	0f 94 c0             	sete   %al
    2007:	25 ff 00 00 00       	and    $0xff,%eax
    200c:	8d 04 85 20 00 00 00 	lea    0x20(,%eax,4),%eax
    2013:	50                   	push   %eax
    2014:	8b 46 0c             	mov    0xc(%esi),%eax
    2017:	83 c0 07             	add    $0x7,%eax
    201a:	50                   	push   %eax
    201b:	e8 d0 ca 00 00       	call   eaf0 <pio_write_8@plt>
    2020:	89 f8                	mov    %edi,%eax
    2022:	8b 7f 28             	mov    0x28(%edi),%edi
    2025:	83 c4 10             	add    $0x10,%esp
    2028:	8b 70 04             	mov    0x4(%eax),%esi
    202b:	f7 c7 01 00 00 00    	test   $0x1,%edi
    2031:	0f 85 47 02 00 00    	jne    227e <ata_bd_read_blocks+0x59e>
    2037:	83 ec 0c             	sub    $0xc,%esp
    203a:	8b 46 0c             	mov    0xc(%esi),%eax
    203d:	83 c0 07             	add    $0x7,%eax
    2040:	50                   	push   %eax
    2041:	e8 2a ca 00 00       	call   ea70 <pio_read_8@plt>
    2046:	83 c4 10             	add    $0x10,%esp
    2049:	88 c2                	mov    %al,%dl
    204b:	84 c0                	test   %al,%al
    204d:	79 21                	jns    2070 <ata_bd_read_blocks+0x390>
    204f:	bb 63 00 00 00       	mov    $0x63,%ebx
    2054:	8d 74 26 00          	lea    0x0(%esi,%eiz,1),%esi
    2058:	83 ec 0c             	sub    $0xc,%esp
    205b:	8b 46 0c             	mov    0xc(%esi),%eax
    205e:	83 c0 07             	add    $0x7,%eax
    2061:	50                   	push   %eax
    2062:	e8 09 ca 00 00       	call   ea70 <pio_read_8@plt>
    2067:	83 c4 10             	add    $0x10,%esp
    206a:	84 c0                	test   %al,%al
    206c:	78 5a                	js     20c8 <ata_bd_read_blocks+0x3e8>
    206e:	88 c2                	mov    %al,%dl
    2070:	f6 c2 08             	test   $0x8,%dl
    2073:	74 30                	je     20a5 <ata_bd_read_blocks+0x3c5>
    2075:	89 f8                	mov    %edi,%eax
    2077:	d1 e8                	shr    %eax
    2079:	74 2a                	je     20a5 <ata_bd_read_blocks+0x3c5>
    207b:	8b 7d 18             	mov    0x18(%ebp),%edi
    207e:	88 55 b0             	mov    %dl,-0x50(%ebp)
    2081:	8d 1c 47             	lea    (%edi,%eax,2),%ebx
    2084:	8d 74 26 00          	lea    0x0(%esi,%eiz,1),%esi
    2088:	83 ec 0c             	sub    $0xc,%esp
    208b:	8b 46 0c             	mov    0xc(%esi),%eax
    208e:	83 c7 02             	add    $0x2,%edi
    2091:	50                   	push   %eax
    2092:	e8 39 cb 00 00       	call   ebd0 <pio_read_16@plt>
    2097:	66 89 47 fe          	mov    %ax,-0x2(%edi)
    209b:	83 c4 10             	add    $0x10,%esp
    209e:	39 df                	cmp    %ebx,%edi
    20a0:	75 e6                	jne    2088 <ata_bd_read_blocks+0x3a8>
    20a2:	8a 55 b0             	mov    -0x50(%ebp),%dl
    20a5:	83 e2 01             	and    $0x1,%edx
    20a8:	0f 85 8b fe ff ff    	jne    1f39 <ata_bd_read_blocks+0x259>
    20ae:	83 ec 0c             	sub    $0xc,%esp
    20b1:	8b 4d c0             	mov    -0x40(%ebp),%ecx
    20b4:	51                   	push   %ecx
    20b5:	e8 86 ca 00 00       	call   eb40 <fibril_mutex_unlock@plt>
    20ba:	83 c4 10             	add    $0x10,%esp
    20bd:	e9 e7 fc ff ff       	jmp    1da9 <ata_bd_read_blocks+0xc9>
    20c2:	8d b6 00 00 00 00    	lea    0x0(%esi),%esi
    20c8:	4b                   	dec    %ebx
    20c9:	75 8d                	jne    2058 <ata_bd_read_blocks+0x378>
    20cb:	83 ec 0c             	sub    $0xc,%esp
    20ce:	bb 63 00 00 00       	mov    $0x63,%ebx
    20d3:	68 10 27 00 00       	push   $0x2710
    20d8:	e8 73 cb 00 00       	call   ec50 <async_usleep@plt>
    20dd:	83 c4 10             	add    $0x10,%esp
    20e0:	83 ec 0c             	sub    $0xc,%esp
    20e3:	8b 46 0c             	mov    0xc(%esi),%eax
    20e6:	83 c0 07             	add    $0x7,%eax
    20e9:	50                   	push   %eax
    20ea:	e8 81 c9 00 00       	call   ea70 <pio_read_8@plt>
    20ef:	83 c4 10             	add    $0x10,%esp
    20f2:	84 c0                	test   %al,%al
    20f4:	0f 89 74 ff ff ff    	jns    206e <ata_bd_read_blocks+0x38e>
    20fa:	83 ec 0c             	sub    $0xc,%esp
    20fd:	68 10 27 00 00       	push   $0x2710
    2102:	e8 49 cb 00 00       	call   ec50 <async_usleep@plt>
    2107:	83 c4 10             	add    $0x10,%esp
    210a:	4b                   	dec    %ebx
    210b:	75 d3                	jne    20e0 <ata_bd_read_blocks+0x400>
    210d:	e9 27 fe ff ff       	jmp    1f39 <ata_bd_read_blocks+0x259>
    2112:	f6 80 d0 00 00 00 01 	testb  $0x1,0xd0(%eax)
    2119:	8a 45 e6             	mov    -0x1a(%ebp),%al
    211c:	0f 85 49 01 00 00    	jne    226b <ata_bd_read_blocks+0x58b>
    2122:	83 e0 0f             	and    $0xf,%eax
    2125:	e9 2f fd ff ff       	jmp    1e59 <ata_bd_read_blocks+0x179>
    212a:	8b 78 1c             	mov    0x1c(%eax),%edi
    212d:	8b 48 14             	mov    0x14(%eax),%ecx
    2130:	0f af cf             	imul   %edi,%ecx
    2133:	31 db                	xor    %ebx,%ebx
    2135:	89 4d c0             	mov    %ecx,-0x40(%ebp)
    2138:	53                   	push   %ebx
    2139:	89 5d c4             	mov    %ebx,-0x3c(%ebp)
    213c:	51                   	push   %ecx
    213d:	8b 5d c8             	mov    -0x38(%ebp),%ebx
    2140:	8b 4d cc             	mov    -0x34(%ebp),%ecx
    2143:	51                   	push   %ecx
    2144:	53                   	push   %ebx
    2145:	e8 e6 c8 00 00       	call   ea30 <__udivdi3@plt>
    214a:	83 c4 10             	add    $0x10,%esp
    214d:	8b 4d c0             	mov    -0x40(%ebp),%ecx
    2150:	8b 5d c4             	mov    -0x3c(%ebp),%ebx
    2153:	89 45 b0             	mov    %eax,-0x50(%ebp)
    2156:	8b 45 cc             	mov    -0x34(%ebp),%eax
    2159:	53                   	push   %ebx
    215a:	51                   	push   %ecx
    215b:	50                   	push   %eax
    215c:	8b 45 c8             	mov    -0x38(%ebp),%eax
    215f:	50                   	push   %eax
    2160:	89 55 b4             	mov    %edx,-0x4c(%ebp)
    2163:	e8 b8 c8 00 00       	call   ea20 <__umoddi3@plt>
    2168:	83 c4 10             	add    $0x10,%esp
    216b:	89 45 c0             	mov    %eax,-0x40(%ebp)
    216e:	89 55 c4             	mov    %edx,-0x3c(%ebp)
    2171:	8b 45 b0             	mov    -0x50(%ebp),%eax
    2174:	8b 55 b4             	mov    -0x4c(%ebp),%edx
    2177:	88 45 e1             	mov    %al,-0x1f(%ebp)
    217a:	31 db                	xor    %ebx,%ebx
    217c:	0f ac d0 08          	shrd   $0x8,%edx,%eax
    2180:	88 45 e2             	mov    %al,-0x1e(%ebp)
    2183:	8b 45 c4             	mov    -0x3c(%ebp),%eax
    2186:	53                   	push   %ebx
    2187:	57                   	push   %edi
    2188:	50                   	push   %eax
    2189:	8b 45 c0             	mov    -0x40(%ebp),%eax
    218c:	89 7d b0             	mov    %edi,-0x50(%ebp)
    218f:	89 5d b4             	mov    %ebx,-0x4c(%ebp)
    2192:	50                   	push   %eax
    2193:	e8 98 c8 00 00       	call   ea30 <__udivdi3@plt>
    2198:	89 c7                	mov    %eax,%edi
    219a:	83 c4 10             	add    $0x10,%esp
    219d:	83 e7 0f             	and    $0xf,%edi
    21a0:	8b 4d b0             	mov    -0x50(%ebp),%ecx
    21a3:	89 f8                	mov    %edi,%eax
    21a5:	8b 5d b4             	mov    -0x4c(%ebp),%ebx
    21a8:	88 45 e6             	mov    %al,-0x1a(%ebp)
    21ab:	8b 45 c4             	mov    -0x3c(%ebp),%eax
    21ae:	53                   	push   %ebx
    21af:	51                   	push   %ecx
    21b0:	50                   	push   %eax
    21b1:	8b 45 c0             	mov    -0x40(%ebp),%eax
    21b4:	50                   	push   %eax
    21b5:	e8 66 c8 00 00       	call   ea20 <__umoddi3@plt>
    21ba:	40                   	inc    %eax
    21bb:	83 c4 10             	add    $0x10,%esp
    21be:	88 45 e0             	mov    %al,-0x20(%ebp)
    21c1:	8b 45 d4             	mov    -0x2c(%ebp),%eax
    21c4:	f6 80 d0 00 00 00 01 	testb  $0x1,0xd0(%eax)
    21cb:	89 f8                	mov    %edi,%eax
    21cd:	0f 84 a4 00 00 00    	je     2277 <ata_bd_read_blocks+0x597>
    21d3:	b3 10                	mov    $0x10,%bl
    21d5:	e9 89 fc ff ff       	jmp    1e63 <ata_bd_read_blocks+0x183>
    21da:	8a 45 d0             	mov    -0x30(%ebp),%al
    21dd:	8b 55 cc             	mov    -0x34(%ebp),%edx
    21e0:	88 45 e0             	mov    %al,-0x20(%ebp)
    21e3:	8b 45 c8             	mov    -0x38(%ebp),%eax
    21e6:	0f ac d0 08          	shrd   $0x8,%edx,%eax
    21ea:	88 45 e1             	mov    %al,-0x1f(%ebp)
    21ed:	8b 55 cc             	mov    -0x34(%ebp),%edx
    21f0:	8b 45 c8             	mov    -0x38(%ebp),%eax
    21f3:	0f ac d0 10          	shrd   $0x10,%edx,%eax
    21f7:	88 45 e2             	mov    %al,-0x1e(%ebp)
    21fa:	8b 55 cc             	mov    -0x34(%ebp),%edx
    21fd:	8b 45 c8             	mov    -0x38(%ebp),%eax
    2200:	0f ac d0 18          	shrd   $0x18,%edx,%eax
    2204:	83 e0 0f             	and    $0xf,%eax
    2207:	88 45 e6             	mov    %al,-0x1a(%ebp)
    220a:	e9 3c fc ff ff       	jmp    1e4b <ata_bd_read_blocks+0x16b>
    220f:	89 45 b0             	mov    %eax,-0x50(%ebp)
    2212:	89 55 b8             	mov    %edx,-0x48(%ebp)
    2215:	50                   	push   %eax
    2216:	50                   	push   %eax
    2217:	6a 00                	push   $0x0
    2219:	52                   	push   %edx
    221a:	e8 d1 c8 00 00       	call   eaf0 <pio_write_8@plt>
    221f:	8b 45 b0             	mov    -0x50(%ebp),%eax
    2222:	31 c9                	xor    %ecx,%ecx
    2224:	8d 78 03             	lea    0x3(%eax),%edi
    2227:	8a 4d e3             	mov    -0x1d(%ebp),%cl
    222a:	58                   	pop    %eax
    222b:	5a                   	pop    %edx
    222c:	51                   	push   %ecx
    222d:	57                   	push   %edi
    222e:	e8 bd c8 00 00       	call   eaf0 <pio_write_8@plt>
    2233:	8b 45 b0             	mov    -0x50(%ebp),%eax
    2236:	59                   	pop    %ecx
    2237:	31 c9                	xor    %ecx,%ecx
    2239:	8a 4d e4             	mov    -0x1c(%ebp),%cl
    223c:	8d 58 04             	lea    0x4(%eax),%ebx
    223f:	58                   	pop    %eax
    2240:	51                   	push   %ecx
    2241:	53                   	push   %ebx
    2242:	e8 a9 c8 00 00       	call   eaf0 <pio_write_8@plt>
    2247:	8b 45 b0             	mov    -0x50(%ebp),%eax
    224a:	83 c0 05             	add    $0x5,%eax
    224d:	89 c1                	mov    %eax,%ecx
    224f:	89 45 b0             	mov    %eax,-0x50(%ebp)
    2252:	58                   	pop    %eax
    2253:	31 c0                	xor    %eax,%eax
    2255:	8a 45 e5             	mov    -0x1b(%ebp),%al
    2258:	5a                   	pop    %edx
    2259:	50                   	push   %eax
    225a:	51                   	push   %ecx
    225b:	e8 90 c8 00 00       	call   eaf0 <pio_write_8@plt>
    2260:	83 c4 10             	add    $0x10,%esp
    2263:	8b 55 b8             	mov    -0x48(%ebp),%edx
    2266:	e9 59 fd ff ff       	jmp    1fc4 <ata_bd_read_blocks+0x2e4>
    226b:	83 e0 0f             	and    $0xf,%eax
    226e:	b2 50                	mov    $0x50,%dl
    2270:	b3 10                	mov    $0x10,%bl
    2272:	e9 e6 fb ff ff       	jmp    1e5d <ata_bd_read_blocks+0x17d>
    2277:	31 db                	xor    %ebx,%ebx
    2279:	e9 e5 fb ff ff       	jmp    1e63 <ata_bd_read_blocks+0x183>
    227e:	50                   	push   %eax
    227f:	68 65 02 00 00       	push   $0x265
    2284:	68 8f c7 00 00       	push   $0xc78f
    2289:	68 98 c7 00 00       	push   $0xc798
    228e:	e8 fd c7 00 00       	call   ea90 <assert_abort@plt>
    2293:	8d b6 00 00 00 00    	lea    0x0(%esi),%esi
    2299:	8d bc 27 00 00 00 00 	lea    0x0(%edi,%eiz,1),%edi

000022a0 <ata_bd_read_toc>:
    22a0:	55                   	push   %ebp
    22a1:	89 e5                	mov    %esp,%ebp
    22a3:	57                   	push   %edi
    22a4:	56                   	push   %esi
    22a5:	53                   	push   %ebx
    22a6:	83 ec 30             	sub    $0x30,%esp
    22a9:	8d 5d dc             	lea    -0x24(%ebp),%ebx
    22ac:	8b 45 08             	mov    0x8(%ebp),%eax
    22af:	8b 75 14             	mov    0x14(%ebp),%esi
    22b2:	8b 55 0c             	mov    0xc(%ebp),%edx
    22b5:	8b 00                	mov    (%eax),%eax
    22b7:	89 55 d4             	mov    %edx,-0x2c(%ebp)
    22ba:	8b 78 04             	mov    0x4(%eax),%edi
    22bd:	6a 0c                	push   $0xc
    22bf:	6a 00                	push   $0x0
    22c1:	53                   	push   %ebx
    22c2:	e8 49 c9 00 00       	call   ec10 <memset@plt>
    22c7:	89 f0                	mov    %esi,%eax
    22c9:	8b 55 d4             	mov    -0x2c(%ebp),%edx
    22cc:	8b 4d 10             	mov    0x10(%ebp),%ecx
    22cf:	66 c1 c0 08          	rol    $0x8,%ax
    22d3:	88 55 e2             	mov    %dl,-0x1e(%ebp)
    22d6:	66 89 45 e3          	mov    %ax,-0x1d(%ebp)
    22da:	58                   	pop    %eax
    22db:	89 f8                	mov    %edi,%eax
    22dd:	5a                   	pop    %edx
    22de:	89 da                	mov    %ebx,%edx
    22e0:	6a 00                	push   $0x0
    22e2:	c6 45 dc 43          	movb   $0x43,-0x24(%ebp)
    22e6:	56                   	push   %esi
    22e7:	c6 45 dd 00          	movb   $0x0,-0x23(%ebp)
    22eb:	c6 45 de 01          	movb   $0x1,-0x22(%ebp)
    22ef:	c6 45 e5 40          	movb   $0x40,-0x1b(%ebp)
    22f3:	e8 58 f6 ff ff       	call   1950 <ata_cmd_packet.constprop.12>
    22f8:	8d 65 f4             	lea    -0xc(%ebp),%esp
    22fb:	5b                   	pop    %ebx
    22fc:	5e                   	pop    %esi
    22fd:	5f                   	pop    %edi
    22fe:	5d                   	pop    %ebp
    22ff:	c3                   	ret    

00002300 <disk_init>:
    2300:	55                   	push   %ebp
    2301:	89 e5                	mov    %esp,%ebp
    2303:	57                   	push   %edi
    2304:	56                   	push   %esi
    2305:	53                   	push   %ebx
    2306:	81 ec 8c 02 00 00    	sub    $0x28c,%esp
    230c:	89 8a d0 00 00 00    	mov    %ecx,0xd0(%edx)
    2312:	83 e1 01             	and    $0x1,%ecx
    2315:	89 c3                	mov    %eax,%ebx
    2317:	89 95 74 fd ff ff    	mov    %edx,-0x28c(%ebp)
    231d:	89 42 04             	mov    %eax,0x4(%edx)
    2320:	c6 02 00             	movb   $0x0,(%edx)
    2323:	c7 42 08 00 00 00 00 	movl   $0x0,0x8(%edx)
    232a:	bf 10 00 00 00       	mov    $0x10,%edi
    232f:	75 02                	jne    2333 <disk_init+0x33>
    2331:	89 cf                	mov    %ecx,%edi
    2333:	83 ec 0c             	sub    $0xc,%esp
    2336:	8b 43 0c             	mov    0xc(%ebx),%eax
    2339:	83 c0 07             	add    $0x7,%eax
    233c:	50                   	push   %eax
    233d:	e8 2e c7 00 00       	call   ea70 <pio_read_8@plt>
    2342:	83 c4 10             	add    $0x10,%esp
    2345:	84 c0                	test   %al,%al
    2347:	79 21                	jns    236a <disk_init+0x6a>
    2349:	be 63 00 00 00       	mov    $0x63,%esi
    234e:	66 90                	xchg   %ax,%ax
    2350:	83 ec 0c             	sub    $0xc,%esp
    2353:	8b 43 0c             	mov    0xc(%ebx),%eax
    2356:	83 c0 07             	add    $0x7,%eax
    2359:	50                   	push   %eax
    235a:	e8 11 c7 00 00       	call   ea70 <pio_read_8@plt>
    235f:	83 c4 10             	add    $0x10,%esp
    2362:	84 c0                	test   %al,%al
    2364:	0f 88 fe 00 00 00    	js     2468 <disk_init+0x168>
    236a:	56                   	push   %esi
    236b:	56                   	push   %esi
    236c:	8b 43 0c             	mov    0xc(%ebx),%eax
    236f:	57                   	push   %edi
    2370:	83 c0 06             	add    $0x6,%eax
    2373:	50                   	push   %eax
    2374:	e8 77 c7 00 00       	call   eaf0 <pio_write_8@plt>
    2379:	8b 43 0c             	mov    0xc(%ebx),%eax
    237c:	83 c0 07             	add    $0x7,%eax
    237f:	89 04 24             	mov    %eax,(%esp)
    2382:	e8 e9 c6 00 00       	call   ea70 <pio_read_8@plt>
    2387:	83 c4 10             	add    $0x10,%esp
    238a:	84 c0                	test   %al,%al
    238c:	79 1f                	jns    23ad <disk_init+0xad>
    238e:	be 63 00 00 00       	mov    $0x63,%esi
    2393:	83 ec 0c             	sub    $0xc,%esp
    2396:	8b 43 0c             	mov    0xc(%ebx),%eax
    2399:	83 c0 07             	add    $0x7,%eax
    239c:	50                   	push   %eax
    239d:	e8 ce c6 00 00       	call   ea70 <pio_read_8@plt>
    23a2:	83 c4 10             	add    $0x10,%esp
    23a5:	84 c0                	test   %al,%al
    23a7:	0f 88 0b 01 00 00    	js     24b8 <disk_init+0x1b8>
    23ad:	51                   	push   %ecx
    23ae:	51                   	push   %ecx
    23af:	8b 43 0c             	mov    0xc(%ebx),%eax
    23b2:	68 ec 00 00 00       	push   $0xec
    23b7:	83 c0 07             	add    $0x7,%eax
    23ba:	50                   	push   %eax
    23bb:	e8 30 c7 00 00       	call   eaf0 <pio_write_8@plt>
    23c0:	8b 43 0c             	mov    0xc(%ebx),%eax
    23c3:	83 c0 07             	add    $0x7,%eax
    23c6:	89 04 24             	mov    %eax,(%esp)
    23c9:	e8 a2 c6 00 00       	call   ea70 <pio_read_8@plt>
    23ce:	83 c4 10             	add    $0x10,%esp
    23d1:	84 c0                	test   %al,%al
    23d3:	0f 88 2f 01 00 00    	js     2508 <disk_init+0x208>
    23d9:	a8 01                	test   $0x1,%al
    23db:	0f 85 26 02 00 00    	jne    2607 <disk_init+0x307>
    23e1:	83 ec 0c             	sub    $0xc,%esp
    23e4:	8b 43 0c             	mov    0xc(%ebx),%eax
    23e7:	83 c0 07             	add    $0x7,%eax
    23ea:	be 64 00 00 00       	mov    $0x64,%esi
    23ef:	50                   	push   %eax
    23f0:	e8 7b c6 00 00       	call   ea70 <pio_read_8@plt>
    23f5:	83 c4 10             	add    $0x10,%esp
    23f8:	eb 1b                	jmp    2415 <disk_init+0x115>
    23fa:	8d b6 00 00 00 00    	lea    0x0(%esi),%esi
    2400:	4e                   	dec    %esi
    2401:	74 1a                	je     241d <disk_init+0x11d>
    2403:	83 ec 0c             	sub    $0xc,%esp
    2406:	8b 43 0c             	mov    0xc(%ebx),%eax
    2409:	83 c0 07             	add    $0x7,%eax
    240c:	50                   	push   %eax
    240d:	e8 5e c6 00 00       	call   ea70 <pio_read_8@plt>
    2412:	83 c4 10             	add    $0x10,%esp
    2415:	84 c0                	test   %al,%al
    2417:	78 e7                	js     2400 <disk_init+0x100>
    2419:	a8 08                	test   $0x8,%al
    241b:	74 e3                	je     2400 <disk_init+0x100>
    241d:	be 64 00 00 00       	mov    $0x64,%esi
    2422:	eb 16                	jmp    243a <disk_init+0x13a>
    2424:	8d 74 26 00          	lea    0x0(%esi,%eiz,1),%esi
    2428:	83 ec 0c             	sub    $0xc,%esp
    242b:	8b 43 0c             	mov    0xc(%ebx),%eax
    242e:	83 c0 07             	add    $0x7,%eax
    2431:	50                   	push   %eax
    2432:	e8 39 c6 00 00       	call   ea70 <pio_read_8@plt>
    2437:	83 c4 10             	add    $0x10,%esp
    243a:	84 c0                	test   %al,%al
    243c:	78 08                	js     2446 <disk_init+0x146>
    243e:	a8 08                	test   $0x8,%al
    2440:	0f 85 32 01 00 00    	jne    2578 <disk_init+0x278>
    2446:	83 ec 0c             	sub    $0xc,%esp
    2449:	68 10 27 00 00       	push   $0x2710
    244e:	e8 fd c7 00 00       	call   ec50 <async_usleep@plt>
    2453:	83 c4 10             	add    $0x10,%esp
    2456:	4e                   	dec    %esi
    2457:	75 cf                	jne    2428 <disk_init+0x128>
    2459:	8d 65 f4             	lea    -0xc(%ebp),%esp
    245c:	b8 f6 fe ff ff       	mov    $0xfffffef6,%eax
    2461:	5b                   	pop    %ebx
    2462:	5e                   	pop    %esi
    2463:	5f                   	pop    %edi
    2464:	5d                   	pop    %ebp
    2465:	c3                   	ret    
    2466:	66 90                	xchg   %ax,%ax
    2468:	4e                   	dec    %esi
    2469:	0f 85 e1 fe ff ff    	jne    2350 <disk_init+0x50>
    246f:	83 ec 0c             	sub    $0xc,%esp
    2472:	be 63 00 00 00       	mov    $0x63,%esi
    2477:	68 10 27 00 00       	push   $0x2710
    247c:	e8 cf c7 00 00       	call   ec50 <async_usleep@plt>
    2481:	83 c4 10             	add    $0x10,%esp
    2484:	83 ec 0c             	sub    $0xc,%esp
    2487:	8b 43 0c             	mov    0xc(%ebx),%eax
    248a:	83 c0 07             	add    $0x7,%eax
    248d:	50                   	push   %eax
    248e:	e8 dd c5 00 00       	call   ea70 <pio_read_8@plt>
    2493:	83 c4 10             	add    $0x10,%esp
    2496:	84 c0                	test   %al,%al
    2498:	0f 89 cc fe ff ff    	jns    236a <disk_init+0x6a>
    249e:	83 ec 0c             	sub    $0xc,%esp
    24a1:	68 10 27 00 00       	push   $0x2710
    24a6:	e8 a5 c7 00 00       	call   ec50 <async_usleep@plt>
    24ab:	83 c4 10             	add    $0x10,%esp
    24ae:	4e                   	dec    %esi
    24af:	75 d3                	jne    2484 <disk_init+0x184>
    24b1:	eb a6                	jmp    2459 <disk_init+0x159>
    24b3:	90                   	nop
    24b4:	8d 74 26 00          	lea    0x0(%esi,%eiz,1),%esi
    24b8:	4e                   	dec    %esi
    24b9:	0f 85 d4 fe ff ff    	jne    2393 <disk_init+0x93>
    24bf:	83 ec 0c             	sub    $0xc,%esp
    24c2:	be 63 00 00 00       	mov    $0x63,%esi
    24c7:	68 10 27 00 00       	push   $0x2710
    24cc:	e8 7f c7 00 00       	call   ec50 <async_usleep@plt>
    24d1:	83 c4 10             	add    $0x10,%esp
    24d4:	83 ec 0c             	sub    $0xc,%esp
    24d7:	8b 43 0c             	mov    0xc(%ebx),%eax
    24da:	83 c0 07             	add    $0x7,%eax
    24dd:	50                   	push   %eax
    24de:	e8 8d c5 00 00       	call   ea70 <pio_read_8@plt>
    24e3:	83 c4 10             	add    $0x10,%esp
    24e6:	84 c0                	test   %al,%al
    24e8:	0f 89 bf fe ff ff    	jns    23ad <disk_init+0xad>
    24ee:	83 ec 0c             	sub    $0xc,%esp
    24f1:	68 10 27 00 00       	push   $0x2710
    24f6:	e8 55 c7 00 00       	call   ec50 <async_usleep@plt>
    24fb:	83 c4 10             	add    $0x10,%esp
    24fe:	4e                   	dec    %esi
    24ff:	75 d3                	jne    24d4 <disk_init+0x1d4>
    2501:	e9 53 ff ff ff       	jmp    2459 <disk_init+0x159>
    2506:	66 90                	xchg   %ax,%ax
    2508:	be 63 00 00 00       	mov    $0x63,%esi
    250d:	83 ec 0c             	sub    $0xc,%esp
    2510:	8b 43 0c             	mov    0xc(%ebx),%eax
    2513:	83 c0 07             	add    $0x7,%eax
    2516:	50                   	push   %eax
    2517:	e8 54 c5 00 00       	call   ea70 <pio_read_8@plt>
    251c:	83 c4 10             	add    $0x10,%esp
    251f:	84 c0                	test   %al,%al
    2521:	0f 89 b2 fe ff ff    	jns    23d9 <disk_init+0xd9>
    2527:	4e                   	dec    %esi
    2528:	75 e3                	jne    250d <disk_init+0x20d>
    252a:	83 ec 0c             	sub    $0xc,%esp
    252d:	be 63 00 00 00       	mov    $0x63,%esi
    2532:	68 10 27 00 00       	push   $0x2710
    2537:	e8 14 c7 00 00       	call   ec50 <async_usleep@plt>
    253c:	83 c4 10             	add    $0x10,%esp
    253f:	83 ec 0c             	sub    $0xc,%esp
    2542:	8b 43 0c             	mov    0xc(%ebx),%eax
    2545:	83 c0 07             	add    $0x7,%eax
    2548:	50                   	push   %eax
    2549:	e8 22 c5 00 00       	call   ea70 <pio_read_8@plt>
    254e:	83 c4 10             	add    $0x10,%esp
    2551:	84 c0                	test   %al,%al
    2553:	0f 89 80 fe ff ff    	jns    23d9 <disk_init+0xd9>
    2559:	83 ec 0c             	sub    $0xc,%esp
    255c:	68 10 27 00 00       	push   $0x2710
    2561:	e8 ea c6 00 00       	call   ec50 <async_usleep@plt>
    2566:	83 c4 10             	add    $0x10,%esp
    2569:	4e                   	dec    %esi
    256a:	75 d3                	jne    253f <disk_init+0x23f>
    256c:	e9 e8 fe ff ff       	jmp    2459 <disk_init+0x159>
    2571:	8d b4 26 00 00 00 00 	lea    0x0(%esi,%eiz,1),%esi
    2578:	8b 85 74 fd ff ff    	mov    -0x28c(%ebp),%eax
    257e:	83 ec 0c             	sub    $0xc,%esp
    2581:	8b 78 04             	mov    0x4(%eax),%edi
    2584:	8b 47 0c             	mov    0xc(%edi),%eax
    2587:	83 c0 07             	add    $0x7,%eax
    258a:	50                   	push   %eax
    258b:	e8 e0 c4 00 00       	call   ea70 <pio_read_8@plt>
    2590:	83 c4 10             	add    $0x10,%esp
    2593:	88 c2                	mov    %al,%dl
    2595:	84 c0                	test   %al,%al
    2597:	0f 89 8d 02 00 00    	jns    282a <disk_init+0x52a>
    259d:	be 63 00 00 00       	mov    $0x63,%esi
    25a2:	8d b6 00 00 00 00    	lea    0x0(%esi),%esi
    25a8:	83 ec 0c             	sub    $0xc,%esp
    25ab:	8b 47 0c             	mov    0xc(%edi),%eax
    25ae:	83 c0 07             	add    $0x7,%eax
    25b1:	50                   	push   %eax
    25b2:	e8 b9 c4 00 00       	call   ea70 <pio_read_8@plt>
    25b7:	83 c4 10             	add    $0x10,%esp
    25ba:	84 c0                	test   %al,%al
    25bc:	0f 89 66 02 00 00    	jns    2828 <disk_init+0x528>
    25c2:	4e                   	dec    %esi
    25c3:	75 e3                	jne    25a8 <disk_init+0x2a8>
    25c5:	83 ec 0c             	sub    $0xc,%esp
    25c8:	be 63 00 00 00       	mov    $0x63,%esi
    25cd:	68 10 27 00 00       	push   $0x2710
    25d2:	e8 79 c6 00 00       	call   ec50 <async_usleep@plt>
    25d7:	83 c4 10             	add    $0x10,%esp
    25da:	83 ec 0c             	sub    $0xc,%esp
    25dd:	8b 47 0c             	mov    0xc(%edi),%eax
    25e0:	83 c0 07             	add    $0x7,%eax
    25e3:	50                   	push   %eax
    25e4:	e8 87 c4 00 00       	call   ea70 <pio_read_8@plt>
    25e9:	83 c4 10             	add    $0x10,%esp
    25ec:	84 c0                	test   %al,%al
    25ee:	0f 89 34 02 00 00    	jns    2828 <disk_init+0x528>
    25f4:	83 ec 0c             	sub    $0xc,%esp
    25f7:	68 10 27 00 00       	push   $0x2710
    25fc:	e8 4f c6 00 00       	call   ec50 <async_usleep@plt>
    2601:	83 c4 10             	add    $0x10,%esp
    2604:	4e                   	dec    %esi
    2605:	75 d3                	jne    25da <disk_init+0x2da>
    2607:	83 ec 0c             	sub    $0xc,%esp
    260a:	8b 43 0c             	mov    0xc(%ebx),%eax
    260d:	83 c0 05             	add    $0x5,%eax
    2610:	50                   	push   %eax
    2611:	e8 5a c4 00 00       	call   ea70 <pio_read_8@plt>
    2616:	89 c6                	mov    %eax,%esi
    2618:	8b 43 0c             	mov    0xc(%ebx),%eax
    261b:	c1 e6 08             	shl    $0x8,%esi
    261e:	83 c0 04             	add    $0x4,%eax
    2621:	89 04 24             	mov    %eax,(%esp)
    2624:	e8 47 c4 00 00       	call   ea70 <pio_read_8@plt>
    2629:	88 c2                	mov    %al,%dl
    262b:	31 c0                	xor    %eax,%eax
    262d:	88 d0                	mov    %dl,%al
    262f:	83 c4 10             	add    $0x10,%esp
    2632:	09 c6                	or     %eax,%esi
    2634:	66 81 fe 14 eb       	cmp    $0xeb14,%si
    2639:	0f 85 1a fe ff ff    	jne    2459 <disk_init+0x159>
    263f:	8b 85 74 fd ff ff    	mov    -0x28c(%ebp),%eax
    2645:	8b 58 04             	mov    0x4(%eax),%ebx
    2648:	8b 80 d0 00 00 00    	mov    0xd0(%eax),%eax
    264e:	89 c7                	mov    %eax,%edi
    2650:	89 85 70 fd ff ff    	mov    %eax,-0x290(%ebp)
    2656:	83 e7 01             	and    $0x1,%edi
    2659:	74 05                	je     2660 <disk_init+0x360>
    265b:	bf 10 00 00 00       	mov    $0x10,%edi
    2660:	83 ec 0c             	sub    $0xc,%esp
    2663:	8b 43 0c             	mov    0xc(%ebx),%eax
    2666:	83 c0 07             	add    $0x7,%eax
    2669:	50                   	push   %eax
    266a:	e8 01 c4 00 00       	call   ea70 <pio_read_8@plt>
    266f:	83 c4 10             	add    $0x10,%esp
    2672:	84 c0                	test   %al,%al
    2674:	79 24                	jns    269a <disk_init+0x39a>
    2676:	be 63 00 00 00       	mov    $0x63,%esi
    267b:	90                   	nop
    267c:	8d 74 26 00          	lea    0x0(%esi,%eiz,1),%esi
    2680:	83 ec 0c             	sub    $0xc,%esp
    2683:	8b 43 0c             	mov    0xc(%ebx),%eax
    2686:	83 c0 07             	add    $0x7,%eax
    2689:	50                   	push   %eax
    268a:	e8 e1 c3 00 00       	call   ea70 <pio_read_8@plt>
    268f:	83 c4 10             	add    $0x10,%esp
    2692:	84 c0                	test   %al,%al
    2694:	0f 88 7e 02 00 00    	js     2918 <disk_init+0x618>
    269a:	52                   	push   %edx
    269b:	52                   	push   %edx
    269c:	8b 43 0c             	mov    0xc(%ebx),%eax
    269f:	57                   	push   %edi
    26a0:	83 c0 06             	add    $0x6,%eax
    26a3:	50                   	push   %eax
    26a4:	e8 47 c4 00 00       	call   eaf0 <pio_write_8@plt>
    26a9:	8b 43 0c             	mov    0xc(%ebx),%eax
    26ac:	83 c0 07             	add    $0x7,%eax
    26af:	89 04 24             	mov    %eax,(%esp)
    26b2:	e8 b9 c3 00 00       	call   ea70 <pio_read_8@plt>
    26b7:	83 c4 10             	add    $0x10,%esp
    26ba:	84 c0                	test   %al,%al
    26bc:	79 1f                	jns    26dd <disk_init+0x3dd>
    26be:	be 63 00 00 00       	mov    $0x63,%esi
    26c3:	83 ec 0c             	sub    $0xc,%esp
    26c6:	8b 43 0c             	mov    0xc(%ebx),%eax
    26c9:	83 c0 07             	add    $0x7,%eax
    26cc:	50                   	push   %eax
    26cd:	e8 9e c3 00 00       	call   ea70 <pio_read_8@plt>
    26d2:	83 c4 10             	add    $0x10,%esp
    26d5:	84 c0                	test   %al,%al
    26d7:	0f 88 8b 02 00 00    	js     2968 <disk_init+0x668>
    26dd:	50                   	push   %eax
    26de:	50                   	push   %eax
    26df:	8b 43 0c             	mov    0xc(%ebx),%eax
    26e2:	68 a1 00 00 00       	push   $0xa1
    26e7:	83 c0 07             	add    $0x7,%eax
    26ea:	50                   	push   %eax
    26eb:	e8 00 c4 00 00       	call   eaf0 <pio_write_8@plt>
    26f0:	8b 85 74 fd ff ff    	mov    -0x28c(%ebp),%eax
    26f6:	8b 70 04             	mov    0x4(%eax),%esi
    26f9:	8b 46 0c             	mov    0xc(%esi),%eax
    26fc:	83 c0 07             	add    $0x7,%eax
    26ff:	89 04 24             	mov    %eax,(%esp)
    2702:	e8 69 c3 00 00       	call   ea70 <pio_read_8@plt>
    2707:	83 c4 10             	add    $0x10,%esp
    270a:	88 c2                	mov    %al,%dl
    270c:	84 c0                	test   %al,%al
    270e:	0f 88 a4 02 00 00    	js     29b8 <disk_init+0x6b8>
    2714:	f6 c2 08             	test   $0x8,%dl
    2717:	74 2f                	je     2748 <disk_init+0x448>
    2719:	8d bd e8 fd ff ff    	lea    -0x218(%ebp),%edi
    271f:	8d 5d e8             	lea    -0x18(%ebp),%ebx
    2722:	88 95 70 fd ff ff    	mov    %dl,-0x290(%ebp)
    2728:	83 ec 0c             	sub    $0xc,%esp
    272b:	8b 46 0c             	mov    0xc(%esi),%eax
    272e:	83 c7 02             	add    $0x2,%edi
    2731:	50                   	push   %eax
    2732:	e8 99 c4 00 00       	call   ebd0 <pio_read_16@plt>
    2737:	66 89 47 fe          	mov    %ax,-0x2(%edi)
    273b:	83 c4 10             	add    $0x10,%esp
    273e:	39 df                	cmp    %ebx,%edi
    2740:	75 e6                	jne    2728 <disk_init+0x428>
    2742:	8a 95 70 fd ff ff    	mov    -0x290(%ebp),%dl
    2748:	83 e2 01             	and    $0x1,%edx
    274b:	0f 85 08 fd ff ff    	jne    2459 <disk_init+0x159>
    2751:	8b 85 74 fd ff ff    	mov    -0x28c(%ebp),%eax
    2757:	c7 40 0c 01 00 00 00 	movl   $0x1,0xc(%eax)
    275e:	c7 40 10 00 00 00 00 	movl   $0x0,0x10(%eax)
    2765:	c7 40 18 00 00 00 00 	movl   $0x0,0x18(%eax)
    276c:	c7 40 14 00 00 00 00 	movl   $0x0,0x14(%eax)
    2773:	c7 40 1c 00 00 00 00 	movl   $0x0,0x1c(%eax)
    277a:	c7 40 20 00 00 00 00 	movl   $0x0,0x20(%eax)
    2781:	c7 40 24 00 00 00 00 	movl   $0x0,0x24(%eax)
    2788:	31 c0                	xor    %eax,%eax
    278a:	8d b6 00 00 00 00    	lea    0x0(%esi),%esi
    2790:	66 8b 94 45 1e fe ff 	mov    -0x1e2(%ebp,%eax,2),%dx
    2797:	ff 
    2798:	89 d1                	mov    %edx,%ecx
    279a:	88 94 45 c1 fd ff ff 	mov    %dl,-0x23f(%ebp,%eax,2)
    27a1:	66 c1 e9 08          	shr    $0x8,%cx
    27a5:	88 8c 45 c0 fd ff ff 	mov    %cl,-0x240(%ebp,%eax,2)
    27ac:	40                   	inc    %eax
    27ad:	83 f8 14             	cmp    $0x14,%eax
    27b0:	75 de                	jne    2790 <disk_init+0x490>
    27b2:	bb 28 00 00 00       	mov    $0x28,%ebx
    27b7:	eb 11                	jmp    27ca <disk_init+0x4ca>
    27b9:	8d b4 26 00 00 00 00 	lea    0x0(%esi,%eiz,1),%esi
    27c0:	89 c3                	mov    %eax,%ebx
    27c2:	85 c0                	test   %eax,%eax
    27c4:	0f 84 8b 02 00 00    	je     2a55 <disk_init+0x755>
    27ca:	8d 43 ff             	lea    -0x1(%ebx),%eax
    27cd:	80 bc 05 c0 fd ff ff 	cmpb   $0x20,-0x240(%ebp,%eax,1)
    27d4:	20 
    27d5:	74 e9                	je     27c0 <disk_init+0x4c0>
    27d7:	8b 85 74 fd ff ff    	mov    -0x28c(%ebp),%eax
    27dd:	8d b5 c0 fd ff ff    	lea    -0x240(%ebp),%esi
    27e3:	c7 85 80 fd ff ff 00 	movl   $0x0,-0x280(%ebp)
    27ea:	00 00 00 
    27ed:	01 f3                	add    %esi,%ebx
    27ef:	8d 78 2c             	lea    0x2c(%eax),%edi
    27f2:	eb 24                	jmp    2818 <disk_init+0x518>
    27f4:	8d 74 26 00          	lea    0x0(%esi,%eiz,1),%esi
    27f8:	8d 85 80 fd ff ff    	lea    -0x280(%ebp),%eax
    27fe:	6a 28                	push   $0x28
    2800:	50                   	push   %eax
    2801:	31 c0                	xor    %eax,%eax
    2803:	88 c8                	mov    %cl,%al
    2805:	57                   	push   %edi
    2806:	46                   	inc    %esi
    2807:	50                   	push   %eax
    2808:	e8 73 c5 00 00       	call   ed80 <chr_encode@plt>
    280d:	83 c4 10             	add    $0x10,%esp
    2810:	39 f3                	cmp    %esi,%ebx
    2812:	0f 84 10 02 00 00    	je     2a28 <disk_init+0x728>
    2818:	8a 0e                	mov    (%esi),%cl
    281a:	84 c9                	test   %cl,%cl
    281c:	79 da                	jns    27f8 <disk_init+0x4f8>
    281e:	b1 3f                	mov    $0x3f,%cl
    2820:	eb d6                	jmp    27f8 <disk_init+0x4f8>
    2822:	8d b6 00 00 00 00    	lea    0x0(%esi),%esi
    2828:	88 c2                	mov    %al,%dl
    282a:	f6 c2 08             	test   $0x8,%dl
    282d:	74 36                	je     2865 <disk_init+0x565>
    282f:	8d b5 e8 fd ff ff    	lea    -0x218(%ebp),%esi
    2835:	89 9d 70 fd ff ff    	mov    %ebx,-0x290(%ebp)
    283b:	89 f3                	mov    %esi,%ebx
    283d:	89 d6                	mov    %edx,%esi
    283f:	90                   	nop
    2840:	83 ec 0c             	sub    $0xc,%esp
    2843:	8b 47 0c             	mov    0xc(%edi),%eax
    2846:	83 c3 02             	add    $0x2,%ebx
    2849:	50                   	push   %eax
    284a:	e8 81 c3 00 00       	call   ebd0 <pio_read_16@plt>
    284f:	66 89 43 fe          	mov    %ax,-0x2(%ebx)
    2853:	8d 45 e8             	lea    -0x18(%ebp),%eax
    2856:	83 c4 10             	add    $0x10,%esp
    2859:	39 c3                	cmp    %eax,%ebx
    285b:	75 e3                	jne    2840 <disk_init+0x540>
    285d:	89 f2                	mov    %esi,%edx
    285f:	8b 9d 70 fd ff ff    	mov    -0x290(%ebp),%ebx
    2865:	83 e2 01             	and    $0x1,%edx
    2868:	0f 85 99 fd ff ff    	jne    2607 <disk_init+0x307>
    286e:	50                   	push   %eax
    286f:	50                   	push   %eax
    2870:	68 b4 c8 00 00       	push   $0xc8b4
    2875:	6a 03                	push   $0x3
    2877:	e8 04 20 00 00       	call   4880 <ddf_msg>
    287c:	8b 85 74 fd ff ff    	mov    -0x28c(%ebp),%eax
    2882:	83 c4 10             	add    $0x10,%esp
    2885:	c7 40 0c 00 00 00 00 	movl   $0x0,0xc(%eax)
    288c:	f6 85 4b fe ff ff 02 	testb  $0x2,-0x1b5(%ebp)
    2893:	75 43                	jne    28d8 <disk_init+0x5d8>
    2895:	89 c7                	mov    %eax,%edi
    2897:	c7 40 10 00 00 00 00 	movl   $0x0,0x10(%eax)
    289e:	31 c9                	xor    %ecx,%ecx
    28a0:	31 c0                	xor    %eax,%eax
    28a2:	66 8b 85 ea fd ff ff 	mov    -0x216(%ebp),%ax
    28a9:	66 8b 8d ee fd ff ff 	mov    -0x212(%ebp),%cx
    28b0:	89 47 18             	mov    %eax,0x18(%edi)
    28b3:	31 d2                	xor    %edx,%edx
    28b5:	0f af c1             	imul   %ecx,%eax
    28b8:	66 8b 95 f4 fd ff ff 	mov    -0x20c(%ebp),%dx
    28bf:	89 4f 14             	mov    %ecx,0x14(%edi)
    28c2:	0f af c2             	imul   %edx,%eax
    28c5:	89 57 1c             	mov    %edx,0x1c(%edi)
    28c8:	89 47 20             	mov    %eax,0x20(%edi)
    28cb:	c7 47 24 00 00 00 00 	movl   $0x0,0x24(%edi)
    28d2:	e9 b1 fe ff ff       	jmp    2788 <disk_init+0x488>
    28d7:	90                   	nop
    28d8:	f6 85 8f fe ff ff 04 	testb  $0x4,-0x171(%ebp)
    28df:	0f 85 7e 01 00 00    	jne    2a63 <disk_init+0x763>
    28e5:	8b 8d 60 fe ff ff    	mov    -0x1a0(%ebp),%ecx
    28eb:	c7 40 10 01 00 00 00 	movl   $0x1,0x10(%eax)
    28f2:	c7 40 18 00 00 00 00 	movl   $0x0,0x18(%eax)
    28f9:	c7 40 14 00 00 00 00 	movl   $0x0,0x14(%eax)
    2900:	c7 40 1c 00 00 00 00 	movl   $0x0,0x1c(%eax)
    2907:	89 48 20             	mov    %ecx,0x20(%eax)
    290a:	c7 40 24 00 00 00 00 	movl   $0x0,0x24(%eax)
    2911:	e9 72 fe ff ff       	jmp    2788 <disk_init+0x488>
    2916:	66 90                	xchg   %ax,%ax
    2918:	4e                   	dec    %esi
    2919:	0f 85 61 fd ff ff    	jne    2680 <disk_init+0x380>
    291f:	83 ec 0c             	sub    $0xc,%esp
    2922:	be 63 00 00 00       	mov    $0x63,%esi
    2927:	68 10 27 00 00       	push   $0x2710
    292c:	e8 1f c3 00 00       	call   ec50 <async_usleep@plt>
    2931:	83 c4 10             	add    $0x10,%esp
    2934:	83 ec 0c             	sub    $0xc,%esp
    2937:	8b 43 0c             	mov    0xc(%ebx),%eax
    293a:	83 c0 07             	add    $0x7,%eax
    293d:	50                   	push   %eax
    293e:	e8 2d c1 00 00       	call   ea70 <pio_read_8@plt>
    2943:	83 c4 10             	add    $0x10,%esp
    2946:	84 c0                	test   %al,%al
    2948:	0f 89 4c fd ff ff    	jns    269a <disk_init+0x39a>
    294e:	83 ec 0c             	sub    $0xc,%esp
    2951:	68 10 27 00 00       	push   $0x2710
    2956:	e8 f5 c2 00 00       	call   ec50 <async_usleep@plt>
    295b:	83 c4 10             	add    $0x10,%esp
    295e:	4e                   	dec    %esi
    295f:	75 d3                	jne    2934 <disk_init+0x634>
    2961:	e9 f3 fa ff ff       	jmp    2459 <disk_init+0x159>
    2966:	66 90                	xchg   %ax,%ax
    2968:	4e                   	dec    %esi
    2969:	0f 85 54 fd ff ff    	jne    26c3 <disk_init+0x3c3>
    296f:	83 ec 0c             	sub    $0xc,%esp
    2972:	be 63 00 00 00       	mov    $0x63,%esi
    2977:	68 10 27 00 00       	push   $0x2710
    297c:	e8 cf c2 00 00       	call   ec50 <async_usleep@plt>
    2981:	83 c4 10             	add    $0x10,%esp
    2984:	83 ec 0c             	sub    $0xc,%esp
    2987:	8b 43 0c             	mov    0xc(%ebx),%eax
    298a:	83 c0 07             	add    $0x7,%eax
    298d:	50                   	push   %eax
    298e:	e8 dd c0 00 00       	call   ea70 <pio_read_8@plt>
    2993:	83 c4 10             	add    $0x10,%esp
    2996:	84 c0                	test   %al,%al
    2998:	0f 89 3f fd ff ff    	jns    26dd <disk_init+0x3dd>
    299e:	83 ec 0c             	sub    $0xc,%esp
    29a1:	68 10 27 00 00       	push   $0x2710
    29a6:	e8 a5 c2 00 00       	call   ec50 <async_usleep@plt>
    29ab:	83 c4 10             	add    $0x10,%esp
    29ae:	4e                   	dec    %esi
    29af:	75 d3                	jne    2984 <disk_init+0x684>
    29b1:	e9 a3 fa ff ff       	jmp    2459 <disk_init+0x159>
    29b6:	66 90                	xchg   %ax,%ax
    29b8:	bb 63 00 00 00       	mov    $0x63,%ebx
    29bd:	83 ec 0c             	sub    $0xc,%esp
    29c0:	8b 46 0c             	mov    0xc(%esi),%eax
    29c3:	83 c0 07             	add    $0x7,%eax
    29c6:	50                   	push   %eax
    29c7:	e8 a4 c0 00 00       	call   ea70 <pio_read_8@plt>
    29cc:	83 c4 10             	add    $0x10,%esp
    29cf:	84 c0                	test   %al,%al
    29d1:	79 4d                	jns    2a20 <disk_init+0x720>
    29d3:	4b                   	dec    %ebx
    29d4:	75 e7                	jne    29bd <disk_init+0x6bd>
    29d6:	83 ec 0c             	sub    $0xc,%esp
    29d9:	bb 63 00 00 00       	mov    $0x63,%ebx
    29de:	68 10 27 00 00       	push   $0x2710
    29e3:	e8 68 c2 00 00       	call   ec50 <async_usleep@plt>
    29e8:	83 c4 10             	add    $0x10,%esp
    29eb:	83 ec 0c             	sub    $0xc,%esp
    29ee:	8b 46 0c             	mov    0xc(%esi),%eax
    29f1:	83 c0 07             	add    $0x7,%eax
    29f4:	50                   	push   %eax
    29f5:	e8 76 c0 00 00       	call   ea70 <pio_read_8@plt>
    29fa:	83 c4 10             	add    $0x10,%esp
    29fd:	84 c0                	test   %al,%al
    29ff:	79 1f                	jns    2a20 <disk_init+0x720>
    2a01:	83 ec 0c             	sub    $0xc,%esp
    2a04:	68 10 27 00 00       	push   $0x2710
    2a09:	e8 42 c2 00 00       	call   ec50 <async_usleep@plt>
    2a0e:	83 c4 10             	add    $0x10,%esp
    2a11:	4b                   	dec    %ebx
    2a12:	75 d7                	jne    29eb <disk_init+0x6eb>
    2a14:	e9 40 fa ff ff       	jmp    2459 <disk_init+0x159>
    2a19:	8d b4 26 00 00 00 00 	lea    0x0(%esi,%eiz,1),%esi
    2a20:	88 c2                	mov    %al,%dl
    2a22:	e9 ed fc ff ff       	jmp    2714 <disk_init+0x414>
    2a27:	90                   	nop
    2a28:	8b 85 80 fd ff ff    	mov    -0x280(%ebp),%eax
    2a2e:	8b 8d 74 fd ff ff    	mov    -0x28c(%ebp),%ecx
    2a34:	c6 44 01 2c 00       	movb   $0x0,0x2c(%ecx,%eax,1)
    2a39:	83 79 0c 01          	cmpl   $0x1,0xc(%ecx)
    2a3d:	74 59                	je     2a98 <disk_init+0x798>
    2a3f:	89 c8                	mov    %ecx,%eax
    2a41:	c7 41 28 00 02 00 00 	movl   $0x200,0x28(%ecx)
    2a48:	c6 00 01             	movb   $0x1,(%eax)
    2a4b:	8d 65 f4             	lea    -0xc(%ebp),%esp
    2a4e:	31 c0                	xor    %eax,%eax
    2a50:	5b                   	pop    %ebx
    2a51:	5e                   	pop    %esi
    2a52:	5f                   	pop    %edi
    2a53:	5d                   	pop    %ebp
    2a54:	c3                   	ret    
    2a55:	c7 85 80 fd ff ff 00 	movl   $0x0,-0x280(%ebp)
    2a5c:	00 00 00 
    2a5f:	31 c0                	xor    %eax,%eax
    2a61:	eb cb                	jmp    2a2e <disk_init+0x72e>
    2a63:	89 c1                	mov    %eax,%ecx
    2a65:	c7 40 10 02 00 00 00 	movl   $0x2,0x10(%eax)
    2a6c:	c7 40 18 00 00 00 00 	movl   $0x0,0x18(%eax)
    2a73:	c7 40 14 00 00 00 00 	movl   $0x0,0x14(%eax)
    2a7a:	c7 40 1c 00 00 00 00 	movl   $0x0,0x1c(%eax)
    2a81:	8b 95 b4 fe ff ff    	mov    -0x14c(%ebp),%edx
    2a87:	8b 85 b0 fe ff ff    	mov    -0x150(%ebp),%eax
    2a8d:	89 51 24             	mov    %edx,0x24(%ecx)
    2a90:	89 41 20             	mov    %eax,0x20(%ecx)
    2a93:	e9 f0 fc ff ff       	jmp    2788 <disk_init+0x488>
    2a98:	8d 9d 90 fd ff ff    	lea    -0x270(%ebp),%ebx
    2a9e:	56                   	push   %esi
    2a9f:	6a 0c                	push   $0xc
    2aa1:	6a 00                	push   $0x0
    2aa3:	53                   	push   %ebx
    2aa4:	e8 67 c1 00 00       	call   ec10 <memset@plt>
    2aa9:	5f                   	pop    %edi
    2aaa:	58                   	pop    %eax
    2aab:	8d 85 7c fd ff ff    	lea    -0x284(%ebp),%eax
    2ab1:	8d 8d 9c fd ff ff    	lea    -0x264(%ebp),%ecx
    2ab7:	50                   	push   %eax
    2ab8:	89 da                	mov    %ebx,%edx
    2aba:	8b 85 74 fd ff ff    	mov    -0x28c(%ebp),%eax
    2ac0:	6a 24                	push   $0x24
    2ac2:	c6 85 90 fd ff ff 12 	movb   $0x12,-0x270(%ebp)
    2ac9:	66 c7 85 93 fd ff ff 	movw   $0x2400,-0x26d(%ebp)
    2ad0:	00 24 
    2ad2:	e8 79 ee ff ff       	call   1950 <ata_cmd_packet.constprop.12>
    2ad7:	83 c4 10             	add    $0x10,%esp
    2ada:	85 c0                	test   %eax,%eax
    2adc:	0f 85 b5 00 00 00    	jne    2b97 <disk_init+0x897>
    2ae2:	83 bd 7c fd ff ff 23 	cmpl   $0x23,-0x284(%ebp)
    2ae9:	0f 86 a8 00 00 00    	jbe    2b97 <disk_init+0x897>
    2aef:	8a 85 9c fd ff ff    	mov    -0x264(%ebp),%al
    2af5:	83 e0 1f             	and    $0x1f,%eax
    2af8:	3c 05                	cmp    $0x5,%al
    2afa:	74 11                	je     2b0d <disk_init+0x80d>
    2afc:	51                   	push   %ecx
    2afd:	51                   	push   %ecx
    2afe:	68 8c c8 00 00       	push   $0xc88c
    2b03:	6a 02                	push   $0x2
    2b05:	e8 76 1d 00 00       	call   4880 <ddf_msg>
    2b0a:	83 c4 10             	add    $0x10,%esp
    2b0d:	50                   	push   %eax
    2b0e:	6a 0c                	push   $0xc
    2b10:	6a 00                	push   $0x0
    2b12:	53                   	push   %ebx
    2b13:	e8 f8 c0 00 00       	call   ec10 <memset@plt>
    2b18:	58                   	pop    %eax
    2b19:	8b bd 74 fd ff ff    	mov    -0x28c(%ebp),%edi
    2b1f:	8d 85 84 fd ff ff    	lea    -0x27c(%ebp),%eax
    2b25:	5a                   	pop    %edx
    2b26:	8d 8d 88 fd ff ff    	lea    -0x278(%ebp),%ecx
    2b2c:	50                   	push   %eax
    2b2d:	89 da                	mov    %ebx,%edx
    2b2f:	89 f8                	mov    %edi,%eax
    2b31:	6a 08                	push   $0x8
    2b33:	c6 85 90 fd ff ff 25 	movb   $0x25,-0x270(%ebp)
    2b3a:	e8 11 ee ff ff       	call   1950 <ata_cmd_packet.constprop.12>
    2b3f:	83 c4 10             	add    $0x10,%esp
    2b42:	85 c0                	test   %eax,%eax
    2b44:	75 32                	jne    2b78 <disk_init+0x878>
    2b46:	83 bd 84 fd ff ff 08 	cmpl   $0x8,-0x27c(%ebp)
    2b4d:	75 29                	jne    2b78 <disk_init+0x878>
    2b4f:	8b 85 88 fd ff ff    	mov    -0x278(%ebp),%eax
    2b55:	8b 95 8c fd ff ff    	mov    -0x274(%ebp),%edx
    2b5b:	0f c8                	bswap  %eax
    2b5d:	40                   	inc    %eax
    2b5e:	c7 47 24 00 00 00 00 	movl   $0x0,0x24(%edi)
    2b65:	0f ca                	bswap  %edx
    2b67:	89 47 20             	mov    %eax,0x20(%edi)
    2b6a:	89 57 28             	mov    %edx,0x28(%edi)
    2b6d:	8b 85 74 fd ff ff    	mov    -0x28c(%ebp),%eax
    2b73:	e9 d0 fe ff ff       	jmp    2a48 <disk_init+0x748>
    2b78:	57                   	push   %edi
    2b79:	57                   	push   %edi
    2b7a:	68 c1 c7 00 00       	push   $0xc7c1
    2b7f:	6a 01                	push   $0x1
    2b81:	e8 fa 1c 00 00       	call   4880 <ddf_msg>
    2b86:	8b 85 74 fd ff ff    	mov    -0x28c(%ebp),%eax
    2b8c:	83 c4 10             	add    $0x10,%esp
    2b8f:	c6 00 00             	movb   $0x0,(%eax)
    2b92:	e9 c2 f8 ff ff       	jmp    2459 <disk_init+0x159>
    2b97:	53                   	push   %ebx
    2b98:	53                   	push   %ebx
    2b99:	68 aa c7 00 00       	push   $0xc7aa
    2b9e:	eb df                	jmp    2b7f <disk_init+0x87f>

00002ba0 <ata_ctrl_init>:
    2ba0:	55                   	push   %ebp
    2ba1:	89 e5                	mov    %esp,%ebp
    2ba3:	57                   	push   %edi
    2ba4:	56                   	push   %esi
    2ba5:	53                   	push   %ebx
    2ba6:	83 ec 44             	sub    $0x44,%esp
    2ba9:	8b 5d 08             	mov    0x8(%ebp),%ebx
    2bac:	8b 75 0c             	mov    0xc(%ebp),%esi
    2baf:	68 df c7 00 00       	push   $0xc7df
    2bb4:	6a 04                	push   $0x4
    2bb6:	e8 c5 1c 00 00       	call   4880 <ddf_msg>
    2bbb:	8d 83 bc 01 00 00    	lea    0x1bc(%ebx),%eax
    2bc1:	89 04 24             	mov    %eax,(%esp)
    2bc4:	e8 a7 bf 00 00       	call   eb70 <fibril_mutex_initialize@plt>
    2bc9:	8b 06                	mov    (%esi),%eax
    2bcb:	8b 56 04             	mov    0x4(%esi),%edx
    2bce:	89 43 04             	mov    %eax,0x4(%ebx)
    2bd1:	89 53 08             	mov    %edx,0x8(%ebx)
    2bd4:	52                   	push   %edx
    2bd5:	50                   	push   %eax
    2bd6:	68 ef c7 00 00       	push   $0xc7ef
    2bdb:	6a 03                	push   $0x3
    2bdd:	e8 9e 1c 00 00       	call   4880 <ddf_msg>
    2be2:	83 c4 1c             	add    $0x1c,%esp
    2be5:	8d 45 e4             	lea    -0x1c(%ebp),%eax
    2be8:	50                   	push   %eax
    2be9:	6a 08                	push   $0x8
    2beb:	8b 53 04             	mov    0x4(%ebx),%edx
    2bee:	52                   	push   %edx
    2bef:	e8 8c bc 00 00       	call   e880 <pio_enable@plt>
    2bf4:	83 c4 10             	add    $0x10,%esp
    2bf7:	85 c0                	test   %eax,%eax
    2bf9:	0f 85 39 01 00 00    	jne    2d38 <ata_ctrl_init+0x198>
    2bff:	8b 45 e4             	mov    -0x1c(%ebp),%eax
    2c02:	89 43 0c             	mov    %eax,0xc(%ebx)
    2c05:	50                   	push   %eax
    2c06:	8d 45 e4             	lea    -0x1c(%ebp),%eax
    2c09:	50                   	push   %eax
    2c0a:	6a 08                	push   $0x8
    2c0c:	8b 43 08             	mov    0x8(%ebx),%eax
    2c0f:	50                   	push   %eax
    2c10:	e8 6b bc 00 00       	call   e880 <pio_enable@plt>
    2c15:	83 c4 10             	add    $0x10,%esp
    2c18:	89 45 c4             	mov    %eax,-0x3c(%ebp)
    2c1b:	85 c0                	test   %eax,%eax
    2c1d:	0f 85 4d 02 00 00    	jne    2e70 <ata_ctrl_init+0x2d0>
    2c23:	8b 45 e4             	mov    -0x1c(%ebp),%eax
    2c26:	31 f6                	xor    %esi,%esi
    2c28:	89 43 10             	mov    %eax,0x10(%ebx)
    2c2b:	8d 43 14             	lea    0x14(%ebx),%eax
    2c2e:	89 45 d0             	mov    %eax,-0x30(%ebp)
    2c31:	89 c7                	mov    %eax,%edi
    2c33:	89 5d 08             	mov    %ebx,0x8(%ebp)
    2c36:	50                   	push   %eax
    2c37:	56                   	push   %esi
    2c38:	68 01 c8 00 00       	push   $0xc801
    2c3d:	6a 03                	push   $0x3
    2c3f:	e8 3c 1c 00 00       	call   4880 <ddf_msg>
    2c44:	89 f1                	mov    %esi,%ecx
    2c46:	89 fa                	mov    %edi,%edx
    2c48:	8b 45 08             	mov    0x8(%ebp),%eax
    2c4b:	e8 b0 f6 ff ff       	call   2300 <disk_init>
    2c50:	83 c4 10             	add    $0x10,%esp
    2c53:	85 c0                	test   %eax,%eax
    2c55:	75 51                	jne    2ca8 <ata_ctrl_init+0x108>
    2c57:	8b 47 0c             	mov    0xc(%edi),%eax
    2c5a:	c7 45 e0 00 00 00 00 	movl   $0x0,-0x20(%ebp)
    2c61:	c7 45 e4 00 00 00 00 	movl   $0x0,-0x1c(%ebp)
    2c68:	85 c0                	test   %eax,%eax
    2c6a:	0f 85 e8 00 00 00    	jne    2d58 <ata_ctrl_init+0x1b8>
    2c70:	8b 47 10             	mov    0x10(%edi),%eax
    2c73:	83 f8 01             	cmp    $0x1,%eax
    2c76:	0f 84 7c 02 00 00    	je     2ef8 <ata_ctrl_init+0x358>
    2c7c:	0f 82 3e 02 00 00    	jb     2ec0 <ata_ctrl_init+0x320>
    2c82:	83 f8 02             	cmp    $0x2,%eax
    2c85:	75 32                	jne    2cb9 <ata_ctrl_init+0x119>
    2c87:	83 ec 0c             	sub    $0xc,%esp
    2c8a:	68 1d c8 00 00       	push   $0xc81d
    2c8f:	e8 cc be 00 00       	call   eb60 <str_dup@plt>
    2c94:	83 c4 10             	add    $0x10,%esp
    2c97:	89 45 d4             	mov    %eax,-0x2c(%ebp)
    2c9a:	89 45 e0             	mov    %eax,-0x20(%ebp)
    2c9d:	e9 cc 00 00 00       	jmp    2d6e <ata_ctrl_init+0x1ce>
    2ca2:	8d b6 00 00 00 00    	lea    0x0(%esi),%esi
    2ca8:	50                   	push   %eax
    2ca9:	50                   	push   %eax
    2caa:	68 4a c8 00 00       	push   $0xc84a
    2caf:	6a 03                	push   $0x3
    2cb1:	e8 ca 1b 00 00       	call   4880 <ddf_msg>
    2cb6:	83 c4 10             	add    $0x10,%esp
    2cb9:	46                   	inc    %esi
    2cba:	81 c7 d4 00 00 00    	add    $0xd4,%edi
    2cc0:	83 fe 02             	cmp    $0x2,%esi
    2cc3:	0f 85 6d ff ff ff    	jne    2c36 <ata_ctrl_init+0x96>
    2cc9:	8b 5d 08             	mov    0x8(%ebp),%ebx
    2ccc:	80 7b 14 00          	cmpb   $0x0,0x14(%ebx)
    2cd0:	0f 85 32 01 00 00    	jne    2e08 <ata_ctrl_init+0x268>
    2cd6:	80 bb e8 00 00 00 00 	cmpb   $0x0,0xe8(%ebx)
    2cdd:	0f 85 4d 01 00 00    	jne    2e30 <ata_ctrl_init+0x290>
    2ce3:	50                   	push   %eax
    2ce4:	50                   	push   %eax
    2ce5:	68 55 c8 00 00       	push   $0xc855
    2cea:	6a 02                	push   $0x2
    2cec:	be f6 fe ff ff       	mov    $0xfffffef6,%esi
    2cf1:	e8 8a 1b 00 00       	call   4880 <ddf_msg>
    2cf6:	81 c3 e8 00 00 00    	add    $0xe8,%ebx
    2cfc:	83 c4 10             	add    $0x10,%esp
    2cff:	83 ec 0c             	sub    $0xc,%esp
    2d02:	8b 7d d0             	mov    -0x30(%ebp),%edi
    2d05:	57                   	push   %edi
    2d06:	e8 15 07 00 00       	call   3420 <ata_fun_remove>
    2d0b:	83 c4 10             	add    $0x10,%esp
    2d0e:	85 c0                	test   %eax,%eax
    2d10:	0f 85 92 01 00 00    	jne    2ea8 <ata_ctrl_init+0x308>
    2d16:	83 ec 0c             	sub    $0xc,%esp
    2d19:	53                   	push   %ebx
    2d1a:	e8 01 07 00 00       	call   3420 <ata_fun_remove>
    2d1f:	83 c4 10             	add    $0x10,%esp
    2d22:	85 c0                	test   %eax,%eax
    2d24:	0f 85 66 01 00 00    	jne    2e90 <ata_ctrl_init+0x2f0>
    2d2a:	8d 65 f4             	lea    -0xc(%ebp),%esp
    2d2d:	89 f0                	mov    %esi,%eax
    2d2f:	5b                   	pop    %ebx
    2d30:	5e                   	pop    %esi
    2d31:	5f                   	pop    %edi
    2d32:	5d                   	pop    %ebp
    2d33:	c3                   	ret    
    2d34:	8d 74 26 00          	lea    0x0(%esi,%eiz,1),%esi
    2d38:	89 c6                	mov    %eax,%esi
    2d3a:	50                   	push   %eax
    2d3b:	50                   	push   %eax
    2d3c:	68 d4 c8 00 00       	push   $0xc8d4
    2d41:	6a 01                	push   $0x1
    2d43:	e8 38 1b 00 00       	call   4880 <ddf_msg>
    2d48:	83 c4 10             	add    $0x10,%esp
    2d4b:	8d 65 f4             	lea    -0xc(%ebp),%esp
    2d4e:	89 f0                	mov    %esi,%eax
    2d50:	5b                   	pop    %ebx
    2d51:	5e                   	pop    %esi
    2d52:	5f                   	pop    %edi
    2d53:	5d                   	pop    %ebp
    2d54:	c3                   	ret    
    2d55:	8d 76 00             	lea    0x0(%esi),%esi
    2d58:	83 ec 0c             	sub    $0xc,%esp
    2d5b:	68 24 c8 00 00       	push   $0xc824
    2d60:	e8 fb bd 00 00       	call   eb60 <str_dup@plt>
    2d65:	83 c4 10             	add    $0x10,%esp
    2d68:	89 45 d4             	mov    %eax,-0x2c(%ebp)
    2d6b:	89 45 e0             	mov    %eax,-0x20(%ebp)
    2d6e:	8b 45 d4             	mov    -0x2c(%ebp),%eax
    2d71:	85 c0                	test   %eax,%eax
    2d73:	0f 84 40 ff ff ff    	je     2cb9 <ata_ctrl_init+0x119>
    2d79:	8b 4f 20             	mov    0x20(%edi),%ecx
    2d7c:	8b 5f 24             	mov    0x24(%edi),%ebx
    2d7f:	89 da                	mov    %ebx,%edx
    2d81:	89 c8                	mov    %ecx,%eax
    2d83:	0f ac d0 0b          	shrd   $0xb,%edx,%eax
    2d87:	c1 ea 0b             	shr    $0xb,%edx
    2d8a:	89 45 c8             	mov    %eax,-0x38(%ebp)
    2d8d:	89 55 cc             	mov    %edx,-0x34(%ebp)
    2d90:	89 c2                	mov    %eax,%edx
    2d92:	8b 45 cc             	mov    -0x34(%ebp),%eax
    2d95:	09 d0                	or     %edx,%eax
    2d97:	74 2d                	je     2dc6 <ata_ctrl_init+0x226>
    2d99:	8b 45 cc             	mov    -0x34(%ebp),%eax
    2d9c:	50                   	push   %eax
    2d9d:	8b 45 c8             	mov    -0x38(%ebp),%eax
    2da0:	50                   	push   %eax
    2da1:	8d 45 e4             	lea    -0x1c(%ebp),%eax
    2da4:	68 2b c8 00 00       	push   $0xc82b
    2da9:	50                   	push   %eax
    2daa:	e8 b1 be 00 00       	call   ec60 <asprintf@plt>
    2daf:	83 c4 10             	add    $0x10,%esp
    2db2:	85 c0                	test   %eax,%eax
    2db4:	0f 88 5e 01 00 00    	js     2f18 <ata_ctrl_init+0x378>
    2dba:	8b 45 e0             	mov    -0x20(%ebp),%eax
    2dbd:	8b 4f 20             	mov    0x20(%edi),%ecx
    2dc0:	8b 5f 24             	mov    0x24(%edi),%ebx
    2dc3:	89 45 d4             	mov    %eax,-0x2c(%ebp)
    2dc6:	50                   	push   %eax
    2dc7:	8b 45 e4             	mov    -0x1c(%ebp),%eax
    2dca:	50                   	push   %eax
    2dcb:	8b 45 d4             	mov    -0x2c(%ebp),%eax
    2dce:	53                   	push   %ebx
    2dcf:	51                   	push   %ecx
    2dd0:	50                   	push   %eax
    2dd1:	8d 47 2c             	lea    0x2c(%edi),%eax
    2dd4:	50                   	push   %eax
    2dd5:	68 35 c8 00 00       	push   $0xc835
    2dda:	6a 03                	push   $0x3
    2ddc:	e8 9f 1a 00 00       	call   4880 <ddf_msg>
    2de1:	83 c4 20             	add    $0x20,%esp
    2de4:	83 ec 0c             	sub    $0xc,%esp
    2de7:	8b 45 e0             	mov    -0x20(%ebp),%eax
    2dea:	50                   	push   %eax
    2deb:	e8 f0 bf 00 00       	call   ede0 <free@plt>
    2df0:	8b 55 e4             	mov    -0x1c(%ebp),%edx
    2df3:	58                   	pop    %eax
    2df4:	52                   	push   %edx
    2df5:	e8 e6 bf 00 00       	call   ede0 <free@plt>
    2dfa:	83 c4 10             	add    $0x10,%esp
    2dfd:	e9 b7 fe ff ff       	jmp    2cb9 <ata_ctrl_init+0x119>
    2e02:	8d b6 00 00 00 00    	lea    0x0(%esi),%esi
    2e08:	83 ec 0c             	sub    $0xc,%esp
    2e0b:	8b 45 d0             	mov    -0x30(%ebp),%eax
    2e0e:	50                   	push   %eax
    2e0f:	e8 8c 04 00 00       	call   32a0 <ata_fun_create>
    2e14:	83 c4 10             	add    $0x10,%esp
    2e17:	89 c6                	mov    %eax,%esi
    2e19:	85 c0                	test   %eax,%eax
    2e1b:	0f 85 03 01 00 00    	jne    2f24 <ata_ctrl_init+0x384>
    2e21:	80 bb e8 00 00 00 00 	cmpb   $0x0,0xe8(%ebx)
    2e28:	0f 84 fc fe ff ff    	je     2d2a <ata_ctrl_init+0x18a>
    2e2e:	66 90                	xchg   %ax,%ax
    2e30:	83 ec 0c             	sub    $0xc,%esp
    2e33:	81 c3 e8 00 00 00    	add    $0xe8,%ebx
    2e39:	53                   	push   %ebx
    2e3a:	e8 61 04 00 00       	call   32a0 <ata_fun_create>
    2e3f:	83 c4 10             	add    $0x10,%esp
    2e42:	89 c6                	mov    %eax,%esi
    2e44:	85 c0                	test   %eax,%eax
    2e46:	0f 84 de fe ff ff    	je     2d2a <ata_ctrl_init+0x18a>
    2e4c:	c7 45 c4 01 00 00 00 	movl   $0x1,-0x3c(%ebp)
    2e53:	50                   	push   %eax
    2e54:	8b 45 c4             	mov    -0x3c(%ebp),%eax
    2e57:	50                   	push   %eax
    2e58:	68 20 c9 00 00       	push   $0xc920
    2e5d:	6a 01                	push   $0x1
    2e5f:	e8 1c 1a 00 00       	call   4880 <ddf_msg>
    2e64:	83 c4 10             	add    $0x10,%esp
    2e67:	e9 93 fe ff ff       	jmp    2cff <ata_ctrl_init+0x15f>
    2e6c:	8d 74 26 00          	lea    0x0(%esi,%eiz,1),%esi
    2e70:	50                   	push   %eax
    2e71:	50                   	push   %eax
    2e72:	68 d4 c8 00 00       	push   $0xc8d4
    2e77:	6a 01                	push   $0x1
    2e79:	e8 02 1a 00 00       	call   4880 <ddf_msg>
    2e7e:	8b 75 c4             	mov    -0x3c(%ebp),%esi
    2e81:	83 c4 10             	add    $0x10,%esp
    2e84:	8d 65 f4             	lea    -0xc(%ebp),%esp
    2e87:	89 f0                	mov    %esi,%eax
    2e89:	5b                   	pop    %ebx
    2e8a:	5e                   	pop    %esi
    2e8b:	5f                   	pop    %edi
    2e8c:	5d                   	pop    %ebp
    2e8d:	c3                   	ret    
    2e8e:	66 90                	xchg   %ax,%ax
    2e90:	52                   	push   %edx
    2e91:	6a 01                	push   $0x1
    2e93:	68 48 c9 00 00       	push   $0xc948
    2e98:	6a 01                	push   $0x1
    2e9a:	e8 e1 19 00 00       	call   4880 <ddf_msg>
    2e9f:	83 c4 10             	add    $0x10,%esp
    2ea2:	e9 83 fe ff ff       	jmp    2d2a <ata_ctrl_init+0x18a>
    2ea7:	90                   	nop
    2ea8:	51                   	push   %ecx
    2ea9:	6a 00                	push   $0x0
    2eab:	68 48 c9 00 00       	push   $0xc948
    2eb0:	6a 01                	push   $0x1
    2eb2:	e8 c9 19 00 00       	call   4880 <ddf_msg>
    2eb7:	83 c4 10             	add    $0x10,%esp
    2eba:	e9 57 fe ff ff       	jmp    2d16 <ata_ctrl_init+0x176>
    2ebf:	90                   	nop
    2ec0:	83 ec 0c             	sub    $0xc,%esp
    2ec3:	8b 57 1c             	mov    0x1c(%edi),%edx
    2ec6:	8d 45 e0             	lea    -0x20(%ebp),%eax
    2ec9:	52                   	push   %edx
    2eca:	8b 4f 14             	mov    0x14(%edi),%ecx
    2ecd:	51                   	push   %ecx
    2ece:	8b 5f 18             	mov    0x18(%edi),%ebx
    2ed1:	53                   	push   %ebx
    2ed2:	68 f8 c8 00 00       	push   $0xc8f8
    2ed7:	50                   	push   %eax
    2ed8:	e8 83 bd 00 00       	call   ec60 <asprintf@plt>
    2edd:	83 c4 20             	add    $0x20,%esp
    2ee0:	85 c0                	test   %eax,%eax
    2ee2:	0f 88 d1 fd ff ff    	js     2cb9 <ata_ctrl_init+0x119>
    2ee8:	8b 45 e0             	mov    -0x20(%ebp),%eax
    2eeb:	89 45 d4             	mov    %eax,-0x2c(%ebp)
    2eee:	e9 7b fe ff ff       	jmp    2d6e <ata_ctrl_init+0x1ce>
    2ef3:	90                   	nop
    2ef4:	8d 74 26 00          	lea    0x0(%esi,%eiz,1),%esi
    2ef8:	83 ec 0c             	sub    $0xc,%esp
    2efb:	68 16 c8 00 00       	push   $0xc816
    2f00:	e8 5b bc 00 00       	call   eb60 <str_dup@plt>
    2f05:	83 c4 10             	add    $0x10,%esp
    2f08:	89 45 d4             	mov    %eax,-0x2c(%ebp)
    2f0b:	89 45 e0             	mov    %eax,-0x20(%ebp)
    2f0e:	e9 5b fe ff ff       	jmp    2d6e <ata_ctrl_init+0x1ce>
    2f13:	90                   	nop
    2f14:	8d 74 26 00          	lea    0x0(%esi,%eiz,1),%esi
    2f18:	c7 45 e4 00 00 00 00 	movl   $0x0,-0x1c(%ebp)
    2f1f:	e9 c0 fe ff ff       	jmp    2de4 <ata_ctrl_init+0x244>
    2f24:	81 c3 e8 00 00 00    	add    $0xe8,%ebx
    2f2a:	e9 24 ff ff ff       	jmp    2e53 <ata_ctrl_init+0x2b3>
    2f2f:	90                   	nop

00002f30 <ata_ctrl_remove>:
    2f30:	55                   	push   %ebp
    2f31:	89 e5                	mov    %esp,%ebp
    2f33:	56                   	push   %esi
    2f34:	53                   	push   %ebx
    2f35:	83 ec 18             	sub    $0x18,%esp
    2f38:	8b 5d 08             	mov    0x8(%ebp),%ebx
    2f3b:	68 68 c8 00 00       	push   $0xc868
    2f40:	6a 04                	push   $0x4
    2f42:	8d b3 bc 01 00 00    	lea    0x1bc(%ebx),%esi
    2f48:	e8 33 19 00 00       	call   4880 <ddf_msg>
    2f4d:	89 34 24             	mov    %esi,(%esp)
    2f50:	e8 ab be 00 00       	call   ee00 <fibril_mutex_lock@plt>
    2f55:	8d 43 14             	lea    0x14(%ebx),%eax
    2f58:	89 04 24             	mov    %eax,(%esp)
    2f5b:	e8 c0 04 00 00       	call   3420 <ata_fun_remove>
    2f60:	83 c4 10             	add    $0x10,%esp
    2f63:	85 c0                	test   %eax,%eax
    2f65:	75 31                	jne    2f98 <ata_ctrl_remove+0x68>
    2f67:	83 ec 0c             	sub    $0xc,%esp
    2f6a:	81 c3 e8 00 00 00    	add    $0xe8,%ebx
    2f70:	53                   	push   %ebx
    2f71:	e8 aa 04 00 00       	call   3420 <ata_fun_remove>
    2f76:	83 c4 10             	add    $0x10,%esp
    2f79:	85 c0                	test   %eax,%eax
    2f7b:	75 3b                	jne    2fb8 <ata_ctrl_remove+0x88>
    2f7d:	83 ec 0c             	sub    $0xc,%esp
    2f80:	89 45 f4             	mov    %eax,-0xc(%ebp)
    2f83:	56                   	push   %esi
    2f84:	e8 b7 bb 00 00       	call   eb40 <fibril_mutex_unlock@plt>
    2f89:	83 c4 10             	add    $0x10,%esp
    2f8c:	8b 45 f4             	mov    -0xc(%ebp),%eax
    2f8f:	8d 65 f8             	lea    -0x8(%ebp),%esp
    2f92:	5b                   	pop    %ebx
    2f93:	5e                   	pop    %esi
    2f94:	5d                   	pop    %ebp
    2f95:	c3                   	ret    
    2f96:	66 90                	xchg   %ax,%ax
    2f98:	31 d2                	xor    %edx,%edx
    2f9a:	89 45 f4             	mov    %eax,-0xc(%ebp)
    2f9d:	50                   	push   %eax
    2f9e:	52                   	push   %edx
    2f9f:	68 48 c9 00 00       	push   $0xc948
    2fa4:	6a 01                	push   $0x1
    2fa6:	e8 d5 18 00 00       	call   4880 <ddf_msg>
    2fab:	83 c4 10             	add    $0x10,%esp
    2fae:	8b 45 f4             	mov    -0xc(%ebp),%eax
    2fb1:	eb dc                	jmp    2f8f <ata_ctrl_remove+0x5f>
    2fb3:	90                   	nop
    2fb4:	8d 74 26 00          	lea    0x0(%esi,%eiz,1),%esi
    2fb8:	ba 01 00 00 00       	mov    $0x1,%edx
    2fbd:	eb db                	jmp    2f9a <ata_ctrl_remove+0x6a>
    2fbf:	90                   	nop

00002fc0 <ata_ctrl_gone>:
    2fc0:	55                   	push   %ebp
    2fc1:	89 e5                	mov    %esp,%ebp
    2fc3:	56                   	push   %esi
    2fc4:	53                   	push   %ebx
    2fc5:	83 ec 18             	sub    $0x18,%esp
    2fc8:	8b 5d 08             	mov    0x8(%ebp),%ebx
    2fcb:	68 7c c8 00 00       	push   $0xc87c
    2fd0:	6a 04                	push   $0x4
    2fd2:	8d b3 bc 01 00 00    	lea    0x1bc(%ebx),%esi
    2fd8:	e8 a3 18 00 00       	call   4880 <ddf_msg>
    2fdd:	89 34 24             	mov    %esi,(%esp)
    2fe0:	e8 1b be 00 00       	call   ee00 <fibril_mutex_lock@plt>
    2fe5:	8d 43 14             	lea    0x14(%ebx),%eax
    2fe8:	89 04 24             	mov    %eax,(%esp)
    2feb:	e8 60 05 00 00       	call   3550 <ata_fun_unbind>
    2ff0:	83 c4 10             	add    $0x10,%esp
    2ff3:	85 c0                	test   %eax,%eax
    2ff5:	75 31                	jne    3028 <ata_ctrl_gone+0x68>
    2ff7:	83 ec 0c             	sub    $0xc,%esp
    2ffa:	81 c3 e8 00 00 00    	add    $0xe8,%ebx
    3000:	53                   	push   %ebx
    3001:	e8 4a 05 00 00       	call   3550 <ata_fun_unbind>
    3006:	83 c4 10             	add    $0x10,%esp
    3009:	85 c0                	test   %eax,%eax
    300b:	75 3b                	jne    3048 <ata_ctrl_gone+0x88>
    300d:	83 ec 0c             	sub    $0xc,%esp
    3010:	89 45 f4             	mov    %eax,-0xc(%ebp)
    3013:	56                   	push   %esi
    3014:	e8 27 bb 00 00       	call   eb40 <fibril_mutex_unlock@plt>
    3019:	83 c4 10             	add    $0x10,%esp
    301c:	8b 45 f4             	mov    -0xc(%ebp),%eax
    301f:	8d 65 f8             	lea    -0x8(%ebp),%esp
    3022:	5b                   	pop    %ebx
    3023:	5e                   	pop    %esi
    3024:	5d                   	pop    %ebp
    3025:	c3                   	ret    
    3026:	66 90                	xchg   %ax,%ax
    3028:	31 d2                	xor    %edx,%edx
    302a:	89 45 f4             	mov    %eax,-0xc(%ebp)
    302d:	50                   	push   %eax
    302e:	52                   	push   %edx
    302f:	68 48 c9 00 00       	push   $0xc948
    3034:	6a 01                	push   $0x1
    3036:	e8 45 18 00 00       	call   4880 <ddf_msg>
    303b:	83 c4 10             	add    $0x10,%esp
    303e:	8b 45 f4             	mov    -0xc(%ebp),%eax
    3041:	eb dc                	jmp    301f <ata_ctrl_gone+0x5f>
    3043:	90                   	nop
    3044:	8d 74 26 00          	lea    0x0(%esi,%eiz,1),%esi
    3048:	ba 01 00 00 00       	mov    $0x1,%edx
    304d:	eb db                	jmp    302a <ata_ctrl_gone+0x6a>
    304f:	90                   	nop

00003050 <ata_bd_connection>:
    3050:	55                   	push   %ebp
    3051:	89 e5                	mov    %esp,%ebp
    3053:	56                   	push   %esi
    3054:	53                   	push   %ebx
    3055:	83 ec 0c             	sub    $0xc,%esp
    3058:	8b 45 10             	mov    0x10(%ebp),%eax
    305b:	8b 5d 08             	mov    0x8(%ebp),%ebx
    305e:	8b 75 0c             	mov    0xc(%ebp),%esi
    3061:	50                   	push   %eax
    3062:	e8 b9 11 00 00       	call   4220 <ddf_fun_data_get>
    3067:	83 c0 08             	add    $0x8,%eax
    306a:	89 75 0c             	mov    %esi,0xc(%ebp)
    306d:	89 5d 08             	mov    %ebx,0x8(%ebp)
    3070:	89 45 10             	mov    %eax,0x10(%ebp)
    3073:	83 c4 10             	add    $0x10,%esp
    3076:	8d 65 f8             	lea    -0x8(%ebp),%esp
    3079:	5b                   	pop    %ebx
    307a:	5e                   	pop    %esi
    307b:	5d                   	pop    %ebp
    307c:	e9 8f b9 00 00       	jmp    ea10 <bd_conn@plt>
    3081:	eb 0d                	jmp    3090 <ata_fun_offline>
    3083:	90                   	nop
    3084:	90                   	nop
    3085:	90                   	nop
    3086:	90                   	nop
    3087:	90                   	nop
    3088:	90                   	nop
    3089:	90                   	nop
    308a:	90                   	nop
    308b:	90                   	nop
    308c:	90                   	nop
    308d:	90                   	nop
    308e:	90                   	nop
    308f:	90                   	nop

00003090 <ata_fun_offline>:
    3090:	55                   	push   %ebp
    3091:	89 e5                	mov    %esp,%ebp
    3093:	53                   	push   %ebx
    3094:	83 ec 0c             	sub    $0xc,%esp
    3097:	8b 5d 08             	mov    0x8(%ebp),%ebx
    309a:	68 71 c9 00 00       	push   $0xc971
    309f:	6a 04                	push   $0x4
    30a1:	e8 da 17 00 00       	call   4880 <ddf_msg>
    30a6:	89 5d 08             	mov    %ebx,0x8(%ebp)
    30a9:	83 c4 10             	add    $0x10,%esp
    30ac:	8b 5d fc             	mov    -0x4(%ebp),%ebx
    30af:	c9                   	leave  
    30b0:	e9 bb 14 00 00       	jmp    4570 <ddf_fun_offline>
    30b5:	8d 74 26 00          	lea    0x0(%esi,%eiz,1),%esi
    30b9:	8d bc 27 00 00 00 00 	lea    0x0(%edi,%eiz,1),%edi

000030c0 <ata_fun_online>:
    30c0:	55                   	push   %ebp
    30c1:	89 e5                	mov    %esp,%ebp
    30c3:	53                   	push   %ebx
    30c4:	83 ec 0c             	sub    $0xc,%esp
    30c7:	8b 5d 08             	mov    0x8(%ebp),%ebx
    30ca:	68 83 c9 00 00       	push   $0xc983
    30cf:	6a 04                	push   $0x4
    30d1:	e8 aa 17 00 00       	call   4880 <ddf_msg>
    30d6:	89 5d 08             	mov    %ebx,0x8(%ebp)
    30d9:	83 c4 10             	add    $0x10,%esp
    30dc:	8b 5d fc             	mov    -0x4(%ebp),%ebx
    30df:	c9                   	leave  
    30e0:	e9 5b 14 00 00       	jmp    4540 <ddf_fun_online>
    30e5:	8d 74 26 00          	lea    0x0(%esi,%eiz,1),%esi
    30e9:	8d bc 27 00 00 00 00 	lea    0x0(%edi,%eiz,1),%edi

000030f0 <ata_dev_gone>:
    30f0:	55                   	push   %ebp
    30f1:	89 e5                	mov    %esp,%ebp
    30f3:	56                   	push   %esi
    30f4:	53                   	push   %ebx
    30f5:	83 ec 0c             	sub    $0xc,%esp
    30f8:	8b 5d 08             	mov    0x8(%ebp),%ebx
    30fb:	53                   	push   %ebx
    30fc:	e8 bf 0e 00 00       	call   3fc0 <ddf_dev_data_get>
    3101:	83 c4 0c             	add    $0xc,%esp
    3104:	89 c6                	mov    %eax,%esi
    3106:	53                   	push   %ebx
    3107:	68 94 c9 00 00       	push   $0xc994
    310c:	6a 04                	push   $0x4
    310e:	e8 6d 17 00 00       	call   4880 <ddf_msg>
    3113:	89 75 08             	mov    %esi,0x8(%ebp)
    3116:	83 c4 10             	add    $0x10,%esp
    3119:	8d 65 f8             	lea    -0x8(%ebp),%esp
    311c:	5b                   	pop    %ebx
    311d:	5e                   	pop    %esi
    311e:	5d                   	pop    %ebp
    311f:	e9 9c fe ff ff       	jmp    2fc0 <ata_ctrl_gone>
    3124:	8d b6 00 00 00 00    	lea    0x0(%esi),%esi
    312a:	8d bf 00 00 00 00    	lea    0x0(%edi),%edi

00003130 <ata_dev_remove>:
    3130:	55                   	push   %ebp
    3131:	89 e5                	mov    %esp,%ebp
    3133:	56                   	push   %esi
    3134:	53                   	push   %ebx
    3135:	83 ec 0c             	sub    $0xc,%esp
    3138:	8b 5d 08             	mov    0x8(%ebp),%ebx
    313b:	53                   	push   %ebx
    313c:	e8 7f 0e 00 00       	call   3fc0 <ddf_dev_data_get>
    3141:	83 c4 0c             	add    $0xc,%esp
    3144:	89 c6                	mov    %eax,%esi
    3146:	53                   	push   %ebx
    3147:	68 a5 c9 00 00       	push   $0xc9a5
    314c:	6a 04                	push   $0x4
    314e:	e8 2d 17 00 00       	call   4880 <ddf_msg>
    3153:	89 75 08             	mov    %esi,0x8(%ebp)
    3156:	83 c4 10             	add    $0x10,%esp
    3159:	8d 65 f8             	lea    -0x8(%ebp),%esp
    315c:	5b                   	pop    %ebx
    315d:	5e                   	pop    %esi
    315e:	5d                   	pop    %ebp
    315f:	e9 cc fd ff ff       	jmp    2f30 <ata_ctrl_remove>
    3164:	8d b6 00 00 00 00    	lea    0x0(%esi),%esi
    316a:	8d bf 00 00 00 00    	lea    0x0(%edi),%edi

00003170 <ata_dev_add>:
    3170:	55                   	push   %ebp
    3171:	89 e5                	mov    %esp,%ebp
    3173:	57                   	push   %edi
    3174:	56                   	push   %esi
    3175:	53                   	push   %ebx
    3176:	83 ec 48             	sub    $0x48,%esp
    3179:	8b 5d 08             	mov    0x8(%ebp),%ebx
    317c:	53                   	push   %ebx
    317d:	e8 6e 0e 00 00       	call   3ff0 <ddf_dev_parent_sess_create>
    3182:	83 c4 10             	add    $0x10,%esp
    3185:	85 c0                	test   %eax,%eax
    3187:	0f 84 bd 00 00 00    	je     324a <ata_dev_add+0xda>
    318d:	8d 75 c8             	lea    -0x38(%ebp),%esi
    3190:	52                   	push   %edx
    3191:	6a 20                	push   $0x20
    3193:	6a 00                	push   $0x0
    3195:	56                   	push   %esi
    3196:	89 c7                	mov    %eax,%edi
    3198:	e8 73 ba 00 00       	call   ec10 <memset@plt>
    319d:	83 c4 0c             	add    $0xc,%esp
    31a0:	6a 00                	push   $0x0
    31a2:	56                   	push   %esi
    31a3:	57                   	push   %edi
    31a4:	e8 c7 bb 00 00       	call   ed70 <hw_res_get_list_parsed@plt>
    31a9:	83 c4 10             	add    $0x10,%esp
    31ac:	85 c0                	test   %eax,%eax
    31ae:	0f 85 96 00 00 00    	jne    324a <ata_dev_add+0xda>
    31b4:	83 7d e0 02          	cmpl   $0x2,-0x20(%ebp)
    31b8:	75 56                	jne    3210 <ata_dev_add+0xa0>
    31ba:	8b 45 e4             	mov    -0x1c(%ebp),%eax
    31bd:	8b 10                	mov    (%eax),%edx
    31bf:	89 55 c0             	mov    %edx,-0x40(%ebp)
    31c2:	8b 50 18             	mov    0x18(%eax),%edx
    31c5:	89 55 c4             	mov    %edx,-0x3c(%ebp)
    31c8:	83 78 28 07          	cmpl   $0x7,0x28(%eax)
    31cc:	76 42                	jbe    3210 <ata_dev_add+0xa0>
    31ce:	83 78 10 07          	cmpl   $0x7,0x10(%eax)
    31d2:	76 3c                	jbe    3210 <ata_dev_add+0xa0>
    31d4:	50                   	push   %eax
    31d5:	50                   	push   %eax
    31d6:	68 cc 01 00 00       	push   $0x1cc
    31db:	53                   	push   %ebx
    31dc:	e8 9f 0d 00 00       	call   3f80 <ddf_dev_data_alloc>
    31e1:	83 c4 10             	add    $0x10,%esp
    31e4:	85 c0                	test   %eax,%eax
    31e6:	0f 84 94 00 00 00    	je     3280 <ata_dev_add+0x110>
    31ec:	89 18                	mov    %ebx,(%eax)
    31ee:	8d 55 c0             	lea    -0x40(%ebp),%edx
    31f1:	53                   	push   %ebx
    31f2:	53                   	push   %ebx
    31f3:	52                   	push   %edx
    31f4:	50                   	push   %eax
    31f5:	e8 a6 f9 ff ff       	call   2ba0 <ata_ctrl_init>
    31fa:	83 c4 10             	add    $0x10,%esp
    31fd:	85 c0                	test   %eax,%eax
    31ff:	75 67                	jne    3268 <ata_dev_add+0xf8>
    3201:	8d 65 f4             	lea    -0xc(%ebp),%esp
    3204:	5b                   	pop    %ebx
    3205:	5e                   	pop    %esi
    3206:	5f                   	pop    %edi
    3207:	5d                   	pop    %ebp
    3208:	c3                   	ret    
    3209:	8d b4 26 00 00 00 00 	lea    0x0(%esi,%eiz,1),%esi
    3210:	83 ec 0c             	sub    $0xc,%esp
    3213:	8b 7d cc             	mov    -0x34(%ebp),%edi
    3216:	57                   	push   %edi
    3217:	e8 c4 bb 00 00       	call   ede0 <free@plt>
    321c:	58                   	pop    %eax
    321d:	8b 45 e4             	mov    -0x1c(%ebp),%eax
    3220:	50                   	push   %eax
    3221:	e8 ba bb 00 00       	call   ede0 <free@plt>
    3226:	58                   	pop    %eax
    3227:	8b 45 dc             	mov    -0x24(%ebp),%eax
    322a:	50                   	push   %eax
    322b:	e8 b0 bb 00 00       	call   ede0 <free@plt>
    3230:	58                   	pop    %eax
    3231:	8b 45 d4             	mov    -0x2c(%ebp),%eax
    3234:	50                   	push   %eax
    3235:	e8 a6 bb 00 00       	call   ede0 <free@plt>
    323a:	83 c4 0c             	add    $0xc,%esp
    323d:	6a 20                	push   $0x20
    323f:	6a 00                	push   $0x0
    3241:	56                   	push   %esi
    3242:	e8 c9 b9 00 00       	call   ec10 <memset@plt>
    3247:	83 c4 10             	add    $0x10,%esp
    324a:	52                   	push   %edx
    324b:	52                   	push   %edx
    324c:	68 88 ca 00 00       	push   $0xca88
    3251:	6a 01                	push   $0x1
    3253:	e8 28 16 00 00       	call   4880 <ddf_msg>
    3258:	83 c4 10             	add    $0x10,%esp
    325b:	8d 65 f4             	lea    -0xc(%ebp),%esp
    325e:	b8 f2 ff ff ff       	mov    $0xfffffff2,%eax
    3263:	5b                   	pop    %ebx
    3264:	5e                   	pop    %esi
    3265:	5f                   	pop    %edi
    3266:	5d                   	pop    %ebp
    3267:	c3                   	ret    
    3268:	51                   	push   %ecx
    3269:	51                   	push   %ecx
    326a:	68 64 ca 00 00       	push   $0xca64
    326f:	6a 01                	push   $0x1
    3271:	e8 0a 16 00 00       	call   4880 <ddf_msg>
    3276:	83 c4 10             	add    $0x10,%esp
    3279:	b8 f6 fe ff ff       	mov    $0xfffffef6,%eax
    327e:	eb 81                	jmp    3201 <ata_dev_add+0x91>
    3280:	56                   	push   %esi
    3281:	56                   	push   %esi
    3282:	68 b8 c9 00 00       	push   $0xc9b8
    3287:	6a 01                	push   $0x1
    3289:	e8 f2 15 00 00       	call   4880 <ddf_msg>
    328e:	83 c4 10             	add    $0x10,%esp
    3291:	b8 fe ff ff ff       	mov    $0xfffffffe,%eax
    3296:	e9 66 ff ff ff       	jmp    3201 <ata_dev_add+0x91>
    329b:	90                   	nop
    329c:	8d 74 26 00          	lea    0x0(%esi,%eiz,1),%esi

000032a0 <ata_fun_create>:
    32a0:	55                   	push   %ebp
    32a1:	89 e5                	mov    %esp,%ebp
    32a3:	57                   	push   %edi
    32a4:	56                   	push   %esi
    32a5:	53                   	push   %ebx
    32a6:	83 ec 30             	sub    $0x30,%esp
    32a9:	8b 45 08             	mov    0x8(%ebp),%eax
    32ac:	8b 58 04             	mov    0x4(%eax),%ebx
    32af:	8b 80 d0 00 00 00    	mov    0xd0(%eax),%eax
    32b5:	50                   	push   %eax
    32b6:	8d 45 e4             	lea    -0x1c(%ebp),%eax
    32b9:	68 d6 c9 00 00       	push   $0xc9d6
    32be:	50                   	push   %eax
    32bf:	e8 9c b9 00 00       	call   ec60 <asprintf@plt>
    32c4:	83 c4 10             	add    $0x10,%esp
    32c7:	85 c0                	test   %eax,%eax
    32c9:	0f 88 e9 00 00 00    	js     33b8 <ata_fun_create+0x118>
    32cf:	8b 75 e4             	mov    -0x1c(%ebp),%esi
    32d2:	85 f6                	test   %esi,%esi
    32d4:	0f 84 de 00 00 00    	je     33b8 <ata_fun_create+0x118>
    32da:	50                   	push   %eax
    32db:	56                   	push   %esi
    32dc:	8b 03                	mov    (%ebx),%eax
    32de:	6a 02                	push   $0x2
    32e0:	50                   	push   %eax
    32e1:	e8 ca 0d 00 00       	call   40b0 <ddf_fun_create>
    32e6:	83 c4 10             	add    $0x10,%esp
    32e9:	89 c3                	mov    %eax,%ebx
    32eb:	85 c0                	test   %eax,%eax
    32ed:	0f 84 ed 00 00 00    	je     33e0 <ata_fun_create+0x140>
    32f3:	50                   	push   %eax
    32f4:	50                   	push   %eax
    32f5:	6a 10                	push   $0x10
    32f7:	53                   	push   %ebx
    32f8:	e8 c3 0e 00 00       	call   41c0 <ddf_fun_data_alloc>
    32fd:	83 c4 10             	add    $0x10,%esp
    3300:	89 c7                	mov    %eax,%edi
    3302:	85 c0                	test   %eax,%eax
    3304:	0f 84 f6 00 00 00    	je     3400 <ata_fun_create+0x160>
    330a:	83 ec 0c             	sub    $0xc,%esp
    330d:	89 18                	mov    %ebx,(%eax)
    330f:	8b 45 08             	mov    0x8(%ebp),%eax
    3312:	89 47 04             	mov    %eax,0x4(%edi)
    3315:	8d 47 08             	lea    0x8(%edi),%eax
    3318:	50                   	push   %eax
    3319:	e8 02 b8 00 00       	call   eb20 <bd_srvs_init@plt>
    331e:	8b 45 08             	mov    0x8(%ebp),%eax
    3321:	c7 47 08 80 0d 01 00 	movl   $0x10d80,0x8(%edi)
    3328:	89 47 0c             	mov    %eax,0xc(%edi)
    332b:	5a                   	pop    %edx
    332c:	59                   	pop    %ecx
    332d:	68 50 30 00 00       	push   $0x3050
    3332:	53                   	push   %ebx
    3333:	e8 58 13 00 00       	call   4690 <ddf_fun_set_conn_handler>
    3338:	89 1c 24             	mov    %ebx,(%esp)
    333b:	e8 30 10 00 00       	call   4370 <ddf_fun_bind>
    3340:	83 c4 10             	add    $0x10,%esp
    3343:	89 45 d4             	mov    %eax,-0x2c(%ebp)
    3346:	85 c0                	test   %eax,%eax
    3348:	74 3e                	je     3388 <ata_fun_create+0xe8>
    334a:	83 ec 0c             	sub    $0xc,%esp
    334d:	50                   	push   %eax
    334e:	e8 8d b9 00 00       	call   ece0 <str_error@plt>
    3353:	50                   	push   %eax
    3354:	56                   	push   %esi
    3355:	68 ac ca 00 00       	push   $0xcaac
    335a:	6a 01                	push   $0x1
    335c:	e8 1f 15 00 00       	call   4880 <ddf_msg>
    3361:	83 c4 20             	add    $0x20,%esp
    3364:	83 ec 0c             	sub    $0xc,%esp
    3367:	53                   	push   %ebx
    3368:	e8 d3 0e 00 00       	call   4240 <ddf_fun_destroy>
    336d:	83 c4 10             	add    $0x10,%esp
    3370:	83 ec 0c             	sub    $0xc,%esp
    3373:	56                   	push   %esi
    3374:	e8 67 ba 00 00       	call   ede0 <free@plt>
    3379:	8b 45 d4             	mov    -0x2c(%ebp),%eax
    337c:	83 c4 10             	add    $0x10,%esp
    337f:	8d 65 f4             	lea    -0xc(%ebp),%esp
    3382:	5b                   	pop    %ebx
    3383:	5e                   	pop    %esi
    3384:	5f                   	pop    %edi
    3385:	5d                   	pop    %ebp
    3386:	c3                   	ret    
    3387:	90                   	nop
    3388:	50                   	push   %eax
    3389:	50                   	push   %eax
    338a:	68 24 ca 00 00       	push   $0xca24
    338f:	53                   	push   %ebx
    3390:	e8 2b 13 00 00       	call   46c0 <ddf_fun_add_to_category>
    3395:	89 34 24             	mov    %esi,(%esp)
    3398:	e8 43 ba 00 00       	call   ede0 <free@plt>
    339d:	8b 45 08             	mov    0x8(%ebp),%eax
    33a0:	83 c4 10             	add    $0x10,%esp
    33a3:	89 78 08             	mov    %edi,0x8(%eax)
    33a6:	8b 45 d4             	mov    -0x2c(%ebp),%eax
    33a9:	8d 65 f4             	lea    -0xc(%ebp),%esp
    33ac:	5b                   	pop    %ebx
    33ad:	5e                   	pop    %esi
    33ae:	5f                   	pop    %edi
    33af:	5d                   	pop    %ebp
    33b0:	c3                   	ret    
    33b1:	8d b4 26 00 00 00 00 	lea    0x0(%esi,%eiz,1),%esi
    33b8:	50                   	push   %eax
    33b9:	50                   	push   %eax
    33ba:	68 da c9 00 00       	push   $0xc9da
    33bf:	6a 01                	push   $0x1
    33c1:	e8 ba 14 00 00       	call   4880 <ddf_msg>
    33c6:	c7 45 d4 fe ff ff ff 	movl   $0xfffffffe,-0x2c(%ebp)
    33cd:	8b 45 d4             	mov    -0x2c(%ebp),%eax
    33d0:	83 c4 10             	add    $0x10,%esp
    33d3:	8d 65 f4             	lea    -0xc(%ebp),%esp
    33d6:	5b                   	pop    %ebx
    33d7:	5e                   	pop    %esi
    33d8:	5f                   	pop    %edi
    33d9:	5d                   	pop    %ebp
    33da:	c3                   	ret    
    33db:	90                   	nop
    33dc:	8d 74 26 00          	lea    0x0(%esi,%eiz,1),%esi
    33e0:	50                   	push   %eax
    33e1:	50                   	push   %eax
    33e2:	68 e9 c9 00 00       	push   $0xc9e9
    33e7:	6a 01                	push   $0x1
    33e9:	e8 92 14 00 00       	call   4880 <ddf_msg>
    33ee:	83 c4 10             	add    $0x10,%esp
    33f1:	c7 45 d4 fe ff ff ff 	movl   $0xfffffffe,-0x2c(%ebp)
    33f8:	e9 73 ff ff ff       	jmp    3370 <ata_fun_create+0xd0>
    33fd:	8d 76 00             	lea    0x0(%esi),%esi
    3400:	57                   	push   %edi
    3401:	57                   	push   %edi
    3402:	68 07 ca 00 00       	push   $0xca07
    3407:	6a 01                	push   $0x1
    3409:	e8 72 14 00 00       	call   4880 <ddf_msg>
    340e:	83 c4 10             	add    $0x10,%esp
    3411:	c7 45 d4 fe ff ff ff 	movl   $0xfffffffe,-0x2c(%ebp)
    3418:	e9 47 ff ff ff       	jmp    3364 <ata_fun_create+0xc4>
    341d:	8d 76 00             	lea    0x0(%esi),%esi

00003420 <ata_fun_remove>:
    3420:	55                   	push   %ebp
    3421:	89 e5                	mov    %esp,%ebp
    3423:	56                   	push   %esi
    3424:	53                   	push   %ebx
    3425:	83 ec 20             	sub    $0x20,%esp
    3428:	8b 5d 08             	mov    0x8(%ebp),%ebx
    342b:	8b 43 08             	mov    0x8(%ebx),%eax
    342e:	85 c0                	test   %eax,%eax
    3430:	0f 84 b2 00 00 00    	je     34e8 <ata_fun_remove+0xc8>
    3436:	50                   	push   %eax
    3437:	8b 83 d0 00 00 00    	mov    0xd0(%ebx),%eax
    343d:	50                   	push   %eax
    343e:	8d 45 f4             	lea    -0xc(%ebp),%eax
    3441:	68 d6 c9 00 00       	push   $0xc9d6
    3446:	50                   	push   %eax
    3447:	e8 14 b8 00 00       	call   ec60 <asprintf@plt>
    344c:	83 c4 10             	add    $0x10,%esp
    344f:	85 c0                	test   %eax,%eax
    3451:	0f 88 d1 00 00 00    	js     3528 <ata_fun_remove+0x108>
    3457:	8b 75 f4             	mov    -0xc(%ebp),%esi
    345a:	85 f6                	test   %esi,%esi
    345c:	0f 84 c6 00 00 00    	je     3528 <ata_fun_remove+0x108>
    3462:	56                   	push   %esi
    3463:	53                   	push   %ebx
    3464:	68 29 ca 00 00       	push   $0xca29
    3469:	6a 04                	push   $0x4
    346b:	e8 10 14 00 00       	call   4880 <ddf_msg>
    3470:	58                   	pop    %eax
    3471:	8b 43 08             	mov    0x8(%ebx),%eax
    3474:	8b 00                	mov    (%eax),%eax
    3476:	50                   	push   %eax
    3477:	e8 f4 10 00 00       	call   4570 <ddf_fun_offline>
    347c:	83 c4 10             	add    $0x10,%esp
    347f:	89 45 e4             	mov    %eax,-0x1c(%ebp)
    3482:	85 c0                	test   %eax,%eax
    3484:	75 4a                	jne    34d0 <ata_fun_remove+0xb0>
    3486:	8b 43 08             	mov    0x8(%ebx),%eax
    3489:	83 ec 0c             	sub    $0xc,%esp
    348c:	8b 08                	mov    (%eax),%ecx
    348e:	51                   	push   %ecx
    348f:	e8 0c 10 00 00       	call   44a0 <ddf_fun_unbind>
    3494:	83 c4 10             	add    $0x10,%esp
    3497:	85 c0                	test   %eax,%eax
    3499:	74 5d                	je     34f8 <ata_fun_remove+0xd8>
    349b:	52                   	push   %edx
    349c:	56                   	push   %esi
    349d:	68 f0 ca 00 00       	push   $0xcaf0
    34a2:	6a 01                	push   $0x1
    34a4:	89 45 e4             	mov    %eax,-0x1c(%ebp)
    34a7:	e8 d4 13 00 00       	call   4880 <ddf_msg>
    34ac:	83 c4 10             	add    $0x10,%esp
    34af:	8b 45 e4             	mov    -0x1c(%ebp),%eax
    34b2:	83 ec 0c             	sub    $0xc,%esp
    34b5:	89 45 e4             	mov    %eax,-0x1c(%ebp)
    34b8:	56                   	push   %esi
    34b9:	e8 22 b9 00 00       	call   ede0 <free@plt>
    34be:	8b 45 e4             	mov    -0x1c(%ebp),%eax
    34c1:	83 c4 10             	add    $0x10,%esp
    34c4:	8d 65 f8             	lea    -0x8(%ebp),%esp
    34c7:	5b                   	pop    %ebx
    34c8:	5e                   	pop    %esi
    34c9:	5d                   	pop    %ebp
    34ca:	c3                   	ret    
    34cb:	90                   	nop
    34cc:	8d 74 26 00          	lea    0x0(%esi,%eiz,1),%esi
    34d0:	53                   	push   %ebx
    34d1:	56                   	push   %esi
    34d2:	68 d0 ca 00 00       	push   $0xcad0
    34d7:	6a 01                	push   $0x1
    34d9:	e8 a2 13 00 00       	call   4880 <ddf_msg>
    34de:	83 c4 10             	add    $0x10,%esp
    34e1:	8b 45 e4             	mov    -0x1c(%ebp),%eax
    34e4:	eb cc                	jmp    34b2 <ata_fun_remove+0x92>
    34e6:	66 90                	xchg   %ax,%ax
    34e8:	8d 65 f8             	lea    -0x8(%ebp),%esp
    34eb:	31 c0                	xor    %eax,%eax
    34ed:	5b                   	pop    %ebx
    34ee:	5e                   	pop    %esi
    34ef:	5d                   	pop    %ebp
    34f0:	c3                   	ret    
    34f1:	8d b4 26 00 00 00 00 	lea    0x0(%esi,%eiz,1),%esi
    34f8:	8b 53 08             	mov    0x8(%ebx),%edx
    34fb:	83 ec 0c             	sub    $0xc,%esp
    34fe:	89 45 e4             	mov    %eax,-0x1c(%ebp)
    3501:	8b 02                	mov    (%edx),%eax
    3503:	50                   	push   %eax
    3504:	e8 37 0d 00 00       	call   4240 <ddf_fun_destroy>
    3509:	c7 43 08 00 00 00 00 	movl   $0x0,0x8(%ebx)
    3510:	89 34 24             	mov    %esi,(%esp)
    3513:	e8 c8 b8 00 00       	call   ede0 <free@plt>
    3518:	8b 45 e4             	mov    -0x1c(%ebp),%eax
    351b:	83 c4 10             	add    $0x10,%esp
    351e:	8d 65 f8             	lea    -0x8(%ebp),%esp
    3521:	5b                   	pop    %ebx
    3522:	5e                   	pop    %esi
    3523:	5d                   	pop    %ebp
    3524:	c3                   	ret    
    3525:	8d 76 00             	lea    0x0(%esi),%esi
    3528:	50                   	push   %eax
    3529:	50                   	push   %eax
    352a:	68 da c9 00 00       	push   $0xc9da
    352f:	6a 01                	push   $0x1
    3531:	e8 4a 13 00 00       	call   4880 <ddf_msg>
    3536:	83 c4 10             	add    $0x10,%esp
    3539:	8d 65 f8             	lea    -0x8(%ebp),%esp
    353c:	b8 fe ff ff ff       	mov    $0xfffffffe,%eax
    3541:	5b                   	pop    %ebx
    3542:	5e                   	pop    %esi
    3543:	5d                   	pop    %ebp
    3544:	c3                   	ret    
    3545:	8d 74 26 00          	lea    0x0(%esi,%eiz,1),%esi
    3549:	8d bc 27 00 00 00 00 	lea    0x0(%edi,%eiz,1),%edi

00003550 <ata_fun_unbind>:
    3550:	55                   	push   %ebp
    3551:	89 e5                	mov    %esp,%ebp
    3553:	56                   	push   %esi
    3554:	53                   	push   %ebx
    3555:	83 ec 20             	sub    $0x20,%esp
    3558:	8b 5d 08             	mov    0x8(%ebp),%ebx
    355b:	8b 43 08             	mov    0x8(%ebx),%eax
    355e:	85 c0                	test   %eax,%eax
    3560:	0f 84 aa 00 00 00    	je     3610 <ata_fun_unbind+0xc0>
    3566:	50                   	push   %eax
    3567:	8b 83 d0 00 00 00    	mov    0xd0(%ebx),%eax
    356d:	50                   	push   %eax
    356e:	8d 45 f4             	lea    -0xc(%ebp),%eax
    3571:	68 d6 c9 00 00       	push   $0xc9d6
    3576:	50                   	push   %eax
    3577:	e8 e4 b6 00 00       	call   ec60 <asprintf@plt>
    357c:	83 c4 10             	add    $0x10,%esp
    357f:	85 c0                	test   %eax,%eax
    3581:	0f 88 99 00 00 00    	js     3620 <ata_fun_unbind+0xd0>
    3587:	8b 75 f4             	mov    -0xc(%ebp),%esi
    358a:	85 f6                	test   %esi,%esi
    358c:	0f 84 8e 00 00 00    	je     3620 <ata_fun_unbind+0xd0>
    3592:	56                   	push   %esi
    3593:	53                   	push   %ebx
    3594:	68 42 ca 00 00       	push   $0xca42
    3599:	6a 04                	push   $0x4
    359b:	e8 e0 12 00 00       	call   4880 <ddf_msg>
    35a0:	8b 43 08             	mov    0x8(%ebx),%eax
    35a3:	8b 00                	mov    (%eax),%eax
    35a5:	59                   	pop    %ecx
    35a6:	50                   	push   %eax
    35a7:	e8 f4 0e 00 00       	call   44a0 <ddf_fun_unbind>
    35ac:	83 c4 10             	add    $0x10,%esp
    35af:	85 c0                	test   %eax,%eax
    35b1:	74 2d                	je     35e0 <ata_fun_unbind+0x90>
    35b3:	52                   	push   %edx
    35b4:	56                   	push   %esi
    35b5:	68 f0 ca 00 00       	push   $0xcaf0
    35ba:	6a 01                	push   $0x1
    35bc:	89 45 e4             	mov    %eax,-0x1c(%ebp)
    35bf:	e8 bc 12 00 00       	call   4880 <ddf_msg>
    35c4:	89 34 24             	mov    %esi,(%esp)
    35c7:	e8 14 b8 00 00       	call   ede0 <free@plt>
    35cc:	8b 45 e4             	mov    -0x1c(%ebp),%eax
    35cf:	83 c4 10             	add    $0x10,%esp
    35d2:	8d 65 f8             	lea    -0x8(%ebp),%esp
    35d5:	5b                   	pop    %ebx
    35d6:	5e                   	pop    %esi
    35d7:	5d                   	pop    %ebp
    35d8:	c3                   	ret    
    35d9:	8d b4 26 00 00 00 00 	lea    0x0(%esi,%eiz,1),%esi
    35e0:	8b 53 08             	mov    0x8(%ebx),%edx
    35e3:	83 ec 0c             	sub    $0xc,%esp
    35e6:	89 45 e4             	mov    %eax,-0x1c(%ebp)
    35e9:	8b 02                	mov    (%edx),%eax
    35eb:	50                   	push   %eax
    35ec:	e8 4f 0c 00 00       	call   4240 <ddf_fun_destroy>
    35f1:	c7 43 08 00 00 00 00 	movl   $0x0,0x8(%ebx)
    35f8:	89 34 24             	mov    %esi,(%esp)
    35fb:	e8 e0 b7 00 00       	call   ede0 <free@plt>
    3600:	8b 45 e4             	mov    -0x1c(%ebp),%eax
    3603:	83 c4 10             	add    $0x10,%esp
    3606:	8d 65 f8             	lea    -0x8(%ebp),%esp
    3609:	5b                   	pop    %ebx
    360a:	5e                   	pop    %esi
    360b:	5d                   	pop    %ebp
    360c:	c3                   	ret    
    360d:	8d 76 00             	lea    0x0(%esi),%esi
    3610:	8d 65 f8             	lea    -0x8(%ebp),%esp
    3613:	31 c0                	xor    %eax,%eax
    3615:	5b                   	pop    %ebx
    3616:	5e                   	pop    %esi
    3617:	5d                   	pop    %ebp
    3618:	c3                   	ret    
    3619:	8d b4 26 00 00 00 00 	lea    0x0(%esi,%eiz,1),%esi
    3620:	50                   	push   %eax
    3621:	50                   	push   %eax
    3622:	68 da c9 00 00       	push   $0xc9da
    3627:	6a 01                	push   $0x1
    3629:	e8 52 12 00 00       	call   4880 <ddf_msg>
    362e:	83 c4 10             	add    $0x10,%esp
    3631:	8d 65 f8             	lea    -0x8(%ebp),%esp
    3634:	b8 fe ff ff ff       	mov    $0xfffffffe,%eax
    3639:	5b                   	pop    %ebx
    363a:	5e                   	pop    %esi
    363b:	5d                   	pop    %ebp
    363c:	c3                   	ret    
    363d:	66 90                	xchg   %ax,%ax
    363f:	90                   	nop

00003640 <main>:
    3640:	8d 4c 24 04          	lea    0x4(%esp),%ecx
    3644:	83 e4 f0             	and    $0xfffffff0,%esp
    3647:	ff 71 fc             	pushl  -0x4(%ecx)
    364a:	55                   	push   %ebp
    364b:	89 e5                	mov    %esp,%ebp
    364d:	51                   	push   %ecx
    364e:	83 ec 10             	sub    $0x10,%esp
    3651:	68 10 cb 00 00       	push   $0xcb10
    3656:	e8 95 b2 00 00       	call   e8f0 <printf@plt>
    365b:	c7 04 24 5b ca 00 00 	movl   $0xca5b,(%esp)
    3662:	e8 09 12 00 00       	call   4870 <ddf_log_init>
    3667:	c7 04 24 a0 0d 01 00 	movl   $0x10da0,(%esp)
    366e:	e8 9d 10 00 00       	call   4710 <ddf_driver_main>
    3673:	8b 4d fc             	mov    -0x4(%ebp),%ecx
    3676:	c9                   	leave  
    3677:	8d 61 fc             	lea    -0x4(%ecx),%esp
    367a:	c3                   	ret    
    367b:	66 90                	xchg   %ax,%ax
    367d:	66 90                	xchg   %ax,%ax
    367f:	90                   	nop

00003680 <fun_del_ref>:
    3680:	55                   	push   %ebp
    3681:	83 ca ff             	or     $0xffffffff,%edx
    3684:	89 e5                	mov    %esp,%ebp
    3686:	57                   	push   %edi
    3687:	56                   	push   %esi
    3688:	53                   	push   %ebx
    3689:	83 ec 1c             	sub    $0x1c,%esp
    368c:	8b 70 0c             	mov    0xc(%eax),%esi
    368f:	f0 0f c1 50 08       	lock xadd %edx,0x8(%eax)
    3694:	4a                   	dec    %edx
    3695:	74 69                	je     3700 <fun_del_ref+0x80>
    3697:	83 c8 ff             	or     $0xffffffff,%eax
    369a:	f0 0f c1 46 04       	lock xadd %eax,0x4(%esi)
    369f:	48                   	dec    %eax
    36a0:	74 0e                	je     36b0 <fun_del_ref+0x30>
    36a2:	8d 65 f4             	lea    -0xc(%ebp),%esp
    36a5:	5b                   	pop    %ebx
    36a6:	5e                   	pop    %esi
    36a7:	5f                   	pop    %edi
    36a8:	5d                   	pop    %ebp
    36a9:	c3                   	ret    
    36aa:	8d b6 00 00 00 00    	lea    0x0(%esi),%esi
    36b0:	8b 46 08             	mov    0x8(%esi),%eax
    36b3:	85 c0                	test   %eax,%eax
    36b5:	74 0c                	je     36c3 <fun_del_ref+0x43>
    36b7:	83 ec 0c             	sub    $0xc,%esp
    36ba:	50                   	push   %eax
    36bb:	e8 40 b2 00 00       	call   e900 <async_hangup@plt>
    36c0:	83 c4 10             	add    $0x10,%esp
    36c3:	8b 46 10             	mov    0x10(%esi),%eax
    36c6:	85 c0                	test   %eax,%eax
    36c8:	74 0c                	je     36d6 <fun_del_ref+0x56>
    36ca:	83 ec 0c             	sub    $0xc,%esp
    36cd:	50                   	push   %eax
    36ce:	e8 0d b7 00 00       	call   ede0 <free@plt>
    36d3:	83 c4 10             	add    $0x10,%esp
    36d6:	8b 46 0c             	mov    0xc(%esi),%eax
    36d9:	85 c0                	test   %eax,%eax
    36db:	74 0c                	je     36e9 <fun_del_ref+0x69>
    36dd:	83 ec 0c             	sub    $0xc,%esp
    36e0:	50                   	push   %eax
    36e1:	e8 fa b6 00 00       	call   ede0 <free@plt>
    36e6:	83 c4 10             	add    $0x10,%esp
    36e9:	83 ec 0c             	sub    $0xc,%esp
    36ec:	56                   	push   %esi
    36ed:	e8 ee b6 00 00       	call   ede0 <free@plt>
    36f2:	83 c4 10             	add    $0x10,%esp
    36f5:	8d 65 f4             	lea    -0xc(%ebp),%esp
    36f8:	5b                   	pop    %ebx
    36f9:	5e                   	pop    %esi
    36fa:	5f                   	pop    %edi
    36fb:	5d                   	pop    %ebp
    36fc:	c3                   	ret    
    36fd:	8d 76 00             	lea    0x0(%esi),%esi
    3700:	8b 58 1c             	mov    0x1c(%eax),%ebx
    3703:	89 c7                	mov    %eax,%edi
    3705:	8d 40 18             	lea    0x18(%eax),%eax
    3708:	89 45 e4             	mov    %eax,-0x1c(%ebp)
    370b:	39 d8                	cmp    %ebx,%eax
    370d:	74 49                	je     3758 <fun_del_ref+0xd8>
    370f:	90                   	nop
    3710:	8b 0b                	mov    (%ebx),%ecx
    3712:	85 c9                	test   %ecx,%ecx
    3714:	74 0e                	je     3724 <fun_del_ref+0xa4>
    3716:	8b 53 04             	mov    0x4(%ebx),%edx
    3719:	85 d2                	test   %edx,%edx
    371b:	74 07                	je     3724 <fun_del_ref+0xa4>
    371d:	89 0a                	mov    %ecx,(%edx)
    371f:	8b 0b                	mov    (%ebx),%ecx
    3721:	89 51 04             	mov    %edx,0x4(%ecx)
    3724:	8b 53 08             	mov    0x8(%ebx),%edx
    3727:	c7 03 00 00 00 00    	movl   $0x0,(%ebx)
    372d:	c7 43 04 00 00 00 00 	movl   $0x0,0x4(%ebx)
    3734:	85 d2                	test   %edx,%edx
    3736:	74 0c                	je     3744 <fun_del_ref+0xc4>
    3738:	83 ec 0c             	sub    $0xc,%esp
    373b:	52                   	push   %edx
    373c:	e8 9f b6 00 00       	call   ede0 <free@plt>
    3741:	83 c4 10             	add    $0x10,%esp
    3744:	83 ec 0c             	sub    $0xc,%esp
    3747:	53                   	push   %ebx
    3748:	e8 93 b6 00 00       	call   ede0 <free@plt>
    374d:	8b 5f 1c             	mov    0x1c(%edi),%ebx
    3750:	83 c4 10             	add    $0x10,%esp
    3753:	3b 5d e4             	cmp    -0x1c(%ebp),%ebx
    3756:	75 b8                	jne    3710 <fun_del_ref+0x90>
    3758:	8b 57 20             	mov    0x20(%edi),%edx
    375b:	85 d2                	test   %edx,%edx
    375d:	74 0c                	je     376b <fun_del_ref+0xeb>
    375f:	83 ec 0c             	sub    $0xc,%esp
    3762:	52                   	push   %edx
    3763:	e8 78 b6 00 00       	call   ede0 <free@plt>
    3768:	83 c4 10             	add    $0x10,%esp
    376b:	8b 57 14             	mov    0x14(%edi),%edx
    376e:	85 d2                	test   %edx,%edx
    3770:	74 0c                	je     377e <fun_del_ref+0xfe>
    3772:	83 ec 0c             	sub    $0xc,%esp
    3775:	52                   	push   %edx
    3776:	e8 65 b6 00 00       	call   ede0 <free@plt>
    377b:	83 c4 10             	add    $0x10,%esp
    377e:	83 ec 0c             	sub    $0xc,%esp
    3781:	57                   	push   %edi
    3782:	e8 59 b6 00 00       	call   ede0 <free@plt>
    3787:	83 c4 10             	add    $0x10,%esp
    378a:	e9 08 ff ff ff       	jmp    3697 <fun_del_ref+0x17>
    378f:	90                   	nop

00003790 <driver_connection_gen.constprop.7>:
    3790:	55                   	push   %ebp
    3791:	89 e5                	mov    %esp,%ebp
    3793:	57                   	push   %edi
    3794:	56                   	push   %esi
    3795:	53                   	push   %ebx
    3796:	83 ec 58             	sub    $0x58,%esp
    3799:	89 d3                	mov    %edx,%ebx
    379b:	8b 72 08             	mov    0x8(%edx),%esi
    379e:	89 45 b4             	mov    %eax,-0x4c(%ebp)
    37a1:	68 bc 0d 01 00       	push   $0x10dbc
    37a6:	e8 55 b6 00 00       	call   ee00 <fibril_mutex_lock@plt>
    37ab:	c7 04 24 bc 0d 01 00 	movl   $0x10dbc,(%esp)
    37b2:	e8 a9 b1 00 00       	call   e960 <fibril_mutex_is_locked@plt>
    37b7:	83 c4 10             	add    $0x10,%esp
    37ba:	84 c0                	test   %al,%al
    37bc:	0f 84 71 02 00 00    	je     3a33 <driver_connection_gen.constprop.7+0x2a3>
    37c2:	a1 d0 0d 01 00       	mov    0x10dd0,%eax
    37c7:	3d cc 0d 01 00       	cmp    $0x10dcc,%eax
    37cc:	8d 78 d4             	lea    -0x2c(%eax),%edi
    37cf:	75 18                	jne    37e9 <driver_connection_gen.constprop.7+0x59>
    37d1:	e9 22 02 00 00       	jmp    39f8 <driver_connection_gen.constprop.7+0x268>
    37d6:	66 90                	xchg   %ax,%ax
    37d8:	8b 40 04             	mov    0x4(%eax),%eax
    37db:	3d cc 0d 01 00       	cmp    $0x10dcc,%eax
    37e0:	8d 78 d4             	lea    -0x2c(%eax),%edi
    37e3:	0f 84 0f 02 00 00    	je     39f8 <driver_connection_gen.constprop.7+0x268>
    37e9:	3b 77 04             	cmp    0x4(%edi),%esi
    37ec:	75 ea                	jne    37d8 <driver_connection_gen.constprop.7+0x48>
    37ee:	8b 47 0c             	mov    0xc(%edi),%eax
    37f1:	f0 ff 40 04          	lock incl 0x4(%eax)
    37f5:	f0 ff 47 08          	lock incl 0x8(%edi)
    37f9:	83 ec 0c             	sub    $0xc,%esp
    37fc:	68 bc 0d 01 00       	push   $0x10dbc
    3801:	e8 3a b3 00 00       	call   eb40 <fibril_mutex_unlock@plt>
    3806:	8b 47 28             	mov    0x28(%edi),%eax
    3809:	83 c4 10             	add    $0x10,%esp
    380c:	85 c0                	test   %eax,%eax
    380e:	74 20                	je     3830 <driver_connection_gen.constprop.7+0xa0>
    3810:	8b 55 b4             	mov    -0x4c(%ebp),%edx
    3813:	56                   	push   %esi
    3814:	57                   	push   %edi
    3815:	53                   	push   %ebx
    3816:	52                   	push   %edx
    3817:	ff d0                	call   *%eax
    3819:	89 f8                	mov    %edi,%eax
    381b:	e8 60 fe ff ff       	call   3680 <fun_del_ref>
    3820:	83 c4 10             	add    $0x10,%esp
    3823:	8d 65 f4             	lea    -0xc(%ebp),%esp
    3826:	5b                   	pop    %ebx
    3827:	5e                   	pop    %esi
    3828:	5f                   	pop    %edi
    3829:	5d                   	pop    %ebp
    382a:	c3                   	ret    
    382b:	90                   	nop
    382c:	8d 74 26 00          	lea    0x0(%esi,%eiz,1),%esi
    3830:	8b 47 24             	mov    0x24(%edi),%eax
    3833:	85 c0                	test   %eax,%eax
    3835:	0f 84 a5 01 00 00    	je     39e0 <driver_connection_gen.constprop.7+0x250>
    383b:	8b 00                	mov    (%eax),%eax
    383d:	85 c0                	test   %eax,%eax
    383f:	0f 84 9b 01 00 00    	je     39e0 <driver_connection_gen.constprop.7+0x250>
    3845:	83 ec 0c             	sub    $0xc,%esp
    3848:	57                   	push   %edi
    3849:	ff d0                	call   *%eax
    384b:	8b 4d b4             	mov    -0x4c(%ebp),%ecx
    384e:	89 c3                	mov    %eax,%ebx
    3850:	58                   	pop    %eax
    3851:	5a                   	pop    %edx
    3852:	53                   	push   %ebx
    3853:	51                   	push   %ecx
    3854:	e8 97 b1 00 00       	call   e9f0 <async_answer_0@plt>
    3859:	83 c4 10             	add    $0x10,%esp
    385c:	85 db                	test   %ebx,%ebx
    385e:	0f 85 70 01 00 00    	jne    39d4 <driver_connection_gen.constprop.7+0x244>
    3864:	8d 74 26 00          	lea    0x0(%esi,%eiz,1),%esi
    3868:	50                   	push   %eax
    3869:	50                   	push   %eax
    386a:	8d 45 c4             	lea    -0x3c(%ebp),%eax
    386d:	6a 00                	push   $0x0
    386f:	50                   	push   %eax
    3870:	e8 1b b4 00 00       	call   ec90 <async_get_call_timeout@plt>
    3875:	8b 5d c4             	mov    -0x3c(%ebp),%ebx
    3878:	83 c4 10             	add    $0x10,%esp
    387b:	89 45 b4             	mov    %eax,-0x4c(%ebp)
    387e:	85 db                	test   %ebx,%ebx
    3880:	0f 84 e2 00 00 00    	je     3968 <driver_connection_gen.constprop.7+0x1d8>
    3886:	83 ec 0c             	sub    $0xc,%esp
    3889:	81 eb 00 04 00 00    	sub    $0x400,%ebx
    388f:	53                   	push   %ebx
    3890:	e8 cb 0f 00 00       	call   4860 <is_valid_iface_idx>
    3895:	83 c4 10             	add    $0x10,%esp
    3898:	84 c0                	test   %al,%al
    389a:	75 2c                	jne    38c8 <driver_connection_gen.constprop.7+0x138>
    389c:	8b 47 24             	mov    0x24(%edi),%eax
    389f:	85 c0                	test   %eax,%eax
    38a1:	0f 84 91 00 00 00    	je     3938 <driver_connection_gen.constprop.7+0x1a8>
    38a7:	8b 40 44             	mov    0x44(%eax),%eax
    38aa:	85 c0                	test   %eax,%eax
    38ac:	0f 84 86 00 00 00    	je     3938 <driver_connection_gen.constprop.7+0x1a8>
    38b2:	8d 4d c4             	lea    -0x3c(%ebp),%ecx
    38b5:	52                   	push   %edx
    38b6:	51                   	push   %ecx
    38b7:	8b 4d b4             	mov    -0x4c(%ebp),%ecx
    38ba:	51                   	push   %ecx
    38bb:	57                   	push   %edi
    38bc:	ff d0                	call   *%eax
    38be:	83 c4 10             	add    $0x10,%esp
    38c1:	eb a5                	jmp    3868 <driver_connection_gen.constprop.7+0xd8>
    38c3:	90                   	nop
    38c4:	8d 74 26 00          	lea    0x0(%esi,%eiz,1),%esi
    38c8:	83 ec 0c             	sub    $0xc,%esp
    38cb:	53                   	push   %ebx
    38cc:	e8 8f 0f 00 00       	call   4860 <is_valid_iface_idx>
    38d1:	83 c4 10             	add    $0x10,%esp
    38d4:	84 c0                	test   %al,%al
    38d6:	0f 84 69 01 00 00    	je     3a45 <driver_connection_gen.constprop.7+0x2b5>
    38dc:	8b 47 24             	mov    0x24(%edi),%eax
    38df:	85 c0                	test   %eax,%eax
    38e1:	0f 84 b9 00 00 00    	je     39a0 <driver_connection_gen.constprop.7+0x210>
    38e7:	8b 44 98 08          	mov    0x8(%eax,%ebx,4),%eax
    38eb:	89 45 b0             	mov    %eax,-0x50(%ebp)
    38ee:	85 c0                	test   %eax,%eax
    38f0:	0f 84 aa 00 00 00    	je     39a0 <driver_connection_gen.constprop.7+0x210>
    38f6:	83 ec 0c             	sub    $0xc,%esp
    38f9:	53                   	push   %ebx
    38fa:	e8 11 0f 00 00       	call   4810 <get_remote_iface>
    38ff:	83 c4 10             	add    $0x10,%esp
    3902:	85 c0                	test   %eax,%eax
    3904:	0f 84 50 01 00 00    	je     3a5a <driver_connection_gen.constprop.7+0x2ca>
    390a:	8b 4d c8             	mov    -0x38(%ebp),%ecx
    390d:	52                   	push   %edx
    390e:	52                   	push   %edx
    390f:	51                   	push   %ecx
    3910:	50                   	push   %eax
    3911:	e8 2a 0f 00 00       	call   4840 <get_remote_method>
    3916:	83 c4 10             	add    $0x10,%esp
    3919:	85 c0                	test   %eax,%eax
    391b:	0f 84 9f 00 00 00    	je     39c0 <driver_connection_gen.constprop.7+0x230>
    3921:	8d 55 c4             	lea    -0x3c(%ebp),%edx
    3924:	8b 4d b0             	mov    -0x50(%ebp),%ecx
    3927:	52                   	push   %edx
    3928:	8b 55 b4             	mov    -0x4c(%ebp),%edx
    392b:	52                   	push   %edx
    392c:	51                   	push   %ecx
    392d:	57                   	push   %edi
    392e:	ff d0                	call   *%eax
    3930:	83 c4 10             	add    $0x10,%esp
    3933:	e9 30 ff ff ff       	jmp    3868 <driver_connection_gen.constprop.7+0xd8>
    3938:	50                   	push   %eax
    3939:	a1 6c 0f 01 00       	mov    0x10f6c,%eax
    393e:	53                   	push   %ebx
    393f:	8b 00                	mov    (%eax),%eax
    3941:	50                   	push   %eax
    3942:	68 bc cc 00 00       	push   $0xccbc
    3947:	e8 a4 af 00 00       	call   e8f0 <printf@plt>
    394c:	5b                   	pop    %ebx
    394d:	58                   	pop    %eax
    394e:	8b 45 b4             	mov    -0x4c(%ebp),%eax
    3951:	6a f5                	push   $0xfffffff5
    3953:	50                   	push   %eax
    3954:	e8 97 b0 00 00       	call   e9f0 <async_answer_0@plt>
    3959:	83 c4 10             	add    $0x10,%esp
    395c:	e9 07 ff ff ff       	jmp    3868 <driver_connection_gen.constprop.7+0xd8>
    3961:	8d b4 26 00 00 00 00 	lea    0x0(%esi,%eiz,1),%esi
    3968:	8b 47 24             	mov    0x24(%edi),%eax
    396b:	85 c0                	test   %eax,%eax
    396d:	74 10                	je     397f <driver_connection_gen.constprop.7+0x1ef>
    396f:	8b 40 04             	mov    0x4(%eax),%eax
    3972:	85 c0                	test   %eax,%eax
    3974:	74 09                	je     397f <driver_connection_gen.constprop.7+0x1ef>
    3976:	83 ec 0c             	sub    $0xc,%esp
    3979:	57                   	push   %edi
    397a:	ff d0                	call   *%eax
    397c:	83 c4 10             	add    $0x10,%esp
    397f:	8b 75 b4             	mov    -0x4c(%ebp),%esi
    3982:	53                   	push   %ebx
    3983:	53                   	push   %ebx
    3984:	6a 00                	push   $0x0
    3986:	56                   	push   %esi
    3987:	e8 64 b0 00 00       	call   e9f0 <async_answer_0@plt>
    398c:	89 f8                	mov    %edi,%eax
    398e:	e8 ed fc ff ff       	call   3680 <fun_del_ref>
    3993:	83 c4 10             	add    $0x10,%esp
    3996:	8d 65 f4             	lea    -0xc(%ebp),%esp
    3999:	5b                   	pop    %ebx
    399a:	5e                   	pop    %esi
    399b:	5f                   	pop    %edi
    399c:	5d                   	pop    %ebp
    399d:	c3                   	ret    
    399e:	66 90                	xchg   %ax,%ax
    39a0:	50                   	push   %eax
    39a1:	50                   	push   %eax
    39a2:	a1 6c 0f 01 00       	mov    0x10f6c,%eax
    39a7:	8b 00                	mov    (%eax),%eax
    39a9:	50                   	push   %eax
    39aa:	68 f8 cc 00 00       	push   $0xccf8
    39af:	e8 3c af 00 00       	call   e8f0 <printf@plt>
    39b4:	83 c4 0c             	add    $0xc,%esp
    39b7:	53                   	push   %ebx
    39b8:	56                   	push   %esi
    39b9:	68 1c cd 00 00       	push   $0xcd1c
    39be:	eb 87                	jmp    3947 <driver_connection_gen.constprop.7+0x1b7>
    39c0:	50                   	push   %eax
    39c1:	50                   	push   %eax
    39c2:	a1 6c 0f 01 00       	mov    0x10f6c,%eax
    39c7:	8b 00                	mov    (%eax),%eax
    39c9:	50                   	push   %eax
    39ca:	68 54 cd 00 00       	push   $0xcd54
    39cf:	e9 73 ff ff ff       	jmp    3947 <driver_connection_gen.constprop.7+0x1b7>
    39d4:	89 f8                	mov    %edi,%eax
    39d6:	e8 a5 fc ff ff       	call   3680 <fun_del_ref>
    39db:	e9 43 fe ff ff       	jmp    3823 <driver_connection_gen.constprop.7+0x93>
    39e0:	8b 55 b4             	mov    -0x4c(%ebp),%edx
    39e3:	50                   	push   %eax
    39e4:	50                   	push   %eax
    39e5:	6a 00                	push   $0x0
    39e7:	52                   	push   %edx
    39e8:	e8 03 b0 00 00       	call   e9f0 <async_answer_0@plt>
    39ed:	83 c4 10             	add    $0x10,%esp
    39f0:	e9 73 fe ff ff       	jmp    3868 <driver_connection_gen.constprop.7+0xd8>
    39f5:	8d 76 00             	lea    0x0(%esi),%esi
    39f8:	83 ec 0c             	sub    $0xc,%esp
    39fb:	68 bc 0d 01 00       	push   $0x10dbc
    3a00:	e8 3b b1 00 00       	call   eb40 <fibril_mutex_unlock@plt>
    3a05:	a1 6c 0f 01 00       	mov    0x10f6c,%eax
    3a0a:	83 c4 0c             	add    $0xc,%esp
    3a0d:	8b 08                	mov    (%eax),%ecx
    3a0f:	56                   	push   %esi
    3a10:	51                   	push   %ecx
    3a11:	68 90 cd 00 00       	push   $0xcd90
    3a16:	e8 d5 ae 00 00       	call   e8f0 <printf@plt>
    3a1b:	8b 7d b4             	mov    -0x4c(%ebp),%edi
    3a1e:	5b                   	pop    %ebx
    3a1f:	5e                   	pop    %esi
    3a20:	6a ff                	push   $0xffffffff
    3a22:	57                   	push   %edi
    3a23:	e8 c8 af 00 00       	call   e9f0 <async_answer_0@plt>
    3a28:	83 c4 10             	add    $0x10,%esp
    3a2b:	8d 65 f4             	lea    -0xc(%ebp),%esp
    3a2e:	5b                   	pop    %ebx
    3a2f:	5e                   	pop    %esi
    3a30:	5f                   	pop    %edi
    3a31:	5d                   	pop    %ebp
    3a32:	c3                   	ret    
    3a33:	51                   	push   %ecx
    3a34:	6a 6b                	push   $0x6b
    3a36:	68 37 cb 00 00       	push   $0xcb37
    3a3b:	68 90 cc 00 00       	push   $0xcc90
    3a40:	e8 4b b0 00 00       	call   ea90 <assert_abort@plt>
    3a45:	50                   	push   %eax
    3a46:	68 fb 02 00 00       	push   $0x2fb
    3a4b:	68 37 cb 00 00       	push   $0xcb37
    3a50:	68 48 cb 00 00       	push   $0xcb48
    3a55:	e8 36 b0 00 00       	call   ea90 <assert_abort@plt>
    3a5a:	53                   	push   %ebx
    3a5b:	68 aa 01 00 00       	push   $0x1aa
    3a60:	68 37 cb 00 00       	push   $0xcb37
    3a65:	68 60 cb 00 00       	push   $0xcb60
    3a6a:	e8 21 b0 00 00       	call   ea90 <assert_abort@plt>
    3a6f:	90                   	nop

00003a70 <driver_connection_driver>:
    3a70:	55                   	push   %ebp
    3a71:	89 e5                	mov    %esp,%ebp
    3a73:	8b 55 0c             	mov    0xc(%ebp),%edx
    3a76:	8b 45 08             	mov    0x8(%ebp),%eax
    3a79:	5d                   	pop    %ebp
    3a7a:	e9 11 fd ff ff       	jmp    3790 <driver_connection_gen.constprop.7>
    3a7f:	90                   	nop

00003a80 <driver_connection_client>:
    3a80:	55                   	push   %ebp
    3a81:	89 e5                	mov    %esp,%ebp
    3a83:	8b 55 0c             	mov    0xc(%ebp),%edx
    3a86:	8b 45 08             	mov    0x8(%ebp),%eax
    3a89:	5d                   	pop    %ebp
    3a8a:	e9 01 fd ff ff       	jmp    3790 <driver_connection_gen.constprop.7>
    3a8f:	90                   	nop

00003a90 <driver_connection_devman>:
    3a90:	55                   	push   %ebp
    3a91:	89 e5                	mov    %esp,%ebp
    3a93:	57                   	push   %edi
    3a94:	56                   	push   %esi
    3a95:	53                   	push   %ebx
    3a96:	83 ec 54             	sub    $0x54,%esp
    3a99:	8d 75 c4             	lea    -0x3c(%ebp),%esi
    3a9c:	8b 45 08             	mov    0x8(%ebp),%eax
    3a9f:	6a 00                	push   $0x0
    3aa1:	50                   	push   %eax
    3aa2:	e8 49 af 00 00       	call   e9f0 <async_answer_0@plt>
    3aa7:	83 c4 10             	add    $0x10,%esp
    3aaa:	8d b6 00 00 00 00    	lea    0x0(%esi),%esi
    3ab0:	50                   	push   %eax
    3ab1:	50                   	push   %eax
    3ab2:	6a 00                	push   $0x0
    3ab4:	56                   	push   %esi
    3ab5:	e8 d6 b1 00 00       	call   ec90 <async_get_call_timeout@plt>
    3aba:	83 c4 10             	add    $0x10,%esp
    3abd:	89 c3                	mov    %eax,%ebx
    3abf:	8b 45 c4             	mov    -0x3c(%ebp),%eax
    3ac2:	85 c0                	test   %eax,%eax
    3ac4:	0f 84 de 03 00 00    	je     3ea8 <driver_connection_devman+0x418>
    3aca:	2d 00 04 00 00       	sub    $0x400,%eax
    3acf:	83 f8 04             	cmp    $0x4,%eax
    3ad2:	0f 87 b8 03 00 00    	ja     3e90 <driver_connection_devman+0x400>
    3ad8:	8b 7d c8             	mov    -0x38(%ebp),%edi
    3adb:	ff 24 85 40 ce 00 00 	jmp    *0xce40(,%eax,4)
    3ae2:	8d b6 00 00 00 00    	lea    0x0(%esi),%esi
    3ae8:	83 ec 0c             	sub    $0xc,%esp
    3aeb:	68 bc 0d 01 00       	push   $0x10dbc
    3af0:	e8 0b b3 00 00       	call   ee00 <fibril_mutex_lock@plt>
    3af5:	c7 04 24 bc 0d 01 00 	movl   $0x10dbc,(%esp)
    3afc:	e8 5f ae 00 00       	call   e960 <fibril_mutex_is_locked@plt>
    3b01:	83 c4 10             	add    $0x10,%esp
    3b04:	84 c0                	test   %al,%al
    3b06:	0f 84 5a 04 00 00    	je     3f66 <driver_connection_devman+0x4d6>
    3b0c:	a1 d0 0d 01 00       	mov    0x10dd0,%eax
    3b11:	3d cc 0d 01 00       	cmp    $0x10dcc,%eax
    3b16:	8d 50 d4             	lea    -0x2c(%eax),%edx
    3b19:	75 16                	jne    3b31 <driver_connection_devman+0xa1>
    3b1b:	e9 90 03 00 00       	jmp    3eb0 <driver_connection_devman+0x420>
    3b20:	8b 40 04             	mov    0x4(%eax),%eax
    3b23:	3d cc 0d 01 00       	cmp    $0x10dcc,%eax
    3b28:	8d 50 d4             	lea    -0x2c(%eax),%edx
    3b2b:	0f 84 7f 03 00 00    	je     3eb0 <driver_connection_devman+0x420>
    3b31:	3b 7a 04             	cmp    0x4(%edx),%edi
    3b34:	75 ea                	jne    3b20 <driver_connection_devman+0x90>
    3b36:	8b 42 0c             	mov    0xc(%edx),%eax
    3b39:	f0 ff 40 04          	lock incl 0x4(%eax)
    3b3d:	f0 ff 42 08          	lock incl 0x8(%edx)
    3b41:	83 ec 0c             	sub    $0xc,%esp
    3b44:	89 55 b4             	mov    %edx,-0x4c(%ebp)
    3b47:	68 bc 0d 01 00       	push   $0x10dbc
    3b4c:	e8 ef af 00 00       	call   eb40 <fibril_mutex_unlock@plt>
    3b51:	a1 6c 0f 01 00       	mov    0x10f6c,%eax
    3b56:	83 c4 10             	add    $0x10,%esp
    3b59:	8b 55 b4             	mov    -0x4c(%ebp),%edx
    3b5c:	8b 40 04             	mov    0x4(%eax),%eax
    3b5f:	8b 40 0c             	mov    0xc(%eax),%eax
    3b62:	85 c0                	test   %eax,%eax
    3b64:	0f 84 76 03 00 00    	je     3ee0 <driver_connection_devman+0x450>
    3b6a:	83 ec 0c             	sub    $0xc,%esp
    3b6d:	52                   	push   %edx
    3b6e:	ff d0                	call   *%eax
    3b70:	83 c4 10             	add    $0x10,%esp
    3b73:	89 c7                	mov    %eax,%edi
    3b75:	8b 55 b4             	mov    -0x4c(%ebp),%edx
    3b78:	89 d0                	mov    %edx,%eax
    3b7a:	e8 01 fb ff ff       	call   3680 <fun_del_ref>
    3b7f:	51                   	push   %ecx
    3b80:	51                   	push   %ecx
    3b81:	57                   	push   %edi
    3b82:	53                   	push   %ebx
    3b83:	e8 68 ae 00 00       	call   e9f0 <async_answer_0@plt>
    3b88:	83 c4 10             	add    $0x10,%esp
    3b8b:	e9 20 ff ff ff       	jmp    3ab0 <driver_connection_devman+0x20>
    3b90:	83 ec 0c             	sub    $0xc,%esp
    3b93:	68 d4 0d 01 00       	push   $0x10dd4
    3b98:	e8 63 b2 00 00       	call   ee00 <fibril_mutex_lock@plt>
    3b9d:	c7 04 24 d4 0d 01 00 	movl   $0x10dd4,(%esp)
    3ba4:	e8 b7 ad 00 00       	call   e960 <fibril_mutex_is_locked@plt>
    3ba9:	83 c4 10             	add    $0x10,%esp
    3bac:	84 c0                	test   %al,%al
    3bae:	0f 84 a0 03 00 00    	je     3f54 <driver_connection_devman+0x4c4>
    3bb4:	a1 e8 0d 01 00       	mov    0x10de8,%eax
    3bb9:	3d e4 0d 01 00       	cmp    $0x10de4,%eax
    3bbe:	8d 50 ec             	lea    -0x14(%eax),%edx
    3bc1:	75 16                	jne    3bd9 <driver_connection_devman+0x149>
    3bc3:	e9 08 03 00 00       	jmp    3ed0 <driver_connection_devman+0x440>
    3bc8:	8b 40 04             	mov    0x4(%eax),%eax
    3bcb:	3d e4 0d 01 00       	cmp    $0x10de4,%eax
    3bd0:	8d 50 ec             	lea    -0x14(%eax),%edx
    3bd3:	0f 84 f7 02 00 00    	je     3ed0 <driver_connection_devman+0x440>
    3bd9:	3b 78 ec             	cmp    -0x14(%eax),%edi
    3bdc:	75 ea                	jne    3bc8 <driver_connection_devman+0x138>
    3bde:	8d 7a 04             	lea    0x4(%edx),%edi
    3be1:	f0 ff 42 04          	lock incl 0x4(%edx)
    3be5:	83 ec 0c             	sub    $0xc,%esp
    3be8:	89 55 b4             	mov    %edx,-0x4c(%ebp)
    3beb:	68 d4 0d 01 00       	push   $0x10dd4
    3bf0:	e8 4b af 00 00       	call   eb40 <fibril_mutex_unlock@plt>
    3bf5:	a1 6c 0f 01 00       	mov    0x10f6c,%eax
    3bfa:	83 c4 10             	add    $0x10,%esp
    3bfd:	8b 40 04             	mov    0x4(%eax),%eax
    3c00:	8b 40 08             	mov    0x8(%eax),%eax
    3c03:	85 c0                	test   %eax,%eax
    3c05:	0f 85 88 00 00 00    	jne    3c93 <driver_connection_devman+0x203>
    3c0b:	b8 f5 ff ff ff       	mov    $0xfffffff5,%eax
    3c10:	e9 63 02 00 00       	jmp    3e78 <driver_connection_devman+0x3e8>
    3c15:	8d 76 00             	lea    0x0(%esi),%esi
    3c18:	83 ec 0c             	sub    $0xc,%esp
    3c1b:	68 d4 0d 01 00       	push   $0x10dd4
    3c20:	e8 db b1 00 00       	call   ee00 <fibril_mutex_lock@plt>
    3c25:	c7 04 24 d4 0d 01 00 	movl   $0x10dd4,(%esp)
    3c2c:	e8 2f ad 00 00       	call   e960 <fibril_mutex_is_locked@plt>
    3c31:	83 c4 10             	add    $0x10,%esp
    3c34:	84 c0                	test   %al,%al
    3c36:	0f 84 18 03 00 00    	je     3f54 <driver_connection_devman+0x4c4>
    3c3c:	a1 e8 0d 01 00       	mov    0x10de8,%eax
    3c41:	3d e4 0d 01 00       	cmp    $0x10de4,%eax
    3c46:	8d 50 ec             	lea    -0x14(%eax),%edx
    3c49:	75 16                	jne    3c61 <driver_connection_devman+0x1d1>
    3c4b:	e9 80 02 00 00       	jmp    3ed0 <driver_connection_devman+0x440>
    3c50:	8b 40 04             	mov    0x4(%eax),%eax
    3c53:	3d e4 0d 01 00       	cmp    $0x10de4,%eax
    3c58:	8d 50 ec             	lea    -0x14(%eax),%edx
    3c5b:	0f 84 6f 02 00 00    	je     3ed0 <driver_connection_devman+0x440>
    3c61:	3b 78 ec             	cmp    -0x14(%eax),%edi
    3c64:	75 ea                	jne    3c50 <driver_connection_devman+0x1c0>
    3c66:	8d 7a 04             	lea    0x4(%edx),%edi
    3c69:	f0 ff 42 04          	lock incl 0x4(%edx)
    3c6d:	83 ec 0c             	sub    $0xc,%esp
    3c70:	89 55 b4             	mov    %edx,-0x4c(%ebp)
    3c73:	68 d4 0d 01 00       	push   $0x10dd4
    3c78:	e8 c3 ae 00 00       	call   eb40 <fibril_mutex_unlock@plt>
    3c7d:	a1 6c 0f 01 00       	mov    0x10f6c,%eax
    3c82:	83 c4 10             	add    $0x10,%esp
    3c85:	8b 40 04             	mov    0x4(%eax),%eax
    3c88:	8b 40 04             	mov    0x4(%eax),%eax
    3c8b:	85 c0                	test   %eax,%eax
    3c8d:	0f 84 78 ff ff ff    	je     3c0b <driver_connection_devman+0x17b>
    3c93:	83 ec 0c             	sub    $0xc,%esp
    3c96:	8b 55 b4             	mov    -0x4c(%ebp),%edx
    3c99:	52                   	push   %edx
    3c9a:	ff d0                	call   *%eax
    3c9c:	83 c4 10             	add    $0x10,%esp
    3c9f:	8b 55 b4             	mov    -0x4c(%ebp),%edx
    3ca2:	85 c0                	test   %eax,%eax
    3ca4:	0f 85 ce 01 00 00    	jne    3e78 <driver_connection_devman+0x3e8>
    3caa:	83 c9 ff             	or     $0xffffffff,%ecx
    3cad:	f0 0f c1 0f          	lock xadd %ecx,(%edi)
    3cb1:	49                   	dec    %ecx
    3cb2:	0f 85 c0 01 00 00    	jne    3e78 <driver_connection_devman+0x3e8>
    3cb8:	8b 42 08             	mov    0x8(%edx),%eax
    3cbb:	85 c0                	test   %eax,%eax
    3cbd:	74 0f                	je     3cce <driver_connection_devman+0x23e>
    3cbf:	83 ec 0c             	sub    $0xc,%esp
    3cc2:	50                   	push   %eax
    3cc3:	e8 38 ac 00 00       	call   e900 <async_hangup@plt>
    3cc8:	83 c4 10             	add    $0x10,%esp
    3ccb:	8b 55 b4             	mov    -0x4c(%ebp),%edx
    3cce:	8b 42 10             	mov    0x10(%edx),%eax
    3cd1:	85 c0                	test   %eax,%eax
    3cd3:	74 12                	je     3ce7 <driver_connection_devman+0x257>
    3cd5:	83 ec 0c             	sub    $0xc,%esp
    3cd8:	89 55 b4             	mov    %edx,-0x4c(%ebp)
    3cdb:	50                   	push   %eax
    3cdc:	e8 ff b0 00 00       	call   ede0 <free@plt>
    3ce1:	83 c4 10             	add    $0x10,%esp
    3ce4:	8b 55 b4             	mov    -0x4c(%ebp),%edx
    3ce7:	8b 42 0c             	mov    0xc(%edx),%eax
    3cea:	85 c0                	test   %eax,%eax
    3cec:	74 12                	je     3d00 <driver_connection_devman+0x270>
    3cee:	83 ec 0c             	sub    $0xc,%esp
    3cf1:	89 55 b4             	mov    %edx,-0x4c(%ebp)
    3cf4:	50                   	push   %eax
    3cf5:	e8 e6 b0 00 00       	call   ede0 <free@plt>
    3cfa:	83 c4 10             	add    $0x10,%esp
    3cfd:	8b 55 b4             	mov    -0x4c(%ebp),%edx
    3d00:	83 ec 0c             	sub    $0xc,%esp
    3d03:	52                   	push   %edx
    3d04:	e8 d7 b0 00 00       	call   ede0 <free@plt>
    3d09:	83 c4 10             	add    $0x10,%esp
    3d0c:	31 c0                	xor    %eax,%eax
    3d0e:	e9 65 01 00 00       	jmp    3e78 <driver_connection_devman+0x3e8>
    3d13:	90                   	nop
    3d14:	8d 74 26 00          	lea    0x0(%esi,%eiz,1),%esi
    3d18:	50                   	push   %eax
    3d19:	50                   	push   %eax
    3d1a:	8d 45 c0             	lea    -0x40(%ebp),%eax
    3d1d:	6a 00                	push   $0x0
    3d1f:	c7 45 c0 00 00 00 00 	movl   $0x0,-0x40(%ebp)
    3d26:	6a 00                	push   $0x0
    3d28:	6a 00                	push   $0x0
    3d2a:	6a 00                	push   $0x0
    3d2c:	6a 01                	push   $0x1
    3d2e:	50                   	push   %eax
    3d2f:	e8 1c b0 00 00       	call   ed50 <async_data_write_accept@plt>
    3d34:	83 c4 20             	add    $0x20,%esp
    3d37:	85 c0                	test   %eax,%eax
    3d39:	0f 85 39 01 00 00    	jne    3e78 <driver_connection_devman+0x3e8>
    3d3f:	50                   	push   %eax
    3d40:	50                   	push   %eax
    3d41:	6a 1c                	push   $0x1c
    3d43:	6a 01                	push   $0x1
    3d45:	e8 66 ad 00 00       	call   eab0 <calloc@plt>
    3d4a:	83 c4 10             	add    $0x10,%esp
    3d4d:	89 c2                	mov    %eax,%edx
    3d4f:	85 c0                	test   %eax,%eax
    3d51:	0f 84 df 01 00 00    	je     3f36 <driver_connection_devman+0x4a6>
    3d57:	f0 ff 40 04          	lock incl 0x4(%eax)
    3d5b:	89 38                	mov    %edi,(%eax)
    3d5d:	8b 45 c0             	mov    -0x40(%ebp),%eax
    3d60:	89 42 0c             	mov    %eax,0xc(%edx)
    3d63:	a1 6c 0f 01 00       	mov    0x10f6c,%eax
    3d68:	83 ec 0c             	sub    $0xc,%esp
    3d6b:	89 55 b4             	mov    %edx,-0x4c(%ebp)
    3d6e:	8b 40 04             	mov    0x4(%eax),%eax
    3d71:	52                   	push   %edx
    3d72:	ff 10                	call   *(%eax)
    3d74:	83 c4 10             	add    $0x10,%esp
    3d77:	89 c7                	mov    %eax,%edi
    3d79:	85 c0                	test   %eax,%eax
    3d7b:	8b 55 b4             	mov    -0x4c(%ebp),%edx
    3d7e:	0f 84 66 01 00 00    	je     3eea <driver_connection_devman+0x45a>
    3d84:	83 c8 ff             	or     $0xffffffff,%eax
    3d87:	f0 0f c1 42 04       	lock xadd %eax,0x4(%edx)
    3d8c:	48                   	dec    %eax
    3d8d:	0f 85 ec fd ff ff    	jne    3b7f <driver_connection_devman+0xef>
    3d93:	8b 42 08             	mov    0x8(%edx),%eax
    3d96:	85 c0                	test   %eax,%eax
    3d98:	74 12                	je     3dac <driver_connection_devman+0x31c>
    3d9a:	83 ec 0c             	sub    $0xc,%esp
    3d9d:	89 55 b4             	mov    %edx,-0x4c(%ebp)
    3da0:	50                   	push   %eax
    3da1:	e8 5a ab 00 00       	call   e900 <async_hangup@plt>
    3da6:	83 c4 10             	add    $0x10,%esp
    3da9:	8b 55 b4             	mov    -0x4c(%ebp),%edx
    3dac:	8b 42 10             	mov    0x10(%edx),%eax
    3daf:	85 c0                	test   %eax,%eax
    3db1:	74 12                	je     3dc5 <driver_connection_devman+0x335>
    3db3:	83 ec 0c             	sub    $0xc,%esp
    3db6:	89 55 b4             	mov    %edx,-0x4c(%ebp)
    3db9:	50                   	push   %eax
    3dba:	e8 21 b0 00 00       	call   ede0 <free@plt>
    3dbf:	83 c4 10             	add    $0x10,%esp
    3dc2:	8b 55 b4             	mov    -0x4c(%ebp),%edx
    3dc5:	8b 42 0c             	mov    0xc(%edx),%eax
    3dc8:	85 c0                	test   %eax,%eax
    3dca:	74 12                	je     3dde <driver_connection_devman+0x34e>
    3dcc:	83 ec 0c             	sub    $0xc,%esp
    3dcf:	89 55 b4             	mov    %edx,-0x4c(%ebp)
    3dd2:	50                   	push   %eax
    3dd3:	e8 08 b0 00 00       	call   ede0 <free@plt>
    3dd8:	83 c4 10             	add    $0x10,%esp
    3ddb:	8b 55 b4             	mov    -0x4c(%ebp),%edx
    3dde:	83 ec 0c             	sub    $0xc,%esp
    3de1:	52                   	push   %edx
    3de2:	e8 f9 af 00 00       	call   ede0 <free@plt>
    3de7:	83 c4 10             	add    $0x10,%esp
    3dea:	e9 90 fd ff ff       	jmp    3b7f <driver_connection_devman+0xef>
    3def:	90                   	nop
    3df0:	83 ec 0c             	sub    $0xc,%esp
    3df3:	68 bc 0d 01 00       	push   $0x10dbc
    3df8:	e8 03 b0 00 00       	call   ee00 <fibril_mutex_lock@plt>
    3dfd:	c7 04 24 bc 0d 01 00 	movl   $0x10dbc,(%esp)
    3e04:	e8 57 ab 00 00       	call   e960 <fibril_mutex_is_locked@plt>
    3e09:	83 c4 10             	add    $0x10,%esp
    3e0c:	84 c0                	test   %al,%al
    3e0e:	0f 84 52 01 00 00    	je     3f66 <driver_connection_devman+0x4d6>
    3e14:	a1 d0 0d 01 00       	mov    0x10dd0,%eax
    3e19:	3d cc 0d 01 00       	cmp    $0x10dcc,%eax
    3e1e:	8d 50 d4             	lea    -0x2c(%eax),%edx
    3e21:	75 12                	jne    3e35 <driver_connection_devman+0x3a5>
    3e23:	e9 88 00 00 00       	jmp    3eb0 <driver_connection_devman+0x420>
    3e28:	8b 40 04             	mov    0x4(%eax),%eax
    3e2b:	3d cc 0d 01 00       	cmp    $0x10dcc,%eax
    3e30:	8d 50 d4             	lea    -0x2c(%eax),%edx
    3e33:	74 7b                	je     3eb0 <driver_connection_devman+0x420>
    3e35:	3b 7a 04             	cmp    0x4(%edx),%edi
    3e38:	75 ee                	jne    3e28 <driver_connection_devman+0x398>
    3e3a:	8b 42 0c             	mov    0xc(%edx),%eax
    3e3d:	f0 ff 40 04          	lock incl 0x4(%eax)
    3e41:	f0 ff 42 08          	lock incl 0x8(%edx)
    3e45:	83 ec 0c             	sub    $0xc,%esp
    3e48:	89 55 b4             	mov    %edx,-0x4c(%ebp)
    3e4b:	68 bc 0d 01 00       	push   $0x10dbc
    3e50:	e8 eb ac 00 00       	call   eb40 <fibril_mutex_unlock@plt>
    3e55:	a1 6c 0f 01 00       	mov    0x10f6c,%eax
    3e5a:	83 c4 10             	add    $0x10,%esp
    3e5d:	8b 40 04             	mov    0x4(%eax),%eax
    3e60:	8b 40 10             	mov    0x10(%eax),%eax
    3e63:	85 c0                	test   %eax,%eax
    3e65:	0f 84 a0 fd ff ff    	je     3c0b <driver_connection_devman+0x17b>
    3e6b:	83 ec 0c             	sub    $0xc,%esp
    3e6e:	8b 55 b4             	mov    -0x4c(%ebp),%edx
    3e71:	52                   	push   %edx
    3e72:	ff d0                	call   *%eax
    3e74:	83 c4 10             	add    $0x10,%esp
    3e77:	90                   	nop
    3e78:	52                   	push   %edx
    3e79:	52                   	push   %edx
    3e7a:	50                   	push   %eax
    3e7b:	53                   	push   %ebx
    3e7c:	e8 6f ab 00 00       	call   e9f0 <async_answer_0@plt>
    3e81:	83 c4 10             	add    $0x10,%esp
    3e84:	e9 27 fc ff ff       	jmp    3ab0 <driver_connection_devman+0x20>
    3e89:	8d b4 26 00 00 00 00 	lea    0x0(%esi,%eiz,1),%esi
    3e90:	50                   	push   %eax
    3e91:	50                   	push   %eax
    3e92:	6a f5                	push   $0xfffffff5
    3e94:	53                   	push   %ebx
    3e95:	e8 56 ab 00 00       	call   e9f0 <async_answer_0@plt>
    3e9a:	83 c4 10             	add    $0x10,%esp
    3e9d:	e9 0e fc ff ff       	jmp    3ab0 <driver_connection_devman+0x20>
    3ea2:	8d b6 00 00 00 00    	lea    0x0(%esi),%esi
    3ea8:	8d 65 f4             	lea    -0xc(%ebp),%esp
    3eab:	5b                   	pop    %ebx
    3eac:	5e                   	pop    %esi
    3ead:	5f                   	pop    %edi
    3eae:	5d                   	pop    %ebp
    3eaf:	c3                   	ret    
    3eb0:	83 ec 0c             	sub    $0xc,%esp
    3eb3:	68 bc 0d 01 00       	push   $0x10dbc
    3eb8:	e8 83 ac 00 00       	call   eb40 <fibril_mutex_unlock@plt>
    3ebd:	58                   	pop    %eax
    3ebe:	5a                   	pop    %edx
    3ebf:	6a ff                	push   $0xffffffff
    3ec1:	53                   	push   %ebx
    3ec2:	e8 29 ab 00 00       	call   e9f0 <async_answer_0@plt>
    3ec7:	83 c4 10             	add    $0x10,%esp
    3eca:	e9 e1 fb ff ff       	jmp    3ab0 <driver_connection_devman+0x20>
    3ecf:	90                   	nop
    3ed0:	83 ec 0c             	sub    $0xc,%esp
    3ed3:	68 d4 0d 01 00       	push   $0x10dd4
    3ed8:	eb de                	jmp    3eb8 <driver_connection_devman+0x428>
    3eda:	8d b6 00 00 00 00    	lea    0x0(%esi),%esi
    3ee0:	bf f5 ff ff ff       	mov    $0xfffffff5,%edi
    3ee5:	e9 8e fc ff ff       	jmp    3b78 <driver_connection_devman+0xe8>
    3eea:	83 ec 0c             	sub    $0xc,%esp
    3eed:	89 55 b4             	mov    %edx,-0x4c(%ebp)
    3ef0:	68 d4 0d 01 00       	push   $0x10dd4
    3ef5:	e8 06 af 00 00       	call   ee00 <fibril_mutex_lock@plt>
    3efa:	8b 55 b4             	mov    -0x4c(%ebp),%edx
    3efd:	8b 0d e4 0d 01 00    	mov    0x10de4,%ecx
    3f03:	8d 42 14             	lea    0x14(%edx),%eax
    3f06:	c7 42 18 e4 0d 01 00 	movl   $0x10de4,0x18(%edx)
    3f0d:	89 4a 14             	mov    %ecx,0x14(%edx)
    3f10:	89 41 04             	mov    %eax,0x4(%ecx)
    3f13:	a3 e4 0d 01 00       	mov    %eax,0x10de4
    3f18:	c7 04 24 d4 0d 01 00 	movl   $0x10dd4,(%esp)
    3f1f:	e8 1c ac 00 00       	call   eb40 <fibril_mutex_unlock@plt>
    3f24:	5f                   	pop    %edi
    3f25:	58                   	pop    %eax
    3f26:	6a 00                	push   $0x0
    3f28:	53                   	push   %ebx
    3f29:	e8 c2 aa 00 00       	call   e9f0 <async_answer_0@plt>
    3f2e:	83 c4 10             	add    $0x10,%esp
    3f31:	e9 7a fb ff ff       	jmp    3ab0 <driver_connection_devman+0x20>
    3f36:	83 ec 0c             	sub    $0xc,%esp
    3f39:	8b 4d c0             	mov    -0x40(%ebp),%ecx
    3f3c:	51                   	push   %ecx
    3f3d:	e8 9e ae 00 00       	call   ede0 <free@plt>
    3f42:	5f                   	pop    %edi
    3f43:	58                   	pop    %eax
    3f44:	6a fe                	push   $0xfffffffe
    3f46:	53                   	push   %ebx
    3f47:	e8 a4 aa 00 00       	call   e9f0 <async_answer_0@plt>
    3f4c:	83 c4 10             	add    $0x10,%esp
    3f4f:	e9 5c fb ff ff       	jmp    3ab0 <driver_connection_devman+0x20>
    3f54:	56                   	push   %esi
    3f55:	6a 5f                	push   $0x5f
    3f57:	68 37 cb 00 00       	push   $0xcb37
    3f5c:	68 dc cd 00 00       	push   $0xcddc
    3f61:	e8 2a ab 00 00       	call   ea90 <assert_abort@plt>
    3f66:	53                   	push   %ebx
    3f67:	6a 6b                	push   $0x6b
    3f69:	68 37 cb 00 00       	push   $0xcb37
    3f6e:	68 90 cc 00 00       	push   $0xcc90
    3f73:	e8 18 ab 00 00       	call   ea90 <assert_abort@plt>
    3f78:	90                   	nop
    3f79:	8d b4 26 00 00 00 00 	lea    0x0(%esi,%eiz,1),%esi

00003f80 <ddf_dev_data_alloc>:
    3f80:	55                   	push   %ebp
    3f81:	89 e5                	mov    %esp,%ebp
    3f83:	53                   	push   %ebx
    3f84:	53                   	push   %ebx
    3f85:	8b 5d 08             	mov    0x8(%ebp),%ebx
    3f88:	8b 43 10             	mov    0x10(%ebx),%eax
    3f8b:	85 c0                	test   %eax,%eax
    3f8d:	75 1c                	jne    3fab <ddf_dev_data_alloc+0x2b>
    3f8f:	8b 55 0c             	mov    0xc(%ebp),%edx
    3f92:	50                   	push   %eax
    3f93:	50                   	push   %eax
    3f94:	52                   	push   %edx
    3f95:	6a 01                	push   $0x1
    3f97:	e8 14 ab 00 00       	call   eab0 <calloc@plt>
    3f9c:	83 c4 10             	add    $0x10,%esp
    3f9f:	85 c0                	test   %eax,%eax
    3fa1:	74 03                	je     3fa6 <ddf_dev_data_alloc+0x26>
    3fa3:	89 43 10             	mov    %eax,0x10(%ebx)
    3fa6:	8b 5d fc             	mov    -0x4(%ebp),%ebx
    3fa9:	c9                   	leave  
    3faa:	c3                   	ret    
    3fab:	51                   	push   %ecx
    3fac:	68 39 02 00 00       	push   $0x239
    3fb1:	68 37 cb 00 00       	push   $0xcb37
    3fb6:	68 72 cb 00 00       	push   $0xcb72
    3fbb:	e8 d0 aa 00 00       	call   ea90 <assert_abort@plt>

00003fc0 <ddf_dev_data_get>:
    3fc0:	55                   	push   %ebp
    3fc1:	89 e5                	mov    %esp,%ebp
    3fc3:	8b 45 08             	mov    0x8(%ebp),%eax
    3fc6:	5d                   	pop    %ebp
    3fc7:	8b 40 10             	mov    0x10(%eax),%eax
    3fca:	c3                   	ret    
    3fcb:	90                   	nop
    3fcc:	8d 74 26 00          	lea    0x0(%esi,%eiz,1),%esi

00003fd0 <ddf_dev_get_handle>:
    3fd0:	55                   	push   %ebp
    3fd1:	89 e5                	mov    %esp,%ebp
    3fd3:	8b 45 08             	mov    0x8(%ebp),%eax
    3fd6:	5d                   	pop    %ebp
    3fd7:	8b 00                	mov    (%eax),%eax
    3fd9:	c3                   	ret    
    3fda:	8d b6 00 00 00 00    	lea    0x0(%esi),%esi

00003fe0 <ddf_dev_get_name>:
    3fe0:	55                   	push   %ebp
    3fe1:	89 e5                	mov    %esp,%ebp
    3fe3:	8b 45 08             	mov    0x8(%ebp),%eax
    3fe6:	5d                   	pop    %ebp
    3fe7:	8b 40 0c             	mov    0xc(%eax),%eax
    3fea:	c3                   	ret    
    3feb:	90                   	nop
    3fec:	8d 74 26 00          	lea    0x0(%esi,%eiz,1),%esi

00003ff0 <ddf_dev_parent_sess_create>:
    3ff0:	55                   	push   %ebp
    3ff1:	89 e5                	mov    %esp,%ebp
    3ff3:	53                   	push   %ebx
    3ff4:	53                   	push   %ebx
    3ff5:	8b 5d 08             	mov    0x8(%ebp),%ebx
    3ff8:	8b 43 08             	mov    0x8(%ebx),%eax
    3ffb:	85 c0                	test   %eax,%eax
    3ffd:	75 14                	jne    4013 <ddf_dev_parent_sess_create+0x23>
    3fff:	50                   	push   %eax
    4000:	50                   	push   %eax
    4001:	6a 01                	push   $0x1
    4003:	8b 13                	mov    (%ebx),%edx
    4005:	52                   	push   %edx
    4006:	e8 25 a9 00 00       	call   e930 <devman_parent_device_connect@plt>
    400b:	89 43 08             	mov    %eax,0x8(%ebx)
    400e:	8b 5d fc             	mov    -0x4(%ebp),%ebx
    4011:	c9                   	leave  
    4012:	c3                   	ret    
    4013:	51                   	push   %ecx
    4014:	68 64 02 00 00       	push   $0x264
    4019:	68 37 cb 00 00       	push   $0xcb37
    401e:	68 8b cb 00 00       	push   $0xcb8b
    4023:	e8 68 aa 00 00       	call   ea90 <assert_abort@plt>
    4028:	90                   	nop
    4029:	8d b4 26 00 00 00 00 	lea    0x0(%esi,%eiz,1),%esi

00004030 <ddf_dev_parent_sess_get>:
    4030:	55                   	push   %ebp
    4031:	89 e5                	mov    %esp,%ebp
    4033:	8b 45 08             	mov    0x8(%ebp),%eax
    4036:	5d                   	pop    %ebp
    4037:	8b 40 08             	mov    0x8(%eax),%eax
    403a:	c3                   	ret    
    403b:	90                   	nop
    403c:	8d 74 26 00          	lea    0x0(%esi,%eiz,1),%esi

00004040 <ddf_fun_set_name>:
    4040:	55                   	push   %ebp
    4041:	89 e5                	mov    %esp,%ebp
    4043:	53                   	push   %ebx
    4044:	51                   	push   %ecx
    4045:	8b 5d 08             	mov    0x8(%ebp),%ebx
    4048:	8b 43 14             	mov    0x14(%ebx),%eax
    404b:	85 c0                	test   %eax,%eax
    404d:	75 23                	jne    4072 <ddf_fun_set_name+0x32>
    404f:	83 ec 0c             	sub    $0xc,%esp
    4052:	8b 45 0c             	mov    0xc(%ebp),%eax
    4055:	50                   	push   %eax
    4056:	e8 05 ab 00 00       	call   eb60 <str_dup@plt>
    405b:	83 c4 10             	add    $0x10,%esp
    405e:	89 43 14             	mov    %eax,0x14(%ebx)
    4061:	85 c0                	test   %eax,%eax
    4063:	8b 5d fc             	mov    -0x4(%ebp),%ebx
    4066:	0f 94 c0             	sete   %al
    4069:	25 ff 00 00 00       	and    $0xff,%eax
    406e:	c9                   	leave  
    406f:	f7 d8                	neg    %eax
    4071:	c3                   	ret    
    4072:	52                   	push   %edx
    4073:	68 7d 02 00 00       	push   $0x27d
    4078:	68 37 cb 00 00       	push   $0xcb37
    407d:	68 a4 cb 00 00       	push   $0xcba4
    4082:	e8 09 aa 00 00       	call   ea90 <assert_abort@plt>
    4087:	89 f6                	mov    %esi,%esi
    4089:	8d bc 27 00 00 00 00 	lea    0x0(%edi,%eiz,1),%edi

00004090 <ddf_fun_get_dev>:
    4090:	55                   	push   %ebp
    4091:	89 e5                	mov    %esp,%ebp
    4093:	8b 45 08             	mov    0x8(%ebp),%eax
    4096:	5d                   	pop    %ebp
    4097:	8b 40 0c             	mov    0xc(%eax),%eax
    409a:	c3                   	ret    
    409b:	90                   	nop
    409c:	8d 74 26 00          	lea    0x0(%esi,%eiz,1),%esi

000040a0 <ddf_fun_get_handle>:
    40a0:	55                   	push   %ebp
    40a1:	89 e5                	mov    %esp,%ebp
    40a3:	8b 45 08             	mov    0x8(%ebp),%eax
    40a6:	5d                   	pop    %ebp
    40a7:	8b 40 04             	mov    0x4(%eax),%eax
    40aa:	c3                   	ret    
    40ab:	90                   	nop
    40ac:	8d 74 26 00          	lea    0x0(%esi,%eiz,1),%esi

000040b0 <ddf_fun_create>:
    40b0:	55                   	push   %ebp
    40b1:	89 e5                	mov    %esp,%ebp
    40b3:	57                   	push   %edi
    40b4:	56                   	push   %esi
    40b5:	53                   	push   %ebx
    40b6:	83 ec 14             	sub    $0x14,%esp
    40b9:	8b 75 08             	mov    0x8(%ebp),%esi
    40bc:	6a 34                	push   $0x34
    40be:	6a 01                	push   $0x1
    40c0:	e8 eb a9 00 00       	call   eab0 <calloc@plt>
    40c5:	83 c4 10             	add    $0x10,%esp
    40c8:	89 c3                	mov    %eax,%ebx
    40ca:	85 c0                	test   %eax,%eax
    40cc:	74 48                	je     4116 <ddf_fun_create+0x66>
    40ce:	8d 78 18             	lea    0x18(%eax),%edi
    40d1:	c7 40 2c 00 00 00 00 	movl   $0x0,0x2c(%eax)
    40d8:	89 78 18             	mov    %edi,0x18(%eax)
    40db:	89 78 1c             	mov    %edi,0x1c(%eax)
    40de:	c7 40 30 00 00 00 00 	movl   $0x0,0x30(%eax)
    40e5:	89 70 0c             	mov    %esi,0xc(%eax)
    40e8:	f0 ff 46 04          	lock incl 0x4(%esi)
    40ec:	f0 ff 40 08          	lock incl 0x8(%eax)
    40f0:	c6 00 00             	movb   $0x0,(%eax)
    40f3:	8b 55 10             	mov    0x10(%ebp),%edx
    40f6:	8b 45 0c             	mov    0xc(%ebp),%eax
    40f9:	85 d2                	test   %edx,%edx
    40fb:	89 43 10             	mov    %eax,0x10(%ebx)
    40fe:	74 16                	je     4116 <ddf_fun_create+0x66>
    4100:	83 ec 0c             	sub    $0xc,%esp
    4103:	8b 45 10             	mov    0x10(%ebp),%eax
    4106:	50                   	push   %eax
    4107:	e8 54 aa 00 00       	call   eb60 <str_dup@plt>
    410c:	83 c4 10             	add    $0x10,%esp
    410f:	89 43 14             	mov    %eax,0x14(%ebx)
    4112:	85 c0                	test   %eax,%eax
    4114:	74 0a                	je     4120 <ddf_fun_create+0x70>
    4116:	8d 65 f4             	lea    -0xc(%ebp),%esp
    4119:	89 d8                	mov    %ebx,%eax
    411b:	5b                   	pop    %ebx
    411c:	5e                   	pop    %esi
    411d:	5f                   	pop    %edi
    411e:	5d                   	pop    %ebp
    411f:	c3                   	ret    
    4120:	8b 73 1c             	mov    0x1c(%ebx),%esi
    4123:	39 f7                	cmp    %esi,%edi
    4125:	0f 84 85 00 00 00    	je     41b0 <ddf_fun_create+0x100>
    412b:	90                   	nop
    412c:	8d 74 26 00          	lea    0x0(%esi,%eiz,1),%esi
    4130:	8b 0e                	mov    (%esi),%ecx
    4132:	85 c9                	test   %ecx,%ecx
    4134:	74 0e                	je     4144 <ddf_fun_create+0x94>
    4136:	8b 46 04             	mov    0x4(%esi),%eax
    4139:	85 c0                	test   %eax,%eax
    413b:	74 07                	je     4144 <ddf_fun_create+0x94>
    413d:	89 08                	mov    %ecx,(%eax)
    413f:	8b 0e                	mov    (%esi),%ecx
    4141:	89 41 04             	mov    %eax,0x4(%ecx)
    4144:	8b 46 08             	mov    0x8(%esi),%eax
    4147:	c7 06 00 00 00 00    	movl   $0x0,(%esi)
    414d:	c7 46 04 00 00 00 00 	movl   $0x0,0x4(%esi)
    4154:	85 c0                	test   %eax,%eax
    4156:	74 0c                	je     4164 <ddf_fun_create+0xb4>
    4158:	83 ec 0c             	sub    $0xc,%esp
    415b:	50                   	push   %eax
    415c:	e8 7f ac 00 00       	call   ede0 <free@plt>
    4161:	83 c4 10             	add    $0x10,%esp
    4164:	83 ec 0c             	sub    $0xc,%esp
    4167:	56                   	push   %esi
    4168:	e8 73 ac 00 00       	call   ede0 <free@plt>
    416d:	8b 73 1c             	mov    0x1c(%ebx),%esi
    4170:	83 c4 10             	add    $0x10,%esp
    4173:	39 f7                	cmp    %esi,%edi
    4175:	75 b9                	jne    4130 <ddf_fun_create+0x80>
    4177:	8b 43 20             	mov    0x20(%ebx),%eax
    417a:	85 c0                	test   %eax,%eax
    417c:	74 0c                	je     418a <ddf_fun_create+0xda>
    417e:	83 ec 0c             	sub    $0xc,%esp
    4181:	50                   	push   %eax
    4182:	e8 59 ac 00 00       	call   ede0 <free@plt>
    4187:	83 c4 10             	add    $0x10,%esp
    418a:	8b 43 14             	mov    0x14(%ebx),%eax
    418d:	85 c0                	test   %eax,%eax
    418f:	74 0c                	je     419d <ddf_fun_create+0xed>
    4191:	83 ec 0c             	sub    $0xc,%esp
    4194:	50                   	push   %eax
    4195:	e8 46 ac 00 00       	call   ede0 <free@plt>
    419a:	83 c4 10             	add    $0x10,%esp
    419d:	83 ec 0c             	sub    $0xc,%esp
    41a0:	53                   	push   %ebx
    41a1:	31 db                	xor    %ebx,%ebx
    41a3:	e8 38 ac 00 00       	call   ede0 <free@plt>
    41a8:	83 c4 10             	add    $0x10,%esp
    41ab:	e9 66 ff ff ff       	jmp    4116 <ddf_fun_create+0x66>
    41b0:	8b 43 20             	mov    0x20(%ebx),%eax
    41b3:	85 c0                	test   %eax,%eax
    41b5:	75 c7                	jne    417e <ddf_fun_create+0xce>
    41b7:	eb e4                	jmp    419d <ddf_fun_create+0xed>
    41b9:	8d b4 26 00 00 00 00 	lea    0x0(%esi,%eiz,1),%esi

000041c0 <ddf_fun_data_alloc>:
    41c0:	55                   	push   %ebp
    41c1:	89 e5                	mov    %esp,%ebp
    41c3:	53                   	push   %ebx
    41c4:	50                   	push   %eax
    41c5:	8b 5d 08             	mov    0x8(%ebp),%ebx
    41c8:	80 3b 00             	cmpb   $0x0,(%ebx)
    41cb:	75 23                	jne    41f0 <ddf_fun_data_alloc+0x30>
    41cd:	8b 43 20             	mov    0x20(%ebx),%eax
    41d0:	85 c0                	test   %eax,%eax
    41d2:	75 31                	jne    4205 <ddf_fun_data_alloc+0x45>
    41d4:	8b 55 0c             	mov    0xc(%ebp),%edx
    41d7:	50                   	push   %eax
    41d8:	50                   	push   %eax
    41d9:	52                   	push   %edx
    41da:	6a 01                	push   $0x1
    41dc:	e8 cf a8 00 00       	call   eab0 <calloc@plt>
    41e1:	83 c4 10             	add    $0x10,%esp
    41e4:	85 c0                	test   %eax,%eax
    41e6:	74 03                	je     41eb <ddf_fun_data_alloc+0x2b>
    41e8:	89 43 20             	mov    %eax,0x20(%ebx)
    41eb:	8b 5d fc             	mov    -0x4(%ebp),%ebx
    41ee:	c9                   	leave  
    41ef:	c3                   	ret    
    41f0:	50                   	push   %eax
    41f1:	68 c9 02 00 00       	push   $0x2c9
    41f6:	68 37 cb 00 00       	push   $0xcb37
    41fb:	68 b6 cb 00 00       	push   $0xcbb6
    4200:	e8 8b a8 00 00       	call   ea90 <assert_abort@plt>
    4205:	51                   	push   %ecx
    4206:	68 ca 02 00 00       	push   $0x2ca
    420b:	68 37 cb 00 00       	push   $0xcb37
    4210:	68 ca cb 00 00       	push   $0xcbca
    4215:	e8 76 a8 00 00       	call   ea90 <assert_abort@plt>
    421a:	8d b6 00 00 00 00    	lea    0x0(%esi),%esi

00004220 <ddf_fun_data_get>:
    4220:	55                   	push   %ebp
    4221:	89 e5                	mov    %esp,%ebp
    4223:	8b 45 08             	mov    0x8(%ebp),%eax
    4226:	5d                   	pop    %ebp
    4227:	8b 40 20             	mov    0x20(%eax),%eax
    422a:	c3                   	ret    
    422b:	90                   	nop
    422c:	8d 74 26 00          	lea    0x0(%esi,%eiz,1),%esi

00004230 <ddf_fun_get_name>:
    4230:	55                   	push   %ebp
    4231:	89 e5                	mov    %esp,%ebp
    4233:	8b 45 08             	mov    0x8(%ebp),%eax
    4236:	5d                   	pop    %ebp
    4237:	8b 40 14             	mov    0x14(%eax),%eax
    423a:	c3                   	ret    
    423b:	90                   	nop
    423c:	8d 74 26 00          	lea    0x0(%esi,%eiz,1),%esi

00004240 <ddf_fun_destroy>:
    4240:	55                   	push   %ebp
    4241:	89 e5                	mov    %esp,%ebp
    4243:	57                   	push   %edi
    4244:	56                   	push   %esi
    4245:	53                   	push   %ebx
    4246:	83 ec 1c             	sub    $0x1c,%esp
    4249:	8b 7d 08             	mov    0x8(%ebp),%edi
    424c:	80 3f 00             	cmpb   $0x0,(%edi)
    424f:	0f 85 fa 00 00 00    	jne    434f <ddf_fun_destroy+0x10f>
    4255:	8b 77 0c             	mov    0xc(%edi),%esi
    4258:	83 ca ff             	or     $0xffffffff,%edx
    425b:	f0 0f c1 57 08       	lock xadd %edx,0x8(%edi)
    4260:	4a                   	dec    %edx
    4261:	74 5d                	je     42c0 <ddf_fun_destroy+0x80>
    4263:	83 c8 ff             	or     $0xffffffff,%eax
    4266:	f0 0f c1 46 04       	lock xadd %eax,0x4(%esi)
    426b:	48                   	dec    %eax
    426c:	74 0a                	je     4278 <ddf_fun_destroy+0x38>
    426e:	8d 65 f4             	lea    -0xc(%ebp),%esp
    4271:	5b                   	pop    %ebx
    4272:	5e                   	pop    %esi
    4273:	5f                   	pop    %edi
    4274:	5d                   	pop    %ebp
    4275:	c3                   	ret    
    4276:	66 90                	xchg   %ax,%ax
    4278:	8b 46 08             	mov    0x8(%esi),%eax
    427b:	85 c0                	test   %eax,%eax
    427d:	74 0c                	je     428b <ddf_fun_destroy+0x4b>
    427f:	83 ec 0c             	sub    $0xc,%esp
    4282:	50                   	push   %eax
    4283:	e8 78 a6 00 00       	call   e900 <async_hangup@plt>
    4288:	83 c4 10             	add    $0x10,%esp
    428b:	8b 46 10             	mov    0x10(%esi),%eax
    428e:	85 c0                	test   %eax,%eax
    4290:	74 0c                	je     429e <ddf_fun_destroy+0x5e>
    4292:	83 ec 0c             	sub    $0xc,%esp
    4295:	50                   	push   %eax
    4296:	e8 45 ab 00 00       	call   ede0 <free@plt>
    429b:	83 c4 10             	add    $0x10,%esp
    429e:	8b 46 0c             	mov    0xc(%esi),%eax
    42a1:	85 c0                	test   %eax,%eax
    42a3:	74 0c                	je     42b1 <ddf_fun_destroy+0x71>
    42a5:	83 ec 0c             	sub    $0xc,%esp
    42a8:	50                   	push   %eax
    42a9:	e8 32 ab 00 00       	call   ede0 <free@plt>
    42ae:	83 c4 10             	add    $0x10,%esp
    42b1:	89 75 08             	mov    %esi,0x8(%ebp)
    42b4:	8d 65 f4             	lea    -0xc(%ebp),%esp
    42b7:	5b                   	pop    %ebx
    42b8:	5e                   	pop    %esi
    42b9:	5f                   	pop    %edi
    42ba:	5d                   	pop    %ebp
    42bb:	e9 20 ab 00 00       	jmp    ede0 <free@plt>
    42c0:	8d 47 18             	lea    0x18(%edi),%eax
    42c3:	8b 5f 1c             	mov    0x1c(%edi),%ebx
    42c6:	89 45 e4             	mov    %eax,-0x1c(%ebp)
    42c9:	39 d8                	cmp    %ebx,%eax
    42cb:	74 4b                	je     4318 <ddf_fun_destroy+0xd8>
    42cd:	8d 76 00             	lea    0x0(%esi),%esi
    42d0:	8b 0b                	mov    (%ebx),%ecx
    42d2:	85 c9                	test   %ecx,%ecx
    42d4:	74 0e                	je     42e4 <ddf_fun_destroy+0xa4>
    42d6:	8b 53 04             	mov    0x4(%ebx),%edx
    42d9:	85 d2                	test   %edx,%edx
    42db:	74 07                	je     42e4 <ddf_fun_destroy+0xa4>
    42dd:	89 0a                	mov    %ecx,(%edx)
    42df:	8b 0b                	mov    (%ebx),%ecx
    42e1:	89 51 04             	mov    %edx,0x4(%ecx)
    42e4:	8b 53 08             	mov    0x8(%ebx),%edx
    42e7:	c7 03 00 00 00 00    	movl   $0x0,(%ebx)
    42ed:	c7 43 04 00 00 00 00 	movl   $0x0,0x4(%ebx)
    42f4:	85 d2                	test   %edx,%edx
    42f6:	74 0c                	je     4304 <ddf_fun_destroy+0xc4>
    42f8:	83 ec 0c             	sub    $0xc,%esp
    42fb:	52                   	push   %edx
    42fc:	e8 df aa 00 00       	call   ede0 <free@plt>
    4301:	83 c4 10             	add    $0x10,%esp
    4304:	83 ec 0c             	sub    $0xc,%esp
    4307:	53                   	push   %ebx
    4308:	e8 d3 aa 00 00       	call   ede0 <free@plt>
    430d:	8b 5f 1c             	mov    0x1c(%edi),%ebx
    4310:	83 c4 10             	add    $0x10,%esp
    4313:	3b 5d e4             	cmp    -0x1c(%ebp),%ebx
    4316:	75 b8                	jne    42d0 <ddf_fun_destroy+0x90>
    4318:	8b 57 20             	mov    0x20(%edi),%edx
    431b:	85 d2                	test   %edx,%edx
    431d:	74 0c                	je     432b <ddf_fun_destroy+0xeb>
    431f:	83 ec 0c             	sub    $0xc,%esp
    4322:	52                   	push   %edx
    4323:	e8 b8 aa 00 00       	call   ede0 <free@plt>
    4328:	83 c4 10             	add    $0x10,%esp
    432b:	8b 57 14             	mov    0x14(%edi),%edx
    432e:	85 d2                	test   %edx,%edx
    4330:	74 0c                	je     433e <ddf_fun_destroy+0xfe>
    4332:	83 ec 0c             	sub    $0xc,%esp
    4335:	52                   	push   %edx
    4336:	e8 a5 aa 00 00       	call   ede0 <free@plt>
    433b:	83 c4 10             	add    $0x10,%esp
    433e:	83 ec 0c             	sub    $0xc,%esp
    4341:	57                   	push   %edi
    4342:	e8 99 aa 00 00       	call   ede0 <free@plt>
    4347:	83 c4 10             	add    $0x10,%esp
    434a:	e9 14 ff ff ff       	jmp    4263 <ddf_fun_destroy+0x23>
    434f:	50                   	push   %eax
    4350:	68 ee 02 00 00       	push   $0x2ee
    4355:	68 37 cb 00 00       	push   $0xcb37
    435a:	68 b6 cb 00 00       	push   $0xcbb6
    435f:	e8 2c a7 00 00       	call   ea90 <assert_abort@plt>
    4364:	8d b6 00 00 00 00    	lea    0x0(%esi),%esi
    436a:	8d bf 00 00 00 00    	lea    0x0(%edi),%edi

00004370 <ddf_fun_bind>:
    4370:	55                   	push   %ebp
    4371:	89 e5                	mov    %esp,%ebp
    4373:	53                   	push   %ebx
    4374:	83 ec 14             	sub    $0x14,%esp
    4377:	8b 5d 08             	mov    0x8(%ebp),%ebx
    437a:	80 3b 00             	cmpb   $0x0,(%ebx)
    437d:	0f 85 d2 00 00 00    	jne    4455 <ddf_fun_bind+0xe5>
    4383:	8b 43 14             	mov    0x14(%ebx),%eax
    4386:	85 c0                	test   %eax,%eax
    4388:	0f 84 f1 00 00 00    	je     447f <ddf_fun_bind+0x10f>
    438e:	8b 43 0c             	mov    0xc(%ebx),%eax
    4391:	85 c0                	test   %eax,%eax
    4393:	0f 84 d1 00 00 00    	je     446a <ddf_fun_bind+0xfa>
    4399:	83 ec 0c             	sub    $0xc,%esp
    439c:	68 bc 0d 01 00       	push   $0x10dbc
    43a1:	e8 5a aa 00 00       	call   ee00 <fibril_mutex_lock@plt>
    43a6:	8b 15 cc 0d 01 00    	mov    0x10dcc,%edx
    43ac:	8d 43 2c             	lea    0x2c(%ebx),%eax
    43af:	89 53 2c             	mov    %edx,0x2c(%ebx)
    43b2:	c7 43 30 cc 0d 01 00 	movl   $0x10dcc,0x30(%ebx)
    43b9:	89 42 04             	mov    %eax,0x4(%edx)
    43bc:	a3 cc 0d 01 00       	mov    %eax,0x10dcc
    43c1:	c7 04 24 bc 0d 01 00 	movl   $0x10dbc,(%esp)
    43c8:	e8 73 a7 00 00       	call   eb40 <fibril_mutex_unlock@plt>
    43cd:	8d 43 04             	lea    0x4(%ebx),%eax
    43d0:	8b 53 10             	mov    0x10(%ebx),%edx
    43d3:	89 04 24             	mov    %eax,(%esp)
    43d6:	8b 43 0c             	mov    0xc(%ebx),%eax
    43d9:	8b 4b 14             	mov    0x14(%ebx),%ecx
    43dc:	8b 00                	mov    (%eax),%eax
    43de:	50                   	push   %eax
    43df:	8d 43 18             	lea    0x18(%ebx),%eax
    43e2:	50                   	push   %eax
    43e3:	52                   	push   %edx
    43e4:	51                   	push   %ecx
    43e5:	e8 76 a6 00 00       	call   ea60 <devman_add_function@plt>
    43ea:	83 c4 20             	add    $0x20,%esp
    43ed:	85 c0                	test   %eax,%eax
    43ef:	75 0f                	jne    4400 <ddf_fun_bind+0x90>
    43f1:	c6 03 01             	movb   $0x1,(%ebx)
    43f4:	8b 5d fc             	mov    -0x4(%ebp),%ebx
    43f7:	c9                   	leave  
    43f8:	c3                   	ret    
    43f9:	8d b4 26 00 00 00 00 	lea    0x0(%esi,%eiz,1),%esi
    4400:	83 ec 0c             	sub    $0xc,%esp
    4403:	89 45 f4             	mov    %eax,-0xc(%ebp)
    4406:	68 bc 0d 01 00       	push   $0x10dbc
    440b:	e8 f0 a9 00 00       	call   ee00 <fibril_mutex_lock@plt>
    4410:	8b 4b 2c             	mov    0x2c(%ebx),%ecx
    4413:	83 c4 10             	add    $0x10,%esp
    4416:	8b 45 f4             	mov    -0xc(%ebp),%eax
    4419:	85 c9                	test   %ecx,%ecx
    441b:	74 0f                	je     442c <ddf_fun_bind+0xbc>
    441d:	8b 53 30             	mov    0x30(%ebx),%edx
    4420:	85 d2                	test   %edx,%edx
    4422:	74 08                	je     442c <ddf_fun_bind+0xbc>
    4424:	89 0a                	mov    %ecx,(%edx)
    4426:	8b 4b 2c             	mov    0x2c(%ebx),%ecx
    4429:	89 51 04             	mov    %edx,0x4(%ecx)
    442c:	83 ec 0c             	sub    $0xc,%esp
    442f:	c7 43 2c 00 00 00 00 	movl   $0x0,0x2c(%ebx)
    4436:	c7 43 30 00 00 00 00 	movl   $0x0,0x30(%ebx)
    443d:	89 45 f4             	mov    %eax,-0xc(%ebp)
    4440:	68 bc 0d 01 00       	push   $0x10dbc
    4445:	e8 f6 a6 00 00       	call   eb40 <fibril_mutex_unlock@plt>
    444a:	8b 45 f4             	mov    -0xc(%ebp),%eax
    444d:	83 c4 10             	add    $0x10,%esp
    4450:	8b 5d fc             	mov    -0x4(%ebp),%ebx
    4453:	c9                   	leave  
    4454:	c3                   	ret    
    4455:	50                   	push   %eax
    4456:	68 12 03 00 00       	push   $0x312
    445b:	68 37 cb 00 00       	push   $0xcb37
    4460:	68 b6 cb 00 00       	push   $0xcbb6
    4465:	e8 26 a6 00 00       	call   ea90 <assert_abort@plt>
    446a:	53                   	push   %ebx
    446b:	68 14 03 00 00       	push   $0x314
    4470:	68 37 cb 00 00       	push   $0xcb37
    4475:	68 f5 cb 00 00       	push   $0xcbf5
    447a:	e8 11 a6 00 00       	call   ea90 <assert_abort@plt>
    447f:	50                   	push   %eax
    4480:	68 13 03 00 00       	push   $0x313
    4485:	68 37 cb 00 00       	push   $0xcb37
    448a:	68 e3 cb 00 00       	push   $0xcbe3
    448f:	e8 fc a5 00 00       	call   ea90 <assert_abort@plt>
    4494:	8d b6 00 00 00 00    	lea    0x0(%esi),%esi
    449a:	8d bf 00 00 00 00    	lea    0x0(%edi),%edi

000044a0 <ddf_fun_unbind>:
    44a0:	55                   	push   %ebp
    44a1:	89 e5                	mov    %esp,%ebp
    44a3:	53                   	push   %ebx
    44a4:	83 ec 14             	sub    $0x14,%esp
    44a7:	8b 5d 08             	mov    0x8(%ebp),%ebx
    44aa:	80 3b 00             	cmpb   $0x0,(%ebx)
    44ad:	74 71                	je     4520 <ddf_fun_unbind+0x80>
    44af:	83 ec 0c             	sub    $0xc,%esp
    44b2:	8b 43 04             	mov    0x4(%ebx),%eax
    44b5:	50                   	push   %eax
    44b6:	e8 25 a6 00 00       	call   eae0 <devman_remove_function@plt>
    44bb:	83 c4 10             	add    $0x10,%esp
    44be:	85 c0                	test   %eax,%eax
    44c0:	74 06                	je     44c8 <ddf_fun_unbind+0x28>
    44c2:	8b 5d fc             	mov    -0x4(%ebp),%ebx
    44c5:	c9                   	leave  
    44c6:	c3                   	ret    
    44c7:	90                   	nop
    44c8:	83 ec 0c             	sub    $0xc,%esp
    44cb:	89 45 f4             	mov    %eax,-0xc(%ebp)
    44ce:	68 bc 0d 01 00       	push   $0x10dbc
    44d3:	e8 28 a9 00 00       	call   ee00 <fibril_mutex_lock@plt>
    44d8:	8b 4b 2c             	mov    0x2c(%ebx),%ecx
    44db:	83 c4 10             	add    $0x10,%esp
    44de:	8b 45 f4             	mov    -0xc(%ebp),%eax
    44e1:	85 c9                	test   %ecx,%ecx
    44e3:	74 0f                	je     44f4 <ddf_fun_unbind+0x54>
    44e5:	8b 53 30             	mov    0x30(%ebx),%edx
    44e8:	85 d2                	test   %edx,%edx
    44ea:	74 08                	je     44f4 <ddf_fun_unbind+0x54>
    44ec:	89 0a                	mov    %ecx,(%edx)
    44ee:	8b 4b 2c             	mov    0x2c(%ebx),%ecx
    44f1:	89 51 04             	mov    %edx,0x4(%ecx)
    44f4:	83 ec 0c             	sub    $0xc,%esp
    44f7:	c7 43 2c 00 00 00 00 	movl   $0x0,0x2c(%ebx)
    44fe:	c7 43 30 00 00 00 00 	movl   $0x0,0x30(%ebx)
    4505:	89 45 f4             	mov    %eax,-0xc(%ebp)
    4508:	68 bc 0d 01 00       	push   $0x10dbc
    450d:	e8 2e a6 00 00       	call   eb40 <fibril_mutex_unlock@plt>
    4512:	c6 03 00             	movb   $0x0,(%ebx)
    4515:	8b 45 f4             	mov    -0xc(%ebp),%eax
    4518:	83 c4 10             	add    $0x10,%esp
    451b:	8b 5d fc             	mov    -0x4(%ebp),%ebx
    451e:	c9                   	leave  
    451f:	c3                   	ret    
    4520:	52                   	push   %edx
    4521:	68 2e 03 00 00       	push   $0x32e
    4526:	68 37 cb 00 00       	push   $0xcb37
    452b:	68 06 cc 00 00       	push   $0xcc06
    4530:	e8 5b a5 00 00       	call   ea90 <assert_abort@plt>
    4535:	8d 74 26 00          	lea    0x0(%esi,%eiz,1),%esi
    4539:	8d bc 27 00 00 00 00 	lea    0x0(%edi,%eiz,1),%edi

00004540 <ddf_fun_online>:
    4540:	55                   	push   %ebp
    4541:	89 e5                	mov    %esp,%ebp
    4543:	83 ec 08             	sub    $0x8,%esp
    4546:	8b 45 08             	mov    0x8(%ebp),%eax
    4549:	80 38 00             	cmpb   $0x0,(%eax)
    454c:	74 0c                	je     455a <ddf_fun_online+0x1a>
    454e:	8b 40 04             	mov    0x4(%eax),%eax
    4551:	89 45 08             	mov    %eax,0x8(%ebp)
    4554:	c9                   	leave  
    4555:	e9 16 a4 00 00       	jmp    e970 <devman_drv_fun_online@plt>
    455a:	50                   	push   %eax
    455b:	68 43 03 00 00       	push   $0x343
    4560:	68 37 cb 00 00       	push   $0xcb37
    4565:	68 06 cc 00 00       	push   $0xcc06
    456a:	e8 21 a5 00 00       	call   ea90 <assert_abort@plt>
    456f:	90                   	nop

00004570 <ddf_fun_offline>:
    4570:	55                   	push   %ebp
    4571:	89 e5                	mov    %esp,%ebp
    4573:	83 ec 08             	sub    $0x8,%esp
    4576:	8b 45 08             	mov    0x8(%ebp),%eax
    4579:	80 38 00             	cmpb   $0x0,(%eax)
    457c:	74 0c                	je     458a <ddf_fun_offline+0x1a>
    457e:	8b 40 04             	mov    0x4(%eax),%eax
    4581:	89 45 08             	mov    %eax,0x8(%ebp)
    4584:	c9                   	leave  
    4585:	e9 36 a6 00 00       	jmp    ebc0 <devman_drv_fun_offline@plt>
    458a:	50                   	push   %eax
    458b:	68 55 03 00 00       	push   $0x355
    4590:	68 37 cb 00 00       	push   $0xcb37
    4595:	68 06 cc 00 00       	push   $0xcc06
    459a:	e8 f1 a4 00 00       	call   ea90 <assert_abort@plt>
    459f:	90                   	nop

000045a0 <ddf_fun_add_match_id>:
    45a0:	55                   	push   %ebp
    45a1:	89 e5                	mov    %esp,%ebp
    45a3:	57                   	push   %edi
    45a4:	56                   	push   %esi
    45a5:	53                   	push   %ebx
    45a6:	83 ec 0c             	sub    $0xc,%esp
    45a9:	8b 5d 08             	mov    0x8(%ebp),%ebx
    45ac:	8b 75 10             	mov    0x10(%ebp),%esi
    45af:	80 3b 00             	cmpb   $0x0,(%ebx)
    45b2:	0f 85 89 00 00 00    	jne    4641 <ddf_fun_add_match_id+0xa1>
    45b8:	83 7b 10 01          	cmpl   $0x1,0x10(%ebx)
    45bc:	75 6e                	jne    462c <ddf_fun_add_match_id+0x8c>
    45be:	83 ec 0c             	sub    $0xc,%esp
    45c1:	6a 10                	push   $0x10
    45c3:	e8 e8 a3 00 00       	call   e9b0 <malloc@plt>
    45c8:	83 c4 0c             	add    $0xc,%esp
    45cb:	89 c7                	mov    %eax,%edi
    45cd:	6a 10                	push   $0x10
    45cf:	6a 00                	push   $0x0
    45d1:	50                   	push   %eax
    45d2:	e8 39 a6 00 00       	call   ec10 <memset@plt>
    45d7:	8b 55 0c             	mov    0xc(%ebp),%edx
    45da:	58                   	pop    %eax
    45db:	52                   	push   %edx
    45dc:	e8 7f a5 00 00       	call   eb60 <str_dup@plt>
    45e1:	8d 53 18             	lea    0x18(%ebx),%edx
    45e4:	89 47 08             	mov    %eax,0x8(%edi)
    45e7:	8b 43 1c             	mov    0x1c(%ebx),%eax
    45ea:	83 c4 10             	add    $0x10,%esp
    45ed:	89 77 0c             	mov    %esi,0xc(%edi)
    45f0:	39 c2                	cmp    %eax,%edx
    45f2:	74 18                	je     460c <ddf_fun_add_match_id+0x6c>
    45f4:	39 70 0c             	cmp    %esi,0xc(%eax)
    45f7:	73 0c                	jae    4605 <ddf_fun_add_match_id+0x65>
    45f9:	eb 2d                	jmp    4628 <ddf_fun_add_match_id+0x88>
    45fb:	90                   	nop
    45fc:	8d 74 26 00          	lea    0x0(%esi,%eiz,1),%esi
    4600:	3b 70 0c             	cmp    0xc(%eax),%esi
    4603:	77 23                	ja     4628 <ddf_fun_add_match_id+0x88>
    4605:	8b 40 04             	mov    0x4(%eax),%eax
    4608:	39 c2                	cmp    %eax,%edx
    460a:	75 f4                	jne    4600 <ddf_fun_add_match_id+0x60>
    460c:	8b 02                	mov    (%edx),%eax
    460e:	89 57 04             	mov    %edx,0x4(%edi)
    4611:	89 07                	mov    %eax,(%edi)
    4613:	8b 02                	mov    (%edx),%eax
    4615:	89 78 04             	mov    %edi,0x4(%eax)
    4618:	89 3a                	mov    %edi,(%edx)
    461a:	8d 65 f4             	lea    -0xc(%ebp),%esp
    461d:	31 c0                	xor    %eax,%eax
    461f:	5b                   	pop    %ebx
    4620:	5e                   	pop    %esi
    4621:	5f                   	pop    %edi
    4622:	5d                   	pop    %ebp
    4623:	c3                   	ret    
    4624:	8d 74 26 00          	lea    0x0(%esi,%eiz,1),%esi
    4628:	89 c2                	mov    %eax,%edx
    462a:	eb e0                	jmp    460c <ddf_fun_add_match_id+0x6c>
    462c:	51                   	push   %ecx
    462d:	68 6f 03 00 00       	push   $0x36f
    4632:	68 37 cb 00 00       	push   $0xcb37
    4637:	68 19 cc 00 00       	push   $0xcc19
    463c:	e8 4f a4 00 00       	call   ea90 <assert_abort@plt>
    4641:	53                   	push   %ebx
    4642:	68 6e 03 00 00       	push   $0x36e
    4647:	68 37 cb 00 00       	push   $0xcb37
    464c:	68 b6 cb 00 00       	push   $0xcbb6
    4651:	e8 3a a4 00 00       	call   ea90 <assert_abort@plt>
    4656:	8d 76 00             	lea    0x0(%esi),%esi
    4659:	8d bc 27 00 00 00 00 	lea    0x0(%edi,%eiz,1),%edi

00004660 <ddf_fun_set_ops>:
    4660:	55                   	push   %ebp
    4661:	89 e5                	mov    %esp,%ebp
    4663:	83 ec 08             	sub    $0x8,%esp
    4666:	8b 45 08             	mov    0x8(%ebp),%eax
    4669:	8b 48 28             	mov    0x28(%eax),%ecx
    466c:	85 c9                	test   %ecx,%ecx
    466e:	75 08                	jne    4678 <ddf_fun_set_ops+0x18>
    4670:	8b 55 0c             	mov    0xc(%ebp),%edx
    4673:	89 50 24             	mov    %edx,0x24(%eax)
    4676:	c9                   	leave  
    4677:	c3                   	ret    
    4678:	50                   	push   %eax
    4679:	68 7f 03 00 00       	push   $0x37f
    467e:	68 37 cb 00 00       	push   $0xcb37
    4683:	68 31 cc 00 00       	push   $0xcc31
    4688:	e8 03 a4 00 00       	call   ea90 <assert_abort@plt>
    468d:	8d 76 00             	lea    0x0(%esi),%esi

00004690 <ddf_fun_set_conn_handler>:
    4690:	55                   	push   %ebp
    4691:	89 e5                	mov    %esp,%ebp
    4693:	83 ec 08             	sub    $0x8,%esp
    4696:	8b 45 08             	mov    0x8(%ebp),%eax
    4699:	8b 48 24             	mov    0x24(%eax),%ecx
    469c:	85 c9                	test   %ecx,%ecx
    469e:	75 08                	jne    46a8 <ddf_fun_set_conn_handler+0x18>
    46a0:	8b 55 0c             	mov    0xc(%ebp),%edx
    46a3:	89 50 28             	mov    %edx,0x28(%eax)
    46a6:	c9                   	leave  
    46a7:	c3                   	ret    
    46a8:	50                   	push   %eax
    46a9:	68 89 03 00 00       	push   $0x389
    46ae:	68 37 cb 00 00       	push   $0xcb37
    46b3:	68 4b cc 00 00       	push   $0xcc4b
    46b8:	e8 d3 a3 00 00       	call   ea90 <assert_abort@plt>
    46bd:	8d 76 00             	lea    0x0(%esi),%esi

000046c0 <ddf_fun_add_to_category>:
    46c0:	55                   	push   %ebp
    46c1:	89 e5                	mov    %esp,%ebp
    46c3:	83 ec 08             	sub    $0x8,%esp
    46c6:	8b 45 08             	mov    0x8(%ebp),%eax
    46c9:	8b 55 0c             	mov    0xc(%ebp),%edx
    46cc:	80 38 00             	cmpb   $0x0,(%eax)
    46cf:	74 15                	je     46e6 <ddf_fun_add_to_category+0x26>
    46d1:	83 78 10 02          	cmpl   $0x2,0x10(%eax)
    46d5:	75 24                	jne    46fb <ddf_fun_add_to_category+0x3b>
    46d7:	89 55 0c             	mov    %edx,0xc(%ebp)
    46da:	8b 40 04             	mov    0x4(%eax),%eax
    46dd:	89 45 08             	mov    %eax,0x8(%ebp)
    46e0:	c9                   	leave  
    46e1:	e9 da a2 00 00       	jmp    e9c0 <devman_add_device_to_category@plt>
    46e6:	52                   	push   %edx
    46e7:	68 9c 03 00 00       	push   $0x39c
    46ec:	68 37 cb 00 00       	push   $0xcb37
    46f1:	68 06 cc 00 00       	push   $0xcc06
    46f6:	e8 95 a3 00 00       	call   ea90 <assert_abort@plt>
    46fb:	50                   	push   %eax
    46fc:	68 9d 03 00 00       	push   $0x39d
    4701:	68 37 cb 00 00       	push   $0xcb37
    4706:	68 5c cc 00 00       	push   $0xcc5c
    470b:	e8 80 a3 00 00       	call   ea90 <assert_abort@plt>

00004710 <ddf_driver_main>:
    4710:	55                   	push   %ebp
    4711:	89 e5                	mov    %esp,%ebp
    4713:	56                   	push   %esi
    4714:	53                   	push   %ebx
    4715:	83 ec 10             	sub    $0x10,%esp
    4718:	8d 75 f4             	lea    -0xc(%ebp),%esi
    471b:	8b 45 08             	mov    0x8(%ebp),%eax
    471e:	56                   	push   %esi
    471f:	a3 6c 0f 01 00       	mov    %eax,0x10f6c
    4724:	6a 00                	push   $0x0
    4726:	68 70 3a 00 00       	push   $0x3a70
    472b:	68 41 26 9b c9       	push   $0xc99b2641
    4730:	e8 fb a5 00 00       	call   ed30 <async_create_port@plt>
    4735:	83 c4 10             	add    $0x10,%esp
    4738:	89 c3                	mov    %eax,%ebx
    473a:	85 c0                	test   %eax,%eax
    473c:	74 0a                	je     4748 <ddf_driver_main+0x38>
    473e:	8d 65 f8             	lea    -0x8(%ebp),%esp
    4741:	89 d8                	mov    %ebx,%eax
    4743:	5b                   	pop    %ebx
    4744:	5e                   	pop    %esi
    4745:	5d                   	pop    %ebp
    4746:	c3                   	ret    
    4747:	90                   	nop
    4748:	56                   	push   %esi
    4749:	6a 00                	push   $0x0
    474b:	68 90 3a 00 00       	push   $0x3a90
    4750:	68 41 26 9b db       	push   $0xdb9b2641
    4755:	e8 d6 a5 00 00       	call   ed30 <async_create_port@plt>
    475a:	83 c4 10             	add    $0x10,%esp
    475d:	89 c3                	mov    %eax,%ebx
    475f:	85 c0                	test   %eax,%eax
    4761:	75 db                	jne    473e <ddf_driver_main+0x2e>
    4763:	51                   	push   %ecx
    4764:	51                   	push   %ecx
    4765:	6a 00                	push   $0x0
    4767:	68 80 3a 00 00       	push   $0x3a80
    476c:	e8 4f a6 00 00       	call   edc0 <async_set_fallback_port_handler@plt>
    4771:	a1 6c 0f 01 00       	mov    0x10f6c,%eax
    4776:	8b 30                	mov    (%eax),%esi
    4778:	5b                   	pop    %ebx
    4779:	56                   	push   %esi
    477a:	e8 81 a4 00 00       	call   ec00 <devman_driver_register@plt>
    477f:	83 c4 10             	add    $0x10,%esp
    4782:	89 c3                	mov    %eax,%ebx
    4784:	85 c0                	test   %eax,%eax
    4786:	74 30                	je     47b8 <ddf_driver_main+0xa8>
    4788:	b8 76 cc 00 00       	mov    $0xcc76,%eax
    478d:	83 fb f7             	cmp    $0xfffffff7,%ebx
    4790:	74 0c                	je     479e <ddf_driver_main+0x8e>
    4792:	83 ec 0c             	sub    $0xc,%esp
    4795:	53                   	push   %ebx
    4796:	e8 45 a5 00 00       	call   ece0 <str_error@plt>
    479b:	83 c4 10             	add    $0x10,%esp
    479e:	52                   	push   %edx
    479f:	52                   	push   %edx
    47a0:	50                   	push   %eax
    47a1:	68 04 ce 00 00       	push   $0xce04
    47a6:	e8 45 a1 00 00       	call   e8f0 <printf@plt>
    47ab:	83 c4 10             	add    $0x10,%esp
    47ae:	8d 65 f8             	lea    -0x8(%ebp),%esp
    47b1:	89 d8                	mov    %ebx,%eax
    47b3:	5b                   	pop    %ebx
    47b4:	5e                   	pop    %esi
    47b5:	5d                   	pop    %ebp
    47b6:	c3                   	ret    
    47b7:	90                   	nop
    47b8:	83 ec 0c             	sub    $0xc,%esp
    47bb:	6a 00                	push   $0x0
    47bd:	e8 fe a0 00 00       	call   e8c0 <task_retval@plt>
    47c2:	83 c4 10             	add    $0x10,%esp
    47c5:	89 c3                	mov    %eax,%ebx
    47c7:	85 c0                	test   %eax,%eax
    47c9:	0f 85 6f ff ff ff    	jne    473e <ddf_driver_main+0x2e>
    47cf:	83 c8 ff             	or     $0xffffffff,%eax
    47d2:	f0 0f c1 05 64 0f 01 	lock xadd %eax,0x10f64
    47d9:	00 
    47da:	48                   	dec    %eax
    47db:	78 12                	js     47ef <ddf_driver_main+0xdf>
    47dd:	83 ec 0c             	sub    $0xc,%esp
    47e0:	6a 03                	push   $0x3
    47e2:	e8 a9 a5 00 00       	call   ed90 <fibril_switch@plt>
    47e7:	83 c4 10             	add    $0x10,%esp
    47ea:	e9 4f ff ff ff       	jmp    473e <ddf_driver_main+0x2e>
    47ef:	50                   	push   %eax
    47f0:	6a 0b                	push   $0xb
    47f2:	6a 00                	push   $0x0
    47f4:	6a 00                	push   $0x0
    47f6:	6a 00                	push   $0x0
    47f8:	6a 00                	push   $0x0
    47fa:	6a 00                	push   $0x0
    47fc:	68 64 0f 01 00       	push   $0x10f64
