
sysinst:     file format elf32-i386


Disassembly of section .init:

000010f4 <__entry>:
    10f4:	66 8c d0             	mov    %ss,%ax
    10f7:	8e d8                	mov    %eax,%ds
    10f9:	8e c0                	mov    %eax,%es
    10fb:	8e e0                	mov    %eax,%fs
    10fd:	b8 01 00 00 00       	mov    $0x1,%eax
    1102:	0f a2                	cpuid  
    1104:	0f ba e2 0b          	bt     $0xb,%edx
    1108:	73 0c                	jae    1116 <__entry+0x22>
    110a:	8d 05 e0 92 00 00    	lea    0x92e0,%eax
    1110:	c7 00 80 75 00 00    	movl   $0x7580,(%eax)
    1116:	6a 00                	push   $0x0
    1118:	6a 00                	push   $0x0
    111a:	89 e5                	mov    %esp,%ebp
    111c:	57                   	push   %edi
    111d:	e8 7e 60 00 00       	call   71a0 <__main@plt>

Disassembly of section .text:

00001140 <futil_copy_file>:
    1140:	55                   	push   %ebp
    1141:	89 e5                	mov    %esp,%ebp
    1143:	56                   	push   %esi
    1144:	53                   	push   %ebx
    1145:	50                   	push   %eax
    1146:	8b 5d 08             	mov    0x8(%ebp),%ebx
    1149:	8b 75 0c             	mov    0xc(%ebp),%esi
    114c:	56                   	push   %esi
    114d:	53                   	push   %ebx
    114e:	68 97 65 00 00       	push   $0x6597
    1153:	e8 98 60 00 00       	call   71f0 <printf@plt>
    1158:	58                   	pop    %eax
    1159:	5a                   	pop    %edx
    115a:	6a 10                	push   $0x10
    115c:	53                   	push   %ebx
    115d:	e8 2e 64 00 00       	call   7590 <open@plt>
    1162:	83 c4 10             	add    $0x10,%esp
    1165:	85 c0                	test   %eax,%eax
    1167:	78 6f                	js     11d8 <futil_copy_file+0x98>
    1169:	89 c3                	mov    %eax,%ebx
    116b:	50                   	push   %eax
    116c:	6a 00                	push   $0x0
    116e:	6a 41                	push   $0x41
    1170:	56                   	push   %esi
    1171:	e8 1a 64 00 00       	call   7590 <open@plt>
    1176:	83 c4 10             	add    $0x10,%esp
    1179:	89 c6                	mov    %eax,%esi
    117b:	85 c0                	test   %eax,%eax
    117d:	79 1f                	jns    119e <futil_copy_file+0x5e>
    117f:	eb 57                	jmp    11d8 <futil_copy_file+0x98>
    1181:	8d b4 26 00 00 00 00 	lea    0x0(%esi,%eiz,1),%esi
    1188:	78 4e                	js     11d8 <futil_copy_file+0x98>
    118a:	52                   	push   %edx
    118b:	50                   	push   %eax
    118c:	68 00 93 00 00       	push   $0x9300
    1191:	56                   	push   %esi
    1192:	e8 39 62 00 00       	call   73d0 <write@plt>
    1197:	83 c4 10             	add    $0x10,%esp
    119a:	85 c0                	test   %eax,%eax
    119c:	7e 3a                	jle    11d8 <futil_copy_file+0x98>
    119e:	51                   	push   %ecx
    119f:	68 00 40 00 00       	push   $0x4000
    11a4:	68 00 93 00 00       	push   $0x9300
    11a9:	53                   	push   %ebx
    11aa:	e8 91 62 00 00       	call   7440 <read@plt>
    11af:	83 c4 10             	add    $0x10,%esp
    11b2:	85 c0                	test   %eax,%eax
    11b4:	75 d2                	jne    1188 <futil_copy_file+0x48>
    11b6:	83 ec 0c             	sub    $0xc,%esp
    11b9:	53                   	push   %ebx
    11ba:	e8 21 64 00 00       	call   75e0 <close@plt>
    11bf:	89 34 24             	mov    %esi,(%esp)
    11c2:	e8 19 64 00 00       	call   75e0 <close@plt>
    11c7:	83 c4 10             	add    $0x10,%esp
    11ca:	85 c0                	test   %eax,%eax
    11cc:	78 0a                	js     11d8 <futil_copy_file+0x98>
    11ce:	8d 65 f8             	lea    -0x8(%ebp),%esp
    11d1:	31 c0                	xor    %eax,%eax
    11d3:	5b                   	pop    %ebx
    11d4:	5e                   	pop    %esi
    11d5:	5d                   	pop    %ebp
    11d6:	c3                   	ret    
    11d7:	90                   	nop
    11d8:	8d 65 f8             	lea    -0x8(%ebp),%esp
    11db:	b8 f6 fe ff ff       	mov    $0xfffffef6,%eax
    11e0:	5b                   	pop    %ebx
    11e1:	5e                   	pop    %esi
    11e2:	5d                   	pop    %ebp
    11e3:	c3                   	ret    
    11e4:	8d b6 00 00 00 00    	lea    0x0(%esi),%esi
    11ea:	8d bf 00 00 00 00    	lea    0x0(%edi),%edi

000011f0 <futil_rcopy_contents>:
    11f0:	55                   	push   %ebp
    11f1:	89 e5                	mov    %esp,%ebp
    11f3:	57                   	push   %edi
    11f4:	56                   	push   %esi
    11f5:	53                   	push   %ebx
    11f6:	83 ec 58             	sub    $0x58,%esp
    11f9:	8b 45 08             	mov    0x8(%ebp),%eax
    11fc:	50                   	push   %eax
    11fd:	e8 ae 62 00 00       	call   74b0 <opendir@plt>
    1202:	83 c4 10             	add    $0x10,%esp
    1205:	89 45 b4             	mov    %eax,-0x4c(%ebp)
    1208:	85 c0                	test   %eax,%eax
    120a:	0f 84 78 01 00 00    	je     1388 <futil_rcopy_contents+0x198>
    1210:	83 ec 0c             	sub    $0xc,%esp
    1213:	8b 45 b4             	mov    -0x4c(%ebp),%eax
    1216:	50                   	push   %eax
    1217:	e8 f4 60 00 00       	call   7310 <readdir@plt>
    121c:	83 c4 10             	add    $0x10,%esp
    121f:	89 c3                	mov    %eax,%ebx
    1221:	85 c0                	test   %eax,%eax
    1223:	75 70                	jne    1295 <futil_rcopy_contents+0xa5>
    1225:	e9 7d 01 00 00       	jmp    13a7 <futil_rcopy_contents+0x1b7>
    122a:	8d b6 00 00 00 00    	lea    0x0(%esi),%esi
    1230:	80 7d d9 00          	cmpb   $0x0,-0x27(%ebp)
    1234:	0f 84 4e 01 00 00    	je     1388 <futil_rcopy_contents+0x198>
    123a:	8b 75 c4             	mov    -0x3c(%ebp),%esi
    123d:	53                   	push   %ebx
    123e:	53                   	push   %ebx
    123f:	56                   	push   %esi
    1240:	68 b1 65 00 00       	push   $0x65b1
    1245:	e8 a6 5f 00 00       	call   71f0 <printf@plt>
    124a:	8b 4d c4             	mov    -0x3c(%ebp),%ecx
    124d:	58                   	pop    %eax
    124e:	5a                   	pop    %edx
    124f:	6a 00                	push   $0x0
    1251:	51                   	push   %ecx
    1252:	e8 79 63 00 00       	call   75d0 <mkdir@plt>
    1257:	83 c4 10             	add    $0x10,%esp
    125a:	85 c0                	test   %eax,%eax
    125c:	0f 85 26 01 00 00    	jne    1388 <futil_rcopy_contents+0x198>
    1262:	8b 55 c4             	mov    -0x3c(%ebp),%edx
    1265:	8b 4d c0             	mov    -0x40(%ebp),%ecx
    1268:	50                   	push   %eax
    1269:	50                   	push   %eax
    126a:	52                   	push   %edx
    126b:	51                   	push   %ecx
    126c:	e8 7f ff ff ff       	call   11f0 <futil_rcopy_contents>
    1271:	83 c4 10             	add    $0x10,%esp
    1274:	85 c0                	test   %eax,%eax
    1276:	0f 85 0c 01 00 00    	jne    1388 <futil_rcopy_contents+0x198>
    127c:	83 ec 0c             	sub    $0xc,%esp
    127f:	8b 5d b4             	mov    -0x4c(%ebp),%ebx
    1282:	53                   	push   %ebx
    1283:	e8 88 60 00 00       	call   7310 <readdir@plt>
    1288:	83 c4 10             	add    $0x10,%esp
    128b:	89 c3                	mov    %eax,%ebx
    128d:	85 c0                	test   %eax,%eax
    128f:	0f 84 f8 00 00 00    	je     138d <futil_rcopy_contents+0x19d>
    1295:	8b 7d 08             	mov    0x8(%ebp),%edi
    1298:	8d 45 c0             	lea    -0x40(%ebp),%eax
    129b:	53                   	push   %ebx
    129c:	57                   	push   %edi
    129d:	68 ab 65 00 00       	push   $0x65ab
    12a2:	50                   	push   %eax
    12a3:	e8 18 62 00 00       	call   74c0 <asprintf@plt>
    12a8:	83 c4 10             	add    $0x10,%esp
    12ab:	85 c0                	test   %eax,%eax
    12ad:	0f 88 e5 00 00 00    	js     1398 <futil_rcopy_contents+0x1a8>
    12b3:	8b 75 0c             	mov    0xc(%ebp),%esi
    12b6:	8d 45 c4             	lea    -0x3c(%ebp),%eax
    12b9:	53                   	push   %ebx
    12ba:	56                   	push   %esi
    12bb:	68 ab 65 00 00       	push   $0x65ab
    12c0:	50                   	push   %eax
    12c1:	e8 fa 61 00 00       	call   74c0 <asprintf@plt>
    12c6:	83 c4 10             	add    $0x10,%esp
    12c9:	85 c0                	test   %eax,%eax
    12cb:	0f 88 c7 00 00 00    	js     1398 <futil_rcopy_contents+0x1a8>
    12d1:	8d 45 c8             	lea    -0x38(%ebp),%eax
    12d4:	8b 5d c0             	mov    -0x40(%ebp),%ebx
    12d7:	51                   	push   %ecx
    12d8:	51                   	push   %ecx
    12d9:	50                   	push   %eax
    12da:	53                   	push   %ebx
    12db:	e8 40 62 00 00       	call   7520 <stat@plt>
    12e0:	83 c4 10             	add    $0x10,%esp
    12e3:	89 c7                	mov    %eax,%edi
    12e5:	85 c0                	test   %eax,%eax
    12e7:	0f 85 9b 00 00 00    	jne    1388 <futil_rcopy_contents+0x198>
    12ed:	80 7d d8 00          	cmpb   $0x0,-0x28(%ebp)
    12f1:	0f 84 39 ff ff ff    	je     1230 <futil_rcopy_contents+0x40>
    12f7:	8b 5d c0             	mov    -0x40(%ebp),%ebx
    12fa:	8b 75 c4             	mov    -0x3c(%ebp),%esi
    12fd:	50                   	push   %eax
    12fe:	56                   	push   %esi
    12ff:	53                   	push   %ebx
    1300:	68 97 65 00 00       	push   $0x6597
    1305:	e8 e6 5e 00 00       	call   71f0 <printf@plt>
    130a:	58                   	pop    %eax
    130b:	5a                   	pop    %edx
    130c:	6a 10                	push   $0x10
    130e:	53                   	push   %ebx
    130f:	e8 7c 62 00 00       	call   7590 <open@plt>
    1314:	83 c4 10             	add    $0x10,%esp
    1317:	89 c3                	mov    %eax,%ebx
    1319:	85 c0                	test   %eax,%eax
    131b:	78 6b                	js     1388 <futil_rcopy_contents+0x198>
    131d:	50                   	push   %eax
    131e:	6a 00                	push   $0x0
    1320:	6a 41                	push   $0x41
    1322:	56                   	push   %esi
    1323:	e8 68 62 00 00       	call   7590 <open@plt>
    1328:	83 c4 10             	add    $0x10,%esp
    132b:	89 c6                	mov    %eax,%esi
    132d:	85 c0                	test   %eax,%eax
    132f:	79 1d                	jns    134e <futil_rcopy_contents+0x15e>
    1331:	eb 55                	jmp    1388 <futil_rcopy_contents+0x198>
    1333:	90                   	nop
    1334:	8d 74 26 00          	lea    0x0(%esi,%eiz,1),%esi
    1338:	78 4e                	js     1388 <futil_rcopy_contents+0x198>
    133a:	52                   	push   %edx
    133b:	50                   	push   %eax
    133c:	68 00 93 00 00       	push   $0x9300
    1341:	56                   	push   %esi
    1342:	e8 89 60 00 00       	call   73d0 <write@plt>
    1347:	83 c4 10             	add    $0x10,%esp
    134a:	85 c0                	test   %eax,%eax
    134c:	7e 3a                	jle    1388 <futil_rcopy_contents+0x198>
    134e:	51                   	push   %ecx
    134f:	68 00 40 00 00       	push   $0x4000
    1354:	68 00 93 00 00       	push   $0x9300
    1359:	53                   	push   %ebx
    135a:	e8 e1 60 00 00       	call   7440 <read@plt>
    135f:	83 c4 10             	add    $0x10,%esp
    1362:	85 c0                	test   %eax,%eax
    1364:	75 d2                	jne    1338 <futil_rcopy_contents+0x148>
    1366:	83 ec 0c             	sub    $0xc,%esp
    1369:	53                   	push   %ebx
    136a:	e8 71 62 00 00       	call   75e0 <close@plt>
    136f:	89 34 24             	mov    %esi,(%esp)
    1372:	e8 69 62 00 00       	call   75e0 <close@plt>
    1377:	83 c4 10             	add    $0x10,%esp
    137a:	85 c0                	test   %eax,%eax
    137c:	0f 89 fa fe ff ff    	jns    127c <futil_rcopy_contents+0x8c>
    1382:	8d b6 00 00 00 00    	lea    0x0(%esi),%esi
    1388:	bf f6 fe ff ff       	mov    $0xfffffef6,%edi
    138d:	8d 65 f4             	lea    -0xc(%ebp),%esp
    1390:	89 f8                	mov    %edi,%eax
    1392:	5b                   	pop    %ebx
    1393:	5e                   	pop    %esi
    1394:	5f                   	pop    %edi
    1395:	5d                   	pop    %ebp
    1396:	c3                   	ret    
    1397:	90                   	nop
    1398:	8d 65 f4             	lea    -0xc(%ebp),%esp
    139b:	bf fe ff ff ff       	mov    $0xfffffffe,%edi
    13a0:	89 f8                	mov    %edi,%eax
    13a2:	5b                   	pop    %ebx
    13a3:	5e                   	pop    %esi
    13a4:	5f                   	pop    %edi
    13a5:	5d                   	pop    %ebp
    13a6:	c3                   	ret    
    13a7:	31 ff                	xor    %edi,%edi
    13a9:	eb e2                	jmp    138d <futil_rcopy_contents+0x19d>
    13ab:	90                   	nop
    13ac:	8d 74 26 00          	lea    0x0(%esi,%eiz,1),%esi

000013b0 <futil_get_file>:
    13b0:	55                   	push   %ebp
    13b1:	89 e5                	mov    %esp,%ebp
    13b3:	57                   	push   %edi
    13b4:	56                   	push   %esi
    13b5:	53                   	push   %ebx
    13b6:	83 ec 24             	sub    $0x24,%esp
    13b9:	8b 4d 08             	mov    0x8(%ebp),%ecx
    13bc:	6a 10                	push   $0x10
    13be:	51                   	push   %ecx
    13bf:	e8 cc 61 00 00       	call   7590 <open@plt>
    13c4:	83 c4 10             	add    $0x10,%esp
    13c7:	85 c0                	test   %eax,%eax
    13c9:	0f 88 89 00 00 00    	js     1458 <futil_get_file+0xa8>
    13cf:	6a 02                	push   $0x2
    13d1:	89 c3                	mov    %eax,%ebx
    13d3:	6a 00                	push   $0x0
    13d5:	6a 00                	push   $0x0
    13d7:	50                   	push   %eax
    13d8:	e8 73 5f 00 00       	call   7350 <lseek@plt>
    13dd:	21 c2                	and    %eax,%edx
    13df:	83 c4 10             	add    $0x10,%esp
    13e2:	89 c6                	mov    %eax,%esi
    13e4:	42                   	inc    %edx
    13e5:	74 61                	je     1448 <futil_get_file+0x98>
    13e7:	6a 00                	push   $0x0
    13e9:	6a 00                	push   $0x0
    13eb:	6a 00                	push   $0x0
    13ed:	53                   	push   %ebx
    13ee:	e8 5d 5f 00 00       	call   7350 <lseek@plt>
    13f3:	83 c4 10             	add    $0x10,%esp
    13f6:	21 d0                	and    %edx,%eax
    13f8:	40                   	inc    %eax
    13f9:	74 4d                	je     1448 <futil_get_file+0x98>
    13fb:	52                   	push   %edx
    13fc:	52                   	push   %edx
    13fd:	6a 01                	push   $0x1
    13ff:	56                   	push   %esi
    1400:	e8 ab 5f 00 00       	call   73b0 <calloc@plt>
    1405:	83 c4 10             	add    $0x10,%esp
    1408:	89 c7                	mov    %eax,%edi
    140a:	85 c0                	test   %eax,%eax
    140c:	74 52                	je     1460 <futil_get_file+0xb0>
    140e:	50                   	push   %eax
    140f:	56                   	push   %esi
    1410:	57                   	push   %edi
    1411:	53                   	push   %ebx
    1412:	e8 29 60 00 00       	call   7440 <read@plt>
    1417:	83 c4 10             	add    $0x10,%esp
    141a:	89 45 e4             	mov    %eax,-0x1c(%ebp)
    141d:	39 f0                	cmp    %esi,%eax
    141f:	75 27                	jne    1448 <futil_get_file+0x98>
    1421:	83 ec 0c             	sub    $0xc,%esp
    1424:	53                   	push   %ebx
    1425:	e8 b6 61 00 00       	call   75e0 <close@plt>
    142a:	8b 45 0c             	mov    0xc(%ebp),%eax
    142d:	8b 55 e4             	mov    -0x1c(%ebp),%edx
    1430:	83 c4 10             	add    $0x10,%esp
    1433:	89 38                	mov    %edi,(%eax)
    1435:	8b 45 10             	mov    0x10(%ebp),%eax
    1438:	89 10                	mov    %edx,(%eax)
    143a:	31 c0                	xor    %eax,%eax
    143c:	8d 65 f4             	lea    -0xc(%ebp),%esp
    143f:	5b                   	pop    %ebx
    1440:	5e                   	pop    %esi
    1441:	5f                   	pop    %edi
    1442:	5d                   	pop    %ebp
    1443:	c3                   	ret    
    1444:	8d 74 26 00          	lea    0x0(%esi,%eiz,1),%esi
    1448:	8d 65 f4             	lea    -0xc(%ebp),%esp
    144b:	b8 f6 fe ff ff       	mov    $0xfffffef6,%eax
    1450:	5b                   	pop    %ebx
    1451:	5e                   	pop    %esi
    1452:	5f                   	pop    %edi
    1453:	5d                   	pop    %ebp
    1454:	c3                   	ret    
    1455:	8d 76 00             	lea    0x0(%esi),%esi
    1458:	83 c8 ff             	or     $0xffffffff,%eax
    145b:	eb df                	jmp    143c <futil_get_file+0x8c>
    145d:	8d 76 00             	lea    0x0(%esi),%esi
    1460:	b8 fe ff ff ff       	mov    $0xfffffffe,%eax
    1465:	eb d5                	jmp    143c <futil_get_file+0x8c>
    1467:	66 90                	xchg   %ax,%ax
    1469:	66 90                	xchg   %ax,%ax
    146b:	66 90                	xchg   %ax,%ax
    146d:	66 90                	xchg   %ax,%ax
    146f:	90                   	nop

00001470 <sysinst_copy_boot_blocks.constprop.1>:
    1470:	55                   	push   %ebp
    1471:	89 e5                	mov    %esp,%ebp
    1473:	57                   	push   %edi
    1474:	56                   	push   %esi
    1475:	53                   	push   %ebx
    1476:	81 ec 48 02 00 00    	sub    $0x248,%esp
    147c:	68 c8 65 00 00       	push   $0x65c8
    1481:	e8 6a 5d 00 00       	call   71f0 <printf@plt>
    1486:	83 c4 0c             	add    $0xc,%esp
    1489:	8d 85 d4 fd ff ff    	lea    -0x22c(%ebp),%eax
    148f:	50                   	push   %eax
    1490:	8d 85 d0 fd ff ff    	lea    -0x230(%ebp),%eax
    1496:	50                   	push   %eax
    1497:	68 fc 65 00 00       	push   $0x65fc
    149c:	e8 0f ff ff ff       	call   13b0 <futil_get_file>
    14a1:	83 c4 10             	add    $0x10,%esp
    14a4:	85 c0                	test   %eax,%eax
    14a6:	0f 85 4b 02 00 00    	jne    16f7 <sysinst_copy_boot_blocks.constprop.1+0x287>
    14ac:	81 bd d4 fd ff ff 00 	cmpl   $0x200,-0x22c(%ebp)
    14b3:	02 00 00 
    14b6:	0f 85 3b 02 00 00    	jne    16f7 <sysinst_copy_boot_blocks.constprop.1+0x287>
    14bc:	83 ec 0c             	sub    $0xc,%esp
    14bf:	68 20 66 00 00       	push   $0x6620
    14c4:	e8 27 5d 00 00       	call   71f0 <printf@plt>
    14c9:	83 c4 0c             	add    $0xc,%esp
    14cc:	8d 85 dc fd ff ff    	lea    -0x224(%ebp),%eax
    14d2:	50                   	push   %eax
    14d3:	8d 85 d8 fd ff ff    	lea    -0x228(%ebp),%eax
    14d9:	50                   	push   %eax
    14da:	68 54 66 00 00       	push   $0x6654
    14df:	e8 cc fe ff ff       	call   13b0 <futil_get_file>
    14e4:	83 c4 10             	add    $0x10,%esp
    14e7:	85 c0                	test   %eax,%eax
    14e9:	0f 85 08 02 00 00    	jne    16f7 <sysinst_copy_boot_blocks.constprop.1+0x287>
    14ef:	83 ec 0c             	sub    $0xc,%esp
    14f2:	68 78 66 00 00       	push   $0x6678
    14f7:	e8 f4 5c 00 00       	call   71f0 <printf@plt>
    14fc:	83 c4 0c             	add    $0xc,%esp
    14ff:	8d 85 e0 fd ff ff    	lea    -0x220(%ebp),%eax
    1505:	6a 00                	push   $0x0
    1507:	50                   	push   %eax
    1508:	68 a4 66 00 00       	push   $0x66a4
    150d:	e8 de 5d 00 00       	call   72f0 <loc_service_get_id@plt>
    1512:	83 c4 10             	add    $0x10,%esp
    1515:	89 c3                	mov    %eax,%ebx
    1517:	85 c0                	test   %eax,%eax
    1519:	74 0a                	je     1525 <sysinst_copy_boot_blocks.constprop.1+0xb5>
    151b:	8d 65 f4             	lea    -0xc(%ebp),%esp
    151e:	89 d8                	mov    %ebx,%eax
    1520:	5b                   	pop    %ebx
    1521:	5e                   	pop    %esi
    1522:	5f                   	pop    %edi
    1523:	5d                   	pop    %ebp
    1524:	c3                   	ret    
    1525:	83 ec 0c             	sub    $0xc,%esp
    1528:	68 c8 66 00 00       	push   $0x66c8
    152d:	e8 be 5c 00 00       	call   71f0 <printf@plt>
    1532:	5f                   	pop    %edi
    1533:	58                   	pop    %eax
    1534:	68 00 02 00 00       	push   $0x200
    1539:	ff b5 e0 fd ff ff    	pushl  -0x220(%ebp)
    153f:	e8 5c 06 00 00       	call   1ba0 <block_init>
    1544:	83 c4 10             	add    $0x10,%esp
    1547:	89 c3                	mov    %eax,%ebx
    1549:	85 c0                	test   %eax,%eax
    154b:	75 ce                	jne    151b <sysinst_copy_boot_blocks.constprop.1+0xab>
    154d:	83 ec 0c             	sub    $0xc,%esp
    1550:	68 f0 66 00 00       	push   $0x66f0
    1555:	e8 96 5c 00 00       	call   71f0 <printf@plt>
    155a:	8d 85 e4 fd ff ff    	lea    -0x21c(%ebp),%eax
    1560:	5b                   	pop    %ebx
    1561:	5e                   	pop    %esi
    1562:	50                   	push   %eax
    1563:	ff b5 e0 fd ff ff    	pushl  -0x220(%ebp)
    1569:	e8 92 1a 00 00       	call   3000 <block_get_bsize>
    156e:	83 c4 10             	add    $0x10,%esp
    1571:	89 c3                	mov    %eax,%ebx
    1573:	85 c0                	test   %eax,%eax
    1575:	75 a4                	jne    151b <sysinst_copy_boot_blocks.constprop.1+0xab>
    1577:	81 bd e4 fd ff ff 00 	cmpl   $0x200,-0x21c(%ebp)
    157e:	02 00 00 
    1581:	0f 85 60 01 00 00    	jne    16e7 <sysinst_copy_boot_blocks.constprop.1+0x277>
    1587:	83 ec 0c             	sub    $0xc,%esp
    158a:	8d bd e8 fd ff ff    	lea    -0x218(%ebp),%edi
    1590:	68 1c 67 00 00       	push   $0x671c
    1595:	e8 56 5c 00 00       	call   71f0 <printf@plt>
    159a:	89 3c 24             	mov    %edi,(%esp)
    159d:	6a 01                	push   $0x1
    159f:	6a 00                	push   $0x0
    15a1:	6a 00                	push   $0x0
    15a3:	ff b5 e0 fd ff ff    	pushl  -0x220(%ebp)
    15a9:	e8 e2 17 00 00       	call   2d90 <block_read_direct>
    15ae:	83 c4 20             	add    $0x20,%esp
    15b1:	85 c0                	test   %eax,%eax
    15b3:	0f 85 3e 01 00 00    	jne    16f7 <sysinst_copy_boot_blocks.constprop.1+0x287>
    15b9:	8b b5 d8 fd ff ff    	mov    -0x228(%ebp),%esi
    15bf:	8b 85 dc fd ff ff    	mov    -0x224(%ebp),%eax
    15c5:	89 85 c4 fd ff ff    	mov    %eax,-0x23c(%ebp)
    15cb:	8d 9e f4 01 00 00    	lea    0x1f4(%esi),%ebx
    15d1:	eb 1d                	jmp    15f0 <sysinst_copy_boot_blocks.constprop.1+0x180>
    15d3:	51                   	push   %ecx
    15d4:	6a 0c                	push   $0xc
    15d6:	6a 00                	push   $0x0
    15d8:	53                   	push   %ebx
    15d9:	83 eb 0c             	sub    $0xc,%ebx
    15dc:	e8 bf 5e 00 00       	call   74a0 <memset@plt>
    15e1:	83 c4 10             	add    $0x10,%esp
    15e4:	3b 9d d8 fd ff ff    	cmp    -0x228(%ebp),%ebx
    15ea:	0f 82 11 01 00 00    	jb     1701 <sysinst_copy_boot_blocks.constprop.1+0x291>
    15f0:	66 83 7b 08 00       	cmpw   $0x0,0x8(%ebx)
    15f5:	75 dc                	jne    15d3 <sysinst_copy_boot_blocks.constprop.1+0x163>
    15f7:	8b 9d c4 fd ff ff    	mov    -0x23c(%ebp),%ebx
    15fd:	c7 86 f4 01 00 00 11 	movl   $0x11,0x1f4(%esi)
    1604:	00 00 00 
    1607:	81 c3 ff 01 00 00    	add    $0x1ff,%ebx
    160d:	c7 86 f8 01 00 00 00 	movl   $0x0,0x1f8(%esi)
    1614:	00 00 00 
    1617:	c1 eb 09             	shr    $0x9,%ebx
    161a:	66 c7 86 fe 01 00 00 	movw   $0x820,0x1fe(%esi)
    1621:	20 08 
    1623:	8d 43 ff             	lea    -0x1(%ebx),%eax
    1626:	66 89 86 fc 01 00 00 	mov    %ax,0x1fc(%esi)
    162d:	52                   	push   %edx
    162e:	68 b8 01 00 00       	push   $0x1b8
    1633:	ff b5 d0 fd ff ff    	pushl  -0x230(%ebp)
    1639:	57                   	push   %edi
    163a:	e8 71 5c 00 00       	call   72b0 <memcpy@plt>
    163f:	c7 04 24 6c 67 00 00 	movl   $0x676c,(%esp)
    1646:	c6 85 4c fe ff ff ff 	movb   $0xff,-0x1b4(%ebp)
    164d:	c6 85 44 fe ff ff 10 	movb   $0x10,-0x1bc(%ebp)
    1654:	c6 85 45 fe ff ff 00 	movb   $0x0,-0x1bb(%ebp)
    165b:	c6 85 46 fe ff ff 00 	movb   $0x0,-0x1ba(%ebp)
    1662:	c6 85 47 fe ff ff 00 	movb   $0x0,-0x1b9(%ebp)
    1669:	c6 85 48 fe ff ff 00 	movb   $0x0,-0x1b8(%ebp)
    1670:	c6 85 49 fe ff ff 00 	movb   $0x0,-0x1b7(%ebp)
    1677:	c6 85 4a fe ff ff 00 	movb   $0x0,-0x1b6(%ebp)
    167e:	c6 85 4b fe ff ff 00 	movb   $0x0,-0x1b5(%ebp)
    1685:	e8 66 5b 00 00       	call   71f0 <printf@plt>
    168a:	89 3c 24             	mov    %edi,(%esp)
    168d:	6a 01                	push   $0x1
    168f:	6a 00                	push   $0x0
    1691:	6a 00                	push   $0x0
    1693:	ff b5 e0 fd ff ff    	pushl  -0x220(%ebp)
    1699:	e8 d2 17 00 00       	call   2e70 <block_write_direct>
    169e:	83 c4 20             	add    $0x20,%esp
    16a1:	85 c0                	test   %eax,%eax
    16a3:	75 52                	jne    16f7 <sysinst_copy_boot_blocks.constprop.1+0x287>
    16a5:	83 ec 0c             	sub    $0xc,%esp
    16a8:	68 6c 67 00 00       	push   $0x676c
    16ad:	e8 3e 5b 00 00       	call   71f0 <printf@plt>
    16b2:	58                   	pop    %eax
    16b3:	ff b5 d8 fd ff ff    	pushl  -0x228(%ebp)
    16b9:	53                   	push   %ebx
    16ba:	6a 00                	push   $0x0
    16bc:	6a 10                	push   $0x10
    16be:	ff b5 e0 fd ff ff    	pushl  -0x220(%ebp)
    16c4:	e8 a7 17 00 00       	call   2e70 <block_write_direct>
    16c9:	83 c4 20             	add    $0x20,%esp
    16cc:	89 c3                	mov    %eax,%ebx
    16ce:	85 c0                	test   %eax,%eax
    16d0:	75 25                	jne    16f7 <sysinst_copy_boot_blocks.constprop.1+0x287>
    16d2:	83 ec 0c             	sub    $0xc,%esp
    16d5:	68 98 67 00 00       	push   $0x6798
    16da:	e8 11 5b 00 00       	call   71f0 <printf@plt>
    16df:	83 c4 10             	add    $0x10,%esp
    16e2:	e9 34 fe ff ff       	jmp    151b <sysinst_copy_boot_blocks.constprop.1+0xab>
    16e7:	83 ec 0c             	sub    $0xc,%esp
    16ea:	68 42 6b 00 00       	push   $0x6b42
    16ef:	e8 fc 5a 00 00       	call   71f0 <printf@plt>
    16f4:	83 c4 10             	add    $0x10,%esp
    16f7:	bb f6 fe ff ff       	mov    $0xfffffef6,%ebx
    16fc:	e9 1a fe ff ff       	jmp    151b <sysinst_copy_boot_blocks.constprop.1+0xab>
    1701:	83 ec 0c             	sub    $0xc,%esp
    1704:	bb f6 fe ff ff       	mov    $0xfffffef6,%ebx
    1709:	68 48 67 00 00       	push   $0x6748
    170e:	e8 dd 5a 00 00       	call   71f0 <printf@plt>
    1713:	83 c4 10             	add    $0x10,%esp
    1716:	e9 00 fe ff ff       	jmp    151b <sysinst_copy_boot_blocks.constprop.1+0xab>
    171b:	66 90                	xchg   %ax,%ax
    171d:	66 90                	xchg   %ax,%ax
    171f:	90                   	nop

00001720 <main>:
    1720:	8d 4c 24 04          	lea    0x4(%esp),%ecx
    1724:	83 e4 f0             	and    $0xfffffff0,%esp
    1727:	ff 71 fc             	pushl  -0x4(%ecx)
    172a:	55                   	push   %ebp
    172b:	89 e5                	mov    %esp,%ebp
    172d:	57                   	push   %edi
    172e:	56                   	push   %esi
    172f:	53                   	push   %ebx
    1730:	51                   	push   %ecx
    1731:	8d 5d ac             	lea    -0x54(%ebp),%ebx
    1734:	83 ec 60             	sub    $0x60,%esp
    1737:	68 a4 66 00 00       	push   $0x66a4
    173c:	68 b8 67 00 00       	push   $0x67b8
    1741:	e8 aa 5a 00 00       	call   71f0 <printf@plt>
    1746:	83 c4 0c             	add    $0xc,%esp
    1749:	6a 00                	push   $0x0
    174b:	53                   	push   %ebx
    174c:	68 a4 66 00 00       	push   $0x66a4
    1751:	e8 9a 5b 00 00       	call   72f0 <loc_service_get_id@plt>
    1756:	83 c4 10             	add    $0x10,%esp
    1759:	89 c6                	mov    %eax,%esi
    175b:	85 c0                	test   %eax,%eax
    175d:	74 0e                	je     176d <main+0x4d>
    175f:	8d 65 f0             	lea    -0x10(%ebp),%esp
    1762:	89 f0                	mov    %esi,%eax
    1764:	59                   	pop    %ecx
    1765:	5b                   	pop    %ebx
    1766:	5e                   	pop    %esi
    1767:	5f                   	pop    %edi
    1768:	5d                   	pop    %ebp
    1769:	8d 61 fc             	lea    -0x4(%ecx),%esp
    176c:	c3                   	ret    
    176d:	83 ec 0c             	sub    $0xc,%esp
    1770:	68 e4 67 00 00       	push   $0x67e4
    1775:	e8 76 5a 00 00       	call   71f0 <printf@plt>
    177a:	8d 45 a0             	lea    -0x60(%ebp),%eax
    177d:	89 04 24             	mov    %eax,(%esp)
    1780:	e8 9b 25 00 00       	call   3d20 <fdisk_create>
    1785:	83 c4 10             	add    $0x10,%esp
    1788:	89 c6                	mov    %eax,%esi
    178a:	85 c0                	test   %eax,%eax
    178c:	0f 85 60 03 00 00    	jne    1af2 <main+0x3d2>
    1792:	8d 45 a4             	lea    -0x5c(%ebp),%eax
    1795:	51                   	push   %ecx
    1796:	50                   	push   %eax
    1797:	ff 75 ac             	pushl  -0x54(%ebp)
    179a:	ff 75 a0             	pushl  -0x60(%ebp)
    179d:	e8 2e 29 00 00       	call   40d0 <fdisk_dev_open>
    17a2:	83 c4 10             	add    $0x10,%esp
    17a5:	89 c6                	mov    %eax,%esi
    17a7:	85 c0                	test   %eax,%eax
    17a9:	0f 85 2e 03 00 00    	jne    1add <main+0x3bd>
    17af:	83 ec 0c             	sub    $0xc,%esp
    17b2:	68 08 68 00 00       	push   $0x6808
    17b7:	e8 34 5a 00 00       	call   71f0 <printf@plt>
    17bc:	58                   	pop    %eax
    17bd:	5a                   	pop    %edx
    17be:	6a 01                	push   $0x1
    17c0:	ff 75 a4             	pushl  -0x5c(%ebp)
    17c3:	e8 a8 2f 00 00       	call   4770 <fdisk_label_create>
    17c8:	83 c4 10             	add    $0x10,%esp
    17cb:	89 c6                	mov    %eax,%esi
    17cd:	85 c0                	test   %eax,%eax
    17cf:	0f 85 32 03 00 00    	jne    1b07 <main+0x3e7>
    17d5:	83 ec 0c             	sub    $0xc,%esp
    17d8:	68 2c 68 00 00       	push   $0x682c
    17dd:	e8 0e 5a 00 00       	call   71f0 <printf@plt>
    17e2:	83 c4 0c             	add    $0xc,%esp
    17e5:	8d 45 b0             	lea    -0x50(%ebp),%eax
    17e8:	50                   	push   %eax
    17e9:	6a 00                	push   $0x0
    17eb:	ff 75 a4             	pushl  -0x5c(%ebp)
    17ee:	e8 bd 34 00 00       	call   4cb0 <fdisk_part_get_max_avail>
    17f3:	83 c4 10             	add    $0x10,%esp
    17f6:	89 c6                	mov    %eax,%esi
    17f8:	85 c0                	test   %eax,%eax
    17fa:	0f 85 31 03 00 00    	jne    1b31 <main+0x411>
    1800:	83 ec 0c             	sub    $0xc,%esp
    1803:	8d 45 c0             	lea    -0x40(%ebp),%eax
    1806:	8d 7d c0             	lea    -0x40(%ebp),%edi
    1809:	8d 75 b0             	lea    -0x50(%ebp),%esi
    180c:	50                   	push   %eax
    180d:	e8 8e 45 00 00       	call   5da0 <fdisk_pspec_init>
    1812:	83 c4 0c             	add    $0xc,%esp
    1815:	8d 45 a8             	lea    -0x58(%ebp),%eax
    1818:	b9 04 00 00 00       	mov    $0x4,%ecx
    181d:	c7 45 d0 00 00 00 00 	movl   $0x0,-0x30(%ebp)
    1824:	f3 a5                	rep movsl %ds:(%esi),%es:(%edi)
    1826:	50                   	push   %eax
    1827:	8d 45 c0             	lea    -0x40(%ebp),%eax
    182a:	50                   	push   %eax
    182b:	c7 45 d4 02 00 00 00 	movl   $0x2,-0x2c(%ebp)
    1832:	ff 75 a4             	pushl  -0x5c(%ebp)
    1835:	e8 b6 38 00 00       	call   50f0 <fdisk_part_create>
    183a:	83 c4 10             	add    $0x10,%esp
    183d:	89 c6                	mov    %eax,%esi
    183f:	85 c0                	test   %eax,%eax
    1841:	0f 85 d5 02 00 00    	jne    1b1c <main+0x3fc>
    1847:	50                   	push   %eax
    1848:	8d 45 9c             	lea    -0x64(%ebp),%eax
    184b:	68 a4 66 00 00       	push   $0x66a4
    1850:	68 c6 6b 00 00       	push   $0x6bc6
    1855:	50                   	push   %eax
    1856:	e8 65 5c 00 00       	call   74c0 <asprintf@plt>
    185b:	83 c4 10             	add    $0x10,%esp
    185e:	85 c0                	test   %eax,%eax
    1860:	0f 88 ea 02 00 00    	js     1b50 <main+0x430>
    1866:	83 ec 0c             	sub    $0xc,%esp
    1869:	68 cb 6b 00 00       	push   $0x6bcb
    186e:	e8 7d 59 00 00       	call   71f0 <printf@plt>
    1873:	5e                   	pop    %esi
    1874:	5f                   	pop    %edi
    1875:	ff 75 9c             	pushl  -0x64(%ebp)
    1878:	68 e4 6b 00 00       	push   $0x6be4
    187d:	e8 6e 59 00 00       	call   71f0 <printf@plt>
    1882:	c7 04 24 7c 68 00 00 	movl   $0x687c,(%esp)
    1889:	8b 7d 9c             	mov    -0x64(%ebp),%edi
    188c:	e8 5f 59 00 00       	call   71f0 <printf@plt>
    1891:	8d 45 c0             	lea    -0x40(%ebp),%eax
    1894:	c7 04 24 00 00 00 00 	movl   $0x0,(%esp)
    189b:	68 ff 6b 00 00       	push   $0x6bff
    18a0:	68 ff 6b 00 00       	push   $0x6bff
    18a5:	50                   	push   %eax
    18a6:	6a 00                	push   $0x0
    18a8:	e8 03 5d 00 00       	call   75b0 <task_spawnl@plt>
    18ad:	83 c4 20             	add    $0x20,%esp
    18b0:	89 c6                	mov    %eax,%esi
    18b2:	85 c0                	test   %eax,%eax
    18b4:	0f 85 a5 fe ff ff    	jne    175f <main+0x3f>
    18ba:	83 ec 0c             	sub    $0xc,%esp
    18bd:	68 ac 68 00 00       	push   $0x68ac
    18c2:	e8 29 59 00 00       	call   71f0 <printf@plt>
    18c7:	83 c4 0c             	add    $0xc,%esp
    18ca:	8d 45 b0             	lea    -0x50(%ebp),%eax
    18cd:	50                   	push   %eax
    18ce:	8d 45 c0             	lea    -0x40(%ebp),%eax
    18d1:	53                   	push   %ebx
    18d2:	50                   	push   %eax
    18d3:	e8 78 59 00 00       	call   7250 <task_wait@plt>
    18d8:	83 c4 10             	add    $0x10,%esp
    18db:	89 c6                	mov    %eax,%esi
    18dd:	85 c0                	test   %eax,%eax
    18df:	0f 85 7a fe ff ff    	jne    175f <main+0x3f>
    18e5:	83 ec 0c             	sub    $0xc,%esp
    18e8:	68 dc 68 00 00       	push   $0x68dc
    18ed:	e8 fe 58 00 00       	call   71f0 <printf@plt>
    18f2:	83 c4 10             	add    $0x10,%esp
    18f5:	83 7d ac 00          	cmpl   $0x0,-0x54(%ebp)
    18f9:	0f 85 47 02 00 00    	jne    1b46 <main+0x426>
    18ff:	83 7d b0 00          	cmpl   $0x0,-0x50(%ebp)
    1903:	0f 85 3d 02 00 00    	jne    1b46 <main+0x426>
    1909:	51                   	push   %ecx
    190a:	51                   	push   %ecx
    190b:	6a 00                	push   $0x0
    190d:	68 08 6c 00 00       	push   $0x6c08
    1912:	e8 b9 5c 00 00       	call   75d0 <mkdir@plt>
    1917:	83 c4 10             	add    $0x10,%esp
    191a:	89 c6                	mov    %eax,%esi
    191c:	85 c0                	test   %eax,%eax
    191e:	0f 85 3b fe ff ff    	jne    175f <main+0x3f>
    1924:	83 ec 0c             	sub    $0xc,%esp
    1927:	68 14 69 00 00       	push   $0x6914
    192c:	e8 bf 58 00 00       	call   71f0 <printf@plt>
    1931:	58                   	pop    %eax
    1932:	5a                   	pop    %edx
    1933:	6a 00                	push   $0x0
    1935:	6a 00                	push   $0x0
    1937:	68 c7 65 00 00       	push   $0x65c7
    193c:	57                   	push   %edi
    193d:	68 08 6c 00 00       	push   $0x6c08
    1942:	68 04 6c 00 00       	push   $0x6c04
    1947:	e8 14 5b 00 00       	call   7460 <vfs_mount@plt>
    194c:	83 c4 20             	add    $0x20,%esp
    194f:	89 c6                	mov    %eax,%esi
    1951:	85 c0                	test   %eax,%eax
    1953:	0f 85 06 fe ff ff    	jne    175f <main+0x3f>
    1959:	83 ec 0c             	sub    $0xc,%esp
    195c:	68 0e 6c 00 00       	push   $0x6c0e
    1961:	e8 8a 58 00 00       	call   71f0 <printf@plt>
    1966:	58                   	pop    %eax
    1967:	ff 75 9c             	pushl  -0x64(%ebp)
    196a:	e8 81 5c 00 00       	call   75f0 <free@plt>
    196f:	c7 04 24 3c 69 00 00 	movl   $0x693c,(%esp)
    1976:	e8 75 58 00 00       	call   71f0 <printf@plt>
    197b:	c7 04 24 6c 69 00 00 	movl   $0x696c,(%esp)
    1982:	e8 69 58 00 00       	call   71f0 <printf@plt>
    1987:	8d 45 c0             	lea    -0x40(%ebp),%eax
    198a:	c7 04 24 00 00 00 00 	movl   $0x0,(%esp)
    1991:	68 26 6c 00 00       	push   $0x6c26
    1996:	68 26 6c 00 00       	push   $0x6c26
    199b:	50                   	push   %eax
    199c:	6a 00                	push   $0x0
    199e:	e8 0d 5c 00 00       	call   75b0 <task_spawnl@plt>
    19a3:	83 c4 20             	add    $0x20,%esp
    19a6:	89 c6                	mov    %eax,%esi
    19a8:	85 c0                	test   %eax,%eax
    19aa:	0f 85 af fd ff ff    	jne    175f <main+0x3f>
    19b0:	83 ec 0c             	sub    $0xc,%esp
    19b3:	68 a0 69 00 00       	push   $0x69a0
    19b8:	e8 33 58 00 00       	call   71f0 <printf@plt>
    19bd:	83 c4 0c             	add    $0xc,%esp
    19c0:	8d 45 b0             	lea    -0x50(%ebp),%eax
    19c3:	50                   	push   %eax
    19c4:	8d 45 c0             	lea    -0x40(%ebp),%eax
    19c7:	53                   	push   %ebx
    19c8:	50                   	push   %eax
    19c9:	e8 82 58 00 00       	call   7250 <task_wait@plt>
    19ce:	83 c4 10             	add    $0x10,%esp
    19d1:	89 c6                	mov    %eax,%esi
    19d3:	85 c0                	test   %eax,%eax
    19d5:	0f 85 84 fd ff ff    	jne    175f <main+0x3f>
    19db:	83 ec 0c             	sub    $0xc,%esp
    19de:	68 d8 69 00 00       	push   $0x69d8
    19e3:	e8 08 58 00 00       	call   71f0 <printf@plt>
    19e8:	83 c4 10             	add    $0x10,%esp
    19eb:	83 7d ac 00          	cmpl   $0x0,-0x54(%ebp)
    19ef:	0f 85 51 01 00 00    	jne    1b46 <main+0x426>
    19f5:	83 7d b0 00          	cmpl   $0x0,-0x50(%ebp)
    19f9:	0f 85 47 01 00 00    	jne    1b46 <main+0x426>
    19ff:	83 ec 0c             	sub    $0xc,%esp
    1a02:	68 14 6a 00 00       	push   $0x6a14
    1a07:	e8 e4 57 00 00       	call   71f0 <printf@plt>
    1a0c:	5f                   	pop    %edi
    1a0d:	58                   	pop    %eax
    1a0e:	6a 00                	push   $0x0
    1a10:	68 30 6c 00 00       	push   $0x6c30
    1a15:	e8 b6 5b 00 00       	call   75d0 <mkdir@plt>
    1a1a:	83 c4 10             	add    $0x10,%esp
    1a1d:	89 c6                	mov    %eax,%esi
    1a1f:	85 c0                	test   %eax,%eax
    1a21:	0f 85 38 fd ff ff    	jne    175f <main+0x3f>
    1a27:	83 ec 0c             	sub    $0xc,%esp
    1a2a:	68 48 6a 00 00       	push   $0x6a48
    1a2f:	e8 bc 57 00 00       	call   71f0 <printf@plt>
    1a34:	5b                   	pop    %ebx
    1a35:	5e                   	pop    %esi
    1a36:	6a 00                	push   $0x0
    1a38:	6a 00                	push   $0x0
    1a3a:	68 c7 65 00 00       	push   $0x65c7
    1a3f:	68 78 6a 00 00       	push   $0x6a78
    1a44:	68 30 6c 00 00       	push   $0x6c30
    1a49:	68 2b 6c 00 00       	push   $0x6c2b
    1a4e:	e8 0d 5a 00 00       	call   7460 <vfs_mount@plt>
    1a53:	83 c4 20             	add    $0x20,%esp
    1a56:	89 c6                	mov    %eax,%esi
    1a58:	85 c0                	test   %eax,%eax
    1a5a:	0f 85 ff fc ff ff    	jne    175f <main+0x3f>
    1a60:	83 ec 0c             	sub    $0xc,%esp
    1a63:	68 9c 6a 00 00       	push   $0x6a9c
    1a68:	e8 83 57 00 00       	call   71f0 <printf@plt>
    1a6d:	5a                   	pop    %edx
    1a6e:	59                   	pop    %ecx
    1a6f:	68 08 6c 00 00       	push   $0x6c08
    1a74:	68 30 6c 00 00       	push   $0x6c30
    1a79:	e8 72 f7 ff ff       	call   11f0 <futil_rcopy_contents>
    1a7e:	83 c4 10             	add    $0x10,%esp
    1a81:	89 c6                	mov    %eax,%esi
    1a83:	85 c0                	test   %eax,%eax
    1a85:	0f 85 d4 fc ff ff    	jne    175f <main+0x3f>
    1a8b:	50                   	push   %eax
    1a8c:	50                   	push   %eax
    1a8d:	68 08 6c 00 00       	push   $0x6c08
    1a92:	68 d0 6a 00 00       	push   $0x6ad0
    1a97:	e8 54 57 00 00       	call   71f0 <printf@plt>
    1a9c:	c7 04 24 08 6c 00 00 	movl   $0x6c08,(%esp)
    1aa3:	e8 c8 5a 00 00       	call   7570 <vfs_unmount@plt>
    1aa8:	83 c4 10             	add    $0x10,%esp
    1aab:	89 c6                	mov    %eax,%esi
    1aad:	85 c0                	test   %eax,%eax
    1aaf:	0f 85 aa fc ff ff    	jne    175f <main+0x3f>
    1ab5:	83 ec 0c             	sub    $0xc,%esp
    1ab8:	68 f8 6a 00 00       	push   $0x6af8
    1abd:	e8 2e 57 00 00       	call   71f0 <printf@plt>
    1ac2:	c7 04 24 18 6b 00 00 	movl   $0x6b18,(%esp)
    1ac9:	e8 22 57 00 00       	call   71f0 <printf@plt>
    1ace:	e8 9d f9 ff ff       	call   1470 <sysinst_copy_boot_blocks.constprop.1>
    1ad3:	83 c4 10             	add    $0x10,%esp
    1ad6:	89 c6                	mov    %eax,%esi
    1ad8:	e9 82 fc ff ff       	jmp    175f <main+0x3f>
    1add:	83 ec 0c             	sub    $0xc,%esp
    1ae0:	68 78 6b 00 00       	push   $0x6b78
    1ae5:	e8 06 57 00 00       	call   71f0 <printf@plt>
    1aea:	83 c4 10             	add    $0x10,%esp
    1aed:	e9 6d fc ff ff       	jmp    175f <main+0x3f>
    1af2:	83 ec 0c             	sub    $0xc,%esp
    1af5:	68 5d 6b 00 00       	push   $0x6b5d
    1afa:	e8 f1 56 00 00       	call   71f0 <printf@plt>
    1aff:	83 c4 10             	add    $0x10,%esp
    1b02:	e9 58 fc ff ff       	jmp    175f <main+0x3f>
    1b07:	50                   	push   %eax
    1b08:	50                   	push   %eax
    1b09:	56                   	push   %esi
    1b0a:	68 8f 6b 00 00       	push   $0x6b8f
    1b0f:	e8 dc 56 00 00       	call   71f0 <printf@plt>
    1b14:	83 c4 10             	add    $0x10,%esp
    1b17:	e9 43 fc ff ff       	jmp    175f <main+0x3f>
    1b1c:	83 ec 0c             	sub    $0xc,%esp
    1b1f:	68 ab 6b 00 00       	push   $0x6bab
    1b24:	e8 c7 56 00 00       	call   71f0 <printf@plt>
    1b29:	83 c4 10             	add    $0x10,%esp
    1b2c:	e9 2e fc ff ff       	jmp    175f <main+0x3f>
    1b31:	50                   	push   %eax
    1b32:	50                   	push   %eax
    1b33:	56                   	push   %esi
    1b34:	68 54 68 00 00       	push   $0x6854
    1b39:	e8 b2 56 00 00       	call   71f0 <printf@plt>
    1b3e:	83 c4 10             	add    $0x10,%esp
    1b41:	e9 19 fc ff ff       	jmp    175f <main+0x3f>
    1b46:	be f6 fe ff ff       	mov    $0xfffffef6,%esi
    1b4b:	e9 0f fc ff ff       	jmp    175f <main+0x3f>
    1b50:	be fe ff ff ff       	mov    $0xfffffffe,%esi
    1b55:	e9 05 fc ff ff       	jmp    175f <main+0x3f>
    1b5a:	66 90                	xchg   %ax,%ax
    1b5c:	66 90                	xchg   %ax,%ax
    1b5e:	66 90                	xchg   %ax,%ax

00001b60 <cache_key_hash>:
    1b60:	55                   	push   %ebp
    1b61:	89 e5                	mov    %esp,%ebp
    1b63:	8b 45 08             	mov    0x8(%ebp),%eax
    1b66:	5d                   	pop    %ebp
    1b67:	8b 00                	mov    (%eax),%eax
    1b69:	c3                   	ret    
    1b6a:	8d b6 00 00 00 00    	lea    0x0(%esi),%esi

00001b70 <cache_hash>:
    1b70:	55                   	push   %ebp
    1b71:	89 e5                	mov    %esp,%ebp
    1b73:	8b 45 08             	mov    0x8(%ebp),%eax
    1b76:	5d                   	pop    %ebp
    1b77:	8b 40 e0             	mov    -0x20(%eax),%eax
    1b7a:	c3                   	ret    
    1b7b:	90                   	nop
    1b7c:	8d 74 26 00          	lea    0x0(%esi,%eiz,1),%esi

00001b80 <cache_key_equal>:
    1b80:	55                   	push   %ebp
    1b81:	89 e5                	mov    %esp,%ebp
    1b83:	8b 45 0c             	mov    0xc(%ebp),%eax
    1b86:	8b 4d 08             	mov    0x8(%ebp),%ecx
    1b89:	5d                   	pop    %ebp
    1b8a:	8b 50 e0             	mov    -0x20(%eax),%edx
    1b8d:	8b 40 e4             	mov    -0x1c(%eax),%eax
    1b90:	33 41 04             	xor    0x4(%ecx),%eax
    1b93:	33 11                	xor    (%ecx),%edx
    1b95:	09 c2                	or     %eax,%edx
    1b97:	0f 94 c0             	sete   %al
    1b9a:	c3                   	ret    
    1b9b:	90                   	nop
    1b9c:	8d 74 26 00          	lea    0x0(%esi,%eiz,1),%esi

00001ba0 <block_init>:
    1ba0:	55                   	push   %ebp
    1ba1:	89 e5                	mov    %esp,%ebp
    1ba3:	57                   	push   %edi
    1ba4:	56                   	push   %esi
    1ba5:	53                   	push   %ebx
    1ba6:	83 ec 30             	sub    $0x30,%esp
    1ba9:	8b 5d 08             	mov    0x8(%ebp),%ebx
    1bac:	6a 01                	push   $0x1
    1bae:	68 21 66 93 ed       	push   $0xed936621
    1bb3:	53                   	push   %ebx
    1bb4:	e8 27 56 00 00       	call   71e0 <loc_service_connect@plt>
    1bb9:	83 c4 10             	add    $0x10,%esp
    1bbc:	85 c0                	test   %eax,%eax
    1bbe:	0f 84 95 01 00 00    	je     1d59 <block_init+0x1b9>
    1bc4:	89 c7                	mov    %eax,%edi
    1bc6:	50                   	push   %eax
    1bc7:	50                   	push   %eax
    1bc8:	8d 45 d8             	lea    -0x28(%ebp),%eax
    1bcb:	50                   	push   %eax
    1bcc:	57                   	push   %edi
    1bcd:	e8 0e 57 00 00       	call   72e0 <bd_open@plt>
    1bd2:	83 c4 10             	add    $0x10,%esp
    1bd5:	89 c6                	mov    %eax,%esi
    1bd7:	85 c0                	test   %eax,%eax
    1bd9:	0f 85 31 01 00 00    	jne    1d10 <block_init+0x170>
    1bdf:	8d 45 dc             	lea    -0x24(%ebp),%eax
    1be2:	56                   	push   %esi
    1be3:	56                   	push   %esi
    1be4:	50                   	push   %eax
    1be5:	8b 45 d8             	mov    -0x28(%ebp),%eax
    1be8:	50                   	push   %eax
    1be9:	e8 f2 58 00 00       	call   74e0 <bd_get_block_size@plt>
    1bee:	83 c4 10             	add    $0x10,%esp
    1bf1:	89 c6                	mov    %eax,%esi
    1bf3:	85 c0                	test   %eax,%eax
    1bf5:	0f 85 f0 00 00 00    	jne    1ceb <block_init+0x14b>
    1bfb:	8d 45 e0             	lea    -0x20(%ebp),%eax
    1bfe:	8b 4d d8             	mov    -0x28(%ebp),%ecx
    1c01:	52                   	push   %edx
    1c02:	52                   	push   %edx
    1c03:	50                   	push   %eax
    1c04:	51                   	push   %ecx
    1c05:	e8 76 56 00 00       	call   7280 <bd_get_num_blocks@plt>
    1c0a:	83 c4 10             	add    $0x10,%esp
    1c0d:	89 c6                	mov    %eax,%esi
    1c0f:	85 c0                	test   %eax,%eax
    1c11:	0f 85 d4 00 00 00    	jne    1ceb <block_init+0x14b>
    1c17:	83 ec 0c             	sub    $0xc,%esp
    1c1a:	8b 55 e4             	mov    -0x1c(%ebp),%edx
    1c1d:	8b 4d d8             	mov    -0x28(%ebp),%ecx
    1c20:	8b 45 e0             	mov    -0x20(%ebp),%eax
    1c23:	89 55 d4             	mov    %edx,-0x2c(%ebp)
    1c26:	8b 55 dc             	mov    -0x24(%ebp),%edx
    1c29:	6a 30                	push   $0x30
    1c2b:	89 4d c8             	mov    %ecx,-0x38(%ebp)
    1c2e:	89 45 d0             	mov    %eax,-0x30(%ebp)
    1c31:	89 55 cc             	mov    %edx,-0x34(%ebp)
    1c34:	e8 97 56 00 00       	call   72d0 <malloc@plt>
    1c39:	83 c4 10             	add    $0x10,%esp
    1c3c:	85 c0                	test   %eax,%eax
    1c3e:	0f 84 1a 01 00 00    	je     1d5e <block_init+0x1be>
    1c44:	8b 4d c8             	mov    -0x38(%ebp),%ecx
    1c47:	8b 55 cc             	mov    -0x34(%ebp),%edx
    1c4a:	89 48 10             	mov    %ecx,0x10(%eax)
    1c4d:	89 50 28             	mov    %edx,0x28(%eax)
    1c50:	83 ec 0c             	sub    $0xc,%esp
    1c53:	8b 55 d0             	mov    -0x30(%ebp),%edx
    1c56:	8b 4d d4             	mov    -0x2c(%ebp),%ecx
    1c59:	89 50 20             	mov    %edx,0x20(%eax)
    1c5c:	c7 00 00 00 00 00    	movl   $0x0,(%eax)
    1c62:	c7 40 04 00 00 00 00 	movl   $0x0,0x4(%eax)
    1c69:	89 58 08             	mov    %ebx,0x8(%eax)
    1c6c:	89 78 0c             	mov    %edi,0xc(%eax)
    1c6f:	c7 40 14 00 00 00 00 	movl   $0x0,0x14(%eax)
    1c76:	c7 40 18 00 00 00 00 	movl   $0x0,0x18(%eax)
    1c7d:	c7 40 1c 00 00 00 00 	movl   $0x0,0x1c(%eax)
    1c84:	89 48 24             	mov    %ecx,0x24(%eax)
    1c87:	c7 40 2c 00 00 00 00 	movl   $0x0,0x2c(%eax)
    1c8e:	89 45 d0             	mov    %eax,-0x30(%ebp)
    1c91:	68 98 91 00 00       	push   $0x9198
    1c96:	e8 65 59 00 00       	call   7600 <fibril_mutex_lock@plt>
    1c9b:	8b 15 94 91 00 00    	mov    0x9194,%edx
    1ca1:	83 c4 10             	add    $0x10,%esp
    1ca4:	8b 45 d0             	mov    -0x30(%ebp),%eax
    1ca7:	81 fa 90 91 00 00    	cmp    $0x9190,%edx
    1cad:	75 14                	jne    1cc3 <block_init+0x123>
    1caf:	eb 77                	jmp    1d28 <block_init+0x188>
    1cb1:	8d b4 26 00 00 00 00 	lea    0x0(%esi,%eiz,1),%esi
    1cb8:	8b 52 04             	mov    0x4(%edx),%edx
    1cbb:	81 fa 90 91 00 00    	cmp    $0x9190,%edx
    1cc1:	74 65                	je     1d28 <block_init+0x188>
    1cc3:	3b 5a 08             	cmp    0x8(%edx),%ebx
    1cc6:	75 f0                	jne    1cb8 <block_init+0x118>
    1cc8:	83 ec 0c             	sub    $0xc,%esp
    1ccb:	89 45 d0             	mov    %eax,-0x30(%ebp)
    1cce:	be f7 ff ff ff       	mov    $0xfffffff7,%esi
    1cd3:	68 98 91 00 00       	push   $0x9198
    1cd8:	e8 33 57 00 00       	call   7410 <fibril_mutex_unlock@plt>
    1cdd:	8b 45 d0             	mov    -0x30(%ebp),%eax
    1ce0:	89 04 24             	mov    %eax,(%esp)
    1ce3:	e8 08 59 00 00       	call   75f0 <free@plt>
    1ce8:	83 c4 10             	add    $0x10,%esp
    1ceb:	83 ec 0c             	sub    $0xc,%esp
    1cee:	8b 45 d8             	mov    -0x28(%ebp),%eax
    1cf1:	50                   	push   %eax
    1cf2:	e8 a9 55 00 00       	call   72a0 <bd_close@plt>
    1cf7:	89 3c 24             	mov    %edi,(%esp)
    1cfa:	e8 01 55 00 00       	call   7200 <async_hangup@plt>
    1cff:	83 c4 10             	add    $0x10,%esp
    1d02:	8d 65 f4             	lea    -0xc(%ebp),%esp
    1d05:	89 f0                	mov    %esi,%eax
    1d07:	5b                   	pop    %ebx
    1d08:	5e                   	pop    %esi
    1d09:	5f                   	pop    %edi
    1d0a:	5d                   	pop    %ebp
    1d0b:	c3                   	ret    
    1d0c:	8d 74 26 00          	lea    0x0(%esi,%eiz,1),%esi
    1d10:	83 ec 0c             	sub    $0xc,%esp
    1d13:	57                   	push   %edi
    1d14:	e8 e7 54 00 00       	call   7200 <async_hangup@plt>
    1d19:	83 c4 10             	add    $0x10,%esp
    1d1c:	8d 65 f4             	lea    -0xc(%ebp),%esp
    1d1f:	89 f0                	mov    %esi,%eax
    1d21:	5b                   	pop    %ebx
    1d22:	5e                   	pop    %esi
    1d23:	5f                   	pop    %edi
    1d24:	5d                   	pop    %ebp
    1d25:	c3                   	ret    
    1d26:	66 90                	xchg   %ax,%ax
    1d28:	8b 15 90 91 00 00    	mov    0x9190,%edx
    1d2e:	83 ec 0c             	sub    $0xc,%esp
    1d31:	c7 40 04 90 91 00 00 	movl   $0x9190,0x4(%eax)
    1d38:	89 10                	mov    %edx,(%eax)
    1d3a:	89 42 04             	mov    %eax,0x4(%edx)
    1d3d:	68 98 91 00 00       	push   $0x9198
    1d42:	a3 90 91 00 00       	mov    %eax,0x9190
    1d47:	e8 c4 56 00 00       	call   7410 <fibril_mutex_unlock@plt>
    1d4c:	83 c4 10             	add    $0x10,%esp
    1d4f:	8d 65 f4             	lea    -0xc(%ebp),%esp
    1d52:	89 f0                	mov    %esi,%eax
    1d54:	5b                   	pop    %ebx
    1d55:	5e                   	pop    %esi
    1d56:	5f                   	pop    %edi
    1d57:	5d                   	pop    %ebp
    1d58:	c3                   	ret    
    1d59:	83 ce ff             	or     $0xffffffff,%esi
    1d5c:	eb a4                	jmp    1d02 <block_init+0x162>
    1d5e:	be fe ff ff ff       	mov    $0xfffffffe,%esi
    1d63:	eb 86                	jmp    1ceb <block_init+0x14b>
    1d65:	8d 74 26 00          	lea    0x0(%esi,%eiz,1),%esi
    1d69:	8d bc 27 00 00 00 00 	lea    0x0(%edi,%eiz,1),%edi

00001d70 <block_bb_read>:
    1d70:	55                   	push   %ebp
    1d71:	89 e5                	mov    %esp,%ebp
    1d73:	57                   	push   %edi
    1d74:	56                   	push   %esi
    1d75:	53                   	push   %ebx
    1d76:	83 ec 28             	sub    $0x28,%esp
    1d79:	8b 45 08             	mov    0x8(%ebp),%eax
    1d7c:	8b 75 0c             	mov    0xc(%ebp),%esi
    1d7f:	68 98 91 00 00       	push   $0x9198
    1d84:	89 45 e4             	mov    %eax,-0x1c(%ebp)
    1d87:	8b 7d 10             	mov    0x10(%ebp),%edi
    1d8a:	e8 71 58 00 00       	call   7600 <fibril_mutex_lock@plt>
    1d8f:	8b 1d 94 91 00 00    	mov    0x9194,%ebx
    1d95:	83 c4 10             	add    $0x10,%esp
    1d98:	81 fb 90 91 00 00    	cmp    $0x9190,%ebx
    1d9e:	74 20                	je     1dc0 <block_bb_read+0x50>
    1da0:	8b 45 e4             	mov    -0x1c(%ebp),%eax
    1da3:	3b 43 08             	cmp    0x8(%ebx),%eax
    1da6:	75 0d                	jne    1db5 <block_bb_read+0x45>
    1da8:	eb 36                	jmp    1de0 <block_bb_read+0x70>
    1daa:	8d b6 00 00 00 00    	lea    0x0(%esi),%esi
    1db0:	3b 43 08             	cmp    0x8(%ebx),%eax
    1db3:	74 2b                	je     1de0 <block_bb_read+0x70>
    1db5:	8b 5b 04             	mov    0x4(%ebx),%ebx
    1db8:	81 fb 90 91 00 00    	cmp    $0x9190,%ebx
    1dbe:	75 f0                	jne    1db0 <block_bb_read+0x40>
    1dc0:	83 ec 0c             	sub    $0xc,%esp
    1dc3:	68 98 91 00 00       	push   $0x9198
    1dc8:	e8 43 56 00 00       	call   7410 <fibril_mutex_unlock@plt>
    1dcd:	83 c4 10             	add    $0x10,%esp
    1dd0:	83 ca ff             	or     $0xffffffff,%edx
    1dd3:	8d 65 f4             	lea    -0xc(%ebp),%esp
    1dd6:	89 d0                	mov    %edx,%eax
    1dd8:	5b                   	pop    %ebx
    1dd9:	5e                   	pop    %esi
    1dda:	5f                   	pop    %edi
    1ddb:	5d                   	pop    %ebp
    1ddc:	c3                   	ret    
    1ddd:	8d 76 00             	lea    0x0(%esi),%esi
    1de0:	83 ec 0c             	sub    $0xc,%esp
    1de3:	68 98 91 00 00       	push   $0x9198
    1de8:	e8 23 56 00 00       	call   7410 <fibril_mutex_unlock@plt>
    1ded:	8b 43 14             	mov    0x14(%ebx),%eax
    1df0:	83 c4 10             	add    $0x10,%esp
    1df3:	85 c0                	test   %eax,%eax
    1df5:	0f 85 9d 00 00 00    	jne    1e98 <block_bb_read+0x128>
    1dfb:	83 ec 0c             	sub    $0xc,%esp
    1dfe:	8b 43 28             	mov    0x28(%ebx),%eax
    1e01:	50                   	push   %eax
    1e02:	e8 c9 54 00 00       	call   72d0 <malloc@plt>
    1e07:	83 c4 10             	add    $0x10,%esp
    1e0a:	89 c1                	mov    %eax,%ecx
    1e0c:	85 c0                	test   %eax,%eax
    1e0e:	0f 84 93 00 00 00    	je     1ea7 <block_bb_read+0x137>
    1e14:	50                   	push   %eax
    1e15:	50                   	push   %eax
    1e16:	8b 43 28             	mov    0x28(%ebx),%eax
    1e19:	89 4d e4             	mov    %ecx,-0x1c(%ebp)
    1e1c:	50                   	push   %eax
    1e1d:	51                   	push   %ecx
    1e1e:	8b 43 10             	mov    0x10(%ebx),%eax
    1e21:	6a 01                	push   $0x1
    1e23:	6a 00                	push   $0x0
    1e25:	6a 00                	push   $0x0
    1e27:	50                   	push   %eax
    1e28:	e8 43 55 00 00       	call   7370 <bd_read_blocks@plt>
    1e2d:	83 c4 20             	add    $0x20,%esp
    1e30:	89 c2                	mov    %eax,%edx
    1e32:	85 c0                	test   %eax,%eax
    1e34:	8b 4d e4             	mov    -0x1c(%ebp),%ecx
    1e37:	75 17                	jne    1e50 <block_bb_read+0xe0>
    1e39:	89 4b 14             	mov    %ecx,0x14(%ebx)
    1e3c:	89 73 18             	mov    %esi,0x18(%ebx)
    1e3f:	89 7b 1c             	mov    %edi,0x1c(%ebx)
    1e42:	8d 65 f4             	lea    -0xc(%ebp),%esp
    1e45:	89 d0                	mov    %edx,%eax
    1e47:	5b                   	pop    %ebx
    1e48:	5e                   	pop    %esi
    1e49:	5f                   	pop    %edi
    1e4a:	5d                   	pop    %ebp
    1e4b:	c3                   	ret    
    1e4c:	8d 74 26 00          	lea    0x0(%esi,%eiz,1),%esi
    1e50:	50                   	push   %eax
    1e51:	50                   	push   %eax
    1e52:	89 4d e0             	mov    %ecx,-0x20(%ebp)
    1e55:	8b 4b 08             	mov    0x8(%ebx),%ecx
    1e58:	51                   	push   %ecx
    1e59:	6a 00                	push   $0x0
    1e5b:	6a 00                	push   $0x0
    1e5d:	6a 01                	push   $0x1
    1e5f:	52                   	push   %edx
    1e60:	68 88 6c 00 00       	push   $0x6c88
    1e65:	89 55 e4             	mov    %edx,-0x1c(%ebp)
    1e68:	e8 83 53 00 00       	call   71f0 <printf@plt>
    1e6d:	83 c4 20             	add    $0x20,%esp
    1e70:	e8 bb 54 00 00       	call   7330 <stacktrace_print@plt>
    1e75:	83 ec 0c             	sub    $0xc,%esp
    1e78:	8b 4d e0             	mov    -0x20(%ebp),%ecx
    1e7b:	51                   	push   %ecx
    1e7c:	e8 6f 57 00 00       	call   75f0 <free@plt>
    1e81:	8b 55 e4             	mov    -0x1c(%ebp),%edx
    1e84:	83 c4 10             	add    $0x10,%esp
    1e87:	8d 65 f4             	lea    -0xc(%ebp),%esp
    1e8a:	89 d0                	mov    %edx,%eax
    1e8c:	5b                   	pop    %ebx
    1e8d:	5e                   	pop    %esi
    1e8e:	5f                   	pop    %edi
    1e8f:	5d                   	pop    %ebp
    1e90:	c3                   	ret    
    1e91:	8d b4 26 00 00 00 00 	lea    0x0(%esi,%eiz,1),%esi
    1e98:	8d 65 f4             	lea    -0xc(%ebp),%esp
    1e9b:	ba f7 ff ff ff       	mov    $0xfffffff7,%edx
    1ea0:	89 d0                	mov    %edx,%eax
    1ea2:	5b                   	pop    %ebx
    1ea3:	5e                   	pop    %esi
    1ea4:	5f                   	pop    %edi
    1ea5:	5d                   	pop    %ebp
    1ea6:	c3                   	ret    
    1ea7:	ba fe ff ff ff       	mov    $0xfffffffe,%edx
    1eac:	e9 22 ff ff ff       	jmp    1dd3 <block_bb_read+0x63>
    1eb1:	eb 0d                	jmp    1ec0 <block_bb_get>
    1eb3:	90                   	nop
    1eb4:	90                   	nop
    1eb5:	90                   	nop
    1eb6:	90                   	nop
    1eb7:	90                   	nop
    1eb8:	90                   	nop
    1eb9:	90                   	nop
    1eba:	90                   	nop
    1ebb:	90                   	nop
    1ebc:	90                   	nop
    1ebd:	90                   	nop
    1ebe:	90                   	nop
    1ebf:	90                   	nop

00001ec0 <block_bb_get>:
    1ec0:	55                   	push   %ebp
    1ec1:	89 e5                	mov    %esp,%ebp
    1ec3:	56                   	push   %esi
    1ec4:	53                   	push   %ebx
    1ec5:	83 ec 0c             	sub    $0xc,%esp
    1ec8:	8b 75 08             	mov    0x8(%ebp),%esi
    1ecb:	68 98 91 00 00       	push   $0x9198
    1ed0:	e8 2b 57 00 00       	call   7600 <fibril_mutex_lock@plt>
    1ed5:	8b 1d 94 91 00 00    	mov    0x9194,%ebx
    1edb:	83 c4 10             	add    $0x10,%esp
    1ede:	81 fb 90 91 00 00    	cmp    $0x9190,%ebx
    1ee4:	75 0d                	jne    1ef3 <block_bb_get+0x33>
    1ee6:	eb 28                	jmp    1f10 <block_bb_get+0x50>
    1ee8:	8b 5b 04             	mov    0x4(%ebx),%ebx
    1eeb:	81 fb 90 91 00 00    	cmp    $0x9190,%ebx
    1ef1:	74 1d                	je     1f10 <block_bb_get+0x50>
    1ef3:	3b 73 08             	cmp    0x8(%ebx),%esi
    1ef6:	75 f0                	jne    1ee8 <block_bb_get+0x28>
    1ef8:	83 ec 0c             	sub    $0xc,%esp
    1efb:	68 98 91 00 00       	push   $0x9198
    1f00:	e8 0b 55 00 00       	call   7410 <fibril_mutex_unlock@plt>
    1f05:	8b 43 14             	mov    0x14(%ebx),%eax
    1f08:	8d 65 f8             	lea    -0x8(%ebp),%esp
    1f0b:	5b                   	pop    %ebx
    1f0c:	5e                   	pop    %esi
    1f0d:	5d                   	pop    %ebp
    1f0e:	c3                   	ret    
    1f0f:	90                   	nop
    1f10:	83 ec 0c             	sub    $0xc,%esp
    1f13:	68 98 91 00 00       	push   $0x9198
    1f18:	e8 f3 54 00 00       	call   7410 <fibril_mutex_unlock@plt>
    1f1d:	83 c4 0c             	add    $0xc,%esp
    1f20:	68 ee 00 00 00       	push   $0xee
    1f25:	68 37 6c 00 00       	push   $0x6c37
    1f2a:	68 3f 6c 00 00       	push   $0x6c3f
    1f2f:	e8 6c 54 00 00       	call   73a0 <assert_abort@plt>
    1f34:	8d b6 00 00 00 00    	lea    0x0(%esi),%esi
    1f3a:	8d bf 00 00 00 00    	lea    0x0(%edi),%edi

00001f40 <block_cache_init>:
    1f40:	55                   	push   %ebp
    1f41:	89 e5                	mov    %esp,%ebp
    1f43:	56                   	push   %esi
    1f44:	53                   	push   %ebx
    1f45:	83 ec 0c             	sub    $0xc,%esp
    1f48:	8b 75 08             	mov    0x8(%ebp),%esi
    1f4b:	68 98 91 00 00       	push   $0x9198
    1f50:	e8 ab 56 00 00       	call   7600 <fibril_mutex_lock@plt>
    1f55:	8b 1d 94 91 00 00    	mov    0x9194,%ebx
    1f5b:	83 c4 10             	add    $0x10,%esp
    1f5e:	81 fb 90 91 00 00    	cmp    $0x9190,%ebx
    1f64:	75 19                	jne    1f7f <block_cache_init+0x3f>
    1f66:	e9 ad 00 00 00       	jmp    2018 <block_cache_init+0xd8>
    1f6b:	90                   	nop
    1f6c:	8d 74 26 00          	lea    0x0(%esi,%eiz,1),%esi
    1f70:	8b 5b 04             	mov    0x4(%ebx),%ebx
    1f73:	81 fb 90 91 00 00    	cmp    $0x9190,%ebx
    1f79:	0f 84 99 00 00 00    	je     2018 <block_cache_init+0xd8>
    1f7f:	3b 73 08             	cmp    0x8(%ebx),%esi
    1f82:	75 ec                	jne    1f70 <block_cache_init+0x30>
    1f84:	83 ec 0c             	sub    $0xc,%esp
    1f87:	68 98 91 00 00       	push   $0x9198
    1f8c:	e8 7f 54 00 00       	call   7410 <fibril_mutex_unlock@plt>
    1f91:	8b 43 2c             	mov    0x2c(%ebx),%eax
    1f94:	83 c4 10             	add    $0x10,%esp
    1f97:	85 c0                	test   %eax,%eax
    1f99:	0f 85 99 00 00 00    	jne    2038 <block_cache_init+0xf8>
    1f9f:	83 ec 0c             	sub    $0xc,%esp
    1fa2:	6a 48                	push   $0x48
    1fa4:	e8 27 53 00 00       	call   72d0 <malloc@plt>
    1fa9:	83 c4 10             	add    $0x10,%esp
    1fac:	89 c6                	mov    %eax,%esi
    1fae:	85 c0                	test   %eax,%eax
    1fb0:	0f 84 b4 00 00 00    	je     206a <block_cache_init+0x12a>
    1fb6:	83 ec 0c             	sub    $0xc,%esp
    1fb9:	50                   	push   %eax
    1fba:	e8 71 54 00 00       	call   7430 <fibril_mutex_initialize@plt>
    1fbf:	8d 46 3c             	lea    0x3c(%esi),%eax
    1fc2:	31 d2                	xor    %edx,%edx
    1fc4:	89 46 3c             	mov    %eax,0x3c(%esi)
    1fc7:	89 46 40             	mov    %eax,0x40(%esi)
    1fca:	8b 45 0c             	mov    0xc(%ebp),%eax
    1fcd:	83 c4 10             	add    $0x10,%esp
    1fd0:	89 46 10             	mov    %eax,0x10(%esi)
    1fd3:	8b 45 10             	mov    0x10(%ebp),%eax
    1fd6:	89 46 18             	mov    %eax,0x18(%esi)
    1fd9:	8b 45 14             	mov    0x14(%ebp),%eax
    1fdc:	89 46 44             	mov    %eax,0x44(%esi)
    1fdf:	8b 45 0c             	mov    0xc(%ebp),%eax
    1fe2:	f7 73 28             	divl   0x28(%ebx)
    1fe5:	c7 46 1c 00 00 00 00 	movl   $0x0,0x1c(%esi)
    1fec:	85 d2                	test   %edx,%edx
    1fee:	75 54                	jne    2044 <block_cache_init+0x104>
    1ff0:	89 46 14             	mov    %eax,0x14(%esi)
    1ff3:	8d 46 20             	lea    0x20(%esi),%eax
    1ff6:	68 7c 91 00 00       	push   $0x917c
    1ffb:	6a 00                	push   $0x0
    1ffd:	6a 00                	push   $0x0
    1fff:	50                   	push   %eax
    2000:	e8 1b 52 00 00       	call   7220 <hash_table_create@plt>
    2005:	83 c4 10             	add    $0x10,%esp
    2008:	84 c0                	test   %al,%al
    200a:	74 4b                	je     2057 <block_cache_init+0x117>
    200c:	89 73 2c             	mov    %esi,0x2c(%ebx)
    200f:	31 c0                	xor    %eax,%eax
    2011:	8d 65 f8             	lea    -0x8(%ebp),%esp
    2014:	5b                   	pop    %ebx
    2015:	5e                   	pop    %esi
    2016:	5d                   	pop    %ebp
    2017:	c3                   	ret    
    2018:	83 ec 0c             	sub    $0xc,%esp
    201b:	68 98 91 00 00       	push   $0x9198
    2020:	e8 eb 53 00 00       	call   7410 <fibril_mutex_unlock@plt>
    2025:	83 c4 10             	add    $0x10,%esp
    2028:	8d 65 f8             	lea    -0x8(%ebp),%esp
    202b:	83 c8 ff             	or     $0xffffffff,%eax
    202e:	5b                   	pop    %ebx
    202f:	5e                   	pop    %esi
    2030:	5d                   	pop    %ebp
    2031:	c3                   	ret    
    2032:	8d b6 00 00 00 00    	lea    0x0(%esi),%esi
    2038:	8d 65 f8             	lea    -0x8(%ebp),%esp
    203b:	b8 f7 ff ff ff       	mov    $0xfffffff7,%eax
    2040:	5b                   	pop    %ebx
    2041:	5e                   	pop    %esi
    2042:	5d                   	pop    %ebp
    2043:	c3                   	ret    
    2044:	83 ec 0c             	sub    $0xc,%esp
    2047:	56                   	push   %esi
    2048:	e8 a3 55 00 00       	call   75f0 <free@plt>
    204d:	83 c4 10             	add    $0x10,%esp
    2050:	b8 f5 ff ff ff       	mov    $0xfffffff5,%eax
    2055:	eb ba                	jmp    2011 <block_cache_init+0xd1>
    2057:	83 ec 0c             	sub    $0xc,%esp
    205a:	56                   	push   %esi
    205b:	e8 90 55 00 00       	call   75f0 <free@plt>
    2060:	83 c4 10             	add    $0x10,%esp
    2063:	b8 fe ff ff ff       	mov    $0xfffffffe,%eax
    2068:	eb a7                	jmp    2011 <block_cache_init+0xd1>
    206a:	b8 fe ff ff ff       	mov    $0xfffffffe,%eax
    206f:	eb a0                	jmp    2011 <block_cache_init+0xd1>
    2071:	eb 0d                	jmp    2080 <block_cache_fini>
    2073:	90                   	nop
    2074:	90                   	nop
    2075:	90                   	nop
    2076:	90                   	nop
    2077:	90                   	nop
    2078:	90                   	nop
    2079:	90                   	nop
    207a:	90                   	nop
    207b:	90                   	nop
    207c:	90                   	nop
    207d:	90                   	nop
    207e:	90                   	nop
    207f:	90                   	nop

00002080 <block_cache_fini>:
    2080:	55                   	push   %ebp
    2081:	89 e5                	mov    %esp,%ebp
    2083:	57                   	push   %edi
    2084:	56                   	push   %esi
    2085:	53                   	push   %ebx
    2086:	83 ec 38             	sub    $0x38,%esp
    2089:	8b 5d 08             	mov    0x8(%ebp),%ebx
    208c:	68 98 91 00 00       	push   $0x9198
    2091:	e8 6a 55 00 00       	call   7600 <fibril_mutex_lock@plt>
    2096:	8b 3d 94 91 00 00    	mov    0x9194,%edi
    209c:	83 c4 10             	add    $0x10,%esp
    209f:	81 ff 90 91 00 00    	cmp    $0x9190,%edi
    20a5:	75 18                	jne    20bf <block_cache_fini+0x3f>
    20a7:	e9 2c 01 00 00       	jmp    21d8 <block_cache_fini+0x158>
    20ac:	8d 74 26 00          	lea    0x0(%esi,%eiz,1),%esi
    20b0:	8b 7f 04             	mov    0x4(%edi),%edi
    20b3:	81 ff 90 91 00 00    	cmp    $0x9190,%edi
    20b9:	0f 84 19 01 00 00    	je     21d8 <block_cache_fini+0x158>
    20bf:	3b 5f 08             	cmp    0x8(%edi),%ebx
    20c2:	75 ec                	jne    20b0 <block_cache_fini+0x30>
    20c4:	83 ec 0c             	sub    $0xc,%esp
    20c7:	68 98 91 00 00       	push   $0x9198
    20cc:	e8 3f 53 00 00       	call   7410 <fibril_mutex_unlock@plt>
    20d1:	8b 47 2c             	mov    0x2c(%edi),%eax
    20d4:	83 c4 10             	add    $0x10,%esp
    20d7:	89 45 e0             	mov    %eax,-0x20(%ebp)
    20da:	85 c0                	test   %eax,%eax
    20dc:	0f 84 42 01 00 00    	je     2224 <block_cache_fini+0x1a4>
    20e2:	8b 58 40             	mov    0x40(%eax),%ebx
    20e5:	8d 70 3c             	lea    0x3c(%eax),%esi
    20e8:	83 c0 20             	add    $0x20,%eax
    20eb:	89 75 dc             	mov    %esi,-0x24(%ebp)
    20ee:	89 45 d8             	mov    %eax,-0x28(%ebp)
    20f1:	39 de                	cmp    %ebx,%esi
    20f3:	0f 84 2f 01 00 00    	je     2228 <block_cache_fini+0x1a8>
    20f9:	89 da                	mov    %ebx,%edx
    20fb:	89 7d d0             	mov    %edi,-0x30(%ebp)
    20fe:	eb 35                	jmp    2135 <block_cache_fini+0xb5>
    2100:	8b 55 d8             	mov    -0x28(%ebp),%edx
    2103:	8d 43 50             	lea    0x50(%ebx),%eax
    2106:	89 d6                	mov    %edx,%esi
    2108:	51                   	push   %ecx
    2109:	51                   	push   %ecx
    210a:	50                   	push   %eax
    210b:	52                   	push   %edx
    210c:	e8 6f 53 00 00       	call   7480 <hash_table_remove_item@plt>
    2111:	8b 43 58             	mov    0x58(%ebx),%eax
    2114:	5f                   	pop    %edi
    2115:	50                   	push   %eax
    2116:	e8 d5 54 00 00       	call   75f0 <free@plt>
    211b:	89 1c 24             	mov    %ebx,(%esp)
    211e:	e8 cd 54 00 00       	call   75f0 <free@plt>
    2123:	8b 45 e0             	mov    -0x20(%ebp),%eax
    2126:	83 c4 10             	add    $0x10,%esp
    2129:	8b 50 40             	mov    0x40(%eax),%edx
    212c:	3b 55 dc             	cmp    -0x24(%ebp),%edx
    212f:	0f 84 c3 00 00 00    	je     21f8 <block_cache_fini+0x178>
    2135:	8d 5a b8             	lea    -0x48(%edx),%ebx
    2138:	8b 4b 48             	mov    0x48(%ebx),%ecx
    213b:	85 c9                	test   %ecx,%ecx
    213d:	74 0f                	je     214e <block_cache_fini+0xce>
    213f:	8b 43 4c             	mov    0x4c(%ebx),%eax
    2142:	85 c0                	test   %eax,%eax
    2144:	74 08                	je     214e <block_cache_fini+0xce>
    2146:	89 08                	mov    %ecx,(%eax)
    2148:	8b 4b 48             	mov    0x48(%ebx),%ecx
    214b:	89 41 04             	mov    %eax,0x4(%ecx)
    214e:	c7 43 48 00 00 00 00 	movl   $0x0,0x48(%ebx)
    2155:	c7 43 4c 00 00 00 00 	movl   $0x0,0x4c(%ebx)
    215c:	80 7b 14 00          	cmpb   $0x0,0x14(%ebx)
    2160:	74 9e                	je     2100 <block_cache_fini+0x80>
    2162:	8b 45 e0             	mov    -0x20(%ebp),%eax
    2165:	8b 73 38             	mov    0x38(%ebx),%esi
    2168:	8b 7b 3c             	mov    0x3c(%ebx),%edi
    216b:	8b 48 14             	mov    0x14(%eax),%ecx
    216e:	50                   	push   %eax
    216f:	50                   	push   %eax
    2170:	89 4d d4             	mov    %ecx,-0x2c(%ebp)
    2173:	8b 53 40             	mov    0x40(%ebx),%edx
    2176:	8b 43 58             	mov    0x58(%ebx),%eax
    2179:	52                   	push   %edx
    217a:	50                   	push   %eax
    217b:	8b 45 d0             	mov    -0x30(%ebp),%eax
    217e:	51                   	push   %ecx
    217f:	57                   	push   %edi
    2180:	56                   	push   %esi
    2181:	8b 40 10             	mov    0x10(%eax),%eax
    2184:	50                   	push   %eax
    2185:	e8 e6 50 00 00       	call   7270 <bd_write_blocks@plt>
    218a:	83 c4 20             	add    $0x20,%esp
    218d:	8b 4d d4             	mov    -0x2c(%ebp),%ecx
    2190:	85 c0                	test   %eax,%eax
    2192:	0f 84 68 ff ff ff    	je     2100 <block_cache_fini+0x80>
    2198:	89 7d e4             	mov    %edi,-0x1c(%ebp)
    219b:	8b 7d d0             	mov    -0x30(%ebp),%edi
    219e:	89 75 e0             	mov    %esi,-0x20(%ebp)
    21a1:	89 ce                	mov    %ecx,%esi
    21a3:	89 c1                	mov    %eax,%ecx
    21a5:	50                   	push   %eax
    21a6:	50                   	push   %eax
    21a7:	8b 47 08             	mov    0x8(%edi),%eax
    21aa:	50                   	push   %eax
    21ab:	8b 45 e4             	mov    -0x1c(%ebp),%eax
    21ae:	50                   	push   %eax
    21af:	8b 45 e0             	mov    -0x20(%ebp),%eax
    21b2:	50                   	push   %eax
    21b3:	56                   	push   %esi
    21b4:	51                   	push   %ecx
    21b5:	68 d4 6c 00 00       	push   $0x6cd4
    21ba:	89 4d e0             	mov    %ecx,-0x20(%ebp)
    21bd:	e8 2e 50 00 00       	call   71f0 <printf@plt>
    21c2:	83 c4 20             	add    $0x20,%esp
    21c5:	e8 66 51 00 00       	call   7330 <stacktrace_print@plt>
    21ca:	8b 4d e0             	mov    -0x20(%ebp),%ecx
    21cd:	8d 65 f4             	lea    -0xc(%ebp),%esp
    21d0:	89 c8                	mov    %ecx,%eax
    21d2:	5b                   	pop    %ebx
    21d3:	5e                   	pop    %esi
    21d4:	5f                   	pop    %edi
    21d5:	5d                   	pop    %ebp
    21d6:	c3                   	ret    
    21d7:	90                   	nop
    21d8:	83 ec 0c             	sub    $0xc,%esp
    21db:	68 98 91 00 00       	push   $0x9198
    21e0:	e8 2b 52 00 00       	call   7410 <fibril_mutex_unlock@plt>
    21e5:	83 c4 10             	add    $0x10,%esp
    21e8:	8d 65 f4             	lea    -0xc(%ebp),%esp
    21eb:	83 c9 ff             	or     $0xffffffff,%ecx
    21ee:	5b                   	pop    %ebx
    21ef:	89 c8                	mov    %ecx,%eax
    21f1:	5e                   	pop    %esi
    21f2:	5f                   	pop    %edi
    21f3:	5d                   	pop    %ebp
    21f4:	c3                   	ret    
    21f5:	8d 76 00             	lea    0x0(%esi),%esi
    21f8:	8b 7d d0             	mov    -0x30(%ebp),%edi
    21fb:	83 ec 0c             	sub    $0xc,%esp
    21fe:	56                   	push   %esi
    21ff:	e8 bc 53 00 00       	call   75c0 <hash_table_destroy@plt>
    2204:	c7 47 2c 00 00 00 00 	movl   $0x0,0x2c(%edi)
    220b:	8b 55 e0             	mov    -0x20(%ebp),%edx
    220e:	58                   	pop    %eax
    220f:	52                   	push   %edx
    2210:	e8 db 53 00 00       	call   75f0 <free@plt>
    2215:	83 c4 10             	add    $0x10,%esp
    2218:	8d 65 f4             	lea    -0xc(%ebp),%esp
    221b:	31 c9                	xor    %ecx,%ecx
    221d:	89 c8                	mov    %ecx,%eax
    221f:	5b                   	pop    %ebx
    2220:	5e                   	pop    %esi
    2221:	5f                   	pop    %edi
    2222:	5d                   	pop    %ebp
    2223:	c3                   	ret    
    2224:	31 c9                	xor    %ecx,%ecx
    2226:	eb a5                	jmp    21cd <block_cache_fini+0x14d>
    2228:	8b 45 e0             	mov    -0x20(%ebp),%eax
    222b:	8d 70 20             	lea    0x20(%eax),%esi
    222e:	eb cb                	jmp    21fb <block_cache_fini+0x17b>

00002230 <block_fini>:
    2230:	55                   	push   %ebp
    2231:	89 e5                	mov    %esp,%ebp
    2233:	56                   	push   %esi
    2234:	53                   	push   %ebx
    2235:	83 ec 0c             	sub    $0xc,%esp
    2238:	8b 75 08             	mov    0x8(%ebp),%esi
    223b:	68 98 91 00 00       	push   $0x9198
    2240:	e8 bb 53 00 00       	call   7600 <fibril_mutex_lock@plt>
    2245:	8b 1d 94 91 00 00    	mov    0x9194,%ebx
    224b:	83 c4 10             	add    $0x10,%esp
    224e:	81 fb 90 91 00 00    	cmp    $0x9190,%ebx
    2254:	75 19                	jne    226f <block_fini+0x3f>
    2256:	e9 c5 00 00 00       	jmp    2320 <block_fini+0xf0>
    225b:	90                   	nop
    225c:	8d 74 26 00          	lea    0x0(%esi,%eiz,1),%esi
    2260:	8b 5b 04             	mov    0x4(%ebx),%ebx
    2263:	81 fb 90 91 00 00    	cmp    $0x9190,%ebx
    2269:	0f 84 b1 00 00 00    	je     2320 <block_fini+0xf0>
    226f:	3b 73 08             	cmp    0x8(%ebx),%esi
    2272:	75 ec                	jne    2260 <block_fini+0x30>
    2274:	83 ec 0c             	sub    $0xc,%esp
    2277:	68 98 91 00 00       	push   $0x9198
    227c:	e8 8f 51 00 00       	call   7410 <fibril_mutex_unlock@plt>
    2281:	8b 43 2c             	mov    0x2c(%ebx),%eax
    2284:	83 c4 10             	add    $0x10,%esp
    2287:	85 c0                	test   %eax,%eax
    2289:	74 0c                	je     2297 <block_fini+0x67>
    228b:	83 ec 0c             	sub    $0xc,%esp
    228e:	56                   	push   %esi
    228f:	e8 ec fd ff ff       	call   2080 <block_cache_fini>
    2294:	83 c4 10             	add    $0x10,%esp
    2297:	6a 00                	push   $0x0
    2299:	6a 00                	push   $0x0
    229b:	6a 00                	push   $0x0
    229d:	8b 73 10             	mov    0x10(%ebx),%esi
    22a0:	56                   	push   %esi
    22a1:	e8 6a 52 00 00       	call   7510 <bd_sync_cache@plt>
    22a6:	c7 04 24 98 91 00 00 	movl   $0x9198,(%esp)
    22ad:	e8 4e 53 00 00       	call   7600 <fibril_mutex_lock@plt>
    22b2:	8b 13                	mov    (%ebx),%edx
    22b4:	83 c4 10             	add    $0x10,%esp
    22b7:	85 d2                	test   %edx,%edx
    22b9:	74 0e                	je     22c9 <block_fini+0x99>
    22bb:	8b 43 04             	mov    0x4(%ebx),%eax
    22be:	85 c0                	test   %eax,%eax
    22c0:	74 07                	je     22c9 <block_fini+0x99>
    22c2:	89 10                	mov    %edx,(%eax)
    22c4:	8b 13                	mov    (%ebx),%edx
    22c6:	89 42 04             	mov    %eax,0x4(%edx)
    22c9:	83 ec 0c             	sub    $0xc,%esp
    22cc:	c7 03 00 00 00 00    	movl   $0x0,(%ebx)
    22d2:	c7 43 04 00 00 00 00 	movl   $0x0,0x4(%ebx)
    22d9:	68 98 91 00 00       	push   $0x9198
    22de:	e8 2d 51 00 00       	call   7410 <fibril_mutex_unlock@plt>
    22e3:	8b 43 14             	mov    0x14(%ebx),%eax
    22e6:	83 c4 10             	add    $0x10,%esp
    22e9:	85 c0                	test   %eax,%eax
    22eb:	74 0c                	je     22f9 <block_fini+0xc9>
    22ed:	83 ec 0c             	sub    $0xc,%esp
    22f0:	50                   	push   %eax
    22f1:	e8 fa 52 00 00       	call   75f0 <free@plt>
    22f6:	83 c4 10             	add    $0x10,%esp
    22f9:	83 ec 0c             	sub    $0xc,%esp
    22fc:	8b 43 10             	mov    0x10(%ebx),%eax
    22ff:	50                   	push   %eax
    2300:	e8 9b 4f 00 00       	call   72a0 <bd_close@plt>
    2305:	8b 4b 0c             	mov    0xc(%ebx),%ecx
    2308:	5a                   	pop    %edx
    2309:	51                   	push   %ecx
    230a:	e8 f1 4e 00 00       	call   7200 <async_hangup@plt>
    230f:	89 5d 08             	mov    %ebx,0x8(%ebp)
    2312:	83 c4 10             	add    $0x10,%esp
    2315:	8d 65 f8             	lea    -0x8(%ebp),%esp
    2318:	5b                   	pop    %ebx
    2319:	5e                   	pop    %esi
    231a:	5d                   	pop    %ebp
    231b:	e9 d0 52 00 00       	jmp    75f0 <free@plt>
    2320:	83 ec 0c             	sub    $0xc,%esp
    2323:	68 98 91 00 00       	push   $0x9198
    2328:	e8 e3 50 00 00       	call   7410 <fibril_mutex_unlock@plt>
    232d:	83 c4 0c             	add    $0xc,%esp
    2330:	68 bf 00 00 00       	push   $0xbf
    2335:	68 37 6c 00 00       	push   $0x6c37
    233a:	68 3f 6c 00 00       	push   $0x6c3f
    233f:	e8 5c 50 00 00       	call   73a0 <assert_abort@plt>
    2344:	8d b6 00 00 00 00    	lea    0x0(%esi),%esi
    234a:	8d bf 00 00 00 00    	lea    0x0(%edi),%edi

00002350 <block_put>:
    2350:	55                   	push   %ebp
    2351:	89 e5                	mov    %esp,%ebp
    2353:	57                   	push   %edi
    2354:	56                   	push   %esi
    2355:	53                   	push   %ebx
    2356:	83 ec 28             	sub    $0x28,%esp
    2359:	8b 7d 08             	mov    0x8(%ebp),%edi
    235c:	8b 5f 2c             	mov    0x2c(%edi),%ebx
    235f:	68 98 91 00 00       	push   $0x9198
    2364:	e8 97 52 00 00       	call   7600 <fibril_mutex_lock@plt>
    2369:	8b 35 94 91 00 00    	mov    0x9194,%esi
    236f:	83 c4 10             	add    $0x10,%esp
    2372:	81 fe 90 91 00 00    	cmp    $0x9190,%esi
    2378:	75 15                	jne    238f <block_put+0x3f>
    237a:	e9 c1 01 00 00       	jmp    2540 <block_put+0x1f0>
    237f:	90                   	nop
    2380:	8b 76 04             	mov    0x4(%esi),%esi
    2383:	81 fe 90 91 00 00    	cmp    $0x9190,%esi
    2389:	0f 84 b1 01 00 00    	je     2540 <block_put+0x1f0>
    238f:	3b 5e 08             	cmp    0x8(%esi),%ebx
    2392:	75 ec                	jne    2380 <block_put+0x30>
    2394:	83 ec 0c             	sub    $0xc,%esp
    2397:	68 98 91 00 00       	push   $0x9198
    239c:	e8 6f 50 00 00       	call   7410 <fibril_mutex_unlock@plt>
    23a1:	8b 5e 2c             	mov    0x2c(%esi),%ebx
    23a4:	83 c4 10             	add    $0x10,%esp
    23a7:	85 db                	test   %ebx,%ebx
    23a9:	0f 84 6b 02 00 00    	je     261a <block_put+0x2ca>
    23af:	8b 47 10             	mov    0x10(%edi),%eax
    23b2:	85 c0                	test   %eax,%eax
    23b4:	0f 84 75 02 00 00    	je     262f <block_put+0x2df>
    23ba:	c7 45 e4 00 00 00 00 	movl   $0x0,-0x1c(%ebp)
    23c1:	89 75 e0             	mov    %esi,-0x20(%ebp)
    23c4:	8d 74 26 00          	lea    0x0(%esi,%eiz,1),%esi
    23c8:	83 ec 0c             	sub    $0xc,%esp
    23cb:	53                   	push   %ebx
    23cc:	e8 2f 52 00 00       	call   7600 <fibril_mutex_lock@plt>
    23d1:	8b 43 44             	mov    0x44(%ebx),%eax
    23d4:	8b 73 1c             	mov    0x1c(%ebx),%esi
    23d7:	89 45 d8             	mov    %eax,-0x28(%ebp)
    23da:	89 1c 24             	mov    %ebx,(%esp)
    23dd:	e8 2e 50 00 00       	call   7410 <fibril_mutex_unlock@plt>
    23e2:	89 3c 24             	mov    %edi,(%esp)
    23e5:	e8 16 52 00 00       	call   7600 <fibril_mutex_lock@plt>
    23ea:	83 c4 10             	add    $0x10,%esp
    23ed:	80 7f 15 00          	cmpb   $0x0,0x15(%edi)
    23f1:	0f 85 39 01 00 00    	jne    2530 <block_put+0x1e0>
    23f7:	80 7f 14 00          	cmpb   $0x0,0x14(%edi)
    23fb:	74 0a                	je     2407 <block_put+0xb7>
    23fd:	83 7f 10 01          	cmpl   $0x1,0x10(%edi)
    2401:	0f 84 b9 00 00 00    	je     24c0 <block_put+0x170>
    2407:	83 ec 0c             	sub    $0xc,%esp
    240a:	57                   	push   %edi
    240b:	e8 00 50 00 00       	call   7410 <fibril_mutex_unlock@plt>
    2410:	89 1c 24             	mov    %ebx,(%esp)
    2413:	e8 e8 51 00 00       	call   7600 <fibril_mutex_lock@plt>
    2418:	89 3c 24             	mov    %edi,(%esp)
    241b:	e8 e0 51 00 00       	call   7600 <fibril_mutex_lock@plt>
    2420:	8b 47 10             	mov    0x10(%edi),%eax
    2423:	83 c4 10             	add    $0x10,%esp
    2426:	48                   	dec    %eax
    2427:	89 47 10             	mov    %eax,0x10(%edi)
    242a:	85 c0                	test   %eax,%eax
    242c:	0f 85 51 01 00 00    	jne    2583 <block_put+0x233>
    2432:	83 7b 1c 14          	cmpl   $0x14,0x1c(%ebx)
    2436:	77 48                	ja     2480 <block_put+0x130>
    2438:	8b 45 e4             	mov    -0x1c(%ebp),%eax
    243b:	85 c0                	test   %eax,%eax
    243d:	75 41                	jne    2480 <block_put+0x130>
    243f:	83 7b 44 01          	cmpl   $0x1,0x44(%ebx)
    2443:	0f 84 1b 01 00 00    	je     2564 <block_put+0x214>
    2449:	80 7f 14 00          	cmpb   $0x0,0x14(%edi)
    244d:	0f 84 11 01 00 00    	je     2564 <block_put+0x214>
    2453:	83 ec 0c             	sub    $0xc,%esp
    2456:	c7 47 10 01 00 00 00 	movl   $0x1,0x10(%edi)
    245d:	57                   	push   %edi
    245e:	e8 ad 4f 00 00       	call   7410 <fibril_mutex_unlock@plt>
    2463:	89 1c 24             	mov    %ebx,(%esp)
    2466:	e8 a5 4f 00 00       	call   7410 <fibril_mutex_unlock@plt>
    246b:	83 c4 10             	add    $0x10,%esp
    246e:	c7 45 e4 00 00 00 00 	movl   $0x0,-0x1c(%ebp)
    2475:	e9 4e ff ff ff       	jmp    23c8 <block_put+0x78>
    247a:	8d b6 00 00 00 00    	lea    0x0(%esi),%esi
    2480:	80 7f 14 00          	cmpb   $0x0,0x14(%edi)
    2484:	0f 84 4a 01 00 00    	je     25d4 <block_put+0x284>
    248a:	8b 47 44             	mov    0x44(%edi),%eax
    248d:	c7 47 10 01 00 00 00 	movl   $0x1,0x10(%edi)
    2494:	83 f8 09             	cmp    $0x9,%eax
    2497:	0f 8f 1b 01 00 00    	jg     25b8 <block_put+0x268>
    249d:	83 ec 0c             	sub    $0xc,%esp
    24a0:	40                   	inc    %eax
    24a1:	89 47 44             	mov    %eax,0x44(%edi)
    24a4:	57                   	push   %edi
    24a5:	e8 66 4f 00 00       	call   7410 <fibril_mutex_unlock@plt>
    24aa:	89 1c 24             	mov    %ebx,(%esp)
    24ad:	e8 5e 4f 00 00       	call   7410 <fibril_mutex_unlock@plt>
    24b2:	83 c4 10             	add    $0x10,%esp
    24b5:	e9 0e ff ff ff       	jmp    23c8 <block_put+0x78>
    24ba:	8d b6 00 00 00 00    	lea    0x0(%esi),%esi
    24c0:	83 fe 14             	cmp    $0x14,%esi
    24c3:	77 0a                	ja     24cf <block_put+0x17f>
    24c5:	83 7d d8 01          	cmpl   $0x1,-0x28(%ebp)
    24c9:	0f 84 38 ff ff ff    	je     2407 <block_put+0xb7>
    24cf:	8b 47 38             	mov    0x38(%edi),%eax
    24d2:	8b 57 3c             	mov    0x3c(%edi),%edx
    24d5:	8b 73 14             	mov    0x14(%ebx),%esi
    24d8:	51                   	push   %ecx
    24d9:	51                   	push   %ecx
    24da:	89 45 d8             	mov    %eax,-0x28(%ebp)
    24dd:	8b 4f 40             	mov    0x40(%edi),%ecx
    24e0:	89 55 dc             	mov    %edx,-0x24(%ebp)
    24e3:	51                   	push   %ecx
    24e4:	8b 4f 58             	mov    0x58(%edi),%ecx
    24e7:	51                   	push   %ecx
    24e8:	56                   	push   %esi
    24e9:	52                   	push   %edx
    24ea:	50                   	push   %eax
    24eb:	8b 45 e0             	mov    -0x20(%ebp),%eax
    24ee:	8b 40 10             	mov    0x10(%eax),%eax
    24f1:	50                   	push   %eax
    24f2:	e8 79 4d 00 00       	call   7270 <bd_write_blocks@plt>
    24f7:	83 c4 20             	add    $0x20,%esp
    24fa:	89 45 e4             	mov    %eax,-0x1c(%ebp)
    24fd:	85 c0                	test   %eax,%eax
    24ff:	0f 84 a3 00 00 00    	je     25a8 <block_put+0x258>
    2505:	50                   	push   %eax
    2506:	50                   	push   %eax
    2507:	8b 45 e0             	mov    -0x20(%ebp),%eax
    250a:	8b 55 dc             	mov    -0x24(%ebp),%edx
    250d:	8b 4d d8             	mov    -0x28(%ebp),%ecx
    2510:	8b 40 08             	mov    0x8(%eax),%eax
    2513:	50                   	push   %eax
    2514:	52                   	push   %edx
    2515:	51                   	push   %ecx
    2516:	56                   	push   %esi
    2517:	8b 75 e4             	mov    -0x1c(%ebp),%esi
    251a:	56                   	push   %esi
    251b:	68 d4 6c 00 00       	push   $0x6cd4
    2520:	e8 cb 4c 00 00       	call   71f0 <printf@plt>
    2525:	83 c4 20             	add    $0x20,%esp
    2528:	e8 03 4e 00 00       	call   7330 <stacktrace_print@plt>
    252d:	8d 76 00             	lea    0x0(%esi),%esi
    2530:	c6 47 14 00          	movb   $0x0,0x14(%edi)
    2534:	e9 ce fe ff ff       	jmp    2407 <block_put+0xb7>
    2539:	8d b4 26 00 00 00 00 	lea    0x0(%esi,%eiz,1),%esi
    2540:	83 ec 0c             	sub    $0xc,%esp
    2543:	68 98 91 00 00       	push   $0x9198
    2548:	e8 c3 4e 00 00       	call   7410 <fibril_mutex_unlock@plt>
    254d:	83 c4 0c             	add    $0xc,%esp
    2550:	68 4c 02 00 00       	push   $0x24c
    2555:	68 37 6c 00 00       	push   $0x6c37
    255a:	68 3f 6c 00 00       	push   $0x6c3f
    255f:	e8 3c 4e 00 00       	call   73a0 <assert_abort@plt>
    2564:	8d 4b 3c             	lea    0x3c(%ebx),%ecx
    2567:	8d 47 48             	lea    0x48(%edi),%eax
    256a:	89 4f 4c             	mov    %ecx,0x4c(%edi)
    256d:	8b 4b 3c             	mov    0x3c(%ebx),%ecx
    2570:	89 4f 48             	mov    %ecx,0x48(%edi)
    2573:	c7 45 e4 00 00 00 00 	movl   $0x0,-0x1c(%ebp)
    257a:	8b 4b 3c             	mov    0x3c(%ebx),%ecx
    257d:	89 41 04             	mov    %eax,0x4(%ecx)
    2580:	89 43 3c             	mov    %eax,0x3c(%ebx)
    2583:	83 ec 0c             	sub    $0xc,%esp
    2586:	57                   	push   %edi
    2587:	e8 84 4e 00 00       	call   7410 <fibril_mutex_unlock@plt>
    258c:	89 1c 24             	mov    %ebx,(%esp)
    258f:	e8 7c 4e 00 00       	call   7410 <fibril_mutex_unlock@plt>
    2594:	8b 45 e4             	mov    -0x1c(%ebp),%eax
    2597:	83 c4 10             	add    $0x10,%esp
    259a:	8d 65 f4             	lea    -0xc(%ebp),%esp
    259d:	5b                   	pop    %ebx
    259e:	5e                   	pop    %esi
    259f:	5f                   	pop    %edi
    25a0:	5d                   	pop    %ebp
    25a1:	c3                   	ret    
    25a2:	8d b6 00 00 00 00    	lea    0x0(%esi),%esi
    25a8:	c7 47 44 00 00 00 00 	movl   $0x0,0x44(%edi)
    25af:	c6 47 14 00          	movb   $0x0,0x14(%edi)
    25b3:	e9 4f fe ff ff       	jmp    2407 <block_put+0xb7>
    25b8:	8b 75 e0             	mov    -0x20(%ebp),%esi
    25bb:	8b 46 08             	mov    0x8(%esi),%eax
    25be:	50                   	push   %eax
    25bf:	8b 47 34             	mov    0x34(%edi),%eax
    25c2:	50                   	push   %eax
    25c3:	8b 47 30             	mov    0x30(%edi),%eax
    25c6:	50                   	push   %eax
    25c7:	68 1c 6d 00 00       	push   $0x6d1c
    25cc:	e8 1f 4c 00 00       	call   71f0 <printf@plt>
    25d1:	83 c4 10             	add    $0x10,%esp
    25d4:	50                   	push   %eax
    25d5:	50                   	push   %eax
    25d6:	8d 47 50             	lea    0x50(%edi),%eax
    25d9:	50                   	push   %eax
    25da:	8d 43 20             	lea    0x20(%ebx),%eax
    25dd:	50                   	push   %eax
    25de:	e8 9d 4e 00 00       	call   7480 <hash_table_remove_item@plt>
    25e3:	89 3c 24             	mov    %edi,(%esp)
    25e6:	e8 25 4e 00 00       	call   7410 <fibril_mutex_unlock@plt>
    25eb:	8b 4f 58             	mov    0x58(%edi),%ecx
    25ee:	5a                   	pop    %edx
    25ef:	51                   	push   %ecx
    25f0:	e8 fb 4f 00 00       	call   75f0 <free@plt>
    25f5:	89 3c 24             	mov    %edi,(%esp)
    25f8:	e8 f3 4f 00 00       	call   75f0 <free@plt>
    25fd:	8b 73 1c             	mov    0x1c(%ebx),%esi
    2600:	4e                   	dec    %esi
    2601:	89 73 1c             	mov    %esi,0x1c(%ebx)
    2604:	89 1c 24             	mov    %ebx,(%esp)
    2607:	e8 04 4e 00 00       	call   7410 <fibril_mutex_unlock@plt>
    260c:	8b 45 e4             	mov    -0x1c(%ebp),%eax
    260f:	83 c4 10             	add    $0x10,%esp
    2612:	8d 65 f4             	lea    -0xc(%ebp),%esp
    2615:	5b                   	pop    %ebx
    2616:	5e                   	pop    %esi
    2617:	5f                   	pop    %edi
    2618:	5d                   	pop    %ebp
    2619:	c3                   	ret    
    261a:	50                   	push   %eax
    261b:	68 4d 02 00 00       	push   $0x24d
    2620:	68 37 6c 00 00       	push   $0x6c37
    2625:	68 46 6c 00 00       	push   $0x6c46
    262a:	e8 71 4d 00 00       	call   73a0 <assert_abort@plt>
    262f:	50                   	push   %eax
    2630:	68 4e 02 00 00       	push   $0x24e
    2635:	68 37 6c 00 00       	push   $0x6c37
    263a:	68 54 6c 00 00       	push   $0x6c54
    263f:	e8 5c 4d 00 00       	call   73a0 <assert_abort@plt>
    2644:	8d b6 00 00 00 00    	lea    0x0(%esi),%esi
    264a:	8d bf 00 00 00 00    	lea    0x0(%edi),%edi

00002650 <block_get>:
    2650:	55                   	push   %ebp
    2651:	89 e5                	mov    %esp,%ebp
    2653:	57                   	push   %edi
    2654:	56                   	push   %esi
    2655:	53                   	push   %ebx
    2656:	83 ec 48             	sub    $0x48,%esp
    2659:	8b 45 10             	mov    0x10(%ebp),%eax
    265c:	89 45 e0             	mov    %eax,-0x20(%ebp)
    265f:	8b 45 14             	mov    0x14(%ebp),%eax
    2662:	68 98 91 00 00       	push   $0x9198
    2667:	89 45 e4             	mov    %eax,-0x1c(%ebp)
    266a:	e8 91 4f 00 00       	call   7600 <fibril_mutex_lock@plt>
    266f:	8b 35 94 91 00 00    	mov    0x9194,%esi
    2675:	83 c4 10             	add    $0x10,%esp
    2678:	81 fe 90 91 00 00    	cmp    $0x9190,%esi
    267e:	74 20                	je     26a0 <block_get+0x50>
    2680:	8b 46 08             	mov    0x8(%esi),%eax
    2683:	39 45 0c             	cmp    %eax,0xc(%ebp)
    2686:	74 40                	je     26c8 <block_get+0x78>
    2688:	8b 45 0c             	mov    0xc(%ebp),%eax
    268b:	eb 08                	jmp    2695 <block_get+0x45>
    268d:	8d 76 00             	lea    0x0(%esi),%esi
    2690:	3b 46 08             	cmp    0x8(%esi),%eax
    2693:	74 33                	je     26c8 <block_get+0x78>
    2695:	8b 76 04             	mov    0x4(%esi),%esi
    2698:	81 fe 90 91 00 00    	cmp    $0x9190,%esi
    269e:	75 f0                	jne    2690 <block_get+0x40>
    26a0:	83 ec 0c             	sub    $0xc,%esp
    26a3:	68 98 91 00 00       	push   $0x9198
    26a8:	e8 63 4d 00 00       	call   7410 <fibril_mutex_unlock@plt>
    26ad:	83 c4 0c             	add    $0xc,%esp
    26b0:	68 8a 01 00 00       	push   $0x18a
    26b5:	68 37 6c 00 00       	push   $0x6c37
    26ba:	68 3f 6c 00 00       	push   $0x6c3f
    26bf:	e8 dc 4c 00 00       	call   73a0 <assert_abort@plt>
    26c4:	8d 74 26 00          	lea    0x0(%esi,%eiz,1),%esi
    26c8:	83 ec 0c             	sub    $0xc,%esp
    26cb:	68 98 91 00 00       	push   $0x9198
    26d0:	e8 3b 4d 00 00       	call   7410 <fibril_mutex_unlock@plt>
    26d5:	8b 5e 2c             	mov    0x2c(%esi),%ebx
    26d8:	83 c4 10             	add    $0x10,%esp
    26db:	85 db                	test   %ebx,%ebx
    26dd:	0f 84 a5 04 00 00    	je     2b88 <block_get+0x538>
    26e3:	8b 43 14             	mov    0x14(%ebx),%eax
    26e6:	8b 4d e4             	mov    -0x1c(%ebp),%ecx
    26e9:	89 45 d8             	mov    %eax,-0x28(%ebp)
    26ec:	31 d2                	xor    %edx,%edx
    26ee:	0f af c8             	imul   %eax,%ecx
    26f1:	8b 45 d8             	mov    -0x28(%ebp),%eax
    26f4:	89 55 dc             	mov    %edx,-0x24(%ebp)
    26f7:	f7 65 e0             	mull   -0x20(%ebp)
    26fa:	01 ca                	add    %ecx,%edx
    26fc:	03 45 d8             	add    -0x28(%ebp),%eax
    26ff:	13 55 dc             	adc    -0x24(%ebp),%edx
    2702:	3b 56 24             	cmp    0x24(%esi),%edx
    2705:	76 19                	jbe    2720 <block_get+0xd0>
    2707:	c7 45 d8 f6 fe ff ff 	movl   $0xfffffef6,-0x28(%ebp)
    270e:	8b 45 d8             	mov    -0x28(%ebp),%eax
    2711:	8d 65 f4             	lea    -0xc(%ebp),%esp
    2714:	5b                   	pop    %ebx
    2715:	5e                   	pop    %esi
    2716:	5f                   	pop    %edi
    2717:	5d                   	pop    %ebp
    2718:	c3                   	ret    
    2719:	8d b4 26 00 00 00 00 	lea    0x0(%esi,%eiz,1),%esi
    2720:	0f 83 f2 01 00 00    	jae    2918 <block_get+0x2c8>
    2726:	8d 43 20             	lea    0x20(%ebx),%eax
    2729:	89 75 c8             	mov    %esi,-0x38(%ebp)
    272c:	89 45 d0             	mov    %eax,-0x30(%ebp)
    272f:	8d 43 3c             	lea    0x3c(%ebx),%eax
    2732:	89 45 d8             	mov    %eax,-0x28(%ebp)
    2735:	8d 76 00             	lea    0x0(%esi),%esi
    2738:	83 ec 0c             	sub    $0xc,%esp
    273b:	53                   	push   %ebx
    273c:	e8 bf 4e 00 00       	call   7600 <fibril_mutex_lock@plt>
    2741:	58                   	pop    %eax
    2742:	8b 4d d0             	mov    -0x30(%ebp),%ecx
    2745:	8d 45 e0             	lea    -0x20(%ebp),%eax
    2748:	5a                   	pop    %edx
    2749:	50                   	push   %eax
    274a:	51                   	push   %ecx
    274b:	e8 f0 4d 00 00       	call   7540 <hash_table_find@plt>
    2750:	83 c4 10             	add    $0x10,%esp
    2753:	85 c0                	test   %eax,%eax
    2755:	0f 85 cd 01 00 00    	jne    2928 <block_get+0x2d8>
    275b:	83 7b 1c 09          	cmpl   $0x9,0x1c(%ebx)
    275f:	0f 86 d3 00 00 00    	jbe    2838 <block_get+0x1e8>
    2765:	8b 73 40             	mov    0x40(%ebx),%esi
    2768:	3b 75 d8             	cmp    -0x28(%ebp),%esi
    276b:	0f 84 c7 00 00 00    	je     2838 <block_get+0x1e8>
    2771:	83 ec 0c             	sub    $0xc,%esp
    2774:	8d 7e b8             	lea    -0x48(%esi),%edi
    2777:	57                   	push   %edi
    2778:	e8 83 4e 00 00       	call   7600 <fibril_mutex_lock@plt>
    277d:	83 c4 10             	add    $0x10,%esp
    2780:	80 7f 14 00          	cmpb   $0x0,0x14(%edi)
    2784:	0f 84 1e 02 00 00    	je     29a8 <block_get+0x358>
    278a:	8b 4f 48             	mov    0x48(%edi),%ecx
    278d:	85 c9                	test   %ecx,%ecx
    278f:	74 0f                	je     27a0 <block_get+0x150>
    2791:	8b 47 4c             	mov    0x4c(%edi),%eax
    2794:	85 c0                	test   %eax,%eax
    2796:	74 08                	je     27a0 <block_get+0x150>
    2798:	89 08                	mov    %ecx,(%eax)
    279a:	8b 4f 48             	mov    0x48(%edi),%ecx
    279d:	89 41 04             	mov    %eax,0x4(%ecx)
    27a0:	c7 47 48 00 00 00 00 	movl   $0x0,0x48(%edi)
    27a7:	8b 45 d8             	mov    -0x28(%ebp),%eax
    27aa:	89 47 4c             	mov    %eax,0x4c(%edi)
    27ad:	8b 43 3c             	mov    0x3c(%ebx),%eax
    27b0:	89 47 48             	mov    %eax,0x48(%edi)
    27b3:	83 ec 0c             	sub    $0xc,%esp
    27b6:	8b 43 3c             	mov    0x3c(%ebx),%eax
    27b9:	89 70 04             	mov    %esi,0x4(%eax)
    27bc:	89 73 3c             	mov    %esi,0x3c(%ebx)
    27bf:	53                   	push   %ebx
    27c0:	e8 4b 4c 00 00       	call   7410 <fibril_mutex_unlock@plt>
    27c5:	83 c4 08             	add    $0x8,%esp
    27c8:	8b 77 40             	mov    0x40(%edi),%esi
    27cb:	8b 4b 14             	mov    0x14(%ebx),%ecx
    27ce:	8b 47 38             	mov    0x38(%edi),%eax
    27d1:	8b 57 3c             	mov    0x3c(%edi),%edx
    27d4:	56                   	push   %esi
    27d5:	8b 77 58             	mov    0x58(%edi),%esi
    27d8:	89 45 c0             	mov    %eax,-0x40(%ebp)
    27db:	56                   	push   %esi
    27dc:	51                   	push   %ecx
    27dd:	52                   	push   %edx
    27de:	50                   	push   %eax
    27df:	8b 45 c8             	mov    -0x38(%ebp),%eax
    27e2:	89 4d d4             	mov    %ecx,-0x2c(%ebp)
    27e5:	89 55 c4             	mov    %edx,-0x3c(%ebp)
    27e8:	8b 40 10             	mov    0x10(%eax),%eax
    27eb:	50                   	push   %eax
    27ec:	e8 7f 4a 00 00       	call   7270 <bd_write_blocks@plt>
    27f1:	83 c4 20             	add    $0x20,%esp
    27f4:	89 c6                	mov    %eax,%esi
    27f6:	85 c0                	test   %eax,%eax
    27f8:	8b 4d d4             	mov    -0x2c(%ebp),%ecx
    27fb:	0f 85 a7 00 00 00    	jne    28a8 <block_get+0x258>
    2801:	c7 47 44 00 00 00 00 	movl   $0x0,0x44(%edi)
    2808:	83 ec 0c             	sub    $0xc,%esp
    280b:	c6 47 14 00          	movb   $0x0,0x14(%edi)
    280f:	53                   	push   %ebx
    2810:	e8 6b 4b 00 00       	call   7380 <fibril_mutex_trylock@plt>
    2815:	83 c4 10             	add    $0x10,%esp
    2818:	84 c0                	test   %al,%al
    281a:	0f 85 b7 02 00 00    	jne    2ad7 <block_get+0x487>
    2820:	83 ec 0c             	sub    $0xc,%esp
    2823:	57                   	push   %edi
    2824:	e8 e7 4b 00 00       	call   7410 <fibril_mutex_unlock@plt>
    2829:	83 c4 10             	add    $0x10,%esp
    282c:	e9 07 ff ff ff       	jmp    2738 <block_get+0xe8>
    2831:	8d b4 26 00 00 00 00 	lea    0x0(%esi,%eiz,1),%esi
    2838:	83 ec 0c             	sub    $0xc,%esp
    283b:	6a 5c                	push   $0x5c
    283d:	e8 8e 4a 00 00       	call   72d0 <malloc@plt>
    2842:	83 c4 10             	add    $0x10,%esp
    2845:	89 c7                	mov    %eax,%edi
    2847:	85 c0                	test   %eax,%eax
    2849:	74 26                	je     2871 <block_get+0x221>
    284b:	83 ec 0c             	sub    $0xc,%esp
    284e:	8b 43 10             	mov    0x10(%ebx),%eax
    2851:	50                   	push   %eax
    2852:	e8 79 4a 00 00       	call   72d0 <malloc@plt>
    2857:	83 c4 10             	add    $0x10,%esp
    285a:	89 47 58             	mov    %eax,0x58(%edi)
    285d:	85 c0                	test   %eax,%eax
    285f:	0f 85 14 03 00 00    	jne    2b79 <block_get+0x529>
    2865:	83 ec 0c             	sub    $0xc,%esp
    2868:	57                   	push   %edi
    2869:	e8 82 4d 00 00       	call   75f0 <free@plt>
    286e:	83 c4 10             	add    $0x10,%esp
    2871:	8b 73 40             	mov    0x40(%ebx),%esi
    2874:	3b 75 d8             	cmp    -0x28(%ebp),%esi
    2877:	0f 85 f4 fe ff ff    	jne    2771 <block_get+0x121>
    287d:	83 ec 0c             	sub    $0xc,%esp
    2880:	31 ff                	xor    %edi,%edi
    2882:	53                   	push   %ebx
    2883:	e8 88 4b 00 00       	call   7410 <fibril_mutex_unlock@plt>
    2888:	83 c4 10             	add    $0x10,%esp
    288b:	c7 45 d8 fe ff ff ff 	movl   $0xfffffffe,-0x28(%ebp)
    2892:	8b 45 08             	mov    0x8(%ebp),%eax
    2895:	89 38                	mov    %edi,(%eax)
    2897:	8b 45 d8             	mov    -0x28(%ebp),%eax
    289a:	8d 65 f4             	lea    -0xc(%ebp),%esp
    289d:	5b                   	pop    %ebx
    289e:	5e                   	pop    %esi
    289f:	5f                   	pop    %edi
    28a0:	5d                   	pop    %ebp
    28a1:	c3                   	ret    
    28a2:	8d b6 00 00 00 00    	lea    0x0(%esi),%esi
    28a8:	50                   	push   %eax
    28a9:	50                   	push   %eax
    28aa:	8b 45 c8             	mov    -0x38(%ebp),%eax
    28ad:	8b 55 c0             	mov    -0x40(%ebp),%edx
    28b0:	8b 40 08             	mov    0x8(%eax),%eax
    28b3:	50                   	push   %eax
    28b4:	8b 45 c4             	mov    -0x3c(%ebp),%eax
    28b7:	50                   	push   %eax
    28b8:	52                   	push   %edx
    28b9:	51                   	push   %ecx
    28ba:	56                   	push   %esi
    28bb:	68 d4 6c 00 00       	push   $0x6cd4
    28c0:	e8 2b 49 00 00       	call   71f0 <printf@plt>
    28c5:	83 c4 20             	add    $0x20,%esp
    28c8:	e8 63 4a 00 00       	call   7330 <stacktrace_print@plt>
    28cd:	8b 47 44             	mov    0x44(%edi),%eax
    28d0:	83 f8 09             	cmp    $0x9,%eax
    28d3:	7f 1b                	jg     28f0 <block_get+0x2a0>
    28d5:	83 ec 0c             	sub    $0xc,%esp
    28d8:	40                   	inc    %eax
    28d9:	89 47 44             	mov    %eax,0x44(%edi)
    28dc:	57                   	push   %edi
    28dd:	e8 2e 4b 00 00       	call   7410 <fibril_mutex_unlock@plt>
    28e2:	83 c4 10             	add    $0x10,%esp
    28e5:	e9 4e fe ff ff       	jmp    2738 <block_get+0xe8>
    28ea:	8d b6 00 00 00 00    	lea    0x0(%esi),%esi
    28f0:	8b 45 c8             	mov    -0x38(%ebp),%eax
    28f3:	8b 40 08             	mov    0x8(%eax),%eax
    28f6:	50                   	push   %eax
    28f7:	8b 47 34             	mov    0x34(%edi),%eax
    28fa:	50                   	push   %eax
    28fb:	8b 47 30             	mov    0x30(%edi),%eax
    28fe:	50                   	push   %eax
    28ff:	68 1c 6d 00 00       	push   $0x6d1c
    2904:	e8 e7 48 00 00       	call   71f0 <printf@plt>
    2909:	83 c4 10             	add    $0x10,%esp
    290c:	e9 f7 fe ff ff       	jmp    2808 <block_get+0x1b8>
    2911:	8d b4 26 00 00 00 00 	lea    0x0(%esi,%eiz,1),%esi
    2918:	3b 46 20             	cmp    0x20(%esi),%eax
    291b:	0f 83 e6 fd ff ff    	jae    2707 <block_get+0xb7>
    2921:	e9 00 fe ff ff       	jmp    2726 <block_get+0xd6>
    2926:	66 90                	xchg   %ax,%ax
    2928:	c7 45 d8 00 00 00 00 	movl   $0x0,-0x28(%ebp)
    292f:	8d 78 b0             	lea    -0x50(%eax),%edi
    2932:	83 ec 0c             	sub    $0xc,%esp
    2935:	57                   	push   %edi
    2936:	e8 c5 4c 00 00       	call   7600 <fibril_mutex_lock@plt>
    293b:	8b 47 10             	mov    0x10(%edi),%eax
    293e:	83 c4 10             	add    $0x10,%esp
    2941:	85 c0                	test   %eax,%eax
    2943:	8d 50 01             	lea    0x1(%eax),%edx
    2946:	89 57 10             	mov    %edx,0x10(%edi)
    2949:	75 24                	jne    296f <block_get+0x31f>
    294b:	8b 57 48             	mov    0x48(%edi),%edx
    294e:	85 d2                	test   %edx,%edx
    2950:	74 0f                	je     2961 <block_get+0x311>
    2952:	8b 47 4c             	mov    0x4c(%edi),%eax
    2955:	85 c0                	test   %eax,%eax
    2957:	74 08                	je     2961 <block_get+0x311>
    2959:	89 10                	mov    %edx,(%eax)
    295b:	8b 57 48             	mov    0x48(%edi),%edx
    295e:	89 42 04             	mov    %eax,0x4(%edx)
    2961:	c7 47 48 00 00 00 00 	movl   $0x0,0x48(%edi)
    2968:	c7 47 4c 00 00 00 00 	movl   $0x0,0x4c(%edi)
    296f:	8a 47 15             	mov    0x15(%edi),%al
    2972:	84 c0                	test   %al,%al
    2974:	0f 85 51 01 00 00    	jne    2acb <block_get+0x47b>
    297a:	8b 45 d8             	mov    -0x28(%ebp),%eax
    297d:	85 c0                	test   %eax,%eax
    297f:	0f 95 c0             	setne  %al
    2982:	83 ec 0c             	sub    $0xc,%esp
    2985:	88 45 d4             	mov    %al,-0x2c(%ebp)
    2988:	57                   	push   %edi
    2989:	e8 82 4a 00 00       	call   7410 <fibril_mutex_unlock@plt>
    298e:	89 1c 24             	mov    %ebx,(%esp)
    2991:	e8 7a 4a 00 00       	call   7410 <fibril_mutex_unlock@plt>
    2996:	83 c4 10             	add    $0x10,%esp
    2999:	8a 45 d4             	mov    -0x2c(%ebp),%al
    299c:	e9 05 01 00 00       	jmp    2aa6 <block_get+0x456>
    29a1:	8d b4 26 00 00 00 00 	lea    0x0(%esi,%eiz,1),%esi
    29a8:	8b 75 c8             	mov    -0x38(%ebp),%esi
    29ab:	83 ec 0c             	sub    $0xc,%esp
    29ae:	57                   	push   %edi
    29af:	e8 5c 4a 00 00       	call   7410 <fibril_mutex_unlock@plt>
    29b4:	8b 57 48             	mov    0x48(%edi),%edx
    29b7:	83 c4 10             	add    $0x10,%esp
    29ba:	85 d2                	test   %edx,%edx
    29bc:	74 0f                	je     29cd <block_get+0x37d>
    29be:	8b 47 4c             	mov    0x4c(%edi),%eax
    29c1:	85 c0                	test   %eax,%eax
    29c3:	74 08                	je     29cd <block_get+0x37d>
    29c5:	89 10                	mov    %edx,(%eax)
    29c7:	8b 57 48             	mov    0x48(%edi),%edx
    29ca:	89 42 04             	mov    %eax,0x4(%edx)
    29cd:	c7 47 48 00 00 00 00 	movl   $0x0,0x48(%edi)
    29d4:	c7 47 4c 00 00 00 00 	movl   $0x0,0x4c(%edi)
    29db:	50                   	push   %eax
    29dc:	50                   	push   %eax
    29dd:	8d 47 50             	lea    0x50(%edi),%eax
    29e0:	50                   	push   %eax
    29e1:	8b 45 d0             	mov    -0x30(%ebp),%eax
    29e4:	50                   	push   %eax
    29e5:	e8 96 4a 00 00       	call   7480 <hash_table_remove_item@plt>
    29ea:	83 c4 10             	add    $0x10,%esp
    29ed:	83 ec 0c             	sub    $0xc,%esp
    29f0:	57                   	push   %edi
    29f1:	e8 3a 4a 00 00       	call   7430 <fibril_mutex_initialize@plt>
    29f6:	8d 47 18             	lea    0x18(%edi),%eax
    29f9:	c7 47 10 01 00 00 00 	movl   $0x1,0x10(%edi)
    2a00:	c7 47 44 00 00 00 00 	movl   $0x0,0x44(%edi)
    2a07:	c6 47 14 00          	movb   $0x0,0x14(%edi)
    2a0b:	c6 47 15 00          	movb   $0x0,0x15(%edi)
    2a0f:	89 04 24             	mov    %eax,(%esp)
    2a12:	e8 39 4b 00 00       	call   7550 <fibril_rwlock_initialize@plt>
    2a17:	8b 45 0c             	mov    0xc(%ebp),%eax
    2a1a:	89 47 2c             	mov    %eax,0x2c(%edi)
    2a1d:	8b 43 10             	mov    0x10(%ebx),%eax
    2a20:	89 47 40             	mov    %eax,0x40(%edi)
    2a23:	8b 45 e0             	mov    -0x20(%ebp),%eax
    2a26:	89 45 d8             	mov    %eax,-0x28(%ebp)
    2a29:	8b 4d e4             	mov    -0x1c(%ebp),%ecx
    2a2c:	89 47 30             	mov    %eax,0x30(%edi)
    2a2f:	8b 46 2c             	mov    0x2c(%esi),%eax
    2a32:	83 c4 10             	add    $0x10,%esp
    2a35:	c7 47 48 00 00 00 00 	movl   $0x0,0x48(%edi)
    2a3c:	c7 47 4c 00 00 00 00 	movl   $0x0,0x4c(%edi)
    2a43:	89 4f 34             	mov    %ecx,0x34(%edi)
    2a46:	85 c0                	test   %eax,%eax
    2a48:	0f 84 4f 01 00 00    	je     2b9d <block_get+0x54d>
    2a4e:	8b 40 14             	mov    0x14(%eax),%eax
    2a51:	0f af c8             	imul   %eax,%ecx
    2a54:	f7 65 d8             	mull   -0x28(%ebp)
    2a57:	01 ca                	add    %ecx,%edx
    2a59:	89 47 38             	mov    %eax,0x38(%edi)
    2a5c:	89 57 3c             	mov    %edx,0x3c(%edi)
    2a5f:	50                   	push   %eax
    2a60:	50                   	push   %eax
    2a61:	8d 47 50             	lea    0x50(%edi),%eax
    2a64:	50                   	push   %eax
    2a65:	8b 45 d0             	mov    -0x30(%ebp),%eax
    2a68:	50                   	push   %eax
    2a69:	e8 d2 47 00 00       	call   7240 <hash_table_insert@plt>
    2a6e:	89 3c 24             	mov    %edi,(%esp)
    2a71:	e8 8a 4b 00 00       	call   7600 <fibril_mutex_lock@plt>
    2a76:	89 1c 24             	mov    %ebx,(%esp)
    2a79:	e8 92 49 00 00       	call   7410 <fibril_mutex_unlock@plt>
    2a7e:	83 c4 10             	add    $0x10,%esp
    2a81:	f6 45 18 01          	testb  $0x1,0x18(%ebp)
    2a85:	0f 84 83 00 00 00    	je     2b0e <block_get+0x4be>
    2a8b:	31 c0                	xor    %eax,%eax
    2a8d:	c7 45 d8 00 00 00 00 	movl   $0x0,-0x28(%ebp)
    2a94:	83 ec 0c             	sub    $0xc,%esp
    2a97:	88 45 d4             	mov    %al,-0x2c(%ebp)
    2a9a:	57                   	push   %edi
    2a9b:	e8 70 49 00 00       	call   7410 <fibril_mutex_unlock@plt>
    2aa0:	83 c4 10             	add    $0x10,%esp
    2aa3:	8a 45 d4             	mov    -0x2c(%ebp),%al
    2aa6:	84 c0                	test   %al,%al
    2aa8:	0f 84 e4 fd ff ff    	je     2892 <block_get+0x242>
    2aae:	80 7f 15 00          	cmpb   $0x0,0x15(%edi)
    2ab2:	0f 84 fa 00 00 00    	je     2bb2 <block_get+0x562>
    2ab8:	83 ec 0c             	sub    $0xc,%esp
    2abb:	57                   	push   %edi
    2abc:	31 ff                	xor    %edi,%edi
    2abe:	e8 8d f8 ff ff       	call   2350 <block_put>
    2ac3:	83 c4 10             	add    $0x10,%esp
    2ac6:	e9 c7 fd ff ff       	jmp    2892 <block_get+0x242>
    2acb:	c7 45 d8 f6 fe ff ff 	movl   $0xfffffef6,-0x28(%ebp)
    2ad2:	e9 ab fe ff ff       	jmp    2982 <block_get+0x332>
    2ad7:	8d 45 e0             	lea    -0x20(%ebp),%eax
    2ada:	8b 4d d0             	mov    -0x30(%ebp),%ecx
    2add:	89 75 d8             	mov    %esi,-0x28(%ebp)
    2ae0:	8b 75 c8             	mov    -0x38(%ebp),%esi
    2ae3:	52                   	push   %edx
    2ae4:	52                   	push   %edx
    2ae5:	50                   	push   %eax
    2ae6:	51                   	push   %ecx
    2ae7:	e8 54 4a 00 00       	call   7540 <hash_table_find@plt>
    2aec:	83 c4 10             	add    $0x10,%esp
    2aef:	89 45 d4             	mov    %eax,-0x2c(%ebp)
    2af2:	85 c0                	test   %eax,%eax
    2af4:	0f 84 b1 fe ff ff    	je     29ab <block_get+0x35b>
    2afa:	83 ec 0c             	sub    $0xc,%esp
    2afd:	57                   	push   %edi
    2afe:	e8 0d 49 00 00       	call   7410 <fibril_mutex_unlock@plt>
    2b03:	83 c4 10             	add    $0x10,%esp
    2b06:	8b 45 d4             	mov    -0x2c(%ebp),%eax
    2b09:	e9 21 fe ff ff       	jmp    292f <block_get+0x2df>
    2b0e:	83 ec 08             	sub    $0x8,%esp
    2b11:	8b 4b 14             	mov    0x14(%ebx),%ecx
    2b14:	8b 5b 10             	mov    0x10(%ebx),%ebx
    2b17:	8b 47 38             	mov    0x38(%edi),%eax
    2b1a:	8b 57 3c             	mov    0x3c(%edi),%edx
    2b1d:	53                   	push   %ebx
    2b1e:	8b 5f 58             	mov    0x58(%edi),%ebx
    2b21:	89 45 c8             	mov    %eax,-0x38(%ebp)
    2b24:	53                   	push   %ebx
    2b25:	51                   	push   %ecx
    2b26:	52                   	push   %edx
    2b27:	50                   	push   %eax
    2b28:	8b 46 10             	mov    0x10(%esi),%eax
    2b2b:	89 55 cc             	mov    %edx,-0x34(%ebp)
    2b2e:	89 4d d4             	mov    %ecx,-0x2c(%ebp)
    2b31:	50                   	push   %eax
    2b32:	e8 39 48 00 00       	call   7370 <bd_read_blocks@plt>
    2b37:	83 c4 20             	add    $0x20,%esp
    2b3a:	89 c2                	mov    %eax,%edx
    2b3c:	89 45 d8             	mov    %eax,-0x28(%ebp)
    2b3f:	8b 4d d4             	mov    -0x2c(%ebp),%ecx
    2b42:	31 c0                	xor    %eax,%eax
    2b44:	85 d2                	test   %edx,%edx
    2b46:	0f 84 48 ff ff ff    	je     2a94 <block_get+0x444>
    2b4c:	53                   	push   %ebx
    2b4d:	53                   	push   %ebx
    2b4e:	8b 76 08             	mov    0x8(%esi),%esi
    2b51:	8b 45 cc             	mov    -0x34(%ebp),%eax
    2b54:	56                   	push   %esi
    2b55:	50                   	push   %eax
    2b56:	8b 45 c8             	mov    -0x38(%ebp),%eax
    2b59:	50                   	push   %eax
    2b5a:	51                   	push   %ecx
    2b5b:	52                   	push   %edx
    2b5c:	68 88 6c 00 00       	push   $0x6c88
    2b61:	e8 8a 46 00 00       	call   71f0 <printf@plt>
    2b66:	83 c4 20             	add    $0x20,%esp
    2b69:	e8 c2 47 00 00       	call   7330 <stacktrace_print@plt>
    2b6e:	c6 47 15 01          	movb   $0x1,0x15(%edi)
    2b72:	b0 01                	mov    $0x1,%al
    2b74:	e9 1b ff ff ff       	jmp    2a94 <block_get+0x444>
    2b79:	8b 43 1c             	mov    0x1c(%ebx),%eax
    2b7c:	8b 75 c8             	mov    -0x38(%ebp),%esi
    2b7f:	40                   	inc    %eax
    2b80:	89 43 1c             	mov    %eax,0x1c(%ebx)
    2b83:	e9 65 fe ff ff       	jmp    29ed <block_get+0x39d>
    2b88:	53                   	push   %ebx
    2b89:	68 8b 01 00 00       	push   $0x18b
    2b8e:	68 37 6c 00 00       	push   $0x6c37
    2b93:	68 46 6c 00 00       	push   $0x6c46
    2b98:	e8 03 48 00 00       	call   73a0 <assert_abort@plt>
    2b9d:	50                   	push   %eax
    2b9e:	68 c6 03 00 00       	push   $0x3c6
    2ba3:	68 37 6c 00 00       	push   $0x6c37
    2ba8:	68 67 6c 00 00       	push   $0x6c67
    2bad:	e8 ee 47 00 00       	call   73a0 <assert_abort@plt>
    2bb2:	50                   	push   %eax
    2bb3:	68 34 02 00 00       	push   $0x234
    2bb8:	68 37 6c 00 00       	push   $0x6c37
    2bbd:	68 7d 6c 00 00       	push   $0x6c7d
    2bc2:	e8 d9 47 00 00       	call   73a0 <assert_abort@plt>
    2bc7:	89 f6                	mov    %esi,%esi
    2bc9:	8d bc 27 00 00 00 00 	lea    0x0(%edi,%eiz,1),%edi

00002bd0 <block_seqread>:
    2bd0:	55                   	push   %ebp
    2bd1:	89 e5                	mov    %esp,%ebp
    2bd3:	57                   	push   %edi
    2bd4:	56                   	push   %esi
    2bd5:	53                   	push   %ebx
    2bd6:	83 ec 38             	sub    $0x38,%esp
    2bd9:	8b 4d 20             	mov    0x20(%ebp),%ecx
    2bdc:	8b 75 08             	mov    0x8(%ebp),%esi
    2bdf:	68 98 91 00 00       	push   $0x9198
    2be4:	89 4d e4             	mov    %ecx,-0x1c(%ebp)
    2be7:	e8 14 4a 00 00       	call   7600 <fibril_mutex_lock@plt>
    2bec:	8b 1d 94 91 00 00    	mov    0x9194,%ebx
    2bf2:	83 c4 10             	add    $0x10,%esp
    2bf5:	81 fb 90 91 00 00    	cmp    $0x9190,%ebx
    2bfb:	74 1b                	je     2c18 <block_seqread+0x48>
    2bfd:	3b 73 08             	cmp    0x8(%ebx),%esi
    2c00:	8b 4d e4             	mov    -0x1c(%ebp),%ecx
    2c03:	75 08                	jne    2c0d <block_seqread+0x3d>
    2c05:	eb 39                	jmp    2c40 <block_seqread+0x70>
    2c07:	90                   	nop
    2c08:	3b 73 08             	cmp    0x8(%ebx),%esi
    2c0b:	74 33                	je     2c40 <block_seqread+0x70>
    2c0d:	8b 5b 04             	mov    0x4(%ebx),%ebx
    2c10:	81 fb 90 91 00 00    	cmp    $0x9190,%ebx
    2c16:	75 f0                	jne    2c08 <block_seqread+0x38>
    2c18:	83 ec 0c             	sub    $0xc,%esp
    2c1b:	68 98 91 00 00       	push   $0x9198
    2c20:	e8 eb 47 00 00       	call   7410 <fibril_mutex_unlock@plt>
    2c25:	83 c4 0c             	add    $0xc,%esp
    2c28:	68 c6 02 00 00       	push   $0x2c6
    2c2d:	68 37 6c 00 00       	push   $0x6c37
    2c32:	68 3f 6c 00 00       	push   $0x6c3f
    2c37:	e8 64 47 00 00       	call   73a0 <assert_abort@plt>
    2c3c:	8d 74 26 00          	lea    0x0(%esi,%eiz,1),%esi
    2c40:	83 ec 0c             	sub    $0xc,%esp
    2c43:	89 4d e4             	mov    %ecx,-0x1c(%ebp)
    2c46:	68 98 91 00 00       	push   $0x9198
    2c4b:	e8 c0 47 00 00       	call   7410 <fibril_mutex_unlock@plt>
    2c50:	8b 43 28             	mov    0x28(%ebx),%eax
    2c53:	8b 4d e4             	mov    -0x1c(%ebp),%ecx
    2c56:	83 c4 10             	add    $0x10,%esp
    2c59:	89 45 d8             	mov    %eax,-0x28(%ebp)
    2c5c:	85 c9                	test   %ecx,%ecx
    2c5e:	0f 84 e0 00 00 00    	je     2d44 <block_seqread+0x174>
    2c64:	89 c6                	mov    %eax,%esi
    2c66:	8b 45 14             	mov    0x14(%ebp),%eax
    2c69:	89 5d dc             	mov    %ebx,-0x24(%ebp)
    2c6c:	c7 45 e4 00 00 00 00 	movl   $0x0,-0x1c(%ebp)
    2c73:	8b 00                	mov    (%eax),%eax
    2c75:	89 75 d0             	mov    %esi,-0x30(%ebp)
    2c78:	c7 45 d4 00 00 00 00 	movl   $0x0,-0x2c(%ebp)
    2c7f:	8b 5d 10             	mov    0x10(%ebp),%ebx
    2c82:	eb 1a                	jmp    2c9e <block_seqread+0xce>
    2c84:	8d 74 26 00          	lea    0x0(%esi,%eiz,1),%esi
    2c88:	89 c2                	mov    %eax,%edx
    2c8a:	29 fa                	sub    %edi,%edx
    2c8c:	0f 85 f0 00 00 00    	jne    2d82 <block_seqread+0x1b2>
    2c92:	39 c7                	cmp    %eax,%edi
    2c94:	74 56                	je     2cec <block_seqread+0x11c>
    2c96:	85 c9                	test   %ecx,%ecx
    2c98:	0f 84 a6 00 00 00    	je     2d44 <block_seqread+0x174>
    2c9e:	8b 3b                	mov    (%ebx),%edi
    2ca0:	8d 14 0f             	lea    (%edi,%ecx,1),%edx
    2ca3:	39 c2                	cmp    %eax,%edx
    2ca5:	73 e1                	jae    2c88 <block_seqread+0xb8>
    2ca7:	31 f6                	xor    %esi,%esi
    2ca9:	50                   	push   %eax
    2caa:	8b 45 0c             	mov    0xc(%ebp),%eax
    2cad:	01 c7                	add    %eax,%edi
    2caf:	51                   	push   %ecx
    2cb0:	8b 45 1c             	mov    0x1c(%ebp),%eax
    2cb3:	57                   	push   %edi
    2cb4:	8b 7d e4             	mov    -0x1c(%ebp),%edi
    2cb7:	89 4d e0             	mov    %ecx,-0x20(%ebp)
    2cba:	01 f8                	add    %edi,%eax
    2cbc:	50                   	push   %eax
    2cbd:	e8 ee 45 00 00       	call   72b0 <memcpy@plt>
    2cc2:	8b 4d e0             	mov    -0x20(%ebp),%ecx
    2cc5:	89 f8                	mov    %edi,%eax
    2cc7:	01 c8                	add    %ecx,%eax
    2cc9:	8b 3b                	mov    (%ebx),%edi
    2ccb:	01 cf                	add    %ecx,%edi
    2ccd:	89 45 e4             	mov    %eax,-0x1c(%ebp)
    2cd0:	89 c8                	mov    %ecx,%eax
    2cd2:	8b 4d 18             	mov    0x18(%ebp),%ecx
    2cd5:	89 3b                	mov    %edi,(%ebx)
    2cd7:	31 d2                	xor    %edx,%edx
    2cd9:	01 01                	add    %eax,(%ecx)
    2cdb:	8b 45 14             	mov    0x14(%ebp),%eax
    2cde:	11 51 04             	adc    %edx,0x4(%ecx)
    2ce1:	8b 00                	mov    (%eax),%eax
    2ce3:	83 c4 10             	add    $0x10,%esp
    2ce6:	89 f1                	mov    %esi,%ecx
    2ce8:	39 c7                	cmp    %eax,%edi
    2cea:	75 aa                	jne    2c96 <block_seqread+0xc6>
    2cec:	8b 45 18             	mov    0x18(%ebp),%eax
    2cef:	8b 75 d4             	mov    -0x2c(%ebp),%esi
    2cf2:	8b 7d d0             	mov    -0x30(%ebp),%edi
    2cf5:	56                   	push   %esi
    2cf6:	57                   	push   %edi
    2cf7:	89 4d e0             	mov    %ecx,-0x20(%ebp)
    2cfa:	8b 50 04             	mov    0x4(%eax),%edx
    2cfd:	52                   	push   %edx
    2cfe:	8b 08                	mov    (%eax),%ecx
    2d00:	51                   	push   %ecx
    2d01:	e8 5a 46 00 00       	call   7360 <__udivdi3@plt>
    2d06:	5e                   	pop    %esi
    2d07:	89 c6                	mov    %eax,%esi
    2d09:	8b 45 dc             	mov    -0x24(%ebp),%eax
    2d0c:	5f                   	pop    %edi
    2d0d:	8b 4d 0c             	mov    0xc(%ebp),%ecx
    2d10:	89 d7                	mov    %edx,%edi
    2d12:	8b 50 28             	mov    0x28(%eax),%edx
    2d15:	52                   	push   %edx
    2d16:	51                   	push   %ecx
    2d17:	8b 40 10             	mov    0x10(%eax),%eax
    2d1a:	6a 01                	push   $0x1
    2d1c:	57                   	push   %edi
    2d1d:	56                   	push   %esi
    2d1e:	50                   	push   %eax
    2d1f:	e8 4c 46 00 00       	call   7370 <bd_read_blocks@plt>
    2d24:	83 c4 20             	add    $0x20,%esp
    2d27:	8b 4d e0             	mov    -0x20(%ebp),%ecx
    2d2a:	85 c0                	test   %eax,%eax
    2d2c:	75 22                	jne    2d50 <block_seqread+0x180>
    2d2e:	8b 75 14             	mov    0x14(%ebp),%esi
    2d31:	8b 45 d8             	mov    -0x28(%ebp),%eax
    2d34:	c7 03 00 00 00 00    	movl   $0x0,(%ebx)
    2d3a:	85 c9                	test   %ecx,%ecx
    2d3c:	89 06                	mov    %eax,(%esi)
    2d3e:	0f 85 5a ff ff ff    	jne    2c9e <block_seqread+0xce>
    2d44:	8d 65 f4             	lea    -0xc(%ebp),%esp
    2d47:	31 d2                	xor    %edx,%edx
    2d49:	89 d0                	mov    %edx,%eax
    2d4b:	5b                   	pop    %ebx
    2d4c:	5e                   	pop    %esi
    2d4d:	5f                   	pop    %edi
    2d4e:	5d                   	pop    %ebp
    2d4f:	c3                   	ret    
    2d50:	8b 5d dc             	mov    -0x24(%ebp),%ebx
    2d53:	89 c2                	mov    %eax,%edx
    2d55:	50                   	push   %eax
    2d56:	50                   	push   %eax
    2d57:	8b 4b 08             	mov    0x8(%ebx),%ecx
    2d5a:	89 55 e4             	mov    %edx,-0x1c(%ebp)
    2d5d:	51                   	push   %ecx
    2d5e:	57                   	push   %edi
    2d5f:	56                   	push   %esi
    2d60:	6a 01                	push   $0x1
    2d62:	52                   	push   %edx
    2d63:	68 88 6c 00 00       	push   $0x6c88
    2d68:	e8 83 44 00 00       	call   71f0 <printf@plt>
    2d6d:	83 c4 20             	add    $0x20,%esp
    2d70:	e8 bb 45 00 00       	call   7330 <stacktrace_print@plt>
    2d75:	8b 55 e4             	mov    -0x1c(%ebp),%edx
    2d78:	8d 65 f4             	lea    -0xc(%ebp),%esp
    2d7b:	89 d0                	mov    %edx,%eax
    2d7d:	5b                   	pop    %ebx
    2d7e:	5e                   	pop    %esi
    2d7f:	5f                   	pop    %edi
    2d80:	5d                   	pop    %ebp
    2d81:	c3                   	ret    
    2d82:	89 ce                	mov    %ecx,%esi
    2d84:	89 d1                	mov    %edx,%ecx
    2d86:	29 d6                	sub    %edx,%esi
    2d88:	e9 1c ff ff ff       	jmp    2ca9 <block_seqread+0xd9>
    2d8d:	8d 76 00             	lea    0x0(%esi),%esi

00002d90 <block_read_direct>:
    2d90:	55                   	push   %ebp
    2d91:	89 e5                	mov    %esp,%ebp
    2d93:	57                   	push   %edi
    2d94:	56                   	push   %esi
    2d95:	53                   	push   %ebx
    2d96:	83 ec 28             	sub    $0x28,%esp
    2d99:	8b 45 08             	mov    0x8(%ebp),%eax
    2d9c:	8b 75 0c             	mov    0xc(%ebp),%esi
    2d9f:	68 98 91 00 00       	push   $0x9198
    2da4:	89 45 e4             	mov    %eax,-0x1c(%ebp)
    2da7:	8b 7d 10             	mov    0x10(%ebp),%edi
    2daa:	e8 51 48 00 00       	call   7600 <fibril_mutex_lock@plt>
    2daf:	8b 1d 94 91 00 00    	mov    0x9194,%ebx
    2db5:	83 c4 10             	add    $0x10,%esp
    2db8:	81 fb 90 91 00 00    	cmp    $0x9190,%ebx
    2dbe:	74 20                	je     2de0 <block_read_direct+0x50>
    2dc0:	8b 45 e4             	mov    -0x1c(%ebp),%eax
    2dc3:	3b 43 08             	cmp    0x8(%ebx),%eax
    2dc6:	75 0d                	jne    2dd5 <block_read_direct+0x45>
    2dc8:	eb 3e                	jmp    2e08 <block_read_direct+0x78>
    2dca:	8d b6 00 00 00 00    	lea    0x0(%esi),%esi
    2dd0:	3b 43 08             	cmp    0x8(%ebx),%eax
    2dd3:	74 33                	je     2e08 <block_read_direct+0x78>
    2dd5:	8b 5b 04             	mov    0x4(%ebx),%ebx
    2dd8:	81 fb 90 91 00 00    	cmp    $0x9190,%ebx
    2dde:	75 f0                	jne    2dd0 <block_read_direct+0x40>
    2de0:	83 ec 0c             	sub    $0xc,%esp
    2de3:	68 98 91 00 00       	push   $0x9198
    2de8:	e8 23 46 00 00       	call   7410 <fibril_mutex_unlock@plt>
    2ded:	83 c4 0c             	add    $0xc,%esp
    2df0:	68 fd 02 00 00       	push   $0x2fd
    2df5:	68 37 6c 00 00       	push   $0x6c37
    2dfa:	68 3f 6c 00 00       	push   $0x6c3f
    2dff:	e8 9c 45 00 00       	call   73a0 <assert_abort@plt>
    2e04:	8d 74 26 00          	lea    0x0(%esi,%eiz,1),%esi
    2e08:	83 ec 0c             	sub    $0xc,%esp
    2e0b:	68 98 91 00 00       	push   $0x9198
    2e10:	e8 fb 45 00 00       	call   7410 <fibril_mutex_unlock@plt>
    2e15:	58                   	pop    %eax
    2e16:	8b 4b 28             	mov    0x28(%ebx),%ecx
    2e19:	8b 45 14             	mov    0x14(%ebp),%eax
    2e1c:	5a                   	pop    %edx
    2e1d:	0f af c1             	imul   %ecx,%eax
    2e20:	50                   	push   %eax
    2e21:	8b 45 18             	mov    0x18(%ebp),%eax
    2e24:	50                   	push   %eax
    2e25:	8b 45 14             	mov    0x14(%ebp),%eax
    2e28:	50                   	push   %eax
    2e29:	8b 43 10             	mov    0x10(%ebx),%eax
    2e2c:	57                   	push   %edi
    2e2d:	56                   	push   %esi
    2e2e:	50                   	push   %eax
    2e2f:	e8 3c 45 00 00       	call   7370 <bd_read_blocks@plt>
    2e34:	83 c4 20             	add    $0x20,%esp
    2e37:	89 c1                	mov    %eax,%ecx
    2e39:	85 c0                	test   %eax,%eax
    2e3b:	74 25                	je     2e62 <block_read_direct+0xd2>
    2e3d:	50                   	push   %eax
    2e3e:	50                   	push   %eax
    2e3f:	8b 53 08             	mov    0x8(%ebx),%edx
    2e42:	8b 5d 14             	mov    0x14(%ebp),%ebx
    2e45:	52                   	push   %edx
    2e46:	57                   	push   %edi
    2e47:	56                   	push   %esi
    2e48:	53                   	push   %ebx
    2e49:	51                   	push   %ecx
    2e4a:	68 88 6c 00 00       	push   $0x6c88
    2e4f:	89 4d e4             	mov    %ecx,-0x1c(%ebp)
    2e52:	e8 99 43 00 00       	call   71f0 <printf@plt>
    2e57:	83 c4 20             	add    $0x20,%esp
    2e5a:	e8 d1 44 00 00       	call   7330 <stacktrace_print@plt>
    2e5f:	8b 4d e4             	mov    -0x1c(%ebp),%ecx
    2e62:	8d 65 f4             	lea    -0xc(%ebp),%esp
    2e65:	89 c8                	mov    %ecx,%eax
    2e67:	5b                   	pop    %ebx
    2e68:	5e                   	pop    %esi
    2e69:	5f                   	pop    %edi
    2e6a:	5d                   	pop    %ebp
    2e6b:	c3                   	ret    
    2e6c:	8d 74 26 00          	lea    0x0(%esi,%eiz,1),%esi

00002e70 <block_write_direct>:
    2e70:	55                   	push   %ebp
    2e71:	89 e5                	mov    %esp,%ebp
    2e73:	57                   	push   %edi
    2e74:	56                   	push   %esi
    2e75:	53                   	push   %ebx
    2e76:	83 ec 28             	sub    $0x28,%esp
    2e79:	8b 45 08             	mov    0x8(%ebp),%eax
    2e7c:	8b 75 0c             	mov    0xc(%ebp),%esi
    2e7f:	68 98 91 00 00       	push   $0x9198
    2e84:	89 45 e4             	mov    %eax,-0x1c(%ebp)
    2e87:	8b 7d 10             	mov    0x10(%ebp),%edi
    2e8a:	e8 71 47 00 00       	call   7600 <fibril_mutex_lock@plt>
    2e8f:	8b 1d 94 91 00 00    	mov    0x9194,%ebx
    2e95:	83 c4 10             	add    $0x10,%esp
    2e98:	81 fb 90 91 00 00    	cmp    $0x9190,%ebx
    2e9e:	74 20                	je     2ec0 <block_write_direct+0x50>
    2ea0:	8b 45 e4             	mov    -0x1c(%ebp),%eax
    2ea3:	3b 43 08             	cmp    0x8(%ebx),%eax
    2ea6:	75 0d                	jne    2eb5 <block_write_direct+0x45>
    2ea8:	eb 3e                	jmp    2ee8 <block_write_direct+0x78>
    2eaa:	8d b6 00 00 00 00    	lea    0x0(%esi),%esi
    2eb0:	3b 43 08             	cmp    0x8(%ebx),%eax
    2eb3:	74 33                	je     2ee8 <block_write_direct+0x78>
    2eb5:	8b 5b 04             	mov    0x4(%ebx),%ebx
    2eb8:	81 fb 90 91 00 00    	cmp    $0x9190,%ebx
    2ebe:	75 f0                	jne    2eb0 <block_write_direct+0x40>
    2ec0:	83 ec 0c             	sub    $0xc,%esp
    2ec3:	68 98 91 00 00       	push   $0x9198
    2ec8:	e8 43 45 00 00       	call   7410 <fibril_mutex_unlock@plt>
    2ecd:	83 c4 0c             	add    $0xc,%esp
    2ed0:	68 11 03 00 00       	push   $0x311
    2ed5:	68 37 6c 00 00       	push   $0x6c37
    2eda:	68 3f 6c 00 00       	push   $0x6c3f
    2edf:	e8 bc 44 00 00       	call   73a0 <assert_abort@plt>
    2ee4:	8d 74 26 00          	lea    0x0(%esi,%eiz,1),%esi
    2ee8:	83 ec 0c             	sub    $0xc,%esp
    2eeb:	68 98 91 00 00       	push   $0x9198
    2ef0:	e8 1b 45 00 00       	call   7410 <fibril_mutex_unlock@plt>
    2ef5:	58                   	pop    %eax
    2ef6:	8b 4b 28             	mov    0x28(%ebx),%ecx
    2ef9:	8b 45 14             	mov    0x14(%ebp),%eax
    2efc:	5a                   	pop    %edx
    2efd:	0f af c1             	imul   %ecx,%eax
    2f00:	50                   	push   %eax
    2f01:	8b 45 18             	mov    0x18(%ebp),%eax
    2f04:	50                   	push   %eax
    2f05:	8b 45 14             	mov    0x14(%ebp),%eax
    2f08:	50                   	push   %eax
    2f09:	8b 43 10             	mov    0x10(%ebx),%eax
    2f0c:	57                   	push   %edi
    2f0d:	56                   	push   %esi
    2f0e:	50                   	push   %eax
    2f0f:	e8 5c 43 00 00       	call   7270 <bd_write_blocks@plt>
    2f14:	83 c4 20             	add    $0x20,%esp
    2f17:	89 c1                	mov    %eax,%ecx
    2f19:	85 c0                	test   %eax,%eax
    2f1b:	74 25                	je     2f42 <block_write_direct+0xd2>
    2f1d:	50                   	push   %eax
    2f1e:	50                   	push   %eax
    2f1f:	8b 53 08             	mov    0x8(%ebx),%edx
    2f22:	8b 5d 14             	mov    0x14(%ebp),%ebx
    2f25:	52                   	push   %edx
    2f26:	57                   	push   %edi
    2f27:	56                   	push   %esi
    2f28:	53                   	push   %ebx
    2f29:	51                   	push   %ecx
    2f2a:	68 d4 6c 00 00       	push   $0x6cd4
    2f2f:	89 4d e4             	mov    %ecx,-0x1c(%ebp)
    2f32:	e8 b9 42 00 00       	call   71f0 <printf@plt>
    2f37:	83 c4 20             	add    $0x20,%esp
    2f3a:	e8 f1 43 00 00       	call   7330 <stacktrace_print@plt>
    2f3f:	8b 4d e4             	mov    -0x1c(%ebp),%ecx
    2f42:	8d 65 f4             	lea    -0xc(%ebp),%esp
    2f45:	89 c8                	mov    %ecx,%eax
    2f47:	5b                   	pop    %ebx
    2f48:	5e                   	pop    %esi
    2f49:	5f                   	pop    %edi
    2f4a:	5d                   	pop    %ebp
    2f4b:	c3                   	ret    
    2f4c:	8d 74 26 00          	lea    0x0(%esi,%eiz,1),%esi

00002f50 <block_sync_cache>:
    2f50:	55                   	push   %ebp
    2f51:	89 e5                	mov    %esp,%ebp
    2f53:	57                   	push   %edi
    2f54:	56                   	push   %esi
    2f55:	53                   	push   %ebx
    2f56:	83 ec 28             	sub    $0x28,%esp
    2f59:	8b 55 08             	mov    0x8(%ebp),%edx
    2f5c:	8b 75 0c             	mov    0xc(%ebp),%esi
    2f5f:	68 98 91 00 00       	push   $0x9198
    2f64:	89 55 e4             	mov    %edx,-0x1c(%ebp)
    2f67:	8b 7d 10             	mov    0x10(%ebp),%edi
    2f6a:	8b 5d 14             	mov    0x14(%ebp),%ebx
    2f6d:	e8 8e 46 00 00       	call   7600 <fibril_mutex_lock@plt>
    2f72:	a1 94 91 00 00       	mov    0x9194,%eax
    2f77:	83 c4 10             	add    $0x10,%esp
    2f7a:	3d 90 91 00 00       	cmp    $0x9190,%eax
    2f7f:	74 1e                	je     2f9f <block_sync_cache+0x4f>
    2f81:	8b 55 e4             	mov    -0x1c(%ebp),%edx
    2f84:	3b 50 08             	cmp    0x8(%eax),%edx
    2f87:	75 0c                	jne    2f95 <block_sync_cache+0x45>
    2f89:	eb 3d                	jmp    2fc8 <block_sync_cache+0x78>
    2f8b:	90                   	nop
    2f8c:	8d 74 26 00          	lea    0x0(%esi,%eiz,1),%esi
    2f90:	3b 50 08             	cmp    0x8(%eax),%edx
    2f93:	74 33                	je     2fc8 <block_sync_cache+0x78>
    2f95:	8b 40 04             	mov    0x4(%eax),%eax
    2f98:	3d 90 91 00 00       	cmp    $0x9190,%eax
    2f9d:	75 f1                	jne    2f90 <block_sync_cache+0x40>
    2f9f:	83 ec 0c             	sub    $0xc,%esp
    2fa2:	68 98 91 00 00       	push   $0x9198
    2fa7:	e8 64 44 00 00       	call   7410 <fibril_mutex_unlock@plt>
    2fac:	83 c4 0c             	add    $0xc,%esp
    2faf:	68 23 03 00 00       	push   $0x323
    2fb4:	68 37 6c 00 00       	push   $0x6c37
    2fb9:	68 3f 6c 00 00       	push   $0x6c3f
    2fbe:	e8 dd 43 00 00       	call   73a0 <assert_abort@plt>
    2fc3:	90                   	nop
    2fc4:	8d 74 26 00          	lea    0x0(%esi,%eiz,1),%esi
    2fc8:	83 ec 0c             	sub    $0xc,%esp
    2fcb:	89 45 e4             	mov    %eax,-0x1c(%ebp)
    2fce:	68 98 91 00 00       	push   $0x9198
    2fd3:	e8 38 44 00 00       	call   7410 <fibril_mutex_unlock@plt>
    2fd8:	8b 45 e4             	mov    -0x1c(%ebp),%eax
    2fdb:	89 5d 14             	mov    %ebx,0x14(%ebp)
    2fde:	89 75 0c             	mov    %esi,0xc(%ebp)
    2fe1:	89 7d 10             	mov    %edi,0x10(%ebp)
    2fe4:	8b 40 10             	mov    0x10(%eax),%eax
    2fe7:	83 c4 10             	add    $0x10,%esp
    2fea:	89 45 08             	mov    %eax,0x8(%ebp)
    2fed:	8d 65 f4             	lea    -0xc(%ebp),%esp
    2ff0:	5b                   	pop    %ebx
    2ff1:	5e                   	pop    %esi
    2ff2:	5f                   	pop    %edi
    2ff3:	5d                   	pop    %ebp
    2ff4:	e9 17 45 00 00       	jmp    7510 <bd_sync_cache@plt>
    2ff9:	8d b4 26 00 00 00 00 	lea    0x0(%esi,%eiz,1),%esi

00003000 <block_get_bsize>:
    3000:	55                   	push   %ebp
    3001:	89 e5                	mov    %esp,%ebp
    3003:	57                   	push   %edi
    3004:	56                   	push   %esi
    3005:	53                   	push   %ebx
    3006:	83 ec 18             	sub    $0x18,%esp
    3009:	8b 75 08             	mov    0x8(%ebp),%esi
    300c:	8b 7d 0c             	mov    0xc(%ebp),%edi
    300f:	68 98 91 00 00       	push   $0x9198
    3014:	e8 e7 45 00 00       	call   7600 <fibril_mutex_lock@plt>
    3019:	8b 1d 94 91 00 00    	mov    0x9194,%ebx
    301f:	83 c4 10             	add    $0x10,%esp
    3022:	81 fb 90 91 00 00    	cmp    $0x9190,%ebx
    3028:	75 11                	jne    303b <block_get_bsize+0x3b>
    302a:	eb 3c                	jmp    3068 <block_get_bsize+0x68>
    302c:	8d 74 26 00          	lea    0x0(%esi,%eiz,1),%esi
    3030:	8b 5b 04             	mov    0x4(%ebx),%ebx
    3033:	81 fb 90 91 00 00    	cmp    $0x9190,%ebx
    3039:	74 2d                	je     3068 <block_get_bsize+0x68>
    303b:	3b 73 08             	cmp    0x8(%ebx),%esi
    303e:	75 f0                	jne    3030 <block_get_bsize+0x30>
    3040:	83 ec 0c             	sub    $0xc,%esp
    3043:	68 98 91 00 00       	push   $0x9198
    3048:	e8 c3 43 00 00       	call   7410 <fibril_mutex_unlock@plt>
    304d:	89 7d 0c             	mov    %edi,0xc(%ebp)
    3050:	83 c4 10             	add    $0x10,%esp
    3053:	8b 43 10             	mov    0x10(%ebx),%eax
    3056:	89 45 08             	mov    %eax,0x8(%ebp)
    3059:	8d 65 f4             	lea    -0xc(%ebp),%esp
    305c:	5b                   	pop    %ebx
    305d:	5e                   	pop    %esi
    305e:	5f                   	pop    %edi
    305f:	5d                   	pop    %ebp
    3060:	e9 7b 44 00 00       	jmp    74e0 <bd_get_block_size@plt>
    3065:	8d 76 00             	lea    0x0(%esi),%esi
    3068:	83 ec 0c             	sub    $0xc,%esp
    306b:	68 98 91 00 00       	push   $0x9198
    3070:	e8 9b 43 00 00       	call   7410 <fibril_mutex_unlock@plt>
    3075:	83 c4 0c             	add    $0xc,%esp
    3078:	68 34 03 00 00       	push   $0x334
    307d:	68 37 6c 00 00       	push   $0x6c37
    3082:	68 3f 6c 00 00       	push   $0x6c3f
    3087:	e8 14 43 00 00       	call   73a0 <assert_abort@plt>
    308c:	8d 74 26 00          	lea    0x0(%esi,%eiz,1),%esi

00003090 <block_get_nblocks>:
    3090:	55                   	push   %ebp
    3091:	89 e5                	mov    %esp,%ebp
    3093:	57                   	push   %edi
    3094:	56                   	push   %esi
    3095:	53                   	push   %ebx
    3096:	83 ec 18             	sub    $0x18,%esp
    3099:	8b 75 08             	mov    0x8(%ebp),%esi
    309c:	8b 7d 0c             	mov    0xc(%ebp),%edi
    309f:	68 98 91 00 00       	push   $0x9198
    30a4:	e8 57 45 00 00       	call   7600 <fibril_mutex_lock@plt>
    30a9:	8b 1d 94 91 00 00    	mov    0x9194,%ebx
    30af:	83 c4 10             	add    $0x10,%esp
    30b2:	81 fb 90 91 00 00    	cmp    $0x9190,%ebx
    30b8:	75 11                	jne    30cb <block_get_nblocks+0x3b>
    30ba:	eb 3c                	jmp    30f8 <block_get_nblocks+0x68>
    30bc:	8d 74 26 00          	lea    0x0(%esi,%eiz,1),%esi
    30c0:	8b 5b 04             	mov    0x4(%ebx),%ebx
    30c3:	81 fb 90 91 00 00    	cmp    $0x9190,%ebx
    30c9:	74 2d                	je     30f8 <block_get_nblocks+0x68>
    30cb:	3b 73 08             	cmp    0x8(%ebx),%esi
    30ce:	75 f0                	jne    30c0 <block_get_nblocks+0x30>
    30d0:	83 ec 0c             	sub    $0xc,%esp
    30d3:	68 98 91 00 00       	push   $0x9198
    30d8:	e8 33 43 00 00       	call   7410 <fibril_mutex_unlock@plt>
    30dd:	89 7d 0c             	mov    %edi,0xc(%ebp)
    30e0:	83 c4 10             	add    $0x10,%esp
    30e3:	8b 43 10             	mov    0x10(%ebx),%eax
    30e6:	89 45 08             	mov    %eax,0x8(%ebp)
    30e9:	8d 65 f4             	lea    -0xc(%ebp),%esp
    30ec:	5b                   	pop    %ebx
    30ed:	5e                   	pop    %esi
    30ee:	5f                   	pop    %edi
    30ef:	5d                   	pop    %ebp
    30f0:	e9 8b 41 00 00       	jmp    7280 <bd_get_num_blocks@plt>
    30f5:	8d 76 00             	lea    0x0(%esi),%esi
    30f8:	83 ec 0c             	sub    $0xc,%esp
    30fb:	68 98 91 00 00       	push   $0x9198
    3100:	e8 0b 43 00 00       	call   7410 <fibril_mutex_unlock@plt>
    3105:	83 c4 0c             	add    $0xc,%esp
    3108:	68 43 03 00 00       	push   $0x343
    310d:	68 37 6c 00 00       	push   $0x6c37
    3112:	68 3f 6c 00 00       	push   $0x6c3f
    3117:	e8 84 42 00 00       	call   73a0 <assert_abort@plt>
    311c:	8d 74 26 00          	lea    0x0(%esi,%eiz,1),%esi

00003120 <block_read_bytes_direct>:
    3120:	55                   	push   %ebp
    3121:	89 e5                	mov    %esp,%ebp
    3123:	57                   	push   %edi
    3124:	56                   	push   %esi
    3125:	53                   	push   %ebx
    3126:	83 ec 48             	sub    $0x48,%esp
    3129:	8b 45 0c             	mov    0xc(%ebp),%eax
    312c:	8b 55 10             	mov    0x10(%ebp),%edx
    312f:	68 98 91 00 00       	push   $0x9198
    3134:	8b 5d 08             	mov    0x8(%ebp),%ebx
    3137:	89 45 d0             	mov    %eax,-0x30(%ebp)
    313a:	89 55 d4             	mov    %edx,-0x2c(%ebp)
    313d:	e8 be 44 00 00       	call   7600 <fibril_mutex_lock@plt>
    3142:	8b 35 94 91 00 00    	mov    0x9194,%esi
    3148:	83 c4 10             	add    $0x10,%esp
    314b:	81 fe 90 91 00 00    	cmp    $0x9190,%esi
    3151:	75 10                	jne    3163 <block_read_bytes_direct+0x43>
    3153:	eb 43                	jmp    3198 <block_read_bytes_direct+0x78>
    3155:	8d 76 00             	lea    0x0(%esi),%esi
    3158:	8b 76 04             	mov    0x4(%esi),%esi
    315b:	81 fe 90 91 00 00    	cmp    $0x9190,%esi
    3161:	74 35                	je     3198 <block_read_bytes_direct+0x78>
    3163:	3b 5e 08             	cmp    0x8(%esi),%ebx
    3166:	75 f0                	jne    3158 <block_read_bytes_direct+0x38>
    3168:	83 ec 0c             	sub    $0xc,%esp
    316b:	68 98 91 00 00       	push   $0x9198
    3170:	e8 9b 42 00 00       	call   7410 <fibril_mutex_unlock@plt>
    3175:	8d 45 e4             	lea    -0x1c(%ebp),%eax
    3178:	59                   	pop    %ecx
    3179:	5f                   	pop    %edi
    317a:	50                   	push   %eax
    317b:	8b 46 10             	mov    0x10(%esi),%eax
    317e:	50                   	push   %eax
    317f:	e8 5c 43 00 00       	call   74e0 <bd_get_block_size@plt>
    3184:	83 c4 10             	add    $0x10,%esp
    3187:	89 c1                	mov    %eax,%ecx
    3189:	85 c0                	test   %eax,%eax
    318b:	74 33                	je     31c0 <block_read_bytes_direct+0xa0>
    318d:	8d 65 f4             	lea    -0xc(%ebp),%esp
    3190:	89 c8                	mov    %ecx,%eax
    3192:	5b                   	pop    %ebx
    3193:	5e                   	pop    %esi
    3194:	5f                   	pop    %edi
    3195:	5d                   	pop    %ebp
    3196:	c3                   	ret    
    3197:	90                   	nop
    3198:	83 ec 0c             	sub    $0xc,%esp
    319b:	68 98 91 00 00       	push   $0x9198
    31a0:	e8 6b 42 00 00       	call   7410 <fibril_mutex_unlock@plt>
    31a5:	83 c4 0c             	add    $0xc,%esp
    31a8:	68 34 03 00 00       	push   $0x334
    31ad:	68 37 6c 00 00       	push   $0x6c37
    31b2:	68 3f 6c 00 00       	push   $0x6c3f
    31b7:	e8 e4 41 00 00       	call   73a0 <assert_abort@plt>
    31bc:	8d 74 26 00          	lea    0x0(%esi,%eiz,1),%esi
    31c0:	8b 75 e4             	mov    -0x1c(%ebp),%esi
    31c3:	31 d2                	xor    %edx,%edx
    31c5:	8b 45 d4             	mov    -0x2c(%ebp),%eax
    31c8:	52                   	push   %edx
    31c9:	56                   	push   %esi
    31ca:	50                   	push   %eax
    31cb:	8b 45 d0             	mov    -0x30(%ebp),%eax
    31ce:	89 75 c8             	mov    %esi,-0x38(%ebp)
    31d1:	50                   	push   %eax
    31d2:	89 55 cc             	mov    %edx,-0x34(%ebp)
    31d5:	e8 86 41 00 00       	call   7360 <__udivdi3@plt>
    31da:	83 c4 10             	add    $0x10,%esp
    31dd:	89 45 c0             	mov    %eax,-0x40(%ebp)
    31e0:	8b 45 14             	mov    0x14(%ebp),%eax
    31e3:	89 55 c4             	mov    %edx,-0x3c(%ebp)
    31e6:	31 d2                	xor    %edx,%edx
    31e8:	03 45 d0             	add    -0x30(%ebp),%eax
    31eb:	8b 4d cc             	mov    -0x34(%ebp),%ecx
    31ee:	13 55 d4             	adc    -0x2c(%ebp),%edx
    31f1:	83 c0 ff             	add    $0xffffffff,%eax
    31f4:	83 d2 ff             	adc    $0xffffffff,%edx
    31f7:	8b 7d c8             	mov    -0x38(%ebp),%edi
    31fa:	51                   	push   %ecx
    31fb:	57                   	push   %edi
    31fc:	52                   	push   %edx
    31fd:	50                   	push   %eax
    31fe:	e8 5d 41 00 00       	call   7360 <__udivdi3@plt>
    3203:	8b 55 c0             	mov    -0x40(%ebp),%edx
    3206:	29 d0                	sub    %edx,%eax
    3208:	40                   	inc    %eax
    3209:	0f af f0             	imul   %eax,%esi
    320c:	89 45 bc             	mov    %eax,-0x44(%ebp)
    320f:	89 34 24             	mov    %esi,(%esp)
    3212:	e8 b9 40 00 00       	call   72d0 <malloc@plt>
    3217:	83 c4 10             	add    $0x10,%esp
    321a:	89 c6                	mov    %eax,%esi
    321c:	85 c0                	test   %eax,%eax
    321e:	0f 84 19 01 00 00    	je     333d <block_read_bytes_direct+0x21d>
    3224:	83 ec 0c             	sub    $0xc,%esp
    3227:	68 98 91 00 00       	push   $0x9198
    322c:	e8 cf 43 00 00       	call   7600 <fibril_mutex_lock@plt>
    3231:	8b 3d 94 91 00 00    	mov    0x9194,%edi
    3237:	83 c4 10             	add    $0x10,%esp
    323a:	81 ff 90 91 00 00    	cmp    $0x9190,%edi
    3240:	75 15                	jne    3257 <block_read_bytes_direct+0x137>
    3242:	e9 91 00 00 00       	jmp    32d8 <block_read_bytes_direct+0x1b8>
    3247:	90                   	nop
    3248:	8b 7f 04             	mov    0x4(%edi),%edi
    324b:	81 ff 90 91 00 00    	cmp    $0x9190,%edi
    3251:	0f 84 81 00 00 00    	je     32d8 <block_read_bytes_direct+0x1b8>
    3257:	3b 5f 08             	cmp    0x8(%edi),%ebx
    325a:	75 ec                	jne    3248 <block_read_bytes_direct+0x128>
    325c:	83 ec 0c             	sub    $0xc,%esp
    325f:	68 98 91 00 00       	push   $0x9198
    3264:	e8 a7 41 00 00       	call   7410 <fibril_mutex_unlock@plt>
    3269:	58                   	pop    %eax
    326a:	8b 47 28             	mov    0x28(%edi),%eax
    326d:	5a                   	pop    %edx
    326e:	8b 55 bc             	mov    -0x44(%ebp),%edx
    3271:	0f af c2             	imul   %edx,%eax
    3274:	50                   	push   %eax
    3275:	56                   	push   %esi
    3276:	8b 4d c4             	mov    -0x3c(%ebp),%ecx
    3279:	8b 5d c0             	mov    -0x40(%ebp),%ebx
    327c:	8b 47 10             	mov    0x10(%edi),%eax
    327f:	52                   	push   %edx
    3280:	51                   	push   %ecx
    3281:	53                   	push   %ebx
    3282:	50                   	push   %eax
    3283:	e8 e8 40 00 00       	call   7370 <bd_read_blocks@plt>
    3288:	83 c4 20             	add    $0x20,%esp
    328b:	89 c1                	mov    %eax,%ecx
    328d:	85 c0                	test   %eax,%eax
    328f:	75 6b                	jne    32fc <block_read_bytes_direct+0x1dc>
    3291:	89 45 c0             	mov    %eax,-0x40(%ebp)
    3294:	8b 55 14             	mov    0x14(%ebp),%edx
    3297:	8b 5d cc             	mov    -0x34(%ebp),%ebx
    329a:	8b 7d c8             	mov    -0x38(%ebp),%edi
    329d:	50                   	push   %eax
    329e:	8b 45 d4             	mov    -0x2c(%ebp),%eax
    32a1:	52                   	push   %edx
    32a2:	51                   	push   %ecx
    32a3:	51                   	push   %ecx
    32a4:	53                   	push   %ebx
    32a5:	57                   	push   %edi
    32a6:	50                   	push   %eax
    32a7:	8b 45 d0             	mov    -0x30(%ebp),%eax
    32aa:	50                   	push   %eax
    32ab:	e8 90 40 00 00       	call   7340 <__umoddi3@plt>
    32b0:	83 c4 18             	add    $0x18,%esp
    32b3:	01 f0                	add    %esi,%eax
    32b5:	50                   	push   %eax
    32b6:	8b 45 18             	mov    0x18(%ebp),%eax
    32b9:	50                   	push   %eax
    32ba:	e8 f1 3f 00 00       	call   72b0 <memcpy@plt>
    32bf:	89 34 24             	mov    %esi,(%esp)
    32c2:	e8 29 43 00 00       	call   75f0 <free@plt>
    32c7:	8b 4d c0             	mov    -0x40(%ebp),%ecx
    32ca:	83 c4 10             	add    $0x10,%esp
    32cd:	8d 65 f4             	lea    -0xc(%ebp),%esp
    32d0:	89 c8                	mov    %ecx,%eax
    32d2:	5b                   	pop    %ebx
    32d3:	5e                   	pop    %esi
    32d4:	5f                   	pop    %edi
    32d5:	5d                   	pop    %ebp
    32d6:	c3                   	ret    
    32d7:	90                   	nop
    32d8:	83 ec 0c             	sub    $0xc,%esp
    32db:	68 98 91 00 00       	push   $0x9198
    32e0:	e8 2b 41 00 00       	call   7410 <fibril_mutex_unlock@plt>
    32e5:	83 c4 0c             	add    $0xc,%esp
    32e8:	68 fd 02 00 00       	push   $0x2fd
    32ed:	68 37 6c 00 00       	push   $0x6c37
    32f2:	68 3f 6c 00 00       	push   $0x6c3f
    32f7:	e8 a4 40 00 00       	call   73a0 <assert_abort@plt>
    32fc:	50                   	push   %eax
    32fd:	50                   	push   %eax
    32fe:	8b 47 08             	mov    0x8(%edi),%eax
    3301:	8b 55 c0             	mov    -0x40(%ebp),%edx
    3304:	50                   	push   %eax
    3305:	8b 5d bc             	mov    -0x44(%ebp),%ebx
    3308:	8b 45 c4             	mov    -0x3c(%ebp),%eax
    330b:	89 4d d0             	mov    %ecx,-0x30(%ebp)
    330e:	50                   	push   %eax
    330f:	52                   	push   %edx
    3310:	53                   	push   %ebx
    3311:	51                   	push   %ecx
    3312:	68 88 6c 00 00       	push   $0x6c88
    3317:	e8 d4 3e 00 00       	call   71f0 <printf@plt>
    331c:	83 c4 20             	add    $0x20,%esp
    331f:	e8 0c 40 00 00       	call   7330 <stacktrace_print@plt>
    3324:	83 ec 0c             	sub    $0xc,%esp
    3327:	56                   	push   %esi
    3328:	e8 c3 42 00 00       	call   75f0 <free@plt>
    332d:	8b 4d d0             	mov    -0x30(%ebp),%ecx
    3330:	83 c4 10             	add    $0x10,%esp
    3333:	8d 65 f4             	lea    -0xc(%ebp),%esp
    3336:	89 c8                	mov    %ecx,%eax
    3338:	5b                   	pop    %ebx
    3339:	5e                   	pop    %esi
    333a:	5f                   	pop    %edi
    333b:	5d                   	pop    %ebp
    333c:	c3                   	ret    
    333d:	b9 fe ff ff ff       	mov    $0xfffffffe,%ecx
    3342:	e9 46 fe ff ff       	jmp    318d <block_read_bytes_direct+0x6d>
    3347:	89 f6                	mov    %esi,%esi
    3349:	8d bc 27 00 00 00 00 	lea    0x0(%edi,%eiz,1),%edi

00003350 <block_read_toc>:
    3350:	55                   	push   %ebp
    3351:	89 e5                	mov    %esp,%ebp
    3353:	57                   	push   %edi
    3354:	56                   	push   %esi
    3355:	53                   	push   %ebx
    3356:	83 ec 28             	sub    $0x28,%esp
    3359:	8b 55 08             	mov    0x8(%ebp),%edx
    335c:	8b 5d 0c             	mov    0xc(%ebp),%ebx
    335f:	68 98 91 00 00       	push   $0x9198
    3364:	89 55 e4             	mov    %edx,-0x1c(%ebp)
    3367:	8b 75 10             	mov    0x10(%ebp),%esi
    336a:	8b 7d 14             	mov    0x14(%ebp),%edi
    336d:	e8 8e 42 00 00       	call   7600 <fibril_mutex_lock@plt>
    3372:	a1 94 91 00 00       	mov    0x9194,%eax
    3377:	83 c4 10             	add    $0x10,%esp
    337a:	3d 90 91 00 00       	cmp    $0x9190,%eax
    337f:	74 1e                	je     339f <block_read_toc+0x4f>
    3381:	8b 55 e4             	mov    -0x1c(%ebp),%edx
    3384:	3b 50 08             	cmp    0x8(%eax),%edx
    3387:	75 0c                	jne    3395 <block_read_toc+0x45>
    3389:	eb 3d                	jmp    33c8 <block_read_toc+0x78>
    338b:	90                   	nop
    338c:	8d 74 26 00          	lea    0x0(%esi,%eiz,1),%esi
    3390:	3b 50 08             	cmp    0x8(%eax),%edx
    3393:	74 33                	je     33c8 <block_read_toc+0x78>
    3395:	8b 40 04             	mov    0x4(%eax),%eax
    3398:	3d 90 91 00 00       	cmp    $0x9190,%eax
    339d:	75 f1                	jne    3390 <block_read_toc+0x40>
    339f:	83 ec 0c             	sub    $0xc,%esp
    33a2:	68 98 91 00 00       	push   $0x9198
    33a7:	e8 64 40 00 00       	call   7410 <fibril_mutex_unlock@plt>
    33ac:	83 c4 0c             	add    $0xc,%esp
    33af:	68 8a 03 00 00       	push   $0x38a
    33b4:	68 37 6c 00 00       	push   $0x6c37
    33b9:	68 3f 6c 00 00       	push   $0x6c3f
    33be:	e8 dd 3f 00 00       	call   73a0 <assert_abort@plt>
    33c3:	90                   	nop
    33c4:	8d 74 26 00          	lea    0x0(%esi,%eiz,1),%esi
    33c8:	83 ec 0c             	sub    $0xc,%esp
    33cb:	89 45 e4             	mov    %eax,-0x1c(%ebp)
    33ce:	81 e3 ff 00 00 00    	and    $0xff,%ebx
    33d4:	68 98 91 00 00       	push   $0x9198
    33d9:	e8 32 40 00 00       	call   7410 <fibril_mutex_unlock@plt>
    33de:	8b 45 e4             	mov    -0x1c(%ebp),%eax
    33e1:	89 7d 14             	mov    %edi,0x14(%ebp)
    33e4:	89 75 10             	mov    %esi,0x10(%ebp)
    33e7:	89 5d 0c             	mov    %ebx,0xc(%ebp)
    33ea:	8b 40 10             	mov    0x10(%eax),%eax
    33ed:	83 c4 10             	add    $0x10,%esp
    33f0:	89 45 08             	mov    %eax,0x8(%ebp)
    33f3:	8d 65 f4             	lea    -0xc(%ebp),%esp
    33f6:	5b                   	pop    %ebx
    33f7:	5e                   	pop    %esi
    33f8:	5f                   	pop    %edi
    33f9:	5d                   	pop    %ebp
    33fa:	e9 f1 3f 00 00       	jmp    73f0 <bd_read_toc@plt>

000033ff <write_blocks.part.3>:
    33ff:	55                   	push   %ebp
    3400:	89 e5                	mov    %esp,%ebp
    3402:	83 ec 0c             	sub    $0xc,%esp
    3405:	68 b5 03 00 00       	push   $0x3b5
    340a:	68 37 6c 00 00       	push   $0x6c37
    340f:	68 3f 6c 00 00       	push   $0x6c3f
    3414:	e8 87 3f 00 00       	call   73a0 <assert_abort@plt>
    3419:	66 90                	xchg   %ax,%ax
    341b:	66 90                	xchg   %ax,%ax
    341d:	66 90                	xchg   %ax,%ax
    341f:	90                   	nop

00003420 <fdisk_part_add>:
    3420:	55                   	push   %ebp
    3421:	89 e5                	mov    %esp,%ebp
    3423:	57                   	push   %edi
    3424:	56                   	push   %esi
    3425:	53                   	push   %ebx
    3426:	83 ec 74             	sub    $0x74,%esp
    3429:	89 c7                	mov    %eax,%edi
    342b:	89 d6                	mov    %edx,%esi
    342d:	89 55 a0             	mov    %edx,-0x60(%ebp)
    3430:	6a 5c                	push   $0x5c
    3432:	89 4d 9c             	mov    %ecx,-0x64(%ebp)
    3435:	6a 01                	push   $0x1
    3437:	e8 74 3f 00 00       	call   73b0 <calloc@plt>
    343c:	83 c4 10             	add    $0x10,%esp
    343f:	85 c0                	test   %eax,%eax
    3441:	0f 84 12 03 00 00    	je     3759 <fdisk_part_add+0x339>
    3447:	89 c3                	mov    %eax,%ebx
    3449:	50                   	push   %eax
    344a:	8d 45 cc             	lea    -0x34(%ebp),%eax
    344d:	50                   	push   %eax
    344e:	8b 07                	mov    (%edi),%eax
    3450:	56                   	push   %esi
    3451:	8b 40 04             	mov    0x4(%eax),%eax
    3454:	50                   	push   %eax
    3455:	e8 a6 3f 00 00       	call   7400 <vbd_part_get_info@plt>
    345a:	83 c4 10             	add    $0x10,%esp
    345d:	89 45 a4             	mov    %eax,-0x5c(%ebp)
    3460:	85 c0                	test   %eax,%eax
    3462:	0f 85 88 02 00 00    	jne    36f0 <fdisk_part_add+0x2d0>
    3468:	8b 45 e4             	mov    -0x1c(%ebp),%eax
    346b:	85 c0                	test   %eax,%eax
    346d:	0f 85 9d 01 00 00    	jne    3610 <fdisk_part_add+0x1f0>
    3473:	8b 55 d8             	mov    -0x28(%ebp),%edx
    3476:	8b 4d d4             	mov    -0x2c(%ebp),%ecx
    3479:	89 55 a8             	mov    %edx,-0x58(%ebp)
    347c:	89 53 4c             	mov    %edx,0x4c(%ebx)
    347f:	8b 55 dc             	mov    -0x24(%ebp),%edx
    3482:	8b 75 cc             	mov    -0x34(%ebp),%esi
    3485:	89 4d b0             	mov    %ecx,-0x50(%ebp)
    3488:	89 4b 48             	mov    %ecx,0x48(%ebx)
    348b:	89 55 90             	mov    %edx,-0x70(%ebp)
    348e:	8b 4d e0             	mov    -0x20(%ebp),%ecx
    3491:	89 53 50             	mov    %edx,0x50(%ebx)
    3494:	8b 55 d0             	mov    -0x30(%ebp),%edx
    3497:	89 3b                	mov    %edi,(%ebx)
    3499:	89 73 44             	mov    %esi,0x44(%ebx)
    349c:	89 4d 94             	mov    %ecx,-0x6c(%ebp)
    349f:	89 4b 54             	mov    %ecx,0x54(%ebx)
    34a2:	89 55 98             	mov    %edx,-0x68(%ebp)
    34a5:	89 53 34             	mov    %edx,0x34(%ebx)
    34a8:	89 43 58             	mov    %eax,0x58(%ebx)
    34ab:	83 fa 01             	cmp    $0x1,%edx
    34ae:	0f 86 cc 00 00 00    	jbe    3580 <fdisk_part_add+0x160>
    34b4:	83 fa 02             	cmp    $0x2,%edx
    34b7:	0f 85 a3 00 00 00    	jne    3560 <fdisk_part_add+0x140>
    34bd:	8b 47 24             	mov    0x24(%edi),%eax
    34c0:	8d 77 20             	lea    0x20(%edi),%esi
    34c3:	39 f0                	cmp    %esi,%eax
    34c5:	0f 84 47 02 00 00    	je     3712 <fdisk_part_add+0x2f2>
    34cb:	85 c0                	test   %eax,%eax
    34cd:	0f 84 3f 02 00 00    	je     3712 <fdisk_part_add+0x2f2>
    34d3:	8d 50 e4             	lea    -0x1c(%eax),%edx
    34d6:	8b 4d a8             	mov    -0x58(%ebp),%ecx
    34d9:	3b 4a 4c             	cmp    0x4c(%edx),%ecx
    34dc:	0f 83 ce 01 00 00    	jae    36b0 <fdisk_part_add+0x290>
    34e2:	8d b6 00 00 00 00    	lea    0x0(%esi),%esi
    34e8:	8d 4a 1c             	lea    0x1c(%edx),%ecx
    34eb:	8d 43 1c             	lea    0x1c(%ebx),%eax
    34ee:	89 4b 20             	mov    %ecx,0x20(%ebx)
    34f1:	8b 4a 1c             	mov    0x1c(%edx),%ecx
    34f4:	89 4b 1c             	mov    %ecx,0x1c(%ebx)
    34f7:	8b 4a 1c             	mov    0x1c(%edx),%ecx
    34fa:	89 41 04             	mov    %eax,0x4(%ecx)
    34fd:	89 42 1c             	mov    %eax,0x1c(%edx)
    3500:	8d 57 08             	lea    0x8(%edi),%edx
    3503:	8d 43 04             	lea    0x4(%ebx),%eax
    3506:	89 53 08             	mov    %edx,0x8(%ebx)
    3509:	8b 57 08             	mov    0x8(%edi),%edx
    350c:	89 53 04             	mov    %edx,0x4(%ebx)
    350f:	89 42 04             	mov    %eax,0x4(%edx)
    3512:	89 47 08             	mov    %eax,0x8(%edi)
    3515:	8d 43 24             	lea    0x24(%ebx),%eax
    3518:	8b 55 94             	mov    -0x6c(%ebp),%edx
    351b:	50                   	push   %eax
    351c:	8b 4d 90             	mov    -0x70(%ebp),%ecx
    351f:	8b 47 44             	mov    0x44(%edi),%eax
    3522:	50                   	push   %eax
    3523:	52                   	push   %edx
    3524:	51                   	push   %ecx
    3525:	e8 76 29 00 00       	call   5ea0 <fdisk_cap_from_blocks>
    352a:	8b 45 a0             	mov    -0x60(%ebp),%eax
    352d:	83 c4 10             	add    $0x10,%esp
    3530:	89 43 40             	mov    %eax,0x40(%ebx)
    3533:	8b 45 9c             	mov    -0x64(%ebp),%eax
    3536:	85 c0                	test   %eax,%eax
    3538:	74 02                	je     353c <fdisk_part_add+0x11c>
    353a:	89 18                	mov    %ebx,(%eax)
    353c:	8b 45 a4             	mov    -0x5c(%ebp),%eax
    353f:	8d 65 f4             	lea    -0xc(%ebp),%esp
    3542:	5b                   	pop    %ebx
    3543:	5e                   	pop    %esi
    3544:	5f                   	pop    %edi
    3545:	5d                   	pop    %ebp
    3546:	c3                   	ret    
    3547:	90                   	nop
    3548:	8d 4a 0c             	lea    0xc(%edx),%ecx
    354b:	8d 43 0c             	lea    0xc(%ebx),%eax
    354e:	89 4b 10             	mov    %ecx,0x10(%ebx)
    3551:	8b 4a 0c             	mov    0xc(%edx),%ecx
    3554:	89 4b 0c             	mov    %ecx,0xc(%ebx)
    3557:	8b 4a 0c             	mov    0xc(%edx),%ecx
    355a:	89 41 04             	mov    %eax,0x4(%ecx)
    355d:	89 42 0c             	mov    %eax,0xc(%edx)
    3560:	8d 57 08             	lea    0x8(%edi),%edx
    3563:	8d 43 04             	lea    0x4(%ebx),%eax
    3566:	89 53 08             	mov    %edx,0x8(%ebx)
    3569:	8b 57 08             	mov    0x8(%edi),%edx
    356c:	89 53 04             	mov    %edx,0x4(%ebx)
    356f:	83 7d 98 01          	cmpl   $0x1,-0x68(%ebp)
    3573:	89 42 04             	mov    %eax,0x4(%edx)
    3576:	89 47 08             	mov    %eax,0x8(%edi)
    3579:	75 9a                	jne    3515 <fdisk_part_add+0xf5>
    357b:	89 5f 28             	mov    %ebx,0x28(%edi)
    357e:	eb 95                	jmp    3515 <fdisk_part_add+0xf5>
    3580:	8d 4f 18             	lea    0x18(%edi),%ecx
    3583:	8b 47 1c             	mov    0x1c(%edi),%eax
    3586:	89 4d b4             	mov    %ecx,-0x4c(%ebp)
    3589:	39 c8                	cmp    %ecx,%eax
    358b:	0f 84 b1 01 00 00    	je     3742 <fdisk_part_add+0x322>
    3591:	85 c0                	test   %eax,%eax
    3593:	0f 84 a9 01 00 00    	je     3742 <fdisk_part_add+0x322>
    3599:	8d 50 ec             	lea    -0x14(%eax),%edx
    359c:	8b 4d a8             	mov    -0x58(%ebp),%ecx
    359f:	3b 4a 4c             	cmp    0x4c(%edx),%ecx
    35a2:	0f 83 b8 00 00 00    	jae    3660 <fdisk_part_add+0x240>
    35a8:	8d 4a 14             	lea    0x14(%edx),%ecx
    35ab:	8d 43 14             	lea    0x14(%ebx),%eax
    35ae:	89 4b 18             	mov    %ecx,0x18(%ebx)
    35b1:	8b 4a 14             	mov    0x14(%edx),%ecx
    35b4:	89 4b 14             	mov    %ecx,0x14(%ebx)
    35b7:	8b 4a 14             	mov    0x14(%edx),%ecx
    35ba:	89 41 04             	mov    %eax,0x4(%ecx)
    35bd:	89 42 14             	mov    %eax,0x14(%edx)
    35c0:	8b 47 14             	mov    0x14(%edi),%eax
    35c3:	8d 4f 10             	lea    0x10(%edi),%ecx
    35c6:	39 c8                	cmp    %ecx,%eax
    35c8:	74 2d                	je     35f7 <fdisk_part_add+0x1d7>
    35ca:	85 c0                	test   %eax,%eax
    35cc:	74 29                	je     35f7 <fdisk_part_add+0x1d7>
    35ce:	8d 50 f4             	lea    -0xc(%eax),%edx
    35d1:	3b 72 44             	cmp    0x44(%edx),%esi
    35d4:	7d 1a                	jge    35f0 <fdisk_part_add+0x1d0>
    35d6:	e9 6d ff ff ff       	jmp    3548 <fdisk_part_add+0x128>
    35db:	90                   	nop
    35dc:	8d 74 26 00          	lea    0x0(%esi,%eiz,1),%esi
    35e0:	85 c0                	test   %eax,%eax
    35e2:	74 13                	je     35f7 <fdisk_part_add+0x1d7>
    35e4:	8d 50 f4             	lea    -0xc(%eax),%edx
    35e7:	3b 70 38             	cmp    0x38(%eax),%esi
    35ea:	0f 8c 58 ff ff ff    	jl     3548 <fdisk_part_add+0x128>
    35f0:	8b 40 04             	mov    0x4(%eax),%eax
    35f3:	39 c1                	cmp    %eax,%ecx
    35f5:	75 e9                	jne    35e0 <fdisk_part_add+0x1c0>
    35f7:	8b 57 10             	mov    0x10(%edi),%edx
    35fa:	8d 43 0c             	lea    0xc(%ebx),%eax
    35fd:	89 4b 10             	mov    %ecx,0x10(%ebx)
    3600:	89 53 0c             	mov    %edx,0xc(%ebx)
    3603:	89 42 04             	mov    %eax,0x4(%edx)
    3606:	89 47 10             	mov    %eax,0x10(%edi)
    3609:	e9 52 ff ff ff       	jmp    3560 <fdisk_part_add+0x140>
    360e:	66 90                	xchg   %ax,%ax
    3610:	52                   	push   %edx
    3611:	52                   	push   %edx
    3612:	50                   	push   %eax
    3613:	8b 07                	mov    (%edi),%eax
    3615:	8b 08                	mov    (%eax),%ecx
    3617:	51                   	push   %ecx
    3618:	e8 b3 3e 00 00       	call   74d0 <vol_part_add@plt>
    361d:	83 c4 10             	add    $0x10,%esp
    3620:	85 c0                	test   %eax,%eax
    3622:	74 09                	je     362d <fdisk_part_add+0x20d>
    3624:	83 f8 f7             	cmp    $0xfffffff7,%eax
    3627:	0f 85 c3 00 00 00    	jne    36f0 <fdisk_part_add+0x2d0>
    362d:	8d 45 c4             	lea    -0x3c(%ebp),%eax
    3630:	56                   	push   %esi
    3631:	50                   	push   %eax
    3632:	8b 45 e4             	mov    -0x1c(%ebp),%eax
    3635:	50                   	push   %eax
    3636:	8b 07                	mov    (%edi),%eax
    3638:	8b 00                	mov    (%eax),%eax
    363a:	50                   	push   %eax
    363b:	e8 60 3f 00 00       	call   75a0 <vol_part_info@plt>
    3640:	83 c4 10             	add    $0x10,%esp
    3643:	85 c0                	test   %eax,%eax
    3645:	0f 85 a5 00 00 00    	jne    36f0 <fdisk_part_add+0x2d0>
    364b:	8b 45 c4             	mov    -0x3c(%ebp),%eax
    364e:	89 43 38             	mov    %eax,0x38(%ebx)
    3651:	8b 45 c8             	mov    -0x38(%ebp),%eax
    3654:	89 43 3c             	mov    %eax,0x3c(%ebx)
    3657:	8b 45 e4             	mov    -0x1c(%ebp),%eax
    365a:	e9 14 fe ff ff       	jmp    3473 <fdisk_part_add+0x53>
    365f:	90                   	nop
    3660:	77 0c                	ja     366e <fdisk_part_add+0x24e>
    3662:	8b 4d b0             	mov    -0x50(%ebp),%ecx
    3665:	3b 4a 48             	cmp    0x48(%edx),%ecx
    3668:	0f 82 3a ff ff ff    	jb     35a8 <fdisk_part_add+0x188>
    366e:	8b 40 04             	mov    0x4(%eax),%eax
    3671:	39 45 b4             	cmp    %eax,-0x4c(%ebp)
    3674:	0f 84 c5 00 00 00    	je     373f <fdisk_part_add+0x31f>
    367a:	89 5d ac             	mov    %ebx,-0x54(%ebp)
    367d:	8b 4d a8             	mov    -0x58(%ebp),%ecx
    3680:	85 c0                	test   %eax,%eax
    3682:	0f 84 b4 00 00 00    	je     373c <fdisk_part_add+0x31c>
    3688:	8d 50 ec             	lea    -0x14(%eax),%edx
    368b:	3b 4a 4c             	cmp    0x4c(%edx),%ecx
    368e:	0f 87 9c 00 00 00    	ja     3730 <fdisk_part_add+0x310>
    3694:	72 0c                	jb     36a2 <fdisk_part_add+0x282>
    3696:	8b 5d b0             	mov    -0x50(%ebp),%ebx
    3699:	3b 5a 48             	cmp    0x48(%edx),%ebx
    369c:	0f 83 8e 00 00 00    	jae    3730 <fdisk_part_add+0x310>
    36a2:	8b 5d ac             	mov    -0x54(%ebp),%ebx
    36a5:	e9 fe fe ff ff       	jmp    35a8 <fdisk_part_add+0x188>
    36aa:	8d b6 00 00 00 00    	lea    0x0(%esi),%esi
    36b0:	77 0c                	ja     36be <fdisk_part_add+0x29e>
    36b2:	8b 4d b0             	mov    -0x50(%ebp),%ecx
    36b5:	3b 4a 48             	cmp    0x48(%edx),%ecx
    36b8:	0f 82 2a fe ff ff    	jb     34e8 <fdisk_part_add+0xc8>
    36be:	8b 40 04             	mov    0x4(%eax),%eax
    36c1:	39 c6                	cmp    %eax,%esi
    36c3:	74 4d                	je     3712 <fdisk_part_add+0x2f2>
    36c5:	89 5d b4             	mov    %ebx,-0x4c(%ebp)
    36c8:	8b 4d a8             	mov    -0x58(%ebp),%ecx
    36cb:	90                   	nop
    36cc:	8d 74 26 00          	lea    0x0(%esi,%eiz,1),%esi
    36d0:	85 c0                	test   %eax,%eax
    36d2:	74 3b                	je     370f <fdisk_part_add+0x2ef>
    36d4:	8d 50 e4             	lea    -0x1c(%eax),%edx
    36d7:	3b 4a 4c             	cmp    0x4c(%edx),%ecx
    36da:	77 2c                	ja     3708 <fdisk_part_add+0x2e8>
    36dc:	72 08                	jb     36e6 <fdisk_part_add+0x2c6>
    36de:	8b 5d b0             	mov    -0x50(%ebp),%ebx
    36e1:	3b 5a 48             	cmp    0x48(%edx),%ebx
    36e4:	73 22                	jae    3708 <fdisk_part_add+0x2e8>
    36e6:	8b 5d b4             	mov    -0x4c(%ebp),%ebx
    36e9:	e9 fa fd ff ff       	jmp    34e8 <fdisk_part_add+0xc8>
    36ee:	66 90                	xchg   %ax,%ax
    36f0:	83 ec 0c             	sub    $0xc,%esp
    36f3:	53                   	push   %ebx
    36f4:	e8 f7 3e 00 00       	call   75f0 <free@plt>
    36f9:	83 c4 10             	add    $0x10,%esp
    36fc:	c7 45 a4 f6 fe ff ff 	movl   $0xfffffef6,-0x5c(%ebp)
    3703:	e9 34 fe ff ff       	jmp    353c <fdisk_part_add+0x11c>
    3708:	8b 40 04             	mov    0x4(%eax),%eax
    370b:	39 c6                	cmp    %eax,%esi
    370d:	75 c1                	jne    36d0 <fdisk_part_add+0x2b0>
    370f:	8b 5d b4             	mov    -0x4c(%ebp),%ebx
    3712:	8b 57 20             	mov    0x20(%edi),%edx
    3715:	8d 43 1c             	lea    0x1c(%ebx),%eax
    3718:	89 73 20             	mov    %esi,0x20(%ebx)
    371b:	89 53 1c             	mov    %edx,0x1c(%ebx)
    371e:	89 42 04             	mov    %eax,0x4(%edx)
    3721:	89 47 20             	mov    %eax,0x20(%edi)
    3724:	e9 d7 fd ff ff       	jmp    3500 <fdisk_part_add+0xe0>
    3729:	8d b4 26 00 00 00 00 	lea    0x0(%esi,%eiz,1),%esi
    3730:	8b 40 04             	mov    0x4(%eax),%eax
    3733:	39 45 b4             	cmp    %eax,-0x4c(%ebp)
    3736:	0f 85 44 ff ff ff    	jne    3680 <fdisk_part_add+0x260>
    373c:	8b 5d ac             	mov    -0x54(%ebp),%ebx
    373f:	8b 4d b4             	mov    -0x4c(%ebp),%ecx
    3742:	8b 57 18             	mov    0x18(%edi),%edx
    3745:	8d 43 14             	lea    0x14(%ebx),%eax
    3748:	89 4b 18             	mov    %ecx,0x18(%ebx)
    374b:	89 53 14             	mov    %edx,0x14(%ebx)
    374e:	89 42 04             	mov    %eax,0x4(%edx)
    3751:	89 47 18             	mov    %eax,0x18(%edi)
    3754:	e9 67 fe ff ff       	jmp    35c0 <fdisk_part_add+0x1a0>
    3759:	c7 45 a4 fe ff ff ff 	movl   $0xfffffffe,-0x5c(%ebp)
    3760:	e9 d7 fd ff ff       	jmp    353c <fdisk_part_add+0x11c>
    3765:	8d 74 26 00          	lea    0x0(%esi,%eiz,1),%esi
    3769:	8d bc 27 00 00 00 00 	lea    0x0(%edi,%eiz,1),%edi

00003770 <fdisk_part_get_max_free_range>:
    3770:	55                   	push   %ebp
    3771:	89 e5                	mov    %esp,%ebp
    3773:	57                   	push   %edi
    3774:	56                   	push   %esi
    3775:	53                   	push   %ebx
    3776:	83 ec 4c             	sub    $0x4c,%esp
    3779:	89 c7                	mov    %eax,%edi
    377b:	89 45 ac             	mov    %eax,-0x54(%ebp)
    377e:	89 55 cc             	mov    %edx,-0x34(%ebp)
    3781:	89 4d a8             	mov    %ecx,-0x58(%ebp)
    3784:	85 d2                	test   %edx,%edx
    3786:	0f 85 4c 02 00 00    	jne    39d8 <fdisk_part_get_max_free_range+0x268>
    378c:	8b 40 50             	mov    0x50(%eax),%eax
    378f:	8b 57 54             	mov    0x54(%edi),%edx
    3792:	89 c3                	mov    %eax,%ebx
    3794:	89 45 d0             	mov    %eax,-0x30(%ebp)
    3797:	03 47 34             	add    0x34(%edi),%eax
    379a:	89 d6                	mov    %edx,%esi
    379c:	89 55 d4             	mov    %edx,-0x2c(%ebp)
    379f:	13 57 38             	adc    0x38(%edi),%edx
    37a2:	83 c0 ff             	add    $0xffffffff,%eax
    37a5:	83 d2 ff             	adc    $0xffffffff,%edx
    37a8:	56                   	push   %esi
    37a9:	53                   	push   %ebx
    37aa:	52                   	push   %edx
    37ab:	50                   	push   %eax
    37ac:	e8 af 3b 00 00       	call   7360 <__udivdi3@plt>
    37b1:	89 f1                	mov    %esi,%ecx
    37b3:	83 c4 10             	add    $0x10,%esp
    37b6:	0f af d3             	imul   %ebx,%edx
    37b9:	0f af c8             	imul   %eax,%ecx
    37bc:	01 d1                	add    %edx,%ecx
    37be:	f7 e3                	mul    %ebx
    37c0:	89 55 e4             	mov    %edx,-0x1c(%ebp)
    37c3:	89 45 e0             	mov    %eax,-0x20(%ebp)
    37c6:	8b 75 e4             	mov    -0x1c(%ebp),%esi
    37c9:	89 f8                	mov    %edi,%eax
    37cb:	01 ce                	add    %ecx,%esi
    37cd:	8b 5f 1c             	mov    0x1c(%edi),%ebx
    37d0:	83 c0 18             	add    $0x18,%eax
    37d3:	89 75 e4             	mov    %esi,-0x1c(%ebp)
    37d6:	39 c3                	cmp    %eax,%ebx
    37d8:	0f 84 77 02 00 00    	je     3a55 <fdisk_part_get_max_free_range+0x2e5>
    37de:	85 db                	test   %ebx,%ebx
    37e0:	0f 84 6f 02 00 00    	je     3a55 <fdisk_part_get_max_free_range+0x2e5>
    37e6:	83 eb 14             	sub    $0x14,%ebx
    37e9:	8b 45 d0             	mov    -0x30(%ebp),%eax
    37ec:	8b 55 d4             	mov    -0x2c(%ebp),%edx
    37ef:	83 c0 ff             	add    $0xffffffff,%eax
    37f2:	c7 45 c8 00 00 00 00 	movl   $0x0,-0x38(%ebp)
    37f9:	89 45 c0             	mov    %eax,-0x40(%ebp)
    37fc:	8b 45 ac             	mov    -0x54(%ebp),%eax
    37ff:	83 d2 ff             	adc    $0xffffffff,%edx
    3802:	c7 45 d8 00 00 00 00 	movl   $0x0,-0x28(%ebp)
    3809:	8d 78 20             	lea    0x20(%eax),%edi
    380c:	83 c0 18             	add    $0x18,%eax
    380f:	89 45 b8             	mov    %eax,-0x48(%ebp)
    3812:	c7 45 b0 00 00 00 00 	movl   $0x0,-0x50(%ebp)
    3819:	c7 45 b4 00 00 00 00 	movl   $0x0,-0x4c(%ebp)
    3820:	89 55 c4             	mov    %edx,-0x3c(%ebp)
    3823:	89 7d bc             	mov    %edi,-0x44(%ebp)
    3826:	89 5d dc             	mov    %ebx,-0x24(%ebp)
    3829:	89 d8                	mov    %ebx,%eax
    382b:	85 c0                	test   %eax,%eax
    382d:	0f 84 c5 00 00 00    	je     38f8 <fdisk_part_get_max_free_range+0x188>
    3833:	8b 70 48             	mov    0x48(%eax),%esi
    3836:	8b 78 4c             	mov    0x4c(%eax),%edi
    3839:	8b 55 d0             	mov    -0x30(%ebp),%edx
    383c:	8b 45 d4             	mov    -0x2c(%ebp),%eax
    383f:	50                   	push   %eax
    3840:	52                   	push   %edx
    3841:	57                   	push   %edi
    3842:	56                   	push   %esi
    3843:	e8 f8 3a 00 00       	call   7340 <__umoddi3@plt>
    3848:	89 f1                	mov    %esi,%ecx
    384a:	83 c4 10             	add    $0x10,%esp
    384d:	89 fb                	mov    %edi,%ebx
    384f:	29 c1                	sub    %eax,%ecx
    3851:	19 d3                	sbb    %edx,%ebx
    3853:	89 c8                	mov    %ecx,%eax
    3855:	89 da                	mov    %ebx,%edx
    3857:	8b 5d e4             	mov    -0x1c(%ebp),%ebx
    385a:	8b 4d e0             	mov    -0x20(%ebp),%ecx
    385d:	39 da                	cmp    %ebx,%edx
    385f:	72 2a                	jb     388b <fdisk_part_get_max_free_range+0x11b>
    3861:	77 04                	ja     3867 <fdisk_part_get_max_free_range+0xf7>
    3863:	39 c8                	cmp    %ecx,%eax
    3865:	72 24                	jb     388b <fdisk_part_get_max_free_range+0x11b>
    3867:	2b 45 e0             	sub    -0x20(%ebp),%eax
    386a:	1b 55 e4             	sbb    -0x1c(%ebp),%edx
    386d:	39 55 d8             	cmp    %edx,-0x28(%ebp)
    3870:	72 07                	jb     3879 <fdisk_part_get_max_free_range+0x109>
    3872:	77 17                	ja     388b <fdisk_part_get_max_free_range+0x11b>
    3874:	39 45 c8             	cmp    %eax,-0x38(%ebp)
    3877:	73 12                	jae    388b <fdisk_part_get_max_free_range+0x11b>
    3879:	89 45 c8             	mov    %eax,-0x38(%ebp)
    387c:	89 55 d8             	mov    %edx,-0x28(%ebp)
    387f:	8b 45 e0             	mov    -0x20(%ebp),%eax
    3882:	8b 55 e4             	mov    -0x1c(%ebp),%edx
    3885:	89 45 b0             	mov    %eax,-0x50(%ebp)
    3888:	89 55 b4             	mov    %edx,-0x4c(%ebp)
    388b:	8b 45 dc             	mov    -0x24(%ebp),%eax
    388e:	03 75 c0             	add    -0x40(%ebp),%esi
    3891:	13 7d c4             	adc    -0x3c(%ebp),%edi
    3894:	03 70 50             	add    0x50(%eax),%esi
    3897:	13 78 54             	adc    0x54(%eax),%edi
    389a:	8b 55 d0             	mov    -0x30(%ebp),%edx
    389d:	8b 45 d4             	mov    -0x2c(%ebp),%eax
    38a0:	50                   	push   %eax
    38a1:	52                   	push   %edx
    38a2:	57                   	push   %edi
    38a3:	56                   	push   %esi
    38a4:	e8 b7 3a 00 00       	call   7360 <__udivdi3@plt>
    38a9:	8b 7d d4             	mov    -0x2c(%ebp),%edi
    38ac:	89 c3                	mov    %eax,%ebx
    38ae:	8b 75 d0             	mov    -0x30(%ebp),%esi
    38b1:	89 f9                	mov    %edi,%ecx
    38b3:	89 d8                	mov    %ebx,%eax
    38b5:	0f af d6             	imul   %esi,%edx
    38b8:	0f af cb             	imul   %ebx,%ecx
    38bb:	01 d1                	add    %edx,%ecx
    38bd:	83 c4 10             	add    $0x10,%esp
    38c0:	f7 e6                	mul    %esi
    38c2:	89 55 e4             	mov    %edx,-0x1c(%ebp)
    38c5:	8b 75 cc             	mov    -0x34(%ebp),%esi
    38c8:	8b 5d e4             	mov    -0x1c(%ebp),%ebx
    38cb:	89 45 e0             	mov    %eax,-0x20(%ebp)
    38ce:	01 cb                	add    %ecx,%ebx
    38d0:	8b 45 dc             	mov    -0x24(%ebp),%eax
    38d3:	89 5d e4             	mov    %ebx,-0x1c(%ebp)
    38d6:	85 f6                	test   %esi,%esi
    38d8:	0f 85 b2 00 00 00    	jne    3990 <fdisk_part_get_max_free_range+0x220>
    38de:	8b 58 18             	mov    0x18(%eax),%ebx
    38e1:	3b 5d b8             	cmp    -0x48(%ebp),%ebx
    38e4:	74 22                	je     3908 <fdisk_part_get_max_free_range+0x198>
    38e6:	85 db                	test   %ebx,%ebx
    38e8:	74 1e                	je     3908 <fdisk_part_get_max_free_range+0x198>
    38ea:	8d 43 ec             	lea    -0x14(%ebx),%eax
    38ed:	89 45 dc             	mov    %eax,-0x24(%ebp)
    38f0:	85 c0                	test   %eax,%eax
    38f2:	0f 85 3b ff ff ff    	jne    3833 <fdisk_part_get_max_free_range+0xc3>
    38f8:	8b 45 cc             	mov    -0x34(%ebp),%eax
    38fb:	85 c0                	test   %eax,%eax
    38fd:	0f 85 a5 00 00 00    	jne    39a8 <fdisk_part_get_max_free_range+0x238>
    3903:	90                   	nop
    3904:	8d 74 26 00          	lea    0x0(%esi,%eiz,1),%esi
    3908:	8b 45 ac             	mov    -0x54(%ebp),%eax
    390b:	8b 70 3c             	mov    0x3c(%eax),%esi
    390e:	8b 78 40             	mov    0x40(%eax),%edi
    3911:	03 70 34             	add    0x34(%eax),%esi
    3914:	13 78 38             	adc    0x38(%eax),%edi
    3917:	8b 45 d4             	mov    -0x2c(%ebp),%eax
    391a:	50                   	push   %eax
    391b:	8b 45 d0             	mov    -0x30(%ebp),%eax
    391e:	50                   	push   %eax
    391f:	57                   	push   %edi
    3920:	56                   	push   %esi
    3921:	e8 1a 3a 00 00       	call   7340 <__umoddi3@plt>
    3926:	83 c4 10             	add    $0x10,%esp
    3929:	29 c6                	sub    %eax,%esi
    392b:	19 d7                	sbb    %edx,%edi
    392d:	8b 55 e4             	mov    -0x1c(%ebp),%edx
    3930:	8b 45 e0             	mov    -0x20(%ebp),%eax
    3933:	39 fa                	cmp    %edi,%edx
    3935:	77 17                	ja     394e <fdisk_part_get_max_free_range+0x1de>
    3937:	0f 83 0b 01 00 00    	jae    3a48 <fdisk_part_get_max_free_range+0x2d8>
    393d:	2b 75 e0             	sub    -0x20(%ebp),%esi
    3940:	1b 7d e4             	sbb    -0x1c(%ebp),%edi
    3943:	3b 7d d8             	cmp    -0x28(%ebp),%edi
    3946:	77 18                	ja     3960 <fdisk_part_get_max_free_range+0x1f0>
    3948:	0f 83 ea 00 00 00    	jae    3a38 <fdisk_part_get_max_free_range+0x2c8>
    394e:	8b 45 b0             	mov    -0x50(%ebp),%eax
    3951:	8b 55 b4             	mov    -0x4c(%ebp),%edx
    3954:	8b 75 c8             	mov    -0x38(%ebp),%esi
    3957:	8b 7d d8             	mov    -0x28(%ebp),%edi
    395a:	89 45 e0             	mov    %eax,-0x20(%ebp)
    395d:	89 55 e4             	mov    %edx,-0x1c(%ebp)
    3960:	89 fa                	mov    %edi,%edx
    3962:	09 f2                	or     %esi,%edx
    3964:	0f 84 f2 00 00 00    	je     3a5c <fdisk_part_get_max_free_range+0x2ec>
    396a:	8b 5d a8             	mov    -0x58(%ebp),%ebx
    396d:	8b 45 e0             	mov    -0x20(%ebp),%eax
    3970:	8b 55 e4             	mov    -0x1c(%ebp),%edx
    3973:	89 03                	mov    %eax,(%ebx)
    3975:	8b 45 08             	mov    0x8(%ebp),%eax
    3978:	89 53 04             	mov    %edx,0x4(%ebx)
    397b:	89 30                	mov    %esi,(%eax)
    397d:	89 78 04             	mov    %edi,0x4(%eax)
    3980:	31 c0                	xor    %eax,%eax
    3982:	8d 65 f4             	lea    -0xc(%ebp),%esp
    3985:	5b                   	pop    %ebx
    3986:	5e                   	pop    %esi
    3987:	5f                   	pop    %edi
    3988:	5d                   	pop    %ebp
    3989:	c3                   	ret    
    398a:	8d b6 00 00 00 00    	lea    0x0(%esi),%esi
    3990:	8b 58 20             	mov    0x20(%eax),%ebx
    3993:	3b 5d bc             	cmp    -0x44(%ebp),%ebx
    3996:	74 10                	je     39a8 <fdisk_part_get_max_free_range+0x238>
    3998:	85 db                	test   %ebx,%ebx
    399a:	74 0c                	je     39a8 <fdisk_part_get_max_free_range+0x238>
    399c:	8d 43 e4             	lea    -0x1c(%ebx),%eax
    399f:	89 45 dc             	mov    %eax,-0x24(%ebp)
    39a2:	e9 84 fe ff ff       	jmp    382b <fdisk_part_get_max_free_range+0xbb>
    39a7:	90                   	nop
    39a8:	8b 45 ac             	mov    -0x54(%ebp),%eax
    39ab:	8b 40 28             	mov    0x28(%eax),%eax
    39ae:	8b 70 50             	mov    0x50(%eax),%esi
    39b1:	8b 78 54             	mov    0x54(%eax),%edi
    39b4:	03 70 48             	add    0x48(%eax),%esi
    39b7:	13 78 4c             	adc    0x4c(%eax),%edi
    39ba:	8b 45 d4             	mov    -0x2c(%ebp),%eax
    39bd:	50                   	push   %eax
    39be:	8b 45 d0             	mov    -0x30(%ebp),%eax
    39c1:	50                   	push   %eax
    39c2:	57                   	push   %edi
    39c3:	56                   	push   %esi
    39c4:	e8 77 39 00 00       	call   7340 <__umoddi3@plt>
    39c9:	83 c4 10             	add    $0x10,%esp
    39cc:	29 c6                	sub    %eax,%esi
    39ce:	19 d7                	sbb    %edx,%edi
    39d0:	e9 58 ff ff ff       	jmp    392d <fdisk_part_get_max_free_range+0x1bd>
    39d5:	8d 76 00             	lea    0x0(%esi),%esi
    39d8:	8b 50 54             	mov    0x54(%eax),%edx
    39db:	8b 40 50             	mov    0x50(%eax),%eax
    39de:	89 c3                	mov    %eax,%ebx
    39e0:	8b 4f 28             	mov    0x28(%edi),%ecx
    39e3:	89 45 d0             	mov    %eax,-0x30(%ebp)
    39e6:	89 d8                	mov    %ebx,%eax
    39e8:	83 c0 ff             	add    $0xffffffff,%eax
    39eb:	89 d6                	mov    %edx,%esi
    39ed:	89 55 d4             	mov    %edx,-0x2c(%ebp)
    39f0:	83 d2 ff             	adc    $0xffffffff,%edx
    39f3:	03 41 48             	add    0x48(%ecx),%eax
    39f6:	13 51 4c             	adc    0x4c(%ecx),%edx
    39f9:	56                   	push   %esi
    39fa:	53                   	push   %ebx
    39fb:	52                   	push   %edx
    39fc:	50                   	push   %eax
    39fd:	e8 5e 39 00 00       	call   7360 <__udivdi3@plt>
    3a02:	89 f1                	mov    %esi,%ecx
    3a04:	83 c4 10             	add    $0x10,%esp
    3a07:	0f af d3             	imul   %ebx,%edx
    3a0a:	0f af c8             	imul   %eax,%ecx
    3a0d:	01 d1                	add    %edx,%ecx
    3a0f:	f7 e3                	mul    %ebx
    3a11:	89 55 e4             	mov    %edx,-0x1c(%ebp)
    3a14:	89 45 e0             	mov    %eax,-0x20(%ebp)
    3a17:	8b 5d e4             	mov    -0x1c(%ebp),%ebx
    3a1a:	89 f8                	mov    %edi,%eax
    3a1c:	01 cb                	add    %ecx,%ebx
    3a1e:	89 5d e4             	mov    %ebx,-0x1c(%ebp)
    3a21:	8b 5f 24             	mov    0x24(%edi),%ebx
    3a24:	85 db                	test   %ebx,%ebx
    3a26:	74 2d                	je     3a55 <fdisk_part_get_max_free_range+0x2e5>
    3a28:	83 c0 20             	add    $0x20,%eax
    3a2b:	39 c3                	cmp    %eax,%ebx
    3a2d:	74 26                	je     3a55 <fdisk_part_get_max_free_range+0x2e5>
    3a2f:	83 eb 1c             	sub    $0x1c,%ebx
    3a32:	e9 b2 fd ff ff       	jmp    37e9 <fdisk_part_get_max_free_range+0x79>
    3a37:	90                   	nop
    3a38:	3b 75 c8             	cmp    -0x38(%ebp),%esi
    3a3b:	0f 87 1f ff ff ff    	ja     3960 <fdisk_part_get_max_free_range+0x1f0>
    3a41:	e9 08 ff ff ff       	jmp    394e <fdisk_part_get_max_free_range+0x1de>
    3a46:	66 90                	xchg   %ax,%ax
    3a48:	39 f0                	cmp    %esi,%eax
    3a4a:	0f 87 fe fe ff ff    	ja     394e <fdisk_part_get_max_free_range+0x1de>
    3a50:	e9 e8 fe ff ff       	jmp    393d <fdisk_part_get_max_free_range+0x1cd>
    3a55:	31 db                	xor    %ebx,%ebx
    3a57:	e9 8d fd ff ff       	jmp    37e9 <fdisk_part_get_max_free_range+0x79>
    3a5c:	b8 fd fe ff ff       	mov    $0xfffffefd,%eax
    3a61:	e9 1c ff ff ff       	jmp    3982 <fdisk_part_get_max_free_range+0x212>
    3a66:	8d 76 00             	lea    0x0(%esi),%esi
    3a69:	8d bc 27 00 00 00 00 	lea    0x0(%edi,%eiz,1),%edi

00003a70 <fdisk_dev_add_parts>:
    3a70:	55                   	push   %ebp
    3a71:	89 e5                	mov    %esp,%ebp
    3a73:	57                   	push   %edi
    3a74:	56                   	push   %esi
    3a75:	53                   	push   %ebx
    3a76:	83 ec 30             	sub    $0x30,%esp
    3a79:	89 c3                	mov    %eax,%ebx
    3a7b:	83 c0 2c             	add    $0x2c,%eax
    3a7e:	c7 45 e0 00 00 00 00 	movl   $0x0,-0x20(%ebp)
    3a85:	50                   	push   %eax
    3a86:	8b 43 04             	mov    0x4(%ebx),%eax
    3a89:	50                   	push   %eax
    3a8a:	8b 03                	mov    (%ebx),%eax
    3a8c:	8b 40 04             	mov    0x4(%eax),%eax
    3a8f:	50                   	push   %eax
    3a90:	e8 fb 37 00 00       	call   7290 <vbd_disk_info@plt>
    3a95:	83 c4 10             	add    $0x10,%esp
    3a98:	85 c0                	test   %eax,%eax
    3a9a:	0f 85 b8 00 00 00    	jne    3b58 <fdisk_dev_add_parts+0xe8>
    3aa0:	8b 4b 44             	mov    0x44(%ebx),%ecx
    3aa3:	8b 43 40             	mov    0x40(%ebx),%eax
    3aa6:	0f af c1             	imul   %ecx,%eax
    3aa9:	89 45 d4             	mov    %eax,-0x2c(%ebp)
    3aac:	89 c8                	mov    %ecx,%eax
    3aae:	f7 63 3c             	mull   0x3c(%ebx)
    3ab1:	8b 7d d4             	mov    -0x2c(%ebp),%edi
    3ab4:	89 c6                	mov    %eax,%esi
    3ab6:	01 d7                	add    %edx,%edi
    3ab8:	89 fa                	mov    %edi,%edx
    3aba:	0f ac d0 14          	shrd   $0x14,%edx,%eax
    3abe:	c1 ea 14             	shr    $0x14,%edx
    3ac1:	83 fa 00             	cmp    $0x0,%edx
    3ac4:	77 0b                	ja     3ad1 <fdisk_dev_add_parts+0x61>
    3ac6:	3d ff 00 00 00       	cmp    $0xff,%eax
    3acb:	0f 86 8f 01 00 00    	jbe    3c60 <fdisk_dev_add_parts+0x1f0>
    3ad1:	b8 00 00 10 00       	mov    $0x100000,%eax
    3ad6:	66 90                	xchg   %ax,%ax
    3ad8:	31 d2                	xor    %edx,%edx
    3ada:	f7 f1                	div    %ecx
    3adc:	85 c0                	test   %eax,%eax
    3ade:	0f 85 0c 02 00 00    	jne    3cf0 <fdisk_dev_add_parts+0x280>
    3ae4:	c7 43 50 01 00 00 00 	movl   $0x1,0x50(%ebx)
    3aeb:	c7 43 54 00 00 00 00 	movl   $0x0,0x54(%ebx)
    3af2:	8d 45 e4             	lea    -0x1c(%ebp),%eax
    3af5:	8b 53 04             	mov    0x4(%ebx),%edx
    3af8:	50                   	push   %eax
    3af9:	8d 45 e0             	lea    -0x20(%ebp),%eax
    3afc:	50                   	push   %eax
    3afd:	8b 03                	mov    (%ebx),%eax
    3aff:	52                   	push   %edx
    3b00:	8b 48 04             	mov    0x4(%eax),%ecx
    3b03:	51                   	push   %ecx
    3b04:	e8 b7 36 00 00       	call   71c0 <vbd_label_get_parts@plt>
    3b09:	83 c4 10             	add    $0x10,%esp
    3b0c:	85 c0                	test   %eax,%eax
    3b0e:	75 48                	jne    3b58 <fdisk_dev_add_parts+0xe8>
    3b10:	8b 45 e4             	mov    -0x1c(%ebp),%eax
    3b13:	31 f6                	xor    %esi,%esi
    3b15:	85 c0                	test   %eax,%eax
    3b17:	74 22                	je     3b3b <fdisk_dev_add_parts+0xcb>
    3b19:	8d b4 26 00 00 00 00 	lea    0x0(%esi,%eiz,1),%esi
    3b20:	8b 45 e0             	mov    -0x20(%ebp),%eax
    3b23:	31 c9                	xor    %ecx,%ecx
    3b25:	8b 14 b0             	mov    (%eax,%esi,4),%edx
    3b28:	89 d8                	mov    %ebx,%eax
    3b2a:	e8 f1 f8 ff ff       	call   3420 <fdisk_part_add>
    3b2f:	89 c7                	mov    %eax,%edi
    3b31:	85 c0                	test   %eax,%eax
    3b33:	75 28                	jne    3b5d <fdisk_dev_add_parts+0xed>
    3b35:	46                   	inc    %esi
    3b36:	39 75 e4             	cmp    %esi,-0x1c(%ebp)
    3b39:	77 e5                	ja     3b20 <fdisk_dev_add_parts+0xb0>
    3b3b:	83 ec 0c             	sub    $0xc,%esp
    3b3e:	8b 45 e0             	mov    -0x20(%ebp),%eax
    3b41:	31 ff                	xor    %edi,%edi
    3b43:	50                   	push   %eax
    3b44:	e8 a7 3a 00 00       	call   75f0 <free@plt>
    3b49:	83 c4 10             	add    $0x10,%esp
    3b4c:	8d 65 f4             	lea    -0xc(%ebp),%esp
    3b4f:	89 f8                	mov    %edi,%eax
    3b51:	5b                   	pop    %ebx
    3b52:	5e                   	pop    %esi
    3b53:	5f                   	pop    %edi
    3b54:	5d                   	pop    %ebp
    3b55:	c3                   	ret    
    3b56:	66 90                	xchg   %ax,%ax
    3b58:	bf f6 fe ff ff       	mov    $0xfffffef6,%edi
    3b5d:	8b 53 0c             	mov    0xc(%ebx),%edx
    3b60:	8d 73 08             	lea    0x8(%ebx),%esi
    3b63:	39 f2                	cmp    %esi,%edx
    3b65:	74 e5                	je     3b4c <fdisk_dev_add_parts+0xdc>
    3b67:	90                   	nop
    3b68:	85 d2                	test   %edx,%edx
    3b6a:	74 e0                	je     3b4c <fdisk_dev_add_parts+0xdc>
    3b6c:	83 ea 04             	sub    $0x4,%edx
    3b6f:	74 db                	je     3b4c <fdisk_dev_add_parts+0xdc>
    3b71:	8b 4a 04             	mov    0x4(%edx),%ecx
    3b74:	85 c9                	test   %ecx,%ecx
    3b76:	74 0f                	je     3b87 <fdisk_dev_add_parts+0x117>
    3b78:	8b 42 08             	mov    0x8(%edx),%eax
    3b7b:	85 c0                	test   %eax,%eax
    3b7d:	74 08                	je     3b87 <fdisk_dev_add_parts+0x117>
    3b7f:	89 08                	mov    %ecx,(%eax)
    3b81:	8b 4a 04             	mov    0x4(%edx),%ecx
    3b84:	89 41 04             	mov    %eax,0x4(%ecx)
    3b87:	8b 4a 14             	mov    0x14(%edx),%ecx
    3b8a:	c7 42 04 00 00 00 00 	movl   $0x0,0x4(%edx)
    3b91:	c7 42 08 00 00 00 00 	movl   $0x0,0x8(%edx)
    3b98:	85 c9                	test   %ecx,%ecx
    3b9a:	0f 84 90 00 00 00    	je     3c30 <fdisk_dev_add_parts+0x1c0>
    3ba0:	8b 42 18             	mov    0x18(%edx),%eax
    3ba3:	85 c0                	test   %eax,%eax
    3ba5:	0f 84 8c 00 00 00    	je     3c37 <fdisk_dev_add_parts+0x1c7>
    3bab:	89 08                	mov    %ecx,(%eax)
    3bad:	8b 4a 14             	mov    0x14(%edx),%ecx
    3bb0:	89 41 04             	mov    %eax,0x4(%ecx)
    3bb3:	c7 42 14 00 00 00 00 	movl   $0x0,0x14(%edx)
    3bba:	c7 42 18 00 00 00 00 	movl   $0x0,0x18(%edx)
    3bc1:	8b 4a 0c             	mov    0xc(%edx),%ecx
    3bc4:	85 c9                	test   %ecx,%ecx
    3bc6:	74 78                	je     3c40 <fdisk_dev_add_parts+0x1d0>
    3bc8:	8b 42 10             	mov    0x10(%edx),%eax
    3bcb:	85 c0                	test   %eax,%eax
    3bcd:	74 68                	je     3c37 <fdisk_dev_add_parts+0x1c7>
    3bcf:	89 08                	mov    %ecx,(%eax)
    3bd1:	8b 4a 0c             	mov    0xc(%edx),%ecx
    3bd4:	89 41 04             	mov    %eax,0x4(%ecx)
    3bd7:	c7 42 0c 00 00 00 00 	movl   $0x0,0xc(%edx)
    3bde:	c7 42 10 00 00 00 00 	movl   $0x0,0x10(%edx)
    3be5:	8b 4a 1c             	mov    0x1c(%edx),%ecx
    3be8:	85 c9                	test   %ecx,%ecx
    3bea:	74 64                	je     3c50 <fdisk_dev_add_parts+0x1e0>
    3bec:	8b 42 20             	mov    0x20(%edx),%eax
    3bef:	85 c0                	test   %eax,%eax
    3bf1:	74 44                	je     3c37 <fdisk_dev_add_parts+0x1c7>
    3bf3:	89 08                	mov    %ecx,(%eax)
    3bf5:	8b 4a 1c             	mov    0x1c(%edx),%ecx
    3bf8:	89 41 04             	mov    %eax,0x4(%ecx)
    3bfb:	c7 42 1c 00 00 00 00 	movl   $0x0,0x1c(%edx)
    3c02:	c7 42 20 00 00 00 00 	movl   $0x0,0x20(%edx)
    3c09:	83 ec 0c             	sub    $0xc,%esp
    3c0c:	52                   	push   %edx
    3c0d:	e8 de 39 00 00       	call   75f0 <free@plt>
    3c12:	8b 53 0c             	mov    0xc(%ebx),%edx
    3c15:	83 c4 10             	add    $0x10,%esp
    3c18:	39 d6                	cmp    %edx,%esi
    3c1a:	0f 85 48 ff ff ff    	jne    3b68 <fdisk_dev_add_parts+0xf8>
    3c20:	8d 65 f4             	lea    -0xc(%ebp),%esp
    3c23:	89 f8                	mov    %edi,%eax
    3c25:	5b                   	pop    %ebx
    3c26:	5e                   	pop    %esi
    3c27:	5f                   	pop    %edi
    3c28:	5d                   	pop    %ebp
    3c29:	c3                   	ret    
    3c2a:	8d b6 00 00 00 00    	lea    0x0(%esi),%esi
    3c30:	8b 42 18             	mov    0x18(%edx),%eax
    3c33:	85 c0                	test   %eax,%eax
    3c35:	74 8a                	je     3bc1 <fdisk_dev_add_parts+0x151>
    3c37:	e8 3b 22 00 00       	call   5e77 <link_used.part.2>
    3c3c:	8d 74 26 00          	lea    0x0(%esi,%eiz,1),%esi
    3c40:	8b 42 10             	mov    0x10(%edx),%eax
    3c43:	85 c0                	test   %eax,%eax
    3c45:	74 9e                	je     3be5 <fdisk_dev_add_parts+0x175>
    3c47:	e8 2b 22 00 00       	call   5e77 <link_used.part.2>
    3c4c:	8d 74 26 00          	lea    0x0(%esi,%eiz,1),%esi
    3c50:	8b 42 20             	mov    0x20(%edx),%eax
    3c53:	85 c0                	test   %eax,%eax
    3c55:	74 b2                	je     3c09 <fdisk_dev_add_parts+0x199>
    3c57:	e8 1b 22 00 00       	call   5e77 <link_used.part.2>
    3c5c:	8d 74 26 00          	lea    0x0(%esi,%eiz,1),%esi
    3c60:	89 fa                	mov    %edi,%edx
    3c62:	89 f0                	mov    %esi,%eax
    3c64:	0f ac d0 10          	shrd   $0x10,%edx,%eax
    3c68:	c1 ea 10             	shr    $0x10,%edx
    3c6b:	83 fa 00             	cmp    $0x0,%edx
    3c6e:	76 10                	jbe    3c80 <fdisk_dev_add_parts+0x210>
    3c70:	b8 00 00 01 00       	mov    $0x10000,%eax
    3c75:	e9 5e fe ff ff       	jmp    3ad8 <fdisk_dev_add_parts+0x68>
    3c7a:	8d b6 00 00 00 00    	lea    0x0(%esi),%esi
    3c80:	3d ff 00 00 00       	cmp    $0xff,%eax
    3c85:	77 e9                	ja     3c70 <fdisk_dev_add_parts+0x200>
    3c87:	89 fa                	mov    %edi,%edx
    3c89:	89 f0                	mov    %esi,%eax
    3c8b:	0f ac d0 0c          	shrd   $0xc,%edx,%eax
    3c8f:	c1 ea 0c             	shr    $0xc,%edx
    3c92:	83 fa 00             	cmp    $0x0,%edx
    3c95:	76 11                	jbe    3ca8 <fdisk_dev_add_parts+0x238>
    3c97:	b8 00 10 00 00       	mov    $0x1000,%eax
    3c9c:	e9 37 fe ff ff       	jmp    3ad8 <fdisk_dev_add_parts+0x68>
    3ca1:	8d b4 26 00 00 00 00 	lea    0x0(%esi,%eiz,1),%esi
    3ca8:	3d ff 00 00 00       	cmp    $0xff,%eax
    3cad:	77 e8                	ja     3c97 <fdisk_dev_add_parts+0x227>
    3caf:	89 fa                	mov    %edi,%edx
    3cb1:	89 f0                	mov    %esi,%eax
    3cb3:	0f ac d0 08          	shrd   $0x8,%edx,%eax
    3cb7:	c1 ea 08             	shr    $0x8,%edx
    3cba:	83 fa 00             	cmp    $0x0,%edx
    3cbd:	76 11                	jbe    3cd0 <fdisk_dev_add_parts+0x260>
    3cbf:	b8 00 01 00 00       	mov    $0x100,%eax
    3cc4:	e9 0f fe ff ff       	jmp    3ad8 <fdisk_dev_add_parts+0x68>
    3cc9:	8d b4 26 00 00 00 00 	lea    0x0(%esi,%eiz,1),%esi
    3cd0:	3d ff 00 00 00       	cmp    $0xff,%eax
    3cd5:	77 e8                	ja     3cbf <fdisk_dev_add_parts+0x24f>
    3cd7:	0f ac fe 04          	shrd   $0x4,%edi,%esi
    3cdb:	c1 ef 04             	shr    $0x4,%edi
    3cde:	83 ff 00             	cmp    $0x0,%edi
    3ce1:	76 1d                	jbe    3d00 <fdisk_dev_add_parts+0x290>
    3ce3:	b8 10 00 00 00       	mov    $0x10,%eax
    3ce8:	e9 eb fd ff ff       	jmp    3ad8 <fdisk_dev_add_parts+0x68>
    3ced:	8d 76 00             	lea    0x0(%esi),%esi
    3cf0:	89 43 50             	mov    %eax,0x50(%ebx)
    3cf3:	c7 43 54 00 00 00 00 	movl   $0x0,0x54(%ebx)
    3cfa:	e9 f3 fd ff ff       	jmp    3af2 <fdisk_dev_add_parts+0x82>
    3cff:	90                   	nop
    3d00:	b8 01 00 00 00       	mov    $0x1,%eax
    3d05:	81 fe ff 00 00 00    	cmp    $0xff,%esi
    3d0b:	0f 86 c7 fd ff ff    	jbe    3ad8 <fdisk_dev_add_parts+0x68>
    3d11:	eb d0                	jmp    3ce3 <fdisk_dev_add_parts+0x273>
    3d13:	8d b6 00 00 00 00    	lea    0x0(%esi),%esi
    3d19:	8d bc 27 00 00 00 00 	lea    0x0(%edi,%eiz,1),%edi

00003d20 <fdisk_create>:
    3d20:	55                   	push   %ebp
    3d21:	89 e5                	mov    %esp,%ebp
    3d23:	53                   	push   %ebx
    3d24:	83 ec 0c             	sub    $0xc,%esp
    3d27:	6a 08                	push   $0x8
    3d29:	6a 01                	push   $0x1
    3d2b:	e8 80 36 00 00       	call   73b0 <calloc@plt>
    3d30:	83 c4 10             	add    $0x10,%esp
    3d33:	85 c0                	test   %eax,%eax
    3d35:	74 61                	je     3d98 <fdisk_create+0x78>
    3d37:	83 ec 0c             	sub    $0xc,%esp
    3d3a:	89 c3                	mov    %eax,%ebx
    3d3c:	50                   	push   %eax
    3d3d:	e8 1e 35 00 00       	call   7260 <vol_create@plt>
    3d42:	83 c4 10             	add    $0x10,%esp
    3d45:	85 c0                	test   %eax,%eax
    3d47:	74 2f                	je     3d78 <fdisk_create+0x58>
    3d49:	83 ec 0c             	sub    $0xc,%esp
    3d4c:	8b 03                	mov    (%ebx),%eax
    3d4e:	50                   	push   %eax
    3d4f:	e8 5c 34 00 00       	call   71b0 <vol_destroy@plt>
    3d54:	8b 4b 04             	mov    0x4(%ebx),%ecx
    3d57:	5a                   	pop    %edx
    3d58:	51                   	push   %ecx
    3d59:	e8 f2 36 00 00       	call   7450 <vbd_destroy@plt>
    3d5e:	89 1c 24             	mov    %ebx,(%esp)
    3d61:	e8 8a 38 00 00       	call   75f0 <free@plt>
    3d66:	83 c4 10             	add    $0x10,%esp
    3d69:	b8 f6 fe ff ff       	mov    $0xfffffef6,%eax
    3d6e:	8b 5d fc             	mov    -0x4(%ebp),%ebx
    3d71:	c9                   	leave  
    3d72:	c3                   	ret    
    3d73:	90                   	nop
    3d74:	8d 74 26 00          	lea    0x0(%esi,%eiz,1),%esi
    3d78:	83 ec 0c             	sub    $0xc,%esp
    3d7b:	8d 43 04             	lea    0x4(%ebx),%eax
    3d7e:	50                   	push   %eax
    3d7f:	e8 ac 34 00 00       	call   7230 <vbd_create@plt>
    3d84:	83 c4 10             	add    $0x10,%esp
    3d87:	85 c0                	test   %eax,%eax
    3d89:	75 be                	jne    3d49 <fdisk_create+0x29>
    3d8b:	8b 55 08             	mov    0x8(%ebp),%edx
    3d8e:	89 1a                	mov    %ebx,(%edx)
    3d90:	eb dc                	jmp    3d6e <fdisk_create+0x4e>
    3d92:	8d b6 00 00 00 00    	lea    0x0(%esi),%esi
    3d98:	b8 fe ff ff ff       	mov    $0xfffffffe,%eax
    3d9d:	8b 5d fc             	mov    -0x4(%ebp),%ebx
    3da0:	c9                   	leave  
    3da1:	c3                   	ret    
    3da2:	8d b4 26 00 00 00 00 	lea    0x0(%esi,%eiz,1),%esi
    3da9:	8d bc 27 00 00 00 00 	lea    0x0(%edi,%eiz,1),%edi

00003db0 <fdisk_destroy>:
    3db0:	55                   	push   %ebp
    3db1:	89 e5                	mov    %esp,%ebp
    3db3:	53                   	push   %ebx
    3db4:	53                   	push   %ebx
    3db5:	8b 5d 08             	mov    0x8(%ebp),%ebx
    3db8:	85 db                	test   %ebx,%ebx
    3dba:	74 24                	je     3de0 <fdisk_destroy+0x30>
    3dbc:	83 ec 0c             	sub    $0xc,%esp
    3dbf:	8b 03                	mov    (%ebx),%eax
    3dc1:	50                   	push   %eax
    3dc2:	e8 e9 33 00 00       	call   71b0 <vol_destroy@plt>
    3dc7:	8b 4b 04             	mov    0x4(%ebx),%ecx
    3dca:	5a                   	pop    %edx
    3dcb:	51                   	push   %ecx
    3dcc:	e8 7f 36 00 00       	call   7450 <vbd_destroy@plt>
    3dd1:	89 5d 08             	mov    %ebx,0x8(%ebp)
    3dd4:	83 c4 10             	add    $0x10,%esp
    3dd7:	8b 5d fc             	mov    -0x4(%ebp),%ebx
    3dda:	c9                   	leave  
    3ddb:	e9 10 38 00 00       	jmp    75f0 <free@plt>
    3de0:	8b 5d fc             	mov    -0x4(%ebp),%ebx
    3de3:	c9                   	leave  
    3de4:	c3                   	ret    
    3de5:	8d 74 26 00          	lea    0x0(%esi,%eiz,1),%esi
    3de9:	8d bc 27 00 00 00 00 	lea    0x0(%edi,%eiz,1),%edi

00003df0 <fdisk_dev_list_get>:
    3df0:	55                   	push   %ebp
    3df1:	89 e5                	mov    %esp,%ebp
    3df3:	57                   	push   %edi
    3df4:	56                   	push   %esi
    3df5:	53                   	push   %ebx
    3df6:	83 ec 34             	sub    $0x34,%esp
    3df9:	c7 45 e0 00 00 00 00 	movl   $0x0,-0x20(%ebp)
    3e00:	8b 75 08             	mov    0x8(%ebp),%esi
    3e03:	6a 0c                	push   $0xc
    3e05:	6a 01                	push   $0x1
    3e07:	e8 a4 35 00 00       	call   73b0 <calloc@plt>
    3e0c:	83 c4 10             	add    $0x10,%esp
    3e0f:	85 c0                	test   %eax,%eax
    3e11:	0f 84 2d 01 00 00    	je     3f44 <fdisk_dev_list_get+0x154>
    3e17:	89 c3                	mov    %eax,%ebx
    3e19:	89 30                	mov    %esi,(%eax)
    3e1b:	8d 40 04             	lea    0x4(%eax),%eax
    3e1e:	89 43 04             	mov    %eax,0x4(%ebx)
    3e21:	89 43 08             	mov    %eax,0x8(%ebx)
    3e24:	89 45 d4             	mov    %eax,-0x2c(%ebp)
    3e27:	50                   	push   %eax
    3e28:	8d 45 e4             	lea    -0x1c(%ebp),%eax
    3e2b:	50                   	push   %eax
    3e2c:	8d 45 e0             	lea    -0x20(%ebp),%eax
    3e2f:	50                   	push   %eax
    3e30:	8b 46 04             	mov    0x4(%esi),%eax
    3e33:	50                   	push   %eax
    3e34:	e8 97 33 00 00       	call   71d0 <vbd_get_disks@plt>
    3e39:	83 c4 10             	add    $0x10,%esp
    3e3c:	89 45 d0             	mov    %eax,-0x30(%ebp)
    3e3f:	85 c0                	test   %eax,%eax
    3e41:	0f 85 f1 00 00 00    	jne    3f38 <fdisk_dev_list_get+0x148>
    3e47:	8b 7d e4             	mov    -0x1c(%ebp),%edi
    3e4a:	31 f6                	xor    %esi,%esi
    3e4c:	85 ff                	test   %edi,%edi
    3e4e:	75 32                	jne    3e82 <fdisk_dev_list_get+0x92>
    3e50:	e9 bf 00 00 00       	jmp    3f14 <fdisk_dev_list_get+0x124>
    3e55:	8d 76 00             	lea    0x0(%esi),%esi
    3e58:	8b 7d e0             	mov    -0x20(%ebp),%edi
    3e5b:	8b 4d d4             	mov    -0x2c(%ebp),%ecx
    3e5e:	8b 14 b7             	mov    (%edi,%esi,4),%edx
    3e61:	89 48 08             	mov    %ecx,0x8(%eax)
    3e64:	8b 4b 04             	mov    0x4(%ebx),%ecx
    3e67:	89 50 0c             	mov    %edx,0xc(%eax)
    3e6a:	46                   	inc    %esi
    3e6b:	8d 50 04             	lea    0x4(%eax),%edx
    3e6e:	89 18                	mov    %ebx,(%eax)
    3e70:	89 48 04             	mov    %ecx,0x4(%eax)
    3e73:	39 75 e4             	cmp    %esi,-0x1c(%ebp)
    3e76:	89 51 04             	mov    %edx,0x4(%ecx)
    3e79:	89 53 04             	mov    %edx,0x4(%ebx)
    3e7c:	0f 86 95 00 00 00    	jbe    3f17 <fdisk_dev_list_get+0x127>
    3e82:	51                   	push   %ecx
    3e83:	51                   	push   %ecx
    3e84:	6a 14                	push   $0x14
    3e86:	6a 01                	push   $0x1
    3e88:	e8 23 35 00 00       	call   73b0 <calloc@plt>
    3e8d:	83 c4 10             	add    $0x10,%esp
    3e90:	85 c0                	test   %eax,%eax
    3e92:	75 c4                	jne    3e58 <fdisk_dev_list_get+0x68>
    3e94:	c7 45 d0 fe ff ff ff 	movl   $0xfffffffe,-0x30(%ebp)
    3e9b:	83 ec 0c             	sub    $0xc,%esp
    3e9e:	8b 55 e0             	mov    -0x20(%ebp),%edx
    3ea1:	52                   	push   %edx
    3ea2:	e8 49 37 00 00       	call   75f0 <free@plt>
    3ea7:	8b 73 08             	mov    0x8(%ebx),%esi
    3eaa:	83 c4 10             	add    $0x10,%esp
    3ead:	8b 7d d4             	mov    -0x2c(%ebp),%edi
    3eb0:	39 75 d4             	cmp    %esi,-0x2c(%ebp)
    3eb3:	74 48                	je     3efd <fdisk_dev_list_get+0x10d>
    3eb5:	8d 76 00             	lea    0x0(%esi),%esi
    3eb8:	83 ee 04             	sub    $0x4,%esi
    3ebb:	8b 56 04             	mov    0x4(%esi),%edx
    3ebe:	85 d2                	test   %edx,%edx
    3ec0:	74 0f                	je     3ed1 <fdisk_dev_list_get+0xe1>
    3ec2:	8b 46 08             	mov    0x8(%esi),%eax
    3ec5:	85 c0                	test   %eax,%eax
    3ec7:	74 08                	je     3ed1 <fdisk_dev_list_get+0xe1>
    3ec9:	89 10                	mov    %edx,(%eax)
    3ecb:	8b 56 04             	mov    0x4(%esi),%edx
    3ece:	89 42 04             	mov    %eax,0x4(%edx)
    3ed1:	83 ec 0c             	sub    $0xc,%esp
    3ed4:	8b 46 10             	mov    0x10(%esi),%eax
    3ed7:	c7 46 04 00 00 00 00 	movl   $0x0,0x4(%esi)
    3ede:	c7 46 08 00 00 00 00 	movl   $0x0,0x8(%esi)
    3ee5:	50                   	push   %eax
    3ee6:	e8 05 37 00 00       	call   75f0 <free@plt>
    3eeb:	89 34 24             	mov    %esi,(%esp)
    3eee:	e8 fd 36 00 00       	call   75f0 <free@plt>
    3ef3:	8b 73 08             	mov    0x8(%ebx),%esi
    3ef6:	83 c4 10             	add    $0x10,%esp
    3ef9:	39 f7                	cmp    %esi,%edi
    3efb:	75 bb                	jne    3eb8 <fdisk_dev_list_get+0xc8>
    3efd:	83 ec 0c             	sub    $0xc,%esp
    3f00:	53                   	push   %ebx
    3f01:	e8 ea 36 00 00       	call   75f0 <free@plt>
    3f06:	83 c4 10             	add    $0x10,%esp
    3f09:	8b 45 d0             	mov    -0x30(%ebp),%eax
    3f0c:	8d 65 f4             	lea    -0xc(%ebp),%esp
    3f0f:	5b                   	pop    %ebx
    3f10:	5e                   	pop    %esi
    3f11:	5f                   	pop    %edi
    3f12:	5d                   	pop    %ebp
    3f13:	c3                   	ret    
    3f14:	8b 7d e0             	mov    -0x20(%ebp),%edi
    3f17:	8b 45 0c             	mov    0xc(%ebp),%eax
    3f1a:	83 ec 0c             	sub    $0xc,%esp
    3f1d:	89 18                	mov    %ebx,(%eax)
    3f1f:	57                   	push   %edi
    3f20:	e8 cb 36 00 00       	call   75f0 <free@plt>
    3f25:	8b 45 d0             	mov    -0x30(%ebp),%eax
    3f28:	83 c4 10             	add    $0x10,%esp
    3f2b:	8d 65 f4             	lea    -0xc(%ebp),%esp
    3f2e:	5b                   	pop    %ebx
    3f2f:	5e                   	pop    %esi
    3f30:	5f                   	pop    %edi
    3f31:	5d                   	pop    %ebp
    3f32:	c3                   	ret    
    3f33:	90                   	nop
    3f34:	8d 74 26 00          	lea    0x0(%esi,%eiz,1),%esi
    3f38:	c7 45 d0 f6 fe ff ff 	movl   $0xfffffef6,-0x30(%ebp)
    3f3f:	e9 57 ff ff ff       	jmp    3e9b <fdisk_dev_list_get+0xab>
    3f44:	c7 45 d0 fe ff ff ff 	movl   $0xfffffffe,-0x30(%ebp)
    3f4b:	eb bc                	jmp    3f09 <fdisk_dev_list_get+0x119>
    3f4d:	8d 76 00             	lea    0x0(%esi),%esi

00003f50 <fdisk_dev_list_free>:
    3f50:	55                   	push   %ebp
    3f51:	89 e5                	mov    %esp,%ebp
    3f53:	57                   	push   %edi
    3f54:	56                   	push   %esi
    3f55:	53                   	push   %ebx
    3f56:	83 ec 0c             	sub    $0xc,%esp
    3f59:	8b 75 08             	mov    0x8(%ebp),%esi
    3f5c:	85 f6                	test   %esi,%esi
    3f5e:	74 68                	je     3fc8 <fdisk_dev_list_free+0x78>
    3f60:	8b 5e 08             	mov    0x8(%esi),%ebx
    3f63:	8d 7e 04             	lea    0x4(%esi),%edi
    3f66:	39 fb                	cmp    %edi,%ebx
    3f68:	74 4b                	je     3fb5 <fdisk_dev_list_free+0x65>
    3f6a:	8d b6 00 00 00 00    	lea    0x0(%esi),%esi
    3f70:	83 eb 04             	sub    $0x4,%ebx
    3f73:	8b 53 04             	mov    0x4(%ebx),%edx
    3f76:	85 d2                	test   %edx,%edx
    3f78:	74 0f                	je     3f89 <fdisk_dev_list_free+0x39>
    3f7a:	8b 43 08             	mov    0x8(%ebx),%eax
    3f7d:	85 c0                	test   %eax,%eax
    3f7f:	74 08                	je     3f89 <fdisk_dev_list_free+0x39>
    3f81:	89 10                	mov    %edx,(%eax)
    3f83:	8b 53 04             	mov    0x4(%ebx),%edx
    3f86:	89 42 04             	mov    %eax,0x4(%edx)
    3f89:	83 ec 0c             	sub    $0xc,%esp
    3f8c:	8b 43 10             	mov    0x10(%ebx),%eax
    3f8f:	c7 43 04 00 00 00 00 	movl   $0x0,0x4(%ebx)
    3f96:	c7 43 08 00 00 00 00 	movl   $0x0,0x8(%ebx)
    3f9d:	50                   	push   %eax
    3f9e:	e8 4d 36 00 00       	call   75f0 <free@plt>
    3fa3:	89 1c 24             	mov    %ebx,(%esp)
    3fa6:	e8 45 36 00 00       	call   75f0 <free@plt>
    3fab:	8b 5e 08             	mov    0x8(%esi),%ebx
    3fae:	83 c4 10             	add    $0x10,%esp
    3fb1:	39 fb                	cmp    %edi,%ebx
    3fb3:	75 bb                	jne    3f70 <fdisk_dev_list_free+0x20>
    3fb5:	89 75 08             	mov    %esi,0x8(%ebp)
    3fb8:	8d 65 f4             	lea    -0xc(%ebp),%esp
    3fbb:	5b                   	pop    %ebx
    3fbc:	5e                   	pop    %esi
    3fbd:	5f                   	pop    %edi
    3fbe:	5d                   	pop    %ebp
    3fbf:	e9 2c 36 00 00       	jmp    75f0 <free@plt>
    3fc4:	8d 74 26 00          	lea    0x0(%esi,%eiz,1),%esi
    3fc8:	8d 65 f4             	lea    -0xc(%ebp),%esp
    3fcb:	5b                   	pop    %ebx
    3fcc:	5e                   	pop    %esi
    3fcd:	5f                   	pop    %edi
    3fce:	5d                   	pop    %ebp
    3fcf:	c3                   	ret    

00003fd0 <fdisk_dev_first>:
    3fd0:	55                   	push   %ebp
    3fd1:	89 e5                	mov    %esp,%ebp
    3fd3:	8b 55 08             	mov    0x8(%ebp),%edx
    3fd6:	83 c2 04             	add    $0x4,%edx
    3fd9:	8b 42 04             	mov    0x4(%edx),%eax
    3fdc:	39 d0                	cmp    %edx,%eax
    3fde:	74 08                	je     3fe8 <fdisk_dev_first+0x18>
    3fe0:	83 e8 04             	sub    $0x4,%eax
    3fe3:	5d                   	pop    %ebp
    3fe4:	c3                   	ret    
    3fe5:	8d 76 00             	lea    0x0(%esi),%esi
    3fe8:	31 c0                	xor    %eax,%eax
    3fea:	5d                   	pop    %ebp
    3feb:	c3                   	ret    
    3fec:	8d 74 26 00          	lea    0x0(%esi,%eiz,1),%esi

00003ff0 <fdisk_dev_next>:
    3ff0:	55                   	push   %ebp
    3ff1:	89 e5                	mov    %esp,%ebp
    3ff3:	8b 55 08             	mov    0x8(%ebp),%edx
    3ff6:	8b 42 08             	mov    0x8(%edx),%eax
    3ff9:	8b 12                	mov    (%edx),%edx
    3ffb:	83 c2 04             	add    $0x4,%edx
    3ffe:	39 d0                	cmp    %edx,%eax
    4000:	74 09                	je     400b <fdisk_dev_next+0x1b>
    4002:	85 c0                	test   %eax,%eax
    4004:	74 05                	je     400b <fdisk_dev_next+0x1b>
    4006:	83 e8 04             	sub    $0x4,%eax
    4009:	5d                   	pop    %ebp
    400a:	c3                   	ret    
    400b:	31 c0                	xor    %eax,%eax
    400d:	5d                   	pop    %ebp
    400e:	c3                   	ret    
    400f:	90                   	nop

00004010 <fdisk_dev_info_get_svcid>:
    4010:	55                   	push   %ebp
    4011:	89 e5                	mov    %esp,%ebp
    4013:	8b 45 08             	mov    0x8(%ebp),%eax
    4016:	8b 50 0c             	mov    0xc(%eax),%edx
    4019:	8b 45 0c             	mov    0xc(%ebp),%eax
    401c:	89 10                	mov    %edx,(%eax)
    401e:	5d                   	pop    %ebp
    401f:	c3                   	ret    

00004020 <fdisk_dev_info_get_svcname>:
    4020:	55                   	push   %ebp
    4021:	89 e5                	mov    %esp,%ebp
    4023:	53                   	push   %ebx
    4024:	51                   	push   %ecx
    4025:	8b 5d 08             	mov    0x8(%ebp),%ebx
    4028:	8b 43 10             	mov    0x10(%ebx),%eax
    402b:	85 c0                	test   %eax,%eax
    402d:	74 21                	je     4050 <fdisk_dev_info_get_svcname+0x30>
    402f:	83 ec 0c             	sub    $0xc,%esp
    4032:	50                   	push   %eax
    4033:	e8 e8 33 00 00       	call   7420 <str_dup@plt>
    4038:	83 c4 10             	add    $0x10,%esp
    403b:	85 c0                	test   %eax,%eax
    403d:	74 2c                	je     406b <fdisk_dev_info_get_svcname+0x4b>
    403f:	8b 55 0c             	mov    0xc(%ebp),%edx
    4042:	89 02                	mov    %eax,(%edx)
    4044:	31 c0                	xor    %eax,%eax
    4046:	8b 5d fc             	mov    -0x4(%ebp),%ebx
    4049:	c9                   	leave  
    404a:	c3                   	ret    
    404b:	90                   	nop
    404c:	8d 74 26 00          	lea    0x0(%esi,%eiz,1),%esi
    4050:	50                   	push   %eax
    4051:	50                   	push   %eax
    4052:	8b 53 0c             	mov    0xc(%ebx),%edx
    4055:	8d 43 10             	lea    0x10(%ebx),%eax
    4058:	50                   	push   %eax
    4059:	52                   	push   %edx
    405a:	e8 31 33 00 00       	call   7390 <loc_service_get_name@plt>
    405f:	83 c4 10             	add    $0x10,%esp
    4062:	85 c0                	test   %eax,%eax
    4064:	75 e0                	jne    4046 <fdisk_dev_info_get_svcname+0x26>
    4066:	8b 43 10             	mov    0x10(%ebx),%eax
    4069:	eb c4                	jmp    402f <fdisk_dev_info_get_svcname+0xf>
    406b:	b8 fe ff ff ff       	mov    $0xfffffffe,%eax
    4070:	eb d4                	jmp    4046 <fdisk_dev_info_get_svcname+0x26>
    4072:	8d b4 26 00 00 00 00 	lea    0x0(%esi,%eiz,1),%esi
    4079:	8d bc 27 00 00 00 00 	lea    0x0(%edi,%eiz,1),%edi

00004080 <fdisk_dev_info_capacity>:
    4080:	55                   	push   %ebp
    4081:	89 e5                	mov    %esp,%ebp
    4083:	83 ec 4c             	sub    $0x4c,%esp
    4086:	8b 45 08             	mov    0x8(%ebp),%eax
    4089:	8d 55 d4             	lea    -0x2c(%ebp),%edx
    408c:	52                   	push   %edx
    408d:	8b 50 0c             	mov    0xc(%eax),%edx
    4090:	8b 00                	mov    (%eax),%eax
    4092:	52                   	push   %edx
    4093:	8b 00                	mov    (%eax),%eax
    4095:	8b 48 04             	mov    0x4(%eax),%ecx
    4098:	51                   	push   %ecx
    4099:	e8 f2 31 00 00       	call   7290 <vbd_disk_info@plt>
    409e:	83 c4 10             	add    $0x10,%esp
    40a1:	89 45 c4             	mov    %eax,-0x3c(%ebp)
    40a4:	85 c0                	test   %eax,%eax
    40a6:	75 20                	jne    40c8 <fdisk_dev_info_capacity+0x48>
    40a8:	8b 45 0c             	mov    0xc(%ebp),%eax
    40ab:	8b 55 ec             	mov    -0x14(%ebp),%edx
    40ae:	50                   	push   %eax
    40af:	8b 4d f4             	mov    -0xc(%ebp),%ecx
    40b2:	8b 45 f0             	mov    -0x10(%ebp),%eax
    40b5:	52                   	push   %edx
    40b6:	51                   	push   %ecx
    40b7:	50                   	push   %eax
    40b8:	e8 e3 1d 00 00       	call   5ea0 <fdisk_cap_from_blocks>
    40bd:	8b 45 c4             	mov    -0x3c(%ebp),%eax
    40c0:	83 c4 10             	add    $0x10,%esp
    40c3:	c9                   	leave  
    40c4:	c3                   	ret    
    40c5:	8d 76 00             	lea    0x0(%esi),%esi
    40c8:	b8 f6 fe ff ff       	mov    $0xfffffef6,%eax
    40cd:	c9                   	leave  
    40ce:	c3                   	ret    
    40cf:	90                   	nop

000040d0 <fdisk_dev_open>:
    40d0:	55                   	push   %ebp
    40d1:	89 e5                	mov    %esp,%ebp
    40d3:	57                   	push   %edi
    40d4:	56                   	push   %esi
    40d5:	53                   	push   %ebx
    40d6:	83 ec 34             	sub    $0x34,%esp
    40d9:	c7 45 e0 00 00 00 00 	movl   $0x0,-0x20(%ebp)
    40e0:	6a 58                	push   $0x58
    40e2:	6a 01                	push   $0x1
    40e4:	e8 c7 32 00 00       	call   73b0 <calloc@plt>
    40e9:	83 c4 10             	add    $0x10,%esp
    40ec:	85 c0                	test   %eax,%eax
    40ee:	0f 84 14 03 00 00    	je     4408 <fdisk_dev_open+0x338>
    40f4:	89 c3                	mov    %eax,%ebx
    40f6:	8b 45 08             	mov    0x8(%ebp),%eax
    40f9:	8b 7d 0c             	mov    0xc(%ebp),%edi
    40fc:	89 03                	mov    %eax,(%ebx)
    40fe:	8b 45 0c             	mov    0xc(%ebp),%eax
    4101:	89 43 04             	mov    %eax,0x4(%ebx)
    4104:	8d 43 08             	lea    0x8(%ebx),%eax
    4107:	89 43 08             	mov    %eax,0x8(%ebx)
    410a:	89 43 0c             	mov    %eax,0xc(%ebx)
    410d:	89 45 d4             	mov    %eax,-0x2c(%ebp)
    4110:	8d 43 10             	lea    0x10(%ebx),%eax
    4113:	89 43 10             	mov    %eax,0x10(%ebx)
    4116:	89 43 14             	mov    %eax,0x14(%ebx)
    4119:	8d 43 18             	lea    0x18(%ebx),%eax
    411c:	89 43 18             	mov    %eax,0x18(%ebx)
    411f:	89 43 1c             	mov    %eax,0x1c(%ebx)
    4122:	8d 43 20             	lea    0x20(%ebx),%eax
    4125:	89 43 20             	mov    %eax,0x20(%ebx)
    4128:	89 43 24             	mov    %eax,0x24(%ebx)
    412b:	8d 43 2c             	lea    0x2c(%ebx),%eax
    412e:	56                   	push   %esi
    412f:	50                   	push   %eax
    4130:	8b 45 08             	mov    0x8(%ebp),%eax
    4133:	57                   	push   %edi
    4134:	8b 40 04             	mov    0x4(%eax),%eax
    4137:	50                   	push   %eax
    4138:	e8 53 31 00 00       	call   7290 <vbd_disk_info@plt>
    413d:	83 c4 10             	add    $0x10,%esp
    4140:	85 c0                	test   %eax,%eax
    4142:	0f 85 c0 00 00 00    	jne    4208 <fdisk_dev_open+0x138>
    4148:	8b 4b 44             	mov    0x44(%ebx),%ecx
    414b:	8b 43 40             	mov    0x40(%ebx),%eax
    414e:	0f af c1             	imul   %ecx,%eax
    4151:	89 45 d0             	mov    %eax,-0x30(%ebp)
    4154:	89 c8                	mov    %ecx,%eax
    4156:	f7 63 3c             	mull   0x3c(%ebx)
    4159:	8b 7d d0             	mov    -0x30(%ebp),%edi
    415c:	89 c6                	mov    %eax,%esi
    415e:	01 d7                	add    %edx,%edi
    4160:	89 fa                	mov    %edi,%edx
    4162:	0f ac d0 14          	shrd   $0x14,%edx,%eax
    4166:	c1 ea 14             	shr    $0x14,%edx
    4169:	83 fa 00             	cmp    $0x0,%edx
    416c:	77 0b                	ja     4179 <fdisk_dev_open+0xa9>
    416e:	3d ff 00 00 00       	cmp    $0xff,%eax
    4173:	0f 86 b7 01 00 00    	jbe    4330 <fdisk_dev_open+0x260>
    4179:	b8 00 00 10 00       	mov    $0x100000,%eax
    417e:	66 90                	xchg   %ax,%ax
    4180:	31 d2                	xor    %edx,%edx
    4182:	f7 f1                	div    %ecx
    4184:	85 c0                	test   %eax,%eax
    4186:	0f 85 34 02 00 00    	jne    43c0 <fdisk_dev_open+0x2f0>
    418c:	c7 43 50 01 00 00 00 	movl   $0x1,0x50(%ebx)
    4193:	c7 43 54 00 00 00 00 	movl   $0x0,0x54(%ebx)
    419a:	8d 45 e4             	lea    -0x1c(%ebp),%eax
    419d:	8b 55 0c             	mov    0xc(%ebp),%edx
    41a0:	50                   	push   %eax
    41a1:	8d 45 e0             	lea    -0x20(%ebp),%eax
    41a4:	50                   	push   %eax
    41a5:	8b 45 08             	mov    0x8(%ebp),%eax
    41a8:	52                   	push   %edx
    41a9:	8b 48 04             	mov    0x4(%eax),%ecx
    41ac:	51                   	push   %ecx
    41ad:	e8 0e 30 00 00       	call   71c0 <vbd_label_get_parts@plt>
    41b2:	83 c4 10             	add    $0x10,%esp
    41b5:	85 c0                	test   %eax,%eax
    41b7:	75 4f                	jne    4208 <fdisk_dev_open+0x138>
    41b9:	8b 45 e4             	mov    -0x1c(%ebp),%eax
    41bc:	31 f6                	xor    %esi,%esi
    41be:	85 c0                	test   %eax,%eax
    41c0:	75 10                	jne    41d2 <fdisk_dev_open+0x102>
    41c2:	e9 21 02 00 00       	jmp    43e8 <fdisk_dev_open+0x318>
    41c7:	90                   	nop
    41c8:	46                   	inc    %esi
    41c9:	39 75 e4             	cmp    %esi,-0x1c(%ebp)
    41cc:	0f 86 16 02 00 00    	jbe    43e8 <fdisk_dev_open+0x318>
    41d2:	8b 45 e0             	mov    -0x20(%ebp),%eax
    41d5:	31 c9                	xor    %ecx,%ecx
    41d7:	8b 14 b0             	mov    (%eax,%esi,4),%edx
    41da:	89 d8                	mov    %ebx,%eax
    41dc:	e8 3f f2 ff ff       	call   3420 <fdisk_part_add>
    41e1:	85 c0                	test   %eax,%eax
    41e3:	74 e3                	je     41c8 <fdisk_dev_open+0xf8>
    41e5:	89 c7                	mov    %eax,%edi
    41e7:	8b 43 0c             	mov    0xc(%ebx),%eax
    41ea:	39 45 d4             	cmp    %eax,-0x2c(%ebp)
    41ed:	75 26                	jne    4215 <fdisk_dev_open+0x145>
    41ef:	90                   	nop
    41f0:	83 ec 0c             	sub    $0xc,%esp
    41f3:	53                   	push   %ebx
    41f4:	e8 f7 33 00 00       	call   75f0 <free@plt>
    41f9:	83 c4 10             	add    $0x10,%esp
    41fc:	8d 65 f4             	lea    -0xc(%ebp),%esp
    41ff:	89 f8                	mov    %edi,%eax
    4201:	5b                   	pop    %ebx
    4202:	5e                   	pop    %esi
    4203:	5f                   	pop    %edi
    4204:	5d                   	pop    %ebp
    4205:	c3                   	ret    
    4206:	66 90                	xchg   %ax,%ax
    4208:	8b 43 0c             	mov    0xc(%ebx),%eax
    420b:	bf f6 fe ff ff       	mov    $0xfffffef6,%edi
    4210:	39 45 d4             	cmp    %eax,-0x2c(%ebp)
    4213:	74 db                	je     41f0 <fdisk_dev_open+0x120>
    4215:	85 c0                	test   %eax,%eax
    4217:	74 d7                	je     41f0 <fdisk_dev_open+0x120>
    4219:	83 e8 04             	sub    $0x4,%eax
    421c:	74 d2                	je     41f0 <fdisk_dev_open+0x120>
    421e:	8b 75 d4             	mov    -0x2c(%ebp),%esi
    4221:	e9 9f 00 00 00       	jmp    42c5 <fdisk_dev_open+0x1f5>
    4226:	66 90                	xchg   %ax,%ax
    4228:	8b 50 18             	mov    0x18(%eax),%edx
    422b:	85 d2                	test   %edx,%edx
    422d:	0f 84 cc 00 00 00    	je     42ff <fdisk_dev_open+0x22f>
    4233:	89 0a                	mov    %ecx,(%edx)
    4235:	8b 48 14             	mov    0x14(%eax),%ecx
    4238:	89 51 04             	mov    %edx,0x4(%ecx)
    423b:	c7 40 14 00 00 00 00 	movl   $0x0,0x14(%eax)
    4242:	c7 40 18 00 00 00 00 	movl   $0x0,0x18(%eax)
    4249:	8b 48 0c             	mov    0xc(%eax),%ecx
    424c:	85 c9                	test   %ecx,%ecx
    424e:	0f 84 b4 00 00 00    	je     4308 <fdisk_dev_open+0x238>
    4254:	8b 50 10             	mov    0x10(%eax),%edx
    4257:	85 d2                	test   %edx,%edx
    4259:	0f 84 a0 00 00 00    	je     42ff <fdisk_dev_open+0x22f>
    425f:	89 0a                	mov    %ecx,(%edx)
    4261:	8b 48 0c             	mov    0xc(%eax),%ecx
    4264:	89 51 04             	mov    %edx,0x4(%ecx)
    4267:	8b 48 1c             	mov    0x1c(%eax),%ecx
    426a:	c7 40 0c 00 00 00 00 	movl   $0x0,0xc(%eax)
    4271:	c7 40 10 00 00 00 00 	movl   $0x0,0x10(%eax)
    4278:	85 c9                	test   %ecx,%ecx
    427a:	0f 84 a0 00 00 00    	je     4320 <fdisk_dev_open+0x250>
    4280:	8b 50 20             	mov    0x20(%eax),%edx
    4283:	85 d2                	test   %edx,%edx
    4285:	74 78                	je     42ff <fdisk_dev_open+0x22f>
    4287:	89 0a                	mov    %ecx,(%edx)
    4289:	8b 48 1c             	mov    0x1c(%eax),%ecx
    428c:	89 51 04             	mov    %edx,0x4(%ecx)
    428f:	c7 40 1c 00 00 00 00 	movl   $0x0,0x1c(%eax)
    4296:	c7 40 20 00 00 00 00 	movl   $0x0,0x20(%eax)
    429d:	83 ec 0c             	sub    $0xc,%esp
    42a0:	50                   	push   %eax
    42a1:	e8 4a 33 00 00       	call   75f0 <free@plt>
    42a6:	8b 43 0c             	mov    0xc(%ebx),%eax
    42a9:	83 c4 10             	add    $0x10,%esp
    42ac:	39 c6                	cmp    %eax,%esi
    42ae:	0f 84 3c ff ff ff    	je     41f0 <fdisk_dev_open+0x120>
    42b4:	85 c0                	test   %eax,%eax
    42b6:	0f 84 34 ff ff ff    	je     41f0 <fdisk_dev_open+0x120>
    42bc:	83 e8 04             	sub    $0x4,%eax
    42bf:	0f 84 2b ff ff ff    	je     41f0 <fdisk_dev_open+0x120>
    42c5:	8b 48 04             	mov    0x4(%eax),%ecx
    42c8:	85 c9                	test   %ecx,%ecx
    42ca:	74 0f                	je     42db <fdisk_dev_open+0x20b>
    42cc:	8b 50 08             	mov    0x8(%eax),%edx
    42cf:	85 d2                	test   %edx,%edx
    42d1:	74 08                	je     42db <fdisk_dev_open+0x20b>
    42d3:	89 0a                	mov    %ecx,(%edx)
    42d5:	8b 48 04             	mov    0x4(%eax),%ecx
    42d8:	89 51 04             	mov    %edx,0x4(%ecx)
    42db:	8b 48 14             	mov    0x14(%eax),%ecx
    42de:	c7 40 04 00 00 00 00 	movl   $0x0,0x4(%eax)
    42e5:	c7 40 08 00 00 00 00 	movl   $0x0,0x8(%eax)
    42ec:	85 c9                	test   %ecx,%ecx
    42ee:	0f 85 34 ff ff ff    	jne    4228 <fdisk_dev_open+0x158>
    42f4:	8b 50 18             	mov    0x18(%eax),%edx
    42f7:	85 d2                	test   %edx,%edx
    42f9:	0f 84 4a ff ff ff    	je     4249 <fdisk_dev_open+0x179>
    42ff:	e8 73 1b 00 00       	call   5e77 <link_used.part.2>
    4304:	8d 74 26 00          	lea    0x0(%esi,%eiz,1),%esi
    4308:	8b 48 10             	mov    0x10(%eax),%ecx
    430b:	85 c9                	test   %ecx,%ecx
    430d:	75 f0                	jne    42ff <fdisk_dev_open+0x22f>
    430f:	8b 48 1c             	mov    0x1c(%eax),%ecx
    4312:	85 c9                	test   %ecx,%ecx
    4314:	0f 85 66 ff ff ff    	jne    4280 <fdisk_dev_open+0x1b0>
    431a:	8d b6 00 00 00 00    	lea    0x0(%esi),%esi
    4320:	8b 50 20             	mov    0x20(%eax),%edx
    4323:	85 d2                	test   %edx,%edx
    4325:	75 d8                	jne    42ff <fdisk_dev_open+0x22f>
    4327:	e9 71 ff ff ff       	jmp    429d <fdisk_dev_open+0x1cd>
    432c:	8d 74 26 00          	lea    0x0(%esi,%eiz,1),%esi
    4330:	89 fa                	mov    %edi,%edx
    4332:	89 f0                	mov    %esi,%eax
    4334:	0f ac d0 10          	shrd   $0x10,%edx,%eax
    4338:	c1 ea 10             	shr    $0x10,%edx
    433b:	83 fa 00             	cmp    $0x0,%edx
    433e:	76 10                	jbe    4350 <fdisk_dev_open+0x280>
    4340:	b8 00 00 01 00       	mov    $0x10000,%eax
    4345:	e9 36 fe ff ff       	jmp    4180 <fdisk_dev_open+0xb0>
    434a:	8d b6 00 00 00 00    	lea    0x0(%esi),%esi
    4350:	3d ff 00 00 00       	cmp    $0xff,%eax
    4355:	77 e9                	ja     4340 <fdisk_dev_open+0x270>
    4357:	89 fa                	mov    %edi,%edx
    4359:	89 f0                	mov    %esi,%eax
    435b:	0f ac d0 0c          	shrd   $0xc,%edx,%eax
    435f:	c1 ea 0c             	shr    $0xc,%edx
    4362:	83 fa 00             	cmp    $0x0,%edx
    4365:	76 11                	jbe    4378 <fdisk_dev_open+0x2a8>
    4367:	b8 00 10 00 00       	mov    $0x1000,%eax
    436c:	e9 0f fe ff ff       	jmp    4180 <fdisk_dev_open+0xb0>
    4371:	8d b4 26 00 00 00 00 	lea    0x0(%esi,%eiz,1),%esi
    4378:	3d ff 00 00 00       	cmp    $0xff,%eax
    437d:	77 e8                	ja     4367 <fdisk_dev_open+0x297>
    437f:	89 fa                	mov    %edi,%edx
    4381:	89 f0                	mov    %esi,%eax
    4383:	0f ac d0 08          	shrd   $0x8,%edx,%eax
    4387:	c1 ea 08             	shr    $0x8,%edx
    438a:	83 fa 00             	cmp    $0x0,%edx
    438d:	76 11                	jbe    43a0 <fdisk_dev_open+0x2d0>
    438f:	b8 00 01 00 00       	mov    $0x100,%eax
    4394:	e9 e7 fd ff ff       	jmp    4180 <fdisk_dev_open+0xb0>
    4399:	8d b4 26 00 00 00 00 	lea    0x0(%esi,%eiz,1),%esi
    43a0:	3d ff 00 00 00       	cmp    $0xff,%eax
    43a5:	77 e8                	ja     438f <fdisk_dev_open+0x2bf>
    43a7:	0f ac fe 04          	shrd   $0x4,%edi,%esi
    43ab:	c1 ef 04             	shr    $0x4,%edi
    43ae:	83 ff 00             	cmp    $0x0,%edi
    43b1:	76 1d                	jbe    43d0 <fdisk_dev_open+0x300>
    43b3:	b8 10 00 00 00       	mov    $0x10,%eax
    43b8:	e9 c3 fd ff ff       	jmp    4180 <fdisk_dev_open+0xb0>
    43bd:	8d 76 00             	lea    0x0(%esi),%esi
    43c0:	89 43 50             	mov    %eax,0x50(%ebx)
    43c3:	c7 43 54 00 00 00 00 	movl   $0x0,0x54(%ebx)
    43ca:	e9 cb fd ff ff       	jmp    419a <fdisk_dev_open+0xca>
    43cf:	90                   	nop
    43d0:	b8 01 00 00 00       	mov    $0x1,%eax
    43d5:	81 fe ff 00 00 00    	cmp    $0xff,%esi
    43db:	0f 86 9f fd ff ff    	jbe    4180 <fdisk_dev_open+0xb0>
    43e1:	eb d0                	jmp    43b3 <fdisk_dev_open+0x2e3>
    43e3:	90                   	nop
    43e4:	8d 74 26 00          	lea    0x0(%esi,%eiz,1),%esi
    43e8:	83 ec 0c             	sub    $0xc,%esp
    43eb:	8b 4d e0             	mov    -0x20(%ebp),%ecx
    43ee:	31 ff                	xor    %edi,%edi
    43f0:	51                   	push   %ecx
    43f1:	e8 fa 31 00 00       	call   75f0 <free@plt>
    43f6:	8b 45 10             	mov    0x10(%ebp),%eax
    43f9:	83 c4 10             	add    $0x10,%esp
    43fc:	89 18                	mov    %ebx,(%eax)
    43fe:	8d 65 f4             	lea    -0xc(%ebp),%esp
    4401:	89 f8                	mov    %edi,%eax
    4403:	5b                   	pop    %ebx
    4404:	5e                   	pop    %esi
    4405:	5f                   	pop    %edi
    4406:	5d                   	pop    %ebp
    4407:	c3                   	ret    
    4408:	bf fe ff ff ff       	mov    $0xfffffffe,%edi
    440d:	e9 ea fd ff ff       	jmp    41fc <fdisk_dev_open+0x12c>
    4412:	8d b4 26 00 00 00 00 	lea    0x0(%esi,%eiz,1),%esi
    4419:	8d bc 27 00 00 00 00 	lea    0x0(%edi,%eiz,1),%edi

00004420 <fdisk_dev_close>:
    4420:	55                   	push   %ebp
    4421:	89 e5                	mov    %esp,%ebp
    4423:	56                   	push   %esi
    4424:	53                   	push   %ebx
    4425:	8b 75 08             	mov    0x8(%ebp),%esi
    4428:	85 f6                	test   %esi,%esi
    442a:	0f 84 0c 01 00 00    	je     453c <fdisk_dev_close+0x11c>
    4430:	8b 46 0c             	mov    0xc(%esi),%eax
    4433:	8d 5e 08             	lea    0x8(%esi),%ebx
    4436:	39 d8                	cmp    %ebx,%eax
    4438:	0f 84 c2 00 00 00    	je     4500 <fdisk_dev_close+0xe0>
    443e:	66 90                	xchg   %ax,%ax
    4440:	85 c0                	test   %eax,%eax
    4442:	0f 84 b8 00 00 00    	je     4500 <fdisk_dev_close+0xe0>
    4448:	83 e8 04             	sub    $0x4,%eax
    444b:	0f 84 af 00 00 00    	je     4500 <fdisk_dev_close+0xe0>
    4451:	8b 48 04             	mov    0x4(%eax),%ecx
    4454:	85 c9                	test   %ecx,%ecx
    4456:	74 0f                	je     4467 <fdisk_dev_close+0x47>
    4458:	8b 50 08             	mov    0x8(%eax),%edx
    445b:	85 d2                	test   %edx,%edx
    445d:	74 08                	je     4467 <fdisk_dev_close+0x47>
    445f:	89 0a                	mov    %ecx,(%edx)
    4461:	8b 48 04             	mov    0x4(%eax),%ecx
    4464:	89 51 04             	mov    %edx,0x4(%ecx)
    4467:	8b 48 14             	mov    0x14(%eax),%ecx
    446a:	c7 40 04 00 00 00 00 	movl   $0x0,0x4(%eax)
    4471:	c7 40 08 00 00 00 00 	movl   $0x0,0x8(%eax)
    4478:	85 c9                	test   %ecx,%ecx
    447a:	0f 84 90 00 00 00    	je     4510 <fdisk_dev_close+0xf0>
    4480:	8b 50 18             	mov    0x18(%eax),%edx
    4483:	85 d2                	test   %edx,%edx
    4485:	0f 84 8c 00 00 00    	je     4517 <fdisk_dev_close+0xf7>
    448b:	89 0a                	mov    %ecx,(%edx)
    448d:	8b 48 14             	mov    0x14(%eax),%ecx
    4490:	89 51 04             	mov    %edx,0x4(%ecx)
    4493:	c7 40 14 00 00 00 00 	movl   $0x0,0x14(%eax)
    449a:	c7 40 18 00 00 00 00 	movl   $0x0,0x18(%eax)
    44a1:	8b 48 0c             	mov    0xc(%eax),%ecx
    44a4:	85 c9                	test   %ecx,%ecx
    44a6:	74 78                	je     4520 <fdisk_dev_close+0x100>
    44a8:	8b 50 10             	mov    0x10(%eax),%edx
    44ab:	85 d2                	test   %edx,%edx
    44ad:	74 68                	je     4517 <fdisk_dev_close+0xf7>
    44af:	89 0a                	mov    %ecx,(%edx)
    44b1:	8b 48 0c             	mov    0xc(%eax),%ecx
    44b4:	89 51 04             	mov    %edx,0x4(%ecx)
    44b7:	c7 40 0c 00 00 00 00 	movl   $0x0,0xc(%eax)
    44be:	c7 40 10 00 00 00 00 	movl   $0x0,0x10(%eax)
    44c5:	8b 48 1c             	mov    0x1c(%eax),%ecx
    44c8:	85 c9                	test   %ecx,%ecx
    44ca:	74 64                	je     4530 <fdisk_dev_close+0x110>
    44cc:	8b 50 20             	mov    0x20(%eax),%edx
    44cf:	85 d2                	test   %edx,%edx
    44d1:	74 44                	je     4517 <fdisk_dev_close+0xf7>
    44d3:	89 0a                	mov    %ecx,(%edx)
    44d5:	8b 48 1c             	mov    0x1c(%eax),%ecx
    44d8:	89 51 04             	mov    %edx,0x4(%ecx)
    44db:	c7 40 1c 00 00 00 00 	movl   $0x0,0x1c(%eax)
    44e2:	c7 40 20 00 00 00 00 	movl   $0x0,0x20(%eax)
    44e9:	83 ec 0c             	sub    $0xc,%esp
    44ec:	50                   	push   %eax
    44ed:	e8 fe 30 00 00       	call   75f0 <free@plt>
    44f2:	8b 46 0c             	mov    0xc(%esi),%eax
    44f5:	83 c4 10             	add    $0x10,%esp
    44f8:	39 c3                	cmp    %eax,%ebx
    44fa:	0f 85 40 ff ff ff    	jne    4440 <fdisk_dev_close+0x20>
    4500:	89 75 08             	mov    %esi,0x8(%ebp)
    4503:	8d 65 f8             	lea    -0x8(%ebp),%esp
    4506:	5b                   	pop    %ebx
    4507:	5e                   	pop    %esi
    4508:	5d                   	pop    %ebp
    4509:	e9 e2 30 00 00       	jmp    75f0 <free@plt>
    450e:	66 90                	xchg   %ax,%ax
    4510:	8b 50 18             	mov    0x18(%eax),%edx
    4513:	85 d2                	test   %edx,%edx
    4515:	74 8a                	je     44a1 <fdisk_dev_close+0x81>
    4517:	e8 5b 19 00 00       	call   5e77 <link_used.part.2>
    451c:	8d 74 26 00          	lea    0x0(%esi,%eiz,1),%esi
    4520:	8b 48 10             	mov    0x10(%eax),%ecx
    4523:	85 c9                	test   %ecx,%ecx
    4525:	74 9e                	je     44c5 <fdisk_dev_close+0xa5>
    4527:	e8 4b 19 00 00       	call   5e77 <link_used.part.2>
    452c:	8d 74 26 00          	lea    0x0(%esi,%eiz,1),%esi
    4530:	8b 50 20             	mov    0x20(%eax),%edx
    4533:	85 d2                	test   %edx,%edx
    4535:	74 b2                	je     44e9 <fdisk_dev_close+0xc9>
    4537:	e8 3b 19 00 00       	call   5e77 <link_used.part.2>
    453c:	8d 65 f8             	lea    -0x8(%ebp),%esp
    453f:	5b                   	pop    %ebx
    4540:	5e                   	pop    %esi
    4541:	5d                   	pop    %ebp
    4542:	c3                   	ret    
    4543:	8d b6 00 00 00 00    	lea    0x0(%esi),%esi
    4549:	8d bc 27 00 00 00 00 	lea    0x0(%edi,%eiz,1),%edi

00004550 <fdisk_dev_erase>:
    4550:	55                   	push   %ebp
    4551:	89 e5                	mov    %esp,%ebp
    4553:	53                   	push   %ebx
    4554:	50                   	push   %eax
    4555:	8b 55 08             	mov    0x8(%ebp),%edx
    4558:	8b 42 2c             	mov    0x2c(%edx),%eax
    455b:	85 c0                	test   %eax,%eax
    455d:	75 41                	jne    45a0 <fdisk_dev_erase+0x50>
    455f:	8b 42 0c             	mov    0xc(%edx),%eax
    4562:	8d 4a 08             	lea    0x8(%edx),%ecx
    4565:	39 c8                	cmp    %ecx,%eax
    4567:	74 41                	je     45aa <fdisk_dev_erase+0x5a>
    4569:	85 c0                	test   %eax,%eax
    456b:	74 3d                	je     45aa <fdisk_dev_erase+0x5a>
    456d:	83 e8 04             	sub    $0x4,%eax
    4570:	89 c3                	mov    %eax,%ebx
    4572:	74 36                	je     45aa <fdisk_dev_erase+0x5a>
    4574:	8b 40 38             	mov    0x38(%eax),%eax
    4577:	85 c0                	test   %eax,%eax
    4579:	74 25                	je     45a0 <fdisk_dev_erase+0x50>
    457b:	50                   	push   %eax
    457c:	50                   	push   %eax
    457d:	8b 02                	mov    (%edx),%eax
    457f:	8b 4b 58             	mov    0x58(%ebx),%ecx
    4582:	51                   	push   %ecx
    4583:	8b 00                	mov    (%eax),%eax
    4585:	50                   	push   %eax
    4586:	e8 35 2d 00 00       	call   72c0 <vol_part_empty@plt>
    458b:	83 c4 10             	add    $0x10,%esp
    458e:	85 c0                	test   %eax,%eax
    4590:	75 07                	jne    4599 <fdisk_dev_erase+0x49>
    4592:	c7 43 38 00 00 00 00 	movl   $0x0,0x38(%ebx)
    4599:	8b 5d fc             	mov    -0x4(%ebp),%ebx
    459c:	c9                   	leave  
    459d:	c3                   	ret    
    459e:	66 90                	xchg   %ax,%ax
    45a0:	b8 f2 ff ff ff       	mov    $0xfffffff2,%eax
    45a5:	8b 5d fc             	mov    -0x4(%ebp),%ebx
    45a8:	c9                   	leave  
    45a9:	c3                   	ret    
    45aa:	50                   	push   %eax
    45ab:	68 e4 01 00 00       	push   $0x1e4
    45b0:	68 bc 6d 00 00       	push   $0x6dbc
    45b5:	68 c8 6d 00 00       	push   $0x6dc8
    45ba:	e8 e1 2d 00 00       	call   73a0 <assert_abort@plt>
    45bf:	90                   	nop

000045c0 <fdisk_dev_get_flags>:
    45c0:	55                   	push   %ebp
    45c1:	89 e5                	mov    %esp,%ebp
    45c3:	83 ec 08             	sub    $0x8,%esp
    45c6:	8b 45 08             	mov    0x8(%ebp),%eax
    45c9:	8b 48 2c             	mov    0x2c(%eax),%ecx
    45cc:	85 c9                	test   %ecx,%ecx
    45ce:	75 28                	jne    45f8 <fdisk_dev_get_flags+0x38>
    45d0:	8b 50 0c             	mov    0xc(%eax),%edx
    45d3:	83 c0 08             	add    $0x8,%eax
    45d6:	39 c2                	cmp    %eax,%edx
    45d8:	74 2a                	je     4604 <fdisk_dev_get_flags+0x44>
    45da:	85 d2                	test   %edx,%edx
    45dc:	74 26                	je     4604 <fdisk_dev_get_flags+0x44>
    45de:	83 ea 04             	sub    $0x4,%edx
    45e1:	74 21                	je     4604 <fdisk_dev_get_flags+0x44>
    45e3:	83 7a 38 01          	cmpl   $0x1,0x38(%edx)
    45e7:	19 c0                	sbb    %eax,%eax
    45e9:	8b 55 0c             	mov    0xc(%ebp),%edx
    45ec:	83 e0 fd             	and    $0xfffffffd,%eax
    45ef:	83 c0 04             	add    $0x4,%eax
    45f2:	89 02                	mov    %eax,(%edx)
    45f4:	c9                   	leave  
    45f5:	c3                   	ret    
    45f6:	66 90                	xchg   %ax,%ax
    45f8:	8b 55 0c             	mov    0xc(%ebp),%edx
    45fb:	b8 02 00 00 00       	mov    $0x2,%eax
    4600:	89 02                	mov    %eax,(%edx)
    4602:	c9                   	leave  
    4603:	c3                   	ret    
    4604:	50                   	push   %eax
    4605:	68 fb 01 00 00       	push   $0x1fb
    460a:	68 bc 6d 00 00       	push   $0x6dbc
    460f:	68 c8 6d 00 00       	push   $0x6dc8
    4614:	e8 87 2d 00 00       	call   73a0 <assert_abort@plt>
    4619:	8d b4 26 00 00 00 00 	lea    0x0(%esi,%eiz,1),%esi

00004620 <fdisk_dev_get_svcname>:
    4620:	55                   	push   %ebp
    4621:	89 e5                	mov    %esp,%ebp
    4623:	83 ec 20             	sub    $0x20,%esp
    4626:	8d 45 f4             	lea    -0xc(%ebp),%eax
    4629:	50                   	push   %eax
    462a:	8b 45 08             	mov    0x8(%ebp),%eax
    462d:	8b 40 04             	mov    0x4(%eax),%eax
    4630:	50                   	push   %eax
    4631:	e8 5a 2d 00 00       	call   7390 <loc_service_get_name@plt>
    4636:	83 c4 10             	add    $0x10,%esp
    4639:	85 c0                	test   %eax,%eax
    463b:	75 08                	jne    4645 <fdisk_dev_get_svcname+0x25>
    463d:	8b 55 0c             	mov    0xc(%ebp),%edx
    4640:	8b 4d f4             	mov    -0xc(%ebp),%ecx
    4643:	89 0a                	mov    %ecx,(%edx)
    4645:	c9                   	leave  
    4646:	c3                   	ret    
    4647:	89 f6                	mov    %esi,%esi
    4649:	8d bc 27 00 00 00 00 	lea    0x0(%edi,%eiz,1),%edi

00004650 <fdisk_dev_capacity>:
    4650:	55                   	push   %ebp
    4651:	89 e5                	mov    %esp,%ebp
    4653:	83 ec 08             	sub    $0x8,%esp
    4656:	8b 45 08             	mov    0x8(%ebp),%eax
    4659:	8b 55 0c             	mov    0xc(%ebp),%edx
    465c:	52                   	push   %edx
    465d:	8b 48 44             	mov    0x44(%eax),%ecx
    4660:	8b 50 4c             	mov    0x4c(%eax),%edx
    4663:	51                   	push   %ecx
    4664:	52                   	push   %edx
    4665:	8b 48 48             	mov    0x48(%eax),%ecx
    4668:	51                   	push   %ecx
    4669:	e8 32 18 00 00       	call   5ea0 <fdisk_cap_from_blocks>
    466e:	31 c0                	xor    %eax,%eax
    4670:	c9                   	leave  
    4671:	c3                   	ret    
    4672:	8d b4 26 00 00 00 00 	lea    0x0(%esi,%eiz,1),%esi
    4679:	8d bc 27 00 00 00 00 	lea    0x0(%edi,%eiz,1),%edi

00004680 <fdisk_label_get_info>:
    4680:	55                   	push   %ebp
    4681:	89 e5                	mov    %esp,%ebp
    4683:	57                   	push   %edi
    4684:	56                   	push   %esi
    4685:	53                   	push   %ebx
    4686:	83 ec 60             	sub    $0x60,%esp
    4689:	8d 45 c4             	lea    -0x3c(%ebp),%eax
    468c:	8b 5d 08             	mov    0x8(%ebp),%ebx
    468f:	8b 75 0c             	mov    0xc(%ebp),%esi
    4692:	50                   	push   %eax
    4693:	8b 03                	mov    (%ebx),%eax
    4695:	8b 53 04             	mov    0x4(%ebx),%edx
    4698:	52                   	push   %edx
    4699:	8b 48 04             	mov    0x4(%eax),%ecx
    469c:	51                   	push   %ecx
    469d:	e8 ee 2b 00 00       	call   7290 <vbd_disk_info@plt>
    46a2:	83 c4 10             	add    $0x10,%esp
    46a5:	85 c0                	test   %eax,%eax
    46a7:	0f 85 b3 00 00 00    	jne    4760 <fdisk_label_get_info+0xe0>
    46ad:	89 c7                	mov    %eax,%edi
    46af:	8b 45 c4             	mov    -0x3c(%ebp),%eax
    46b2:	89 06                	mov    %eax,(%esi)
    46b4:	8b 45 c8             	mov    -0x38(%ebp),%eax
    46b7:	89 46 04             	mov    %eax,0x4(%esi)
    46ba:	a8 0c                	test   $0xc,%al
    46bc:	75 72                	jne    4730 <fdisk_label_get_info+0xb0>
    46be:	a8 10                	test   $0x10,%al
    46c0:	74 36                	je     46f8 <fdisk_label_get_info+0x78>
    46c2:	8b 43 50             	mov    0x50(%ebx),%eax
    46c5:	8b 53 54             	mov    0x54(%ebx),%edx
    46c8:	89 55 a4             	mov    %edx,-0x5c(%ebp)
    46cb:	89 45 a0             	mov    %eax,-0x60(%ebp)
    46ce:	09 c2                	or     %eax,%edx
    46d0:	74 36                	je     4708 <fdisk_label_get_info+0x88>
    46d2:	83 ec 0c             	sub    $0xc,%esp
    46d5:	8d 45 b8             	lea    -0x48(%ebp),%eax
    46d8:	8d 4d b0             	lea    -0x50(%ebp),%ecx
    46db:	ba 01 00 00 00       	mov    $0x1,%edx
    46e0:	50                   	push   %eax
    46e1:	89 d8                	mov    %ebx,%eax
    46e3:	e8 88 f0 ff ff       	call   3770 <fdisk_part_get_max_free_range>
    46e8:	83 c4 10             	add    $0x10,%esp
    46eb:	85 c0                	test   %eax,%eax
    46ed:	74 29                	je     4718 <fdisk_label_get_info+0x98>
    46ef:	8b 46 04             	mov    0x4(%esi),%eax
    46f2:	83 e0 ef             	and    $0xffffffef,%eax
    46f5:	89 46 04             	mov    %eax,0x4(%esi)
    46f8:	8d 65 f4             	lea    -0xc(%ebp),%esp
    46fb:	89 f8                	mov    %edi,%eax
    46fd:	5b                   	pop    %ebx
    46fe:	5e                   	pop    %esi
    46ff:	5f                   	pop    %edi
    4700:	5d                   	pop    %ebp
    4701:	c3                   	ret    
    4702:	8d b6 00 00 00 00    	lea    0x0(%esi),%esi
    4708:	c7 45 a0 01 00 00 00 	movl   $0x1,-0x60(%ebp)
    470f:	c7 45 a4 00 00 00 00 	movl   $0x0,-0x5c(%ebp)
    4716:	eb ba                	jmp    46d2 <fdisk_label_get_info+0x52>
    4718:	8b 45 a4             	mov    -0x5c(%ebp),%eax
    471b:	3b 45 bc             	cmp    -0x44(%ebp),%eax
    471e:	72 d8                	jb     46f8 <fdisk_label_get_info+0x78>
    4720:	77 cd                	ja     46ef <fdisk_label_get_info+0x6f>
    4722:	8b 45 a0             	mov    -0x60(%ebp),%eax
    4725:	3b 45 b8             	cmp    -0x48(%ebp),%eax
    4728:	72 ce                	jb     46f8 <fdisk_label_get_info+0x78>
    472a:	eb c3                	jmp    46ef <fdisk_label_get_info+0x6f>
    472c:	8d 74 26 00          	lea    0x0(%esi,%eiz,1),%esi
    4730:	83 ec 0c             	sub    $0xc,%esp
    4733:	8d 45 b8             	lea    -0x48(%ebp),%eax
    4736:	31 d2                	xor    %edx,%edx
    4738:	8d 4d b0             	lea    -0x50(%ebp),%ecx
    473b:	50                   	push   %eax
    473c:	89 d8                	mov    %ebx,%eax
    473e:	e8 2d f0 ff ff       	call   3770 <fdisk_part_get_max_free_range>
    4743:	83 c4 10             	add    $0x10,%esp
    4746:	85 c0                	test   %eax,%eax
    4748:	8b 46 04             	mov    0x4(%esi),%eax
    474b:	0f 84 6d ff ff ff    	je     46be <fdisk_label_get_info+0x3e>
    4751:	83 e0 f3             	and    $0xfffffff3,%eax
    4754:	89 46 04             	mov    %eax,0x4(%esi)
    4757:	e9 62 ff ff ff       	jmp    46be <fdisk_label_get_info+0x3e>
    475c:	8d 74 26 00          	lea    0x0(%esi,%eiz,1),%esi
    4760:	bf f6 fe ff ff       	mov    $0xfffffef6,%edi
    4765:	eb 91                	jmp    46f8 <fdisk_label_get_info+0x78>
    4767:	89 f6                	mov    %esi,%esi
    4769:	8d bc 27 00 00 00 00 	lea    0x0(%edi,%eiz,1),%edi

00004770 <fdisk_label_create>:
    4770:	55                   	push   %ebp
    4771:	89 e5                	mov    %esp,%ebp
    4773:	57                   	push   %edi
    4774:	56                   	push   %esi
    4775:	53                   	push   %ebx
    4776:	83 ec 1c             	sub    $0x1c,%esp
    4779:	8b 5d 08             	mov    0x8(%ebp),%ebx
    477c:	8b 73 2c             	mov    0x2c(%ebx),%esi
    477f:	85 f6                	test   %esi,%esi
    4781:	0f 85 71 02 00 00    	jne    49f8 <fdisk_label_create+0x288>
    4787:	8b 43 0c             	mov    0xc(%ebx),%eax
    478a:	8d 73 08             	lea    0x8(%ebx),%esi
    478d:	85 c0                	test   %eax,%eax
    478f:	0f 84 99 02 00 00    	je     4a2e <fdisk_label_create+0x2be>
    4795:	39 f0                	cmp    %esi,%eax
    4797:	0f 84 91 02 00 00    	je     4a2e <fdisk_label_create+0x2be>
    479d:	83 e8 04             	sub    $0x4,%eax
    47a0:	0f 84 88 02 00 00    	je     4a2e <fdisk_label_create+0x2be>
    47a6:	8b 50 38             	mov    0x38(%eax),%edx
    47a9:	85 d2                	test   %edx,%edx
    47ab:	0f 84 98 00 00 00    	je     4849 <fdisk_label_create+0xd9>
    47b1:	e9 42 02 00 00       	jmp    49f8 <fdisk_label_create+0x288>
    47b6:	66 90                	xchg   %ax,%ax
    47b8:	8b 50 18             	mov    0x18(%eax),%edx
    47bb:	85 d2                	test   %edx,%edx
    47bd:	0f 84 c0 00 00 00    	je     4883 <fdisk_label_create+0x113>
    47c3:	89 0a                	mov    %ecx,(%edx)
    47c5:	8b 48 14             	mov    0x14(%eax),%ecx
    47c8:	89 51 04             	mov    %edx,0x4(%ecx)
    47cb:	c7 40 14 00 00 00 00 	movl   $0x0,0x14(%eax)
    47d2:	c7 40 18 00 00 00 00 	movl   $0x0,0x18(%eax)
    47d9:	8b 48 0c             	mov    0xc(%eax),%ecx
    47dc:	85 c9                	test   %ecx,%ecx
    47de:	0f 84 a4 00 00 00    	je     4888 <fdisk_label_create+0x118>
    47e4:	8b 50 10             	mov    0x10(%eax),%edx
    47e7:	85 d2                	test   %edx,%edx
    47e9:	0f 84 94 00 00 00    	je     4883 <fdisk_label_create+0x113>
    47ef:	89 0a                	mov    %ecx,(%edx)
    47f1:	8b 48 0c             	mov    0xc(%eax),%ecx
    47f4:	89 51 04             	mov    %edx,0x4(%ecx)
    47f7:	8b 48 1c             	mov    0x1c(%eax),%ecx
    47fa:	c7 40 0c 00 00 00 00 	movl   $0x0,0xc(%eax)
    4801:	c7 40 10 00 00 00 00 	movl   $0x0,0x10(%eax)
    4808:	85 c9                	test   %ecx,%ecx
    480a:	0f 84 90 00 00 00    	je     48a0 <fdisk_label_create+0x130>
    4810:	8b 50 20             	mov    0x20(%eax),%edx
    4813:	85 d2                	test   %edx,%edx
