
sysinst:     file format elf32-i386


Disassembly of section .init:

000010f4 <__entry>:
    10f4:	66 8c d0             	mov    %ss,%ax
    10f7:	8e d8                	mov    %eax,%ds
    10f9:	8e c0                	mov    %eax,%es
    10fb:	8e e0                	mov    %eax,%fs
    10fd:	b8 01 00 00 00       	mov    $0x1,%eax
    1102:	0f a2                	cpuid  
    1104:	0f ba e2 0b          	bt     $0xb,%edx
    1108:	73 0c                	jae    1116 <__entry+0x22>
    110a:	8d 05 e0 92 00 00    	lea    0x92e0,%eax
    1110:	c7 00 80 75 00 00    	movl   $0x7580,(%eax)
    1116:	6a 00                	push   $0x0
    1118:	6a 00                	push   $0x0
    111a:	89 e5                	mov    %esp,%ebp
    111c:	57                   	push   %edi
    111d:	e8 7e 60 00 00       	call   71a0 <__main@plt>

Disassembly of section .text:

00001140 <futil_copy_file>:
    1140:	55                   	push   %ebp
    1141:	89 e5                	mov    %esp,%ebp
    1143:	56                   	push   %esi
    1144:	53                   	push   %ebx
    1145:	50                   	push   %eax
    1146:	8b 5d 08             	mov    0x8(%ebp),%ebx
    1149:	8b 75 0c             	mov    0xc(%ebp),%esi
    114c:	56                   	push   %esi
    114d:	53                   	push   %ebx
    114e:	68 97 65 00 00       	push   $0x6597
    1153:	e8 98 60 00 00       	call   71f0 <printf@plt>
    1158:	58                   	pop    %eax
    1159:	5a                   	pop    %edx
    115a:	6a 10                	push   $0x10
    115c:	53                   	push   %ebx
    115d:	e8 2e 64 00 00       	call   7590 <open@plt>
    1162:	83 c4 10             	add    $0x10,%esp
    1165:	85 c0                	test   %eax,%eax
    1167:	78 6f                	js     11d8 <futil_copy_file+0x98>
    1169:	89 c3                	mov    %eax,%ebx
    116b:	50                   	push   %eax
    116c:	6a 00                	push   $0x0
    116e:	6a 41                	push   $0x41
    1170:	56                   	push   %esi
    1171:	e8 1a 64 00 00       	call   7590 <open@plt>
    1176:	83 c4 10             	add    $0x10,%esp
    1179:	89 c6                	mov    %eax,%esi
    117b:	85 c0                	test   %eax,%eax
    117d:	79 1f                	jns    119e <futil_copy_file+0x5e>
    117f:	eb 57                	jmp    11d8 <futil_copy_file+0x98>
    1181:	8d b4 26 00 00 00 00 	lea    0x0(%esi,%eiz,1),%esi
    1188:	78 4e                	js     11d8 <futil_copy_file+0x98>
    118a:	52                   	push   %edx
    118b:	50                   	push   %eax
    118c:	68 00 93 00 00       	push   $0x9300
    1191:	56                   	push   %esi
    1192:	e8 39 62 00 00       	call   73d0 <write@plt>
    1197:	83 c4 10             	add    $0x10,%esp
    119a:	85 c0                	test   %eax,%eax
    119c:	7e 3a                	jle    11d8 <futil_copy_file+0x98>
    119e:	51                   	push   %ecx
    119f:	68 00 40 00 00       	push   $0x4000
    11a4:	68 00 93 00 00       	push   $0x9300
    11a9:	53                   	push   %ebx
    11aa:	e8 91 62 00 00       	call   7440 <read@plt>
    11af:	83 c4 10             	add    $0x10,%esp
    11b2:	85 c0                	test   %eax,%eax
    11b4:	75 d2                	jne    1188 <futil_copy_file+0x48>
    11b6:	83 ec 0c             	sub    $0xc,%esp
    11b9:	53                   	push   %ebx
    11ba:	e8 21 64 00 00       	call   75e0 <close@plt>
    11bf:	89 34 24             	mov    %esi,(%esp)
    11c2:	e8 19 64 00 00       	call   75e0 <close@plt>
    11c7:	83 c4 10             	add    $0x10,%esp
    11ca:	85 c0                	test   %eax,%eax
    11cc:	78 0a                	js     11d8 <futil_copy_file+0x98>
    11ce:	8d 65 f8             	lea    -0x8(%ebp),%esp
    11d1:	31 c0                	xor    %eax,%eax
    11d3:	5b                   	pop    %ebx
    11d4:	5e                   	pop    %esi
    11d5:	5d                   	pop    %ebp
    11d6:	c3                   	ret    
    11d7:	90                   	nop
    11d8:	8d 65 f8             	lea    -0x8(%ebp),%esp
    11db:	b8 f6 fe ff ff       	mov    $0xfffffef6,%eax
    11e0:	5b                   	pop    %ebx
    11e1:	5e                   	pop    %esi
    11e2:	5d                   	pop    %ebp
    11e3:	c3                   	ret    
    11e4:	8d b6 00 00 00 00    	lea    0x0(%esi),%esi
    11ea:	8d bf 00 00 00 00    	lea    0x0(%edi),%edi

000011f0 <futil_rcopy_contents>:
    11f0:	55                   	push   %ebp
    11f1:	89 e5                	mov    %esp,%ebp
    11f3:	57                   	push   %edi
    11f4:	56                   	push   %esi
    11f5:	53                   	push   %ebx
    11f6:	83 ec 58             	sub    $0x58,%esp
    11f9:	8b 45 08             	mov    0x8(%ebp),%eax
    11fc:	50                   	push   %eax
    11fd:	e8 ae 62 00 00       	call   74b0 <opendir@plt>
    1202:	83 c4 10             	add    $0x10,%esp
    1205:	89 45 b4             	mov    %eax,-0x4c(%ebp)
    1208:	85 c0                	test   %eax,%eax
    120a:	0f 84 78 01 00 00    	je     1388 <futil_rcopy_contents+0x198>
    1210:	83 ec 0c             	sub    $0xc,%esp
    1213:	8b 45 b4             	mov    -0x4c(%ebp),%eax
    1216:	50                   	push   %eax
    1217:	e8 f4 60 00 00       	call   7310 <readdir@plt>
    121c:	83 c4 10             	add    $0x10,%esp
    121f:	89 c3                	mov    %eax,%ebx
    1221:	85 c0                	test   %eax,%eax
    1223:	75 70                	jne    1295 <futil_rcopy_contents+0xa5>
    1225:	e9 7d 01 00 00       	jmp    13a7 <futil_rcopy_contents+0x1b7>
    122a:	8d b6 00 00 00 00    	lea    0x0(%esi),%esi
    1230:	80 7d d9 00          	cmpb   $0x0,-0x27(%ebp)
    1234:	0f 84 4e 01 00 00    	je     1388 <futil_rcopy_contents+0x198>
    123a:	8b 75 c4             	mov    -0x3c(%ebp),%esi
    123d:	53                   	push   %ebx
    123e:	53                   	push   %ebx
    123f:	56                   	push   %esi
    1240:	68 b1 65 00 00       	push   $0x65b1
    1245:	e8 a6 5f 00 00       	call   71f0 <printf@plt>
    124a:	8b 4d c4             	mov    -0x3c(%ebp),%ecx
    124d:	58                   	pop    %eax
    124e:	5a                   	pop    %edx
    124f:	6a 00                	push   $0x0
    1251:	51                   	push   %ecx
    1252:	e8 79 63 00 00       	call   75d0 <mkdir@plt>
    1257:	83 c4 10             	add    $0x10,%esp
    125a:	85 c0                	test   %eax,%eax
    125c:	0f 85 26 01 00 00    	jne    1388 <futil_rcopy_contents+0x198>
    1262:	8b 55 c4             	mov    -0x3c(%ebp),%edx
    1265:	8b 4d c0             	mov    -0x40(%ebp),%ecx
    1268:	50                   	push   %eax
    1269:	50                   	push   %eax
    126a:	52                   	push   %edx
    126b:	51                   	push   %ecx
    126c:	e8 7f ff ff ff       	call   11f0 <futil_rcopy_contents>
    1271:	83 c4 10             	add    $0x10,%esp
    1274:	85 c0                	test   %eax,%eax
    1276:	0f 85 0c 01 00 00    	jne    1388 <futil_rcopy_contents+0x198>
    127c:	83 ec 0c             	sub    $0xc,%esp
    127f:	8b 5d b4             	mov    -0x4c(%ebp),%ebx
    1282:	53                   	push   %ebx
    1283:	e8 88 60 00 00       	call   7310 <readdir@plt>
    1288:	83 c4 10             	add    $0x10,%esp
    128b:	89 c3                	mov    %eax,%ebx
    128d:	85 c0                	test   %eax,%eax
    128f:	0f 84 f8 00 00 00    	je     138d <futil_rcopy_contents+0x19d>
    1295:	8b 7d 08             	mov    0x8(%ebp),%edi
    1298:	8d 45 c0             	lea    -0x40(%ebp),%eax
    129b:	53                   	push   %ebx
    129c:	57                   	push   %edi
    129d:	68 ab 65 00 00       	push   $0x65ab
    12a2:	50                   	push   %eax
    12a3:	e8 18 62 00 00       	call   74c0 <asprintf@plt>
    12a8:	83 c4 10             	add    $0x10,%esp
    12ab:	85 c0                	test   %eax,%eax
    12ad:	0f 88 e5 00 00 00    	js     1398 <futil_rcopy_contents+0x1a8>
    12b3:	8b 75 0c             	mov    0xc(%ebp),%esi
    12b6:	8d 45 c4             	lea    -0x3c(%ebp),%eax
    12b9:	53                   	push   %ebx
    12ba:	56                   	push   %esi
    12bb:	68 ab 65 00 00       	push   $0x65ab
    12c0:	50                   	push   %eax
    12c1:	e8 fa 61 00 00       	call   74c0 <asprintf@plt>
    12c6:	83 c4 10             	add    $0x10,%esp
    12c9:	85 c0                	test   %eax,%eax
    12cb:	0f 88 c7 00 00 00    	js     1398 <futil_rcopy_contents+0x1a8>
    12d1:	8d 45 c8             	lea    -0x38(%ebp),%eax
    12d4:	8b 5d c0             	mov    -0x40(%ebp),%ebx
    12d7:	51                   	push   %ecx
    12d8:	51                   	push   %ecx
    12d9:	50                   	push   %eax
    12da:	53                   	push   %ebx
    12db:	e8 40 62 00 00       	call   7520 <stat@plt>
    12e0:	83 c4 10             	add    $0x10,%esp
    12e3:	89 c7                	mov    %eax,%edi
    12e5:	85 c0                	test   %eax,%eax
    12e7:	0f 85 9b 00 00 00    	jne    1388 <futil_rcopy_contents+0x198>
    12ed:	80 7d d8 00          	cmpb   $0x0,-0x28(%ebp)
    12f1:	0f 84 39 ff ff ff    	je     1230 <futil_rcopy_contents+0x40>
    12f7:	8b 5d c0             	mov    -0x40(%ebp),%ebx
    12fa:	8b 75 c4             	mov    -0x3c(%ebp),%esi
    12fd:	50                   	push   %eax
    12fe:	56                   	push   %esi
    12ff:	53                   	push   %ebx
    1300:	68 97 65 00 00       	push   $0x6597
    1305:	e8 e6 5e 00 00       	call   71f0 <printf@plt>
    130a:	58                   	pop    %eax
    130b:	5a                   	pop    %edx
    130c:	6a 10                	push   $0x10
    130e:	53                   	push   %ebx
    130f:	e8 7c 62 00 00       	call   7590 <open@plt>
    1314:	83 c4 10             	add    $0x10,%esp
    1317:	89 c3                	mov    %eax,%ebx
    1319:	85 c0                	test   %eax,%eax
    131b:	78 6b                	js     1388 <futil_rcopy_contents+0x198>
    131d:	50                   	push   %eax
    131e:	6a 00                	push   $0x0
    1320:	6a 41                	push   $0x41
    1322:	56                   	push   %esi
    1323:	e8 68 62 00 00       	call   7590 <open@plt>
    1328:	83 c4 10             	add    $0x10,%esp
    132b:	89 c6                	mov    %eax,%esi
    132d:	85 c0                	test   %eax,%eax
    132f:	79 1d                	jns    134e <futil_rcopy_contents+0x15e>
    1331:	eb 55                	jmp    1388 <futil_rcopy_contents+0x198>
    1333:	90                   	nop
    1334:	8d 74 26 00          	lea    0x0(%esi,%eiz,1),%esi
    1338:	78 4e                	js     1388 <futil_rcopy_contents+0x198>
    133a:	52                   	push   %edx
    133b:	50                   	push   %eax
    133c:	68 00 93 00 00       	push   $0x9300
    1341:	56                   	push   %esi
    1342:	e8 89 60 00 00       	call   73d0 <write@plt>
    1347:	83 c4 10             	add    $0x10,%esp
    134a:	85 c0                	test   %eax,%eax
    134c:	7e 3a                	jle    1388 <futil_rcopy_contents+0x198>
    134e:	51                   	push   %ecx
    134f:	68 00 40 00 00       	push   $0x4000
    1354:	68 00 93 00 00       	push   $0x9300
    1359:	53                   	push   %ebx
    135a:	e8 e1 60 00 00       	call   7440 <read@plt>
    135f:	83 c4 10             	add    $0x10,%esp
    1362:	85 c0                	test   %eax,%eax
    1364:	75 d2                	jne    1338 <futil_rcopy_contents+0x148>
    1366:	83 ec 0c             	sub    $0xc,%esp
    1369:	53                   	push   %ebx
    136a:	e8 71 62 00 00       	call   75e0 <close@plt>
    136f:	89 34 24             	mov    %esi,(%esp)
    1372:	e8 69 62 00 00       	call   75e0 <close@plt>
    1377:	83 c4 10             	add    $0x10,%esp
    137a:	85 c0                	test   %eax,%eax
    137c:	0f 89 fa fe ff ff    	jns    127c <futil_rcopy_contents+0x8c>
    1382:	8d b6 00 00 00 00    	lea    0x0(%esi),%esi
    1388:	bf f6 fe ff ff       	mov    $0xfffffef6,%edi
    138d:	8d 65 f4             	lea    -0xc(%ebp),%esp
    1390:	89 f8                	mov    %edi,%eax
    1392:	5b                   	pop    %ebx
    1393:	5e                   	pop    %esi
    1394:	5f                   	pop    %edi
    1395:	5d                   	pop    %ebp
    1396:	c3                   	ret    
    1397:	90                   	nop
    1398:	8d 65 f4             	lea    -0xc(%ebp),%esp
    139b:	bf fe ff ff ff       	mov    $0xfffffffe,%edi
    13a0:	89 f8                	mov    %edi,%eax
    13a2:	5b                   	pop    %ebx
    13a3:	5e                   	pop    %esi
    13a4:	5f                   	pop    %edi
    13a5:	5d                   	pop    %ebp
    13a6:	c3                   	ret    
    13a7:	31 ff                	xor    %edi,%edi
    13a9:	eb e2                	jmp    138d <futil_rcopy_contents+0x19d>
    13ab:	90                   	nop
    13ac:	8d 74 26 00          	lea    0x0(%esi,%eiz,1),%esi

000013b0 <futil_get_file>:
    13b0:	55                   	push   %ebp
    13b1:	89 e5                	mov    %esp,%ebp
    13b3:	57                   	push   %edi
    13b4:	56                   	push   %esi
    13b5:	53                   	push   %ebx
    13b6:	83 ec 24             	sub    $0x24,%esp
    13b9:	8b 4d 08             	mov    0x8(%ebp),%ecx
    13bc:	6a 10                	push   $0x10
    13be:	51                   	push   %ecx
    13bf:	e8 cc 61 00 00       	call   7590 <open@plt>
    13c4:	83 c4 10             	add    $0x10,%esp
    13c7:	85 c0                	test   %eax,%eax
    13c9:	0f 88 89 00 00 00    	js     1458 <futil_get_file+0xa8>
    13cf:	6a 02                	push   $0x2
    13d1:	89 c3                	mov    %eax,%ebx
    13d3:	6a 00                	push   $0x0
    13d5:	6a 00                	push   $0x0
    13d7:	50                   	push   %eax
    13d8:	e8 73 5f 00 00       	call   7350 <lseek@plt>
    13dd:	21 c2                	and    %eax,%edx
    13df:	83 c4 10             	add    $0x10,%esp
    13e2:	89 c6                	mov    %eax,%esi
    13e4:	42                   	inc    %edx
    13e5:	74 61                	je     1448 <futil_get_file+0x98>
    13e7:	6a 00                	push   $0x0
    13e9:	6a 00                	push   $0x0
    13eb:	6a 00                	push   $0x0
    13ed:	53                   	push   %ebx
    13ee:	e8 5d 5f 00 00       	call   7350 <lseek@plt>
    13f3:	83 c4 10             	add    $0x10,%esp
    13f6:	21 d0                	and    %edx,%eax
    13f8:	40                   	inc    %eax
    13f9:	74 4d                	je     1448 <futil_get_file+0x98>
    13fb:	52                   	push   %edx
    13fc:	52                   	push   %edx
    13fd:	6a 01                	push   $0x1
    13ff:	56                   	push   %esi
    1400:	e8 ab 5f 00 00       	call   73b0 <calloc@plt>
    1405:	83 c4 10             	add    $0x10,%esp
    1408:	89 c7                	mov    %eax,%edi
    140a:	85 c0                	test   %eax,%eax
    140c:	74 52                	je     1460 <futil_get_file+0xb0>
    140e:	50                   	push   %eax
    140f:	56                   	push   %esi
    1410:	57                   	push   %edi
    1411:	53                   	push   %ebx
    1412:	e8 29 60 00 00       	call   7440 <read@plt>
    1417:	83 c4 10             	add    $0x10,%esp
    141a:	89 45 e4             	mov    %eax,-0x1c(%ebp)
    141d:	39 f0                	cmp    %esi,%eax
    141f:	75 27                	jne    1448 <futil_get_file+0x98>
    1421:	83 ec 0c             	sub    $0xc,%esp
    1424:	53                   	push   %ebx
    1425:	e8 b6 61 00 00       	call   75e0 <close@plt>
    142a:	8b 45 0c             	mov    0xc(%ebp),%eax
    142d:	8b 55 e4             	mov    -0x1c(%ebp),%edx
    1430:	83 c4 10             	add    $0x10,%esp
    1433:	89 38                	mov    %edi,(%eax)
    1435:	8b 45 10             	mov    0x10(%ebp),%eax
    1438:	89 10                	mov    %edx,(%eax)
    143a:	31 c0                	xor    %eax,%eax
    143c:	8d 65 f4             	lea    -0xc(%ebp),%esp
    143f:	5b                   	pop    %ebx
    1440:	5e                   	pop    %esi
    1441:	5f                   	pop    %edi
    1442:	5d                   	pop    %ebp
    1443:	c3                   	ret    
    1444:	8d 74 26 00          	lea    0x0(%esi,%eiz,1),%esi
    1448:	8d 65 f4             	lea    -0xc(%ebp),%esp
    144b:	b8 f6 fe ff ff       	mov    $0xfffffef6,%eax
    1450:	5b                   	pop    %ebx
    1451:	5e                   	pop    %esi
    1452:	5f                   	pop    %edi
    1453:	5d                   	pop    %ebp
    1454:	c3                   	ret    
    1455:	8d 76 00             	lea    0x0(%esi),%esi
    1458:	83 c8 ff             	or     $0xffffffff,%eax
    145b:	eb df                	jmp    143c <futil_get_file+0x8c>
    145d:	8d 76 00             	lea    0x0(%esi),%esi
    1460:	b8 fe ff ff ff       	mov    $0xfffffffe,%eax
    1465:	eb d5                	jmp    143c <futil_get_file+0x8c>
    1467:	66 90                	xchg   %ax,%ax
    1469:	66 90                	xchg   %ax,%ax
    146b:	66 90                	xchg   %ax,%ax
    146d:	66 90                	xchg   %ax,%ax
    146f:	90                   	nop

00001470 <sysinst_copy_boot_blocks.constprop.1>:
    1470:	55                   	push   %ebp
    1471:	89 e5                	mov    %esp,%ebp
    1473:	57                   	push   %edi
    1474:	56                   	push   %esi
    1475:	53                   	push   %ebx
    1476:	81 ec 48 02 00 00    	sub    $0x248,%esp
    147c:	68 c8 65 00 00       	push   $0x65c8
    1481:	e8 6a 5d 00 00       	call   71f0 <printf@plt>
    1486:	83 c4 0c             	add    $0xc,%esp
    1489:	8d 85 d4 fd ff ff    	lea    -0x22c(%ebp),%eax
    148f:	50                   	push   %eax
    1490:	8d 85 d0 fd ff ff    	lea    -0x230(%ebp),%eax
    1496:	50                   	push   %eax
    1497:	68 fc 65 00 00       	push   $0x65fc
    149c:	e8 0f ff ff ff       	call   13b0 <futil_get_file>
    14a1:	83 c4 10             	add    $0x10,%esp
    14a4:	85 c0                	test   %eax,%eax
    14a6:	0f 85 4b 02 00 00    	jne    16f7 <sysinst_copy_boot_blocks.constprop.1+0x287>
    14ac:	81 bd d4 fd ff ff 00 	cmpl   $0x200,-0x22c(%ebp)
    14b3:	02 00 00 
    14b6:	0f 85 3b 02 00 00    	jne    16f7 <sysinst_copy_boot_blocks.constprop.1+0x287>
    14bc:	83 ec 0c             	sub    $0xc,%esp
    14bf:	68 20 66 00 00       	push   $0x6620
    14c4:	e8 27 5d 00 00       	call   71f0 <printf@plt>
    14c9:	83 c4 0c             	add    $0xc,%esp
    14cc:	8d 85 dc fd ff ff    	lea    -0x224(%ebp),%eax
    14d2:	50                   	push   %eax
    14d3:	8d 85 d8 fd ff ff    	lea    -0x228(%ebp),%eax
    14d9:	50                   	push   %eax
    14da:	68 54 66 00 00       	push   $0x6654
    14df:	e8 cc fe ff ff       	call   13b0 <futil_get_file>
    14e4:	83 c4 10             	add    $0x10,%esp
    14e7:	85 c0                	test   %eax,%eax
    14e9:	0f 85 08 02 00 00    	jne    16f7 <sysinst_copy_boot_blocks.constprop.1+0x287>
    14ef:	83 ec 0c             	sub    $0xc,%esp
    14f2:	68 78 66 00 00       	push   $0x6678
    14f7:	e8 f4 5c 00 00       	call   71f0 <printf@plt>
    14fc:	83 c4 0c             	add    $0xc,%esp
    14ff:	8d 85 e0 fd ff ff    	lea    -0x220(%ebp),%eax
    1505:	6a 00                	push   $0x0
    1507:	50                   	push   %eax
    1508:	68 a4 66 00 00       	push   $0x66a4
    150d:	e8 de 5d 00 00       	call   72f0 <loc_service_get_id@plt>
    1512:	83 c4 10             	add    $0x10,%esp
    1515:	89 c3                	mov    %eax,%ebx
    1517:	85 c0                	test   %eax,%eax
    1519:	74 0a                	je     1525 <sysinst_copy_boot_blocks.constprop.1+0xb5>
    151b:	8d 65 f4             	lea    -0xc(%ebp),%esp
    151e:	89 d8                	mov    %ebx,%eax
    1520:	5b                   	pop    %ebx
    1521:	5e                   	pop    %esi
    1522:	5f                   	pop    %edi
    1523:	5d                   	pop    %ebp
    1524:	c3                   	ret    
    1525:	83 ec 0c             	sub    $0xc,%esp
    1528:	68 c8 66 00 00       	push   $0x66c8
    152d:	e8 be 5c 00 00       	call   71f0 <printf@plt>
    1532:	5f                   	pop    %edi
    1533:	58                   	pop    %eax
    1534:	68 00 02 00 00       	push   $0x200
    1539:	ff b5 e0 fd ff ff    	pushl  -0x220(%ebp)
    153f:	e8 5c 06 00 00       	call   1ba0 <block_init>
    1544:	83 c4 10             	add    $0x10,%esp
    1547:	89 c3                	mov    %eax,%ebx
    1549:	85 c0                	test   %eax,%eax
    154b:	75 ce                	jne    151b <sysinst_copy_boot_blocks.constprop.1+0xab>
    154d:	83 ec 0c             	sub    $0xc,%esp
    1550:	68 f0 66 00 00       	push   $0x66f0
    1555:	e8 96 5c 00 00       	call   71f0 <printf@plt>
    155a:	8d 85 e4 fd ff ff    	lea    -0x21c(%ebp),%eax
    1560:	5b                   	pop    %ebx
    1561:	5e                   	pop    %esi
    1562:	50                   	push   %eax
    1563:	ff b5 e0 fd ff ff    	pushl  -0x220(%ebp)
    1569:	e8 92 1a 00 00       	call   3000 <block_get_bsize>
    156e:	83 c4 10             	add    $0x10,%esp
    1571:	89 c3                	mov    %eax,%ebx
    1573:	85 c0                	test   %eax,%eax
    1575:	75 a4                	jne    151b <sysinst_copy_boot_blocks.constprop.1+0xab>
    1577:	81 bd e4 fd ff ff 00 	cmpl   $0x200,-0x21c(%ebp)
    157e:	02 00 00 
    1581:	0f 85 60 01 00 00    	jne    16e7 <sysinst_copy_boot_blocks.constprop.1+0x277>
    1587:	83 ec 0c             	sub    $0xc,%esp
    158a:	8d bd e8 fd ff ff    	lea    -0x218(%ebp),%edi
    1590:	68 1c 67 00 00       	push   $0x671c
    1595:	e8 56 5c 00 00       	call   71f0 <printf@plt>
    159a:	89 3c 24             	mov    %edi,(%esp)
    159d:	6a 01                	push   $0x1
    159f:	6a 00                	push   $0x0
    15a1:	6a 00                	push   $0x0
    15a3:	ff b5 e0 fd ff ff    	pushl  -0x220(%ebp)
    15a9:	e8 e2 17 00 00       	call   2d90 <block_read_direct>
    15ae:	83 c4 20             	add    $0x20,%esp
    15b1:	85 c0                	test   %eax,%eax
    15b3:	0f 85 3e 01 00 00    	jne    16f7 <sysinst_copy_boot_blocks.constprop.1+0x287>
    15b9:	8b b5 d8 fd ff ff    	mov    -0x228(%ebp),%esi
    15bf:	8b 85 dc fd ff ff    	mov    -0x224(%ebp),%eax
    15c5:	89 85 c4 fd ff ff    	mov    %eax,-0x23c(%ebp)
    15cb:	8d 9e f4 01 00 00    	lea    0x1f4(%esi),%ebx
    15d1:	eb 1d                	jmp    15f0 <sysinst_copy_boot_blocks.constprop.1+0x180>
    15d3:	51                   	push   %ecx
    15d4:	6a 0c                	push   $0xc
    15d6:	6a 00                	push   $0x0
    15d8:	53                   	push   %ebx
    15d9:	83 eb 0c             	sub    $0xc,%ebx
    15dc:	e8 bf 5e 00 00       	call   74a0 <memset@plt>
    15e1:	83 c4 10             	add    $0x10,%esp
    15e4:	3b 9d d8 fd ff ff    	cmp    -0x228(%ebp),%ebx
    15ea:	0f 82 11 01 00 00    	jb     1701 <sysinst_copy_boot_blocks.constprop.1+0x291>
    15f0:	66 83 7b 08 00       	cmpw   $0x0,0x8(%ebx)
    15f5:	75 dc                	jne    15d3 <sysinst_copy_boot_blocks.constprop.1+0x163>
    15f7:	8b 9d c4 fd ff ff    	mov    -0x23c(%ebp),%ebx
    15fd:	c7 86 f4 01 00 00 11 	movl   $0x11,0x1f4(%esi)
    1604:	00 00 00 
    1607:	81 c3 ff 01 00 00    	add    $0x1ff,%ebx
    160d:	c7 86 f8 01 00 00 00 	movl   $0x0,0x1f8(%esi)
    1614:	00 00 00 
    1617:	c1 eb 09             	shr    $0x9,%ebx
    161a:	66 c7 86 fe 01 00 00 	movw   $0x820,0x1fe(%esi)
    1621:	20 08 
    1623:	8d 43 ff             	lea    -0x1(%ebx),%eax
    1626:	66 89 86 fc 01 00 00 	mov    %ax,0x1fc(%esi)
    162d:	52                   	push   %edx
    162e:	68 b8 01 00 00       	push   $0x1b8
    1633:	ff b5 d0 fd ff ff    	pushl  -0x230(%ebp)
    1639:	57                   	push   %edi
    163a:	e8 71 5c 00 00       	call   72b0 <memcpy@plt>
    163f:	c7 04 24 6c 67 00 00 	movl   $0x676c,(%esp)
    1646:	c6 85 4c fe ff ff ff 	movb   $0xff,-0x1b4(%ebp)
    164d:	c6 85 44 fe ff ff 10 	movb   $0x10,-0x1bc(%ebp)
    1654:	c6 85 45 fe ff ff 00 	movb   $0x0,-0x1bb(%ebp)
    165b:	c6 85 46 fe ff ff 00 	movb   $0x0,-0x1ba(%ebp)
    1662:	c6 85 47 fe ff ff 00 	movb   $0x0,-0x1b9(%ebp)
    1669:	c6 85 48 fe ff ff 00 	movb   $0x0,-0x1b8(%ebp)
    1670:	c6 85 49 fe ff ff 00 	movb   $0x0,-0x1b7(%ebp)
    1677:	c6 85 4a fe ff ff 00 	movb   $0x0,-0x1b6(%ebp)
    167e:	c6 85 4b fe ff ff 00 	movb   $0x0,-0x1b5(%ebp)
    1685:	e8 66 5b 00 00       	call   71f0 <printf@plt>
    168a:	89 3c 24             	mov    %edi,(%esp)
    168d:	6a 01                	push   $0x1
    168f:	6a 00                	push   $0x0
    1691:	6a 00                	push   $0x0
    1693:	ff b5 e0 fd ff ff    	pushl  -0x220(%ebp)
    1699:	e8 d2 17 00 00       	call   2e70 <block_write_direct>
    169e:	83 c4 20             	add    $0x20,%esp
    16a1:	85 c0                	test   %eax,%eax
    16a3:	75 52                	jne    16f7 <sysinst_copy_boot_blocks.constprop.1+0x287>
    16a5:	83 ec 0c             	sub    $0xc,%esp
    16a8:	68 6c 67 00 00       	push   $0x676c
    16ad:	e8 3e 5b 00 00       	call   71f0 <printf@plt>
    16b2:	58                   	pop    %eax
    16b3:	ff b5 d8 fd ff ff    	pushl  -0x228(%ebp)
    16b9:	53                   	push   %ebx
    16ba:	6a 00                	push   $0x0
    16bc:	6a 10                	push   $0x10
    16be:	ff b5 e0 fd ff ff    	pushl  -0x220(%ebp)
    16c4:	e8 a7 17 00 00       	call   2e70 <block_write_direct>
    16c9:	83 c4 20             	add    $0x20,%esp
    16cc:	89 c3                	mov    %eax,%ebx
    16ce:	85 c0                	test   %eax,%eax
    16d0:	75 25                	jne    16f7 <sysinst_copy_boot_blocks.constprop.1+0x287>
    16d2:	83 ec 0c             	sub    $0xc,%esp
    16d5:	68 98 67 00 00       	push   $0x6798
    16da:	e8 11 5b 00 00       	call   71f0 <printf@plt>
    16df:	83 c4 10             	add    $0x10,%esp
    16e2:	e9 34 fe ff ff       	jmp    151b <sysinst_copy_boot_blocks.constprop.1+0xab>
    16e7:	83 ec 0c             	sub    $0xc,%esp
    16ea:	68 42 6b 00 00       	push   $0x6b42
    16ef:	e8 fc 5a 00 00       	call   71f0 <printf@plt>
    16f4:	83 c4 10             	add    $0x10,%esp
    16f7:	bb f6 fe ff ff       	mov    $0xfffffef6,%ebx
    16fc:	e9 1a fe ff ff       	jmp    151b <sysinst_copy_boot_blocks.constprop.1+0xab>
    1701:	83 ec 0c             	sub    $0xc,%esp
    1704:	bb f6 fe ff ff       	mov    $0xfffffef6,%ebx
    1709:	68 48 67 00 00       	push   $0x6748
    170e:	e8 dd 5a 00 00       	call   71f0 <printf@plt>
    1713:	83 c4 10             	add    $0x10,%esp
    1716:	e9 00 fe ff ff       	jmp    151b <sysinst_copy_boot_blocks.constprop.1+0xab>
    171b:	66 90                	xchg   %ax,%ax
    171d:	66 90                	xchg   %ax,%ax
    171f:	90                   	nop

00001720 <main>:
    1720:	8d 4c 24 04          	lea    0x4(%esp),%ecx
    1724:	83 e4 f0             	and    $0xfffffff0,%esp
    1727:	ff 71 fc             	pushl  -0x4(%ecx)
    172a:	55                   	push   %ebp
    172b:	89 e5                	mov    %esp,%ebp
    172d:	57                   	push   %edi
    172e:	56                   	push   %esi
    172f:	53                   	push   %ebx
    1730:	51                   	push   %ecx
    1731:	8d 5d ac             	lea    -0x54(%ebp),%ebx
    1734:	83 ec 60             	sub    $0x60,%esp
    1737:	68 a4 66 00 00       	push   $0x66a4
    173c:	68 b8 67 00 00       	push   $0x67b8
    1741:	e8 aa 5a 00 00       	call   71f0 <printf@plt>
    1746:	83 c4 0c             	add    $0xc,%esp
    1749:	6a 00                	push   $0x0
    174b:	53                   	push   %ebx
    174c:	68 a4 66 00 00       	push   $0x66a4
    1751:	e8 9a 5b 00 00       	call   72f0 <loc_service_get_id@plt>
    1756:	83 c4 10             	add    $0x10,%esp
    1759:	89 c6                	mov    %eax,%esi
    175b:	85 c0                	test   %eax,%eax
    175d:	74 0e                	je     176d <main+0x4d>
    175f:	8d 65 f0             	lea    -0x10(%ebp),%esp
    1762:	89 f0                	mov    %esi,%eax
    1764:	59                   	pop    %ecx
    1765:	5b                   	pop    %ebx
    1766:	5e                   	pop    %esi
    1767:	5f                   	pop    %edi
    1768:	5d                   	pop    %ebp
    1769:	8d 61 fc             	lea    -0x4(%ecx),%esp
    176c:	c3                   	ret    
    176d:	83 ec 0c             	sub    $0xc,%esp
    1770:	68 e4 67 00 00       	push   $0x67e4
    1775:	e8 76 5a 00 00       	call   71f0 <printf@plt>
    177a:	8d 45 a0             	lea    -0x60(%ebp),%eax
    177d:	89 04 24             	mov    %eax,(%esp)
    1780:	e8 9b 25 00 00       	call   3d20 <fdisk_create>
    1785:	83 c4 10             	add    $0x10,%esp
    1788:	89 c6                	mov    %eax,%esi
    178a:	85 c0                	test   %eax,%eax
    178c:	0f 85 60 03 00 00    	jne    1af2 <main+0x3d2>
    1792:	8d 45 a4             	lea    -0x5c(%ebp),%eax
    1795:	51                   	push   %ecx
    1796:	50                   	push   %eax
    1797:	ff 75 ac             	pushl  -0x54(%ebp)
    179a:	ff 75 a0             	pushl  -0x60(%ebp)
    179d:	e8 2e 29 00 00       	call   40d0 <fdisk_dev_open>
    17a2:	83 c4 10             	add    $0x10,%esp
    17a5:	89 c6                	mov    %eax,%esi
    17a7:	85 c0                	test   %eax,%eax
    17a9:	0f 85 2e 03 00 00    	jne    1add <main+0x3bd>
    17af:	83 ec 0c             	sub    $0xc,%esp
    17b2:	68 08 68 00 00       	push   $0x6808
    17b7:	e8 34 5a 00 00       	call   71f0 <printf@plt>
    17bc:	58                   	pop    %eax
    17bd:	5a                   	pop    %edx
    17be:	6a 01                	push   $0x1
    17c0:	ff 75 a4             	pushl  -0x5c(%ebp)
    17c3:	e8 a8 2f 00 00       	call   4770 <fdisk_label_create>
    17c8:	83 c4 10             	add    $0x10,%esp
    17cb:	89 c6                	mov    %eax,%esi
    17cd:	85 c0                	test   %eax,%eax
    17cf:	0f 85 32 03 00 00    	jne    1b07 <main+0x3e7>
    17d5:	83 ec 0c             	sub    $0xc,%esp
    17d8:	68 2c 68 00 00       	push   $0x682c
    17dd:	e8 0e 5a 00 00       	call   71f0 <printf@plt>
    17e2:	83 c4 0c             	add    $0xc,%esp
    17e5:	8d 45 b0             	lea    -0x50(%ebp),%eax
    17e8:	50                   	push   %eax
    17e9:	6a 00                	push   $0x0
    17eb:	ff 75 a4             	pushl  -0x5c(%ebp)
    17ee:	e8 bd 34 00 00       	call   4cb0 <fdisk_part_get_max_avail>
    17f3:	83 c4 10             	add    $0x10,%esp
    17f6:	89 c6                	mov    %eax,%esi
    17f8:	85 c0                	test   %eax,%eax
    17fa:	0f 85 31 03 00 00    	jne    1b31 <main+0x411>
    1800:	83 ec 0c             	sub    $0xc,%esp
    1803:	8d 45 c0             	lea    -0x40(%ebp),%eax
    1806:	8d 7d c0             	lea    -0x40(%ebp),%edi
    1809:	8d 75 b0             	lea    -0x50(%ebp),%esi
    180c:	50                   	push   %eax
    180d:	e8 8e 45 00 00       	call   5da0 <fdisk_pspec_init>
    1812:	83 c4 0c             	add    $0xc,%esp
    1815:	8d 45 a8             	lea    -0x58(%ebp),%eax
    1818:	b9 04 00 00 00       	mov    $0x4,%ecx
    181d:	c7 45 d0 00 00 00 00 	movl   $0x0,-0x30(%ebp)
    1824:	f3 a5                	rep movsl %ds:(%esi),%es:(%edi)
    1826:	50                   	push   %eax
    1827:	8d 45 c0             	lea    -0x40(%ebp),%eax
    182a:	50                   	push   %eax
    182b:	c7 45 d4 02 00 00 00 	movl   $0x2,-0x2c(%ebp)
    1832:	ff 75 a4             	pushl  -0x5c(%ebp)
    1835:	e8 b6 38 00 00       	call   50f0 <fdisk_part_create>
    183a:	83 c4 10             	add    $0x10,%esp
    183d:	89 c6                	mov    %eax,%esi
    183f:	85 c0                	test   %eax,%eax
    1841:	0f 85 d5 02 00 00    	jne    1b1c <main+0x3fc>
    1847:	50                   	push   %eax
    1848:	8d 45 9c             	lea    -0x64(%ebp),%eax
    184b:	68 a4 66 00 00       	push   $0x66a4
    1850:	68 c6 6b 00 00       	push   $0x6bc6
    1855:	50                   	push   %eax
    1856:	e8 65 5c 00 00       	call   74c0 <asprintf@plt>
    185b:	83 c4 10             	add    $0x10,%esp
    185e:	85 c0                	test   %eax,%eax
    1860:	0f 88 ea 02 00 00    	js     1b50 <main+0x430>
    1866:	83 ec 0c             	sub    $0xc,%esp
    1869:	68 cb 6b 00 00       	push   $0x6bcb
    186e:	e8 7d 59 00 00       	call   71f0 <printf@plt>
    1873:	5e                   	pop    %esi
    1874:	5f                   	pop    %edi
    1875:	ff 75 9c             	pushl  -0x64(%ebp)
    1878:	68 e4 6b 00 00       	push   $0x6be4
    187d:	e8 6e 59 00 00       	call   71f0 <printf@plt>
    1882:	c7 04 24 7c 68 00 00 	movl   $0x687c,(%esp)
    1889:	8b 7d 9c             	mov    -0x64(%ebp),%edi
    188c:	e8 5f 59 00 00       	call   71f0 <printf@plt>
    1891:	8d 45 c0             	lea    -0x40(%ebp),%eax
    1894:	c7 04 24 00 00 00 00 	movl   $0x0,(%esp)
    189b:	68 ff 6b 00 00       	push   $0x6bff
    18a0:	68 ff 6b 00 00       	push   $0x6bff
    18a5:	50                   	push   %eax
    18a6:	6a 00                	push   $0x0
    18a8:	e8 03 5d 00 00       	call   75b0 <task_spawnl@plt>
    18ad:	83 c4 20             	add    $0x20,%esp
    18b0:	89 c6                	mov    %eax,%esi
    18b2:	85 c0                	test   %eax,%eax
    18b4:	0f 85 a5 fe ff ff    	jne    175f <main+0x3f>
    18ba:	83 ec 0c             	sub    $0xc,%esp
    18bd:	68 ac 68 00 00       	push   $0x68ac
    18c2:	e8 29 59 00 00       	call   71f0 <printf@plt>
    18c7:	83 c4 0c             	add    $0xc,%esp
    18ca:	8d 45 b0             	lea    -0x50(%ebp),%eax
    18cd:	50                   	push   %eax
    18ce:	8d 45 c0             	lea    -0x40(%ebp),%eax
    18d1:	53                   	push   %ebx
    18d2:	50                   	push   %eax
    18d3:	e8 78 59 00 00       	call   7250 <task_wait@plt>
    18d8:	83 c4 10             	add    $0x10,%esp
    18db:	89 c6                	mov    %eax,%esi
    18dd:	85 c0                	test   %eax,%eax
    18df:	0f 85 7a fe ff ff    	jne    175f <main+0x3f>
    18e5:	83 ec 0c             	sub    $0xc,%esp
    18e8:	68 dc 68 00 00       	push   $0x68dc
    18ed:	e8 fe 58 00 00       	call   71f0 <printf@plt>
    18f2:	83 c4 10             	add    $0x10,%esp
    18f5:	83 7d ac 00          	cmpl   $0x0,-0x54(%ebp)
    18f9:	0f 85 47 02 00 00    	jne    1b46 <main+0x426>
    18ff:	83 7d b0 00          	cmpl   $0x0,-0x50(%ebp)
    1903:	0f 85 3d 02 00 00    	jne    1b46 <main+0x426>
    1909:	51                   	push   %ecx
    190a:	51                   	push   %ecx
    190b:	6a 00                	push   $0x0
    190d:	68 08 6c 00 00       	push   $0x6c08
    1912:	e8 b9 5c 00 00       	call   75d0 <mkdir@plt>
    1917:	83 c4 10             	add    $0x10,%esp
    191a:	89 c6                	mov    %eax,%esi
    191c:	85 c0                	test   %eax,%eax
    191e:	0f 85 3b fe ff ff    	jne    175f <main+0x3f>
    1924:	83 ec 0c             	sub    $0xc,%esp
    1927:	68 14 69 00 00       	push   $0x6914
    192c:	e8 bf 58 00 00       	call   71f0 <printf@plt>
    1931:	58                   	pop    %eax
    1932:	5a                   	pop    %edx
    1933:	6a 00                	push   $0x0
    1935:	6a 00                	push   $0x0
    1937:	68 c7 65 00 00       	push   $0x65c7
    193c:	57                   	push   %edi
    193d:	68 08 6c 00 00       	push   $0x6c08
    1942:	68 04 6c 00 00       	push   $0x6c04
    1947:	e8 14 5b 00 00       	call   7460 <vfs_mount@plt>
    194c:	83 c4 20             	add    $0x20,%esp
    194f:	89 c6                	mov    %eax,%esi
    1951:	85 c0                	test   %eax,%eax
    1953:	0f 85 06 fe ff ff    	jne    175f <main+0x3f>
    1959:	83 ec 0c             	sub    $0xc,%esp
    195c:	68 0e 6c 00 00       	push   $0x6c0e
    1961:	e8 8a 58 00 00       	call   71f0 <printf@plt>
    1966:	58                   	pop    %eax
    1967:	ff 75 9c             	pushl  -0x64(%ebp)
    196a:	e8 81 5c 00 00       	call   75f0 <free@plt>
    196f:	c7 04 24 3c 69 00 00 	movl   $0x693c,(%esp)
    1976:	e8 75 58 00 00       	call   71f0 <printf@plt>
    197b:	c7 04 24 6c 69 00 00 	movl   $0x696c,(%esp)
    1982:	e8 69 58 00 00       	call   71f0 <printf@plt>
    1987:	8d 45 c0             	lea    -0x40(%ebp),%eax
    198a:	c7 04 24 00 00 00 00 	movl   $0x0,(%esp)
    1991:	68 26 6c 00 00       	push   $0x6c26
    1996:	68 26 6c 00 00       	push   $0x6c26
    199b:	50                   	push   %eax
    199c:	6a 00                	push   $0x0
    199e:	e8 0d 5c 00 00       	call   75b0 <task_spawnl@plt>
    19a3:	83 c4 20             	add    $0x20,%esp
    19a6:	89 c6                	mov    %eax,%esi
    19a8:	85 c0                	test   %eax,%eax
    19aa:	0f 85 af fd ff ff    	jne    175f <main+0x3f>
    19b0:	83 ec 0c             	sub    $0xc,%esp
    19b3:	68 a0 69 00 00       	push   $0x69a0
    19b8:	e8 33 58 00 00       	call   71f0 <printf@plt>
    19bd:	83 c4 0c             	add    $0xc,%esp
    19c0:	8d 45 b0             	lea    -0x50(%ebp),%eax
    19c3:	50                   	push   %eax
    19c4:	8d 45 c0             	lea    -0x40(%ebp),%eax
    19c7:	53                   	push   %ebx
    19c8:	50                   	push   %eax
    19c9:	e8 82 58 00 00       	call   7250 <task_wait@plt>
    19ce:	83 c4 10             	add    $0x10,%esp
    19d1:	89 c6                	mov    %eax,%esi
    19d3:	85 c0                	test   %eax,%eax
    19d5:	0f 85 84 fd ff ff    	jne    175f <main+0x3f>
    19db:	83 ec 0c             	sub    $0xc,%esp
    19de:	68 d8 69 00 00       	push   $0x69d8
    19e3:	e8 08 58 00 00       	call   71f0 <printf@plt>
    19e8:	83 c4 10             	add    $0x10,%esp
    19eb:	83 7d ac 00          	cmpl   $0x0,-0x54(%ebp)
    19ef:	0f 85 51 01 00 00    	jne    1b46 <main+0x426>
    19f5:	83 7d b0 00          	cmpl   $0x0,-0x50(%ebp)
    19f9:	0f 85 47 01 00 00    	jne    1b46 <main+0x426>
    19ff:	83 ec 0c             	sub    $0xc,%esp
    1a02:	68 14 6a 00 00       	push   $0x6a14
    1a07:	e8 e4 57 00 00       	call   71f0 <printf@plt>
    1a0c:	5f                   	pop    %edi
    1a0d:	58                   	pop    %eax
    1a0e:	6a 00                	push   $0x0
    1a10:	68 30 6c 00 00       	push   $0x6c30
    1a15:	e8 b6 5b 00 00       	call   75d0 <mkdir@plt>
    1a1a:	83 c4 10             	add    $0x10,%esp
    1a1d:	89 c6                	mov    %eax,%esi
    1a1f:	85 c0                	test   %eax,%eax
    1a21:	0f 85 38 fd ff ff    	jne    175f <main+0x3f>
    1a27:	83 ec 0c             	sub    $0xc,%esp
    1a2a:	68 48 6a 00 00       	push   $0x6a48
    1a2f:	e8 bc 57 00 00       	call   71f0 <printf@plt>
    1a34:	5b                   	pop    %ebx
    1a35:	5e                   	pop    %esi
    1a36:	6a 00                	push   $0x0
    1a38:	6a 00                	push   $0x0
    1a3a:	68 c7 65 00 00       	push   $0x65c7
    1a3f:	68 78 6a 00 00       	push   $0x6a78
    1a44:	68 30 6c 00 00       	push   $0x6c30
    1a49:	68 2b 6c 00 00       	push   $0x6c2b
    1a4e:	e8 0d 5a 00 00       	call   7460 <vfs_mount@plt>
    1a53:	83 c4 20             	add    $0x20,%esp
    1a56:	89 c6                	mov    %eax,%esi
    1a58:	85 c0                	test   %eax,%eax
    1a5a:	0f 85 ff fc ff ff    	jne    175f <main+0x3f>
    1a60:	83 ec 0c             	sub    $0xc,%esp
    1a63:	68 9c 6a 00 00       	push   $0x6a9c
    1a68:	e8 83 57 00 00       	call   71f0 <printf@plt>
    1a6d:	5a                   	pop    %edx
    1a6e:	59                   	pop    %ecx
    1a6f:	68 08 6c 00 00       	push   $0x6c08
    1a74:	68 30 6c 00 00       	push   $0x6c30
    1a79:	e8 72 f7 ff ff       	call   11f0 <futil_rcopy_contents>
    1a7e:	83 c4 10             	add    $0x10,%esp
    1a81:	89 c6                	mov    %eax,%esi
    1a83:	85 c0                	test   %eax,%eax
    1a85:	0f 85 d4 fc ff ff    	jne    175f <main+0x3f>
    1a8b:	50                   	push   %eax
    1a8c:	50                   	push   %eax
    1a8d:	68 08 6c 00 00       	push   $0x6c08
    1a92:	68 d0 6a 00 00       	push   $0x6ad0
    1a97:	e8 54 57 00 00       	call   71f0 <printf@plt>
    1a9c:	c7 04 24 08 6c 00 00 	movl   $0x6c08,(%esp)
    1aa3:	e8 c8 5a 00 00       	call   7570 <vfs_unmount@plt>
    1aa8:	83 c4 10             	add    $0x10,%esp
    1aab:	89 c6                	mov    %eax,%esi
    1aad:	85 c0                	test   %eax,%eax
    1aaf:	0f 85 aa fc ff ff    	jne    175f <main+0x3f>
    1ab5:	83 ec 0c             	sub    $0xc,%esp
    1ab8:	68 f8 6a 00 00       	push   $0x6af8
    1abd:	e8 2e 57 00 00       	call   71f0 <printf@plt>
    1ac2:	c7 04 24 18 6b 00 00 	movl   $0x6b18,(%esp)
    1ac9:	e8 22 57 00 00       	call   71f0 <printf@plt>
    1ace:	e8 9d f9 ff ff       	call   1470 <sysinst_copy_boot_blocks.constprop.1>
    1ad3:	83 c4 10             	add    $0x10,%esp
    1ad6:	89 c6                	mov    %eax,%esi
    1ad8:	e9 82 fc ff ff       	jmp    175f <main+0x3f>
    1add:	83 ec 0c             	sub    $0xc,%esp
    1ae0:	68 78 6b 00 00       	push   $0x6b78
    1ae5:	e8 06 57 00 00       	call   71f0 <printf@plt>
    1aea:	83 c4 10             	add    $0x10,%esp
    1aed:	e9 6d fc ff ff       	jmp    175f <main+0x3f>
    1af2:	83 ec 0c             	sub    $0xc,%esp
    1af5:	68 5d 6b 00 00       	push   $0x6b5d
    1afa:	e8 f1 56 00 00       	call   71f0 <printf@plt>
    1aff:	83 c4 10             	add    $0x10,%esp
    1b02:	e9 58 fc ff ff       	jmp    175f <main+0x3f>
    1b07:	50                   	push   %eax
    1b08:	50                   	push   %eax
    1b09:	56                   	push   %esi
    1b0a:	68 8f 6b 00 00       	push   $0x6b8f
    1b0f:	e8 dc 56 00 00       	call   71f0 <printf@plt>
    1b14:	83 c4 10             	add    $0x10,%esp
    1b17:	e9 43 fc ff ff       	jmp    175f <main+0x3f>
    1b1c:	83 ec 0c             	sub    $0xc,%esp
    1b1f:	68 ab 6b 00 00       	push   $0x6bab
    1b24:	e8 c7 56 00 00       	call   71f0 <printf@plt>
    1b29:	83 c4 10             	add    $0x10,%esp
    1b2c:	e9 2e fc ff ff       	jmp    175f <main+0x3f>
    1b31:	50                   	push   %eax
    1b32:	50                   	push   %eax
    1b33:	56                   	push   %esi
    1b34:	68 54 68 00 00       	push   $0x6854
    1b39:	e8 b2 56 00 00       	call   71f0 <printf@plt>
    1b3e:	83 c4 10             	add    $0x10,%esp
    1b41:	e9 19 fc ff ff       	jmp    175f <main+0x3f>
    1b46:	be f6 fe ff ff       	mov    $0xfffffef6,%esi
    1b4b:	e9 0f fc ff ff       	jmp    175f <main+0x3f>
    1b50:	be fe ff ff ff       	mov    $0xfffffffe,%esi
    1b55:	e9 05 fc ff ff       	jmp    175f <main+0x3f>
    1b5a:	66 90                	xchg   %ax,%ax
    1b5c:	66 90                	xchg   %ax,%ax
    1b5e:	66 90                	xchg   %ax,%ax

00001b60 <cache_key_hash>:
    1b60:	55                   	push   %ebp
    1b61:	89 e5                	mov    %esp,%ebp
    1b63:	8b 45 08             	mov    0x8(%ebp),%eax
    1b66:	5d                   	pop    %ebp
    1b67:	8b 00                	mov    (%eax),%eax
    1b69:	c3                   	ret    
    1b6a:	8d b6 00 00 00 00    	lea    0x0(%esi),%esi

00001b70 <cache_hash>:
    1b70:	55                   	push   %ebp
    1b71:	89 e5                	mov    %esp,%ebp
    1b73:	8b 45 08             	mov    0x8(%ebp),%eax
    1b76:	5d                   	pop    %ebp
    1b77:	8b 40 e0             	mov    -0x20(%eax),%eax
    1b7a:	c3                   	ret    
    1b7b:	90                   	nop
    1b7c:	8d 74 26 00          	lea    0x0(%esi,%eiz,1),%esi

00001b80 <cache_key_equal>:
    1b80:	55                   	push   %ebp
    1b81:	89 e5                	mov    %esp,%ebp
    1b83:	8b 45 0c             	mov    0xc(%ebp),%eax
    1b86:	8b 4d 08             	mov    0x8(%ebp),%ecx
    1b89:	5d                   	pop    %ebp
    1b8a:	8b 50 e0             	mov    -0x20(%eax),%edx
    1b8d:	8b 40 e4             	mov    -0x1c(%eax),%eax
    1b90:	33 41 04             	xor    0x4(%ecx),%eax
    1b93:	33 11                	xor    (%ecx),%edx
    1b95:	09 c2                	or     %eax,%edx
    1b97:	0f 94 c0             	sete   %al
    1b9a:	c3                   	ret    
    1b9b:	90                   	nop
    1b9c:	8d 74 26 00          	lea    0x0(%esi,%eiz,1),%esi

00001ba0 <block_init>:
    1ba0:	55                   	push   %ebp
    1ba1:	89 e5                	mov    %esp,%ebp
    1ba3:	57                   	push   %edi
    1ba4:	56                   	push   %esi
    1ba5:	53                   	push   %ebx
    1ba6:	83 ec 30             	sub    $0x30,%esp
    1ba9:	8b 5d 08             	mov    0x8(%ebp),%ebx
    1bac:	6a 01                	push   $0x1
    1bae:	68 21 66 93 ed       	push   $0xed936621
    1bb3:	53                   	push   %ebx
    1bb4:	e8 27 56 00 00       	call   71e0 <loc_service_connect@plt>
    1bb9:	83 c4 10             	add    $0x10,%esp
    1bbc:	85 c0                	test   %eax,%eax
    1bbe:	0f 84 95 01 00 00    	je     1d59 <block_init+0x1b9>
    1bc4:	89 c7                	mov    %eax,%edi
    1bc6:	50                   	push   %eax
    1bc7:	50                   	push   %eax
    1bc8:	8d 45 d8             	lea    -0x28(%ebp),%eax
    1bcb:	50                   	push   %eax
    1bcc:	57                   	push   %edi
    1bcd:	e8 0e 57 00 00       	call   72e0 <bd_open@plt>
    1bd2:	83 c4 10             	add    $0x10,%esp
    1bd5:	89 c6                	mov    %eax,%esi
    1bd7:	85 c0                	test   %eax,%eax
    1bd9:	0f 85 31 01 00 00    	jne    1d10 <block_init+0x170>
    1bdf:	8d 45 dc             	lea    -0x24(%ebp),%eax
    1be2:	56                   	push   %esi
    1be3:	56                   	push   %esi
    1be4:	50                   	push   %eax
    1be5:	8b 45 d8             	mov    -0x28(%ebp),%eax
    1be8:	50                   	push   %eax
    1be9:	e8 f2 58 00 00       	call   74e0 <bd_get_block_size@plt>
    1bee:	83 c4 10             	add    $0x10,%esp
    1bf1:	89 c6                	mov    %eax,%esi
    1bf3:	85 c0                	test   %eax,%eax
    1bf5:	0f 85 f0 00 00 00    	jne    1ceb <block_init+0x14b>
    1bfb:	8d 45 e0             	lea    -0x20(%ebp),%eax
    1bfe:	8b 4d d8             	mov    -0x28(%ebp),%ecx
    1c01:	52                   	push   %edx
    1c02:	52                   	push   %edx
    1c03:	50                   	push   %eax
    1c04:	51                   	push   %ecx
    1c05:	e8 76 56 00 00       	call   7280 <bd_get_num_blocks@plt>
    1c0a:	83 c4 10             	add    $0x10,%esp
    1c0d:	89 c6                	mov    %eax,%esi
    1c0f:	85 c0                	test   %eax,%eax
    1c11:	0f 85 d4 00 00 00    	jne    1ceb <block_init+0x14b>
    1c17:	83 ec 0c             	sub    $0xc,%esp
    1c1a:	8b 55 e4             	mov    -0x1c(%ebp),%edx
    1c1d:	8b 4d d8             	mov    -0x28(%ebp),%ecx
    1c20:	8b 45 e0             	mov    -0x20(%ebp),%eax
    1c23:	89 55 d4             	mov    %edx,-0x2c(%ebp)
    1c26:	8b 55 dc             	mov    -0x24(%ebp),%edx
    1c29:	6a 30                	push   $0x30
    1c2b:	89 4d c8             	mov    %ecx,-0x38(%ebp)
    1c2e:	89 45 d0             	mov    %eax,-0x30(%ebp)
    1c31:	89 55 cc             	mov    %edx,-0x34(%ebp)
    1c34:	e8 97 56 00 00       	call   72d0 <malloc@plt>
    1c39:	83 c4 10             	add    $0x10,%esp
    1c3c:	85 c0                	test   %eax,%eax
    1c3e:	0f 84 1a 01 00 00    	je     1d5e <block_init+0x1be>
    1c44:	8b 4d c8             	mov    -0x38(%ebp),%ecx
    1c47:	8b 55 cc             	mov    -0x34(%ebp),%edx
    1c4a:	89 48 10             	mov    %ecx,0x10(%eax)
    1c4d:	89 50 28             	mov    %edx,0x28(%eax)
    1c50:	83 ec 0c             	sub    $0xc,%esp
    1c53:	8b 55 d0             	mov    -0x30(%ebp),%edx
    1c56:	8b 4d d4             	mov    -0x2c(%ebp),%ecx
    1c59:	89 50 20             	mov    %edx,0x20(%eax)
    1c5c:	c7 00 00 00 00 00    	movl   $0x0,(%eax)
    1c62:	c7 40 04 00 00 00 00 	movl   $0x0,0x4(%eax)
    1c69:	89 58 08             	mov    %ebx,0x8(%eax)
    1c6c:	89 78 0c             	mov    %edi,0xc(%eax)
    1c6f:	c7 40 14 00 00 00 00 	movl   $0x0,0x14(%eax)
    1c76:	c7 40 18 00 00 00 00 	movl   $0x0,0x18(%eax)
    1c7d:	c7 40 1c 00 00 00 00 	movl   $0x0,0x1c(%eax)
    1c84:	89 48 24             	mov    %ecx,0x24(%eax)
    1c87:	c7 40 2c 00 00 00 00 	movl   $0x0,0x2c(%eax)
    1c8e:	89 45 d0             	mov    %eax,-0x30(%ebp)
    1c91:	68 98 91 00 00       	push   $0x9198
    1c96:	e8 65 59 00 00       	call   7600 <fibril_mutex_lock@plt>
    1c9b:	8b 15 94 91 00 00    	mov    0x9194,%edx
    1ca1:	83 c4 10             	add    $0x10,%esp
    1ca4:	8b 45 d0             	mov    -0x30(%ebp),%eax
    1ca7:	81 fa 90 91 00 00    	cmp    $0x9190,%edx
    1cad:	75 14                	jne    1cc3 <block_init+0x123>
    1caf:	eb 77                	jmp    1d28 <block_init+0x188>
    1cb1:	8d b4 26 00 00 00 00 	lea    0x0(%esi,%eiz,1),%esi
    1cb8:	8b 52 04             	mov    0x4(%edx),%edx
    1cbb:	81 fa 90 91 00 00    	cmp    $0x9190,%edx
    1cc1:	74 65                	je     1d28 <block_init+0x188>
    1cc3:	3b 5a 08             	cmp    0x8(%edx),%ebx
    1cc6:	75 f0                	jne    1cb8 <block_init+0x118>
    1cc8:	83 ec 0c             	sub    $0xc,%esp
    1ccb:	89 45 d0             	mov    %eax,-0x30(%ebp)
    1cce:	be f7 ff ff ff       	mov    $0xfffffff7,%esi
    1cd3:	68 98 91 00 00       	push   $0x9198
    1cd8:	e8 33 57 00 00       	call   7410 <fibril_mutex_unlock@plt>
    1cdd:	8b 45 d0             	mov    -0x30(%ebp),%eax
    1ce0:	89 04 24             	mov    %eax,(%esp)
    1ce3:	e8 08 59 00 00       	call   75f0 <free@plt>
    1ce8:	83 c4 10             	add    $0x10,%esp
    1ceb:	83 ec 0c             	sub    $0xc,%esp
    1cee:	8b 45 d8             	mov    -0x28(%ebp),%eax
    1cf1:	50                   	push   %eax
    1cf2:	e8 a9 55 00 00       	call   72a0 <bd_close@plt>
    1cf7:	89 3c 24             	mov    %edi,(%esp)
    1cfa:	e8 01 55 00 00       	call   7200 <async_hangup@plt>
    1cff:	83 c4 10             	add    $0x10,%esp
    1d02:	8d 65 f4             	lea    -0xc(%ebp),%esp
    1d05:	89 f0                	mov    %esi,%eax
    1d07:	5b                   	pop    %ebx
    1d08:	5e                   	pop    %esi
    1d09:	5f                   	pop    %edi
    1d0a:	5d                   	pop    %ebp
    1d0b:	c3                   	ret    
    1d0c:	8d 74 26 00          	lea    0x0(%esi,%eiz,1),%esi
    1d10:	83 ec 0c             	sub    $0xc,%esp
    1d13:	57                   	push   %edi
    1d14:	e8 e7 54 00 00       	call   7200 <async_hangup@plt>
    1d19:	83 c4 10             	add    $0x10,%esp
    1d1c:	8d 65 f4             	lea    -0xc(%ebp),%esp
    1d1f:	89 f0                	mov    %esi,%eax
    1d21:	5b                   	pop    %ebx
    1d22:	5e                   	pop    %esi
    1d23:	5f                   	pop    %edi
    1d24:	5d                   	pop    %ebp
    1d25:	c3                   	ret    
    1d26:	66 90                	xchg   %ax,%ax
    1d28:	8b 15 90 91 00 00    	mov    0x9190,%edx
    1d2e:	83 ec 0c             	sub    $0xc,%esp
    1d31:	c7 40 04 90 91 00 00 	movl   $0x9190,0x4(%eax)
    1d38:	89 10                	mov    %edx,(%eax)
    1d3a:	89 42 04             	mov    %eax,0x4(%edx)
    1d3d:	68 98 91 00 00       	push   $0x9198
    1d42:	a3 90 91 00 00       	mov    %eax,0x9190
    1d47:	e8 c4 56 00 00       	call   7410 <fibril_mutex_unlock@plt>
    1d4c:	83 c4 10             	add    $0x10,%esp
    1d4f:	8d 65 f4             	lea    -0xc(%ebp),%esp
    1d52:	89 f0                	mov    %esi,%eax
    1d54:	5b                   	pop    %ebx
    1d55:	5e                   	pop    %esi
    1d56:	5f                   	pop    %edi
    1d57:	5d                   	pop    %ebp
    1d58:	c3                   	ret    
    1d59:	83 ce ff             	or     $0xffffffff,%esi
    1d5c:	eb a4                	jmp    1d02 <block_init+0x162>
    1d5e:	be fe ff ff ff       	mov    $0xfffffffe,%esi
    1d63:	eb 86                	jmp    1ceb <block_init+0x14b>
    1d65:	8d 74 26 00          	lea    0x0(%esi,%eiz,1),%esi
    1d69:	8d bc 27 00 00 00 00 	lea    0x0(%edi,%eiz,1),%edi

00001d70 <block_bb_read>:
    1d70:	55                   	push   %ebp
    1d71:	89 e5                	mov    %esp,%ebp
    1d73:	57                   	push   %edi
    1d74:	56                   	push   %esi
    1d75:	53                   	push   %ebx
    1d76:	83 ec 28             	sub    $0x28,%esp
    1d79:	8b 45 08             	mov    0x8(%ebp),%eax
    1d7c:	8b 75 0c             	mov    0xc(%ebp),%esi
    1d7f:	68 98 91 00 00       	push   $0x9198
    1d84:	89 45 e4             	mov    %eax,-0x1c(%ebp)
    1d87:	8b 7d 10             	mov    0x10(%ebp),%edi
    1d8a:	e8 71 58 00 00       	call   7600 <fibril_mutex_lock@plt>
    1d8f:	8b 1d 94 91 00 00    	mov    0x9194,%ebx
    1d95:	83 c4 10             	add    $0x10,%esp
    1d98:	81 fb 90 91 00 00    	cmp    $0x9190,%ebx
    1d9e:	74 20                	je     1dc0 <block_bb_read+0x50>
    1da0:	8b 45 e4             	mov    -0x1c(%ebp),%eax
    1da3:	3b 43 08             	cmp    0x8(%ebx),%eax
    1da6:	75 0d                	jne    1db5 <block_bb_read+0x45>
    1da8:	eb 36                	jmp    1de0 <block_bb_read+0x70>
    1daa:	8d b6 00 00 00 00    	lea    0x0(%esi),%esi
    1db0:	3b 43 08             	cmp    0x8(%ebx),%eax
    1db3:	74 2b                	je     1de0 <block_bb_read+0x70>
    1db5:	8b 5b 04             	mov    0x4(%ebx),%ebx
    1db8:	81 fb 90 91 00 00    	cmp    $0x9190,%ebx
    1dbe:	75 f0                	jne    1db0 <block_bb_read+0x40>
    1dc0:	83 ec 0c             	sub    $0xc,%esp
    1dc3:	68 98 91 00 00       	push   $0x9198
    1dc8:	e8 43 56 00 00       	call   7410 <fibril_mutex_unlock@plt>
    1dcd:	83 c4 10             	add    $0x10,%esp
    1dd0:	83 ca ff             	or     $0xffffffff,%edx
    1dd3:	8d 65 f4             	lea    -0xc(%ebp),%esp
    1dd6:	89 d0                	mov    %edx,%eax
    1dd8:	5b                   	pop    %ebx
    1dd9:	5e                   	pop    %esi
    1dda:	5f                   	pop    %edi
    1ddb:	5d                   	pop    %ebp
    1ddc:	c3                   	ret    
    1ddd:	8d 76 00             	lea    0x0(%esi),%esi
    1de0:	83 ec 0c             	sub    $0xc,%esp
    1de3:	68 98 91 00 00       	push   $0x9198
    1de8:	e8 23 56 00 00       	call   7410 <fibril_mutex_unlock@plt>
    1ded:	8b 43 14             	mov    0x14(%ebx),%eax
    1df0:	83 c4 10             	add    $0x10,%esp
    1df3:	85 c0                	test   %eax,%eax
    1df5:	0f 85 9d 00 00 00    	jne    1e98 <block_bb_read+0x128>
    1dfb:	83 ec 0c             	sub    $0xc,%esp
    1dfe:	8b 43 28             	mov    0x28(%ebx),%eax
    1e01:	50                   	push   %eax
    1e02:	e8 c9 54 00 00       	call   72d0 <malloc@plt>
    1e07:	83 c4 10             	add    $0x10,%esp
    1e0a:	89 c1                	mov    %eax,%ecx
    1e0c:	85 c0                	test   %eax,%eax
    1e0e:	0f 84 93 00 00 00    	je     1ea7 <block_bb_read+0x137>
    1e14:	50                   	push   %eax
    1e15:	50                   	push   %eax
    1e16:	8b 43 28             	mov    0x28(%ebx),%eax
    1e19:	89 4d e4             	mov    %ecx,-0x1c(%ebp)
    1e1c:	50                   	push   %eax
    1e1d:	51                   	push   %ecx
    1e1e:	8b 43 10             	mov    0x10(%ebx),%eax
    1e21:	6a 01                	push   $0x1
    1e23:	6a 00                	push   $0x0
    1e25:	6a 00                	push   $0x0
    1e27:	50                   	push   %eax
    1e28:	e8 43 55 00 00       	call   7370 <bd_read_blocks@plt>
    1e2d:	83 c4 20             	add    $0x20,%esp
    1e30:	89 c2                	mov    %eax,%edx
    1e32:	85 c0                	test   %eax,%eax
    1e34:	8b 4d e4             	mov    -0x1c(%ebp),%ecx
    1e37:	75 17                	jne    1e50 <block_bb_read+0xe0>
    1e39:	89 4b 14             	mov    %ecx,0x14(%ebx)
    1e3c:	89 73 18             	mov    %esi,0x18(%ebx)
    1e3f:	89 7b 1c             	mov    %edi,0x1c(%ebx)
    1e42:	8d 65 f4             	lea    -0xc(%ebp),%esp
    1e45:	89 d0                	mov    %edx,%eax
    1e47:	5b                   	pop    %ebx
    1e48:	5e                   	pop    %esi
    1e49:	5f                   	pop    %edi
    1e4a:	5d                   	pop    %ebp
    1e4b:	c3                   	ret    
    1e4c:	8d 74 26 00          	lea    0x0(%esi,%eiz,1),%esi
    1e50:	50                   	push   %eax
    1e51:	50                   	push   %eax
    1e52:	89 4d e0             	mov    %ecx,-0x20(%ebp)
    1e55:	8b 4b 08             	mov    0x8(%ebx),%ecx
    1e58:	51                   	push   %ecx
    1e59:	6a 00                	push   $0x0
    1e5b:	6a 00                	push   $0x0
    1e5d:	6a 01                	push   $0x1
    1e5f:	52                   	push   %edx
    1e60:	68 88 6c 00 00       	push   $0x6c88
    1e65:	89 55 e4             	mov    %edx,-0x1c(%ebp)
    1e68:	e8 83 53 00 00       	call   71f0 <printf@plt>
    1e6d:	83 c4 20             	add    $0x20,%esp
    1e70:	e8 bb 54 00 00       	call   7330 <stacktrace_print@plt>
    1e75:	83 ec 0c             	sub    $0xc,%esp
    1e78:	8b 4d e0             	mov    -0x20(%ebp),%ecx
    1e7b:	51                   	push   %ecx
    1e7c:	e8 6f 57 00 00       	call   75f0 <free@plt>
    1e81:	8b 55 e4             	mov    -0x1c(%ebp),%edx
    1e84:	83 c4 10             	add    $0x10,%esp
    1e87:	8d 65 f4             	lea    -0xc(%ebp),%esp
    1e8a:	89 d0                	mov    %edx,%eax
    1e8c:	5b                   	pop    %ebx
    1e8d:	5e                   	pop    %esi
    1e8e:	5f                   	pop    %edi
    1e8f:	5d                   	pop    %ebp
    1e90:	c3                   	ret    
    1e91:	8d b4 26 00 00 00 00 	lea    0x0(%esi,%eiz,1),%esi
    1e98:	8d 65 f4             	lea    -0xc(%ebp),%esp
    1e9b:	ba f7 ff ff ff       	mov    $0xfffffff7,%edx
    1ea0:	89 d0                	mov    %edx,%eax
    1ea2:	5b                   	pop    %ebx
    1ea3:	5e                   	pop    %esi
    1ea4:	5f                   	pop    %edi
    1ea5:	5d                   	pop    %ebp
    1ea6:	c3                   	ret    
    1ea7:	ba fe ff ff ff       	mov    $0xfffffffe,%edx
    1eac:	e9 22 ff ff ff       	jmp    1dd3 <block_bb_read+0x63>
    1eb1:	eb 0d                	jmp    1ec0 <block_bb_get>
    1eb3:	90                   	nop
    1eb4:	90                   	nop
    1eb5:	90                   	nop
    1eb6:	90                   	nop
    1eb7:	90                   	nop
    1eb8:	90                   	nop
    1eb9:	90                   	nop
    1eba:	90                   	nop
    1ebb:	90                   	nop
    1ebc:	90                   	nop
    1ebd:	90                   	nop
    1ebe:	90                   	nop
    1ebf:	90                   	nop

00001ec0 <block_bb_get>:
    1ec0:	55                   	push   %ebp
    1ec1:	89 e5                	mov    %esp,%ebp
    1ec3:	56                   	push   %esi
    1ec4:	53                   	push   %ebx
    1ec5:	83 ec 0c             	sub    $0xc,%esp
    1ec8:	8b 75 08             	mov    0x8(%ebp),%esi
    1ecb:	68 98 91 00 00       	push   $0x9198
    1ed0:	e8 2b 57 00 00       	call   7600 <fibril_mutex_lock@plt>
    1ed5:	8b 1d 94 91 00 00    	mov    0x9194,%ebx
    1edb:	83 c4 10             	add    $0x10,%esp
    1ede:	81 fb 90 91 00 00    	cmp    $0x9190,%ebx
    1ee4:	75 0d                	jne    1ef3 <block_bb_get+0x33>
    1ee6:	eb 28                	jmp    1f10 <block_bb_get+0x50>
    1ee8:	8b 5b 04             	mov    0x4(%ebx),%ebx
    1eeb:	81 fb 90 91 00 00    	cmp    $0x9190,%ebx
    1ef1:	74 1d                	je     1f10 <block_bb_get+0x50>
    1ef3:	3b 73 08             	cmp    0x8(%ebx),%esi
    1ef6:	75 f0                	jne    1ee8 <block_bb_get+0x28>
    1ef8:	83 ec 0c             	sub    $0xc,%esp
    1efb:	68 98 91 00 00       	push   $0x9198
    1f00:	e8 0b 55 00 00       	call   7410 <fibril_mutex_unlock@plt>
    1f05:	8b 43 14             	mov    0x14(%ebx),%eax
    1f08:	8d 65 f8             	lea    -0x8(%ebp),%esp
    1f0b:	5b                   	pop    %ebx
    1f0c:	5e                   	pop    %esi
    1f0d:	5d                   	pop    %ebp
    1f0e:	c3                   	ret    
    1f0f:	90                   	nop
    1f10:	83 ec 0c             	sub    $0xc,%esp
    1f13:	68 98 91 00 00       	push   $0x9198
    1f18:	e8 f3 54 00 00       	call   7410 <fibril_mutex_unlock@plt>
    1f1d:	83 c4 0c             	add    $0xc,%esp
    1f20:	68 ee 00 00 00       	push   $0xee
    1f25:	68 37 6c 00 00       	push   $0x6c37
    1f2a:	68 3f 6c 00 00       	push   $0x6c3f
    1f2f:	e8 6c 54 00 00       	call   73a0 <assert_abort@plt>
    1f34:	8d b6 00 00 00 00    	lea    0x0(%esi),%esi
    1f3a:	8d bf 00 00 00 00    	lea    0x0(%edi),%edi

00001f40 <block_cache_init>:
    1f40:	55                   	push   %ebp
    1f41:	89 e5                	mov    %esp,%ebp
    1f43:	56                   	push   %esi
    1f44:	53                   	push   %ebx
    1f45:	83 ec 0c             	sub    $0xc,%esp
    1f48:	8b 75 08             	mov    0x8(%ebp),%esi
    1f4b:	68 98 91 00 00       	push   $0x9198
    1f50:	e8 ab 56 00 00       	call   7600 <fibril_mutex_lock@plt>
    1f55:	8b 1d 94 91 00 00    	mov    0x9194,%ebx
    1f5b:	83 c4 10             	add    $0x10,%esp
    1f5e:	81 fb 90 91 00 00    	cmp    $0x9190,%ebx
    1f64:	75 19                	jne    1f7f <block_cache_init+0x3f>
    1f66:	e9 ad 00 00 00       	jmp    2018 <block_cache_init+0xd8>
    1f6b:	90                   	nop
    1f6c:	8d 74 26 00          	lea    0x0(%esi,%eiz,1),%esi
    1f70:	8b 5b 04             	mov    0x4(%ebx),%ebx
    1f73:	81 fb 90 91 00 00    	cmp    $0x9190,%ebx
    1f79:	0f 84 99 00 00 00    	je     2018 <block_cache_init+0xd8>
    1f7f:	3b 73 08             	cmp    0x8(%ebx),%esi
    1f82:	75 ec                	jne    1f70 <block_cache_init+0x30>
    1f84:	83 ec 0c             	sub    $0xc,%esp
    1f87:	68 98 91 00 00       	push   $0x9198
    1f8c:	e8 7f 54 00 00       	call   7410 <fibril_mutex_unlock@plt>
    1f91:	8b 43 2c             	mov    0x2c(%ebx),%eax
    1f94:	83 c4 10             	add    $0x10,%esp
    1f97:	85 c0                	test   %eax,%eax
    1f99:	0f 85 99 00 00 00    	jne    2038 <block_cache_init+0xf8>
    1f9f:	83 ec 0c             	sub    $0xc,%esp
    1fa2:	6a 48                	push   $0x48
    1fa4:	e8 27 53 00 00       	call   72d0 <malloc@plt>
    1fa9:	83 c4 10             	add    $0x10,%esp
    1fac:	89 c6                	mov    %eax,%esi
    1fae:	85 c0                	test   %eax,%eax
    1fb0:	0f 84 b4 00 00 00    	je     206a <block_cache_init+0x12a>
    1fb6:	83 ec 0c             	sub    $0xc,%esp
    1fb9:	50                   	push   %eax
    1fba:	e8 71 54 00 00       	call   7430 <fibril_mutex_initialize@plt>
    1fbf:	8d 46 3c             	lea    0x3c(%esi),%eax
    1fc2:	31 d2                	xor    %edx,%edx
    1fc4:	89 46 3c             	mov    %eax,0x3c(%esi)
    1fc7:	89 46 40             	mov    %eax,0x40(%esi)
    1fca:	8b 45 0c             	mov    0xc(%ebp),%eax
    1fcd:	83 c4 10             	add    $0x10,%esp
    1fd0:	89 46 10             	mov    %eax,0x10(%esi)
    1fd3:	8b 45 10             	mov    0x10(%ebp),%eax
    1fd6:	89 46 18             	mov    %eax,0x18(%esi)
    1fd9:	8b 45 14             	mov    0x14(%ebp),%eax
    1fdc:	89 46 44             	mov    %eax,0x44(%esi)
    1fdf:	8b 45 0c             	mov    0xc(%ebp),%eax
    1fe2:	f7 73 28             	divl   0x28(%ebx)
    1fe5:	c7 46 1c 00 00 00 00 	movl   $0x0,0x1c(%esi)
    1fec:	85 d2                	test   %edx,%edx
    1fee:	75 54                	jne    2044 <block_cache_init+0x104>
    1ff0:	89 46 14             	mov    %eax,0x14(%esi)
    1ff3:	8d 46 20             	lea    0x20(%esi),%eax
    1ff6:	68 7c 91 00 00       	push   $0x917c
    1ffb:	6a 00                	push   $0x0
    1ffd:	6a 00                	push   $0x0
    1fff:	50                   	push   %eax
    2000:	e8 1b 52 00 00       	call   7220 <hash_table_create@plt>
    2005:	83 c4 10             	add    $0x10,%esp
    2008:	84 c0                	test   %al,%al
    200a:	74 4b                	je     2057 <block_cache_init+0x117>
    200c:	89 73 2c             	mov    %esi,0x2c(%ebx)
    200f:	31 c0                	xor    %eax,%eax
    2011:	8d 65 f8             	lea    -0x8(%ebp),%esp
    2014:	5b                   	pop    %ebx
    2015:	5e                   	pop    %esi
    2016:	5d                   	pop    %ebp
    2017:	c3                   	ret    
    2018:	83 ec 0c             	sub    $0xc,%esp
    201b:	68 98 91 00 00       	push   $0x9198
    2020:	e8 eb 53 00 00       	call   7410 <fibril_mutex_unlock@plt>
    2025:	83 c4 10             	add    $0x10,%esp
    2028:	8d 65 f8             	lea    -0x8(%ebp),%esp
    202b:	83 c8 ff             	or     $0xffffffff,%eax
    202e:	5b                   	pop    %ebx
    202f:	5e                   	pop    %esi
    2030:	5d                   	pop    %ebp
    2031:	c3                   	ret    
    2032:	8d b6 00 00 00 00    	lea    0x0(%esi),%esi
    2038:	8d 65 f8             	lea    -0x8(%ebp),%esp
    203b:	b8 f7 ff ff ff       	mov    $0xfffffff7,%eax
    2040:	5b                   	pop    %ebx
    2041:	5e                   	pop    %esi
    2042:	5d                   	pop    %ebp
    2043:	c3                   	ret    
    2044:	83 ec 0c             	sub    $0xc,%esp
    2047:	56                   	push   %esi
    2048:	e8 a3 55 00 00       	call   75f0 <free@plt>
    204d:	83 c4 10             	add    $0x10,%esp
    2050:	b8 f5 ff ff ff       	mov    $0xfffffff5,%eax
    2055:	eb ba                	jmp    2011 <block_cache_init+0xd1>
    2057:	83 ec 0c             	sub    $0xc,%esp
    205a:	56                   	push   %esi
    205b:	e8 90 55 00 00       	call   75f0 <free@plt>
    2060:	83 c4 10             	add    $0x10,%esp
    2063:	b8 fe ff ff ff       	mov    $0xfffffffe,%eax
    2068:	eb a7                	jmp    2011 <block_cache_init+0xd1>
    206a:	b8 fe ff ff ff       	mov    $0xfffffffe,%eax
    206f:	eb a0                	jmp    2011 <block_cache_init+0xd1>
    2071:	eb 0d                	jmp    2080 <block_cache_fini>
    2073:	90                   	nop
    2074:	90                   	nop
    2075:	90                   	nop
    2076:	90                   	nop
    2077:	90                   	nop
    2078:	90                   	nop
    2079:	90                   	nop
    207a:	90                   	nop
    207b:	90                   	nop
    207c:	90                   	nop
    207d:	90                   	nop
    207e:	90                   	nop
    207f:	90                   	nop

00002080 <block_cache_fini>:
    2080:	55                   	push   %ebp
    2081:	89 e5                	mov    %esp,%ebp
    2083:	57                   	push   %edi
    2084:	56                   	push   %esi
    2085:	53                   	push   %ebx
    2086:	83 ec 38             	sub    $0x38,%esp
    2089:	8b 5d 08             	mov    0x8(%ebp),%ebx
    208c:	68 98 91 00 00       	push   $0x9198
    2091:	e8 6a 55 00 00       	call   7600 <fibril_mutex_lock@plt>
    2096:	8b 3d 94 91 00 00    	mov    0x9194,%edi
    209c:	83 c4 10             	add    $0x10,%esp
    209f:	81 ff 90 91 00 00    	cmp    $0x9190,%edi
    20a5:	75 18                	jne    20bf <block_cache_fini+0x3f>
    20a7:	e9 2c 01 00 00       	jmp    21d8 <block_cache_fini+0x158>
    20ac:	8d 74 26 00          	lea    0x0(%esi,%eiz,1),%esi
    20b0:	8b 7f 04             	mov    0x4(%edi),%edi
    20b3:	81 ff 90 91 00 00    	cmp    $0x9190,%edi
    20b9:	0f 84 19 01 00 00    	je     21d8 <block_cache_fini+0x158>
    20bf:	3b 5f 08             	cmp    0x8(%edi),%ebx
    20c2:	75 ec                	jne    20b0 <block_cache_fini+0x30>
    20c4:	83 ec 0c             	sub    $0xc,%esp
    20c7:	68 98 91 00 00       	push   $0x9198
    20cc:	e8 3f 53 00 00       	call   7410 <fibril_mutex_unlock@plt>
    20d1:	8b 47 2c             	mov    0x2c(%edi),%eax
    20d4:	83 c4 10             	add    $0x10,%esp
    20d7:	89 45 e0             	mov    %eax,-0x20(%ebp)
    20da:	85 c0                	test   %eax,%eax
    20dc:	0f 84 42 01 00 00    	je     2224 <block_cache_fini+0x1a4>
    20e2:	8b 58 40             	mov    0x40(%eax),%ebx
    20e5:	8d 70 3c             	lea    0x3c(%eax),%esi
    20e8:	83 c0 20             	add    $0x20,%eax
    20eb:	89 75 dc             	mov    %esi,-0x24(%ebp)
    20ee:	89 45 d8             	mov    %eax,-0x28(%ebp)
    20f1:	39 de                	cmp    %ebx,%esi
    20f3:	0f 84 2f 01 00 00    	je     2228 <block_cache_fini+0x1a8>
    20f9:	89 da                	mov    %ebx,%edx
    20fb:	89 7d d0             	mov    %edi,-0x30(%ebp)
    20fe:	eb 35                	jmp    2135 <block_cache_fini+0xb5>
    2100:	8b 55 d8             	mov    -0x28(%ebp),%edx
    2103:	8d 43 50             	lea    0x50(%ebx),%eax
    2106:	89 d6                	mov    %edx,%esi
    2108:	51                   	push   %ecx
    2109:	51                   	push   %ecx
    210a:	50                   	push   %eax
    210b:	52                   	push   %edx
    210c:	e8 6f 53 00 00       	call   7480 <hash_table_remove_item@plt>
    2111:	8b 43 58             	mov    0x58(%ebx),%eax
    2114:	5f                   	pop    %edi
    2115:	50                   	push   %eax
    2116:	e8 d5 54 00 00       	call   75f0 <free@plt>
    211b:	89 1c 24             	mov    %ebx,(%esp)
    211e:	e8 cd 54 00 00       	call   75f0 <free@plt>
    2123:	8b 45 e0             	mov    -0x20(%ebp),%eax
    2126:	83 c4 10             	add    $0x10,%esp
    2129:	8b 50 40             	mov    0x40(%eax),%edx
    212c:	3b 55 dc             	cmp    -0x24(%ebp),%edx
    212f:	0f 84 c3 00 00 00    	je     21f8 <block_cache_fini+0x178>
    2135:	8d 5a b8             	lea    -0x48(%edx),%ebx
    2138:	8b 4b 48             	mov    0x48(%ebx),%ecx
    213b:	85 c9                	test   %ecx,%ecx
    213d:	74 0f                	je     214e <block_cache_fini+0xce>
    213f:	8b 43 4c             	mov    0x4c(%ebx),%eax
    2142:	85 c0                	test   %eax,%eax
    2144:	74 08                	je     214e <block_cache_fini+0xce>
    2146:	89 08                	mov    %ecx,(%eax)
    2148:	8b 4b 48             	mov    0x48(%ebx),%ecx
    214b:	89 41 04             	mov    %eax,0x4(%ecx)
    214e:	c7 43 48 00 00 00 00 	movl   $0x0,0x48(%ebx)
    2155:	c7 43 4c 00 00 00 00 	movl   $0x0,0x4c(%ebx)
    215c:	80 7b 14 00          	cmpb   $0x0,0x14(%ebx)
    2160:	74 9e                	je     2100 <block_cache_fini+0x80>
    2162:	8b 45 e0             	mov    -0x20(%ebp),%eax
    2165:	8b 73 38             	mov    0x38(%ebx),%esi
    2168:	8b 7b 3c             	mov    0x3c(%ebx),%edi
    216b:	8b 48 14             	mov    0x14(%eax),%ecx
    216e:	50                   	push   %eax
    216f:	50                   	push   %eax
    2170:	89 4d d4             	mov    %ecx,-0x2c(%ebp)
    2173:	8b 53 40             	mov    0x40(%ebx),%edx
    2176:	8b 43 58             	mov    0x58(%ebx),%eax
    2179:	52                   	push   %edx
    217a:	50                   	push   %eax
    217b:	8b 45 d0             	mov    -0x30(%ebp),%eax
    217e:	51                   	push   %ecx
    217f:	57                   	push   %edi
    2180:	56                   	push   %esi
    2181:	8b 40 10             	mov    0x10(%eax),%eax
    2184:	50                   	push   %eax
    2185:	e8 e6 50 00 00       	call   7270 <bd_write_blocks@plt>
    218a:	83 c4 20             	add    $0x20,%esp
    218d:	8b 4d d4             	mov    -0x2c(%ebp),%ecx
    2190:	85 c0                	test   %eax,%eax
    2192:	0f 84 68 ff ff ff    	je     2100 <block_cache_fini+0x80>
    2198:	89 7d e4             	mov    %edi,-0x1c(%ebp)
    219b:	8b 7d d0             	mov    -0x30(%ebp),%edi
    219e:	89 75 e0             	mov    %esi,-0x20(%ebp)
    21a1:	89 ce                	mov    %ecx,%esi
    21a3:	89 c1                	mov    %eax,%ecx
    21a5:	50                   	push   %eax
    21a6:	50                   	push   %eax
    21a7:	8b 47 08             	mov    0x8(%edi),%eax
    21aa:	50                   	push   %eax
    21ab:	8b 45 e4             	mov    -0x1c(%ebp),%eax
    21ae:	50                   	push   %eax
    21af:	8b 45 e0             	mov    -0x20(%ebp),%eax
    21b2:	50                   	push   %eax
    21b3:	56                   	push   %esi
    21b4:	51                   	push   %ecx
    21b5:	68 d4 6c 00 00       	push   $0x6cd4
    21ba:	89 4d e0             	mov    %ecx,-0x20(%ebp)
    21bd:	e8 2e 50 00 00       	call   71f0 <printf@plt>
    21c2:	83 c4 20             	add    $0x20,%esp
    21c5:	e8 66 51 00 00       	call   7330 <stacktrace_print@plt>
    21ca:	8b 4d e0             	mov    -0x20(%ebp),%ecx
    21cd:	8d 65 f4             	lea    -0xc(%ebp),%esp
    21d0:	89 c8                	mov    %ecx,%eax
    21d2:	5b                   	pop    %ebx
    21d3:	5e                   	pop    %esi
    21d4:	5f                   	pop    %edi
    21d5:	5d                   	pop    %ebp
    21d6:	c3                   	ret    
    21d7:	90                   	nop
    21d8:	83 ec 0c             	sub    $0xc,%esp
    21db:	68 98 91 00 00       	push   $0x9198
    21e0:	e8 2b 52 00 00       	call   7410 <fibril_mutex_unlock@plt>
    21e5:	83 c4 10             	add    $0x10,%esp
    21e8:	8d 65 f4             	lea    -0xc(%ebp),%esp
    21eb:	83 c9 ff             	or     $0xffffffff,%ecx
    21ee:	5b                   	pop    %ebx
    21ef:	89 c8                	mov    %ecx,%eax
    21f1:	5e                   	pop    %esi
    21f2:	5f                   	pop    %edi
    21f3:	5d                   	pop    %ebp
    21f4:	c3                   	ret    
    21f5:	8d 76 00             	lea    0x0(%esi),%esi
    21f8:	8b 7d d0             	mov    -0x30(%ebp),%edi
    21fb:	83 ec 0c             	sub    $0xc,%esp
    21fe:	56                   	push   %esi
    21ff:	e8 bc 53 00 00       	call   75c0 <hash_table_destroy@plt>
    2204:	c7 47 2c 00 00 00 00 	movl   $0x0,0x2c(%edi)
    220b:	8b 55 e0             	mov    -0x20(%ebp),%edx
    220e:	58                   	pop    %eax
    220f:	52                   	push   %edx
    2210:	e8 db 53 00 00       	call   75f0 <free@plt>
    2215:	83 c4 10             	add    $0x10,%esp
    2218:	8d 65 f4             	lea    -0xc(%ebp),%esp
    221b:	31 c9                	xor    %ecx,%ecx
    221d:	89 c8                	mov    %ecx,%eax
    221f:	5b                   	pop    %ebx
    2220:	5e                   	pop    %esi
    2221:	5f                   	pop    %edi
    2222:	5d                   	pop    %ebp
    2223:	c3                   	ret    
    2224:	31 c9                	xor    %ecx,%ecx
    2226:	eb a5                	jmp    21cd <block_cache_fini+0x14d>
    2228:	8b 45 e0             	mov    -0x20(%ebp),%eax
    222b:	8d 70 20             	lea    0x20(%eax),%esi
    222e:	eb cb                	jmp    21fb <block_cache_fini+0x17b>

00002230 <block_fini>:
    2230:	55                   	push   %ebp
    2231:	89 e5                	mov    %esp,%ebp
    2233:	56                   	push   %esi
    2234:	53                   	push   %ebx
    2235:	83 ec 0c             	sub    $0xc,%esp
    2238:	8b 75 08             	mov    0x8(%ebp),%esi
    223b:	68 98 91 00 00       	push   $0x9198
    2240:	e8 bb 53 00 00       	call   7600 <fibril_mutex_lock@plt>
    2245:	8b 1d 94 91 00 00    	mov    0x9194,%ebx
    224b:	83 c4 10             	add    $0x10,%esp
    224e:	81 fb 90 91 00 00    	cmp    $0x9190,%ebx
    2254:	75 19                	jne    226f <block_fini+0x3f>
    2256:	e9 c5 00 00 00       	jmp    2320 <block_fini+0xf0>
    225b:	90                   	nop
    225c:	8d 74 26 00          	lea    0x0(%esi,%eiz,1),%esi
    2260:	8b 5b 04             	mov    0x4(%ebx),%ebx
    2263:	81 fb 90 91 00 00    	cmp    $0x9190,%ebx
    2269:	0f 84 b1 00 00 00    	je     2320 <block_fini+0xf0>
    226f:	3b 73 08             	cmp    0x8(%ebx),%esi
    2272:	75 ec                	jne    2260 <block_fini+0x30>
    2274:	83 ec 0c             	sub    $0xc,%esp
    2277:	68 98 91 00 00       	push   $0x9198
    227c:	e8 8f 51 00 00       	call   7410 <fibril_mutex_unlock@plt>
    2281:	8b 43 2c             	mov    0x2c(%ebx),%eax
    2284:	83 c4 10             	add    $0x10,%esp
    2287:	85 c0                	test   %eax,%eax
    2289:	74 0c                	je     2297 <block_fini+0x67>
    228b:	83 ec 0c             	sub    $0xc,%esp
    228e:	56                   	push   %esi
    228f:	e8 ec fd ff ff       	call   2080 <block_cache_fini>
    2294:	83 c4 10             	add    $0x10,%esp
    2297:	6a 00                	push   $0x0
    2299:	6a 00                	push   $0x0
    229b:	6a 00                	push   $0x0
    229d:	8b 73 10             	mov    0x10(%ebx),%esi
    22a0:	56                   	push   %esi
    22a1:	e8 6a 52 00 00       	call   7510 <bd_sync_cache@plt>
    22a6:	c7 04 24 98 91 00 00 	movl   $0x9198,(%esp)
    22ad:	e8 4e 53 00 00       	call   7600 <fibril_mutex_lock@plt>
    22b2:	8b 13                	mov    (%ebx),%edx
    22b4:	83 c4 10             	add    $0x10,%esp
    22b7:	85 d2                	test   %edx,%edx
    22b9:	74 0e                	je     22c9 <block_fini+0x99>
    22bb:	8b 43 04             	mov    0x4(%ebx),%eax
    22be:	85 c0                	test   %eax,%eax
    22c0:	74 07                	je     22c9 <block_fini+0x99>
    22c2:	89 10                	mov    %edx,(%eax)
    22c4:	8b 13                	mov    (%ebx),%edx
    22c6:	89 42 04             	mov    %eax,0x4(%edx)
    22c9:	83 ec 0c             	sub    $0xc,%esp
    22cc:	c7 03 00 00 00 00    	movl   $0x0,(%ebx)
    22d2:	c7 43 04 00 00 00 00 	movl   $0x0,0x4(%ebx)
    22d9:	68 98 91 00 00       	push   $0x9198
    22de:	e8 2d 51 00 00       	call   7410 <fibril_mutex_unlock@plt>
    22e3:	8b 43 14             	mov    0x14(%ebx),%eax
    22e6:	83 c4 10             	add    $0x10,%esp
    22e9:	85 c0                	test   %eax,%eax
    22eb:	74 0c                	je     22f9 <block_fini+0xc9>
    22ed:	83 ec 0c             	sub    $0xc,%esp
    22f0:	50                   	push   %eax
    22f1:	e8 fa 52 00 00       	call   75f0 <free@plt>
    22f6:	83 c4 10             	add    $0x10,%esp
    22f9:	83 ec 0c             	sub    $0xc,%esp
    22fc:	8b 43 10             	mov    0x10(%ebx),%eax
    22ff:	50                   	push   %eax
    2300:	e8 9b 4f 00 00       	call   72a0 <bd_close@plt>
    2305:	8b 4b 0c             	mov    0xc(%ebx),%ecx
    2308:	5a                   	pop    %edx
    2309:	51                   	push   %ecx
    230a:	e8 f1 4e 00 00       	call   7200 <async_hangup@plt>
    230f:	89 5d 08             	mov    %ebx,0x8(%ebp)
    2312:	83 c4 10             	add    $0x10,%esp
    2315:	8d 65 f8             	lea    -0x8(%ebp),%esp
    2318:	5b                   	pop    %ebx
    2319:	5e                   	pop    %esi
    231a:	5d                   	pop    %ebp
    231b:	e9 d0 52 00 00       	jmp    75f0 <free@plt>
    2320:	83 ec 0c             	sub    $0xc,%esp
    2323:	68 98 91 00 00       	push   $0x9198
    2328:	e8 e3 50 00 00       	call   7410 <fibril_mutex_unlock@plt>
    232d:	83 c4 0c             	add    $0xc,%esp
    2330:	68 bf 00 00 00       	push   $0xbf
    2335:	68 37 6c 00 00       	push   $0x6c37
    233a:	68 3f 6c 00 00       	push   $0x6c3f
    233f:	e8 5c 50 00 00       	call   73a0 <assert_abort@plt>
    2344:	8d b6 00 00 00 00    	lea    0x0(%esi),%esi
    234a:	8d bf 00 00 00 00    	lea    0x0(%edi),%edi

00002350 <block_put>:
    2350:	55                   	push   %ebp
    2351:	89 e5                	mov    %esp,%ebp
    2353:	57                   	push   %edi
    2354:	56                   	push   %esi
    2355:	53                   	push   %ebx
    2356:	83 ec 28             	sub    $0x28,%esp
    2359:	8b 7d 08             	mov    0x8(%ebp),%edi
    235c:	8b 5f 2c             	mov    0x2c(%edi),%ebx
    235f:	68 98 91 00 00       	push   $0x9198
    2364:	e8 97 52 00 00       	call   7600 <fibril_mutex_lock@plt>
    2369:	8b 35 94 91 00 00    	mov    0x9194,%esi
    236f:	83 c4 10             	add    $0x10,%esp
    2372:	81 fe 90 91 00 00    	cmp    $0x9190,%esi
    2378:	75 15                	jne    238f <block_put+0x3f>
    237a:	e9 c1 01 00 00       	jmp    2540 <block_put+0x1f0>
    237f:	90                   	nop
    2380:	8b 76 04             	mov    0x4(%esi),%esi
    2383:	81 fe 90 91 00 00    	cmp    $0x9190,%esi
    2389:	0f 84 b1 01 00 00    	je     2540 <block_put+0x1f0>
    238f:	3b 5e 08             	cmp    0x8(%esi),%ebx
    2392:	75 ec                	jne    2380 <block_put+0x30>
    2394:	83 ec 0c             	sub    $0xc,%esp
    2397:	68 98 91 00 00       	push   $0x9198
    239c:	e8 6f 50 00 00       	call   7410 <fibril_mutex_unlock@plt>
    23a1:	8b 5e 2c             	mov    0x2c(%esi),%ebx
    23a4:	83 c4 10             	add    $0x10,%esp
    23a7:	85 db                	test   %ebx,%ebx
    23a9:	0f 84 6b 02 00 00    	je     261a <block_put+0x2ca>
    23af:	8b 47 10             	mov    0x10(%edi),%eax
    23b2:	85 c0                	test   %eax,%eax
    23b4:	0f 84 75 02 00 00    	je     262f <block_put+0x2df>
    23ba:	c7 45 e4 00 00 00 00 	movl   $0x0,-0x1c(%ebp)
    23c1:	89 75 e0             	mov    %esi,-0x20(%ebp)
    23c4:	8d 74 26 00          	lea    0x0(%esi,%eiz,1),%esi
    23c8:	83 ec 0c             	sub    $0xc,%esp
    23cb:	53                   	push   %ebx
    23cc:	e8 2f 52 00 00       	call   7600 <fibril_mutex_lock@plt>
    23d1:	8b 43 44             	mov    0x44(%ebx),%eax
    23d4:	8b 73 1c             	mov    0x1c(%ebx),%esi
    23d7:	89 45 d8             	mov    %eax,-0x28(%ebp)
    23da:	89 1c 24             	mov    %ebx,(%esp)
    23dd:	e8 2e 50 00 00       	call   7410 <fibril_mutex_unlock@plt>
    23e2:	89 3c 24             	mov    %edi,(%esp)
    23e5:	e8 16 52 00 00       	call   7600 <fibril_mutex_lock@plt>
    23ea:	83 c4 10             	add    $0x10,%esp
    23ed:	80 7f 15 00          	cmpb   $0x0,0x15(%edi)
    23f1:	0f 85 39 01 00 00    	jne    2530 <block_put+0x1e0>
    23f7:	80 7f 14 00          	cmpb   $0x0,0x14(%edi)
    23fb:	74 0a                	je     2407 <block_put+0xb7>
    23fd:	83 7f 10 01          	cmpl   $0x1,0x10(%edi)
    2401:	0f 84 b9 00 00 00    	je     24c0 <block_put+0x170>
    2407:	83 ec 0c             	sub    $0xc,%esp
    240a:	57                   	push   %edi
    240b:	e8 00 50 00 00       	call   7410 <fibril_mutex_unlock@plt>
    2410:	89 1c 24             	mov    %ebx,(%esp)
    2413:	e8 e8 51 00 00       	call   7600 <fibril_mutex_lock@plt>
    2418:	89 3c 24             	mov    %edi,(%esp)
    241b:	e8 e0 51 00 00       	call   7600 <fibril_mutex_lock@plt>
    2420:	8b 47 10             	mov    0x10(%edi),%eax
    2423:	83 c4 10             	add    $0x10,%esp
    2426:	48                   	dec    %eax
    2427:	89 47 10             	mov    %eax,0x10(%edi)
    242a:	85 c0                	test   %eax,%eax
    242c:	0f 85 51 01 00 00    	jne    2583 <block_put+0x233>
    2432:	83 7b 1c 14          	cmpl   $0x14,0x1c(%ebx)
    2436:	77 48                	ja     2480 <block_put+0x130>
    2438:	8b 45 e4             	mov    -0x1c(%ebp),%eax
    243b:	85 c0                	test   %eax,%eax
    243d:	75 41                	jne    2480 <block_put+0x130>
    243f:	83 7b 44 01          	cmpl   $0x1,0x44(%ebx)
    2443:	0f 84 1b 01 00 00    	je     2564 <block_put+0x214>
    2449:	80 7f 14 00          	cmpb   $0x0,0x14(%edi)
    244d:	0f 84 11 01 00 00    	je     2564 <block_put+0x214>
    2453:	83 ec 0c             	sub    $0xc,%esp
    2456:	c7 47 10 01 00 00 00 	movl   $0x1,0x10(%edi)
    245d:	57                   	push   %edi
    245e:	e8 ad 4f 00 00       	call   7410 <fibril_mutex_unlock@plt>
    2463:	89 1c 24             	mov    %ebx,(%esp)
    2466:	e8 a5 4f 00 00       	call   7410 <fibril_mutex_unlock@plt>
    246b:	83 c4 10             	add    $0x10,%esp
    246e:	c7 45 e4 00 00 00 00 	movl   $0x0,-0x1c(%ebp)
    2475:	e9 4e ff ff ff       	jmp    23c8 <block_put+0x78>
    247a:	8d b6 00 00 00 00    	lea    0x0(%esi),%esi
    2480:	80 7f 14 00          	cmpb   $0x0,0x14(%edi)
    2484:	0f 84 4a 01 00 00    	je     25d4 <block_put+0x284>
    248a:	8b 47 44             	mov    0x44(%edi),%eax
    248d:	c7 47 10 01 00 00 00 	movl   $0x1,0x10(%edi)
    2494:	83 f8 09             	cmp    $0x9,%eax
    2497:	0f 8f 1b 01 00 00    	jg     25b8 <block_put+0x268>
    249d:	83 ec 0c             	sub    $0xc,%esp
    24a0:	40                   	inc    %eax
    24a1:	89 47 44             	mov    %eax,0x44(%edi)
    24a4:	57                   	push   %edi
    24a5:	e8 66 4f 00 00       	call   7410 <fibril_mutex_unlock@plt>
    24aa:	89 1c 24             	mov    %ebx,(%esp)
    24ad:	e8 5e 4f 00 00       	call   7410 <fibril_mutex_unlock@plt>
    24b2:	83 c4 10             	add    $0x10,%esp
    24b5:	e9 0e ff ff ff       	jmp    23c8 <block_put+0x78>
    24ba:	8d b6 00 00 00 00    	lea    0x0(%esi),%esi
    24c0:	83 fe 14             	cmp    $0x14,%esi
    24c3:	77 0a                	ja     24cf <block_put+0x17f>
    24c5:	83 7d d8 01          	cmpl   $0x1,-0x28(%ebp)
    24c9:	0f 84 38 ff ff ff    	je     2407 <block_put+0xb7>
    24cf:	8b 47 38             	mov    0x38(%edi),%eax
    24d2:	8b 57 3c             	mov    0x3c(%edi),%edx
    24d5:	8b 73 14             	mov    0x14(%ebx),%esi
    24d8:	51                   	push   %ecx
    24d9:	51                   	push   %ecx
    24da:	89 45 d8             	mov    %eax,-0x28(%ebp)
    24dd:	8b 4f 40             	mov    0x40(%edi),%ecx
    24e0:	89 55 dc             	mov    %edx,-0x24(%ebp)
    24e3:	51                   	push   %ecx
    24e4:	8b 4f 58             	mov    0x58(%edi),%ecx
    24e7:	51                   	push   %ecx
    24e8:	56                   	push   %esi
    24e9:	52                   	push   %edx
    24ea:	50                   	push   %eax
    24eb:	8b 45 e0             	mov    -0x20(%ebp),%eax
    24ee:	8b 40 10             	mov    0x10(%eax),%eax
    24f1:	50                   	push   %eax
    24f2:	e8 79 4d 00 00       	call   7270 <bd_write_blocks@plt>
    24f7:	83 c4 20             	add    $0x20,%esp
    24fa:	89 45 e4             	mov    %eax,-0x1c(%ebp)
    24fd:	85 c0                	test   %eax,%eax
    24ff:	0f 84 a3 00 00 00    	je     25a8 <block_put+0x258>
    2505:	50                   	push   %eax
    2506:	50                   	push   %eax
    2507:	8b 45 e0             	mov    -0x20(%ebp),%eax
    250a:	8b 55 dc             	mov    -0x24(%ebp),%edx
    250d:	8b 4d d8             	mov    -0x28(%ebp),%ecx
    2510:	8b 40 08             	mov    0x8(%eax),%eax
    2513:	50                   	push   %eax
    2514:	52                   	push   %edx
    2515:	51                   	push   %ecx
    2516:	56                   	push   %esi
    2517:	8b 75 e4             	mov    -0x1c(%ebp),%esi
    251a:	56                   	push   %esi
    251b:	68 d4 6c 00 00       	push   $0x6cd4
    2520:	e8 cb 4c 00 00       	call   71f0 <printf@plt>
    2525:	83 c4 20             	add    $0x20,%esp
    2528:	e8 03 4e 00 00       	call   7330 <stacktrace_print@plt>
    252d:	8d 76 00             	lea    0x0(%esi),%esi
    2530:	c6 47 14 00          	movb   $0x0,0x14(%edi)
    2534:	e9 ce fe ff ff       	jmp    2407 <block_put+0xb7>
    2539:	8d b4 26 00 00 00 00 	lea    0x0(%esi,%eiz,1),%esi
    2540:	83 ec 0c             	sub    $0xc,%esp
    2543:	68 98 91 00 00       	push   $0x9198
    2548:	e8 c3 4e 00 00       	call   7410 <fibril_mutex_unlock@plt>
    254d:	83 c4 0c             	add    $0xc,%esp
    2550:	68 4c 02 00 00       	push   $0x24c
    2555:	68 37 6c 00 00       	push   $0x6c37
    255a:	68 3f 6c 00 00       	push   $0x6c3f
    255f:	e8 3c 4e 00 00       	call   73a0 <assert_abort@plt>
    2564:	8d 4b 3c             	lea    0x3c(%ebx),%ecx
    2567:	8d 47 48             	lea    0x48(%edi),%eax
    256a:	89 4f 4c             	mov    %ecx,0x4c(%edi)
    256d:	8b 4b 3c             	mov    0x3c(%ebx),%ecx
    2570:	89 4f 48             	mov    %ecx,0x48(%edi)
    2573:	c7 45 e4 00 00 00 00 	movl   $0x0,-0x1c(%ebp)
    257a:	8b 4b 3c             	mov    0x3c(%ebx),%ecx
    257d:	89 41 04             	mov    %eax,0x4(%ecx)
    2580:	89 43 3c             	mov    %eax,0x3c(%ebx)
    2583:	83 ec 0c             	sub    $0xc,%esp
    2586:	57                   	push   %edi
    2587:	e8 84 4e 00 00       	call   7410 <fibril_mutex_unlock@plt>
    258c:	89 1c 24             	mov    %ebx,(%esp)
    258f:	e8 7c 4e 00 00       	call   7410 <fibril_mutex_unlock@plt>
    2594:	8b 45 e4             	mov    -0x1c(%ebp),%eax
    2597:	83 c4 10             	add    $0x10,%esp
    259a:	8d 65 f4             	lea    -0xc(%ebp),%esp
    259d:	5b                   	pop    %ebx
    259e:	5e                   	pop    %esi
    259f:	5f                   	pop    %edi
    25a0:	5d                   	pop    %ebp
    25a1:	c3                   	ret    
    25a2:	8d b6 00 00 00 00    	lea    0x0(%esi),%esi
    25a8:	c7 47 44 00 00 00 00 	movl   $0x0,0x44(%edi)
    25af:	c6 47 14 00          	movb   $0x0,0x14(%edi)
    25b3:	e9 4f fe ff ff       	jmp    2407 <block_put+0xb7>
    25b8:	8b 75 e0             	mov    -0x20(%ebp),%esi
    25bb:	8b 46 08             	mov    0x8(%esi),%eax
    25be:	50                   	push   %eax
    25bf:	8b 47 34             	mov    0x34(%edi),%eax
    25c2:	50                   	push   %eax
    25c3:	8b 47 30             	mov    0x30(%edi),%eax
    25c6:	50                   	push   %eax
    25c7:	68 1c 6d 00 00       	push   $0x6d1c
    25cc:	e8 1f 4c 00 00       	call   71f0 <printf@plt>
    25d1:	83 c4 10             	add    $0x10,%esp
    25d4:	50                   	push   %eax
    25d5:	50                   	push   %eax
    25d6:	8d 47 50             	lea    0x50(%edi),%eax
    25d9:	50                   	push   %eax
    25da:	8d 43 20             	lea    0x20(%ebx),%eax
    25dd:	50                   	push   %eax
    25de:	e8 9d 4e 00 00       	call   7480 <hash_table_remove_item@plt>
    25e3:	89 3c 24             	mov    %edi,(%esp)
    25e6:	e8 25 4e 00 00       	call   7410 <fibril_mutex_unlock@plt>
    25eb:	8b 4f 58             	mov    0x58(%edi),%ecx
    25ee:	5a                   	pop    %edx
    25ef:	51                   	push   %ecx
    25f0:	e8 fb 4f 00 00       	call   75f0 <free@plt>
    25f5:	89 3c 24             	mov    %edi,(%esp)
    25f8:	e8 f3 4f 00 00       	call   75f0 <free@plt>
    25fd:	8b 73 1c             	mov    0x1c(%ebx),%esi
    2600:	4e                   	dec    %esi
    2601:	89 73 1c             	mov    %esi,0x1c(%ebx)
    2604:	89 1c 24             	mov    %ebx,(%esp)
    2607:	e8 04 4e 00 00       	call   7410 <fibril_mutex_unlock@plt>
    260c:	8b 45 e4             	mov    -0x1c(%ebp),%eax
    260f:	83 c4 10             	add    $0x10,%esp
    2612:	8d 65 f4             	lea    -0xc(%ebp),%esp
    2615:	5b                   	pop    %ebx
    2616:	5e                   	pop    %esi
    2617:	5f                   	pop    %edi
    2618:	5d                   	pop    %ebp
    2619:	c3                   	ret    
    261a:	50                   	push   %eax
    261b:	68 4d 02 00 00       	push   $0x24d
    2620:	68 37 6c 00 00       	push   $0x6c37
    2625:	68 46 6c 00 00       	push   $0x6c46
    262a:	e8 71 4d 00 00       	call   73a0 <assert_abort@plt>
    262f:	50                   	push   %eax
    2630:	68 4e 02 00 00       	push   $0x24e
    2635:	68 37 6c 00 00       	push   $0x6c37
    263a:	68 54 6c 00 00       	push   $0x6c54
    263f:	e8 5c 4d 00 00       	call   73a0 <assert_abort@plt>
    2644:	8d b6 00 00 00 00    	lea    0x0(%esi),%esi
    264a:	8d bf 00 00 00 00    	lea    0x0(%edi),%edi

00002650 <block_get>:
    2650:	55                   	push   %ebp
    2651:	89 e5                	mov    %esp,%ebp
    2653:	57                   	push   %edi
    2654:	56                   	push   %esi
    2655:	53                   	push   %ebx
    2656:	83 ec 48             	sub    $0x48,%esp
    2659:	8b 45 10             	mov    0x10(%ebp),%eax
    265c:	89 45 e0             	mov    %eax,-0x20(%ebp)
    265f:	8b 45 14             	mov    0x14(%ebp),%eax
    2662:	68 98 91 00 00       	push   $0x9198
    2667:	89 45 e4             	mov    %eax,-0x1c(%ebp)
    266a:	e8 91 4f 00 00       	call   7600 <fibril_mutex_lock@plt>
    266f:	8b 35 94 91 00 00    	mov    0x9194,%esi
    2675:	83 c4 10             	add    $0x10,%esp
    2678:	81 fe 90 91 00 00    	cmp    $0x9190,%esi
    267e:	74 20                	je     26a0 <block_get+0x50>
    2680:	8b 46 08             	mov    0x8(%esi),%eax
    2683:	39 45 0c             	cmp    %eax,0xc(%ebp)
    2686:	74 40                	je     26c8 <block_get+0x78>
    2688:	8b 45 0c             	mov    0xc(%ebp),%eax
    268b:	eb 08                	jmp    2695 <block_get+0x45>
    268d:	8d 76 00             	lea    0x0(%esi),%esi
    2690:	3b 46 08             	cmp    0x8(%esi),%eax
    2693:	74 33                	je     26c8 <block_get+0x78>
    2695:	8b 76 04             	mov    0x4(%esi),%esi
    2698:	81 fe 90 91 00 00    	cmp    $0x9190,%esi
    269e:	75 f0                	jne    2690 <block_get+0x40>
    26a0:	83 ec 0c             	sub    $0xc,%esp
    26a3:	68 98 91 00 00       	push   $0x9198
    26a8:	e8 63 4d 00 00       	call   7410 <fibril_mutex_unlock@plt>
    26ad:	83 c4 0c             	add    $0xc,%esp
    26b0:	68 8a 01 00 00       	push   $0x18a
    26b5:	68 37 6c 00 00       	push   $0x6c37
    26ba:	68 3f 6c 00 00       	push   $0x6c3f
    26bf:	e8 dc 4c 00 00       	call   73a0 <assert_abort@plt>
    26c4:	8d 74 26 00          	lea    0x0(%esi,%eiz,1),%esi
    26c8:	83 ec 0c             	sub    $0xc,%esp
    26cb:	68 98 91 00 00       	push   $0x9198
    26d0:	e8 3b 4d 00 00       	call   7410 <fibril_mutex_unlock@plt>
    26d5:	8b 5e 2c             	mov    0x2c(%esi),%ebx
    26d8:	83 c4 10             	add    $0x10,%esp
    26db:	85 db                	test   %ebx,%ebx
    26dd:	0f 84 a5 04 00 00    	je     2b88 <block_get+0x538>
    26e3:	8b 43 14             	mov    0x14(%ebx),%eax
    26e6:	8b 4d e4             	mov    -0x1c(%ebp),%ecx
    26e9:	89 45 d8             	mov    %eax,-0x28(%ebp)
    26ec:	31 d2                	xor    %edx,%edx
    26ee:	0f af c8             	imul   %eax,%ecx
    26f1:	8b 45 d8             	mov    -0x28(%ebp),%eax
    26f4:	89 55 dc             	mov    %edx,-0x24(%ebp)
    26f7:	f7 65 e0             	mull   -0x20(%ebp)
    26fa:	01 ca                	add    %ecx,%edx
    26fc:	03 45 d8             	add    -0x28(%ebp),%eax
    26ff:	13 55 dc             	adc    -0x24(%ebp),%edx
    2702:	3b 56 24             	cmp    0x24(%esi),%edx
    2705:	76 19                	jbe    2720 <block_get+0xd0>
    2707:	c7 45 d8 f6 fe ff ff 	movl   $0xfffffef6,-0x28(%ebp)
    270e:	8b 45 d8             	mov    -0x28(%ebp),%eax
    2711:	8d 65 f4             	lea    -0xc(%ebp),%esp
    2714:	5b                   	pop    %ebx
    2715:	5e                   	pop    %esi
    2716:	5f                   	pop    %edi
    2717:	5d                   	pop    %ebp
    2718:	c3                   	ret    
    2719:	8d b4 26 00 00 00 00 	lea    0x0(%esi,%eiz,1),%esi
    2720:	0f 83 f2 01 00 00    	jae    2918 <block_get+0x2c8>
    2726:	8d 43 20             	lea    0x20(%ebx),%eax
    2729:	89 75 c8             	mov    %esi,-0x38(%ebp)
    272c:	89 45 d0             	mov    %eax,-0x30(%ebp)
    272f:	8d 43 3c             	lea    0x3c(%ebx),%eax
    2732:	89 45 d8             	mov    %eax,-0x28(%ebp)
    2735:	8d 76 00             	lea    0x0(%esi),%esi
    2738:	83 ec 0c             	sub    $0xc,%esp
    273b:	53                   	push   %ebx
    273c:	e8 bf 4e 00 00       	call   7600 <fibril_mutex_lock@plt>
    2741:	58                   	pop    %eax
    2742:	8b 4d d0             	mov    -0x30(%ebp),%ecx
    2745:	8d 45 e0             	lea    -0x20(%ebp),%eax
    2748:	5a                   	pop    %edx
    2749:	50                   	push   %eax
    274a:	51                   	push   %ecx
    274b:	e8 f0 4d 00 00       	call   7540 <hash_table_find@plt>
    2750:	83 c4 10             	add    $0x10,%esp
    2753:	85 c0                	test   %eax,%eax
    2755:	0f 85 cd 01 00 00    	jne    2928 <block_get+0x2d8>
    275b:	83 7b 1c 09          	cmpl   $0x9,0x1c(%ebx)
    275f:	0f 86 d3 00 00 00    	jbe    2838 <block_get+0x1e8>
    2765:	8b 73 40             	mov    0x40(%ebx),%esi
    2768:	3b 75 d8             	cmp    -0x28(%ebp),%esi
    276b:	0f 84 c7 00 00 00    	je     2838 <block_get+0x1e8>
    2771:	83 ec 0c             	sub    $0xc,%esp
    2774:	8d 7e b8             	lea    -0x48(%esi),%edi
    2777:	57                   	push   %edi
    2778:	e8 83 4e 00 00       	call   7600 <fibril_mutex_lock@plt>
    277d:	83 c4 10             	add    $0x10,%esp
    2780:	80 7f 14 00          	cmpb   $0x0,0x14(%edi)
    2784:	0f 84 1e 02 00 00    	je     29a8 <block_get+0x358>
    278a:	8b 4f 48             	mov    0x48(%edi),%ecx
    278d:	85 c9                	test   %ecx,%ecx
    278f:	74 0f                	je     27a0 <block_get+0x150>
    2791:	8b 47 4c             	mov    0x4c(%edi),%eax
    2794:	85 c0                	test   %eax,%eax
    2796:	74 08                	je     27a0 <block_get+0x150>
    2798:	89 08                	mov    %ecx,(%eax)
    279a:	8b 4f 48             	mov    0x48(%edi),%ecx
    279d:	89 41 04             	mov    %eax,0x4(%ecx)
    27a0:	c7 47 48 00 00 00 00 	movl   $0x0,0x48(%edi)
    27a7:	8b 45 d8             	mov    -0x28(%ebp),%eax
    27aa:	89 47 4c             	mov    %eax,0x4c(%edi)
    27ad:	8b 43 3c             	mov    0x3c(%ebx),%eax
    27b0:	89 47 48             	mov    %eax,0x48(%edi)
    27b3:	83 ec 0c             	sub    $0xc,%esp
    27b6:	8b 43 3c             	mov    0x3c(%ebx),%eax
    27b9:	89 70 04             	mov    %esi,0x4(%eax)
    27bc:	89 73 3c             	mov    %esi,0x3c(%ebx)
    27bf:	53                   	push   %ebx
    27c0:	e8 4b 4c 00 00       	call   7410 <fibril_mutex_unlock@plt>
    27c5:	83 c4 08             	add    $0x8,%esp
    27c8:	8b 77 40             	mov    0x40(%edi),%esi
    27cb:	8b 4b 14             	mov    0x14(%ebx),%ecx
    27ce:	8b 47 38             	mov    0x38(%edi),%eax
    27d1:	8b 57 3c             	mov    0x3c(%edi),%edx
    27d4:	56                   	push   %esi
    27d5:	8b 77 58             	mov    0x58(%edi),%esi
    27d8:	89 45 c0             	mov    %eax,-0x40(%ebp)
    27db:	56                   	push   %esi
    27dc:	51                   	push   %ecx
    27dd:	52                   	push   %edx
    27de:	50                   	push   %eax
    27df:	8b 45 c8             	mov    -0x38(%ebp),%eax
    27e2:	89 4d d4             	mov    %ecx,-0x2c(%ebp)
    27e5:	89 55 c4             	mov    %edx,-0x3c(%ebp)
    27e8:	8b 40 10             	mov    0x10(%eax),%eax
    27eb:	50                   	push   %eax
    27ec:	e8 7f 4a 00 00       	call   7270 <bd_write_blocks@plt>
    27f1:	83 c4 20             	add    $0x20,%esp
    27f4:	89 c6                	mov    %eax,%esi
    27f6:	85 c0                	test   %eax,%eax
    27f8:	8b 4d d4             	mov    -0x2c(%ebp),%ecx
    27fb:	0f 85 a7 00 00 00    	jne    28a8 <block_get+0x258>
    2801:	c7 47 44 00 00 00 00 	movl   $0x0,0x44(%edi)
    2808:	83 ec 0c             	sub    $0xc,%esp
    280b:	c6 47 14 00          	movb   $0x0,0x14(%edi)
    280f:	53                   	push   %ebx
    2810:	e8 6b 4b 00 00       	call   7380 <fibril_mutex_trylock@plt>
    2815:	83 c4 10             	add    $0x10,%esp
    2818:	84 c0                	test   %al,%al
    281a:	0f 85 b7 02 00 00    	jne    2ad7 <block_get+0x487>
    2820:	83 ec 0c             	sub    $0xc,%esp
    2823:	57                   	push   %edi
    2824:	e8 e7 4b 00 00       	call   7410 <fibril_mutex_unlock@plt>
    2829:	83 c4 10             	add    $0x10,%esp
    282c:	e9 07 ff ff ff       	jmp    2738 <block_get+0xe8>
    2831:	8d b4 26 00 00 00 00 	lea    0x0(%esi,%eiz,1),%esi
    2838:	83 ec 0c             	sub    $0xc,%esp
    283b:	6a 5c                	push   $0x5c
    283d:	e8 8e 4a 00 00       	call   72d0 <malloc@plt>
    2842:	83 c4 10             	add    $0x10,%esp
    2845:	89 c7                	mov    %eax,%edi
    2847:	85 c0                	test   %eax,%eax
    2849:	74 26                	je     2871 <block_get+0x221>
    284b:	83 ec 0c             	sub    $0xc,%esp
    284e:	8b 43 10             	mov    0x10(%ebx),%eax
    2851:	50                   	push   %eax
    2852:	e8 79 4a 00 00       	call   72d0 <malloc@plt>
    2857:	83 c4 10             	add    $0x10,%esp
    285a:	89 47 58             	mov    %eax,0x58(%edi)
    285d:	85 c0                	test   %eax,%eax
    285f:	0f 85 14 03 00 00    	jne    2b79 <block_get+0x529>
    2865:	83 ec 0c             	sub    $0xc,%esp
    2868:	57                   	push   %edi
    2869:	e8 82 4d 00 00       	call   75f0 <free@plt>
    286e:	83 c4 10             	add    $0x10,%esp
    2871:	8b 73 40             	mov    0x40(%ebx),%esi
    2874:	3b 75 d8             	cmp    -0x28(%ebp),%esi
    2877:	0f 85 f4 fe ff ff    	jne    2771 <block_get+0x121>
    287d:	83 ec 0c             	sub    $0xc,%esp
    2880:	31 ff                	xor    %edi,%edi
    2882:	53                   	push   %ebx
    2883:	e8 88 4b 00 00       	call   7410 <fibril_mutex_unlock@plt>
    2888:	83 c4 10             	add    $0x10,%esp
    288b:	c7 45 d8 fe ff ff ff 	movl   $0xfffffffe,-0x28(%ebp)
    2892:	8b 45 08             	mov    0x8(%ebp),%eax
    2895:	89 38                	mov    %edi,(%eax)
    2897:	8b 45 d8             	mov    -0x28(%ebp),%eax
    289a:	8d 65 f4             	lea    -0xc(%ebp),%esp
    289d:	5b                   	pop    %ebx
    289e:	5e                   	pop    %esi
    289f:	5f                   	pop    %edi
    28a0:	5d                   	pop    %ebp
    28a1:	c3                   	ret    
    28a2:	8d b6 00 00 00 00    	lea    0x0(%esi),%esi
    28a8:	50                   	push   %eax
    28a9:	50                   	push   %eax
    28aa:	8b 45 c8             	mov    -0x38(%ebp),%eax
    28ad:	8b 55 c0             	mov    -0x40(%ebp),%edx
    28b0:	8b 40 08             	mov    0x8(%eax),%eax
    28b3:	50                   	push   %eax
    28b4:	8b 45 c4             	mov    -0x3c(%ebp),%eax
    28b7:	50                   	push   %eax
    28b8:	52                   	push   %edx
    28b9:	51                   	push   %ecx
    28ba:	56                   	push   %esi
    28bb:	68 d4 6c 00 00       	push   $0x6cd4
    28c0:	e8 2b 49 00 00       	call   71f0 <printf@plt>
    28c5:	83 c4 20             	add    $0x20,%esp
    28c8:	e8 63 4a 00 00       	call   7330 <stacktrace_print@plt>
    28cd:	8b 47 44             	mov    0x44(%edi),%eax
    28d0:	83 f8 09             	cmp    $0x9,%eax
    28d3:	7f 1b                	jg     28f0 <block_get+0x2a0>
    28d5:	83 ec 0c             	sub    $0xc,%esp
    28d8:	40                   	inc    %eax
    28d9:	89 47 44             	mov    %eax,0x44(%edi)
    28dc:	57                   	push   %edi
    28dd:	e8 2e 4b 00 00       	call   7410 <fibril_mutex_unlock@plt>
    28e2:	83 c4 10             	add    $0x10,%esp
    28e5:	e9 4e fe ff ff       	jmp    2738 <block_get+0xe8>
    28ea:	8d b6 00 00 00 00    	lea    0x0(%esi),%esi
    28f0:	8b 45 c8             	mov    -0x38(%ebp),%eax
    28f3:	8b 40 08             	mov    0x8(%eax),%eax
    28f6:	50                   	push   %eax
    28f7:	8b 47 34             	mov    0x34(%edi),%eax
    28fa:	50                   	push   %eax
    28fb:	8b 47 30             	mov    0x30(%edi),%eax
    28fe:	50                   	push   %eax
    28ff:	68 1c 6d 00 00       	push   $0x6d1c
    2904:	e8 e7 48 00 00       	call   71f0 <printf@plt>
    2909:	83 c4 10             	add    $0x10,%esp
    290c:	e9 f7 fe ff ff       	jmp    2808 <block_get+0x1b8>
    2911:	8d b4 26 00 00 00 00 	lea    0x0(%esi,%eiz,1),%esi
    2918:	3b 46 20             	cmp    0x20(%esi),%eax
    291b:	0f 83 e6 fd ff ff    	jae    2707 <block_get+0xb7>
    2921:	e9 00 fe ff ff       	jmp    2726 <block_get+0xd6>
    2926:	66 90                	xchg   %ax,%ax
    2928:	c7 45 d8 00 00 00 00 	movl   $0x0,-0x28(%ebp)
    292f:	8d 78 b0             	lea    -0x50(%eax),%edi
    2932:	83 ec 0c             	sub    $0xc,%esp
    2935:	57                   	push   %edi
    2936:	e8 c5 4c 00 00       	call   7600 <fibril_mutex_lock@plt>
    293b:	8b 47 10             	mov    0x10(%edi),%eax
    293e:	83 c4 10             	add    $0x10,%esp
    2941:	85 c0                	test   %eax,%eax
    2943:	8d 50 01             	lea    0x1(%eax),%edx
    2946:	89 57 10             	mov    %edx,0x10(%edi)
    2949:	75 24                	jne    296f <block_get+0x31f>
    294b:	8b 57 48             	mov    0x48(%edi),%edx
    294e:	85 d2                	test   %edx,%edx
    2950:	74 0f                	je     2961 <block_get+0x311>
    2952:	8b 47 4c             	mov    0x4c(%edi),%eax
    2955:	85 c0                	test   %eax,%eax
    2957:	74 08                	je     2961 <block_get+0x311>
    2959:	89 10                	mov    %edx,(%eax)
    295b:	8b 57 48             	mov    0x48(%edi),%edx
    295e:	89 42 04             	mov    %eax,0x4(%edx)
    2961:	c7 47 48 00 00 00 00 	movl   $0x0,0x48(%edi)
    2968:	c7 47 4c 00 00 00 00 	movl   $0x0,0x4c(%edi)
    296f:	8a 47 15             	mov    0x15(%edi),%al
    2972:	84 c0                	test   %al,%al
    2974:	0f 85 51 01 00 00    	jne    2acb <block_get+0x47b>
    297a:	8b 45 d8             	mov    -0x28(%ebp),%eax
    297d:	85 c0                	test   %eax,%eax
    297f:	0f 95 c0             	setne  %al
    2982:	83 ec 0c             	sub    $0xc,%esp
    2985:	88 45 d4             	mov    %al,-0x2c(%ebp)
    2988:	57                   	push   %edi
    2989:	e8 82 4a 00 00       	call   7410 <fibril_mutex_unlock@plt>
    298e:	89 1c 24             	mov    %ebx,(%esp)
    2991:	e8 7a 4a 00 00       	call   7410 <fibril_mutex_unlock@plt>
    2996:	83 c4 10             	add    $0x10,%esp
    2999:	8a 45 d4             	mov    -0x2c(%ebp),%al
    299c:	e9 05 01 00 00       	jmp    2aa6 <block_get+0x456>
    29a1:	8d b4 26 00 00 00 00 	lea    0x0(%esi,%eiz,1),%esi
    29a8:	8b 75 c8             	mov    -0x38(%ebp),%esi
    29ab:	83 ec 0c             	sub    $0xc,%esp
    29ae:	57                   	push   %edi
    29af:	e8 5c 4a 00 00       	call   7410 <fibril_mutex_unlock@plt>
    29b4:	8b 57 48             	mov    0x48(%edi),%edx
    29b7:	83 c4 10             	add    $0x10,%esp
    29ba:	85 d2                	test   %edx,%edx
    29bc:	74 0f                	je     29cd <block_get+0x37d>
    29be:	8b 47 4c             	mov    0x4c(%edi),%eax
    29c1:	85 c0                	test   %eax,%eax
    29c3:	74 08                	je     29cd <block_get+0x37d>
    29c5:	89 10                	mov    %edx,(%eax)
    29c7:	8b 57 48             	mov    0x48(%edi),%edx
    29ca:	89 42 04             	mov    %eax,0x4(%edx)
    29cd:	c7 47 48 00 00 00 00 	movl   $0x0,0x48(%edi)
    29d4:	c7 47 4c 00 00 00 00 	movl   $0x0,0x4c(%edi)
    29db:	50                   	push   %eax
    29dc:	50                   	push   %eax
    29dd:	8d 47 50             	lea    0x50(%edi),%eax
    29e0:	50                   	push   %eax
    29e1:	8b 45 d0             	mov    -0x30(%ebp),%eax
    29e4:	50                   	push   %eax
    29e5:	e8 96 4a 00 00       	call   7480 <hash_table_remove_item@plt>
    29ea:	83 c4 10             	add    $0x10,%esp
    29ed:	83 ec 0c             	sub    $0xc,%esp
    29f0:	57                   	push   %edi
    29f1:	e8 3a 4a 00 00       	call   7430 <fibril_mutex_initialize@plt>
    29f6:	8d 47 18             	lea    0x18(%edi),%eax
    29f9:	c7 47 10 01 00 00 00 	movl   $0x1,0x10(%edi)
    2a00:	c7 47 44 00 00 00 00 	movl   $0x0,0x44(%edi)
    2a07:	c6 47 14 00          	movb   $0x0,0x14(%edi)
    2a0b:	c6 47 15 00          	movb   $0x0,0x15(%edi)
    2a0f:	89 04 24             	mov    %eax,(%esp)
    2a12:	e8 39 4b 00 00       	call   7550 <fibril_rwlock_initialize@plt>
    2a17:	8b 45 0c             	mov    0xc(%ebp),%eax
    2a1a:	89 47 2c             	mov    %eax,0x2c(%edi)
    2a1d:	8b 43 10             	mov    0x10(%ebx),%eax
    2a20:	89 47 40             	mov    %eax,0x40(%edi)
    2a23:	8b 45 e0             	mov    -0x20(%ebp),%eax
    2a26:	89 45 d8             	mov    %eax,-0x28(%ebp)
    2a29:	8b 4d e4             	mov    -0x1c(%ebp),%ecx
    2a2c:	89 47 30             	mov    %eax,0x30(%edi)
    2a2f:	8b 46 2c             	mov    0x2c(%esi),%eax
    2a32:	83 c4 10             	add    $0x10,%esp
    2a35:	c7 47 48 00 00 00 00 	movl   $0x0,0x48(%edi)
    2a3c:	c7 47 4c 00 00 00 00 	movl   $0x0,0x4c(%edi)
    2a43:	89 4f 34             	mov    %ecx,0x34(%edi)
    2a46:	85 c0                	test   %eax,%eax
    2a48:	0f 84 4f 01 00 00    	je     2b9d <block_get+0x54d>
    2a4e:	8b 40 14             	mov    0x14(%eax),%eax
    2a51:	0f af c8             	imul   %eax,%ecx
    2a54:	f7 65 d8             	mull   -0x28(%ebp)
    2a57:	01 ca                	add    %ecx,%edx
    2a59:	89 47 38             	mov    %eax,0x38(%edi)
    2a5c:	89 57 3c             	mov    %edx,0x3c(%edi)
    2a5f:	50                   	push   %eax
    2a60:	50                   	push   %eax
    2a61:	8d 47 50             	lea    0x50(%edi),%eax
    2a64:	50                   	push   %eax
    2a65:	8b 45 d0             	mov    -0x30(%ebp),%eax
    2a68:	50                   	push   %eax
    2a69:	e8 d2 47 00 00       	call   7240 <hash_table_insert@plt>
    2a6e:	89 3c 24             	mov    %edi,(%esp)
    2a71:	e8 8a 4b 00 00       	call   7600 <fibril_mutex_lock@plt>
    2a76:	89 1c 24             	mov    %ebx,(%esp)
    2a79:	e8 92 49 00 00       	call   7410 <fibril_mutex_unlock@plt>
    2a7e:	83 c4 10             	add    $0x10,%esp
    2a81:	f6 45 18 01          	testb  $0x1,0x18(%ebp)
    2a85:	0f 84 83 00 00 00    	je     2b0e <block_get+0x4be>
    2a8b:	31 c0                	xor    %eax,%eax
    2a8d:	c7 45 d8 00 00 00 00 	movl   $0x0,-0x28(%ebp)
    2a94:	83 ec 0c             	sub    $0xc,%esp
    2a97:	88 45 d4             	mov    %al,-0x2c(%ebp)
    2a9a:	57                   	push   %edi
    2a9b:	e8 70 49 00 00       	call   7410 <fibril_mutex_unlock@plt>
    2aa0:	83 c4 10             	add    $0x10,%esp
    2aa3:	8a 45 d4             	mov    -0x2c(%ebp),%al
    2aa6:	84 c0                	test   %al,%al
    2aa8:	0f 84 e4 fd ff ff    	je     2892 <block_get+0x242>
    2aae:	80 7f 15 00          	cmpb   $0x0,0x15(%edi)
    2ab2:	0f 84 fa 00 00 00    	je     2bb2 <block_get+0x562>
    2ab8:	83 ec 0c             	sub    $0xc,%esp
    2abb:	57                   	push   %edi
    2abc:	31 ff                	xor    %edi,%edi
    2abe:	e8 8d f8 ff ff       	call   2350 <block_put>
    2ac3:	83 c4 10             	add    $0x10,%esp
    2ac6:	e9 c7 fd ff ff       	jmp    2892 <block_get+0x242>
    2acb:	c7 45 d8 f6 fe ff ff 	movl   $0xfffffef6,-0x28(%ebp)
    2ad2:	e9 ab fe ff ff       	jmp    2982 <block_get+0x332>
    2ad7:	8d 45 e0             	lea    -0x20(%ebp),%eax
    2ada:	8b 4d d0             	mov    -0x30(%ebp),%ecx
    2add:	89 75 d8             	mov    %esi,-0x28(%ebp)
    2ae0:	8b 75 c8             	mov    -0x38(%ebp),%esi
    2ae3:	52                   	push   %edx
    2ae4:	52                   	push   %edx
    2ae5:	50                   	push   %eax
    2ae6:	51                   	push   %ecx
    2ae7:	e8 54 4a 00 00       	call   7540 <hash_table_find@plt>
    2aec:	83 c4 10             	add    $0x10,%esp
    2aef:	89 45 d4             	mov    %eax,-0x2c(%ebp)
    2af2:	85 c0                	test   %eax,%eax
    2af4:	0f 84 b1 fe ff ff    	je     29ab <block_get+0x35b>
    2afa:	83 ec 0c             	sub    $0xc,%esp
    2afd:	57                   	push   %edi
    2afe:	e8 0d 49 00 00       	call   7410 <fibril_mutex_unlock@plt>
    2b03:	83 c4 10             	add    $0x10,%esp
    2b06:	8b 45 d4             	mov    -0x2c(%ebp),%eax
    2b09:	e9 21 fe ff ff       	jmp    292f <block_get+0x2df>
    2b0e:	83 ec 08             	sub    $0x8,%esp
    2b11:	8b 4b 14             	mov    0x14(%ebx),%ecx
    2b14:	8b 5b 10             	mov    0x10(%ebx),%ebx
    2b17:	8b 47 38             	mov    0x38(%edi),%eax
    2b1a:	8b 57 3c             	mov    0x3c(%edi),%edx
    2b1d:	53                   	push   %ebx
    2b1e:	8b 5f 58             	mov    0x58(%edi),%ebx
    2b21:	89 45 c8             	mov    %eax,-0x38(%ebp)
    2b24:	53                   	push   %ebx
    2b25:	51                   	push   %ecx
    2b26:	52                   	push   %edx
    2b27:	50                   	push   %eax
    2b28:	8b 46 10             	mov    0x10(%esi),%eax
    2b2b:	89 55 cc             	mov    %edx,-0x34(%ebp)
    2b2e:	89 4d d4             	mov    %ecx,-0x2c(%ebp)
    2b31:	50                   	push   %eax
    2b32:	e8 39 48 00 00       	call   7370 <bd_read_blocks@plt>
    2b37:	83 c4 20             	add    $0x20,%esp
    2b3a:	89 c2                	mov    %eax,%edx
    2b3c:	89 45 d8             	mov    %eax,-0x28(%ebp)
    2b3f:	8b 4d d4             	mov    -0x2c(%ebp),%ecx
    2b42:	31 c0                	xor    %eax,%eax
    2b44:	85 d2                	test   %edx,%edx
    2b46:	0f 84 48 ff ff ff    	je     2a94 <block_get+0x444>
    2b4c:	53                   	push   %ebx
    2b4d:	53                   	push   %ebx
    2b4e:	8b 76 08             	mov    0x8(%esi),%esi
    2b51:	8b 45 cc             	mov    -0x34(%ebp),%eax
    2b54:	56                   	push   %esi
    2b55:	50                   	push   %eax
    2b56:	8b 45 c8             	mov    -0x38(%ebp),%eax
    2b59:	50                   	push   %eax
    2b5a:	51                   	push   %ecx
    2b5b:	52                   	push   %edx
    2b5c:	68 88 6c 00 00       	push   $0x6c88
    2b61:	e8 8a 46 00 00       	call   71f0 <printf@plt>
    2b66:	83 c4 20             	add    $0x20,%esp
    2b69:	e8 c2 47 00 00       	call   7330 <stacktrace_print@plt>
    2b6e:	c6 47 15 01          	movb   $0x1,0x15(%edi)
    2b72:	b0 01                	mov    $0x1,%al
    2b74:	e9 1b ff ff ff       	jmp    2a94 <block_get+0x444>
    2b79:	8b 43 1c             	mov    0x1c(%ebx),%eax
    2b7c:	8b 75 c8             	mov    -0x38(%ebp),%esi
    2b7f:	40                   	inc    %eax
    2b80:	89 43 1c             	mov    %eax,0x1c(%ebx)
    2b83:	e9 65 fe ff ff       	jmp    29ed <block_get+0x39d>
    2b88:	53                   	push   %ebx
    2b89:	68 8b 01 00 00       	push   $0x18b
    2b8e:	68 37 6c 00 00       	push   $0x6c37
    2b93:	68 46 6c 00 00       	push   $0x6c46
    2b98:	e8 03 48 00 00       	call   73a0 <assert_abort@plt>
    2b9d:	50                   	push   %eax
    2b9e:	68 c6 03 00 00       	push   $0x3c6
    2ba3:	68 37 6c 00 00       	push   $0x6c37
    2ba8:	68 67 6c 00 00       	push   $0x6c67
    2bad:	e8 ee 47 00 00       	call   73a0 <assert_abort@plt>
    2bb2:	50                   	push   %eax
    2bb3:	68 34 02 00 00       	push   $0x234
    2bb8:	68 37 6c 00 00       	push   $0x6c37
    2bbd:	68 7d 6c 00 00       	push   $0x6c7d
    2bc2:	e8 d9 47 00 00       	call   73a0 <assert_abort@plt>
    2bc7:	89 f6                	mov    %esi,%esi
    2bc9:	8d bc 27 00 00 00 00 	lea    0x0(%edi,%eiz,1),%edi

00002bd0 <block_seqread>:
    2bd0:	55                   	push   %ebp
    2bd1:	89 e5                	mov    %esp,%ebp
    2bd3:	57                   	push   %edi
    2bd4:	56                   	push   %esi
    2bd5:	53                   	push   %ebx
    2bd6:	83 ec 38             	sub    $0x38,%esp
    2bd9:	8b 4d 20             	mov    0x20(%ebp),%ecx
    2bdc:	8b 75 08             	mov    0x8(%ebp),%esi
    2bdf:	68 98 91 00 00       	push   $0x9198
    2be4:	89 4d e4             	mov    %ecx,-0x1c(%ebp)
    2be7:	e8 14 4a 00 00       	call   7600 <fibril_mutex_lock@plt>
    2bec:	8b 1d 94 91 00 00    	mov    0x9194,%ebx
    2bf2:	83 c4 10             	add    $0x10,%esp
    2bf5:	81 fb 90 91 00 00    	cmp    $0x9190,%ebx
    2bfb:	74 1b                	je     2c18 <block_seqread+0x48>
    2bfd:	3b 73 08             	cmp    0x8(%ebx),%esi
    2c00:	8b 4d e4             	mov    -0x1c(%ebp),%ecx
    2c03:	75 08                	jne    2c0d <block_seqread+0x3d>
    2c05:	eb 39                	jmp    2c40 <block_seqread+0x70>
    2c07:	90                   	nop
    2c08:	3b 73 08             	cmp    0x8(%ebx),%esi
    2c0b:	74 33                	je     2c40 <block_seqread+0x70>
    2c0d:	8b 5b 04             	mov    0x4(%ebx),%ebx
    2c10:	81 fb 90 91 00 00    	cmp    $0x9190,%ebx
    2c16:	75 f0                	jne    2c08 <block_seqread+0x38>
    2c18:	83 ec 0c             	sub    $0xc,%esp
    2c1b:	68 98 91 00 00       	push   $0x9198
    2c20:	e8 eb 47 00 00       	call   7410 <fibril_mutex_unlock@plt>
    2c25:	83 c4 0c             	add    $0xc,%esp
    2c28:	68 c6 02 00 00       	push   $0x2c6
    2c2d:	68 37 6c 00 00       	push   $0x6c37
    2c32:	68 3f 6c 00 00       	push   $0x6c3f
    2c37:	e8 64 47 00 00       	call   73a0 <assert_abort@plt>
    2c3c:	8d 74 26 00          	lea    0x0(%esi,%eiz,1),%esi
    2c40:	83 ec 0c             	sub    $0xc,%esp
    2c43:	89 4d e4             	mov    %ecx,-0x1c(%ebp)
    2c46:	68 98 91 00 00       	push   $0x9198
    2c4b:	e8 c0 47 00 00       	call   7410 <fibril_mutex_unlock@plt>
    2c50:	8b 43 28             	mov    0x28(%ebx),%eax
    2c53:	8b 4d e4             	mov    -0x1c(%ebp),%ecx
    2c56:	83 c4 10             	add    $0x10,%esp
    2c59:	89 45 d8             	mov    %eax,-0x28(%ebp)
    2c5c:	85 c9                	test   %ecx,%ecx
    2c5e:	0f 84 e0 00 00 00    	je     2d44 <block_seqread+0x174>
    2c64:	89 c6                	mov    %eax,%esi
    2c66:	8b 45 14             	mov    0x14(%ebp),%eax
    2c69:	89 5d dc             	mov    %ebx,-0x24(%ebp)
    2c6c:	c7 45 e4 00 00 00 00 	movl   $0x0,-0x1c(%ebp)
    2c73:	8b 00                	mov    (%eax),%eax
    2c75:	89 75 d0             	mov    %esi,-0x30(%ebp)
    2c78:	c7 45 d4 00 00 00 00 	movl   $0x0,-0x2c(%ebp)
    2c7f:	8b 5d 10             	mov    0x10(%ebp),%ebx
    2c82:	eb 1a                	jmp    2c9e <block_seqread+0xce>
    2c84:	8d 74 26 00          	lea    0x0(%esi,%eiz,1),%esi
    2c88:	89 c2                	mov    %eax,%edx
    2c8a:	29 fa                	sub    %edi,%edx
    2c8c:	0f 85 f0 00 00 00    	jne    2d82 <block_seqread+0x1b2>
    2c92:	39 c7                	cmp    %eax,%edi
    2c94:	74 56                	je     2cec <block_seqread+0x11c>
    2c96:	85 c9                	test   %ecx,%ecx
    2c98:	0f 84 a6 00 00 00    	je     2d44 <block_seqread+0x174>
    2c9e:	8b 3b                	mov    (%ebx),%edi
    2ca0:	8d 14 0f             	lea    (%edi,%ecx,1),%edx
    2ca3:	39 c2                	cmp    %eax,%edx
    2ca5:	73 e1                	jae    2c88 <block_seqread+0xb8>
    2ca7:	31 f6                	xor    %esi,%esi
    2ca9:	50                   	push   %eax
    2caa:	8b 45 0c             	mov    0xc(%ebp),%eax
    2cad:	01 c7                	add    %eax,%edi
    2caf:	51                   	push   %ecx
    2cb0:	8b 45 1c             	mov    0x1c(%ebp),%eax
    2cb3:	57                   	push   %edi
    2cb4:	8b 7d e4             	mov    -0x1c(%ebp),%edi
    2cb7:	89 4d e0             	mov    %ecx,-0x20(%ebp)
    2cba:	01 f8                	add    %edi,%eax
    2cbc:	50                   	push   %eax
    2cbd:	e8 ee 45 00 00       	call   72b0 <memcpy@plt>
    2cc2:	8b 4d e0             	mov    -0x20(%ebp),%ecx
    2cc5:	89 f8                	mov    %edi,%eax
    2cc7:	01 c8                	add    %ecx,%eax
    2cc9:	8b 3b                	mov    (%ebx),%edi
    2ccb:	01 cf                	add    %ecx,%edi
    2ccd:	89 45 e4             	mov    %eax,-0x1c(%ebp)
    2cd0:	89 c8                	mov    %ecx,%eax
    2cd2:	8b 4d 18             	mov    0x18(%ebp),%ecx
    2cd5:	89 3b                	mov    %edi,(%ebx)
    2cd7:	31 d2                	xor    %edx,%edx
    2cd9:	01 01                	add    %eax,(%ecx)
    2cdb:	8b 45 14             	mov    0x14(%ebp),%eax
    2cde:	11 51 04             	adc    %edx,0x4(%ecx)
    2ce1:	8b 00                	mov    (%eax),%eax
    2ce3:	83 c4 10             	add    $0x10,%esp
    2ce6:	89 f1                	mov    %esi,%ecx
    2ce8:	39 c7                	cmp    %eax,%edi
    2cea:	75 aa                	jne    2c96 <block_seqread+0xc6>
    2cec:	8b 45 18             	mov    0x18(%ebp),%eax
    2cef:	8b 75 d4             	mov    -0x2c(%ebp),%esi
    2cf2:	8b 7d d0             	mov    -0x30(%ebp),%edi
    2cf5:	56                   	push   %esi
    2cf6:	57                   	push   %edi
    2cf7:	89 4d e0             	mov    %ecx,-0x20(%ebp)
    2cfa:	8b 50 04             	mov    0x4(%eax),%edx
    2cfd:	52                   	push   %edx
    2cfe:	8b 08                	mov    (%eax),%ecx
    2d00:	51                   	push   %ecx
    2d01:	e8 5a 46 00 00       	call   7360 <__udivdi3@plt>
    2d06:	5e                   	pop    %esi
    2d07:	89 c6                	mov    %eax,%esi
    2d09:	8b 45 dc             	mov    -0x24(%ebp),%eax
    2d0c:	5f                   	pop    %edi
    2d0d:	8b 4d 0c             	mov    0xc(%ebp),%ecx
    2d10:	89 d7                	mov    %edx,%edi
    2d12:	8b 50 28             	mov    0x28(%eax),%edx
    2d15:	52                   	push   %edx
    2d16:	51                   	push   %ecx
    2d17:	8b 40 10             	mov    0x10(%eax),%eax
    2d1a:	6a 01                	push   $0x1
    2d1c:	57                   	push   %edi
    2d1d:	56                   	push   %esi
    2d1e:	50                   	push   %eax
    2d1f:	e8 4c 46 00 00       	call   7370 <bd_read_blocks@plt>
    2d24:	83 c4 20             	add    $0x20,%esp
    2d27:	8b 4d e0             	mov    -0x20(%ebp),%ecx
    2d2a:	85 c0                	test   %eax,%eax
    2d2c:	75 22                	jne    2d50 <block_seqread+0x180>
    2d2e:	8b 75 14             	mov    0x14(%ebp),%esi
    2d31:	8b 45 d8             	mov    -0x28(%ebp),%eax
    2d34:	c7 03 00 00 00 00    	movl   $0x0,(%ebx)
    2d3a:	85 c9                	test   %ecx,%ecx
    2d3c:	89 06                	mov    %eax,(%esi)
    2d3e:	0f 85 5a ff ff ff    	jne    2c9e <block_seqread+0xce>
    2d44:	8d 65 f4             	lea    -0xc(%ebp),%esp
    2d47:	31 d2                	xor    %edx,%edx
    2d49:	89 d0                	mov    %edx,%eax
    2d4b:	5b                   	pop    %ebx
    2d4c:	5e                   	pop    %esi
    2d4d:	5f                   	pop    %edi
    2d4e:	5d                   	pop    %ebp
    2d4f:	c3                   	ret    
    2d50:	8b 5d dc             	mov    -0x24(%ebp),%ebx
    2d53:	89 c2                	mov    %eax,%edx
    2d55:	50                   	push   %eax
    2d56:	50                   	push   %eax
    2d57:	8b 4b 08             	mov    0x8(%ebx),%ecx
    2d5a:	89 55 e4             	mov    %edx,-0x1c(%ebp)
    2d5d:	51                   	push   %ecx
    2d5e:	57                   	push   %edi
    2d5f:	56                   	push   %esi
    2d60:	6a 01                	push   $0x1
    2d62:	52                   	push   %edx
    2d63:	68 88 6c 00 00       	push   $0x6c88
    2d68:	e8 83 44 00 00       	call   71f0 <printf@plt>
    2d6d:	83 c4 20             	add    $0x20,%esp
    2d70:	e8 bb 45 00 00       	call   7330 <stacktrace_print@plt>
    2d75:	8b 55 e4             	mov    -0x1c(%ebp),%edx
    2d78:	8d 65 f4             	lea    -0xc(%ebp),%esp
    2d7b:	89 d0                	mov    %edx,%eax
    2d7d:	5b                   	pop    %ebx
    2d7e:	5e                   	pop    %esi
    2d7f:	5f                   	pop    %edi
    2d80:	5d                   	pop    %ebp
    2d81:	c3                   	ret    
    2d82:	89 ce                	mov    %ecx,%esi
    2d84:	89 d1                	mov    %edx,%ecx
    2d86:	29 d6                	sub    %edx,%esi
    2d88:	e9 1c ff ff ff       	jmp    2ca9 <block_seqread+0xd9>
    2d8d:	8d 76 00             	lea    0x0(%esi),%esi

00002d90 <block_read_direct>:
    2d90:	55                   	push   %ebp
    2d91:	89 e5                	mov    %esp,%ebp
    2d93:	57                   	push   %edi
    2d94:	56                   	push   %esi
    2d95:	53                   	push   %ebx
    2d96:	83 ec 28             	sub    $0x28,%esp
    2d99:	8b 45 08             	mov    0x8(%ebp),%eax
    2d9c:	8b 75 0c             	mov    0xc(%ebp),%esi
    2d9f:	68 98 91 00 00       	push   $0x9198
    2da4:	89 45 e4             	mov    %eax,-0x1c(%ebp)
    2da7:	8b 7d 10             	mov    0x10(%ebp),%edi
    2daa:	e8 51 48 00 00       	call   7600 <fibril_mutex_lock@plt>
    2daf:	8b 1d 94 91 00 00    	mov    0x9194,%ebx
    2db5:	83 c4 10             	add    $0x10,%esp
    2db8:	81 fb 90 91 00 00    	cmp    $0x9190,%ebx
    2dbe:	74 20                	je     2de0 <block_read_direct+0x50>
    2dc0:	8b 45 e4             	mov    -0x1c(%ebp),%eax
    2dc3:	3b 43 08             	cmp    0x8(%ebx),%eax
    2dc6:	75 0d                	jne    2dd5 <block_read_direct+0x45>
    2dc8:	eb 3e                	jmp    2e08 <block_read_direct+0x78>
    2dca:	8d b6 00 00 00 00    	lea    0x0(%esi),%esi
    2dd0:	3b 43 08             	cmp    0x8(%ebx),%eax
    2dd3:	74 33                	je     2e08 <block_read_direct+0x78>
    2dd5:	8b 5b 04             	mov    0x4(%ebx),%ebx
    2dd8:	81 fb 90 91 00 00    	cmp    $0x9190,%ebx
    2dde:	75 f0                	jne    2dd0 <block_read_direct+0x40>
    2de0:	83 ec 0c             	sub    $0xc,%esp
    2de3:	68 98 91 00 00       	push   $0x9198
    2de8:	e8 23 46 00 00       	call   7410 <fibril_mutex_unlock@plt>
    2ded:	83 c4 0c             	add    $0xc,%esp
    2df0:	68 fd 02 00 00       	push   $0x2fd
    2df5:	68 37 6c 00 00       	push   $0x6c37
    2dfa:	68 3f 6c 00 00       	push   $0x6c3f
    2dff:	e8 9c 45 00 00       	call   73a0 <assert_abort@plt>
    2e04:	8d 74 26 00          	lea    0x0(%esi,%eiz,1),%esi
    2e08:	83 ec 0c             	sub    $0xc,%esp
    2e0b:	68 98 91 00 00       	push   $0x9198
    2e10:	e8 fb 45 00 00       	call   7410 <fibril_mutex_unlock@plt>
    2e15:	58                   	pop    %eax
    2e16:	8b 4b 28             	mov    0x28(%ebx),%ecx
    2e19:	8b 45 14             	mov    0x14(%ebp),%eax
    2e1c:	5a                   	pop    %edx
    2e1d:	0f af c1             	imul   %ecx,%eax
    2e20:	50                   	push   %eax
    2e21:	8b 45 18             	mov    0x18(%ebp),%eax
    2e24:	50                   	push   %eax
    2e25:	8b 45 14             	mov    0x14(%ebp),%eax
    2e28:	50                   	push   %eax
    2e29:	8b 43 10             	mov    0x10(%ebx),%eax
    2e2c:	57                   	push   %edi
    2e2d:	56                   	push   %esi
    2e2e:	50                   	push   %eax
    2e2f:	e8 3c 45 00 00       	call   7370 <bd_read_blocks@plt>
    2e34:	83 c4 20             	add    $0x20,%esp
    2e37:	89 c1                	mov    %eax,%ecx
    2e39:	85 c0                	test   %eax,%eax
    2e3b:	74 25                	je     2e62 <block_read_direct+0xd2>
    2e3d:	50                   	push   %eax
    2e3e:	50                   	push   %eax
    2e3f:	8b 53 08             	mov    0x8(%ebx),%edx
    2e42:	8b 5d 14             	mov    0x14(%ebp),%ebx
    2e45:	52                   	push   %edx
    2e46:	57                   	push   %edi
    2e47:	56                   	push   %esi
    2e48:	53                   	push   %ebx
    2e49:	51                   	push   %ecx
    2e4a:	68 88 6c 00 00       	push   $0x6c88
    2e4f:	89 4d e4             	mov    %ecx,-0x1c(%ebp)
    2e52:	e8 99 43 00 00       	call   71f0 <printf@plt>
    2e57:	83 c4 20             	add    $0x20,%esp
    2e5a:	e8 d1 44 00 00       	call   7330 <stacktrace_print@plt>
    2e5f:	8b 4d e4             	mov    -0x1c(%ebp),%ecx
    2e62:	8d 65 f4             	lea    -0xc(%ebp),%esp
    2e65:	89 c8                	mov    %ecx,%eax
    2e67:	5b                   	pop    %ebx
    2e68:	5e                   	pop    %esi
    2e69:	5f                   	pop    %edi
    2e6a:	5d                   	pop    %ebp
    2e6b:	c3                   	ret    
    2e6c:	8d 74 26 00          	lea    0x0(%esi,%eiz,1),%esi

00002e70 <block_write_direct>:
    2e70:	55                   	push   %ebp
    2e71:	89 e5                	mov    %esp,%ebp
    2e73:	57                   	push   %edi
    2e74:	56                   	push   %esi
    2e75:	53                   	push   %ebx
    2e76:	83 ec 28             	sub    $0x28,%esp
    2e79:	8b 45 08             	mov    0x8(%ebp),%eax
    2e7c:	8b 75 0c             	mov    0xc(%ebp),%esi
    2e7f:	68 98 91 00 00       	push   $0x9198
    2e84:	89 45 e4             	mov    %eax,-0x1c(%ebp)
    2e87:	8b 7d 10             	mov    0x10(%ebp),%edi
    2e8a:	e8 71 47 00 00       	call   7600 <fibril_mutex_lock@plt>
    2e8f:	8b 1d 94 91 00 00    	mov    0x9194,%ebx
    2e95:	83 c4 10             	add    $0x10,%esp
    2e98:	81 fb 90 91 00 00    	cmp    $0x9190,%ebx
    2e9e:	74 20                	je     2ec0 <block_write_direct+0x50>
    2ea0:	8b 45 e4             	mov    -0x1c(%ebp),%eax
    2ea3:	3b 43 08             	cmp    0x8(%ebx),%eax
    2ea6:	75 0d                	jne    2eb5 <block_write_direct+0x45>
    2ea8:	eb 3e                	jmp    2ee8 <block_write_direct+0x78>
    2eaa:	8d b6 00 00 00 00    	lea    0x0(%esi),%esi
    2eb0:	3b 43 08             	cmp    0x8(%ebx),%eax
    2eb3:	74 33                	je     2ee8 <block_write_direct+0x78>
    2eb5:	8b 5b 04             	mov    0x4(%ebx),%ebx
    2eb8:	81 fb 90 91 00 00    	cmp    $0x9190,%ebx
    2ebe:	75 f0                	jne    2eb0 <block_write_direct+0x40>
    2ec0:	83 ec 0c             	sub    $0xc,%esp
    2ec3:	68 98 91 00 00       	push   $0x9198
    2ec8:	e8 43 45 00 00       	call   7410 <fibril_mutex_unlock@plt>
    2ecd:	83 c4 0c             	add    $0xc,%esp
    2ed0:	68 11 03 00 00       	push   $0x311
    2ed5:	68 37 6c 00 00       	push   $0x6c37
    2eda:	68 3f 6c 00 00       	push   $0x6c3f
    2edf:	e8 bc 44 00 00       	call   73a0 <assert_abort@plt>
    2ee4:	8d 74 26 00          	lea    0x0(%esi,%eiz,1),%esi
    2ee8:	83 ec 0c             	sub    $0xc,%esp
    2eeb:	68 98 91 00 00       	push   $0x9198
    2ef0:	e8 1b 45 00 00       	call   7410 <fibril_mutex_unlock@plt>
    2ef5:	58                   	pop    %eax
    2ef6:	8b 4b 28             	mov    0x28(%ebx),%ecx
    2ef9:	8b 45 14             	mov    0x14(%ebp),%eax
    2efc:	5a                   	pop    %edx
    2efd:	0f af c1             	imul   %ecx,%eax
    2f00:	50                   	push   %eax
    2f01:	8b 45 18             	mov    0x18(%ebp),%eax
    2f04:	50                   	push   %eax
    2f05:	8b 45 14             	mov    0x14(%ebp),%eax
    2f08:	50                   	push   %eax
    2f09:	8b 43 10             	mov    0x10(%ebx),%eax
    2f0c:	57                   	push   %edi
    2f0d:	56                   	push   %esi
    2f0e:	50                   	push   %eax
    2f0f:	e8 5c 43 00 00       	call   7270 <bd_write_blocks@plt>
    2f14:	83 c4 20             	add    $0x20,%esp
    2f17:	89 c1                	mov    %eax,%ecx
    2f19:	85 c0                	test   %eax,%eax
    2f1b:	74 25                	je     2f42 <block_write_direct+0xd2>
    2f1d:	50                   	push   %eax
    2f1e:	50                   	push   %eax
    2f1f:	8b 53 08             	mov    0x8(%ebx),%edx
    2f22:	8b 5d 14             	mov    0x14(%ebp),%ebx
    2f25:	52                   	push   %edx
    2f26:	57                   	push   %edi
    2f27:	56                   	push   %esi
    2f28:	53                   	push   %ebx
    2f29:	51                   	push   %ecx
    2f2a:	68 d4 6c 00 00       	push   $0x6cd4
    2f2f:	89 4d e4             	mov    %ecx,-0x1c(%ebp)
    2f32:	e8 b9 42 00 00       	call   71f0 <printf@plt>
    2f37:	83 c4 20             	add    $0x20,%esp
    2f3a:	e8 f1 43 00 00       	call   7330 <stacktrace_print@plt>
    2f3f:	8b 4d e4             	mov    -0x1c(%ebp),%ecx
    2f42:	8d 65 f4             	lea    -0xc(%ebp),%esp
    2f45:	89 c8                	mov    %ecx,%eax
    2f47:	5b                   	pop    %ebx
    2f48:	5e                   	pop    %esi
    2f49:	5f                   	pop    %edi
    2f4a:	5d                   	pop    %ebp
    2f4b:	c3                   	ret    
    2f4c:	8d 74 26 00          	lea    0x0(%esi,%eiz,1),%esi

00002f50 <block_sync_cache>:
    2f50:	55                   	push   %ebp
    2f51:	89 e5                	mov    %esp,%ebp
    2f53:	57                   	push   %edi
    2f54:	56                   	push   %esi
    2f55:	53                   	push   %ebx
    2f56:	83 ec 28             	sub    $0x28,%esp
    2f59:	8b 55 08             	mov    0x8(%ebp),%edx
    2f5c:	8b 75 0c             	mov    0xc(%ebp),%esi
    2f5f:	68 98 91 00 00       	push   $0x9198
    2f64:	89 55 e4             	mov    %edx,-0x1c(%ebp)
    2f67:	8b 7d 10             	mov    0x10(%ebp),%edi
    2f6a:	8b 5d 14             	mov    0x14(%ebp),%ebx
    2f6d:	e8 8e 46 00 00       	call   7600 <fibril_mutex_lock@plt>
    2f72:	a1 94 91 00 00       	mov    0x9194,%eax
    2f77:	83 c4 10             	add    $0x10,%esp
    2f7a:	3d 90 91 00 00       	cmp    $0x9190,%eax
    2f7f:	74 1e                	je     2f9f <block_sync_cache+0x4f>
    2f81:	8b 55 e4             	mov    -0x1c(%ebp),%edx
    2f84:	3b 50 08             	cmp    0x8(%eax),%edx
    2f87:	75 0c                	jne    2f95 <block_sync_cache+0x45>
    2f89:	eb 3d                	jmp    2fc8 <block_sync_cache+0x78>
    2f8b:	90                   	nop
    2f8c:	8d 74 26 00          	lea    0x0(%esi,%eiz,1),%esi
    2f90:	3b 50 08             	cmp    0x8(%eax),%edx
    2f93:	74 33                	je     2fc8 <block_sync_cache+0x78>
    2f95:	8b 40 04             	mov    0x4(%eax),%eax
    2f98:	3d 90 91 00 00       	cmp    $0x9190,%eax
    2f9d:	75 f1                	jne    2f90 <block_sync_cache+0x40>
    2f9f:	83 ec 0c             	sub    $0xc,%esp
    2fa2:	68 98 91 00 00       	push   $0x9198
    2fa7:	e8 64 44 00 00       	call   7410 <fibril_mutex_unlock@plt>
    2fac:	83 c4 0c             	add    $0xc,%esp
    2faf:	68 23 03 00 00       	push   $0x323
    2fb4:	68 37 6c 00 00       	push   $0x6c37
    2fb9:	68 3f 6c 00 00       	push   $0x6c3f
    2fbe:	e8 dd 43 00 00       	call   73a0 <assert_abort@plt>
    2fc3:	90                   	nop
    2fc4:	8d 74 26 00          	lea    0x0(%esi,%eiz,1),%esi
    2fc8:	83 ec 0c             	sub    $0xc,%esp
    2fcb:	89 45 e4             	mov    %eax,-0x1c(%ebp)
    2fce:	68 98 91 00 00       	push   $0x9198
    2fd3:	e8 38 44 00 00       	call   7410 <fibril_mutex_unlock@plt>
    2fd8:	8b 45 e4             	mov    -0x1c(%ebp),%eax
    2fdb:	89 5d 14             	mov    %ebx,0x14(%ebp)
    2fde:	89 75 0c             	mov    %esi,0xc(%ebp)
    2fe1:	89 7d 10             	mov    %edi,0x10(%ebp)
    2fe4:	8b 40 10             	mov    0x10(%eax),%eax
    2fe7:	83 c4 10             	add    $0x10,%esp
    2fea:	89 45 08             	mov    %eax,0x8(%ebp)
    2fed:	8d 65 f4             	lea    -0xc(%ebp),%esp
    2ff0:	5b                   	pop    %ebx
    2ff1:	5e                   	pop    %esi
    2ff2:	5f                   	pop    %edi
    2ff3:	5d                   	pop    %ebp
    2ff4:	e9 17 45 00 00       	jmp    7510 <bd_sync_cache@plt>
    2ff9:	8d b4 26 00 00 00 00 	lea    0x0(%esi,%eiz,1),%esi

00003000 <block_get_bsize>:
    3000:	55                   	push   %ebp
    3001:	89 e5                	mov    %esp,%ebp
    3003:	57                   	push   %edi
    3004:	56                   	push   %esi
    3005:	53                   	push   %ebx
    3006:	83 ec 18             	sub    $0x18,%esp
    3009:	8b 75 08             	mov    0x8(%ebp),%esi
    300c:	8b 7d 0c             	mov    0xc(%ebp),%edi
    300f:	68 98 91 00 00       	push   $0x9198
    3014:	e8 e7 45 00 00       	call   7600 <fibril_mutex_lock@plt>
    3019:	8b 1d 94 91 00 00    	mov    0x9194,%ebx
    301f:	83 c4 10             	add    $0x10,%esp
    3022:	81 fb 90 91 00 00    	cmp    $0x9190,%ebx
    3028:	75 11                	jne    303b <block_get_bsize+0x3b>
    302a:	eb 3c                	jmp    3068 <block_get_bsize+0x68>
    302c:	8d 74 26 00          	lea    0x0(%esi,%eiz,1),%esi
    3030:	8b 5b 04             	mov    0x4(%ebx),%ebx
    3033:	81 fb 90 91 00 00    	cmp    $0x9190,%ebx
    3039:	74 2d                	je     3068 <block_get_bsize+0x68>
    303b:	3b 73 08             	cmp    0x8(%ebx),%esi
    303e:	75 f0                	jne    3030 <block_get_bsize+0x30>
    3040:	83 ec 0c             	sub    $0xc,%esp
    3043:	68 98 91 00 00       	push   $0x9198
    3048:	e8 c3 43 00 00       	call   7410 <fibril_mutex_unlock@plt>
    304d:	89 7d 0c             	mov    %edi,0xc(%ebp)
    3050:	83 c4 10             	add    $0x10,%esp
    3053:	8b 43 10             	mov    0x10(%ebx),%eax
    3056:	89 45 08             	mov    %eax,0x8(%ebp)
    3059:	8d 65 f4             	lea    -0xc(%ebp),%esp
    305c:	5b                   	pop    %ebx
    305d:	5e                   	pop    %esi
    305e:	5f                   	pop    %edi
    305f:	5d                   	pop    %ebp
    3060:	e9 7b 44 00 00       	jmp    74e0 <bd_get_block_size@plt>
    3065:	8d 76 00             	lea    0x0(%esi),%esi
    3068:	83 ec 0c             	sub    $0xc,%esp
    306b:	68 98 91 00 00       	push   $0x9198
    3070:	e8 9b 43 00 00       	call   7410 <fibril_mutex_unlock@plt>
    3075:	83 c4 0c             	add    $0xc,%esp
    3078:	68 34 03 00 00       	push   $0x334
    307d:	68 37 6c 00 00       	push   $0x6c37
    3082:	68 3f 6c 00 00       	push   $0x6c3f
    3087:	e8 14 43 00 00       	call   73a0 <assert_abort@plt>
    308c:	8d 74 26 00          	lea    0x0(%esi,%eiz,1),%esi

00003090 <block_get_nblocks>:
    3090:	55                   	push   %ebp
    3091:	89 e5                	mov    %esp,%ebp
    3093:	57                   	push   %edi
    3094:	56                   	push   %esi
    3095:	53                   	push   %ebx
    3096:	83 ec 18             	sub    $0x18,%esp
    3099:	8b 75 08             	mov    0x8(%ebp),%esi
    309c:	8b 7d 0c             	mov    0xc(%ebp),%edi
    309f:	68 98 91 00 00       	push   $0x9198
    30a4:	e8 57 45 00 00       	call   7600 <fibril_mutex_lock@plt>
    30a9:	8b 1d 94 91 00 00    	mov    0x9194,%ebx
    30af:	83 c4 10             	add    $0x10,%esp
    30b2:	81 fb 90 91 00 00    	cmp    $0x9190,%ebx
    30b8:	75 11                	jne    30cb <block_get_nblocks+0x3b>
    30ba:	eb 3c                	jmp    30f8 <block_get_nblocks+0x68>
    30bc:	8d 74 26 00          	lea    0x0(%esi,%eiz,1),%esi
    30c0:	8b 5b 04             	mov    0x4(%ebx),%ebx
    30c3:	81 fb 90 91 00 00    	cmp    $0x9190,%ebx
    30c9:	74 2d                	je     30f8 <block_get_nblocks+0x68>
    30cb:	3b 73 08             	cmp    0x8(%ebx),%esi
    30ce:	75 f0                	jne    30c0 <block_get_nblocks+0x30>
    30d0:	83 ec 0c             	sub    $0xc,%esp
    30d3:	68 98 91 00 00       	push   $0x9198
    30d8:	e8 33 43 00 00       	call   7410 <fibril_mutex_unlock@plt>
    30dd:	89 7d 0c             	mov    %edi,0xc(%ebp)
    30e0:	83 c4 10             	add    $0x10,%esp
    30e3:	8b 43 10             	mov    0x10(%ebx),%eax
    30e6:	89 45 08             	mov    %eax,0x8(%ebp)
    30e9:	8d 65 f4             	lea    -0xc(%ebp),%esp
    30ec:	5b                   	pop    %ebx
    30ed:	5e                   	pop    %esi
    30ee:	5f                   	pop    %edi
    30ef:	5d                   	pop    %ebp
    30f0:	e9 8b 41 00 00       	jmp    7280 <bd_get_num_blocks@plt>
    30f5:	8d 76 00             	lea    0x0(%esi),%esi
    30f8:	83 ec 0c             	sub    $0xc,%esp
    30fb:	68 98 91 00 00       	push   $0x9198
    3100:	e8 0b 43 00 00       	call   7410 <fibril_mutex_unlock@plt>
    3105:	83 c4 0c             	add    $0xc,%esp
    3108:	68 43 03 00 00       	push   $0x343
    310d:	68 37 6c 00 00       	push   $0x6c37
    3112:	68 3f 6c 00 00       	push   $0x6c3f
    3117:	e8 84 42 00 00       	call   73a0 <assert_abort@plt>
    311c:	8d 74 26 00          	lea    0x0(%esi,%eiz,1),%esi

00003120 <block_read_bytes_direct>:
    3120:	55                   	push   %ebp
    3121:	89 e5                	mov    %esp,%ebp
    3123:	57                   	push   %edi
    3124:	56                   	push   %esi
    3125:	53                   	push   %ebx
    3126:	83 ec 48             	sub    $0x48,%esp
    3129:	8b 45 0c             	mov    0xc(%ebp),%eax
    312c:	8b 55 10             	mov    0x10(%ebp),%edx
    312f:	68 98 91 00 00       	push   $0x9198
    3134:	8b 5d 08             	mov    0x8(%ebp),%ebx
    3137:	89 45 d0             	mov    %eax,-0x30(%ebp)
    313a:	89 55 d4             	mov    %edx,-0x2c(%ebp)
    313d:	e8 be 44 00 00       	call   7600 <fibril_mutex_lock@plt>
    3142:	8b 35 94 91 00 00    	mov    0x9194,%esi
    3148:	83 c4 10             	add    $0x10,%esp
    314b:	81 fe 90 91 00 00    	cmp    $0x9190,%esi
    3151:	75 10                	jne    3163 <block_read_bytes_direct+0x43>
    3153:	eb 43                	jmp    3198 <block_read_bytes_direct+0x78>
    3155:	8d 76 00             	lea    0x0(%esi),%esi
    3158:	8b 76 04             	mov    0x4(%esi),%esi
    315b:	81 fe 90 91 00 00    	cmp    $0x9190,%esi
    3161:	74 35                	je     3198 <block_read_bytes_direct+0x78>
    3163:	3b 5e 08             	cmp    0x8(%esi),%ebx
    3166:	75 f0                	jne    3158 <block_read_bytes_direct+0x38>
    3168:	83 ec 0c             	sub    $0xc,%esp
    316b:	68 98 91 00 00       	push   $0x9198
    3170:	e8 9b 42 00 00       	call   7410 <fibril_mutex_unlock@plt>
    3175:	8d 45 e4             	lea    -0x1c(%ebp),%eax
    3178:	59                   	pop    %ecx
    3179:	5f                   	pop    %edi
    317a:	50                   	push   %eax
    317b:	8b 46 10             	mov    0x10(%esi),%eax
    317e:	50                   	push   %eax
    317f:	e8 5c 43 00 00       	call   74e0 <bd_get_block_size@plt>
    3184:	83 c4 10             	add    $0x10,%esp
    3187:	89 c1                	mov    %eax,%ecx
    3189:	85 c0                	test   %eax,%eax
    318b:	74 33                	je     31c0 <block_read_bytes_direct+0xa0>
    318d:	8d 65 f4             	lea    -0xc(%ebp),%esp
    3190:	89 c8                	mov    %ecx,%eax
    3192:	5b                   	pop    %ebx
    3193:	5e                   	pop    %esi
    3194:	5f                   	pop    %edi
    3195:	5d                   	pop    %ebp
    3196:	c3                   	ret    
    3197:	90                   	nop
    3198:	83 ec 0c             	sub    $0xc,%esp
    319b:	68 98 91 00 00       	push   $0x9198
    31a0:	e8 6b 42 00 00       	call   7410 <fibril_mutex_unlock@plt>
    31a5:	83 c4 0c             	add    $0xc,%esp
    31a8:	68 34 03 00 00       	push   $0x334
    31ad:	68 37 6c 00 00       	push   $0x6c37
    31b2:	68 3f 6c 00 00       	push   $0x6c3f
    31b7:	e8 e4 41 00 00       	call   73a0 <assert_abort@plt>
    31bc:	8d 74 26 00          	lea    0x0(%esi,%eiz,1),%esi
    31c0:	8b 75 e4             	mov    -0x1c(%ebp),%esi
    31c3:	31 d2                	xor    %edx,%edx
    31c5:	8b 45 d4             	mov    -0x2c(%ebp),%eax
    31c8:	52                   	push   %edx
    31c9:	56                   	push   %esi
    31ca:	50                   	push   %eax
    31cb:	8b 45 d0             	mov    -0x30(%ebp),%eax
    31ce:	89 75 c8             	mov    %esi,-0x38(%ebp)
    31d1:	50                   	push   %eax
    31d2:	89 55 cc             	mov    %edx,-0x34(%ebp)
    31d5:	e8 86 41 00 00       	call   7360 <__udivdi3@plt>
    31da:	83 c4 10             	add    $0x10,%esp
    31dd:	89 45 c0             	mov    %eax,-0x40(%ebp)
    31e0:	8b 45 14             	mov    0x14(%ebp),%eax
    31e3:	89 55 c4             	mov    %edx,-0x3c(%ebp)
    31e6:	31 d2                	xor    %edx,%edx
    31e8:	03 45 d0             	add    -0x30(%ebp),%eax
    31eb:	8b 4d cc             	mov    -0x34(%ebp),%ecx
    31ee:	13 55 d4             	adc    -0x2c(%ebp),%edx
    31f1:	83 c0 ff             	add    $0xffffffff,%eax
    31f4:	83 d2 ff             	adc    $0xffffffff,%edx
    31f7:	8b 7d c8             	mov    -0x38(%ebp),%edi
    31fa:	51                   	push   %ecx
    31fb:	57                   	push   %edi
    31fc:	52                   	push   %edx
    31fd:	50                   	push   %eax
    31fe:	e8 5d 41 00 00       	call   7360 <__udivdi3@plt>
    3203:	8b 55 c0             	mov    -0x40(%ebp),%edx
    3206:	29 d0                	sub    %edx,%eax
    3208:	40                   	inc    %eax
    3209:	0f af f0             	imul   %eax,%esi
    320c:	89 45 bc             	mov    %eax,-0x44(%ebp)
    320f:	89 34 24             	mov    %esi,(%esp)
    3212:	e8 b9 40 00 00       	call   72d0 <malloc@plt>
    3217:	83 c4 10             	add    $0x10,%esp
    321a:	89 c6                	mov    %eax,%esi
    321c:	85 c0                	test   %eax,%eax
    321e:	0f 84 19 01 00 00    	je     333d <block_read_bytes_direct+0x21d>
    3224:	83 ec 0c             	sub    $0xc,%esp
    3227:	68 98 91 00 00       	push   $0x9198
    322c:	e8 cf 43 00 00       	call   7600 <fibril_mutex_lock@plt>
    3231:	8b 3d 94 91 00 00    	mov    0x9194,%edi
    3237:	83 c4 10             	add    $0x10,%esp
    323a:	81 ff 90 91 00 00    	cmp    $0x9190,%edi
    3240:	75 15                	jne    3257 <block_read_bytes_direct+0x137>
    3242:	e9 91 00 00 00       	jmp    32d8 <block_read_bytes_direct+0x1b8>
    3247:	90                   	nop
    3248:	8b 7f 04             	mov    0x4(%edi),%edi
    324b:	81 ff 90 91 00 00    	cmp    $0x9190,%edi
    3251:	0f 84 81 00 00 00    	je     32d8 <block_read_bytes_direct+0x1b8>
    3257:	3b 5f 08             	cmp    0x8(%edi),%ebx
    325a:	75 ec                	jne    3248 <block_read_bytes_direct+0x128>
    325c:	83 ec 0c             	sub    $0xc,%esp
    325f:	68 98 91 00 00       	push   $0x9198
    3264:	e8 a7 41 00 00       	call   7410 <fibril_mutex_unlock@plt>
    3269:	58                   	pop    %eax
    326a:	8b 47 28             	mov    0x28(%edi),%eax
    326d:	5a                   	pop    %edx
    326e:	8b 55 bc             	mov    -0x44(%ebp),%edx
    3271:	0f af c2             	imul   %edx,%eax
    3274:	50                   	push   %eax
    3275:	56                   	push   %esi
    3276:	8b 4d c4             	mov    -0x3c(%ebp),%ecx
    3279:	8b 5d c0             	mov    -0x40(%ebp),%ebx
    327c:	8b 47 10             	mov    0x10(%edi),%eax
    327f:	52                   	push   %edx
    3280:	51                   	push   %ecx
    3281:	53                   	push   %ebx
    3282:	50                   	push   %eax
    3283:	e8 e8 40 00 00       	call   7370 <bd_read_blocks@plt>
    3288:	83 c4 20             	add    $0x20,%esp
    328b:	89 c1                	mov    %eax,%ecx
    328d:	85 c0                	test   %eax,%eax
    328f:	75 6b                	jne    32fc <block_read_bytes_direct+0x1dc>
    3291:	89 45 c0             	mov    %eax,-0x40(%ebp)
    3294:	8b 55 14             	mov    0x14(%ebp),%edx
    3297:	8b 5d cc             	mov    -0x34(%ebp),%ebx
    329a:	8b 7d c8             	mov    -0x38(%ebp),%edi
    329d:	50                   	push   %eax
    329e:	8b 45 d4             	mov    -0x2c(%ebp),%eax
    32a1:	52                   	push   %edx
    32a2:	51                   	push   %ecx
    32a3:	51                   	push   %ecx
    32a4:	53                   	push   %ebx
    32a5:	57                   	push   %edi
    32a6:	50                   	push   %eax
    32a7:	8b 45 d0             	mov    -0x30(%ebp),%eax
    32aa:	50                   	push   %eax
    32ab:	e8 90 40 00 00       	call   7340 <__umoddi3@plt>
    32b0:	83 c4 18             	add    $0x18,%esp
    32b3:	01 f0                	add    %esi,%eax
    32b5:	50                   	push   %eax
    32b6:	8b 45 18             	mov    0x18(%ebp),%eax
    32b9:	50                   	push   %eax
    32ba:	e8 f1 3f 00 00       	call   72b0 <memcpy@plt>
    32bf:	89 34 24             	mov    %esi,(%esp)
    32c2:	e8 29 43 00 00       	call   75f0 <free@plt>
    32c7:	8b 4d c0             	mov    -0x40(%ebp),%ecx
    32ca:	83 c4 10             	add    $0x10,%esp
    32cd:	8d 65 f4             	lea    -0xc(%ebp),%esp
    32d0:	89 c8                	mov    %ecx,%eax
    32d2:	5b                   	pop    %ebx
    32d3:	5e                   	pop    %esi
    32d4:	5f                   	pop    %edi
    32d5:	5d                   	pop    %ebp
    32d6:	c3                   	ret    
    32d7:	90                   	nop
    32d8:	83 ec 0c             	sub    $0xc,%esp
    32db:	68 98 91 00 00       	push   $0x9198
    32e0:	e8 2b 41 00 00       	call   7410 <fibril_mutex_unlock@plt>
    32e5:	83 c4 0c             	add    $0xc,%esp
    32e8:	68 fd 02 00 00       	push   $0x2fd
    32ed:	68 37 6c 00 00       	push   $0x6c37
    32f2:	68 3f 6c 00 00       	push   $0x6c3f
    32f7:	e8 a4 40 00 00       	call   73a0 <assert_abort@plt>
    32fc:	50                   	push   %eax
    32fd:	50                   	push   %eax
    32fe:	8b 47 08             	mov    0x8(%edi),%eax
    3301:	8b 55 c0             	mov    -0x40(%ebp),%edx
    3304:	50                   	push   %eax
    3305:	8b 5d bc             	mov    -0x44(%ebp),%ebx
    3308:	8b 45 c4             	mov    -0x3c(%ebp),%eax
    330b:	89 4d d0             	mov    %ecx,-0x30(%ebp)
    330e:	50                   	push   %eax
    330f:	52                   	push   %edx
    3310:	53                   	push   %ebx
    3311:	51                   	push   %ecx
    3312:	68 88 6c 00 00       	push   $0x6c88
    3317:	e8 d4 3e 00 00       	call   71f0 <printf@plt>
    331c:	83 c4 20             	add    $0x20,%esp
    331f:	e8 0c 40 00 00       	call   7330 <stacktrace_print@plt>
    3324:	83 ec 0c             	sub    $0xc,%esp
    3327:	56                   	push   %esi
    3328:	e8 c3 42 00 00       	call   75f0 <free@plt>
    332d:	8b 4d d0             	mov    -0x30(%ebp),%ecx
    3330:	83 c4 10             	add    $0x10,%esp
    3333:	8d 65 f4             	lea    -0xc(%ebp),%esp
    3336:	89 c8                	mov    %ecx,%eax
    3338:	5b                   	pop    %ebx
    3339:	5e                   	pop    %esi
    333a:	5f                   	pop    %edi
    333b:	5d                   	pop    %ebp
    333c:	c3                   	ret    
    333d:	b9 fe ff ff ff       	mov    $0xfffffffe,%ecx
    3342:	e9 46 fe ff ff       	jmp    318d <block_read_bytes_direct+0x6d>
    3347:	89 f6                	mov    %esi,%esi
    3349:	8d bc 27 00 00 00 00 	lea    0x0(%edi,%eiz,1),%edi

00003350 <block_read_toc>:
    3350:	55                   	push   %ebp
    3351:	89 e5                	mov    %esp,%ebp
    3353:	57                   	push   %edi
    3354:	56                   	push   %esi
    3355:	53                   	push   %ebx
    3356:	83 ec 28             	sub    $0x28,%esp
    3359:	8b 55 08             	mov    0x8(%ebp),%edx
    335c:	8b 5d 0c             	mov    0xc(%ebp),%ebx
    335f:	68 98 91 00 00       	push   $0x9198
    3364:	89 55 e4             	mov    %edx,-0x1c(%ebp)
    3367:	8b 75 10             	mov    0x10(%ebp),%esi
    336a:	8b 7d 14             	mov    0x14(%ebp),%edi
    336d:	e8 8e 42 00 00       	call   7600 <fibril_mutex_lock@plt>
    3372:	a1 94 91 00 00       	mov    0x9194,%eax
    3377:	83 c4 10             	add    $0x10,%esp
    337a:	3d 90 91 00 00       	cmp    $0x9190,%eax
    337f:	74 1e                	je     339f <block_read_toc+0x4f>
    3381:	8b 55 e4             	mov    -0x1c(%ebp),%edx
    3384:	3b 50 08             	cmp    0x8(%eax),%edx
    3387:	75 0c                	jne    3395 <block_read_toc+0x45>
    3389:	eb 3d                	jmp    33c8 <block_read_toc+0x78>
    338b:	90                   	nop
    338c:	8d 74 26 00          	lea    0x0(%esi,%eiz,1),%esi
    3390:	3b 50 08             	cmp    0x8(%eax),%edx
    3393:	74 33                	je     33c8 <block_read_toc+0x78>
    3395:	8b 40 04             	mov    0x4(%eax),%eax
    3398:	3d 90 91 00 00       	cmp    $0x9190,%eax
    339d:	75 f1                	jne    3390 <block_read_toc+0x40>
    339f:	83 ec 0c             	sub    $0xc,%esp
    33a2:	68 98 91 00 00       	push   $0x9198
    33a7:	e8 64 40 00 00       	call   7410 <fibril_mutex_unlock@plt>
    33ac:	83 c4 0c             	add    $0xc,%esp
    33af:	68 8a 03 00 00       	push   $0x38a
    33b4:	68 37 6c 00 00       	push   $0x6c37
    33b9:	68 3f 6c 00 00       	push   $0x6c3f
    33be:	e8 dd 3f 00 00       	call   73a0 <assert_abort@plt>
    33c3:	90                   	nop
    33c4:	8d 74 26 00          	lea    0x0(%esi,%eiz,1),%esi
    33c8:	83 ec 0c             	sub    $0xc,%esp
    33cb:	89 45 e4             	mov    %eax,-0x1c(%ebp)
    33ce:	81 e3 ff 00 00 00    	and    $0xff,%ebx
    33d4:	68 98 91 00 00       	push   $0x9198
    33d9:	e8 32 40 00 00       	call   7410 <fibril_mutex_unlock@plt>
    33de:	8b 45 e4             	mov    -0x1c(%ebp),%eax
    33e1:	89 7d 14             	mov    %edi,0x14(%ebp)
    33e4:	89 75 10             	mov    %esi,0x10(%ebp)
    33e7:	89 5d 0c             	mov    %ebx,0xc(%ebp)
    33ea:	8b 40 10             	mov    0x10(%eax),%eax
    33ed:	83 c4 10             	add    $0x10,%esp
    33f0:	89 45 08             	mov    %eax,0x8(%ebp)
    33f3:	8d 65 f4             	lea    -0xc(%ebp),%esp
    33f6:	5b                   	pop    %ebx
    33f7:	5e                   	pop    %esi
    33f8:	5f                   	pop    %edi
    33f9:	5d                   	pop    %ebp
    33fa:	e9 f1 3f 00 00       	jmp    73f0 <bd_read_toc@plt>

000033ff <write_blocks.part.3>:
    33ff:	55                   	push   %ebp
    3400:	89 e5                	mov    %esp,%ebp
    3402:	83 ec 0c             	sub    $0xc,%esp
    3405:	68 b5 03 00 00       	push   $0x3b5
    340a:	68 37 6c 00 00       	push   $0x6c37
    340f:	68 3f 6c 00 00       	push   $0x6c3f
    3414:	e8 87 3f 00 00       	call   73a0 <assert_abort@plt>
    3419:	66 90                	xchg   %ax,%ax
    341b:	66 90                	xchg   %ax,%ax
    341d:	66 90                	xchg   %ax,%ax
    341f:	90                   	nop

00003420 <fdisk_part_add>:
    3420:	55                   	push   %ebp
    3421:	89 e5                	mov    %esp,%ebp
    3423:	57                   	push   %edi
    3424:	56                   	push   %esi
    3425:	53                   	push   %ebx
    3426:	83 ec 74             	sub    $0x74,%esp
    3429:	89 c7                	mov    %eax,%edi
    342b:	89 d6                	mov    %edx,%esi
    342d:	89 55 a0             	mov    %edx,-0x60(%ebp)
    3430:	6a 5c                	push   $0x5c
    3432:	89 4d 9c             	mov    %ecx,-0x64(%ebp)
    3435:	6a 01                	push   $0x1
    3437:	e8 74 3f 00 00       	call   73b0 <calloc@plt>
    343c:	83 c4 10             	add    $0x10,%esp
    343f:	85 c0                	test   %eax,%eax
    3441:	0f 84 12 03 00 00    	je     3759 <fdisk_part_add+0x339>
    3447:	89 c3                	mov    %eax,%ebx
    3449:	50                   	push   %eax
    344a:	8d 45 cc             	lea    -0x34(%ebp),%eax
    344d:	50                   	push   %eax
    344e:	8b 07                	mov    (%edi),%eax
    3450:	56                   	push   %esi
    3451:	8b 40 04             	mov    0x4(%eax),%eax
    3454:	50                   	push   %eax
    3455:	e8 a6 3f 00 00       	call   7400 <vbd_part_get_info@plt>
    345a:	83 c4 10             	add    $0x10,%esp
    345d:	89 45 a4             	mov    %eax,-0x5c(%ebp)
    3460:	85 c0                	test   %eax,%eax
    3462:	0f 85 88 02 00 00    	jne    36f0 <fdisk_part_add+0x2d0>
    3468:	8b 45 e4             	mov    -0x1c(%ebp),%eax
    346b:	85 c0                	test   %eax,%eax
    346d:	0f 85 9d 01 00 00    	jne    3610 <fdisk_part_add+0x1f0>
    3473:	8b 55 d8             	mov    -0x28(%ebp),%edx
    3476:	8b 4d d4             	mov    -0x2c(%ebp),%ecx
    3479:	89 55 a8             	mov    %edx,-0x58(%ebp)
    347c:	89 53 4c             	mov    %edx,0x4c(%ebx)
    347f:	8b 55 dc             	mov    -0x24(%ebp),%edx
    3482:	8b 75 cc             	mov    -0x34(%ebp),%esi
    3485:	89 4d b0             	mov    %ecx,-0x50(%ebp)
    3488:	89 4b 48             	mov    %ecx,0x48(%ebx)
    348b:	89 55 90             	mov    %edx,-0x70(%ebp)
    348e:	8b 4d e0             	mov    -0x20(%ebp),%ecx
    3491:	89 53 50             	mov    %edx,0x50(%ebx)
    3494:	8b 55 d0             	mov    -0x30(%ebp),%edx
    3497:	89 3b                	mov    %edi,(%ebx)
    3499:	89 73 44             	mov    %esi,0x44(%ebx)
    349c:	89 4d 94             	mov    %ecx,-0x6c(%ebp)
    349f:	89 4b 54             	mov    %ecx,0x54(%ebx)
    34a2:	89 55 98             	mov    %edx,-0x68(%ebp)
    34a5:	89 53 34             	mov    %edx,0x34(%ebx)
    34a8:	89 43 58             	mov    %eax,0x58(%ebx)
    34ab:	83 fa 01             	cmp    $0x1,%edx
    34ae:	0f 86 cc 00 00 00    	jbe    3580 <fdisk_part_add+0x160>
    34b4:	83 fa 02             	cmp    $0x2,%edx
    34b7:	0f 85 a3 00 00 00    	jne    3560 <fdisk_part_add+0x140>
    34bd:	8b 47 24             	mov    0x24(%edi),%eax
    34c0:	8d 77 20             	lea    0x20(%edi),%esi
    34c3:	39 f0                	cmp    %esi,%eax
    34c5:	0f 84 47 02 00 00    	je     3712 <fdisk_part_add+0x2f2>
    34cb:	85 c0                	test   %eax,%eax
    34cd:	0f 84 3f 02 00 00    	je     3712 <fdisk_part_add+0x2f2>
    34d3:	8d 50 e4             	lea    -0x1c(%eax),%edx
    34d6:	8b 4d a8             	mov    -0x58(%ebp),%ecx
    34d9:	3b 4a 4c             	cmp    0x4c(%edx),%ecx
    34dc:	0f 83 ce 01 00 00    	jae    36b0 <fdisk_part_add+0x290>
    34e2:	8d b6 00 00 00 00    	lea    0x0(%esi),%esi
    34e8:	8d 4a 1c             	lea    0x1c(%edx),%ecx
    34eb:	8d 43 1c             	lea    0x1c(%ebx),%eax
    34ee:	89 4b 20             	mov    %ecx,0x20(%ebx)
    34f1:	8b 4a 1c             	mov    0x1c(%edx),%ecx
    34f4:	89 4b 1c             	mov    %ecx,0x1c(%ebx)
    34f7:	8b 4a 1c             	mov    0x1c(%edx),%ecx
    34fa:	89 41 04             	mov    %eax,0x4(%ecx)
    34fd:	89 42 1c             	mov    %eax,0x1c(%edx)
    3500:	8d 57 08             	lea    0x8(%edi),%edx
    3503:	8d 43 04             	lea    0x4(%ebx),%eax
    3506:	89 53 08             	mov    %edx,0x8(%ebx)
    3509:	8b 57 08             	mov    0x8(%edi),%edx
    350c:	89 53 04             	mov    %edx,0x4(%ebx)
    350f:	89 42 04             	mov    %eax,0x4(%edx)
    3512:	89 47 08             	mov    %eax,0x8(%edi)
    3515:	8d 43 24             	lea    0x24(%ebx),%eax
    3518:	8b 55 94             	mov    -0x6c(%ebp),%edx
    351b:	50                   	push   %eax
    351c:	8b 4d 90             	mov    -0x70(%ebp),%ecx
    351f:	8b 47 44             	mov    0x44(%edi),%eax
    3522:	50                   	push   %eax
    3523:	52                   	push   %edx
    3524:	51                   	push   %ecx
    3525:	e8 76 29 00 00       	call   5ea0 <fdisk_cap_from_blocks>
    352a:	8b 45 a0             	mov    -0x60(%ebp),%eax
    352d:	83 c4 10             	add    $0x10,%esp
    3530:	89 43 40             	mov    %eax,0x40(%ebx)
    3533:	8b 45 9c             	mov    -0x64(%ebp),%eax
    3536:	85 c0                	test   %eax,%eax
    3538:	74 02                	je     353c <fdisk_part_add+0x11c>
    353a:	89 18                	mov    %ebx,(%eax)
    353c:	8b 45 a4             	mov    -0x5c(%ebp),%eax
    353f:	8d 65 f4             	lea    -0xc(%ebp),%esp
    3542:	5b                   	pop    %ebx
    3543:	5e                   	pop    %esi
    3544:	5f                   	pop    %edi
    3545:	5d                   	pop    %ebp
    3546:	c3                   	ret    
    3547:	90                   	nop
    3548:	8d 4a 0c             	lea    0xc(%edx),%ecx
    354b:	8d 43 0c             	lea    0xc(%ebx),%eax
    354e:	89 4b 10             	mov    %ecx,0x10(%ebx)
    3551:	8b 4a 0c             	mov    0xc(%edx),%ecx
    3554:	89 4b 0c             	mov    %ecx,0xc(%ebx)
    3557:	8b 4a 0c             	mov    0xc(%edx),%ecx
    355a:	89 41 04             	mov    %eax,0x4(%ecx)
    355d:	89 42 0c             	mov    %eax,0xc(%edx)
    3560:	8d 57 08             	lea    0x8(%edi),%edx
    3563:	8d 43 04             	lea    0x4(%ebx),%eax
    3566:	89 53 08             	mov    %edx,0x8(%ebx)
    3569:	8b 57 08             	mov    0x8(%edi),%edx
    356c:	89 53 04             	mov    %edx,0x4(%ebx)
    356f:	83 7d 98 01          	cmpl   $0x1,-0x68(%ebp)
    3573:	89 42 04             	mov    %eax,0x4(%edx)
    3576:	89 47 08             	mov    %eax,0x8(%edi)
    3579:	75 9a                	jne    3515 <fdisk_part_add+0xf5>
    357b:	89 5f 28             	mov    %ebx,0x28(%edi)
    357e:	eb 95                	jmp    3515 <fdisk_part_add+0xf5>
    3580:	8d 4f 18             	lea    0x18(%edi),%ecx
    3583:	8b 47 1c             	mov    0x1c(%edi),%eax
    3586:	89 4d b4             	mov    %ecx,-0x4c(%ebp)
    3589:	39 c8                	cmp    %ecx,%eax
    358b:	0f 84 b1 01 00 00    	je     3742 <fdisk_part_add+0x322>
    3591:	85 c0                	test   %eax,%eax
    3593:	0f 84 a9 01 00 00    	je     3742 <fdisk_part_add+0x322>
    3599:	8d 50 ec             	lea    -0x14(%eax),%edx
    359c:	8b 4d a8             	mov    -0x58(%ebp),%ecx
    359f:	3b 4a 4c             	cmp    0x4c(%edx),%ecx
    35a2:	0f 83 b8 00 00 00    	jae    3660 <fdisk_part_add+0x240>
    35a8:	8d 4a 14             	lea    0x14(%edx),%ecx
    35ab:	8d 43 14             	lea    0x14(%ebx),%eax
    35ae:	89 4b 18             	mov    %ecx,0x18(%ebx)
    35b1:	8b 4a 14             	mov    0x14(%edx),%ecx
    35b4:	89 4b 14             	mov    %ecx,0x14(%ebx)
    35b7:	8b 4a 14             	mov    0x14(%edx),%ecx
    35ba:	89 41 04             	mov    %eax,0x4(%ecx)
    35bd:	89 42 14             	mov    %eax,0x14(%edx)
    35c0:	8b 47 14             	mov    0x14(%edi),%eax
    35c3:	8d 4f 10             	lea    0x10(%edi),%ecx
    35c6:	39 c8                	cmp    %ecx,%eax
    35c8:	74 2d                	je     35f7 <fdisk_part_add+0x1d7>
    35ca:	85 c0                	test   %eax,%eax
    35cc:	74 29                	je     35f7 <fdisk_part_add+0x1d7>
    35ce:	8d 50 f4             	lea    -0xc(%eax),%edx
    35d1:	3b 72 44             	cmp    0x44(%edx),%esi
    35d4:	7d 1a                	jge    35f0 <fdisk_part_add+0x1d0>
    35d6:	e9 6d ff ff ff       	jmp    3548 <fdisk_part_add+0x128>
    35db:	90                   	nop
    35dc:	8d 74 26 00          	lea    0x0(%esi,%eiz,1),%esi
    35e0:	85 c0                	test   %eax,%eax
    35e2:	74 13                	je     35f7 <fdisk_part_add+0x1d7>
    35e4:	8d 50 f4             	lea    -0xc(%eax),%edx
    35e7:	3b 70 38             	cmp    0x38(%eax),%esi
    35ea:	0f 8c 58 ff ff ff    	jl     3548 <fdisk_part_add+0x128>
    35f0:	8b 40 04             	mov    0x4(%eax),%eax
    35f3:	39 c1                	cmp    %eax,%ecx
    35f5:	75 e9                	jne    35e0 <fdisk_part_add+0x1c0>
    35f7:	8b 57 10             	mov    0x10(%edi),%edx
    35fa:	8d 43 0c             	lea    0xc(%ebx),%eax
    35fd:	89 4b 10             	mov    %ecx,0x10(%ebx)
    3600:	89 53 0c             	mov    %edx,0xc(%ebx)
    3603:	89 42 04             	mov    %eax,0x4(%edx)
    3606:	89 47 10             	mov    %eax,0x10(%edi)
    3609:	e9 52 ff ff ff       	jmp    3560 <fdisk_part_add+0x140>
    360e:	66 90                	xchg   %ax,%ax
    3610:	52                   	push   %edx
    3611:	52                   	push   %edx
    3612:	50                   	push   %eax
    3613:	8b 07                	mov    (%edi),%eax
    3615:	8b 08                	mov    (%eax),%ecx
    3617:	51                   	push   %ecx
    3618:	e8 b3 3e 00 00       	call   74d0 <vol_part_add@plt>
    361d:	83 c4 10             	add    $0x10,%esp
    3620:	85 c0                	test   %eax,%eax
    3622:	74 09                	je     362d <fdisk_part_add+0x20d>
    3624:	83 f8 f7             	cmp    $0xfffffff7,%eax
    3627:	0f 85 c3 00 00 00    	jne    36f0 <fdisk_part_add+0x2d0>
    362d:	8d 45 c4             	lea    -0x3c(%ebp),%eax
    3630:	56                   	push   %esi
    3631:	50                   	push   %eax
    3632:	8b 45 e4             	mov    -0x1c(%ebp),%eax
    3635:	50                   	push   %eax
    3636:	8b 07                	mov    (%edi),%eax
    3638:	8b 00                	mov    (%eax),%eax
    363a:	50                   	push   %eax
    363b:	e8 60 3f 00 00       	call   75a0 <vol_part_info@plt>
    3640:	83 c4 10             	add    $0x10,%esp
    3643:	85 c0                	test   %eax,%eax
    3645:	0f 85 a5 00 00 00    	jne    36f0 <fdisk_part_add+0x2d0>
    364b:	8b 45 c4             	mov    -0x3c(%ebp),%eax
    364e:	89 43 38             	mov    %eax,0x38(%ebx)
    3651:	8b 45 c8             	mov    -0x38(%ebp),%eax
    3654:	89 43 3c             	mov    %eax,0x3c(%ebx)
    3657:	8b 45 e4             	mov    -0x1c(%ebp),%eax
    365a:	e9 14 fe ff ff       	jmp    3473 <fdisk_part_add+0x53>
    365f:	90                   	nop
    3660:	77 0c                	ja     366e <fdisk_part_add+0x24e>
    3662:	8b 4d b0             	mov    -0x50(%ebp),%ecx
    3665:	3b 4a 48             	cmp    0x48(%edx),%ecx
    3668:	0f 82 3a ff ff ff    	jb     35a8 <fdisk_part_add+0x188>
    366e:	8b 40 04             	mov    0x4(%eax),%eax
    3671:	39 45 b4             	cmp    %eax,-0x4c(%ebp)
    3674:	0f 84 c5 00 00 00    	je     373f <fdisk_part_add+0x31f>
    367a:	89 5d ac             	mov    %ebx,-0x54(%ebp)
    367d:	8b 4d a8             	mov    -0x58(%ebp),%ecx
    3680:	85 c0                	test   %eax,%eax
    3682:	0f 84 b4 00 00 00    	je     373c <fdisk_part_add+0x31c>
    3688:	8d 50 ec             	lea    -0x14(%eax),%edx
    368b:	3b 4a 4c             	cmp    0x4c(%edx),%ecx
    368e:	0f 87 9c 00 00 00    	ja     3730 <fdisk_part_add+0x310>
    3694:	72 0c                	jb     36a2 <fdisk_part_add+0x282>
    3696:	8b 5d b0             	mov    -0x50(%ebp),%ebx
    3699:	3b 5a 48             	cmp    0x48(%edx),%ebx
    369c:	0f 83 8e 00 00 00    	jae    3730 <fdisk_part_add+0x310>
    36a2:	8b 5d ac             	mov    -0x54(%ebp),%ebx
    36a5:	e9 fe fe ff ff       	jmp    35a8 <fdisk_part_add+0x188>
    36aa:	8d b6 00 00 00 00    	lea    0x0(%esi),%esi
    36b0:	77 0c                	ja     36be <fdisk_part_add+0x29e>
    36b2:	8b 4d b0             	mov    -0x50(%ebp),%ecx
    36b5:	3b 4a 48             	cmp    0x48(%edx),%ecx
    36b8:	0f 82 2a fe ff ff    	jb     34e8 <fdisk_part_add+0xc8>
    36be:	8b 40 04             	mov    0x4(%eax),%eax
    36c1:	39 c6                	cmp    %eax,%esi
    36c3:	74 4d                	je     3712 <fdisk_part_add+0x2f2>
    36c5:	89 5d b4             	mov    %ebx,-0x4c(%ebp)
    36c8:	8b 4d a8             	mov    -0x58(%ebp),%ecx
    36cb:	90                   	nop
    36cc:	8d 74 26 00          	lea    0x0(%esi,%eiz,1),%esi
    36d0:	85 c0                	test   %eax,%eax
    36d2:	74 3b                	je     370f <fdisk_part_add+0x2ef>
    36d4:	8d 50 e4             	lea    -0x1c(%eax),%edx
    36d7:	3b 4a 4c             	cmp    0x4c(%edx),%ecx
    36da:	77 2c                	ja     3708 <fdisk_part_add+0x2e8>
    36dc:	72 08                	jb     36e6 <fdisk_part_add+0x2c6>
    36de:	8b 5d b0             	mov    -0x50(%ebp),%ebx
    36e1:	3b 5a 48             	cmp    0x48(%edx),%ebx
    36e4:	73 22                	jae    3708 <fdisk_part_add+0x2e8>
    36e6:	8b 5d b4             	mov    -0x4c(%ebp),%ebx
    36e9:	e9 fa fd ff ff       	jmp    34e8 <fdisk_part_add+0xc8>
    36ee:	66 90                	xchg   %ax,%ax
    36f0:	83 ec 0c             	sub    $0xc,%esp
    36f3:	53                   	push   %ebx
    36f4:	e8 f7 3e 00 00       	call   75f0 <free@plt>
    36f9:	83 c4 10             	add    $0x10,%esp
    36fc:	c7 45 a4 f6 fe ff ff 	movl   $0xfffffef6,-0x5c(%ebp)
    3703:	e9 34 fe ff ff       	jmp    353c <fdisk_part_add+0x11c>
    3708:	8b 40 04             	mov    0x4(%eax),%eax
    370b:	39 c6                	cmp    %eax,%esi
    370d:	75 c1                	jne    36d0 <fdisk_part_add+0x2b0>
    370f:	8b 5d b4             	mov    -0x4c(%ebp),%ebx
    3712:	8b 57 20             	mov    0x20(%edi),%edx
    3715:	8d 43 1c             	lea    0x1c(%ebx),%eax
    3718:	89 73 20             	mov    %esi,0x20(%ebx)
    371b:	89 53 1c             	mov    %edx,0x1c(%ebx)
    371e:	89 42 04             	mov    %eax,0x4(%edx)
    3721:	89 47 20             	mov    %eax,0x20(%edi)
    3724:	e9 d7 fd ff ff       	jmp    3500 <fdisk_part_add+0xe0>
    3729:	8d b4 26 00 00 00 00 	lea    0x0(%esi,%eiz,1),%esi
    3730:	8b 40 04             	mov    0x4(%eax),%eax
    3733:	39 45 b4             	cmp    %eax,-0x4c(%ebp)
    3736:	0f 85 44 ff ff ff    	jne    3680 <fdisk_part_add+0x260>
    373c:	8b 5d ac             	mov    -0x54(%ebp),%ebx
    373f:	8b 4d b4             	mov    -0x4c(%ebp),%ecx
    3742:	8b 57 18             	mov    0x18(%edi),%edx
    3745:	8d 43 14             	lea    0x14(%ebx),%eax
    3748:	89 4b 18             	mov    %ecx,0x18(%ebx)
    374b:	89 53 14             	mov    %edx,0x14(%ebx)
    374e:	89 42 04             	mov    %eax,0x4(%edx)
    3751:	89 47 18             	mov    %eax,0x18(%edi)
    3754:	e9 67 fe ff ff       	jmp    35c0 <fdisk_part_add+0x1a0>
    3759:	c7 45 a4 fe ff ff ff 	movl   $0xfffffffe,-0x5c(%ebp)
    3760:	e9 d7 fd ff ff       	jmp    353c <fdisk_part_add+0x11c>
    3765:	8d 74 26 00          	lea    0x0(%esi,%eiz,1),%esi
    3769:	8d bc 27 00 00 00 00 	lea    0x0(%edi,%eiz,1),%edi

00003770 <fdisk_part_get_max_free_range>:
    3770:	55                   	push   %ebp
    3771:	89 e5                	mov    %esp,%ebp
    3773:	57                   	push   %edi
    3774:	56                   	push   %esi
    3775:	53                   	push   %ebx
    3776:	83 ec 4c             	sub    $0x4c,%esp
    3779:	89 c7                	mov    %eax,%edi
    377b:	89 45 ac             	mov    %eax,-0x54(%ebp)
    377e:	89 55 cc             	mov    %edx,-0x34(%ebp)
    3781:	89 4d a8             	mov    %ecx,-0x58(%ebp)
    3784:	85 d2                	test   %edx,%edx
    3786:	0f 85 4c 02 00 00    	jne    39d8 <fdisk_part_get_max_free_range+0x268>
    378c:	8b 40 50             	mov    0x50(%eax),%eax
    378f:	8b 57 54             	mov    0x54(%edi),%edx
    3792:	89 c3                	mov    %eax,%ebx
    3794:	89 45 d0             	mov    %eax,-0x30(%ebp)
    3797:	03 47 34             	add    0x34(%edi),%eax
    379a:	89 d6                	mov    %edx,%esi
    379c:	89 55 d4             	mov    %edx,-0x2c(%ebp)
    379f:	13 57 38             	adc    0x38(%edi),%edx
    37a2:	83 c0 ff             	add    $0xffffffff,%eax
    37a5:	83 d2 ff             	adc    $0xffffffff,%edx
    37a8:	56                   	push   %esi
    37a9:	53                   	push   %ebx
    37aa:	52                   	push   %edx
    37ab:	50                   	push   %eax
    37ac:	e8 af 3b 00 00       	call   7360 <__udivdi3@plt>
    37b1:	89 f1                	mov    %esi,%ecx
    37b3:	83 c4 10             	add    $0x10,%esp
    37b6:	0f af d3             	imul   %ebx,%edx
    37b9:	0f af c8             	imul   %eax,%ecx
    37bc:	01 d1                	add    %edx,%ecx
    37be:	f7 e3                	mul    %ebx
    37c0:	89 55 e4             	mov    %edx,-0x1c(%ebp)
    37c3:	89 45 e0             	mov    %eax,-0x20(%ebp)
    37c6:	8b 75 e4             	mov    -0x1c(%ebp),%esi
    37c9:	89 f8                	mov    %edi,%eax
    37cb:	01 ce                	add    %ecx,%esi
    37cd:	8b 5f 1c             	mov    0x1c(%edi),%ebx
    37d0:	83 c0 18             	add    $0x18,%eax
    37d3:	89 75 e4             	mov    %esi,-0x1c(%ebp)
    37d6:	39 c3                	cmp    %eax,%ebx
    37d8:	0f 84 77 02 00 00    	je     3a55 <fdisk_part_get_max_free_range+0x2e5>
    37de:	85 db                	test   %ebx,%ebx
    37e0:	0f 84 6f 02 00 00    	je     3a55 <fdisk_part_get_max_free_range+0x2e5>
    37e6:	83 eb 14             	sub    $0x14,%ebx
    37e9:	8b 45 d0             	mov    -0x30(%ebp),%eax
    37ec:	8b 55 d4             	mov    -0x2c(%ebp),%edx
    37ef:	83 c0 ff             	add    $0xffffffff,%eax
    37f2:	c7 45 c8 00 00 00 00 	movl   $0x0,-0x38(%ebp)
    37f9:	89 45 c0             	mov    %eax,-0x40(%ebp)
    37fc:	8b 45 ac             	mov    -0x54(%ebp),%eax
    37ff:	83 d2 ff             	adc    $0xffffffff,%edx
    3802:	c7 45 d8 00 00 00 00 	movl   $0x0,-0x28(%ebp)
    3809:	8d 78 20             	lea    0x20(%eax),%edi
    380c:	83 c0 18             	add    $0x18,%eax
    380f:	89 45 b8             	mov    %eax,-0x48(%ebp)
    3812:	c7 45 b0 00 00 00 00 	movl   $0x0,-0x50(%ebp)
    3819:	c7 45 b4 00 00 00 00 	movl   $0x0,-0x4c(%ebp)
    3820:	89 55 c4             	mov    %edx,-0x3c(%ebp)
    3823:	89 7d bc             	mov    %edi,-0x44(%ebp)
    3826:	89 5d dc             	mov    %ebx,-0x24(%ebp)
    3829:	89 d8                	mov    %ebx,%eax
    382b:	85 c0                	test   %eax,%eax
    382d:	0f 84 c5 00 00 00    	je     38f8 <fdisk_part_get_max_free_range+0x188>
    3833:	8b 70 48             	mov    0x48(%eax),%esi
    3836:	8b 78 4c             	mov    0x4c(%eax),%edi
    3839:	8b 55 d0             	mov    -0x30(%ebp),%edx
    383c:	8b 45 d4             	mov    -0x2c(%ebp),%eax
    383f:	50                   	push   %eax
    3840:	52                   	push   %edx
    3841:	57                   	push   %edi
    3842:	56                   	push   %esi
    3843:	e8 f8 3a 00 00       	call   7340 <__umoddi3@plt>
    3848:	89 f1                	mov    %esi,%ecx
    384a:	83 c4 10             	add    $0x10,%esp
    384d:	89 fb                	mov    %edi,%ebx
    384f:	29 c1                	sub    %eax,%ecx
    3851:	19 d3                	sbb    %edx,%ebx
    3853:	89 c8                	mov    %ecx,%eax
    3855:	89 da                	mov    %ebx,%edx
    3857:	8b 5d e4             	mov    -0x1c(%ebp),%ebx
    385a:	8b 4d e0             	mov    -0x20(%ebp),%ecx
    385d:	39 da                	cmp    %ebx,%edx
    385f:	72 2a                	jb     388b <fdisk_part_get_max_free_range+0x11b>
    3861:	77 04                	ja     3867 <fdisk_part_get_max_free_range+0xf7>
    3863:	39 c8                	cmp    %ecx,%eax
    3865:	72 24                	jb     388b <fdisk_part_get_max_free_range+0x11b>
    3867:	2b 45 e0             	sub    -0x20(%ebp),%eax
    386a:	1b 55 e4             	sbb    -0x1c(%ebp),%edx
    386d:	39 55 d8             	cmp    %edx,-0x28(%ebp)
    3870:	72 07                	jb     3879 <fdisk_part_get_max_free_range+0x109>
    3872:	77 17                	ja     388b <fdisk_part_get_max_free_range+0x11b>
    3874:	39 45 c8             	cmp    %eax,-0x38(%ebp)
    3877:	73 12                	jae    388b <fdisk_part_get_max_free_range+0x11b>
    3879:	89 45 c8             	mov    %eax,-0x38(%ebp)
    387c:	89 55 d8             	mov    %edx,-0x28(%ebp)
    387f:	8b 45 e0             	mov    -0x20(%ebp),%eax
    3882:	8b 55 e4             	mov    -0x1c(%ebp),%edx
    3885:	89 45 b0             	mov    %eax,-0x50(%ebp)
    3888:	89 55 b4             	mov    %edx,-0x4c(%ebp)
    388b:	8b 45 dc             	mov    -0x24(%ebp),%eax
    388e:	03 75 c0             	add    -0x40(%ebp),%esi
    3891:	13 7d c4             	adc    -0x3c(%ebp),%edi
    3894:	03 70 50             	add    0x50(%eax),%esi
    3897:	13 78 54             	adc    0x54(%eax),%edi
    389a:	8b 55 d0             	mov    -0x30(%ebp),%edx
    389d:	8b 45 d4             	mov    -0x2c(%ebp),%eax
    38a0:	50                   	push   %eax
    38a1:	52                   	push   %edx
    38a2:	57                   	push   %edi
    38a3:	56                   	push   %esi
    38a4:	e8 b7 3a 00 00       	call   7360 <__udivdi3@plt>
    38a9:	8b 7d d4             	mov    -0x2c(%ebp),%edi
    38ac:	89 c3                	mov    %eax,%ebx
    38ae:	8b 75 d0             	mov    -0x30(%ebp),%esi
    38b1:	89 f9                	mov    %edi,%ecx
    38b3:	89 d8                	mov    %ebx,%eax
    38b5:	0f af d6             	imul   %esi,%edx
    38b8:	0f af cb             	imul   %ebx,%ecx
    38bb:	01 d1                	add    %edx,%ecx
    38bd:	83 c4 10             	add    $0x10,%esp
    38c0:	f7 e6                	mul    %esi
    38c2:	89 55 e4             	mov    %edx,-0x1c(%ebp)
    38c5:	8b 75 cc             	mov    -0x34(%ebp),%esi
    38c8:	8b 5d e4             	mov    -0x1c(%ebp),%ebx
    38cb:	89 45 e0             	mov    %eax,-0x20(%ebp)
    38ce:	01 cb                	add    %ecx,%ebx
    38d0:	8b 45 dc             	mov    -0x24(%ebp),%eax
    38d3:	89 5d e4             	mov    %ebx,-0x1c(%ebp)
    38d6:	85 f6                	test   %esi,%esi
    38d8:	0f 85 b2 00 00 00    	jne    3990 <fdisk_part_get_max_free_range+0x220>
    38de:	8b 58 18             	mov    0x18(%eax),%ebx
    38e1:	3b 5d b8             	cmp    -0x48(%ebp),%ebx
    38e4:	74 22                	je     3908 <fdisk_part_get_max_free_range+0x198>
    38e6:	85 db                	test   %ebx,%ebx
    38e8:	74 1e                	je     3908 <fdisk_part_get_max_free_range+0x198>
    38ea:	8d 43 ec             	lea    -0x14(%ebx),%eax
    38ed:	89 45 dc             	mov    %eax,-0x24(%ebp)
    38f0:	85 c0                	test   %eax,%eax
    38f2:	0f 85 3b ff ff ff    	jne    3833 <fdisk_part_get_max_free_range+0xc3>
    38f8:	8b 45 cc             	mov    -0x34(%ebp),%eax
    38fb:	85 c0                	test   %eax,%eax
    38fd:	0f 85 a5 00 00 00    	jne    39a8 <fdisk_part_get_max_free_range+0x238>
    3903:	90                   	nop
    3904:	8d 74 26 00          	lea    0x0(%esi,%eiz,1),%esi
    3908:	8b 45 ac             	mov    -0x54(%ebp),%eax
    390b:	8b 70 3c             	mov    0x3c(%eax),%esi
    390e:	8b 78 40             	mov    0x40(%eax),%edi
    3911:	03 70 34             	add    0x34(%eax),%esi
    3914:	13 78 38             	adc    0x38(%eax),%edi
    3917:	8b 45 d4             	mov    -0x2c(%ebp),%eax
    391a:	50                   	push   %eax
    391b:	8b 45 d0             	mov    -0x30(%ebp),%eax
    391e:	50                   	push   %eax
    391f:	57                   	push   %edi
    3920:	56                   	push   %esi
    3921:	e8 1a 3a 00 00       	call   7340 <__umoddi3@plt>
    3926:	83 c4 10             	add    $0x10,%esp
    3929:	29 c6                	sub    %eax,%esi
    392b:	19 d7                	sbb    %edx,%edi
    392d:	8b 55 e4             	mov    -0x1c(%ebp),%edx
    3930:	8b 45 e0             	mov    -0x20(%ebp),%eax
    3933:	39 fa                	cmp    %edi,%edx
    3935:	77 17                	ja     394e <fdisk_part_get_max_free_range+0x1de>
    3937:	0f 83 0b 01 00 00    	jae    3a48 <fdisk_part_get_max_free_range+0x2d8>
    393d:	2b 75 e0             	sub    -0x20(%ebp),%esi
    3940:	1b 7d e4             	sbb    -0x1c(%ebp),%edi
    3943:	3b 7d d8             	cmp    -0x28(%ebp),%edi
    3946:	77 18                	ja     3960 <fdisk_part_get_max_free_range+0x1f0>
    3948:	0f 83 ea 00 00 00    	jae    3a38 <fdisk_part_get_max_free_range+0x2c8>
    394e:	8b 45 b0             	mov    -0x50(%ebp),%eax
    3951:	8b 55 b4             	mov    -0x4c(%ebp),%edx
    3954:	8b 75 c8             	mov    -0x38(%ebp),%esi
    3957:	8b 7d d8             	mov    -0x28(%ebp),%edi
    395a:	89 45 e0             	mov    %eax,-0x20(%ebp)
    395d:	89 55 e4             	mov    %edx,-0x1c(%ebp)
    3960:	89 fa                	mov    %edi,%edx
    3962:	09 f2                	or     %esi,%edx
    3964:	0f 84 f2 00 00 00    	je     3a5c <fdisk_part_get_max_free_range+0x2ec>
    396a:	8b 5d a8             	mov    -0x58(%ebp),%ebx
    396d:	8b 45 e0             	mov    -0x20(%ebp),%eax
    3970:	8b 55 e4             	mov    -0x1c(%ebp),%edx
    3973:	89 03                	mov    %eax,(%ebx)
    3975:	8b 45 08             	mov    0x8(%ebp),%eax
    3978:	89 53 04             	mov    %edx,0x4(%ebx)
    397b:	89 30                	mov    %esi,(%eax)
    397d:	89 78 04             	mov    %edi,0x4(%eax)
    3980:	31 c0                	xor    %eax,%eax
    3982:	8d 65 f4             	lea    -0xc(%ebp),%esp
    3985:	5b                   	pop    %ebx
    3986:	5e                   	pop    %esi
    3987:	5f                   	pop    %edi
    3988:	5d                   	pop    %ebp
    3989:	c3                   	ret    
    398a:	8d b6 00 00 00 00    	lea    0x0(%esi),%esi
    3990:	8b 58 20             	mov    0x20(%eax),%ebx
    3993:	3b 5d bc             	cmp    -0x44(%ebp),%ebx
    3996:	74 10                	je     39a8 <fdisk_part_get_max_free_range+0x238>
    3998:	85 db                	test   %ebx,%ebx
    399a:	74 0c                	je     39a8 <fdisk_part_get_max_free_range+0x238>
    399c:	8d 43 e4             	lea    -0x1c(%ebx),%eax
    399f:	89 45 dc             	mov    %eax,-0x24(%ebp)
    39a2:	e9 84 fe ff ff       	jmp    382b <fdisk_part_get_max_free_range+0xbb>
    39a7:	90                   	nop
    39a8:	8b 45 ac             	mov    -0x54(%ebp),%eax
    39ab:	8b 40 28             	mov    0x28(%eax),%eax
    39ae:	8b 70 50             	mov    0x50(%eax),%esi
    39b1:	8b 78 54             	mov    0x54(%eax),%edi
    39b4:	03 70 48             	add    0x48(%eax),%esi
    39b7:	13 78 4c             	adc    0x4c(%eax),%edi
    39ba:	8b 45 d4             	mov    -0x2c(%ebp),%eax
    39bd:	50                   	push   %eax
    39be:	8b 45 d0             	mov    -0x30(%ebp),%eax
    39c1:	50                   	push   %eax
    39c2:	57                   	push   %edi
    39c3:	56                   	push   %esi
    39c4:	e8 77 39 00 00       	call   7340 <__umoddi3@plt>
    39c9:	83 c4 10             	add    $0x10,%esp
    39cc:	29 c6                	sub    %eax,%esi
    39ce:	19 d7                	sbb    %edx,%edi
    39d0:	e9 58 ff ff ff       	jmp    392d <fdisk_part_get_max_free_range+0x1bd>
    39d5:	8d 76 00             	lea    0x0(%esi),%esi
    39d8:	8b 50 54             	mov    0x54(%eax),%edx
    39db:	8b 40 50             	mov    0x50(%eax),%eax
    39de:	89 c3                	mov    %eax,%ebx
    39e0:	8b 4f 28             	mov    0x28(%edi),%ecx
    39e3:	89 45 d0             	mov    %eax,-0x30(%ebp)
    39e6:	89 d8                	mov    %ebx,%eax
    39e8:	83 c0 ff             	add    $0xffffffff,%eax
    39eb:	89 d6                	mov    %edx,%esi
    39ed:	89 55 d4             	mov    %edx,-0x2c(%ebp)
    39f0:	83 d2 ff             	adc    $0xffffffff,%edx
    39f3:	03 41 48             	add    0x48(%ecx),%eax
    39f6:	13 51 4c             	adc    0x4c(%ecx),%edx
    39f9:	56                   	push   %esi
    39fa:	53                   	push   %ebx
    39fb:	52                   	push   %edx
    39fc:	50                   	push   %eax
    39fd:	e8 5e 39 00 00       	call   7360 <__udivdi3@plt>
    3a02:	89 f1                	mov    %esi,%ecx
    3a04:	83 c4 10             	add    $0x10,%esp
    3a07:	0f af d3             	imul   %ebx,%edx
    3a0a:	0f af c8             	imul   %eax,%ecx
    3a0d:	01 d1                	add    %edx,%ecx
    3a0f:	f7 e3                	mul    %ebx
    3a11:	89 55 e4             	mov    %edx,-0x1c(%ebp)
    3a14:	89 45 e0             	mov    %eax,-0x20(%ebp)
    3a17:	8b 5d e4             	mov    -0x1c(%ebp),%ebx
    3a1a:	89 f8                	mov    %edi,%eax
    3a1c:	01 cb                	add    %ecx,%ebx
    3a1e:	89 5d e4             	mov    %ebx,-0x1c(%ebp)
    3a21:	8b 5f 24             	mov    0x24(%edi),%ebx
    3a24:	85 db                	test   %ebx,%ebx
    3a26:	74 2d                	je     3a55 <fdisk_part_get_max_free_range+0x2e5>
    3a28:	83 c0 20             	add    $0x20,%eax
    3a2b:	39 c3                	cmp    %eax,%ebx
    3a2d:	74 26                	je     3a55 <fdisk_part_get_max_free_range+0x2e5>
    3a2f:	83 eb 1c             	sub    $0x1c,%ebx
    3a32:	e9 b2 fd ff ff       	jmp    37e9 <fdisk_part_get_max_free_range+0x79>
    3a37:	90                   	nop
    3a38:	3b 75 c8             	cmp    -0x38(%ebp),%esi
    3a3b:	0f 87 1f ff ff ff    	ja     3960 <fdisk_part_get_max_free_range+0x1f0>
    3a41:	e9 08 ff ff ff       	jmp    394e <fdisk_part_get_max_free_range+0x1de>
    3a46:	66 90                	xchg   %ax,%ax
    3a48:	39 f0                	cmp    %esi,%eax
    3a4a:	0f 87 fe fe ff ff    	ja     394e <fdisk_part_get_max_free_range+0x1de>
    3a50:	e9 e8 fe ff ff       	jmp    393d <fdisk_part_get_max_free_range+0x1cd>
    3a55:	31 db                	xor    %ebx,%ebx
    3a57:	e9 8d fd ff ff       	jmp    37e9 <fdisk_part_get_max_free_range+0x79>
    3a5c:	b8 fd fe ff ff       	mov    $0xfffffefd,%eax
    3a61:	e9 1c ff ff ff       	jmp    3982 <fdisk_part_get_max_free_range+0x212>
    3a66:	8d 76 00             	lea    0x0(%esi),%esi
    3a69:	8d bc 27 00 00 00 00 	lea    0x0(%edi,%eiz,1),%edi

00003a70 <fdisk_dev_add_parts>:
    3a70:	55                   	push   %ebp
    3a71:	89 e5                	mov    %esp,%ebp
    3a73:	57                   	push   %edi
    3a74:	56                   	push   %esi
    3a75:	53                   	push   %ebx
    3a76:	83 ec 30             	sub    $0x30,%esp
    3a79:	89 c3                	mov    %eax,%ebx
    3a7b:	83 c0 2c             	add    $0x2c,%eax
    3a7e:	c7 45 e0 00 00 00 00 	movl   $0x0,-0x20(%ebp)
    3a85:	50                   	push   %eax
    3a86:	8b 43 04             	mov    0x4(%ebx),%eax
    3a89:	50                   	push   %eax
    3a8a:	8b 03                	mov    (%ebx),%eax
    3a8c:	8b 40 04             	mov    0x4(%eax),%eax
    3a8f:	50                   	push   %eax
    3a90:	e8 fb 37 00 00       	call   7290 <vbd_disk_info@plt>
    3a95:	83 c4 10             	add    $0x10,%esp
    3a98:	85 c0                	test   %eax,%eax
    3a9a:	0f 85 b8 00 00 00    	jne    3b58 <fdisk_dev_add_parts+0xe8>
    3aa0:	8b 4b 44             	mov    0x44(%ebx),%ecx
    3aa3:	8b 43 40             	mov    0x40(%ebx),%eax
    3aa6:	0f af c1             	imul   %ecx,%eax
    3aa9:	89 45 d4             	mov    %eax,-0x2c(%ebp)
    3aac:	89 c8                	mov    %ecx,%eax
    3aae:	f7 63 3c             	mull   0x3c(%ebx)
    3ab1:	8b 7d d4             	mov    -0x2c(%ebp),%edi
    3ab4:	89 c6                	mov    %eax,%esi
    3ab6:	01 d7                	add    %edx,%edi
    3ab8:	89 fa                	mov    %edi,%edx
    3aba:	0f ac d0 14          	shrd   $0x14,%edx,%eax
    3abe:	c1 ea 14             	shr    $0x14,%edx
    3ac1:	83 fa 00             	cmp    $0x0,%edx
    3ac4:	77 0b                	ja     3ad1 <fdisk_dev_add_parts+0x61>
    3ac6:	3d ff 00 00 00       	cmp    $0xff,%eax
    3acb:	0f 86 8f 01 00 00    	jbe    3c60 <fdisk_dev_add_parts+0x1f0>
    3ad1:	b8 00 00 10 00       	mov    $0x100000,%eax
    3ad6:	66 90                	xchg   %ax,%ax
    3ad8:	31 d2                	xor    %edx,%edx
    3ada:	f7 f1                	div    %ecx
    3adc:	85 c0                	test   %eax,%eax
    3ade:	0f 85 0c 02 00 00    	jne    3cf0 <fdisk_dev_add_parts+0x280>
    3ae4:	c7 43 50 01 00 00 00 	movl   $0x1,0x50(%ebx)
    3aeb:	c7 43 54 00 00 00 00 	movl   $0x0,0x54(%ebx)
    3af2:	8d 45 e4             	lea    -0x1c(%ebp),%eax
    3af5:	8b 53 04             	mov    0x4(%ebx),%edx
    3af8:	50                   	push   %eax
    3af9:	8d 45 e0             	lea    -0x20(%ebp),%eax
    3afc:	50                   	push   %eax
    3afd:	8b 03                	mov    (%ebx),%eax
    3aff:	52                   	push   %edx
    3b00:	8b 48 04             	mov    0x4(%eax),%ecx
    3b03:	51                   	push   %ecx
    3b04:	e8 b7 36 00 00       	call   71c0 <vbd_label_get_parts@plt>
    3b09:	83 c4 10             	add    $0x10,%esp
    3b0c:	85 c0                	test   %eax,%eax
    3b0e:	75 48                	jne    3b58 <fdisk_dev_add_parts+0xe8>
    3b10:	8b 45 e4             	mov    -0x1c(%ebp),%eax
    3b13:	31 f6                	xor    %esi,%esi
    3b15:	85 c0                	test   %eax,%eax
    3b17:	74 22                	je     3b3b <fdisk_dev_add_parts+0xcb>
    3b19:	8d b4 26 00 00 00 00 	lea    0x0(%esi,%eiz,1),%esi
    3b20:	8b 45 e0             	mov    -0x20(%ebp),%eax
    3b23:	31 c9                	xor    %ecx,%ecx
    3b25:	8b 14 b0             	mov    (%eax,%esi,4),%edx
    3b28:	89 d8                	mov    %ebx,%eax
    3b2a:	e8 f1 f8 ff ff       	call   3420 <fdisk_part_add>
    3b2f:	89 c7                	mov    %eax,%edi
    3b31:	85 c0                	test   %eax,%eax
    3b33:	75 28                	jne    3b5d <fdisk_dev_add_parts+0xed>
    3b35:	46                   	inc    %esi
    3b36:	39 75 e4             	cmp    %esi,-0x1c(%ebp)
    3b39:	77 e5                	ja     3b20 <fdisk_dev_add_parts+0xb0>
    3b3b:	83 ec 0c             	sub    $0xc,%esp
    3b3e:	8b 45 e0             	mov    -0x20(%ebp),%eax
    3b41:	31 ff                	xor    %edi,%edi
    3b43:	50                   	push   %eax
    3b44:	e8 a7 3a 00 00       	call   75f0 <free@plt>
    3b49:	83 c4 10             	add    $0x10,%esp
    3b4c:	8d 65 f4             	lea    -0xc(%ebp),%esp
    3b4f:	89 f8                	mov    %edi,%eax
    3b51:	5b                   	pop    %ebx
    3b52:	5e                   	pop    %esi
    3b53:	5f                   	pop    %edi
    3b54:	5d                   	pop    %ebp
    3b55:	c3                   	ret    
    3b56:	66 90                	xchg   %ax,%ax
    3b58:	bf f6 fe ff ff       	mov    $0xfffffef6,%edi
    3b5d:	8b 53 0c             	mov    0xc(%ebx),%edx
    3b60:	8d 73 08             	lea    0x8(%ebx),%esi
    3b63:	39 f2                	cmp    %esi,%edx
    3b65:	74 e5                	je     3b4c <fdisk_dev_add_parts+0xdc>
    3b67:	90                   	nop
    3b68:	85 d2                	test   %edx,%edx
    3b6a:	74 e0                	je     3b4c <fdisk_dev_add_parts+0xdc>
    3b6c:	83 ea 04             	sub    $0x4,%edx
    3b6f:	74 db                	je     3b4c <fdisk_dev_add_parts+0xdc>
    3b71:	8b 4a 04             	mov    0x4(%edx),%ecx
    3b74:	85 c9                	test   %ecx,%ecx
    3b76:	74 0f                	je     3b87 <fdisk_dev_add_parts+0x117>
    3b78:	8b 42 08             	mov    0x8(%edx),%eax
    3b7b:	85 c0                	test   %eax,%eax
    3b7d:	74 08                	je     3b87 <fdisk_dev_add_parts+0x117>
    3b7f:	89 08                	mov    %ecx,(%eax)
    3b81:	8b 4a 04             	mov    0x4(%edx),%ecx
    3b84:	89 41 04             	mov    %eax,0x4(%ecx)
    3b87:	8b 4a 14             	mov    0x14(%edx),%ecx
    3b8a:	c7 42 04 00 00 00 00 	movl   $0x0,0x4(%edx)
    3b91:	c7 42 08 00 00 00 00 	movl   $0x0,0x8(%edx)
    3b98:	85 c9                	test   %ecx,%ecx
    3b9a:	0f 84 90 00 00 00    	je     3c30 <fdisk_dev_add_parts+0x1c0>
    3ba0:	8b 42 18             	mov    0x18(%edx),%eax
    3ba3:	85 c0                	test   %eax,%eax
    3ba5:	0f 84 8c 00 00 00    	je     3c37 <fdisk_dev_add_parts+0x1c7>
    3bab:	89 08                	mov    %ecx,(%eax)
    3bad:	8b 4a 14             	mov    0x14(%edx),%ecx
    3bb0:	89 41 04             	mov    %eax,0x4(%ecx)
    3bb3:	c7 42 14 00 00 00 00 	movl   $0x0,0x14(%edx)
    3bba:	c7 42 18 00 00 00 00 	movl   $0x0,0x18(%edx)
    3bc1:	8b 4a 0c             	mov    0xc(%edx),%ecx
    3bc4:	85 c9                	test   %ecx,%ecx
    3bc6:	74 78                	je     3c40 <fdisk_dev_add_parts+0x1d0>
    3bc8:	8b 42 10             	mov    0x10(%edx),%eax
    3bcb:	85 c0                	test   %eax,%eax
    3bcd:	74 68                	je     3c37 <fdisk_dev_add_parts+0x1c7>
    3bcf:	89 08                	mov    %ecx,(%eax)
    3bd1:	8b 4a 0c             	mov    0xc(%edx),%ecx
    3bd4:	89 41 04             	mov    %eax,0x4(%ecx)
    3bd7:	c7 42 0c 00 00 00 00 	movl   $0x0,0xc(%edx)
    3bde:	c7 42 10 00 00 00 00 	movl   $0x0,0x10(%edx)
    3be5:	8b 4a 1c             	mov    0x1c(%edx),%ecx
    3be8:	85 c9                	test   %ecx,%ecx
    3bea:	74 64                	je     3c50 <fdisk_dev_add_parts+0x1e0>
    3bec:	8b 42 20             	mov    0x20(%edx),%eax
    3bef:	85 c0                	test   %eax,%eax
    3bf1:	74 44                	je     3c37 <fdisk_dev_add_parts+0x1c7>
    3bf3:	89 08                	mov    %ecx,(%eax)
    3bf5:	8b 4a 1c             	mov    0x1c(%edx),%ecx
    3bf8:	89 41 04             	mov    %eax,0x4(%ecx)
    3bfb:	c7 42 1c 00 00 00 00 	movl   $0x0,0x1c(%edx)
    3c02:	c7 42 20 00 00 00 00 	movl   $0x0,0x20(%edx)
    3c09:	83 ec 0c             	sub    $0xc,%esp
    3c0c:	52                   	push   %edx
    3c0d:	e8 de 39 00 00       	call   75f0 <free@plt>
    3c12:	8b 53 0c             	mov    0xc(%ebx),%edx
    3c15:	83 c4 10             	add    $0x10,%esp
    3c18:	39 d6                	cmp    %edx,%esi
    3c1a:	0f 85 48 ff ff ff    	jne    3b68 <fdisk_dev_add_parts+0xf8>
    3c20:	8d 65 f4             	lea    -0xc(%ebp),%esp
    3c23:	89 f8                	mov    %edi,%eax
    3c25:	5b                   	pop    %ebx
    3c26:	5e                   	pop    %esi
    3c27:	5f                   	pop    %edi
    3c28:	5d                   	pop    %ebp
    3c29:	c3                   	ret    
    3c2a:	8d b6 00 00 00 00    	lea    0x0(%esi),%esi
    3c30:	8b 42 18             	mov    0x18(%edx),%eax
    3c33:	85 c0                	test   %eax,%eax
    3c35:	74 8a                	je     3bc1 <fdisk_dev_add_parts+0x151>
    3c37:	e8 3b 22 00 00       	call   5e77 <link_used.part.2>
    3c3c:	8d 74 26 00          	lea    0x0(%esi,%eiz,1),%esi
    3c40:	8b 42 10             	mov    0x10(%edx),%eax
    3c43:	85 c0                	test   %eax,%eax
    3c45:	74 9e                	je     3be5 <fdisk_dev_add_parts+0x175>
    3c47:	e8 2b 22 00 00       	call   5e77 <link_used.part.2>
    3c4c:	8d 74 26 00          	lea    0x0(%esi,%eiz,1),%esi
    3c50:	8b 42 20             	mov    0x20(%edx),%eax
    3c53:	85 c0                	test   %eax,%eax
    3c55:	74 b2                	je     3c09 <fdisk_dev_add_parts+0x199>
    3c57:	e8 1b 22 00 00       	call   5e77 <link_used.part.2>
    3c5c:	8d 74 26 00          	lea    0x0(%esi,%eiz,1),%esi
    3c60:	89 fa                	mov    %edi,%edx
    3c62:	89 f0                	mov    %esi,%eax
    3c64:	0f ac d0 10          	shrd   $0x10,%edx,%eax
    3c68:	c1 ea 10             	shr    $0x10,%edx
    3c6b:	83 fa 00             	cmp    $0x0,%edx
    3c6e:	76 10                	jbe    3c80 <fdisk_dev_add_parts+0x210>
    3c70:	b8 00 00 01 00       	mov    $0x10000,%eax
    3c75:	e9 5e fe ff ff       	jmp    3ad8 <fdisk_dev_add_parts+0x68>
    3c7a:	8d b6 00 00 00 00    	lea    0x0(%esi),%esi
    3c80:	3d ff 00 00 00       	cmp    $0xff,%eax
    3c85:	77 e9                	ja     3c70 <fdisk_dev_add_parts+0x200>
    3c87:	89 fa                	mov    %edi,%edx
    3c89:	89 f0                	mov    %esi,%eax
    3c8b:	0f ac d0 0c          	shrd   $0xc,%edx,%eax
    3c8f:	c1 ea 0c             	shr    $0xc,%edx
    3c92:	83 fa 00             	cmp    $0x0,%edx
    3c95:	76 11                	jbe    3ca8 <fdisk_dev_add_parts+0x238>
    3c97:	b8 00 10 00 00       	mov    $0x1000,%eax
    3c9c:	e9 37 fe ff ff       	jmp    3ad8 <fdisk_dev_add_parts+0x68>
    3ca1:	8d b4 26 00 00 00 00 	lea    0x0(%esi,%eiz,1),%esi
    3ca8:	3d ff 00 00 00       	cmp    $0xff,%eax
    3cad:	77 e8                	ja     3c97 <fdisk_dev_add_parts+0x227>
    3caf:	89 fa                	mov    %edi,%edx
    3cb1:	89 f0                	mov    %esi,%eax
    3cb3:	0f ac d0 08          	shrd   $0x8,%edx,%eax
    3cb7:	c1 ea 08             	shr    $0x8,%edx
    3cba:	83 fa 00             	cmp    $0x0,%edx
    3cbd:	76 11                	jbe    3cd0 <fdisk_dev_add_parts+0x260>
    3cbf:	b8 00 01 00 00       	mov    $0x100,%eax
    3cc4:	e9 0f fe ff ff       	jmp    3ad8 <fdisk_dev_add_parts+0x68>
    3cc9:	8d b4 26 00 00 00 00 	lea    0x0(%esi,%eiz,1),%esi
    3cd0:	3d ff 00 00 00       	cmp    $0xff,%eax
    3cd5:	77 e8                	ja     3cbf <fdisk_dev_add_parts+0x24f>
    3cd7:	0f ac fe 04          	shrd   $0x4,%edi,%esi
    3cdb:	c1 ef 04             	shr    $0x4,%edi
    3cde:	83 ff 00             	cmp    $0x0,%edi
    3ce1:	76 1d                	jbe    3d00 <fdisk_dev_add_parts+0x290>
    3ce3:	b8 10 00 00 00       	mov    $0x10,%eax
    3ce8:	e9 eb fd ff ff       	jmp    3ad8 <fdisk_dev_add_parts+0x68>
    3ced:	8d 76 00             	lea    0x0(%esi),%esi
    3cf0:	89 43 50             	mov    %eax,0x50(%ebx)
    3cf3:	c7 43 54 00 00 00 00 	movl   $0x0,0x54(%ebx)
    3cfa:	e9 f3 fd ff ff       	jmp    3af2 <fdisk_dev_add_parts+0x82>
    3cff:	90                   	nop
    3d00:	b8 01 00 00 00       	mov    $0x1,%eax
    3d05:	81 fe ff 00 00 00    	cmp    $0xff,%esi
    3d0b:	0f 86 c7 fd ff ff    	jbe    3ad8 <fdisk_dev_add_parts+0x68>
    3d11:	eb d0                	jmp    3ce3 <fdisk_dev_add_parts+0x273>
    3d13:	8d b6 00 00 00 00    	lea    0x0(%esi),%esi
    3d19:	8d bc 27 00 00 00 00 	lea    0x0(%edi,%eiz,1),%edi

00003d20 <fdisk_create>:
    3d20:	55                   	push   %ebp
    3d21:	89 e5                	mov    %esp,%ebp
    3d23:	53                   	push   %ebx
    3d24:	83 ec 0c             	sub    $0xc,%esp
    3d27:	6a 08                	push   $0x8
    3d29:	6a 01                	push   $0x1
    3d2b:	e8 80 36 00 00       	call   73b0 <calloc@plt>
    3d30:	83 c4 10             	add    $0x10,%esp
    3d33:	85 c0                	test   %eax,%eax
    3d35:	74 61                	je     3d98 <fdisk_create+0x78>
    3d37:	83 ec 0c             	sub    $0xc,%esp
    3d3a:	89 c3                	mov    %eax,%ebx
    3d3c:	50                   	push   %eax
    3d3d:	e8 1e 35 00 00       	call   7260 <vol_create@plt>
    3d42:	83 c4 10             	add    $0x10,%esp
    3d45:	85 c0                	test   %eax,%eax
    3d47:	74 2f                	je     3d78 <fdisk_create+0x58>
    3d49:	83 ec 0c             	sub    $0xc,%esp
    3d4c:	8b 03                	mov    (%ebx),%eax
    3d4e:	50                   	push   %eax
    3d4f:	e8 5c 34 00 00       	call   71b0 <vol_destroy@plt>
    3d54:	8b 4b 04             	mov    0x4(%ebx),%ecx
    3d57:	5a                   	pop    %edx
    3d58:	51                   	push   %ecx
    3d59:	e8 f2 36 00 00       	call   7450 <vbd_destroy@plt>
    3d5e:	89 1c 24             	mov    %ebx,(%esp)
    3d61:	e8 8a 38 00 00       	call   75f0 <free@plt>
    3d66:	83 c4 10             	add    $0x10,%esp
    3d69:	b8 f6 fe ff ff       	mov    $0xfffffef6,%eax
    3d6e:	8b 5d fc             	mov    -0x4(%ebp),%ebx
    3d71:	c9                   	leave  
    3d72:	c3                   	ret    
    3d73:	90                   	nop
    3d74:	8d 74 26 00          	lea    0x0(%esi,%eiz,1),%esi
    3d78:	83 ec 0c             	sub    $0xc,%esp
    3d7b:	8d 43 04             	lea    0x4(%ebx),%eax
    3d7e:	50                   	push   %eax
    3d7f:	e8 ac 34 00 00       	call   7230 <vbd_create@plt>
    3d84:	83 c4 10             	add    $0x10,%esp
    3d87:	85 c0                	test   %eax,%eax
    3d89:	75 be                	jne    3d49 <fdisk_create+0x29>
    3d8b:	8b 55 08             	mov    0x8(%ebp),%edx
    3d8e:	89 1a                	mov    %ebx,(%edx)
    3d90:	eb dc                	jmp    3d6e <fdisk_create+0x4e>
    3d92:	8d b6 00 00 00 00    	lea    0x0(%esi),%esi
    3d98:	b8 fe ff ff ff       	mov    $0xfffffffe,%eax
    3d9d:	8b 5d fc             	mov    -0x4(%ebp),%ebx
    3da0:	c9                   	leave  
    3da1:	c3                   	ret    
    3da2:	8d b4 26 00 00 00 00 	lea    0x0(%esi,%eiz,1),%esi
    3da9:	8d bc 27 00 00 00 00 	lea    0x0(%edi,%eiz,1),%edi

00003db0 <fdisk_destroy>:
    3db0:	55                   	push   %ebp
    3db1:	89 e5                	mov    %esp,%ebp
    3db3:	53                   	push   %ebx
    3db4:	53                   	push   %ebx
    3db5:	8b 5d 08             	mov    0x8(%ebp),%ebx
    3db8:	85 db                	test   %ebx,%ebx
    3dba:	74 24                	je     3de0 <fdisk_destroy+0x30>
    3dbc:	83 ec 0c             	sub    $0xc,%esp
    3dbf:	8b 03                	mov    (%ebx),%eax
    3dc1:	50                   	push   %eax
    3dc2:	e8 e9 33 00 00       	call   71b0 <vol_destroy@plt>
    3dc7:	8b 4b 04             	mov    0x4(%ebx),%ecx
    3dca:	5a                   	pop    %edx
    3dcb:	51                   	push   %ecx
    3dcc:	e8 7f 36 00 00       	call   7450 <vbd_destroy@plt>
    3dd1:	89 5d 08             	mov    %ebx,0x8(%ebp)
    3dd4:	83 c4 10             	add    $0x10,%esp
    3dd7:	8b 5d fc             	mov    -0x4(%ebp),%ebx
    3dda:	c9                   	leave  
    3ddb:	e9 10 38 00 00       	jmp    75f0 <free@plt>
    3de0:	8b 5d fc             	mov    -0x4(%ebp),%ebx
    3de3:	c9                   	leave  
    3de4:	c3                   	ret    
    3de5:	8d 74 26 00          	lea    0x0(%esi,%eiz,1),%esi
    3de9:	8d bc 27 00 00 00 00 	lea    0x0(%edi,%eiz,1),%edi

00003df0 <fdisk_dev_list_get>:
    3df0:	55                   	push   %ebp
    3df1:	89 e5                	mov    %esp,%ebp
    3df3:	57                   	push   %edi
    3df4:	56                   	push   %esi
    3df5:	53                   	push   %ebx
    3df6:	83 ec 34             	sub    $0x34,%esp
    3df9:	c7 45 e0 00 00 00 00 	movl   $0x0,-0x20(%ebp)
    3e00:	8b 75 08             	mov    0x8(%ebp),%esi
    3e03:	6a 0c                	push   $0xc
    3e05:	6a 01                	push   $0x1
    3e07:	e8 a4 35 00 00       	call   73b0 <calloc@plt>
    3e0c:	83 c4 10             	add    $0x10,%esp
    3e0f:	85 c0                	test   %eax,%eax
    3e11:	0f 84 2d 01 00 00    	je     3f44 <fdisk_dev_list_get+0x154>
    3e17:	89 c3                	mov    %eax,%ebx
    3e19:	89 30                	mov    %esi,(%eax)
    3e1b:	8d 40 04             	lea    0x4(%eax),%eax
    3e1e:	89 43 04             	mov    %eax,0x4(%ebx)
    3e21:	89 43 08             	mov    %eax,0x8(%ebx)
    3e24:	89 45 d4             	mov    %eax,-0x2c(%ebp)
    3e27:	50                   	push   %eax
    3e28:	8d 45 e4             	lea    -0x1c(%ebp),%eax
    3e2b:	50                   	push   %eax
    3e2c:	8d 45 e0             	lea    -0x20(%ebp),%eax
    3e2f:	50                   	push   %eax
    3e30:	8b 46 04             	mov    0x4(%esi),%eax
    3e33:	50                   	push   %eax
    3e34:	e8 97 33 00 00       	call   71d0 <vbd_get_disks@plt>
    3e39:	83 c4 10             	add    $0x10,%esp
    3e3c:	89 45 d0             	mov    %eax,-0x30(%ebp)
    3e3f:	85 c0                	test   %eax,%eax
    3e41:	0f 85 f1 00 00 00    	jne    3f38 <fdisk_dev_list_get+0x148>
    3e47:	8b 7d e4             	mov    -0x1c(%ebp),%edi
    3e4a:	31 f6                	xor    %esi,%esi
    3e4c:	85 ff                	test   %edi,%edi
    3e4e:	75 32                	jne    3e82 <fdisk_dev_list_get+0x92>
    3e50:	e9 bf 00 00 00       	jmp    3f14 <fdisk_dev_list_get+0x124>
    3e55:	8d 76 00             	lea    0x0(%esi),%esi
    3e58:	8b 7d e0             	mov    -0x20(%ebp),%edi
    3e5b:	8b 4d d4             	mov    -0x2c(%ebp),%ecx
    3e5e:	8b 14 b7             	mov    (%edi,%esi,4),%edx
    3e61:	89 48 08             	mov    %ecx,0x8(%eax)
    3e64:	8b 4b 04             	mov    0x4(%ebx),%ecx
    3e67:	89 50 0c             	mov    %edx,0xc(%eax)
    3e6a:	46                   	inc    %esi
    3e6b:	8d 50 04             	lea    0x4(%eax),%edx
    3e6e:	89 18                	mov    %ebx,(%eax)
    3e70:	89 48 04             	mov    %ecx,0x4(%eax)
    3e73:	39 75 e4             	cmp    %esi,-0x1c(%ebp)
    3e76:	89 51 04             	mov    %edx,0x4(%ecx)
    3e79:	89 53 04             	mov    %edx,0x4(%ebx)
    3e7c:	0f 86 95 00 00 00    	jbe    3f17 <fdisk_dev_list_get+0x127>
    3e82:	51                   	push   %ecx
    3e83:	51                   	push   %ecx
    3e84:	6a 14                	push   $0x14
    3e86:	6a 01                	push   $0x1
    3e88:	e8 23 35 00 00       	call   73b0 <calloc@plt>
    3e8d:	83 c4 10             	add    $0x10,%esp
    3e90:	85 c0                	test   %eax,%eax
    3e92:	75 c4                	jne    3e58 <fdisk_dev_list_get+0x68>
    3e94:	c7 45 d0 fe ff ff ff 	movl   $0xfffffffe,-0x30(%ebp)
    3e9b:	83 ec 0c             	sub    $0xc,%esp
    3e9e:	8b 55 e0             	mov    -0x20(%ebp),%edx
    3ea1:	52                   	push   %edx
    3ea2:	e8 49 37 00 00       	call   75f0 <free@plt>
    3ea7:	8b 73 08             	mov    0x8(%ebx),%esi
    3eaa:	83 c4 10             	add    $0x10,%esp
    3ead:	8b 7d d4             	mov    -0x2c(%ebp),%edi
    3eb0:	39 75 d4             	cmp    %esi,-0x2c(%ebp)
    3eb3:	74 48                	je     3efd <fdisk_dev_list_get+0x10d>
    3eb5:	8d 76 00             	lea    0x0(%esi),%esi
    3eb8:	83 ee 04             	sub    $0x4,%esi
    3ebb:	8b 56 04             	mov    0x4(%esi),%edx
    3ebe:	85 d2                	test   %edx,%edx
    3ec0:	74 0f                	je     3ed1 <fdisk_dev_list_get+0xe1>
    3ec2:	8b 46 08             	mov    0x8(%esi),%eax
    3ec5:	85 c0                	test   %eax,%eax
    3ec7:	74 08                	je     3ed1 <fdisk_dev_list_get+0xe1>
    3ec9:	89 10                	mov    %edx,(%eax)
    3ecb:	8b 56 04             	mov    0x4(%esi),%edx
    3ece:	89 42 04             	mov    %eax,0x4(%edx)
    3ed1:	83 ec 0c             	sub    $0xc,%esp
    3ed4:	8b 46 10             	mov    0x10(%esi),%eax
    3ed7:	c7 46 04 00 00 00 00 	movl   $0x0,0x4(%esi)
    3ede:	c7 46 08 00 00 00 00 	movl   $0x0,0x8(%esi)
    3ee5:	50                   	push   %eax
    3ee6:	e8 05 37 00 00       	call   75f0 <free@plt>
    3eeb:	89 34 24             	mov    %esi,(%esp)
    3eee:	e8 fd 36 00 00       	call   75f0 <free@plt>
    3ef3:	8b 73 08             	mov    0x8(%ebx),%esi
    3ef6:	83 c4 10             	add    $0x10,%esp
    3ef9:	39 f7                	cmp    %esi,%edi
    3efb:	75 bb                	jne    3eb8 <fdisk_dev_list_get+0xc8>
    3efd:	83 ec 0c             	sub    $0xc,%esp
    3f00:	53                   	push   %ebx
    3f01:	e8 ea 36 00 00       	call   75f0 <free@plt>
    3f06:	83 c4 10             	add    $0x10,%esp
    3f09:	8b 45 d0             	mov    -0x30(%ebp),%eax
    3f0c:	8d 65 f4             	lea    -0xc(%ebp),%esp
    3f0f:	5b                   	pop    %ebx
    3f10:	5e                   	pop    %esi
    3f11:	5f                   	pop    %edi
    3f12:	5d                   	pop    %ebp
    3f13:	c3                   	ret    
    3f14:	8b 7d e0             	mov    -0x20(%ebp),%edi
    3f17:	8b 45 0c             	mov    0xc(%ebp),%eax
    3f1a:	83 ec 0c             	sub    $0xc,%esp
    3f1d:	89 18                	mov    %ebx,(%eax)
    3f1f:	57                   	push   %edi
    3f20:	e8 cb 36 00 00       	call   75f0 <free@plt>
    3f25:	8b 45 d0             	mov    -0x30(%ebp),%eax
    3f28:	83 c4 10             	add    $0x10,%esp
    3f2b:	8d 65 f4             	lea    -0xc(%ebp),%esp
    3f2e:	5b                   	pop    %ebx
    3f2f:	5e                   	pop    %esi
    3f30:	5f                   	pop    %edi
    3f31:	5d                   	pop    %ebp
    3f32:	c3                   	ret    
    3f33:	90                   	nop
    3f34:	8d 74 26 00          	lea    0x0(%esi,%eiz,1),%esi
    3f38:	c7 45 d0 f6 fe ff ff 	movl   $0xfffffef6,-0x30(%ebp)
    3f3f:	e9 57 ff ff ff       	jmp    3e9b <fdisk_dev_list_get+0xab>
    3f44:	c7 45 d0 fe ff ff ff 	movl   $0xfffffffe,-0x30(%ebp)
    3f4b:	eb bc                	jmp    3f09 <fdisk_dev_list_get+0x119>
    3f4d:	8d 76 00             	lea    0x0(%esi),%esi

00003f50 <fdisk_dev_list_free>:
    3f50:	55                   	push   %ebp
    3f51:	89 e5                	mov    %esp,%ebp
    3f53:	57                   	push   %edi
    3f54:	56                   	push   %esi
    3f55:	53                   	push   %ebx
    3f56:	83 ec 0c             	sub    $0xc,%esp
    3f59:	8b 75 08             	mov    0x8(%ebp),%esi
    3f5c:	85 f6                	test   %esi,%esi
    3f5e:	74 68                	je     3fc8 <fdisk_dev_list_free+0x78>
    3f60:	8b 5e 08             	mov    0x8(%esi),%ebx
    3f63:	8d 7e 04             	lea    0x4(%esi),%edi
    3f66:	39 fb                	cmp    %edi,%ebx
    3f68:	74 4b                	je     3fb5 <fdisk_dev_list_free+0x65>
    3f6a:	8d b6 00 00 00 00    	lea    0x0(%esi),%esi
    3f70:	83 eb 04             	sub    $0x4,%ebx
    3f73:	8b 53 04             	mov    0x4(%ebx),%edx
    3f76:	85 d2                	test   %edx,%edx
    3f78:	74 0f                	je     3f89 <fdisk_dev_list_free+0x39>
    3f7a:	8b 43 08             	mov    0x8(%ebx),%eax
    3f7d:	85 c0                	test   %eax,%eax
    3f7f:	74 08                	je     3f89 <fdisk_dev_list_free+0x39>
    3f81:	89 10                	mov    %edx,(%eax)
    3f83:	8b 53 04             	mov    0x4(%ebx),%edx
    3f86:	89 42 04             	mov    %eax,0x4(%edx)
    3f89:	83 ec 0c             	sub    $0xc,%esp
    3f8c:	8b 43 10             	mov    0x10(%ebx),%eax
    3f8f:	c7 43 04 00 00 00 00 	movl   $0x0,0x4(%ebx)
    3f96:	c7 43 08 00 00 00 00 	movl   $0x0,0x8(%ebx)
    3f9d:	50                   	push   %eax
    3f9e:	e8 4d 36 00 00       	call   75f0 <free@plt>
    3fa3:	89 1c 24             	mov    %ebx,(%esp)
    3fa6:	e8 45 36 00 00       	call   75f0 <free@plt>
    3fab:	8b 5e 08             	mov    0x8(%esi),%ebx
    3fae:	83 c4 10             	add    $0x10,%esp
    3fb1:	39 fb                	cmp    %edi,%ebx
    3fb3:	75 bb                	jne    3f70 <fdisk_dev_list_free+0x20>
    3fb5:	89 75 08             	mov    %esi,0x8(%ebp)
    3fb8:	8d 65 f4             	lea    -0xc(%ebp),%esp
    3fbb:	5b                   	pop    %ebx
    3fbc:	5e                   	pop    %esi
    3fbd:	5f                   	pop    %edi
    3fbe:	5d                   	pop    %ebp
    3fbf:	e9 2c 36 00 00       	jmp    75f0 <free@plt>
    3fc4:	8d 74 26 00          	lea    0x0(%esi,%eiz,1),%esi
    3fc8:	8d 65 f4             	lea    -0xc(%ebp),%esp
    3fcb:	5b                   	pop    %ebx
    3fcc:	5e                   	pop    %esi
    3fcd:	5f                   	pop    %edi
    3fce:	5d                   	pop    %ebp
    3fcf:	c3                   	ret    

00003fd0 <fdisk_dev_first>:
    3fd0:	55                   	push   %ebp
    3fd1:	89 e5                	mov    %esp,%ebp
    3fd3:	8b 55 08             	mov    0x8(%ebp),%edx
    3fd6:	83 c2 04             	add    $0x4,%edx
    3fd9:	8b 42 04             	mov    0x4(%edx),%eax
    3fdc:	39 d0                	cmp    %edx,%eax
    3fde:	74 08                	je     3fe8 <fdisk_dev_first+0x18>
    3fe0:	83 e8 04             	sub    $0x4,%eax
    3fe3:	5d                   	pop    %ebp
    3fe4:	c3                   	ret    
    3fe5:	8d 76 00             	lea    0x0(%esi),%esi
    3fe8:	31 c0                	xor    %eax,%eax
    3fea:	5d                   	pop    %ebp
    3feb:	c3                   	ret    
    3fec:	8d 74 26 00          	lea    0x0(%esi,%eiz,1),%esi

00003ff0 <fdisk_dev_next>:
    3ff0:	55                   	push   %ebp
    3ff1:	89 e5                	mov    %esp,%ebp
    3ff3:	8b 55 08             	mov    0x8(%ebp),%edx
    3ff6:	8b 42 08             	mov    0x8(%edx),%eax
    3ff9:	8b 12                	mov    (%edx),%edx
    3ffb:	83 c2 04             	add    $0x4,%edx
    3ffe:	39 d0                	cmp    %edx,%eax
    4000:	74 09                	je     400b <fdisk_dev_next+0x1b>
    4002:	85 c0                	test   %eax,%eax
    4004:	74 05                	je     400b <fdisk_dev_next+0x1b>
    4006:	83 e8 04             	sub    $0x4,%eax
    4009:	5d                   	pop    %ebp
    400a:	c3                   	ret    
    400b:	31 c0                	xor    %eax,%eax
    400d:	5d                   	pop    %ebp
    400e:	c3                   	ret    
    400f:	90                   	nop

00004010 <fdisk_dev_info_get_svcid>:
    4010:	55                   	push   %ebp
    4011:	89 e5                	mov    %esp,%ebp
    4013:	8b 45 08             	mov    0x8(%ebp),%eax
    4016:	8b 50 0c             	mov    0xc(%eax),%edx
    4019:	8b 45 0c             	mov    0xc(%ebp),%eax
    401c:	89 10                	mov    %edx,(%eax)
    401e:	5d                   	pop    %ebp
    401f:	c3                   	ret    

00004020 <fdisk_dev_info_get_svcname>:
    4020:	55                   	push   %ebp
    4021:	89 e5                	mov    %esp,%ebp
    4023:	53                   	push   %ebx
    4024:	51                   	push   %ecx
    4025:	8b 5d 08             	mov    0x8(%ebp),%ebx
    4028:	8b 43 10             	mov    0x10(%ebx),%eax
    402b:	85 c0                	test   %eax,%eax
    402d:	74 21                	je     4050 <fdisk_dev_info_get_svcname+0x30>
    402f:	83 ec 0c             	sub    $0xc,%esp
    4032:	50                   	push   %eax
    4033:	e8 e8 33 00 00       	call   7420 <str_dup@plt>
    4038:	83 c4 10             	add    $0x10,%esp
    403b:	85 c0                	test   %eax,%eax
    403d:	74 2c                	je     406b <fdisk_dev_info_get_svcname+0x4b>
    403f:	8b 55 0c             	mov    0xc(%ebp),%edx
    4042:	89 02                	mov    %eax,(%edx)
    4044:	31 c0                	xor    %eax,%eax
    4046:	8b 5d fc             	mov    -0x4(%ebp),%ebx
    4049:	c9                   	leave  
    404a:	c3                   	ret    
    404b:	90                   	nop
    404c:	8d 74 26 00          	lea    0x0(%esi,%eiz,1),%esi
    4050:	50                   	push   %eax
    4051:	50                   	push   %eax
    4052:	8b 53 0c             	mov    0xc(%ebx),%edx
    4055:	8d 43 10             	lea    0x10(%ebx),%eax
    4058:	50                   	push   %eax
    4059:	52                   	push   %edx
    405a:	e8 31 33 00 00       	call   7390 <loc_service_get_name@plt>
    405f:	83 c4 10             	add    $0x10,%esp
    4062:	85 c0                	test   %eax,%eax
    4064:	75 e0                	jne    4046 <fdisk_dev_info_get_svcname+0x26>
    4066:	8b 43 10             	mov    0x10(%ebx),%eax
    4069:	eb c4                	jmp    402f <fdisk_dev_info_get_svcname+0xf>
    406b:	b8 fe ff ff ff       	mov    $0xfffffffe,%eax
    4070:	eb d4                	jmp    4046 <fdisk_dev_info_get_svcname+0x26>
    4072:	8d b4 26 00 00 00 00 	lea    0x0(%esi,%eiz,1),%esi
    4079:	8d bc 27 00 00 00 00 	lea    0x0(%edi,%eiz,1),%edi

00004080 <fdisk_dev_info_capacity>:
    4080:	55                   	push   %ebp
    4081:	89 e5                	mov    %esp,%ebp
    4083:	83 ec 4c             	sub    $0x4c,%esp
    4086:	8b 45 08             	mov    0x8(%ebp),%eax
    4089:	8d 55 d4             	lea    -0x2c(%ebp),%edx
    408c:	52                   	push   %edx
    408d:	8b 50 0c             	mov    0xc(%eax),%edx
    4090:	8b 00                	mov    (%eax),%eax
    4092:	52                   	push   %edx
    4093:	8b 00                	mov    (%eax),%eax
    4095:	8b 48 04             	mov    0x4(%eax),%ecx
    4098:	51                   	push   %ecx
    4099:	e8 f2 31 00 00       	call   7290 <vbd_disk_info@plt>
    409e:	83 c4 10             	add    $0x10,%esp
    40a1:	89 45 c4             	mov    %eax,-0x3c(%ebp)
    40a4:	85 c0                	test   %eax,%eax
    40a6:	75 20                	jne    40c8 <fdisk_dev_info_capacity+0x48>
    40a8:	8b 45 0c             	mov    0xc(%ebp),%eax
    40ab:	8b 55 ec             	mov    -0x14(%ebp),%edx
    40ae:	50                   	push   %eax
    40af:	8b 4d f4             	mov    -0xc(%ebp),%ecx
    40b2:	8b 45 f0             	mov    -0x10(%ebp),%eax
    40b5:	52                   	push   %edx
    40b6:	51                   	push   %ecx
    40b7:	50                   	push   %eax
    40b8:	e8 e3 1d 00 00       	call   5ea0 <fdisk_cap_from_blocks>
    40bd:	8b 45 c4             	mov    -0x3c(%ebp),%eax
    40c0:	83 c4 10             	add    $0x10,%esp
    40c3:	c9                   	leave  
    40c4:	c3                   	ret    
    40c5:	8d 76 00             	lea    0x0(%esi),%esi
    40c8:	b8 f6 fe ff ff       	mov    $0xfffffef6,%eax
    40cd:	c9                   	leave  
    40ce:	c3                   	ret    
    40cf:	90                   	nop

000040d0 <fdisk_dev_open>:
    40d0:	55                   	push   %ebp
    40d1:	89 e5                	mov    %esp,%ebp
    40d3:	57                   	push   %edi
    40d4:	56                   	push   %esi
    40d5:	53                   	push   %ebx
    40d6:	83 ec 34             	sub    $0x34,%esp
    40d9:	c7 45 e0 00 00 00 00 	movl   $0x0,-0x20(%ebp)
    40e0:	6a 58                	push   $0x58
    40e2:	6a 01                	push   $0x1
    40e4:	e8 c7 32 00 00       	call   73b0 <calloc@plt>
    40e9:	83 c4 10             	add    $0x10,%esp
    40ec:	85 c0                	test   %eax,%eax
    40ee:	0f 84 14 03 00 00    	je     4408 <fdisk_dev_open+0x338>
    40f4:	89 c3                	mov    %eax,%ebx
    40f6:	8b 45 08             	mov    0x8(%ebp),%eax
    40f9:	8b 7d 0c             	mov    0xc(%ebp),%edi
    40fc:	89 03                	mov    %eax,(%ebx)
    40fe:	8b 45 0c             	mov    0xc(%ebp),%eax
    4101:	89 43 04             	mov    %eax,0x4(%ebx)
    4104:	8d 43 08             	lea    0x8(%ebx),%eax
    4107:	89 43 08             	mov    %eax,0x8(%ebx)
    410a:	89 43 0c             	mov    %eax,0xc(%ebx)
    410d:	89 45 d4             	mov    %eax,-0x2c(%ebp)
    4110:	8d 43 10             	lea    0x10(%ebx),%eax
    4113:	89 43 10             	mov    %eax,0x10(%ebx)
    4116:	89 43 14             	mov    %eax,0x14(%ebx)
    4119:	8d 43 18             	lea    0x18(%ebx),%eax
    411c:	89 43 18             	mov    %eax,0x18(%ebx)
    411f:	89 43 1c             	mov    %eax,0x1c(%ebx)
    4122:	8d 43 20             	lea    0x20(%ebx),%eax
    4125:	89 43 20             	mov    %eax,0x20(%ebx)
    4128:	89 43 24             	mov    %eax,0x24(%ebx)
    412b:	8d 43 2c             	lea    0x2c(%ebx),%eax
    412e:	56                   	push   %esi
    412f:	50                   	push   %eax
    4130:	8b 45 08             	mov    0x8(%ebp),%eax
    4133:	57                   	push   %edi
    4134:	8b 40 04             	mov    0x4(%eax),%eax
    4137:	50                   	push   %eax
    4138:	e8 53 31 00 00       	call   7290 <vbd_disk_info@plt>
    413d:	83 c4 10             	add    $0x10,%esp
    4140:	85 c0                	test   %eax,%eax
    4142:	0f 85 c0 00 00 00    	jne    4208 <fdisk_dev_open+0x138>
    4148:	8b 4b 44             	mov    0x44(%ebx),%ecx
    414b:	8b 43 40             	mov    0x40(%ebx),%eax
    414e:	0f af c1             	imul   %ecx,%eax
    4151:	89 45 d0             	mov    %eax,-0x30(%ebp)
    4154:	89 c8                	mov    %ecx,%eax
    4156:	f7 63 3c             	mull   0x3c(%ebx)
    4159:	8b 7d d0             	mov    -0x30(%ebp),%edi
    415c:	89 c6                	mov    %eax,%esi
    415e:	01 d7                	add    %edx,%edi
    4160:	89 fa                	mov    %edi,%edx
    4162:	0f ac d0 14          	shrd   $0x14,%edx,%eax
    4166:	c1 ea 14             	shr    $0x14,%edx
    4169:	83 fa 00             	cmp    $0x0,%edx
    416c:	77 0b                	ja     4179 <fdisk_dev_open+0xa9>
    416e:	3d ff 00 00 00       	cmp    $0xff,%eax
    4173:	0f 86 b7 01 00 00    	jbe    4330 <fdisk_dev_open+0x260>
    4179:	b8 00 00 10 00       	mov    $0x100000,%eax
    417e:	66 90                	xchg   %ax,%ax
    4180:	31 d2                	xor    %edx,%edx
    4182:	f7 f1                	div    %ecx
    4184:	85 c0                	test   %eax,%eax
    4186:	0f 85 34 02 00 00    	jne    43c0 <fdisk_dev_open+0x2f0>
    418c:	c7 43 50 01 00 00 00 	movl   $0x1,0x50(%ebx)
    4193:	c7 43 54 00 00 00 00 	movl   $0x0,0x54(%ebx)
    419a:	8d 45 e4             	lea    -0x1c(%ebp),%eax
    419d:	8b 55 0c             	mov    0xc(%ebp),%edx
    41a0:	50                   	push   %eax
    41a1:	8d 45 e0             	lea    -0x20(%ebp),%eax
    41a4:	50                   	push   %eax
    41a5:	8b 45 08             	mov    0x8(%ebp),%eax
    41a8:	52                   	push   %edx
    41a9:	8b 48 04             	mov    0x4(%eax),%ecx
    41ac:	51                   	push   %ecx
    41ad:	e8 0e 30 00 00       	call   71c0 <vbd_label_get_parts@plt>
    41b2:	83 c4 10             	add    $0x10,%esp
    41b5:	85 c0                	test   %eax,%eax
    41b7:	75 4f                	jne    4208 <fdisk_dev_open+0x138>
    41b9:	8b 45 e4             	mov    -0x1c(%ebp),%eax
    41bc:	31 f6                	xor    %esi,%esi
    41be:	85 c0                	test   %eax,%eax
    41c0:	75 10                	jne    41d2 <fdisk_dev_open+0x102>
    41c2:	e9 21 02 00 00       	jmp    43e8 <fdisk_dev_open+0x318>
    41c7:	90                   	nop
    41c8:	46                   	inc    %esi
    41c9:	39 75 e4             	cmp    %esi,-0x1c(%ebp)
    41cc:	0f 86 16 02 00 00    	jbe    43e8 <fdisk_dev_open+0x318>
    41d2:	8b 45 e0             	mov    -0x20(%ebp),%eax
    41d5:	31 c9                	xor    %ecx,%ecx
    41d7:	8b 14 b0             	mov    (%eax,%esi,4),%edx
    41da:	89 d8                	mov    %ebx,%eax
    41dc:	e8 3f f2 ff ff       	call   3420 <fdisk_part_add>
    41e1:	85 c0                	test   %eax,%eax
    41e3:	74 e3                	je     41c8 <fdisk_dev_open+0xf8>
    41e5:	89 c7                	mov    %eax,%edi
    41e7:	8b 43 0c             	mov    0xc(%ebx),%eax
    41ea:	39 45 d4             	cmp    %eax,-0x2c(%ebp)
    41ed:	75 26                	jne    4215 <fdisk_dev_open+0x145>
    41ef:	90                   	nop
    41f0:	83 ec 0c             	sub    $0xc,%esp
    41f3:	53                   	push   %ebx
    41f4:	e8 f7 33 00 00       	call   75f0 <free@plt>
    41f9:	83 c4 10             	add    $0x10,%esp
    41fc:	8d 65 f4             	lea    -0xc(%ebp),%esp
    41ff:	89 f8                	mov    %edi,%eax
    4201:	5b                   	pop    %ebx
    4202:	5e                   	pop    %esi
    4203:	5f                   	pop    %edi
    4204:	5d                   	pop    %ebp
    4205:	c3                   	ret    
    4206:	66 90                	xchg   %ax,%ax
    4208:	8b 43 0c             	mov    0xc(%ebx),%eax
    420b:	bf f6 fe ff ff       	mov    $0xfffffef6,%edi
    4210:	39 45 d4             	cmp    %eax,-0x2c(%ebp)
    4213:	74 db                	je     41f0 <fdisk_dev_open+0x120>
    4215:	85 c0                	test   %eax,%eax
    4217:	74 d7                	je     41f0 <fdisk_dev_open+0x120>
    4219:	83 e8 04             	sub    $0x4,%eax
    421c:	74 d2                	je     41f0 <fdisk_dev_open+0x120>
    421e:	8b 75 d4             	mov    -0x2c(%ebp),%esi
    4221:	e9 9f 00 00 00       	jmp    42c5 <fdisk_dev_open+0x1f5>
    4226:	66 90                	xchg   %ax,%ax
    4228:	8b 50 18             	mov    0x18(%eax),%edx
    422b:	85 d2                	test   %edx,%edx
    422d:	0f 84 cc 00 00 00    	je     42ff <fdisk_dev_open+0x22f>
    4233:	89 0a                	mov    %ecx,(%edx)
    4235:	8b 48 14             	mov    0x14(%eax),%ecx
    4238:	89 51 04             	mov    %edx,0x4(%ecx)
    423b:	c7 40 14 00 00 00 00 	movl   $0x0,0x14(%eax)
    4242:	c7 40 18 00 00 00 00 	movl   $0x0,0x18(%eax)
    4249:	8b 48 0c             	mov    0xc(%eax),%ecx
    424c:	85 c9                	test   %ecx,%ecx
    424e:	0f 84 b4 00 00 00    	je     4308 <fdisk_dev_open+0x238>
    4254:	8b 50 10             	mov    0x10(%eax),%edx
    4257:	85 d2                	test   %edx,%edx
    4259:	0f 84 a0 00 00 00    	je     42ff <fdisk_dev_open+0x22f>
    425f:	89 0a                	mov    %ecx,(%edx)
    4261:	8b 48 0c             	mov    0xc(%eax),%ecx
    4264:	89 51 04             	mov    %edx,0x4(%ecx)
    4267:	8b 48 1c             	mov    0x1c(%eax),%ecx
    426a:	c7 40 0c 00 00 00 00 	movl   $0x0,0xc(%eax)
    4271:	c7 40 10 00 00 00 00 	movl   $0x0,0x10(%eax)
    4278:	85 c9                	test   %ecx,%ecx
    427a:	0f 84 a0 00 00 00    	je     4320 <fdisk_dev_open+0x250>
    4280:	8b 50 20             	mov    0x20(%eax),%edx
    4283:	85 d2                	test   %edx,%edx
    4285:	74 78                	je     42ff <fdisk_dev_open+0x22f>
    4287:	89 0a                	mov    %ecx,(%edx)
    4289:	8b 48 1c             	mov    0x1c(%eax),%ecx
    428c:	89 51 04             	mov    %edx,0x4(%ecx)
    428f:	c7 40 1c 00 00 00 00 	movl   $0x0,0x1c(%eax)
    4296:	c7 40 20 00 00 00 00 	movl   $0x0,0x20(%eax)
    429d:	83 ec 0c             	sub    $0xc,%esp
    42a0:	50                   	push   %eax
    42a1:	e8 4a 33 00 00       	call   75f0 <free@plt>
    42a6:	8b 43 0c             	mov    0xc(%ebx),%eax
    42a9:	83 c4 10             	add    $0x10,%esp
    42ac:	39 c6                	cmp    %eax,%esi
    42ae:	0f 84 3c ff ff ff    	je     41f0 <fdisk_dev_open+0x120>
    42b4:	85 c0                	test   %eax,%eax
    42b6:	0f 84 34 ff ff ff    	je     41f0 <fdisk_dev_open+0x120>
    42bc:	83 e8 04             	sub    $0x4,%eax
    42bf:	0f 84 2b ff ff ff    	je     41f0 <fdisk_dev_open+0x120>
    42c5:	8b 48 04             	mov    0x4(%eax),%ecx
    42c8:	85 c9                	test   %ecx,%ecx
    42ca:	74 0f                	je     42db <fdisk_dev_open+0x20b>
    42cc:	8b 50 08             	mov    0x8(%eax),%edx
    42cf:	85 d2                	test   %edx,%edx
    42d1:	74 08                	je     42db <fdisk_dev_open+0x20b>
    42d3:	89 0a                	mov    %ecx,(%edx)
    42d5:	8b 48 04             	mov    0x4(%eax),%ecx
    42d8:	89 51 04             	mov    %edx,0x4(%ecx)
    42db:	8b 48 14             	mov    0x14(%eax),%ecx
    42de:	c7 40 04 00 00 00 00 	movl   $0x0,0x4(%eax)
    42e5:	c7 40 08 00 00 00 00 	movl   $0x0,0x8(%eax)
    42ec:	85 c9                	test   %ecx,%ecx
    42ee:	0f 85 34 ff ff ff    	jne    4228 <fdisk_dev_open+0x158>
    42f4:	8b 50 18             	mov    0x18(%eax),%edx
    42f7:	85 d2                	test   %edx,%edx
    42f9:	0f 84 4a ff ff ff    	je     4249 <fdisk_dev_open+0x179>
    42ff:	e8 73 1b 00 00       	call   5e77 <link_used.part.2>
    4304:	8d 74 26 00          	lea    0x0(%esi,%eiz,1),%esi
    4308:	8b 48 10             	mov    0x10(%eax),%ecx
    430b:	85 c9                	test   %ecx,%ecx
    430d:	75 f0                	jne    42ff <fdisk_dev_open+0x22f>
    430f:	8b 48 1c             	mov    0x1c(%eax),%ecx
    4312:	85 c9                	test   %ecx,%ecx
    4314:	0f 85 66 ff ff ff    	jne    4280 <fdisk_dev_open+0x1b0>
    431a:	8d b6 00 00 00 00    	lea    0x0(%esi),%esi
    4320:	8b 50 20             	mov    0x20(%eax),%edx
    4323:	85 d2                	test   %edx,%edx
    4325:	75 d8                	jne    42ff <fdisk_dev_open+0x22f>
    4327:	e9 71 ff ff ff       	jmp    429d <fdisk_dev_open+0x1cd>
    432c:	8d 74 26 00          	lea    0x0(%esi,%eiz,1),%esi
    4330:	89 fa                	mov    %edi,%edx
    4332:	89 f0                	mov    %esi,%eax
    4334:	0f ac d0 10          	shrd   $0x10,%edx,%eax
    4338:	c1 ea 10             	shr    $0x10,%edx
    433b:	83 fa 00             	cmp    $0x0,%edx
    433e:	76 10                	jbe    4350 <fdisk_dev_open+0x280>
    4340:	b8 00 00 01 00       	mov    $0x10000,%eax
    4345:	e9 36 fe ff ff       	jmp    4180 <fdisk_dev_open+0xb0>
    434a:	8d b6 00 00 00 00    	lea    0x0(%esi),%esi
    4350:	3d ff 00 00 00       	cmp    $0xff,%eax
    4355:	77 e9                	ja     4340 <fdisk_dev_open+0x270>
    4357:	89 fa                	mov    %edi,%edx
    4359:	89 f0                	mov    %esi,%eax
    435b:	0f ac d0 0c          	shrd   $0xc,%edx,%eax
    435f:	c1 ea 0c             	shr    $0xc,%edx
    4362:	83 fa 00             	cmp    $0x0,%edx
    4365:	76 11                	jbe    4378 <fdisk_dev_open+0x2a8>
    4367:	b8 00 10 00 00       	mov    $0x1000,%eax
    436c:	e9 0f fe ff ff       	jmp    4180 <fdisk_dev_open+0xb0>
    4371:	8d b4 26 00 00 00 00 	lea    0x0(%esi,%eiz,1),%esi
    4378:	3d ff 00 00 00       	cmp    $0xff,%eax
    437d:	77 e8                	ja     4367 <fdisk_dev_open+0x297>
    437f:	89 fa                	mov    %edi,%edx
    4381:	89 f0                	mov    %esi,%eax
    4383:	0f ac d0 08          	shrd   $0x8,%edx,%eax
    4387:	c1 ea 08             	shr    $0x8,%edx
    438a:	83 fa 00             	cmp    $0x0,%edx
    438d:	76 11                	jbe    43a0 <fdisk_dev_open+0x2d0>
    438f:	b8 00 01 00 00       	mov    $0x100,%eax
    4394:	e9 e7 fd ff ff       	jmp    4180 <fdisk_dev_open+0xb0>
    4399:	8d b4 26 00 00 00 00 	lea    0x0(%esi,%eiz,1),%esi
    43a0:	3d ff 00 00 00       	cmp    $0xff,%eax
    43a5:	77 e8                	ja     438f <fdisk_dev_open+0x2bf>
    43a7:	0f ac fe 04          	shrd   $0x4,%edi,%esi
    43ab:	c1 ef 04             	shr    $0x4,%edi
    43ae:	83 ff 00             	cmp    $0x0,%edi
    43b1:	76 1d                	jbe    43d0 <fdisk_dev_open+0x300>
    43b3:	b8 10 00 00 00       	mov    $0x10,%eax
    43b8:	e9 c3 fd ff ff       	jmp    4180 <fdisk_dev_open+0xb0>
    43bd:	8d 76 00             	lea    0x0(%esi),%esi
    43c0:	89 43 50             	mov    %eax,0x50(%ebx)
    43c3:	c7 43 54 00 00 00 00 	movl   $0x0,0x54(%ebx)
    43ca:	e9 cb fd ff ff       	jmp    419a <fdisk_dev_open+0xca>
    43cf:	90                   	nop
    43d0:	b8 01 00 00 00       	mov    $0x1,%eax
    43d5:	81 fe ff 00 00 00    	cmp    $0xff,%esi
    43db:	0f 86 9f fd ff ff    	jbe    4180 <fdisk_dev_open+0xb0>
    43e1:	eb d0                	jmp    43b3 <fdisk_dev_open+0x2e3>
    43e3:	90                   	nop
    43e4:	8d 74 26 00          	lea    0x0(%esi,%eiz,1),%esi
    43e8:	83 ec 0c             	sub    $0xc,%esp
    43eb:	8b 4d e0             	mov    -0x20(%ebp),%ecx
    43ee:	31 ff                	xor    %edi,%edi
    43f0:	51                   	push   %ecx
    43f1:	e8 fa 31 00 00       	call   75f0 <free@plt>
    43f6:	8b 45 10             	mov    0x10(%ebp),%eax
    43f9:	83 c4 10             	add    $0x10,%esp
    43fc:	89 18                	mov    %ebx,(%eax)
    43fe:	8d 65 f4             	lea    -0xc(%ebp),%esp
    4401:	89 f8                	mov    %edi,%eax
    4403:	5b                   	pop    %ebx
    4404:	5e                   	pop    %esi
    4405:	5f                   	pop    %edi
    4406:	5d                   	pop    %ebp
    4407:	c3                   	ret    
    4408:	bf fe ff ff ff       	mov    $0xfffffffe,%edi
    440d:	e9 ea fd ff ff       	jmp    41fc <fdisk_dev_open+0x12c>
    4412:	8d b4 26 00 00 00 00 	lea    0x0(%esi,%eiz,1),%esi
    4419:	8d bc 27 00 00 00 00 	lea    0x0(%edi,%eiz,1),%edi

00004420 <fdisk_dev_close>:
    4420:	55                   	push   %ebp
    4421:	89 e5                	mov    %esp,%ebp
    4423:	56                   	push   %esi
    4424:	53                   	push   %ebx
    4425:	8b 75 08             	mov    0x8(%ebp),%esi
    4428:	85 f6                	test   %esi,%esi
    442a:	0f 84 0c 01 00 00    	je     453c <fdisk_dev_close+0x11c>
    4430:	8b 46 0c             	mov    0xc(%esi),%eax
    4433:	8d 5e 08             	lea    0x8(%esi),%ebx
    4436:	39 d8                	cmp    %ebx,%eax
    4438:	0f 84 c2 00 00 00    	je     4500 <fdisk_dev_close+0xe0>
    443e:	66 90                	xchg   %ax,%ax
    4440:	85 c0                	test   %eax,%eax
    4442:	0f 84 b8 00 00 00    	je     4500 <fdisk_dev_close+0xe0>
    4448:	83 e8 04             	sub    $0x4,%eax
    444b:	0f 84 af 00 00 00    	je     4500 <fdisk_dev_close+0xe0>
    4451:	8b 48 04             	mov    0x4(%eax),%ecx
    4454:	85 c9                	test   %ecx,%ecx
    4456:	74 0f                	je     4467 <fdisk_dev_close+0x47>
    4458:	8b 50 08             	mov    0x8(%eax),%edx
    445b:	85 d2                	test   %edx,%edx
    445d:	74 08                	je     4467 <fdisk_dev_close+0x47>
    445f:	89 0a                	mov    %ecx,(%edx)
    4461:	8b 48 04             	mov    0x4(%eax),%ecx
    4464:	89 51 04             	mov    %edx,0x4(%ecx)
    4467:	8b 48 14             	mov    0x14(%eax),%ecx
    446a:	c7 40 04 00 00 00 00 	movl   $0x0,0x4(%eax)
    4471:	c7 40 08 00 00 00 00 	movl   $0x0,0x8(%eax)
    4478:	85 c9                	test   %ecx,%ecx
    447a:	0f 84 90 00 00 00    	je     4510 <fdisk_dev_close+0xf0>
    4480:	8b 50 18             	mov    0x18(%eax),%edx
    4483:	85 d2                	test   %edx,%edx
    4485:	0f 84 8c 00 00 00    	je     4517 <fdisk_dev_close+0xf7>
    448b:	89 0a                	mov    %ecx,(%edx)
    448d:	8b 48 14             	mov    0x14(%eax),%ecx
    4490:	89 51 04             	mov    %edx,0x4(%ecx)
    4493:	c7 40 14 00 00 00 00 	movl   $0x0,0x14(%eax)
    449a:	c7 40 18 00 00 00 00 	movl   $0x0,0x18(%eax)
    44a1:	8b 48 0c             	mov    0xc(%eax),%ecx
    44a4:	85 c9                	test   %ecx,%ecx
    44a6:	74 78                	je     4520 <fdisk_dev_close+0x100>
    44a8:	8b 50 10             	mov    0x10(%eax),%edx
    44ab:	85 d2                	test   %edx,%edx
    44ad:	74 68                	je     4517 <fdisk_dev_close+0xf7>
    44af:	89 0a                	mov    %ecx,(%edx)
    44b1:	8b 48 0c             	mov    0xc(%eax),%ecx
    44b4:	89 51 04             	mov    %edx,0x4(%ecx)
    44b7:	c7 40 0c 00 00 00 00 	movl   $0x0,0xc(%eax)
    44be:	c7 40 10 00 00 00 00 	movl   $0x0,0x10(%eax)
    44c5:	8b 48 1c             	mov    0x1c(%eax),%ecx
    44c8:	85 c9                	test   %ecx,%ecx
    44ca:	74 64                	je     4530 <fdisk_dev_close+0x110>
    44cc:	8b 50 20             	mov    0x20(%eax),%edx
    44cf:	85 d2                	test   %edx,%edx
    44d1:	74 44                	je     4517 <fdisk_dev_close+0xf7>
    44d3:	89 0a                	mov    %ecx,(%edx)
    44d5:	8b 48 1c             	mov    0x1c(%eax),%ecx
    44d8:	89 51 04             	mov    %edx,0x4(%ecx)
    44db:	c7 40 1c 00 00 00 00 	movl   $0x0,0x1c(%eax)
    44e2:	c7 40 20 00 00 00 00 	movl   $0x0,0x20(%eax)
    44e9:	83 ec 0c             	sub    $0xc,%esp
    44ec:	50                   	push   %eax
    44ed:	e8 fe 30 00 00       	call   75f0 <free@plt>
    44f2:	8b 46 0c             	mov    0xc(%esi),%eax
    44f5:	83 c4 10             	add    $0x10,%esp
    44f8:	39 c3                	cmp    %eax,%ebx
    44fa:	0f 85 40 ff ff ff    	jne    4440 <fdisk_dev_close+0x20>
    4500:	89 75 08             	mov    %esi,0x8(%ebp)
    4503:	8d 65 f8             	lea    -0x8(%ebp),%esp
    4506:	5b                   	pop    %ebx
    4507:	5e                   	pop    %esi
    4508:	5d                   	pop    %ebp
    4509:	e9 e2 30 00 00       	jmp    75f0 <free@plt>
    450e:	66 90                	xchg   %ax,%ax
    4510:	8b 50 18             	mov    0x18(%eax),%edx
    4513:	85 d2                	test   %edx,%edx
    4515:	74 8a                	je     44a1 <fdisk_dev_close+0x81>
    4517:	e8 5b 19 00 00       	call   5e77 <link_used.part.2>
    451c:	8d 74 26 00          	lea    0x0(%esi,%eiz,1),%esi
    4520:	8b 48 10             	mov    0x10(%eax),%ecx
    4523:	85 c9                	test   %ecx,%ecx
    4525:	74 9e                	je     44c5 <fdisk_dev_close+0xa5>
    4527:	e8 4b 19 00 00       	call   5e77 <link_used.part.2>
    452c:	8d 74 26 00          	lea    0x0(%esi,%eiz,1),%esi
    4530:	8b 50 20             	mov    0x20(%eax),%edx
    4533:	85 d2                	test   %edx,%edx
    4535:	74 b2                	je     44e9 <fdisk_dev_close+0xc9>
    4537:	e8 3b 19 00 00       	call   5e77 <link_used.part.2>
    453c:	8d 65 f8             	lea    -0x8(%ebp),%esp
    453f:	5b                   	pop    %ebx
    4540:	5e                   	pop    %esi
    4541:	5d                   	pop    %ebp
    4542:	c3                   	ret    
    4543:	8d b6 00 00 00 00    	lea    0x0(%esi),%esi
    4549:	8d bc 27 00 00 00 00 	lea    0x0(%edi,%eiz,1),%edi

00004550 <fdisk_dev_erase>:
    4550:	55                   	push   %ebp
    4551:	89 e5                	mov    %esp,%ebp
    4553:	53                   	push   %ebx
    4554:	50                   	push   %eax
    4555:	8b 55 08             	mov    0x8(%ebp),%edx
    4558:	8b 42 2c             	mov    0x2c(%edx),%eax
    455b:	85 c0                	test   %eax,%eax
    455d:	75 41                	jne    45a0 <fdisk_dev_erase+0x50>
    455f:	8b 42 0c             	mov    0xc(%edx),%eax
    4562:	8d 4a 08             	lea    0x8(%edx),%ecx
    4565:	39 c8                	cmp    %ecx,%eax
    4567:	74 41                	je     45aa <fdisk_dev_erase+0x5a>
    4569:	85 c0                	test   %eax,%eax
    456b:	74 3d                	je     45aa <fdisk_dev_erase+0x5a>
    456d:	83 e8 04             	sub    $0x4,%eax
    4570:	89 c3                	mov    %eax,%ebx
    4572:	74 36                	je     45aa <fdisk_dev_erase+0x5a>
    4574:	8b 40 38             	mov    0x38(%eax),%eax
    4577:	85 c0                	test   %eax,%eax
    4579:	74 25                	je     45a0 <fdisk_dev_erase+0x50>
    457b:	50                   	push   %eax
    457c:	50                   	push   %eax
    457d:	8b 02                	mov    (%edx),%eax
    457f:	8b 4b 58             	mov    0x58(%ebx),%ecx
    4582:	51                   	push   %ecx
    4583:	8b 00                	mov    (%eax),%eax
    4585:	50                   	push   %eax
    4586:	e8 35 2d 00 00       	call   72c0 <vol_part_empty@plt>
    458b:	83 c4 10             	add    $0x10,%esp
    458e:	85 c0                	test   %eax,%eax
    4590:	75 07                	jne    4599 <fdisk_dev_erase+0x49>
    4592:	c7 43 38 00 00 00 00 	movl   $0x0,0x38(%ebx)
    4599:	8b 5d fc             	mov    -0x4(%ebp),%ebx
    459c:	c9                   	leave  
    459d:	c3                   	ret    
    459e:	66 90                	xchg   %ax,%ax
    45a0:	b8 f2 ff ff ff       	mov    $0xfffffff2,%eax
    45a5:	8b 5d fc             	mov    -0x4(%ebp),%ebx
    45a8:	c9                   	leave  
    45a9:	c3                   	ret    
    45aa:	50                   	push   %eax
    45ab:	68 e4 01 00 00       	push   $0x1e4
    45b0:	68 bc 6d 00 00       	push   $0x6dbc
    45b5:	68 c8 6d 00 00       	push   $0x6dc8
    45ba:	e8 e1 2d 00 00       	call   73a0 <assert_abort@plt>
    45bf:	90                   	nop

000045c0 <fdisk_dev_get_flags>:
    45c0:	55                   	push   %ebp
    45c1:	89 e5                	mov    %esp,%ebp
    45c3:	83 ec 08             	sub    $0x8,%esp
    45c6:	8b 45 08             	mov    0x8(%ebp),%eax
    45c9:	8b 48 2c             	mov    0x2c(%eax),%ecx
    45cc:	85 c9                	test   %ecx,%ecx
    45ce:	75 28                	jne    45f8 <fdisk_dev_get_flags+0x38>
    45d0:	8b 50 0c             	mov    0xc(%eax),%edx
    45d3:	83 c0 08             	add    $0x8,%eax
    45d6:	39 c2                	cmp    %eax,%edx
    45d8:	74 2a                	je     4604 <fdisk_dev_get_flags+0x44>
    45da:	85 d2                	test   %edx,%edx
    45dc:	74 26                	je     4604 <fdisk_dev_get_flags+0x44>
    45de:	83 ea 04             	sub    $0x4,%edx
    45e1:	74 21                	je     4604 <fdisk_dev_get_flags+0x44>
    45e3:	83 7a 38 01          	cmpl   $0x1,0x38(%edx)
    45e7:	19 c0                	sbb    %eax,%eax
    45e9:	8b 55 0c             	mov    0xc(%ebp),%edx
    45ec:	83 e0 fd             	and    $0xfffffffd,%eax
    45ef:	83 c0 04             	add    $0x4,%eax
    45f2:	89 02                	mov    %eax,(%edx)
    45f4:	c9                   	leave  
    45f5:	c3                   	ret    
    45f6:	66 90                	xchg   %ax,%ax
    45f8:	8b 55 0c             	mov    0xc(%ebp),%edx
    45fb:	b8 02 00 00 00       	mov    $0x2,%eax
    4600:	89 02                	mov    %eax,(%edx)
    4602:	c9                   	leave  
    4603:	c3                   	ret    
    4604:	50                   	push   %eax
    4605:	68 fb 01 00 00       	push   $0x1fb
    460a:	68 bc 6d 00 00       	push   $0x6dbc
    460f:	68 c8 6d 00 00       	push   $0x6dc8
    4614:	e8 87 2d 00 00       	call   73a0 <assert_abort@plt>
    4619:	8d b4 26 00 00 00 00 	lea    0x0(%esi,%eiz,1),%esi

00004620 <fdisk_dev_get_svcname>:
    4620:	55                   	push   %ebp
    4621:	89 e5                	mov    %esp,%ebp
    4623:	83 ec 20             	sub    $0x20,%esp
    4626:	8d 45 f4             	lea    -0xc(%ebp),%eax
    4629:	50                   	push   %eax
    462a:	8b 45 08             	mov    0x8(%ebp),%eax
    462d:	8b 40 04             	mov    0x4(%eax),%eax
    4630:	50                   	push   %eax
    4631:	e8 5a 2d 00 00       	call   7390 <loc_service_get_name@plt>
    4636:	83 c4 10             	add    $0x10,%esp
    4639:	85 c0                	test   %eax,%eax
    463b:	75 08                	jne    4645 <fdisk_dev_get_svcname+0x25>
    463d:	8b 55 0c             	mov    0xc(%ebp),%edx
    4640:	8b 4d f4             	mov    -0xc(%ebp),%ecx
    4643:	89 0a                	mov    %ecx,(%edx)
    4645:	c9                   	leave  
    4646:	c3                   	ret    
    4647:	89 f6                	mov    %esi,%esi
    4649:	8d bc 27 00 00 00 00 	lea    0x0(%edi,%eiz,1),%edi

00004650 <fdisk_dev_capacity>:
    4650:	55                   	push   %ebp
    4651:	89 e5                	mov    %esp,%ebp
    4653:	83 ec 08             	sub    $0x8,%esp
    4656:	8b 45 08             	mov    0x8(%ebp),%eax
    4659:	8b 55 0c             	mov    0xc(%ebp),%edx
    465c:	52                   	push   %edx
    465d:	8b 48 44             	mov    0x44(%eax),%ecx
    4660:	8b 50 4c             	mov    0x4c(%eax),%edx
    4663:	51                   	push   %ecx
    4664:	52                   	push   %edx
    4665:	8b 48 48             	mov    0x48(%eax),%ecx
    4668:	51                   	push   %ecx
    4669:	e8 32 18 00 00       	call   5ea0 <fdisk_cap_from_blocks>
    466e:	31 c0                	xor    %eax,%eax
    4670:	c9                   	leave  
    4671:	c3                   	ret    
    4672:	8d b4 26 00 00 00 00 	lea    0x0(%esi,%eiz,1),%esi
    4679:	8d bc 27 00 00 00 00 	lea    0x0(%edi,%eiz,1),%edi

00004680 <fdisk_label_get_info>:
    4680:	55                   	push   %ebp
    4681:	89 e5                	mov    %esp,%ebp
    4683:	57                   	push   %edi
    4684:	56                   	push   %esi
    4685:	53                   	push   %ebx
    4686:	83 ec 60             	sub    $0x60,%esp
    4689:	8d 45 c4             	lea    -0x3c(%ebp),%eax
    468c:	8b 5d 08             	mov    0x8(%ebp),%ebx
    468f:	8b 75 0c             	mov    0xc(%ebp),%esi
    4692:	50                   	push   %eax
    4693:	8b 03                	mov    (%ebx),%eax
    4695:	8b 53 04             	mov    0x4(%ebx),%edx
    4698:	52                   	push   %edx
    4699:	8b 48 04             	mov    0x4(%eax),%ecx
    469c:	51                   	push   %ecx
    469d:	e8 ee 2b 00 00       	call   7290 <vbd_disk_info@plt>
    46a2:	83 c4 10             	add    $0x10,%esp
    46a5:	85 c0                	test   %eax,%eax
    46a7:	0f 85 b3 00 00 00    	jne    4760 <fdisk_label_get_info+0xe0>
    46ad:	89 c7                	mov    %eax,%edi
    46af:	8b 45 c4             	mov    -0x3c(%ebp),%eax
    46b2:	89 06                	mov    %eax,(%esi)
    46b4:	8b 45 c8             	mov    -0x38(%ebp),%eax
    46b7:	89 46 04             	mov    %eax,0x4(%esi)
    46ba:	a8 0c                	test   $0xc,%al
    46bc:	75 72                	jne    4730 <fdisk_label_get_info+0xb0>
    46be:	a8 10                	test   $0x10,%al
    46c0:	74 36                	je     46f8 <fdisk_label_get_info+0x78>
    46c2:	8b 43 50             	mov    0x50(%ebx),%eax
    46c5:	8b 53 54             	mov    0x54(%ebx),%edx
    46c8:	89 55 a4             	mov    %edx,-0x5c(%ebp)
    46cb:	89 45 a0             	mov    %eax,-0x60(%ebp)
    46ce:	09 c2                	or     %eax,%edx
    46d0:	74 36                	je     4708 <fdisk_label_get_info+0x88>
    46d2:	83 ec 0c             	sub    $0xc,%esp
    46d5:	8d 45 b8             	lea    -0x48(%ebp),%eax
    46d8:	8d 4d b0             	lea    -0x50(%ebp),%ecx
    46db:	ba 01 00 00 00       	mov    $0x1,%edx
    46e0:	50                   	push   %eax
    46e1:	89 d8                	mov    %ebx,%eax
    46e3:	e8 88 f0 ff ff       	call   3770 <fdisk_part_get_max_free_range>
    46e8:	83 c4 10             	add    $0x10,%esp
    46eb:	85 c0                	test   %eax,%eax
    46ed:	74 29                	je     4718 <fdisk_label_get_info+0x98>
    46ef:	8b 46 04             	mov    0x4(%esi),%eax
    46f2:	83 e0 ef             	and    $0xffffffef,%eax
    46f5:	89 46 04             	mov    %eax,0x4(%esi)
    46f8:	8d 65 f4             	lea    -0xc(%ebp),%esp
    46fb:	89 f8                	mov    %edi,%eax
    46fd:	5b                   	pop    %ebx
    46fe:	5e                   	pop    %esi
    46ff:	5f                   	pop    %edi
    4700:	5d                   	pop    %ebp
    4701:	c3                   	ret    
    4702:	8d b6 00 00 00 00    	lea    0x0(%esi),%esi
    4708:	c7 45 a0 01 00 00 00 	movl   $0x1,-0x60(%ebp)
    470f:	c7 45 a4 00 00 00 00 	movl   $0x0,-0x5c(%ebp)
    4716:	eb ba                	jmp    46d2 <fdisk_label_get_info+0x52>
    4718:	8b 45 a4             	mov    -0x5c(%ebp),%eax
    471b:	3b 45 bc             	cmp    -0x44(%ebp),%eax
    471e:	72 d8                	jb     46f8 <fdisk_label_get_info+0x78>
    4720:	77 cd                	ja     46ef <fdisk_label_get_info+0x6f>
    4722:	8b 45 a0             	mov    -0x60(%ebp),%eax
    4725:	3b 45 b8             	cmp    -0x48(%ebp),%eax
    4728:	72 ce                	jb     46f8 <fdisk_label_get_info+0x78>
    472a:	eb c3                	jmp    46ef <fdisk_label_get_info+0x6f>
    472c:	8d 74 26 00          	lea    0x0(%esi,%eiz,1),%esi
    4730:	83 ec 0c             	sub    $0xc,%esp
    4733:	8d 45 b8             	lea    -0x48(%ebp),%eax
    4736:	31 d2                	xor    %edx,%edx
    4738:	8d 4d b0             	lea    -0x50(%ebp),%ecx
    473b:	50                   	push   %eax
    473c:	89 d8                	mov    %ebx,%eax
    473e:	e8 2d f0 ff ff       	call   3770 <fdisk_part_get_max_free_range>
    4743:	83 c4 10             	add    $0x10,%esp
    4746:	85 c0                	test   %eax,%eax
    4748:	8b 46 04             	mov    0x4(%esi),%eax
    474b:	0f 84 6d ff ff ff    	je     46be <fdisk_label_get_info+0x3e>
    4751:	83 e0 f3             	and    $0xfffffff3,%eax
    4754:	89 46 04             	mov    %eax,0x4(%esi)
    4757:	e9 62 ff ff ff       	jmp    46be <fdisk_label_get_info+0x3e>
    475c:	8d 74 26 00          	lea    0x0(%esi,%eiz,1),%esi
    4760:	bf f6 fe ff ff       	mov    $0xfffffef6,%edi
    4765:	eb 91                	jmp    46f8 <fdisk_label_get_info+0x78>
    4767:	89 f6                	mov    %esi,%esi
    4769:	8d bc 27 00 00 00 00 	lea    0x0(%edi,%eiz,1),%edi

00004770 <fdisk_label_create>:
    4770:	55                   	push   %ebp
    4771:	89 e5                	mov    %esp,%ebp
    4773:	57                   	push   %edi
    4774:	56                   	push   %esi
    4775:	53                   	push   %ebx
    4776:	83 ec 1c             	sub    $0x1c,%esp
    4779:	8b 5d 08             	mov    0x8(%ebp),%ebx
    477c:	8b 73 2c             	mov    0x2c(%ebx),%esi
    477f:	85 f6                	test   %esi,%esi
    4781:	0f 85 71 02 00 00    	jne    49f8 <fdisk_label_create+0x288>
    4787:	8b 43 0c             	mov    0xc(%ebx),%eax
    478a:	8d 73 08             	lea    0x8(%ebx),%esi
    478d:	85 c0                	test   %eax,%eax
    478f:	0f 84 99 02 00 00    	je     4a2e <fdisk_label_create+0x2be>
    4795:	39 f0                	cmp    %esi,%eax
    4797:	0f 84 91 02 00 00    	je     4a2e <fdisk_label_create+0x2be>
    479d:	83 e8 04             	sub    $0x4,%eax
    47a0:	0f 84 88 02 00 00    	je     4a2e <fdisk_label_create+0x2be>
    47a6:	8b 50 38             	mov    0x38(%eax),%edx
    47a9:	85 d2                	test   %edx,%edx
    47ab:	0f 84 98 00 00 00    	je     4849 <fdisk_label_create+0xd9>
    47b1:	e9 42 02 00 00       	jmp    49f8 <fdisk_label_create+0x288>
    47b6:	66 90                	xchg   %ax,%ax
    47b8:	8b 50 18             	mov    0x18(%eax),%edx
    47bb:	85 d2                	test   %edx,%edx
    47bd:	0f 84 c0 00 00 00    	je     4883 <fdisk_label_create+0x113>
    47c3:	89 0a                	mov    %ecx,(%edx)
    47c5:	8b 48 14             	mov    0x14(%eax),%ecx
    47c8:	89 51 04             	mov    %edx,0x4(%ecx)
    47cb:	c7 40 14 00 00 00 00 	movl   $0x0,0x14(%eax)
    47d2:	c7 40 18 00 00 00 00 	movl   $0x0,0x18(%eax)
    47d9:	8b 48 0c             	mov    0xc(%eax),%ecx
    47dc:	85 c9                	test   %ecx,%ecx
    47de:	0f 84 a4 00 00 00    	je     4888 <fdisk_label_create+0x118>
    47e4:	8b 50 10             	mov    0x10(%eax),%edx
    47e7:	85 d2                	test   %edx,%edx
    47e9:	0f 84 94 00 00 00    	je     4883 <fdisk_label_create+0x113>
    47ef:	89 0a                	mov    %ecx,(%edx)
    47f1:	8b 48 0c             	mov    0xc(%eax),%ecx
    47f4:	89 51 04             	mov    %edx,0x4(%ecx)
    47f7:	8b 48 1c             	mov    0x1c(%eax),%ecx
    47fa:	c7 40 0c 00 00 00 00 	movl   $0x0,0xc(%eax)
    4801:	c7 40 10 00 00 00 00 	movl   $0x0,0x10(%eax)
    4808:	85 c9                	test   %ecx,%ecx
    480a:	0f 84 90 00 00 00    	je     48a0 <fdisk_label_create+0x130>
    4810:	8b 50 20             	mov    0x20(%eax),%edx
    4813:	85 d2                	test   %edx,%edx
    4815:	74 6c                	je     4883 <fdisk_label_create+0x113>
    4817:	89 0a                	mov    %ecx,(%edx)
    4819:	8b 48 1c             	mov    0x1c(%eax),%ecx
    481c:	89 51 04             	mov    %edx,0x4(%ecx)
    481f:	c7 40 1c 00 00 00 00 	movl   $0x0,0x1c(%eax)
    4826:	c7 40 20 00 00 00 00 	movl   $0x0,0x20(%eax)
    482d:	83 ec 0c             	sub    $0xc,%esp
    4830:	50                   	push   %eax
    4831:	e8 ba 2d 00 00       	call   75f0 <free@plt>
    4836:	8b 43 0c             	mov    0xc(%ebx),%eax
    4839:	83 c4 10             	add    $0x10,%esp
    483c:	39 c6                	cmp    %eax,%esi
    483e:	74 70                	je     48b0 <fdisk_label_create+0x140>
    4840:	85 c0                	test   %eax,%eax
    4842:	74 6c                	je     48b0 <fdisk_label_create+0x140>
    4844:	83 e8 04             	sub    $0x4,%eax
    4847:	74 67                	je     48b0 <fdisk_label_create+0x140>
    4849:	8b 48 04             	mov    0x4(%eax),%ecx
    484c:	85 c9                	test   %ecx,%ecx
    484e:	74 0f                	je     485f <fdisk_label_create+0xef>
    4850:	8b 50 08             	mov    0x8(%eax),%edx
    4853:	85 d2                	test   %edx,%edx
    4855:	74 08                	je     485f <fdisk_label_create+0xef>
    4857:	89 0a                	mov    %ecx,(%edx)
    4859:	8b 48 04             	mov    0x4(%eax),%ecx
    485c:	89 51 04             	mov    %edx,0x4(%ecx)
    485f:	8b 48 14             	mov    0x14(%eax),%ecx
    4862:	c7 40 04 00 00 00 00 	movl   $0x0,0x4(%eax)
    4869:	c7 40 08 00 00 00 00 	movl   $0x0,0x8(%eax)
    4870:	85 c9                	test   %ecx,%ecx
    4872:	0f 85 40 ff ff ff    	jne    47b8 <fdisk_label_create+0x48>
    4878:	8b 78 18             	mov    0x18(%eax),%edi
    487b:	85 ff                	test   %edi,%edi
    487d:	0f 84 56 ff ff ff    	je     47d9 <fdisk_label_create+0x69>
    4883:	e8 ef 15 00 00       	call   5e77 <link_used.part.2>
    4888:	8b 48 10             	mov    0x10(%eax),%ecx
    488b:	85 c9                	test   %ecx,%ecx
    488d:	75 f4                	jne    4883 <fdisk_label_create+0x113>
    488f:	8b 48 1c             	mov    0x1c(%eax),%ecx
    4892:	85 c9                	test   %ecx,%ecx
    4894:	0f 85 76 ff ff ff    	jne    4810 <fdisk_label_create+0xa0>
    489a:	8d b6 00 00 00 00    	lea    0x0(%esi),%esi
    48a0:	8b 50 20             	mov    0x20(%eax),%edx
    48a3:	85 d2                	test   %edx,%edx
    48a5:	75 dc                	jne    4883 <fdisk_label_create+0x113>
    48a7:	eb 84                	jmp    482d <fdisk_label_create+0xbd>
    48a9:	8d b4 26 00 00 00 00 	lea    0x0(%esi,%eiz,1),%esi
    48b0:	56                   	push   %esi
    48b1:	8b 7d 0c             	mov    0xc(%ebp),%edi
    48b4:	8b 43 04             	mov    0x4(%ebx),%eax
    48b7:	57                   	push   %edi
    48b8:	50                   	push   %eax
    48b9:	8b 03                	mov    (%ebx),%eax
    48bb:	8b 40 04             	mov    0x4(%eax),%eax
    48be:	50                   	push   %eax
    48bf:	e8 ac 2b 00 00       	call   7470 <vbd_label_create@plt>
    48c4:	83 c4 10             	add    $0x10,%esp
    48c7:	89 45 e4             	mov    %eax,-0x1c(%ebp)
    48ca:	85 c0                	test   %eax,%eax
    48cc:	75 72                	jne    4940 <fdisk_label_create+0x1d0>
    48ce:	50                   	push   %eax
    48cf:	8d 43 2c             	lea    0x2c(%ebx),%eax
    48d2:	50                   	push   %eax
    48d3:	8b 03                	mov    (%ebx),%eax
    48d5:	8b 53 04             	mov    0x4(%ebx),%edx
    48d8:	8b 48 04             	mov    0x4(%eax),%ecx
    48db:	52                   	push   %edx
    48dc:	51                   	push   %ecx
    48dd:	e8 ae 29 00 00       	call   7290 <vbd_disk_info@plt>
    48e2:	83 c4 10             	add    $0x10,%esp
    48e5:	89 45 e4             	mov    %eax,-0x1c(%ebp)
    48e8:	85 c0                	test   %eax,%eax
    48ea:	0f 85 32 01 00 00    	jne    4a22 <fdisk_label_create+0x2b2>
    48f0:	8b 43 44             	mov    0x44(%ebx),%eax
    48f3:	8b 4b 40             	mov    0x40(%ebx),%ecx
    48f6:	0f af c8             	imul   %eax,%ecx
    48f9:	89 45 e0             	mov    %eax,-0x20(%ebp)
    48fc:	f7 63 3c             	mull   0x3c(%ebx)
    48ff:	01 ca                	add    %ecx,%edx
    4901:	89 c6                	mov    %eax,%esi
    4903:	89 d7                	mov    %edx,%edi
    4905:	0f ac fe 14          	shrd   $0x14,%edi,%esi
    4909:	c1 ef 14             	shr    $0x14,%edi
    490c:	83 ff 00             	cmp    $0x0,%edi
    490f:	76 47                	jbe    4958 <fdisk_label_create+0x1e8>
    4911:	ba 00 00 10 00       	mov    $0x100000,%edx
    4916:	66 90                	xchg   %ax,%ax
    4918:	89 d0                	mov    %edx,%eax
    491a:	31 d2                	xor    %edx,%edx
    491c:	f7 75 e0             	divl   -0x20(%ebp)
    491f:	85 c0                	test   %eax,%eax
    4921:	0f 85 b9 00 00 00    	jne    49e0 <fdisk_label_create+0x270>
    4927:	c7 43 50 01 00 00 00 	movl   $0x1,0x50(%ebx)
    492e:	c7 43 54 00 00 00 00 	movl   $0x0,0x54(%ebx)
    4935:	8b 45 e4             	mov    -0x1c(%ebp),%eax
    4938:	8d 65 f4             	lea    -0xc(%ebp),%esp
    493b:	5b                   	pop    %ebx
    493c:	5e                   	pop    %esi
    493d:	5f                   	pop    %edi
    493e:	5d                   	pop    %ebp
    493f:	c3                   	ret    
    4940:	89 d8                	mov    %ebx,%eax
    4942:	e8 29 f1 ff ff       	call   3a70 <fdisk_dev_add_parts>
    4947:	8b 45 e4             	mov    -0x1c(%ebp),%eax
    494a:	8d 65 f4             	lea    -0xc(%ebp),%esp
    494d:	5b                   	pop    %ebx
    494e:	5e                   	pop    %esi
    494f:	5f                   	pop    %edi
    4950:	5d                   	pop    %ebp
    4951:	c3                   	ret    
    4952:	8d b6 00 00 00 00    	lea    0x0(%esi),%esi
    4958:	81 fe ff 00 00 00    	cmp    $0xff,%esi
    495e:	77 b1                	ja     4911 <fdisk_label_create+0x1a1>
    4960:	89 d7                	mov    %edx,%edi
    4962:	89 c6                	mov    %eax,%esi
    4964:	0f ac fe 10          	shrd   $0x10,%edi,%esi
    4968:	c1 ef 10             	shr    $0x10,%edi
    496b:	83 ff 00             	cmp    $0x0,%edi
    496e:	76 08                	jbe    4978 <fdisk_label_create+0x208>
    4970:	ba 00 00 01 00       	mov    $0x10000,%edx
    4975:	eb a1                	jmp    4918 <fdisk_label_create+0x1a8>
    4977:	90                   	nop
    4978:	81 fe ff 00 00 00    	cmp    $0xff,%esi
    497e:	77 f0                	ja     4970 <fdisk_label_create+0x200>
    4980:	89 d7                	mov    %edx,%edi
    4982:	89 c6                	mov    %eax,%esi
    4984:	0f ac fe 0c          	shrd   $0xc,%edi,%esi
    4988:	c1 ef 0c             	shr    $0xc,%edi
    498b:	83 ff 00             	cmp    $0x0,%edi
    498e:	76 08                	jbe    4998 <fdisk_label_create+0x228>
    4990:	ba 00 10 00 00       	mov    $0x1000,%edx
    4995:	eb 81                	jmp    4918 <fdisk_label_create+0x1a8>
    4997:	90                   	nop
    4998:	81 fe ff 00 00 00    	cmp    $0xff,%esi
    499e:	77 f0                	ja     4990 <fdisk_label_create+0x220>
    49a0:	89 d7                	mov    %edx,%edi
    49a2:	89 c6                	mov    %eax,%esi
    49a4:	0f ac fe 08          	shrd   $0x8,%edi,%esi
    49a8:	c1 ef 08             	shr    $0x8,%edi
    49ab:	83 ff 00             	cmp    $0x0,%edi
    49ae:	76 10                	jbe    49c0 <fdisk_label_create+0x250>
    49b0:	ba 00 01 00 00       	mov    $0x100,%edx
    49b5:	e9 5e ff ff ff       	jmp    4918 <fdisk_label_create+0x1a8>
    49ba:	8d b6 00 00 00 00    	lea    0x0(%esi),%esi
    49c0:	81 fe ff 00 00 00    	cmp    $0xff,%esi
    49c6:	77 e8                	ja     49b0 <fdisk_label_create+0x240>
    49c8:	0f ac d0 04          	shrd   $0x4,%edx,%eax
    49cc:	c1 ea 04             	shr    $0x4,%edx
    49cf:	83 fa 00             	cmp    $0x0,%edx
    49d2:	76 3c                	jbe    4a10 <fdisk_label_create+0x2a0>
    49d4:	ba 10 00 00 00       	mov    $0x10,%edx
    49d9:	e9 3a ff ff ff       	jmp    4918 <fdisk_label_create+0x1a8>
    49de:	66 90                	xchg   %ax,%ax
    49e0:	89 43 50             	mov    %eax,0x50(%ebx)
    49e3:	c7 43 54 00 00 00 00 	movl   $0x0,0x54(%ebx)
    49ea:	8b 45 e4             	mov    -0x1c(%ebp),%eax
    49ed:	8d 65 f4             	lea    -0xc(%ebp),%esp
    49f0:	5b                   	pop    %ebx
    49f1:	5e                   	pop    %esi
    49f2:	5f                   	pop    %edi
    49f3:	5d                   	pop    %ebp
    49f4:	c3                   	ret    
    49f5:	8d 76 00             	lea    0x0(%esi),%esi
    49f8:	c7 45 e4 f7 ff ff ff 	movl   $0xfffffff7,-0x1c(%ebp)
    49ff:	8b 45 e4             	mov    -0x1c(%ebp),%eax
    4a02:	8d 65 f4             	lea    -0xc(%ebp),%esp
    4a05:	5b                   	pop    %ebx
    4a06:	5e                   	pop    %esi
    4a07:	5f                   	pop    %edi
    4a08:	5d                   	pop    %ebp
    4a09:	c3                   	ret    
    4a0a:	8d b6 00 00 00 00    	lea    0x0(%esi),%esi
    4a10:	ba 01 00 00 00       	mov    $0x1,%edx
    4a15:	3d ff 00 00 00       	cmp    $0xff,%eax
    4a1a:	0f 86 f8 fe ff ff    	jbe    4918 <fdisk_label_create+0x1a8>
    4a20:	eb b2                	jmp    49d4 <fdisk_label_create+0x264>
    4a22:	c7 45 e4 f6 fe ff ff 	movl   $0xfffffef6,-0x1c(%ebp)
    4a29:	e9 07 ff ff ff       	jmp    4935 <fdisk_label_create+0x1c5>
    4a2e:	51                   	push   %ecx
    4a2f:	68 4b 02 00 00       	push   $0x24b
    4a34:	68 bc 6d 00 00       	push   $0x6dbc
    4a39:	68 c8 6d 00 00       	push   $0x6dc8
    4a3e:	e8 5d 29 00 00       	call   73a0 <assert_abort@plt>
    4a43:	8d b6 00 00 00 00    	lea    0x0(%esi),%esi
    4a49:	8d bc 27 00 00 00 00 	lea    0x0(%edi,%eiz,1),%edi

00004a50 <fdisk_label_destroy>:
    4a50:	55                   	push   %ebp
    4a51:	89 e5                	mov    %esp,%ebp
    4a53:	57                   	push   %edi
    4a54:	56                   	push   %esi
    4a55:	53                   	push   %ebx
    4a56:	83 ec 0c             	sub    $0xc,%esp
    4a59:	8b 75 08             	mov    0x8(%ebp),%esi
    4a5c:	8b 5e 0c             	mov    0xc(%esi),%ebx
    4a5f:	8d 7e 08             	lea    0x8(%esi),%edi
    4a62:	39 df                	cmp    %ebx,%edi
    4a64:	0f 84 f0 00 00 00    	je     4b5a <fdisk_label_destroy+0x10a>
    4a6a:	8d b6 00 00 00 00    	lea    0x0(%esi),%esi
    4a70:	85 db                	test   %ebx,%ebx
    4a72:	0f 84 e2 00 00 00    	je     4b5a <fdisk_label_destroy+0x10a>
    4a78:	83 eb 04             	sub    $0x4,%ebx
    4a7b:	0f 84 d9 00 00 00    	je     4b5a <fdisk_label_destroy+0x10a>
    4a81:	50                   	push   %eax
    4a82:	50                   	push   %eax
    4a83:	8b 43 40             	mov    0x40(%ebx),%eax
    4a86:	50                   	push   %eax
    4a87:	8b 03                	mov    (%ebx),%eax
    4a89:	8b 00                	mov    (%eax),%eax
    4a8b:	8b 40 04             	mov    0x4(%eax),%eax
    4a8e:	50                   	push   %eax
    4a8f:	e8 7c 27 00 00       	call   7210 <vbd_part_delete@plt>
    4a94:	83 c4 10             	add    $0x10,%esp
    4a97:	85 c0                	test   %eax,%eax
    4a99:	0f 85 19 01 00 00    	jne    4bb8 <fdisk_label_destroy+0x168>
    4a9f:	8b 53 04             	mov    0x4(%ebx),%edx
    4aa2:	85 d2                	test   %edx,%edx
    4aa4:	74 0f                	je     4ab5 <fdisk_label_destroy+0x65>
    4aa6:	8b 43 08             	mov    0x8(%ebx),%eax
    4aa9:	85 c0                	test   %eax,%eax
    4aab:	74 08                	je     4ab5 <fdisk_label_destroy+0x65>
    4aad:	89 10                	mov    %edx,(%eax)
    4aaf:	8b 53 04             	mov    0x4(%ebx),%edx
    4ab2:	89 42 04             	mov    %eax,0x4(%edx)
    4ab5:	8b 53 14             	mov    0x14(%ebx),%edx
    4ab8:	c7 43 04 00 00 00 00 	movl   $0x0,0x4(%ebx)
    4abf:	c7 43 08 00 00 00 00 	movl   $0x0,0x8(%ebx)
    4ac6:	85 d2                	test   %edx,%edx
    4ac8:	0f 84 ba 00 00 00    	je     4b88 <fdisk_label_destroy+0x138>
    4ace:	8b 43 18             	mov    0x18(%ebx),%eax
    4ad1:	85 c0                	test   %eax,%eax
    4ad3:	0f 84 ba 00 00 00    	je     4b93 <fdisk_label_destroy+0x143>
    4ad9:	89 10                	mov    %edx,(%eax)
    4adb:	8b 53 14             	mov    0x14(%ebx),%edx
    4ade:	89 42 04             	mov    %eax,0x4(%edx)
    4ae1:	c7 43 14 00 00 00 00 	movl   $0x0,0x14(%ebx)
    4ae8:	c7 43 18 00 00 00 00 	movl   $0x0,0x18(%ebx)
    4aef:	8b 53 0c             	mov    0xc(%ebx),%edx
    4af2:	85 d2                	test   %edx,%edx
    4af4:	0f 84 9e 00 00 00    	je     4b98 <fdisk_label_destroy+0x148>
    4afa:	8b 43 10             	mov    0x10(%ebx),%eax
    4afd:	85 c0                	test   %eax,%eax
    4aff:	0f 84 8e 00 00 00    	je     4b93 <fdisk_label_destroy+0x143>
    4b05:	89 10                	mov    %edx,(%eax)
    4b07:	8b 53 0c             	mov    0xc(%ebx),%edx
    4b0a:	89 42 04             	mov    %eax,0x4(%edx)
    4b0d:	c7 43 0c 00 00 00 00 	movl   $0x0,0xc(%ebx)
    4b14:	c7 43 10 00 00 00 00 	movl   $0x0,0x10(%ebx)
    4b1b:	8b 53 1c             	mov    0x1c(%ebx),%edx
    4b1e:	85 d2                	test   %edx,%edx
    4b20:	0f 84 82 00 00 00    	je     4ba8 <fdisk_label_destroy+0x158>
    4b26:	8b 43 20             	mov    0x20(%ebx),%eax
    4b29:	85 c0                	test   %eax,%eax
    4b2b:	74 66                	je     4b93 <fdisk_label_destroy+0x143>
    4b2d:	89 10                	mov    %edx,(%eax)
    4b2f:	8b 53 1c             	mov    0x1c(%ebx),%edx
    4b32:	89 42 04             	mov    %eax,0x4(%edx)
    4b35:	c7 43 1c 00 00 00 00 	movl   $0x0,0x1c(%ebx)
    4b3c:	c7 43 20 00 00 00 00 	movl   $0x0,0x20(%ebx)
    4b43:	83 ec 0c             	sub    $0xc,%esp
    4b46:	53                   	push   %ebx
    4b47:	e8 a4 2a 00 00       	call   75f0 <free@plt>
    4b4c:	8b 5e 0c             	mov    0xc(%esi),%ebx
    4b4f:	83 c4 10             	add    $0x10,%esp
    4b52:	39 df                	cmp    %ebx,%edi
    4b54:	0f 85 16 ff ff ff    	jne    4a70 <fdisk_label_destroy+0x20>
    4b5a:	50                   	push   %eax
    4b5b:	50                   	push   %eax
    4b5c:	8b 06                	mov    (%esi),%eax
    4b5e:	8b 56 04             	mov    0x4(%esi),%edx
    4b61:	52                   	push   %edx
    4b62:	8b 48 04             	mov    0x4(%eax),%ecx
    4b65:	51                   	push   %ecx
    4b66:	e8 95 27 00 00       	call   7300 <vbd_label_delete@plt>
    4b6b:	83 c4 10             	add    $0x10,%esp
    4b6e:	85 c0                	test   %eax,%eax
    4b70:	75 46                	jne    4bb8 <fdisk_label_destroy+0x168>
    4b72:	89 f0                	mov    %esi,%eax
    4b74:	e8 f7 ee ff ff       	call   3a70 <fdisk_dev_add_parts>
    4b79:	85 c0                	test   %eax,%eax
    4b7b:	74 4b                	je     4bc8 <fdisk_label_destroy+0x178>
    4b7d:	8d 65 f4             	lea    -0xc(%ebp),%esp
    4b80:	5b                   	pop    %ebx
    4b81:	5e                   	pop    %esi
    4b82:	5f                   	pop    %edi
    4b83:	5d                   	pop    %ebp
    4b84:	c3                   	ret    
    4b85:	8d 76 00             	lea    0x0(%esi),%esi
    4b88:	8b 43 18             	mov    0x18(%ebx),%eax
    4b8b:	85 c0                	test   %eax,%eax
    4b8d:	0f 84 5c ff ff ff    	je     4aef <fdisk_label_destroy+0x9f>
    4b93:	e8 df 12 00 00       	call   5e77 <link_used.part.2>
    4b98:	8b 43 10             	mov    0x10(%ebx),%eax
    4b9b:	85 c0                	test   %eax,%eax
    4b9d:	0f 84 78 ff ff ff    	je     4b1b <fdisk_label_destroy+0xcb>
    4ba3:	e8 cf 12 00 00       	call   5e77 <link_used.part.2>
    4ba8:	8b 4b 20             	mov    0x20(%ebx),%ecx
    4bab:	85 c9                	test   %ecx,%ecx
    4bad:	74 94                	je     4b43 <fdisk_label_destroy+0xf3>
    4baf:	e8 c3 12 00 00       	call   5e77 <link_used.part.2>
    4bb4:	8d 74 26 00          	lea    0x0(%esi,%eiz,1),%esi
    4bb8:	8d 65 f4             	lea    -0xc(%ebp),%esp
    4bbb:	b8 f6 fe ff ff       	mov    $0xfffffef6,%eax
    4bc0:	5b                   	pop    %ebx
    4bc1:	5e                   	pop    %esi
    4bc2:	5f                   	pop    %edi
    4bc3:	5d                   	pop    %ebp
    4bc4:	c3                   	ret    
    4bc5:	8d 76 00             	lea    0x0(%esi),%esi
    4bc8:	8b 56 2c             	mov    0x2c(%esi),%edx
    4bcb:	85 d2                	test   %edx,%edx
    4bcd:	75 ae                	jne    4b7d <fdisk_label_destroy+0x12d>
    4bcf:	8b 56 0c             	mov    0xc(%esi),%edx
    4bd2:	39 d7                	cmp    %edx,%edi
    4bd4:	74 39                	je     4c0f <fdisk_label_destroy+0x1bf>
    4bd6:	85 d2                	test   %edx,%edx
    4bd8:	74 35                	je     4c0f <fdisk_label_destroy+0x1bf>
    4bda:	83 ea 04             	sub    $0x4,%edx
    4bdd:	89 d3                	mov    %edx,%ebx
    4bdf:	74 2e                	je     4c0f <fdisk_label_destroy+0x1bf>
    4be1:	8b 7a 38             	mov    0x38(%edx),%edi
    4be4:	85 ff                	test   %edi,%edi
    4be6:	74 95                	je     4b7d <fdisk_label_destroy+0x12d>
    4be8:	50                   	push   %eax
    4be9:	50                   	push   %eax
    4bea:	8b 06                	mov    (%esi),%eax
    4bec:	8b 52 58             	mov    0x58(%edx),%edx
    4bef:	52                   	push   %edx
    4bf0:	8b 08                	mov    (%eax),%ecx
    4bf2:	51                   	push   %ecx
    4bf3:	e8 c8 26 00 00       	call   72c0 <vol_part_empty@plt>
    4bf8:	83 c4 10             	add    $0x10,%esp
    4bfb:	85 c0                	test   %eax,%eax
    4bfd:	0f 85 7a ff ff ff    	jne    4b7d <fdisk_label_destroy+0x12d>
    4c03:	c7 43 38 00 00 00 00 	movl   $0x0,0x38(%ebx)
    4c0a:	e9 6e ff ff ff       	jmp    4b7d <fdisk_label_destroy+0x12d>
    4c0f:	50                   	push   %eax
    4c10:	68 fb 01 00 00       	push   $0x1fb
    4c15:	68 bc 6d 00 00       	push   $0x6dbc
    4c1a:	68 c8 6d 00 00       	push   $0x6dc8
    4c1f:	e8 7c 27 00 00       	call   73a0 <assert_abort@plt>
    4c24:	8d b6 00 00 00 00    	lea    0x0(%esi),%esi
    4c2a:	8d bf 00 00 00 00    	lea    0x0(%edi),%edi

00004c30 <fdisk_part_first>:
    4c30:	55                   	push   %ebp
    4c31:	89 e5                	mov    %esp,%ebp
    4c33:	8b 55 08             	mov    0x8(%ebp),%edx
    4c36:	8b 42 0c             	mov    0xc(%edx),%eax
    4c39:	85 c0                	test   %eax,%eax
    4c3b:	74 0c                	je     4c49 <fdisk_part_first+0x19>
    4c3d:	83 c2 08             	add    $0x8,%edx
    4c40:	39 d0                	cmp    %edx,%eax
    4c42:	74 05                	je     4c49 <fdisk_part_first+0x19>
    4c44:	83 e8 04             	sub    $0x4,%eax
    4c47:	5d                   	pop    %ebp
    4c48:	c3                   	ret    
    4c49:	31 c0                	xor    %eax,%eax
    4c4b:	5d                   	pop    %ebp
    4c4c:	c3                   	ret    
    4c4d:	8d 76 00             	lea    0x0(%esi),%esi

00004c50 <fdisk_part_next>:
    4c50:	55                   	push   %ebp
    4c51:	89 e5                	mov    %esp,%ebp
    4c53:	8b 55 08             	mov    0x8(%ebp),%edx
    4c56:	8b 42 08             	mov    0x8(%edx),%eax
    4c59:	8b 12                	mov    (%edx),%edx
    4c5b:	83 c2 08             	add    $0x8,%edx
    4c5e:	39 d0                	cmp    %edx,%eax
    4c60:	74 09                	je     4c6b <fdisk_part_next+0x1b>
    4c62:	85 c0                	test   %eax,%eax
    4c64:	74 05                	je     4c6b <fdisk_part_next+0x1b>
    4c66:	83 e8 04             	sub    $0x4,%eax
    4c69:	5d                   	pop    %ebp
    4c6a:	c3                   	ret    
    4c6b:	31 c0                	xor    %eax,%eax
    4c6d:	5d                   	pop    %ebp
    4c6e:	c3                   	ret    
    4c6f:	90                   	nop

00004c70 <fdisk_part_get_info>:
    4c70:	55                   	push   %ebp
    4c71:	89 e5                	mov    %esp,%ebp
    4c73:	8b 55 08             	mov    0x8(%ebp),%edx
    4c76:	8b 45 0c             	mov    0xc(%ebp),%eax
    4c79:	8b 4a 24             	mov    0x24(%edx),%ecx
    4c7c:	89 08                	mov    %ecx,(%eax)
    4c7e:	8b 4a 28             	mov    0x28(%edx),%ecx
    4c81:	89 48 04             	mov    %ecx,0x4(%eax)
    4c84:	8b 4a 2c             	mov    0x2c(%edx),%ecx
    4c87:	89 48 08             	mov    %ecx,0x8(%eax)
    4c8a:	8b 4a 30             	mov    0x30(%edx),%ecx
    4c8d:	89 48 0c             	mov    %ecx,0xc(%eax)
    4c90:	8b 4a 38             	mov    0x38(%edx),%ecx
    4c93:	89 48 14             	mov    %ecx,0x14(%eax)
    4c96:	8b 4a 3c             	mov    0x3c(%edx),%ecx
    4c99:	8b 52 34             	mov    0x34(%edx),%edx
    4c9c:	89 48 18             	mov    %ecx,0x18(%eax)
    4c9f:	89 50 10             	mov    %edx,0x10(%eax)
    4ca2:	31 c0                	xor    %eax,%eax
    4ca4:	5d                   	pop    %ebp
    4ca5:	c3                   	ret    
    4ca6:	8d 76 00             	lea    0x0(%esi),%esi
    4ca9:	8d bc 27 00 00 00 00 	lea    0x0(%edi,%eiz,1),%edi

00004cb0 <fdisk_part_get_max_avail>:
    4cb0:	55                   	push   %ebp
    4cb1:	89 e5                	mov    %esp,%ebp
    4cb3:	57                   	push   %edi
    4cb4:	56                   	push   %esi
    4cb5:	53                   	push   %ebx
    4cb6:	83 ec 38             	sub    $0x38,%esp
    4cb9:	8d 45 e0             	lea    -0x20(%ebp),%eax
    4cbc:	8d 4d d8             	lea    -0x28(%ebp),%ecx
    4cbf:	8b 55 0c             	mov    0xc(%ebp),%edx
    4cc2:	50                   	push   %eax
    4cc3:	8b 45 08             	mov    0x8(%ebp),%eax
    4cc6:	e8 a5 ea ff ff       	call   3770 <fdisk_part_get_max_free_range>
    4ccb:	83 c4 10             	add    $0x10,%esp
    4cce:	85 c0                	test   %eax,%eax
    4cd0:	75 27                	jne    4cf9 <fdisk_part_get_max_avail+0x49>
    4cd2:	83 7d 0c 01          	cmpl   $0x1,0xc(%ebp)
    4cd6:	74 30                	je     4d08 <fdisk_part_get_max_avail+0x58>
    4cd8:	8b 4d e0             	mov    -0x20(%ebp),%ecx
    4cdb:	8b 5d e4             	mov    -0x1c(%ebp),%ebx
    4cde:	89 45 d4             	mov    %eax,-0x2c(%ebp)
    4ce1:	8b 45 10             	mov    0x10(%ebp),%eax
    4ce4:	50                   	push   %eax
    4ce5:	8b 45 08             	mov    0x8(%ebp),%eax
    4ce8:	8b 50 44             	mov    0x44(%eax),%edx
    4ceb:	52                   	push   %edx
    4cec:	53                   	push   %ebx
    4ced:	51                   	push   %ecx
    4cee:	e8 ad 11 00 00       	call   5ea0 <fdisk_cap_from_blocks>
    4cf3:	83 c4 10             	add    $0x10,%esp
    4cf6:	8b 45 d4             	mov    -0x2c(%ebp),%eax
    4cf9:	8d 65 f4             	lea    -0xc(%ebp),%esp
    4cfc:	5b                   	pop    %ebx
    4cfd:	5e                   	pop    %esi
    4cfe:	5f                   	pop    %edi
    4cff:	5d                   	pop    %ebp
    4d00:	c3                   	ret    
    4d01:	8d b4 26 00 00 00 00 	lea    0x0(%esi,%eiz,1),%esi
    4d08:	8b 5d 08             	mov    0x8(%ebp),%ebx
    4d0b:	8b 7b 54             	mov    0x54(%ebx),%edi
    4d0e:	8b 73 50             	mov    0x50(%ebx),%esi
    4d11:	89 f9                	mov    %edi,%ecx
    4d13:	09 f1                	or     %esi,%ecx
    4d15:	74 19                	je     4d30 <fdisk_part_get_max_avail+0x80>
    4d17:	8b 5d e4             	mov    -0x1c(%ebp),%ebx
    4d1a:	8b 4d e0             	mov    -0x20(%ebp),%ecx
    4d1d:	39 df                	cmp    %ebx,%edi
    4d1f:	77 06                	ja     4d27 <fdisk_part_get_max_avail+0x77>
    4d21:	72 25                	jb     4d48 <fdisk_part_get_max_avail+0x98>
    4d23:	39 ce                	cmp    %ecx,%esi
    4d25:	72 21                	jb     4d48 <fdisk_part_get_max_avail+0x98>
    4d27:	b8 fd fe ff ff       	mov    $0xfffffefd,%eax
    4d2c:	eb cb                	jmp    4cf9 <fdisk_part_get_max_avail+0x49>
    4d2e:	66 90                	xchg   %ax,%ax
    4d30:	31 ff                	xor    %edi,%edi
    4d32:	8b 5d e4             	mov    -0x1c(%ebp),%ebx
    4d35:	be 01 00 00 00       	mov    $0x1,%esi
    4d3a:	8b 4d e0             	mov    -0x20(%ebp),%ecx
    4d3d:	39 df                	cmp    %ebx,%edi
    4d3f:	77 e6                	ja     4d27 <fdisk_part_get_max_avail+0x77>
    4d41:	eb de                	jmp    4d21 <fdisk_part_get_max_avail+0x71>
    4d43:	90                   	nop
    4d44:	8d 74 26 00          	lea    0x0(%esi,%eiz,1),%esi
    4d48:	29 f1                	sub    %esi,%ecx
    4d4a:	19 fb                	sbb    %edi,%ebx
    4d4c:	89 4d e0             	mov    %ecx,-0x20(%ebp)
    4d4f:	89 5d e4             	mov    %ebx,-0x1c(%ebp)
    4d52:	eb 8a                	jmp    4cde <fdisk_part_get_max_avail+0x2e>
    4d54:	8d b6 00 00 00 00    	lea    0x0(%esi),%esi
    4d5a:	8d bf 00 00 00 00    	lea    0x0(%edi),%edi

00004d60 <fdisk_part_get_tot_avail>:
    4d60:	55                   	push   %ebp
    4d61:	89 e5                	mov    %esp,%ebp
    4d63:	57                   	push   %edi
    4d64:	56                   	push   %esi
    4d65:	53                   	push   %ebx
    4d66:	83 ec 4c             	sub    $0x4c,%esp
    4d69:	8b 45 0c             	mov    0xc(%ebp),%eax
    4d6c:	83 f8 01             	cmp    $0x1,%eax
    4d6f:	0f 84 7b 02 00 00    	je     4ff0 <fdisk_part_get_tot_avail+0x290>
    4d75:	85 c0                	test   %eax,%eax
    4d77:	0f 85 03 03 00 00    	jne    5080 <fdisk_part_get_tot_avail+0x320>
    4d7d:	8b 45 08             	mov    0x8(%ebp),%eax
    4d80:	8b 7d 08             	mov    0x8(%ebp),%edi
    4d83:	8b 50 54             	mov    0x54(%eax),%edx
    4d86:	8b 40 50             	mov    0x50(%eax),%eax
    4d89:	89 c3                	mov    %eax,%ebx
    4d8b:	89 45 d0             	mov    %eax,-0x30(%ebp)
    4d8e:	03 47 34             	add    0x34(%edi),%eax
    4d91:	89 d6                	mov    %edx,%esi
    4d93:	89 55 d4             	mov    %edx,-0x2c(%ebp)
    4d96:	13 57 38             	adc    0x38(%edi),%edx
    4d99:	83 c0 ff             	add    $0xffffffff,%eax
    4d9c:	83 d2 ff             	adc    $0xffffffff,%edx
    4d9f:	56                   	push   %esi
    4da0:	53                   	push   %ebx
    4da1:	52                   	push   %edx
    4da2:	50                   	push   %eax
    4da3:	e8 b8 25 00 00       	call   7360 <__udivdi3@plt>
    4da8:	89 f1                	mov    %esi,%ecx
    4daa:	89 c7                	mov    %eax,%edi
    4dac:	0f af d3             	imul   %ebx,%edx
    4daf:	0f af cf             	imul   %edi,%ecx
    4db2:	89 f8                	mov    %edi,%eax
    4db4:	01 d1                	add    %edx,%ecx
    4db6:	f7 e3                	mul    %ebx
    4db8:	89 55 dc             	mov    %edx,-0x24(%ebp)
    4dbb:	89 45 d8             	mov    %eax,-0x28(%ebp)
    4dbe:	8b 45 08             	mov    0x8(%ebp),%eax
    4dc1:	8b 7d dc             	mov    -0x24(%ebp),%edi
    4dc4:	01 cf                	add    %ecx,%edi
    4dc6:	83 c4 10             	add    $0x10,%esp
    4dc9:	8b 70 1c             	mov    0x1c(%eax),%esi
    4dcc:	89 7d dc             	mov    %edi,-0x24(%ebp)
    4dcf:	85 f6                	test   %esi,%esi
    4dd1:	0f 84 fd 02 00 00    	je     50d4 <fdisk_part_get_tot_avail+0x374>
    4dd7:	83 c0 18             	add    $0x18,%eax
    4dda:	39 c6                	cmp    %eax,%esi
    4ddc:	0f 84 f2 02 00 00    	je     50d4 <fdisk_part_get_tot_avail+0x374>
    4de2:	83 ee 14             	sub    $0x14,%esi
    4de5:	c7 45 e0 00 00 00 00 	movl   $0x0,-0x20(%ebp)
    4dec:	c7 45 c8 00 00 00 00 	movl   $0x0,-0x38(%ebp)
    4df3:	c7 45 cc 00 00 00 00 	movl   $0x0,-0x34(%ebp)
    4dfa:	8b 45 d0             	mov    -0x30(%ebp),%eax
    4dfd:	8b 55 d4             	mov    -0x2c(%ebp),%edx
    4e00:	83 c0 ff             	add    $0xffffffff,%eax
    4e03:	c7 45 b8 00 00 00 00 	movl   $0x0,-0x48(%ebp)
    4e0a:	89 45 c0             	mov    %eax,-0x40(%ebp)
    4e0d:	8b 45 08             	mov    0x8(%ebp),%eax
    4e10:	83 d2 ff             	adc    $0xffffffff,%edx
    4e13:	83 c0 20             	add    $0x20,%eax
    4e16:	89 45 b4             	mov    %eax,-0x4c(%ebp)
    4e19:	8b 45 08             	mov    0x8(%ebp),%eax
    4e1c:	83 c0 18             	add    $0x18,%eax
    4e1f:	c7 45 bc 00 00 00 00 	movl   $0x0,-0x44(%ebp)
    4e26:	89 45 b0             	mov    %eax,-0x50(%ebp)
    4e29:	89 55 c4             	mov    %edx,-0x3c(%ebp)
    4e2c:	89 75 e4             	mov    %esi,-0x1c(%ebp)
    4e2f:	89 f0                	mov    %esi,%eax
    4e31:	85 c0                	test   %eax,%eax
    4e33:	0f 84 d5 00 00 00    	je     4f0e <fdisk_part_get_tot_avail+0x1ae>
    4e39:	8b 70 48             	mov    0x48(%eax),%esi
    4e3c:	8b 78 4c             	mov    0x4c(%eax),%edi
    4e3f:	8b 4d d4             	mov    -0x2c(%ebp),%ecx
    4e42:	8b 5d d0             	mov    -0x30(%ebp),%ebx
    4e45:	51                   	push   %ecx
    4e46:	53                   	push   %ebx
    4e47:	57                   	push   %edi
    4e48:	56                   	push   %esi
    4e49:	e8 f2 24 00 00       	call   7340 <__umoddi3@plt>
    4e4e:	89 f1                	mov    %esi,%ecx
    4e50:	83 c4 10             	add    $0x10,%esp
    4e53:	89 fb                	mov    %edi,%ebx
    4e55:	29 c1                	sub    %eax,%ecx
    4e57:	8b 45 d8             	mov    -0x28(%ebp),%eax
    4e5a:	19 d3                	sbb    %edx,%ebx
    4e5c:	8b 55 dc             	mov    -0x24(%ebp),%edx
    4e5f:	39 d3                	cmp    %edx,%ebx
    4e61:	72 47                	jb     4eaa <fdisk_part_get_tot_avail+0x14a>
    4e63:	77 04                	ja     4e69 <fdisk_part_get_tot_avail+0x109>
    4e65:	39 c1                	cmp    %eax,%ecx
    4e67:	72 41                	jb     4eaa <fdisk_part_get_tot_avail+0x14a>
    4e69:	2b 4d d8             	sub    -0x28(%ebp),%ecx
    4e6c:	8b 55 cc             	mov    -0x34(%ebp),%edx
    4e6f:	1b 5d dc             	sbb    -0x24(%ebp),%ebx
    4e72:	8b 45 c8             	mov    -0x38(%ebp),%eax
    4e75:	39 d3                	cmp    %edx,%ebx
    4e77:	77 07                	ja     4e80 <fdisk_part_get_tot_avail+0x120>
    4e79:	72 26                	jb     4ea1 <fdisk_part_get_tot_avail+0x141>
    4e7b:	39 c1                	cmp    %eax,%ecx
    4e7d:	76 22                	jbe    4ea1 <fdisk_part_get_tot_avail+0x141>
    4e7f:	90                   	nop
    4e80:	8b 45 b8             	mov    -0x48(%ebp),%eax
    4e83:	8b 55 bc             	mov    -0x44(%ebp),%edx
    4e86:	2b 45 c8             	sub    -0x38(%ebp),%eax
    4e89:	1b 55 cc             	sbb    -0x34(%ebp),%edx
    4e8c:	01 c1                	add    %eax,%ecx
    4e8e:	11 d3                	adc    %edx,%ebx
    4e90:	8b 45 e4             	mov    -0x1c(%ebp),%eax
    4e93:	89 4d b8             	mov    %ecx,-0x48(%ebp)
    4e96:	89 5d bc             	mov    %ebx,-0x44(%ebp)
    4e99:	85 c0                	test   %eax,%eax
    4e9b:	0f 84 f5 00 00 00    	je     4f96 <fdisk_part_get_tot_avail+0x236>
    4ea1:	8b 45 e4             	mov    -0x1c(%ebp),%eax
    4ea4:	8b 70 48             	mov    0x48(%eax),%esi
    4ea7:	8b 78 4c             	mov    0x4c(%eax),%edi
    4eaa:	89 f0                	mov    %esi,%eax
    4eac:	89 fa                	mov    %edi,%edx
    4eae:	03 45 c0             	add    -0x40(%ebp),%eax
    4eb1:	8b 7d e4             	mov    -0x1c(%ebp),%edi
    4eb4:	13 55 c4             	adc    -0x3c(%ebp),%edx
    4eb7:	03 47 50             	add    0x50(%edi),%eax
    4eba:	13 57 54             	adc    0x54(%edi),%edx
    4ebd:	8b 5d d0             	mov    -0x30(%ebp),%ebx
    4ec0:	8b 75 d4             	mov    -0x2c(%ebp),%esi
    4ec3:	56                   	push   %esi
    4ec4:	53                   	push   %ebx
    4ec5:	52                   	push   %edx
    4ec6:	50                   	push   %eax
    4ec7:	e8 94 24 00 00       	call   7360 <__udivdi3@plt>
    4ecc:	89 f1                	mov    %esi,%ecx
    4ece:	0f af d3             	imul   %ebx,%edx
    4ed1:	0f af c8             	imul   %eax,%ecx
    4ed4:	01 d1                	add    %edx,%ecx
    4ed6:	83 c4 10             	add    $0x10,%esp
    4ed9:	f7 e3                	mul    %ebx
    4edb:	89 55 dc             	mov    %edx,-0x24(%ebp)
    4ede:	89 45 d8             	mov    %eax,-0x28(%ebp)
    4ee1:	8b 75 dc             	mov    -0x24(%ebp),%esi
    4ee4:	8b 45 e0             	mov    -0x20(%ebp),%eax
    4ee7:	01 ce                	add    %ecx,%esi
    4ee9:	85 c0                	test   %eax,%eax
    4eeb:	89 75 dc             	mov    %esi,-0x24(%ebp)
    4eee:	0f 85 84 00 00 00    	jne    4f78 <fdisk_part_get_tot_avail+0x218>
    4ef4:	8b 77 18             	mov    0x18(%edi),%esi
    4ef7:	3b 75 b0             	cmp    -0x50(%ebp),%esi
    4efa:	74 24                	je     4f20 <fdisk_part_get_tot_avail+0x1c0>
    4efc:	85 f6                	test   %esi,%esi
    4efe:	74 20                	je     4f20 <fdisk_part_get_tot_avail+0x1c0>
    4f00:	8d 46 ec             	lea    -0x14(%esi),%eax
    4f03:	89 45 e4             	mov    %eax,-0x1c(%ebp)
    4f06:	85 c0                	test   %eax,%eax
    4f08:	0f 85 2b ff ff ff    	jne    4e39 <fdisk_part_get_tot_avail+0xd9>
    4f0e:	8b 55 e0             	mov    -0x20(%ebp),%edx
    4f11:	85 d2                	test   %edx,%edx
    4f13:	0f 85 9f 00 00 00    	jne    4fb8 <fdisk_part_get_tot_avail+0x258>
    4f19:	8d b4 26 00 00 00 00 	lea    0x0(%esi,%eiz,1),%esi
    4f20:	8b 45 08             	mov    0x8(%ebp),%eax
    4f23:	8b 70 3c             	mov    0x3c(%eax),%esi
    4f26:	8b 78 40             	mov    0x40(%eax),%edi
    4f29:	03 70 34             	add    0x34(%eax),%esi
    4f2c:	13 78 38             	adc    0x38(%eax),%edi
    4f2f:	8b 45 d4             	mov    -0x2c(%ebp),%eax
    4f32:	50                   	push   %eax
    4f33:	8b 45 d0             	mov    -0x30(%ebp),%eax
    4f36:	50                   	push   %eax
    4f37:	57                   	push   %edi
    4f38:	56                   	push   %esi
    4f39:	e8 02 24 00 00       	call   7340 <__umoddi3@plt>
    4f3e:	89 f1                	mov    %esi,%ecx
    4f40:	83 c4 10             	add    $0x10,%esp
    4f43:	89 fb                	mov    %edi,%ebx
    4f45:	29 c1                	sub    %eax,%ecx
    4f47:	19 d3                	sbb    %edx,%ebx
    4f49:	8b 55 dc             	mov    -0x24(%ebp),%edx
    4f4c:	8b 45 d8             	mov    -0x28(%ebp),%eax
    4f4f:	39 da                	cmp    %ebx,%edx
    4f51:	77 43                	ja     4f96 <fdisk_part_get_tot_avail+0x236>
    4f53:	0f 83 87 00 00 00    	jae    4fe0 <fdisk_part_get_tot_avail+0x280>
    4f59:	2b 4d d8             	sub    -0x28(%ebp),%ecx
    4f5c:	8b 55 cc             	mov    -0x34(%ebp),%edx
    4f5f:	1b 5d dc             	sbb    -0x24(%ebp),%ebx
    4f62:	8b 45 c8             	mov    -0x38(%ebp),%eax
    4f65:	39 d3                	cmp    %edx,%ebx
    4f67:	76 27                	jbe    4f90 <fdisk_part_get_tot_avail+0x230>
    4f69:	c7 45 e4 00 00 00 00 	movl   $0x0,-0x1c(%ebp)
    4f70:	e9 0b ff ff ff       	jmp    4e80 <fdisk_part_get_tot_avail+0x120>
    4f75:	8d 76 00             	lea    0x0(%esi),%esi
    4f78:	8b 77 20             	mov    0x20(%edi),%esi
    4f7b:	3b 75 b4             	cmp    -0x4c(%ebp),%esi
    4f7e:	74 38                	je     4fb8 <fdisk_part_get_tot_avail+0x258>
    4f80:	85 f6                	test   %esi,%esi
    4f82:	74 34                	je     4fb8 <fdisk_part_get_tot_avail+0x258>
    4f84:	8d 46 e4             	lea    -0x1c(%esi),%eax
    4f87:	89 45 e4             	mov    %eax,-0x1c(%ebp)
    4f8a:	e9 a2 fe ff ff       	jmp    4e31 <fdisk_part_get_tot_avail+0xd1>
    4f8f:	90                   	nop
    4f90:	0f 83 2a 01 00 00    	jae    50c0 <fdisk_part_get_tot_avail+0x360>
    4f96:	8b 45 10             	mov    0x10(%ebp),%eax
    4f99:	8b 5d b8             	mov    -0x48(%ebp),%ebx
    4f9c:	50                   	push   %eax
    4f9d:	8b 45 08             	mov    0x8(%ebp),%eax
    4fa0:	8b 4d bc             	mov    -0x44(%ebp),%ecx
    4fa3:	8b 50 44             	mov    0x44(%eax),%edx
    4fa6:	52                   	push   %edx
    4fa7:	51                   	push   %ecx
    4fa8:	53                   	push   %ebx
    4fa9:	e8 f2 0e 00 00       	call   5ea0 <fdisk_cap_from_blocks>
    4fae:	8d 65 f4             	lea    -0xc(%ebp),%esp
    4fb1:	31 c0                	xor    %eax,%eax
    4fb3:	5b                   	pop    %ebx
    4fb4:	5e                   	pop    %esi
    4fb5:	5f                   	pop    %edi
    4fb6:	5d                   	pop    %ebp
    4fb7:	c3                   	ret    
    4fb8:	8b 45 08             	mov    0x8(%ebp),%eax
    4fbb:	8b 40 28             	mov    0x28(%eax),%eax
    4fbe:	8b 70 50             	mov    0x50(%eax),%esi
    4fc1:	8b 78 54             	mov    0x54(%eax),%edi
    4fc4:	03 70 48             	add    0x48(%eax),%esi
    4fc7:	13 78 4c             	adc    0x4c(%eax),%edi
    4fca:	8b 45 d4             	mov    -0x2c(%ebp),%eax
    4fcd:	50                   	push   %eax
    4fce:	8b 45 d0             	mov    -0x30(%ebp),%eax
    4fd1:	50                   	push   %eax
    4fd2:	57                   	push   %edi
    4fd3:	56                   	push   %esi
    4fd4:	e8 67 23 00 00       	call   7340 <__umoddi3@plt>
    4fd9:	e9 60 ff ff ff       	jmp    4f3e <fdisk_part_get_tot_avail+0x1de>
    4fde:	66 90                	xchg   %ax,%ax
    4fe0:	39 c8                	cmp    %ecx,%eax
    4fe2:	77 b2                	ja     4f96 <fdisk_part_get_tot_avail+0x236>
    4fe4:	e9 70 ff ff ff       	jmp    4f59 <fdisk_part_get_tot_avail+0x1f9>
    4fe9:	8d b4 26 00 00 00 00 	lea    0x0(%esi,%eiz,1),%esi
    4ff0:	8b 45 08             	mov    0x8(%ebp),%eax
    4ff3:	8b 50 54             	mov    0x54(%eax),%edx
    4ff6:	8b 40 50             	mov    0x50(%eax),%eax
    4ff9:	89 55 d4             	mov    %edx,-0x2c(%ebp)
    4ffc:	89 55 cc             	mov    %edx,-0x34(%ebp)
    4fff:	89 45 d0             	mov    %eax,-0x30(%ebp)
    5002:	89 45 c8             	mov    %eax,-0x38(%ebp)
    5005:	09 c2                	or     %eax,%edx
    5007:	0f 84 9b 00 00 00    	je     50a8 <fdisk_part_get_tot_avail+0x348>
    500d:	c7 45 e0 01 00 00 00 	movl   $0x1,-0x20(%ebp)
    5014:	8b 45 08             	mov    0x8(%ebp),%eax
    5017:	8b 5d d0             	mov    -0x30(%ebp),%ebx
    501a:	8b 75 d4             	mov    -0x2c(%ebp),%esi
    501d:	8b 40 28             	mov    0x28(%eax),%eax
    5020:	03 58 48             	add    0x48(%eax),%ebx
    5023:	13 70 4c             	adc    0x4c(%eax),%esi
    5026:	89 d8                	mov    %ebx,%eax
    5028:	83 c0 ff             	add    $0xffffffff,%eax
    502b:	89 f2                	mov    %esi,%edx
    502d:	83 d2 ff             	adc    $0xffffffff,%edx
    5030:	8b 5d d0             	mov    -0x30(%ebp),%ebx
    5033:	8b 75 d4             	mov    -0x2c(%ebp),%esi
    5036:	56                   	push   %esi
    5037:	53                   	push   %ebx
    5038:	52                   	push   %edx
    5039:	50                   	push   %eax
    503a:	e8 21 23 00 00       	call   7360 <__udivdi3@plt>
    503f:	89 f1                	mov    %esi,%ecx
    5041:	89 c7                	mov    %eax,%edi
    5043:	83 c4 10             	add    $0x10,%esp
    5046:	0f af d3             	imul   %ebx,%edx
    5049:	0f af cf             	imul   %edi,%ecx
    504c:	89 f8                	mov    %edi,%eax
    504e:	01 d1                	add    %edx,%ecx
    5050:	f7 e3                	mul    %ebx
    5052:	89 55 dc             	mov    %edx,-0x24(%ebp)
    5055:	89 45 d8             	mov    %eax,-0x28(%ebp)
    5058:	8b 75 dc             	mov    -0x24(%ebp),%esi
    505b:	8b 45 08             	mov    0x8(%ebp),%eax
    505e:	01 ce                	add    %ecx,%esi
    5060:	83 c0 20             	add    $0x20,%eax
    5063:	89 75 dc             	mov    %esi,-0x24(%ebp)
    5066:	8b 70 04             	mov    0x4(%eax),%esi
    5069:	39 c6                	cmp    %eax,%esi
    506b:	74 60                	je     50cd <fdisk_part_get_tot_avail+0x36d>
    506d:	85 f6                	test   %esi,%esi
    506f:	74 5c                	je     50cd <fdisk_part_get_tot_avail+0x36d>
    5071:	83 ee 1c             	sub    $0x1c,%esi
    5074:	e9 81 fd ff ff       	jmp    4dfa <fdisk_part_get_tot_avail+0x9a>
    5079:	8d b4 26 00 00 00 00 	lea    0x0(%esi,%eiz,1),%esi
    5080:	8b 7d 08             	mov    0x8(%ebp),%edi
    5083:	89 45 e0             	mov    %eax,-0x20(%ebp)
    5086:	c7 45 c8 00 00 00 00 	movl   $0x0,-0x38(%ebp)
    508d:	c7 45 cc 00 00 00 00 	movl   $0x0,-0x34(%ebp)
    5094:	8b 5f 50             	mov    0x50(%edi),%ebx
    5097:	8b 77 54             	mov    0x54(%edi),%esi
    509a:	89 5d d0             	mov    %ebx,-0x30(%ebp)
    509d:	89 75 d4             	mov    %esi,-0x2c(%ebp)
    50a0:	89 f8                	mov    %edi,%eax
    50a2:	e9 76 ff ff ff       	jmp    501d <fdisk_part_get_tot_avail+0x2bd>
    50a7:	90                   	nop
    50a8:	c7 45 c8 01 00 00 00 	movl   $0x1,-0x38(%ebp)
    50af:	c7 45 cc 00 00 00 00 	movl   $0x0,-0x34(%ebp)
    50b6:	e9 52 ff ff ff       	jmp    500d <fdisk_part_get_tot_avail+0x2ad>
    50bb:	90                   	nop
    50bc:	8d 74 26 00          	lea    0x0(%esi,%eiz,1),%esi
    50c0:	39 c1                	cmp    %eax,%ecx
    50c2:	0f 87 a1 fe ff ff    	ja     4f69 <fdisk_part_get_tot_avail+0x209>
    50c8:	e9 c9 fe ff ff       	jmp    4f96 <fdisk_part_get_tot_avail+0x236>
    50cd:	31 f6                	xor    %esi,%esi
    50cf:	e9 26 fd ff ff       	jmp    4dfa <fdisk_part_get_tot_avail+0x9a>
    50d4:	31 f6                	xor    %esi,%esi
    50d6:	c7 45 e0 00 00 00 00 	movl   $0x0,-0x20(%ebp)
    50dd:	c7 45 c8 00 00 00 00 	movl   $0x0,-0x38(%ebp)
    50e4:	c7 45 cc 00 00 00 00 	movl   $0x0,-0x34(%ebp)
    50eb:	e9 0a fd ff ff       	jmp    4dfa <fdisk_part_get_tot_avail+0x9a>

000050f0 <fdisk_part_create>:
    50f0:	55                   	push   %ebp
    50f1:	89 e5                	mov    %esp,%ebp
    50f3:	57                   	push   %edi
    50f4:	56                   	push   %esi
    50f5:	53                   	push   %ebx
    50f6:	81 ec bc 00 00 00    	sub    $0xbc,%esp
    50fc:	8d 45 98             	lea    -0x68(%ebp),%eax
    50ff:	8b 5d 08             	mov    0x8(%ebp),%ebx
    5102:	50                   	push   %eax
    5103:	8b 43 44             	mov    0x44(%ebx),%eax
    5106:	50                   	push   %eax
    5107:	8b 45 0c             	mov    0xc(%ebp),%eax
    510a:	6a 00                	push   $0x0
    510c:	50                   	push   %eax
    510d:	e8 be 0d 00 00       	call   5ed0 <fdisk_cap_to_blocks>
    5112:	83 c4 10             	add    $0x10,%esp
    5115:	85 c0                	test   %eax,%eax
    5117:	74 0f                	je     5128 <fdisk_part_create+0x38>
    5119:	be f6 fe ff ff       	mov    $0xfffffef6,%esi
    511e:	8d 65 f4             	lea    -0xc(%ebp),%esp
    5121:	89 f0                	mov    %esi,%eax
    5123:	5b                   	pop    %ebx
    5124:	5e                   	pop    %esi
    5125:	5f                   	pop    %edi
    5126:	5d                   	pop    %ebp
    5127:	c3                   	ret    
    5128:	8d 45 a0             	lea    -0x60(%ebp),%eax
    512b:	50                   	push   %eax
    512c:	8b 43 44             	mov    0x44(%ebx),%eax
    512f:	50                   	push   %eax
    5130:	8b 45 0c             	mov    0xc(%ebp),%eax
    5133:	6a 01                	push   $0x1
    5135:	50                   	push   %eax
    5136:	e8 95 0d 00 00       	call   5ed0 <fdisk_cap_to_blocks>
    513b:	83 c4 10             	add    $0x10,%esp
    513e:	85 c0                	test   %eax,%eax
    5140:	75 d7                	jne    5119 <fdisk_part_create+0x29>
    5142:	8d 45 a8             	lea    -0x58(%ebp),%eax
    5145:	8b 7b 44             	mov    0x44(%ebx),%edi
    5148:	50                   	push   %eax
    5149:	8b 45 0c             	mov    0xc(%ebp),%eax
    514c:	57                   	push   %edi
    514d:	6a 02                	push   $0x2
    514f:	50                   	push   %eax
    5150:	e8 7b 0d 00 00       	call   5ed0 <fdisk_cap_to_blocks>
    5155:	83 c4 10             	add    $0x10,%esp
    5158:	89 85 60 ff ff ff    	mov    %eax,-0xa0(%ebp)
    515e:	85 c0                	test   %eax,%eax
    5160:	75 b7                	jne    5119 <fdisk_part_create+0x29>
    5162:	8b 43 50             	mov    0x50(%ebx),%eax
    5165:	8b 53 54             	mov    0x54(%ebx),%edx
    5168:	89 c6                	mov    %eax,%esi
    516a:	89 45 90             	mov    %eax,-0x70(%ebp)
    516d:	03 45 98             	add    -0x68(%ebp),%eax
    5170:	89 d7                	mov    %edx,%edi
    5172:	89 55 94             	mov    %edx,-0x6c(%ebp)
    5175:	57                   	push   %edi
    5176:	13 55 9c             	adc    -0x64(%ebp),%edx
    5179:	83 c0 ff             	add    $0xffffffff,%eax
    517c:	83 d2 ff             	adc    $0xffffffff,%edx
    517f:	56                   	push   %esi
    5180:	52                   	push   %edx
    5181:	50                   	push   %eax
    5182:	e8 d9 21 00 00       	call   7360 <__udivdi3@plt>
    5187:	89 f9                	mov    %edi,%ecx
    5189:	0f af d6             	imul   %esi,%edx
    518c:	0f af c8             	imul   %eax,%ecx
    518f:	89 45 88             	mov    %eax,-0x78(%ebp)
    5192:	01 d1                	add    %edx,%ecx
    5194:	f7 e6                	mul    %esi
    5196:	89 95 54 ff ff ff    	mov    %edx,-0xac(%ebp)
    519c:	89 85 50 ff ff ff    	mov    %eax,-0xb0(%ebp)
    51a2:	8b 85 54 ff ff ff    	mov    -0xac(%ebp),%eax
    51a8:	83 c4 10             	add    $0x10,%esp
    51ab:	01 c8                	add    %ecx,%eax
    51ad:	89 85 54 ff ff ff    	mov    %eax,-0xac(%ebp)
    51b3:	8b 85 50 ff ff ff    	mov    -0xb0(%ebp),%eax
    51b9:	89 45 98             	mov    %eax,-0x68(%ebp)
    51bc:	89 f0                	mov    %esi,%eax
    51be:	03 45 a0             	add    -0x60(%ebp),%eax
    51c1:	8b 95 54 ff ff ff    	mov    -0xac(%ebp),%edx
    51c7:	89 55 9c             	mov    %edx,-0x64(%ebp)
    51ca:	89 fa                	mov    %edi,%edx
    51cc:	13 55 a4             	adc    -0x5c(%ebp),%edx
    51cf:	83 c0 ff             	add    $0xffffffff,%eax
    51d2:	83 d2 ff             	adc    $0xffffffff,%edx
    51d5:	57                   	push   %edi
    51d6:	56                   	push   %esi
    51d7:	52                   	push   %edx
    51d8:	50                   	push   %eax
    51d9:	e8 82 21 00 00       	call   7360 <__udivdi3@plt>
    51de:	89 f9                	mov    %edi,%ecx
    51e0:	89 45 88             	mov    %eax,-0x78(%ebp)
    51e3:	0f af d6             	imul   %esi,%edx
    51e6:	0f af c8             	imul   %eax,%ecx
    51e9:	01 d1                	add    %edx,%ecx
    51eb:	83 c4 10             	add    $0x10,%esp
    51ee:	f7 e6                	mul    %esi
    51f0:	89 95 4c ff ff ff    	mov    %edx,-0xb4(%ebp)
    51f6:	89 85 48 ff ff ff    	mov    %eax,-0xb8(%ebp)
    51fc:	8b 95 4c ff ff ff    	mov    -0xb4(%ebp),%edx
    5202:	8b 85 48 ff ff ff    	mov    -0xb8(%ebp),%eax
    5208:	01 ca                	add    %ecx,%edx
    520a:	89 45 a0             	mov    %eax,-0x60(%ebp)
    520d:	89 95 4c ff ff ff    	mov    %edx,-0xb4(%ebp)
    5213:	89 f0                	mov    %esi,%eax
    5215:	8b 95 4c ff ff ff    	mov    -0xb4(%ebp),%edx
    521b:	03 45 a8             	add    -0x58(%ebp),%eax
    521e:	89 55 a4             	mov    %edx,-0x5c(%ebp)
    5221:	89 fa                	mov    %edi,%edx
    5223:	13 55 ac             	adc    -0x54(%ebp),%edx
    5226:	83 c0 ff             	add    $0xffffffff,%eax
    5229:	83 d2 ff             	adc    $0xffffffff,%edx
    522c:	57                   	push   %edi
    522d:	56                   	push   %esi
    522e:	52                   	push   %edx
    522f:	50                   	push   %eax
    5230:	e8 2b 21 00 00       	call   7360 <__udivdi3@plt>
    5235:	89 f9                	mov    %edi,%ecx
    5237:	89 45 88             	mov    %eax,-0x78(%ebp)
    523a:	0f af d6             	imul   %esi,%edx
    523d:	0f af c8             	imul   %eax,%ecx
    5240:	01 d1                	add    %edx,%ecx
    5242:	83 c4 10             	add    $0x10,%esp
    5245:	f7 e6                	mul    %esi
    5247:	89 95 44 ff ff ff    	mov    %edx,-0xbc(%ebp)
    524d:	89 85 40 ff ff ff    	mov    %eax,-0xc0(%ebp)
    5253:	8b b5 44 ff ff ff    	mov    -0xbc(%ebp),%esi
    5259:	8b 85 40 ff ff ff    	mov    -0xc0(%ebp),%eax
    525f:	01 ce                	add    %ecx,%esi
    5261:	89 45 a8             	mov    %eax,-0x58(%ebp)
    5264:	8b 45 0c             	mov    0xc(%ebp),%eax
    5267:	89 b5 44 ff ff ff    	mov    %esi,-0xbc(%ebp)
    526d:	8b 95 44 ff ff ff    	mov    -0xbc(%ebp),%edx
    5273:	c7 85 3c ff ff ff ff 	movl   $0xffffffff,-0xc4(%ebp)
    527a:	ff ff ff 
    527d:	8b 40 14             	mov    0x14(%eax),%eax
    5280:	89 55 ac             	mov    %edx,-0x54(%ebp)
    5283:	83 f8 03             	cmp    $0x3,%eax
    5286:	0f 86 c4 05 00 00    	jbe    5850 <fdisk_part_create+0x760>
    528c:	8b 45 0c             	mov    0xc(%ebp),%eax
    528f:	8b 40 10             	mov    0x10(%eax),%eax
    5292:	89 85 38 ff ff ff    	mov    %eax,-0xc8(%ebp)
    5298:	83 f8 02             	cmp    $0x2,%eax
    529b:	0f 84 7f 07 00 00    	je     5a20 <fdisk_part_create+0x930>
    52a1:	8b 73 34             	mov    0x34(%ebx),%esi
    52a4:	8b 45 90             	mov    -0x70(%ebp),%eax
    52a7:	8b 7b 38             	mov    0x38(%ebx),%edi
    52aa:	01 f0                	add    %esi,%eax
    52ac:	8b 55 94             	mov    -0x6c(%ebp),%edx
    52af:	8b 4d 94             	mov    -0x6c(%ebp),%ecx
    52b2:	11 fa                	adc    %edi,%edx
    52b4:	83 c0 ff             	add    $0xffffffff,%eax
    52b7:	83 d2 ff             	adc    $0xffffffff,%edx
    52ba:	51                   	push   %ecx
    52bb:	8b 4d 90             	mov    -0x70(%ebp),%ecx
    52be:	51                   	push   %ecx
    52bf:	52                   	push   %edx
    52c0:	50                   	push   %eax
    52c1:	e8 9a 20 00 00       	call   7360 <__udivdi3@plt>
    52c6:	8b 4d 90             	mov    -0x70(%ebp),%ecx
    52c9:	83 c4 10             	add    $0x10,%esp
    52cc:	0f af d1             	imul   %ecx,%edx
    52cf:	8b 4d 94             	mov    -0x6c(%ebp),%ecx
    52d2:	0f af c8             	imul   %eax,%ecx
    52d5:	01 d1                	add    %edx,%ecx
    52d7:	f7 65 90             	mull   -0x70(%ebp)
    52da:	89 55 8c             	mov    %edx,-0x74(%ebp)
    52dd:	89 45 88             	mov    %eax,-0x78(%ebp)
    52e0:	8b 45 8c             	mov    -0x74(%ebp),%eax
    52e3:	01 c8                	add    %ecx,%eax
    52e5:	8b 4b 1c             	mov    0x1c(%ebx),%ecx
    52e8:	89 45 8c             	mov    %eax,-0x74(%ebp)
    52eb:	8d 43 18             	lea    0x18(%ebx),%eax
    52ee:	39 c1                	cmp    %eax,%ecx
    52f0:	0f 84 5f 09 00 00    	je     5c55 <fdisk_part_create+0xb65>
    52f6:	85 c9                	test   %ecx,%ecx
    52f8:	0f 84 57 09 00 00    	je     5c55 <fdisk_part_create+0xb65>
    52fe:	8b 85 50 ff ff ff    	mov    -0xb0(%ebp),%eax
    5304:	8b 95 54 ff ff ff    	mov    -0xac(%ebp),%edx
    530a:	83 e9 14             	sub    $0x14,%ecx
    530d:	89 85 68 ff ff ff    	mov    %eax,-0x98(%ebp)
    5313:	89 95 6c ff ff ff    	mov    %edx,-0x94(%ebp)
    5319:	c7 85 7c ff ff ff 00 	movl   $0x0,-0x84(%ebp)
    5320:	00 00 00 
    5323:	c7 85 58 ff ff ff 00 	movl   $0x0,-0xa8(%ebp)
    532a:	00 00 00 
    532d:	c7 85 5c ff ff ff 00 	movl   $0x0,-0xa4(%ebp)
    5334:	00 00 00 
    5337:	8b 45 90             	mov    -0x70(%ebp),%eax
    533a:	8b 55 94             	mov    -0x6c(%ebp),%edx
    533d:	83 c0 ff             	add    $0xffffffff,%eax
    5340:	89 5d 08             	mov    %ebx,0x8(%ebp)
    5343:	89 85 70 ff ff ff    	mov    %eax,-0x90(%ebp)
    5349:	8d 43 20             	lea    0x20(%ebx),%eax
    534c:	83 d2 ff             	adc    $0xffffffff,%edx
    534f:	89 85 64 ff ff ff    	mov    %eax,-0x9c(%ebp)
    5355:	8d 43 18             	lea    0x18(%ebx),%eax
    5358:	89 95 74 ff ff ff    	mov    %edx,-0x8c(%ebp)
    535e:	89 85 78 ff ff ff    	mov    %eax,-0x88(%ebp)
    5364:	89 4d 80             	mov    %ecx,-0x80(%ebp)
    5367:	89 c8                	mov    %ecx,%eax
    5369:	8d b4 26 00 00 00 00 	lea    0x0(%esi,%eiz,1),%esi
    5370:	85 c0                	test   %eax,%eax
    5372:	0f 84 50 02 00 00    	je     55c8 <fdisk_part_create+0x4d8>
    5378:	8b 70 48             	mov    0x48(%eax),%esi
    537b:	8b 78 4c             	mov    0x4c(%eax),%edi
    537e:	8b 45 94             	mov    -0x6c(%ebp),%eax
    5381:	89 fb                	mov    %edi,%ebx
    5383:	50                   	push   %eax
    5384:	8b 45 90             	mov    -0x70(%ebp),%eax
    5387:	50                   	push   %eax
    5388:	57                   	push   %edi
    5389:	56                   	push   %esi
    538a:	e8 b1 1f 00 00       	call   7340 <__umoddi3@plt>
    538f:	89 f1                	mov    %esi,%ecx
    5391:	83 c4 10             	add    $0x10,%esp
    5394:	29 c1                	sub    %eax,%ecx
    5396:	19 d3                	sbb    %edx,%ebx
    5398:	89 c8                	mov    %ecx,%eax
    539a:	89 da                	mov    %ebx,%edx
    539c:	8b 5d 8c             	mov    -0x74(%ebp),%ebx
    539f:	8b 4d 88             	mov    -0x78(%ebp),%ecx
    53a2:	39 da                	cmp    %ebx,%edx
    53a4:	0f 82 9e 01 00 00    	jb     5548 <fdisk_part_create+0x458>
    53aa:	77 08                	ja     53b4 <fdisk_part_create+0x2c4>
    53ac:	39 c8                	cmp    %ecx,%eax
    53ae:	0f 82 94 01 00 00    	jb     5548 <fdisk_part_create+0x458>
    53b4:	2b 45 88             	sub    -0x78(%ebp),%eax
    53b7:	8b 9d 6c ff ff ff    	mov    -0x94(%ebp),%ebx
    53bd:	1b 55 8c             	sbb    -0x74(%ebp),%edx
    53c0:	8b 8d 68 ff ff ff    	mov    -0x98(%ebp),%ecx
    53c6:	39 da                	cmp    %ebx,%edx
    53c8:	77 0e                	ja     53d8 <fdisk_part_create+0x2e8>
    53ca:	0f 82 78 01 00 00    	jb     5548 <fdisk_part_create+0x458>
    53d0:	39 c8                	cmp    %ecx,%eax
    53d2:	0f 82 70 01 00 00    	jb     5548 <fdisk_part_create+0x458>
    53d8:	89 45 80             	mov    %eax,-0x80(%ebp)
    53db:	89 55 84             	mov    %edx,-0x7c(%ebp)
    53de:	8b 5d 08             	mov    0x8(%ebp),%ebx
    53e1:	8b 7d 84             	mov    -0x7c(%ebp),%edi
    53e4:	8b 95 44 ff ff ff    	mov    -0xbc(%ebp),%edx
    53ea:	8b 75 80             	mov    -0x80(%ebp),%esi
    53ed:	8b 85 40 ff ff ff    	mov    -0xc0(%ebp),%eax
    53f3:	39 fa                	cmp    %edi,%edx
    53f5:	0f 86 7d 04 00 00    	jbe    5878 <fdisk_part_create+0x788>
    53fb:	83 bd 38 ff ff ff 02 	cmpl   $0x2,-0xc8(%ebp)
    5402:	74 5c                	je     5460 <fdisk_part_create+0x370>
    5404:	8b 43 14             	mov    0x14(%ebx),%eax
    5407:	8d 4b 10             	lea    0x10(%ebx),%ecx
    540a:	39 c8                	cmp    %ecx,%eax
    540c:	0f 84 76 07 00 00    	je     5b88 <fdisk_part_create+0xa98>
    5412:	85 c0                	test   %eax,%eax
    5414:	0f 84 6e 07 00 00    	je     5b88 <fdisk_part_create+0xa98>
    541a:	8b 50 38             	mov    0x38(%eax),%edx
    541d:	83 fa 01             	cmp    $0x1,%edx
    5420:	0f 8f 62 07 00 00    	jg     5b88 <fdisk_part_create+0xa98>
    5426:	8d 7a 01             	lea    0x1(%edx),%edi
    5429:	8b 40 04             	mov    0x4(%eax),%eax
    542c:	89 bd 60 ff ff ff    	mov    %edi,-0xa0(%ebp)
    5432:	89 fe                	mov    %edi,%esi
    5434:	39 c1                	cmp    %eax,%ecx
    5436:	74 28                	je     5460 <fdisk_part_create+0x370>
    5438:	85 c0                	test   %eax,%eax
    543a:	74 11                	je     544d <fdisk_part_create+0x35d>
    543c:	8b 50 38             	mov    0x38(%eax),%edx
    543f:	39 f2                	cmp    %esi,%edx
    5441:	7f 0a                	jg     544d <fdisk_part_create+0x35d>
    5443:	8b 40 04             	mov    0x4(%eax),%eax
    5446:	8d 72 01             	lea    0x1(%edx),%esi
    5449:	39 c1                	cmp    %eax,%ecx
    544b:	75 eb                	jne    5438 <fdisk_part_create+0x348>
    544d:	89 b5 60 ff ff ff    	mov    %esi,-0xa0(%ebp)
    5453:	83 bd 60 ff ff ff 04 	cmpl   $0x4,-0xa0(%ebp)
    545a:	0f 8f b9 fc ff ff    	jg     5119 <fdisk_part_create+0x29>
    5460:	8d 45 b4             	lea    -0x4c(%ebp),%eax
    5463:	51                   	push   %ecx
    5464:	6a 34                	push   $0x34
    5466:	6a 00                	push   $0x0
    5468:	50                   	push   %eax
    5469:	e8 32 20 00 00       	call   74a0 <memset@plt>
    546e:	8b 85 60 ff ff ff    	mov    -0xa0(%ebp),%eax
    5474:	8b 75 88             	mov    -0x78(%ebp),%esi
    5477:	89 45 b4             	mov    %eax,-0x4c(%ebp)
    547a:	8b 85 58 ff ff ff    	mov    -0xa8(%ebp),%eax
    5480:	01 c6                	add    %eax,%esi
    5482:	8b 95 5c ff ff ff    	mov    -0xa4(%ebp),%edx
    5488:	8b 7d 8c             	mov    -0x74(%ebp),%edi
    548b:	89 d1                	mov    %edx,%ecx
    548d:	89 75 b8             	mov    %esi,-0x48(%ebp)
    5490:	8b 75 80             	mov    -0x80(%ebp),%esi
    5493:	11 cf                	adc    %ecx,%edi
    5495:	2b b5 58 ff ff ff    	sub    -0xa8(%ebp),%esi
    549b:	89 45 c8             	mov    %eax,-0x38(%ebp)
    549e:	89 7d bc             	mov    %edi,-0x44(%ebp)
    54a1:	8b 45 0c             	mov    0xc(%ebp),%eax
    54a4:	8b 7d 84             	mov    -0x7c(%ebp),%edi
    54a7:	1b bd 5c ff ff ff    	sbb    -0xa4(%ebp),%edi
    54ad:	89 55 cc             	mov    %edx,-0x34(%ebp)
    54b0:	8b 40 10             	mov    0x10(%eax),%eax
    54b3:	83 c4 10             	add    $0x10,%esp
    54b6:	89 45 d0             	mov    %eax,-0x30(%ebp)
    54b9:	89 75 c0             	mov    %esi,-0x40(%ebp)
    54bc:	89 7d c4             	mov    %edi,-0x3c(%ebp)
    54bf:	48                   	dec    %eax
    54c0:	74 25                	je     54e7 <fdisk_part_create+0x3f7>
    54c2:	8d 45 d4             	lea    -0x2c(%ebp),%eax
    54c5:	50                   	push   %eax
    54c6:	8b 85 3c ff ff ff    	mov    -0xc4(%ebp),%eax
    54cc:	50                   	push   %eax
    54cd:	8b 43 04             	mov    0x4(%ebx),%eax
    54d0:	50                   	push   %eax
    54d1:	8b 03                	mov    (%ebx),%eax
    54d3:	8b 50 04             	mov    0x4(%eax),%edx
    54d6:	52                   	push   %edx
    54d7:	e8 84 20 00 00       	call   7560 <vbd_suggest_ptype@plt>
    54dc:	83 c4 10             	add    $0x10,%esp
    54df:	85 c0                	test   %eax,%eax
    54e1:	0f 85 32 fc ff ff    	jne    5119 <fdisk_part_create+0x29>
    54e7:	8d 45 a8             	lea    -0x58(%ebp),%eax
    54ea:	50                   	push   %eax
    54eb:	8d 45 b4             	lea    -0x4c(%ebp),%eax
    54ee:	50                   	push   %eax
    54ef:	8b 43 04             	mov    0x4(%ebx),%eax
    54f2:	50                   	push   %eax
    54f3:	8b 03                	mov    (%ebx),%eax
    54f5:	8b 50 04             	mov    0x4(%eax),%edx
    54f8:	52                   	push   %edx
    54f9:	e8 c2 1e 00 00       	call   73c0 <vbd_part_create@plt>
    54fe:	83 c4 10             	add    $0x10,%esp
    5501:	85 c0                	test   %eax,%eax
    5503:	0f 85 10 fc ff ff    	jne    5119 <fdisk_part_create+0x29>
    5509:	8d 4d a0             	lea    -0x60(%ebp),%ecx
    550c:	8b 55 a8             	mov    -0x58(%ebp),%edx
    550f:	89 d8                	mov    %ebx,%eax
    5511:	e8 0a df ff ff       	call   3420 <fdisk_part_add>
    5516:	89 c6                	mov    %eax,%esi
    5518:	85 c0                	test   %eax,%eax
    551a:	0f 85 48 06 00 00    	jne    5b68 <fdisk_part_create+0xa78>
    5520:	8b 45 a0             	mov    -0x60(%ebp),%eax
    5523:	8b 50 58             	mov    0x58(%eax),%edx
    5526:	85 d2                	test   %edx,%edx
    5528:	0f 85 d2 00 00 00    	jne    5600 <fdisk_part_create+0x510>
    552e:	8b 55 10             	mov    0x10(%ebp),%edx
    5531:	85 d2                	test   %edx,%edx
    5533:	0f 84 e5 fb ff ff    	je     511e <fdisk_part_create+0x2e>
    5539:	8b 7d 10             	mov    0x10(%ebp),%edi
    553c:	89 07                	mov    %eax,(%edi)
    553e:	8d 65 f4             	lea    -0xc(%ebp),%esp
    5541:	89 f0                	mov    %esi,%eax
    5543:	5b                   	pop    %ebx
    5544:	5e                   	pop    %esi
    5545:	5f                   	pop    %edi
    5546:	5d                   	pop    %ebp
    5547:	c3                   	ret    
    5548:	8b 45 80             	mov    -0x80(%ebp),%eax
    554b:	03 b5 70 ff ff ff    	add    -0x90(%ebp),%esi
    5551:	13 bd 74 ff ff ff    	adc    -0x8c(%ebp),%edi
    5557:	03 70 50             	add    0x50(%eax),%esi
    555a:	13 78 54             	adc    0x54(%eax),%edi
    555d:	8b 45 94             	mov    -0x6c(%ebp),%eax
    5560:	50                   	push   %eax
    5561:	8b 45 90             	mov    -0x70(%ebp),%eax
    5564:	50                   	push   %eax
    5565:	57                   	push   %edi
    5566:	56                   	push   %esi
    5567:	e8 f4 1d 00 00       	call   7360 <__udivdi3@plt>
    556c:	8b 7d 94             	mov    -0x6c(%ebp),%edi
    556f:	89 c3                	mov    %eax,%ebx
    5571:	89 f8                	mov    %edi,%eax
    5573:	8b 75 90             	mov    -0x70(%ebp),%esi
    5576:	0f af c3             	imul   %ebx,%eax
    5579:	0f af d6             	imul   %esi,%edx
    557c:	89 c6                	mov    %eax,%esi
    557e:	89 d8                	mov    %ebx,%eax
    5580:	01 d6                	add    %edx,%esi
    5582:	83 c4 10             	add    $0x10,%esp
    5585:	f7 65 90             	mull   -0x70(%ebp)
    5588:	89 55 8c             	mov    %edx,-0x74(%ebp)
    558b:	89 45 88             	mov    %eax,-0x78(%ebp)
    558e:	8b 45 8c             	mov    -0x74(%ebp),%eax
    5591:	8b 95 7c ff ff ff    	mov    -0x84(%ebp),%edx
    5597:	01 f0                	add    %esi,%eax
    5599:	85 d2                	test   %edx,%edx
    559b:	89 45 8c             	mov    %eax,-0x74(%ebp)
    559e:	8b 45 80             	mov    -0x80(%ebp),%eax
    55a1:	75 3d                	jne    55e0 <fdisk_part_create+0x4f0>
    55a3:	8b 48 18             	mov    0x18(%eax),%ecx
    55a6:	85 c9                	test   %ecx,%ecx
    55a8:	0f 84 72 02 00 00    	je     5820 <fdisk_part_create+0x730>
    55ae:	3b 8d 78 ff ff ff    	cmp    -0x88(%ebp),%ecx
    55b4:	0f 84 66 02 00 00    	je     5820 <fdisk_part_create+0x730>
    55ba:	8d 41 ec             	lea    -0x14(%ecx),%eax
    55bd:	89 45 80             	mov    %eax,-0x80(%ebp)
    55c0:	85 c0                	test   %eax,%eax
    55c2:	0f 85 b0 fd ff ff    	jne    5378 <fdisk_part_create+0x288>
    55c8:	8b 5d 08             	mov    0x8(%ebp),%ebx
    55cb:	83 bd 7c ff ff ff 00 	cmpl   $0x0,-0x84(%ebp)
    55d2:	75 6f                	jne    5643 <fdisk_part_create+0x553>
    55d4:	8b 73 34             	mov    0x34(%ebx),%esi
    55d7:	8b 7b 38             	mov    0x38(%ebx),%edi
    55da:	e9 4a 02 00 00       	jmp    5829 <fdisk_part_create+0x739>
    55df:	90                   	nop
    55e0:	8b 48 20             	mov    0x20(%eax),%ecx
    55e3:	85 c9                	test   %ecx,%ecx
    55e5:	74 59                	je     5640 <fdisk_part_create+0x550>
    55e7:	3b 8d 64 ff ff ff    	cmp    -0x9c(%ebp),%ecx
    55ed:	74 51                	je     5640 <fdisk_part_create+0x550>
    55ef:	8d 41 e4             	lea    -0x1c(%ecx),%eax
    55f2:	89 45 80             	mov    %eax,-0x80(%ebp)
    55f5:	e9 76 fd ff ff       	jmp    5370 <fdisk_part_create+0x280>
    55fa:	8d b6 00 00 00 00    	lea    0x0(%esi),%esi
    5600:	50                   	push   %eax
    5601:	8b 45 0c             	mov    0xc(%ebp),%eax
    5604:	8b 40 14             	mov    0x14(%eax),%eax
    5607:	50                   	push   %eax
    5608:	8b 03                	mov    (%ebx),%eax
    560a:	52                   	push   %edx
    560b:	8b 00                	mov    (%eax),%eax
    560d:	50                   	push   %eax
    560e:	e8 7d 1e 00 00       	call   7490 <vol_part_mkfs@plt>
    5613:	83 c4 10             	add    $0x10,%esp
    5616:	85 c0                	test   %eax,%eax
    5618:	74 09                	je     5623 <fdisk_part_create+0x533>
    561a:	83 f8 f5             	cmp    $0xfffffff5,%eax
    561d:	0f 85 74 05 00 00    	jne    5b97 <fdisk_part_create+0xaa7>
    5623:	8b 7d 0c             	mov    0xc(%ebp),%edi
    5626:	8b 45 a0             	mov    -0x60(%ebp),%eax
    5629:	8b 57 14             	mov    0x14(%edi),%edx
    562c:	c7 40 38 01 00 00 00 	movl   $0x1,0x38(%eax)
    5633:	89 50 3c             	mov    %edx,0x3c(%eax)
    5636:	e9 f3 fe ff ff       	jmp    552e <fdisk_part_create+0x43e>
    563b:	90                   	nop
    563c:	8d 74 26 00          	lea    0x0(%esi,%eiz,1),%esi
    5640:	8b 5d 08             	mov    0x8(%ebp),%ebx
    5643:	8b 73 28             	mov    0x28(%ebx),%esi
    5646:	8b 46 50             	mov    0x50(%esi),%eax
    5649:	8b 56 54             	mov    0x54(%esi),%edx
    564c:	03 46 48             	add    0x48(%esi),%eax
    564f:	8b 4d 94             	mov    -0x6c(%ebp),%ecx
    5652:	13 56 4c             	adc    0x4c(%esi),%edx
    5655:	89 c6                	mov    %eax,%esi
    5657:	8b 45 90             	mov    -0x70(%ebp),%eax
    565a:	51                   	push   %ecx
    565b:	89 d7                	mov    %edx,%edi
    565d:	50                   	push   %eax
    565e:	52                   	push   %edx
    565f:	56                   	push   %esi
    5660:	e8 db 1c 00 00       	call   7340 <__umoddi3@plt>
    5665:	83 c4 10             	add    $0x10,%esp
    5668:	29 c6                	sub    %eax,%esi
    566a:	19 d7                	sbb    %edx,%edi
    566c:	8b 55 8c             	mov    -0x74(%ebp),%edx
    566f:	8b 45 88             	mov    -0x78(%ebp),%eax
    5672:	39 fa                	cmp    %edi,%edx
    5674:	77 32                	ja     56a8 <fdisk_part_create+0x5b8>
    5676:	0f 83 ec 01 00 00    	jae    5868 <fdisk_part_create+0x778>
    567c:	2b 75 88             	sub    -0x78(%ebp),%esi
    567f:	8b 95 6c ff ff ff    	mov    -0x94(%ebp),%edx
    5685:	1b 7d 8c             	sbb    -0x74(%ebp),%edi
    5688:	89 75 80             	mov    %esi,-0x80(%ebp)
    568b:	89 7d 84             	mov    %edi,-0x7c(%ebp)
    568e:	8b 85 68 ff ff ff    	mov    -0x98(%ebp),%eax
    5694:	39 fa                	cmp    %edi,%edx
    5696:	0f 82 45 fd ff ff    	jb     53e1 <fdisk_part_create+0x2f1>
    569c:	77 0a                	ja     56a8 <fdisk_part_create+0x5b8>
    569e:	39 f0                	cmp    %esi,%eax
    56a0:	0f 86 3b fd ff ff    	jbe    53e1 <fdisk_part_create+0x2f1>
    56a6:	66 90                	xchg   %ax,%ax
    56a8:	8b 85 7c ff ff ff    	mov    -0x84(%ebp),%eax
    56ae:	85 c0                	test   %eax,%eax
    56b0:	0f 85 3a 04 00 00    	jne    5af0 <fdisk_part_create+0xa00>
    56b6:	8b 73 34             	mov    0x34(%ebx),%esi
    56b9:	8b 45 90             	mov    -0x70(%ebp),%eax
    56bc:	8b 7b 38             	mov    0x38(%ebx),%edi
    56bf:	01 f0                	add    %esi,%eax
    56c1:	8b 55 94             	mov    -0x6c(%ebp),%edx
    56c4:	8b 4d 94             	mov    -0x6c(%ebp),%ecx
    56c7:	11 fa                	adc    %edi,%edx
    56c9:	83 c0 ff             	add    $0xffffffff,%eax
    56cc:	83 d2 ff             	adc    $0xffffffff,%edx
    56cf:	51                   	push   %ecx
    56d0:	8b 4d 90             	mov    -0x70(%ebp),%ecx
    56d3:	51                   	push   %ecx
    56d4:	52                   	push   %edx
    56d5:	50                   	push   %eax
    56d6:	e8 85 1c 00 00       	call   7360 <__udivdi3@plt>
    56db:	8b 4d 90             	mov    -0x70(%ebp),%ecx
    56de:	83 c4 10             	add    $0x10,%esp
    56e1:	0f af d1             	imul   %ecx,%edx
    56e4:	8b 4d 94             	mov    -0x6c(%ebp),%ecx
    56e7:	0f af c8             	imul   %eax,%ecx
    56ea:	01 d1                	add    %edx,%ecx
    56ec:	f7 65 90             	mull   -0x70(%ebp)
    56ef:	89 55 8c             	mov    %edx,-0x74(%ebp)
    56f2:	89 45 88             	mov    %eax,-0x78(%ebp)
    56f5:	8b 45 8c             	mov    -0x74(%ebp),%eax
    56f8:	01 c8                	add    %ecx,%eax
    56fa:	8b 4b 1c             	mov    0x1c(%ebx),%ecx
    56fd:	89 45 8c             	mov    %eax,-0x74(%ebp)
    5700:	8d 43 18             	lea    0x18(%ebx),%eax
    5703:	39 c1                	cmp    %eax,%ecx
    5705:	0f 84 5d 02 00 00    	je     5968 <fdisk_part_create+0x878>
    570b:	85 c9                	test   %ecx,%ecx
    570d:	0f 84 55 02 00 00    	je     5968 <fdisk_part_create+0x878>
    5713:	83 e9 14             	sub    $0x14,%ecx
    5716:	8b 85 48 ff ff ff    	mov    -0xb8(%ebp),%eax
    571c:	8b 95 4c ff ff ff    	mov    -0xb4(%ebp),%edx
    5722:	03 85 58 ff ff ff    	add    -0xa8(%ebp),%eax
    5728:	89 5d 08             	mov    %ebx,0x8(%ebp)
    572b:	13 95 5c ff ff ff    	adc    -0xa4(%ebp),%edx
    5731:	89 85 68 ff ff ff    	mov    %eax,-0x98(%ebp)
    5737:	8b 45 90             	mov    -0x70(%ebp),%eax
    573a:	89 95 6c ff ff ff    	mov    %edx,-0x94(%ebp)
    5740:	83 c0 ff             	add    $0xffffffff,%eax
    5743:	8b 55 94             	mov    -0x6c(%ebp),%edx
    5746:	89 85 70 ff ff ff    	mov    %eax,-0x90(%ebp)
    574c:	8d 43 20             	lea    0x20(%ebx),%eax
    574f:	83 d2 ff             	adc    $0xffffffff,%edx
    5752:	89 85 78 ff ff ff    	mov    %eax,-0x88(%ebp)
    5758:	8d 43 18             	lea    0x18(%ebx),%eax
    575b:	89 95 74 ff ff ff    	mov    %edx,-0x8c(%ebp)
    5761:	89 85 64 ff ff ff    	mov    %eax,-0x9c(%ebp)
    5767:	89 4d 80             	mov    %ecx,-0x80(%ebp)
    576a:	89 c8                	mov    %ecx,%eax
    576c:	8d 74 26 00          	lea    0x0(%esi,%eiz,1),%esi
    5770:	85 c0                	test   %eax,%eax
    5772:	0f 84 d8 01 00 00    	je     5950 <fdisk_part_create+0x860>
    5778:	8b 70 48             	mov    0x48(%eax),%esi
    577b:	8b 78 4c             	mov    0x4c(%eax),%edi
    577e:	8b 45 94             	mov    -0x6c(%ebp),%eax
    5781:	89 fb                	mov    %edi,%ebx
    5783:	50                   	push   %eax
    5784:	8b 45 90             	mov    -0x70(%ebp),%eax
    5787:	50                   	push   %eax
    5788:	57                   	push   %edi
    5789:	56                   	push   %esi
    578a:	e8 b1 1b 00 00       	call   7340 <__umoddi3@plt>
    578f:	89 f1                	mov    %esi,%ecx
    5791:	83 c4 10             	add    $0x10,%esp
    5794:	29 c1                	sub    %eax,%ecx
    5796:	19 d3                	sbb    %edx,%ebx
    5798:	89 c8                	mov    %ecx,%eax
    579a:	89 da                	mov    %ebx,%edx
    579c:	8b 5d 8c             	mov    -0x74(%ebp),%ebx
    579f:	8b 4d 88             	mov    -0x78(%ebp),%ecx
    57a2:	39 da                	cmp    %ebx,%edx
    57a4:	0f 82 fe 00 00 00    	jb     58a8 <fdisk_part_create+0x7b8>
    57aa:	77 08                	ja     57b4 <fdisk_part_create+0x6c4>
    57ac:	39 c8                	cmp    %ecx,%eax
    57ae:	0f 82 f4 00 00 00    	jb     58a8 <fdisk_part_create+0x7b8>
    57b4:	2b 45 88             	sub    -0x78(%ebp),%eax
    57b7:	8b 9d 6c ff ff ff    	mov    -0x94(%ebp),%ebx
    57bd:	1b 55 8c             	sbb    -0x74(%ebp),%edx
    57c0:	8b 8d 68 ff ff ff    	mov    -0x98(%ebp),%ecx
    57c6:	39 d3                	cmp    %edx,%ebx
    57c8:	72 0e                	jb     57d8 <fdisk_part_create+0x6e8>
    57ca:	0f 87 d8 00 00 00    	ja     58a8 <fdisk_part_create+0x7b8>
    57d0:	39 c1                	cmp    %eax,%ecx
    57d2:	0f 87 d0 00 00 00    	ja     58a8 <fdisk_part_create+0x7b8>
    57d8:	89 45 80             	mov    %eax,-0x80(%ebp)
    57db:	89 55 84             	mov    %edx,-0x7c(%ebp)
    57de:	8b 5d 08             	mov    0x8(%ebp),%ebx
    57e1:	89 c6                	mov    %eax,%esi
    57e3:	89 d7                	mov    %edx,%edi
    57e5:	8b 85 50 ff ff ff    	mov    -0xb0(%ebp),%eax
    57eb:	8b 95 54 ff ff ff    	mov    -0xac(%ebp),%edx
    57f1:	03 85 58 ff ff ff    	add    -0xa8(%ebp),%eax
    57f7:	13 95 5c ff ff ff    	adc    -0xa4(%ebp),%edx
    57fd:	39 fa                	cmp    %edi,%edx
    57ff:	0f 83 4b 03 00 00    	jae    5b50 <fdisk_part_create+0xa60>
    5805:	53                   	push   %ebx
    5806:	68 0d 04 00 00       	push   $0x40d
    580b:	68 bc 6d 00 00       	push   $0x6dbc
    5810:	68 d5 6d 00 00       	push   $0x6dd5
    5815:	e8 86 1b 00 00       	call   73a0 <assert_abort@plt>
    581a:	8d b6 00 00 00 00    	lea    0x0(%esi),%esi
    5820:	8b 5d 08             	mov    0x8(%ebp),%ebx
    5823:	8b 73 34             	mov    0x34(%ebx),%esi
    5826:	8b 7b 38             	mov    0x38(%ebx),%edi
    5829:	03 73 3c             	add    0x3c(%ebx),%esi
    582c:	8b 45 94             	mov    -0x6c(%ebp),%eax
    582f:	13 7b 40             	adc    0x40(%ebx),%edi
    5832:	50                   	push   %eax
    5833:	8b 45 90             	mov    -0x70(%ebp),%eax
    5836:	50                   	push   %eax
    5837:	57                   	push   %edi
    5838:	56                   	push   %esi
    5839:	e8 02 1b 00 00       	call   7340 <__umoddi3@plt>
    583e:	83 c4 10             	add    $0x10,%esp
    5841:	29 c6                	sub    %eax,%esi
    5843:	19 d7                	sbb    %edx,%edi
    5845:	e9 22 fe ff ff       	jmp    566c <fdisk_part_create+0x57c>
    584a:	8d b6 00 00 00 00    	lea    0x0(%esi),%esi
    5850:	8b 04 85 54 6e 00 00 	mov    0x6e54(,%eax,4),%eax
    5857:	89 85 3c ff ff ff    	mov    %eax,-0xc4(%ebp)
    585d:	e9 2a fa ff ff       	jmp    528c <fdisk_part_create+0x19c>
    5862:	8d b6 00 00 00 00    	lea    0x0(%esi),%esi
    5868:	39 f0                	cmp    %esi,%eax
    586a:	0f 87 38 fe ff ff    	ja     56a8 <fdisk_part_create+0x5b8>
    5870:	e9 07 fe ff ff       	jmp    567c <fdisk_part_create+0x58c>
    5875:	8d 76 00             	lea    0x0(%esi),%esi
    5878:	72 08                	jb     5882 <fdisk_part_create+0x792>
    587a:	39 f0                	cmp    %esi,%eax
    587c:	0f 83 79 fb ff ff    	jae    53fb <fdisk_part_create+0x30b>
    5882:	8b 85 50 ff ff ff    	mov    -0xb0(%ebp),%eax
    5888:	8b 95 54 ff ff ff    	mov    -0xac(%ebp),%edx
    588e:	03 85 58 ff ff ff    	add    -0xa8(%ebp),%eax
    5894:	13 95 5c ff ff ff    	adc    -0xa4(%ebp),%edx
    589a:	89 45 80             	mov    %eax,-0x80(%ebp)
    589d:	89 55 84             	mov    %edx,-0x7c(%ebp)
    58a0:	e9 56 fb ff ff       	jmp    53fb <fdisk_part_create+0x30b>
    58a5:	8d 76 00             	lea    0x0(%esi),%esi
    58a8:	8b 45 80             	mov    -0x80(%ebp),%eax
    58ab:	03 b5 70 ff ff ff    	add    -0x90(%ebp),%esi
    58b1:	13 bd 74 ff ff ff    	adc    -0x8c(%ebp),%edi
    58b7:	03 70 50             	add    0x50(%eax),%esi
    58ba:	13 78 54             	adc    0x54(%eax),%edi
    58bd:	8b 45 94             	mov    -0x6c(%ebp),%eax
    58c0:	50                   	push   %eax
    58c1:	8b 45 90             	mov    -0x70(%ebp),%eax
    58c4:	50                   	push   %eax
    58c5:	57                   	push   %edi
    58c6:	56                   	push   %esi
    58c7:	e8 94 1a 00 00       	call   7360 <__udivdi3@plt>
    58cc:	8b 7d 94             	mov    -0x6c(%ebp),%edi
    58cf:	89 c3                	mov    %eax,%ebx
    58d1:	89 f8                	mov    %edi,%eax
    58d3:	8b 75 90             	mov    -0x70(%ebp),%esi
    58d6:	0f af c3             	imul   %ebx,%eax
    58d9:	0f af d6             	imul   %esi,%edx
    58dc:	89 c6                	mov    %eax,%esi
    58de:	89 d8                	mov    %ebx,%eax
    58e0:	01 d6                	add    %edx,%esi
    58e2:	83 c4 10             	add    $0x10,%esp
    58e5:	f7 65 90             	mull   -0x70(%ebp)
    58e8:	89 55 8c             	mov    %edx,-0x74(%ebp)
    58eb:	89 45 88             	mov    %eax,-0x78(%ebp)
    58ee:	8b 45 8c             	mov    -0x74(%ebp),%eax
    58f1:	8b 95 7c ff ff ff    	mov    -0x84(%ebp),%edx
    58f7:	01 f0                	add    %esi,%eax
    58f9:	85 d2                	test   %edx,%edx
    58fb:	89 45 8c             	mov    %eax,-0x74(%ebp)
    58fe:	8b 45 80             	mov    -0x80(%ebp),%eax
    5901:	75 25                	jne    5928 <fdisk_part_create+0x838>
    5903:	8b 48 18             	mov    0x18(%eax),%ecx
    5906:	85 c9                	test   %ecx,%ecx
    5908:	0f 84 02 01 00 00    	je     5a10 <fdisk_part_create+0x920>
    590e:	3b 8d 64 ff ff ff    	cmp    -0x9c(%ebp),%ecx
    5914:	0f 84 f6 00 00 00    	je     5a10 <fdisk_part_create+0x920>
    591a:	8d 41 ec             	lea    -0x14(%ecx),%eax
    591d:	89 45 80             	mov    %eax,-0x80(%ebp)
    5920:	e9 4b fe ff ff       	jmp    5770 <fdisk_part_create+0x680>
    5925:	8d 76 00             	lea    0x0(%esi),%esi
    5928:	8b 48 20             	mov    0x20(%eax),%ecx
    592b:	3b 8d 78 ff ff ff    	cmp    -0x88(%ebp),%ecx
    5931:	0f 84 a9 00 00 00    	je     59e0 <fdisk_part_create+0x8f0>
    5937:	85 c9                	test   %ecx,%ecx
    5939:	0f 84 a1 00 00 00    	je     59e0 <fdisk_part_create+0x8f0>
    593f:	8d 41 e4             	lea    -0x1c(%ecx),%eax
    5942:	89 45 80             	mov    %eax,-0x80(%ebp)
    5945:	e9 26 fe ff ff       	jmp    5770 <fdisk_part_create+0x680>
    594a:	8d b6 00 00 00 00    	lea    0x0(%esi),%esi
    5950:	8b 5d 08             	mov    0x8(%ebp),%ebx
    5953:	83 bd 7c ff ff ff 00 	cmpl   $0x0,-0x84(%ebp)
    595a:	0f 85 83 00 00 00    	jne    59e3 <fdisk_part_create+0x8f3>
    5960:	8b 73 34             	mov    0x34(%ebx),%esi
    5963:	8b 7b 38             	mov    0x38(%ebx),%edi
    5966:	66 90                	xchg   %ax,%ax
    5968:	03 73 3c             	add    0x3c(%ebx),%esi
    596b:	8b 45 94             	mov    -0x6c(%ebp),%eax
    596e:	13 7b 40             	adc    0x40(%ebx),%edi
    5971:	50                   	push   %eax
    5972:	8b 45 90             	mov    -0x70(%ebp),%eax
    5975:	50                   	push   %eax
    5976:	57                   	push   %edi
    5977:	56                   	push   %esi
    5978:	e8 c3 19 00 00       	call   7340 <__umoddi3@plt>
    597d:	83 c4 10             	add    $0x10,%esp
    5980:	29 c6                	sub    %eax,%esi
    5982:	19 d7                	sbb    %edx,%edi
    5984:	8b 55 8c             	mov    -0x74(%ebp),%edx
    5987:	8b 45 88             	mov    -0x78(%ebp),%eax
    598a:	39 d7                	cmp    %edx,%edi
    598c:	0f 82 87 f7 ff ff    	jb     5119 <fdisk_part_create+0x29>
    5992:	77 08                	ja     599c <fdisk_part_create+0x8ac>
    5994:	39 c6                	cmp    %eax,%esi
    5996:	0f 82 7d f7 ff ff    	jb     5119 <fdisk_part_create+0x29>
    599c:	2b 75 88             	sub    -0x78(%ebp),%esi
    599f:	8b 85 48 ff ff ff    	mov    -0xb8(%ebp),%eax
    59a5:	1b 7d 8c             	sbb    -0x74(%ebp),%edi
    59a8:	03 85 58 ff ff ff    	add    -0xa8(%ebp),%eax
    59ae:	8b 95 4c ff ff ff    	mov    -0xb4(%ebp),%edx
    59b4:	89 75 80             	mov    %esi,-0x80(%ebp)
    59b7:	13 95 5c ff ff ff    	adc    -0xa4(%ebp),%edx
    59bd:	89 7d 84             	mov    %edi,-0x7c(%ebp)
    59c0:	39 fa                	cmp    %edi,%edx
    59c2:	0f 82 1d fe ff ff    	jb     57e5 <fdisk_part_create+0x6f5>
    59c8:	0f 87 4b f7 ff ff    	ja     5119 <fdisk_part_create+0x29>
    59ce:	39 f0                	cmp    %esi,%eax
    59d0:	0f 86 0f fe ff ff    	jbe    57e5 <fdisk_part_create+0x6f5>
    59d6:	e9 3e f7 ff ff       	jmp    5119 <fdisk_part_create+0x29>
    59db:	90                   	nop
    59dc:	8d 74 26 00          	lea    0x0(%esi,%eiz,1),%esi
    59e0:	8b 5d 08             	mov    0x8(%ebp),%ebx
    59e3:	8b 43 28             	mov    0x28(%ebx),%eax
    59e6:	8b 4d 94             	mov    -0x6c(%ebp),%ecx
    59e9:	8b 70 50             	mov    0x50(%eax),%esi
    59ec:	8b 78 54             	mov    0x54(%eax),%edi
    59ef:	03 70 48             	add    0x48(%eax),%esi
    59f2:	13 78 4c             	adc    0x4c(%eax),%edi
    59f5:	8b 45 90             	mov    -0x70(%ebp),%eax
    59f8:	51                   	push   %ecx
    59f9:	50                   	push   %eax
    59fa:	57                   	push   %edi
    59fb:	56                   	push   %esi
    59fc:	e8 3f 19 00 00       	call   7340 <__umoddi3@plt>
    5a01:	83 c4 10             	add    $0x10,%esp
    5a04:	29 c6                	sub    %eax,%esi
    5a06:	19 d7                	sbb    %edx,%edi
    5a08:	e9 77 ff ff ff       	jmp    5984 <fdisk_part_create+0x894>
    5a0d:	8d 76 00             	lea    0x0(%esi),%esi
    5a10:	8b 5d 08             	mov    0x8(%ebp),%ebx
    5a13:	8b 73 34             	mov    0x34(%ebx),%esi
    5a16:	8b 7b 38             	mov    0x38(%ebx),%edi
    5a19:	e9 4a ff ff ff       	jmp    5968 <fdisk_part_create+0x878>
    5a1e:	66 90                	xchg   %ax,%ax
    5a20:	8b 7d 94             	mov    -0x6c(%ebp),%edi
    5a23:	8b 75 90             	mov    -0x70(%ebp),%esi
    5a26:	89 fa                	mov    %edi,%edx
    5a28:	89 b5 58 ff ff ff    	mov    %esi,-0xa8(%ebp)
    5a2e:	89 bd 5c ff ff ff    	mov    %edi,-0xa4(%ebp)
    5a34:	09 f2                	or     %esi,%edx
    5a36:	75 14                	jne    5a4c <fdisk_part_create+0x95c>
    5a38:	c7 85 58 ff ff ff 01 	movl   $0x1,-0xa8(%ebp)
    5a3f:	00 00 00 
    5a42:	c7 85 5c ff ff ff 00 	movl   $0x0,-0xa4(%ebp)
    5a49:	00 00 00 
    5a4c:	8b 85 50 ff ff ff    	mov    -0xb0(%ebp),%eax
    5a52:	8b 95 54 ff ff ff    	mov    -0xac(%ebp),%edx
    5a58:	03 85 58 ff ff ff    	add    -0xa8(%ebp),%eax
    5a5e:	8b 73 28             	mov    0x28(%ebx),%esi
    5a61:	13 95 5c ff ff ff    	adc    -0xa4(%ebp),%edx
    5a67:	89 85 68 ff ff ff    	mov    %eax,-0x98(%ebp)
    5a6d:	8b 45 90             	mov    -0x70(%ebp),%eax
    5a70:	89 95 6c ff ff ff    	mov    %edx,-0x94(%ebp)
    5a76:	83 c0 ff             	add    $0xffffffff,%eax
    5a79:	8b 55 94             	mov    -0x6c(%ebp),%edx
    5a7c:	83 d2 ff             	adc    $0xffffffff,%edx
    5a7f:	03 46 48             	add    0x48(%esi),%eax
    5a82:	13 56 4c             	adc    0x4c(%esi),%edx
    5a85:	8b 4d 94             	mov    -0x6c(%ebp),%ecx
    5a88:	8b 7d 90             	mov    -0x70(%ebp),%edi
    5a8b:	51                   	push   %ecx
    5a8c:	57                   	push   %edi
    5a8d:	52                   	push   %edx
    5a8e:	50                   	push   %eax
    5a8f:	e8 cc 18 00 00       	call   7360 <__udivdi3@plt>
    5a94:	8b 4d 94             	mov    -0x6c(%ebp),%ecx
    5a97:	89 c7                	mov    %eax,%edi
    5a99:	8b 45 90             	mov    -0x70(%ebp),%eax
    5a9c:	83 c4 10             	add    $0x10,%esp
    5a9f:	0f af d0             	imul   %eax,%edx
    5aa2:	0f af cf             	imul   %edi,%ecx
    5aa5:	89 f8                	mov    %edi,%eax
    5aa7:	01 d1                	add    %edx,%ecx
    5aa9:	f7 65 90             	mull   -0x70(%ebp)
    5aac:	89 55 8c             	mov    %edx,-0x74(%ebp)
    5aaf:	89 45 88             	mov    %eax,-0x78(%ebp)
    5ab2:	8b 45 8c             	mov    -0x74(%ebp),%eax
    5ab5:	01 c8                	add    %ecx,%eax
    5ab7:	8b 4b 24             	mov    0x24(%ebx),%ecx
    5aba:	89 45 8c             	mov    %eax,-0x74(%ebp)
    5abd:	85 c9                	test   %ecx,%ecx
    5abf:	74 1d                	je     5ade <fdisk_part_create+0x9ee>
    5ac1:	8d 43 20             	lea    0x20(%ebx),%eax
    5ac4:	c7 85 7c ff ff ff 01 	movl   $0x1,-0x84(%ebp)
    5acb:	00 00 00 
    5ace:	39 c1                	cmp    %eax,%ecx
    5ad0:	0f 95 c0             	setne  %al
    5ad3:	83 e9 1c             	sub    $0x1c,%ecx
    5ad6:	84 c0                	test   %al,%al
    5ad8:	0f 85 59 f8 ff ff    	jne    5337 <fdisk_part_create+0x247>
    5ade:	c7 85 7c ff ff ff 01 	movl   $0x1,-0x84(%ebp)
    5ae5:	00 00 00 
    5ae8:	e9 59 fb ff ff       	jmp    5646 <fdisk_part_create+0x556>
    5aed:	8d 76 00             	lea    0x0(%esi),%esi
    5af0:	8b 75 90             	mov    -0x70(%ebp),%esi
    5af3:	8b 4b 28             	mov    0x28(%ebx),%ecx
    5af6:	8b 7d 94             	mov    -0x6c(%ebp),%edi
    5af9:	89 f0                	mov    %esi,%eax
    5afb:	83 c0 ff             	add    $0xffffffff,%eax
    5afe:	89 fa                	mov    %edi,%edx
    5b00:	83 d2 ff             	adc    $0xffffffff,%edx
    5b03:	03 41 48             	add    0x48(%ecx),%eax
    5b06:	13 51 4c             	adc    0x4c(%ecx),%edx
    5b09:	57                   	push   %edi
    5b0a:	56                   	push   %esi
    5b0b:	52                   	push   %edx
    5b0c:	50                   	push   %eax
    5b0d:	e8 4e 18 00 00       	call   7360 <__udivdi3@plt>
    5b12:	89 f9                	mov    %edi,%ecx
    5b14:	83 c4 10             	add    $0x10,%esp
    5b17:	0f af d6             	imul   %esi,%edx
    5b1a:	0f af c8             	imul   %eax,%ecx
    5b1d:	01 d1                	add    %edx,%ecx
    5b1f:	f7 e6                	mul    %esi
    5b21:	89 55 8c             	mov    %edx,-0x74(%ebp)
    5b24:	89 45 88             	mov    %eax,-0x78(%ebp)
    5b27:	8b 45 8c             	mov    -0x74(%ebp),%eax
    5b2a:	01 c8                	add    %ecx,%eax
    5b2c:	8b 4b 24             	mov    0x24(%ebx),%ecx
    5b2f:	89 45 8c             	mov    %eax,-0x74(%ebp)
    5b32:	8d 43 20             	lea    0x20(%ebx),%eax
    5b35:	39 c1                	cmp    %eax,%ecx
    5b37:	0f 84 16 fe ff ff    	je     5953 <fdisk_part_create+0x863>
    5b3d:	85 c9                	test   %ecx,%ecx
    5b3f:	0f 84 0e fe ff ff    	je     5953 <fdisk_part_create+0x863>
    5b45:	83 e9 1c             	sub    $0x1c,%ecx
    5b48:	e9 c9 fb ff ff       	jmp    5716 <fdisk_part_create+0x626>
    5b4d:	8d 76 00             	lea    0x0(%esi),%esi
    5b50:	0f 87 a5 f8 ff ff    	ja     53fb <fdisk_part_create+0x30b>
    5b56:	39 f0                	cmp    %esi,%eax
    5b58:	0f 86 a7 fc ff ff    	jbe    5805 <fdisk_part_create+0x715>
    5b5e:	e9 98 f8 ff ff       	jmp    53fb <fdisk_part_create+0x30b>
    5b63:	90                   	nop
    5b64:	8d 74 26 00          	lea    0x0(%esi,%eiz,1),%esi
    5b68:	50                   	push   %eax
    5b69:	50                   	push   %eax
    5b6a:	8b 03                	mov    (%ebx),%eax
    5b6c:	8b 4d a8             	mov    -0x58(%ebp),%ecx
    5b6f:	51                   	push   %ecx
    5b70:	8b 58 04             	mov    0x4(%eax),%ebx
    5b73:	53                   	push   %ebx
    5b74:	e8 97 16 00 00       	call   7210 <vbd_part_delete@plt>
    5b79:	83 c4 10             	add    $0x10,%esp
    5b7c:	e9 98 f5 ff ff       	jmp    5119 <fdisk_part_create+0x29>
    5b81:	8d b4 26 00 00 00 00 	lea    0x0(%esi,%eiz,1),%esi
    5b88:	c7 85 60 ff ff ff 01 	movl   $0x1,-0xa0(%ebp)
    5b8f:	00 00 00 
    5b92:	e9 c9 f8 ff ff       	jmp    5460 <fdisk_part_create+0x370>
    5b97:	8b 45 a0             	mov    -0x60(%ebp),%eax
    5b9a:	8b 48 04             	mov    0x4(%eax),%ecx
    5b9d:	85 c9                	test   %ecx,%ecx
    5b9f:	74 0f                	je     5bb0 <fdisk_part_create+0xac0>
    5ba1:	8b 50 08             	mov    0x8(%eax),%edx
    5ba4:	85 d2                	test   %edx,%edx
    5ba6:	74 08                	je     5bb0 <fdisk_part_create+0xac0>
    5ba8:	89 0a                	mov    %ecx,(%edx)
    5baa:	8b 48 04             	mov    0x4(%eax),%ecx
    5bad:	89 51 04             	mov    %edx,0x4(%ecx)
    5bb0:	8b 48 14             	mov    0x14(%eax),%ecx
    5bb3:	c7 40 04 00 00 00 00 	movl   $0x0,0x4(%eax)
    5bba:	c7 40 08 00 00 00 00 	movl   $0x0,0x8(%eax)
    5bc1:	85 c9                	test   %ecx,%ecx
    5bc3:	74 75                	je     5c3a <fdisk_part_create+0xb4a>
    5bc5:	8b 50 18             	mov    0x18(%eax),%edx
    5bc8:	85 d2                	test   %edx,%edx
    5bca:	74 74                	je     5c40 <fdisk_part_create+0xb50>
    5bcc:	89 0a                	mov    %ecx,(%edx)
    5bce:	8b 48 14             	mov    0x14(%eax),%ecx
    5bd1:	89 51 04             	mov    %edx,0x4(%ecx)
    5bd4:	c7 40 14 00 00 00 00 	movl   $0x0,0x14(%eax)
    5bdb:	c7 40 18 00 00 00 00 	movl   $0x0,0x18(%eax)
    5be2:	8b 48 0c             	mov    0xc(%eax),%ecx
    5be5:	85 c9                	test   %ecx,%ecx
    5be7:	74 64                	je     5c4d <fdisk_part_create+0xb5d>
    5be9:	8b 50 10             	mov    0x10(%eax),%edx
    5bec:	85 d2                	test   %edx,%edx
    5bee:	74 50                	je     5c40 <fdisk_part_create+0xb50>
    5bf0:	89 0a                	mov    %ecx,(%edx)
    5bf2:	8b 48 0c             	mov    0xc(%eax),%ecx
    5bf5:	89 51 04             	mov    %edx,0x4(%ecx)
    5bf8:	c7 40 0c 00 00 00 00 	movl   $0x0,0xc(%eax)
    5bff:	c7 40 10 00 00 00 00 	movl   $0x0,0x10(%eax)
    5c06:	8b 48 1c             	mov    0x1c(%eax),%ecx
    5c09:	85 c9                	test   %ecx,%ecx
    5c0b:	74 38                	je     5c45 <fdisk_part_create+0xb55>
    5c0d:	8b 50 20             	mov    0x20(%eax),%edx
    5c10:	85 d2                	test   %edx,%edx
    5c12:	74 2c                	je     5c40 <fdisk_part_create+0xb50>
    5c14:	89 0a                	mov    %ecx,(%edx)
    5c16:	8b 48 1c             	mov    0x1c(%eax),%ecx
    5c19:	89 51 04             	mov    %edx,0x4(%ecx)
    5c1c:	c7 40 1c 00 00 00 00 	movl   $0x0,0x1c(%eax)
    5c23:	c7 40 20 00 00 00 00 	movl   $0x0,0x20(%eax)
    5c2a:	83 ec 0c             	sub    $0xc,%esp
    5c2d:	50                   	push   %eax
    5c2e:	e8 bd 19 00 00       	call   75f0 <free@plt>
    5c33:	5e                   	pop    %esi
    5c34:	5f                   	pop    %edi
    5c35:	e9 30 ff ff ff       	jmp    5b6a <fdisk_part_create+0xa7a>
    5c3a:	83 78 18 00          	cmpl   $0x0,0x18(%eax)
    5c3e:	74 a2                	je     5be2 <fdisk_part_create+0xaf2>
    5c40:	e8 32 02 00 00       	call   5e77 <link_used.part.2>
    5c45:	83 78 20 00          	cmpl   $0x0,0x20(%eax)
    5c49:	75 f5                	jne    5c40 <fdisk_part_create+0xb50>
    5c4b:	eb dd                	jmp    5c2a <fdisk_part_create+0xb3a>
    5c4d:	83 78 10 00          	cmpl   $0x0,0x10(%eax)
    5c51:	75 ed                	jne    5c40 <fdisk_part_create+0xb50>
    5c53:	eb b1                	jmp    5c06 <fdisk_part_create+0xb16>
    5c55:	8b 85 50 ff ff ff    	mov    -0xb0(%ebp),%eax
    5c5b:	8b 95 54 ff ff ff    	mov    -0xac(%ebp),%edx
    5c61:	89 85 68 ff ff ff    	mov    %eax,-0x98(%ebp)
    5c67:	89 95 6c ff ff ff    	mov    %edx,-0x94(%ebp)
    5c6d:	c7 85 7c ff ff ff 00 	movl   $0x0,-0x84(%ebp)
    5c74:	00 00 00 
    5c77:	c7 85 58 ff ff ff 00 	movl   $0x0,-0xa8(%ebp)
    5c7e:	00 00 00 
    5c81:	c7 85 5c ff ff ff 00 	movl   $0x0,-0xa4(%ebp)
    5c88:	00 00 00 
    5c8b:	e9 99 fb ff ff       	jmp    5829 <fdisk_part_create+0x739>

00005c90 <fdisk_part_destroy>:
    5c90:	55                   	push   %ebp
    5c91:	89 e5                	mov    %esp,%ebp
    5c93:	53                   	push   %ebx
    5c94:	83 ec 1c             	sub    $0x1c,%esp
    5c97:	8b 5d 08             	mov    0x8(%ebp),%ebx
    5c9a:	8b 03                	mov    (%ebx),%eax
    5c9c:	8b 4b 40             	mov    0x40(%ebx),%ecx
    5c9f:	51                   	push   %ecx
    5ca0:	8b 00                	mov    (%eax),%eax
    5ca2:	8b 40 04             	mov    0x4(%eax),%eax
    5ca5:	50                   	push   %eax
    5ca6:	e8 65 15 00 00       	call   7210 <vbd_part_delete@plt>
    5cab:	83 c4 10             	add    $0x10,%esp
    5cae:	85 c0                	test   %eax,%eax
    5cb0:	0f 85 da 00 00 00    	jne    5d90 <fdisk_part_destroy+0x100>
    5cb6:	8b 4b 04             	mov    0x4(%ebx),%ecx
    5cb9:	85 c9                	test   %ecx,%ecx
    5cbb:	74 0f                	je     5ccc <fdisk_part_destroy+0x3c>
    5cbd:	8b 53 08             	mov    0x8(%ebx),%edx
    5cc0:	85 d2                	test   %edx,%edx
    5cc2:	74 08                	je     5ccc <fdisk_part_destroy+0x3c>
    5cc4:	89 0a                	mov    %ecx,(%edx)
    5cc6:	8b 4b 04             	mov    0x4(%ebx),%ecx
    5cc9:	89 51 04             	mov    %edx,0x4(%ecx)
    5ccc:	8b 4b 14             	mov    0x14(%ebx),%ecx
    5ccf:	c7 43 04 00 00 00 00 	movl   $0x0,0x4(%ebx)
    5cd6:	c7 43 08 00 00 00 00 	movl   $0x0,0x8(%ebx)
    5cdd:	85 c9                	test   %ecx,%ecx
    5cdf:	74 7f                	je     5d60 <fdisk_part_destroy+0xd0>
    5ce1:	8b 53 18             	mov    0x18(%ebx),%edx
    5ce4:	85 d2                	test   %edx,%edx
    5ce6:	74 7f                	je     5d67 <fdisk_part_destroy+0xd7>
    5ce8:	89 0a                	mov    %ecx,(%edx)
    5cea:	8b 4b 14             	mov    0x14(%ebx),%ecx
    5ced:	89 51 04             	mov    %edx,0x4(%ecx)
    5cf0:	c7 43 14 00 00 00 00 	movl   $0x0,0x14(%ebx)
    5cf7:	c7 43 18 00 00 00 00 	movl   $0x0,0x18(%ebx)
    5cfe:	8b 4b 0c             	mov    0xc(%ebx),%ecx
    5d01:	85 c9                	test   %ecx,%ecx
    5d03:	74 6b                	je     5d70 <fdisk_part_destroy+0xe0>
    5d05:	8b 53 10             	mov    0x10(%ebx),%edx
    5d08:	85 d2                	test   %edx,%edx
    5d0a:	74 5b                	je     5d67 <fdisk_part_destroy+0xd7>
    5d0c:	89 0a                	mov    %ecx,(%edx)
    5d0e:	8b 4b 0c             	mov    0xc(%ebx),%ecx
    5d11:	89 51 04             	mov    %edx,0x4(%ecx)
    5d14:	c7 43 0c 00 00 00 00 	movl   $0x0,0xc(%ebx)
    5d1b:	c7 43 10 00 00 00 00 	movl   $0x0,0x10(%ebx)
    5d22:	8b 4b 1c             	mov    0x1c(%ebx),%ecx
    5d25:	85 c9                	test   %ecx,%ecx
    5d27:	74 57                	je     5d80 <fdisk_part_destroy+0xf0>
    5d29:	8b 53 20             	mov    0x20(%ebx),%edx
    5d2c:	85 d2                	test   %edx,%edx
    5d2e:	74 37                	je     5d67 <fdisk_part_destroy+0xd7>
    5d30:	89 0a                	mov    %ecx,(%edx)
    5d32:	8b 4b 1c             	mov    0x1c(%ebx),%ecx
    5d35:	89 51 04             	mov    %edx,0x4(%ecx)
    5d38:	c7 43 1c 00 00 00 00 	movl   $0x0,0x1c(%ebx)
    5d3f:	c7 43 20 00 00 00 00 	movl   $0x0,0x20(%ebx)
    5d46:	83 ec 0c             	sub    $0xc,%esp
    5d49:	89 45 f4             	mov    %eax,-0xc(%ebp)
    5d4c:	53                   	push   %ebx
    5d4d:	e8 9e 18 00 00       	call   75f0 <free@plt>
    5d52:	83 c4 10             	add    $0x10,%esp
    5d55:	8b 45 f4             	mov    -0xc(%ebp),%eax
    5d58:	8b 5d fc             	mov    -0x4(%ebp),%ebx
    5d5b:	c9                   	leave  
    5d5c:	c3                   	ret    
    5d5d:	8d 76 00             	lea    0x0(%esi),%esi
    5d60:	8b 53 18             	mov    0x18(%ebx),%edx
    5d63:	85 d2                	test   %edx,%edx
    5d65:	74 97                	je     5cfe <fdisk_part_destroy+0x6e>
    5d67:	e8 0b 01 00 00       	call   5e77 <link_used.part.2>
    5d6c:	8d 74 26 00          	lea    0x0(%esi,%eiz,1),%esi
    5d70:	8b 4b 10             	mov    0x10(%ebx),%ecx
    5d73:	85 c9                	test   %ecx,%ecx
    5d75:	74 ab                	je     5d22 <fdisk_part_destroy+0x92>
    5d77:	e8 fb 00 00 00       	call   5e77 <link_used.part.2>
    5d7c:	8d 74 26 00          	lea    0x0(%esi,%eiz,1),%esi
    5d80:	8b 53 20             	mov    0x20(%ebx),%edx
    5d83:	85 d2                	test   %edx,%edx
    5d85:	74 bf                	je     5d46 <fdisk_part_destroy+0xb6>
    5d87:	e8 eb 00 00 00       	call   5e77 <link_used.part.2>
    5d8c:	8d 74 26 00          	lea    0x0(%esi,%eiz,1),%esi
    5d90:	b8 f6 fe ff ff       	mov    $0xfffffef6,%eax
    5d95:	eb c1                	jmp    5d58 <fdisk_part_destroy+0xc8>
    5d97:	89 f6                	mov    %esi,%esi
    5d99:	8d bc 27 00 00 00 00 	lea    0x0(%edi,%eiz,1),%edi

00005da0 <fdisk_pspec_init>:
    5da0:	55                   	push   %ebp
    5da1:	89 e5                	mov    %esp,%ebp
    5da3:	83 ec 0c             	sub    $0xc,%esp
    5da6:	8b 45 08             	mov    0x8(%ebp),%eax
    5da9:	6a 18                	push   $0x18
    5dab:	6a 00                	push   $0x0
    5dad:	50                   	push   %eax
    5dae:	e8 ed 16 00 00       	call   74a0 <memset@plt>
    5db3:	83 c4 10             	add    $0x10,%esp
    5db6:	c9                   	leave  
    5db7:	c3                   	ret    
    5db8:	90                   	nop
    5db9:	8d b4 26 00 00 00 00 	lea    0x0(%esi,%eiz,1),%esi

00005dc0 <fdisk_ltype_format>:
    5dc0:	55                   	push   %ebp
    5dc1:	31 c0                	xor    %eax,%eax
    5dc3:	89 e5                	mov    %esp,%ebp
    5dc5:	83 ec 08             	sub    $0x8,%esp
    5dc8:	8b 55 08             	mov    0x8(%ebp),%edx
    5dcb:	83 fa 02             	cmp    $0x2,%edx
    5dce:	77 07                	ja     5dd7 <fdisk_ltype_format+0x17>
    5dd0:	8b 04 95 48 6e 00 00 	mov    0x6e48(,%edx,4),%eax
    5dd7:	83 ec 0c             	sub    $0xc,%esp
    5dda:	50                   	push   %eax
    5ddb:	e8 40 16 00 00       	call   7420 <str_dup@plt>
    5de0:	83 c4 10             	add    $0x10,%esp
    5de3:	85 c0                	test   %eax,%eax
    5de5:	74 09                	je     5df0 <fdisk_ltype_format+0x30>
    5de7:	8b 55 0c             	mov    0xc(%ebp),%edx
    5dea:	89 02                	mov    %eax,(%edx)
    5dec:	31 c0                	xor    %eax,%eax
    5dee:	c9                   	leave  
    5def:	c3                   	ret    
    5df0:	b8 fe ff ff ff       	mov    $0xfffffffe,%eax
    5df5:	c9                   	leave  
    5df6:	c3                   	ret    
    5df7:	89 f6                	mov    %esi,%esi
    5df9:	8d bc 27 00 00 00 00 	lea    0x0(%edi,%eiz,1),%edi

00005e00 <fdisk_fstype_format>:
    5e00:	55                   	push   %ebp
    5e01:	31 c0                	xor    %eax,%eax
    5e03:	89 e5                	mov    %esp,%ebp
    5e05:	83 ec 08             	sub    $0x8,%esp
    5e08:	8b 55 08             	mov    0x8(%ebp),%edx
    5e0b:	83 fa 03             	cmp    $0x3,%edx
    5e0e:	77 07                	ja     5e17 <fdisk_fstype_format+0x17>
    5e10:	8b 04 95 38 6e 00 00 	mov    0x6e38(,%edx,4),%eax
    5e17:	83 ec 0c             	sub    $0xc,%esp
    5e1a:	50                   	push   %eax
    5e1b:	e8 00 16 00 00       	call   7420 <str_dup@plt>
    5e20:	83 c4 10             	add    $0x10,%esp
    5e23:	85 c0                	test   %eax,%eax
    5e25:	74 09                	je     5e30 <fdisk_fstype_format+0x30>
    5e27:	8b 55 0c             	mov    0xc(%ebp),%edx
    5e2a:	89 02                	mov    %eax,(%edx)
    5e2c:	31 c0                	xor    %eax,%eax
    5e2e:	c9                   	leave  
    5e2f:	c3                   	ret    
    5e30:	b8 fe ff ff ff       	mov    $0xfffffffe,%eax
    5e35:	c9                   	leave  
    5e36:	c3                   	ret    
    5e37:	89 f6                	mov    %esi,%esi
    5e39:	8d bc 27 00 00 00 00 	lea    0x0(%edi,%eiz,1),%edi

00005e40 <fdisk_pkind_format>:
    5e40:	55                   	push   %ebp
    5e41:	31 c0                	xor    %eax,%eax
    5e43:	89 e5                	mov    %esp,%ebp
    5e45:	83 ec 08             	sub    $0x8,%esp
    5e48:	8b 55 08             	mov    0x8(%ebp),%edx
    5e4b:	83 fa 02             	cmp    $0x2,%edx
    5e4e:	77 07                	ja     5e57 <fdisk_pkind_format+0x17>
    5e50:	8b 04 95 2c 6e 00 00 	mov    0x6e2c(,%edx,4),%eax
    5e57:	83 ec 0c             	sub    $0xc,%esp
    5e5a:	50                   	push   %eax
    5e5b:	e8 c0 15 00 00       	call   7420 <str_dup@plt>
    5e60:	83 c4 10             	add    $0x10,%esp
    5e63:	85 c0                	test   %eax,%eax
    5e65:	74 09                	je     5e70 <fdisk_pkind_format+0x30>
    5e67:	8b 55 0c             	mov    0xc(%ebp),%edx
    5e6a:	89 02                	mov    %eax,(%edx)
    5e6c:	31 c0                	xor    %eax,%eax
    5e6e:	c9                   	leave  
    5e6f:	c3                   	ret    
    5e70:	b8 fe ff ff ff       	mov    $0xfffffffe,%eax
    5e75:	c9                   	leave  
    5e76:	c3                   	ret    

00005e77 <link_used.part.2>:
    5e77:	55                   	push   %ebp
    5e78:	89 e5                	mov    %esp,%ebp
    5e7a:	83 ec 0c             	sub    $0xc,%esp
    5e7d:	68 8a 01 00 00       	push   $0x18a
    5e82:	68 70 6d 00 00       	push   $0x6d70
    5e87:	68 90 6d 00 00       	push   $0x6d90
    5e8c:	e8 0f 15 00 00       	call   73a0 <assert_abort@plt>
    5e91:	66 90                	xchg   %ax,%ax
    5e93:	66 90                	xchg   %ax,%ax
    5e95:	66 90                	xchg   %ax,%ax
    5e97:	66 90                	xchg   %ax,%ax
    5e99:	66 90                	xchg   %ax,%ax
    5e9b:	66 90                	xchg   %ax,%ax
    5e9d:	66 90                	xchg   %ax,%ax
    5e9f:	90                   	nop

00005ea0 <fdisk_cap_from_blocks>:
    5ea0:	55                   	push   %ebp
    5ea1:	89 e5                	mov    %esp,%ebp
    5ea3:	57                   	push   %edi
    5ea4:	56                   	push   %esi
    5ea5:	8b 45 10             	mov    0x10(%ebp),%eax
    5ea8:	8b 7d 0c             	mov    0xc(%ebp),%edi
    5eab:	0f af f8             	imul   %eax,%edi
    5eae:	f7 65 08             	mull   0x8(%ebp)
    5eb1:	8b 75 14             	mov    0x14(%ebp),%esi
    5eb4:	01 fa                	add    %edi,%edx
    5eb6:	89 06                	mov    %eax,(%esi)
    5eb8:	89 56 04             	mov    %edx,0x4(%esi)
    5ebb:	c7 46 08 00 00 00 00 	movl   $0x0,0x8(%esi)
    5ec2:	c7 46 0c 00 00 00 00 	movl   $0x0,0xc(%esi)
    5ec9:	5e                   	pop    %esi
    5eca:	5f                   	pop    %edi
    5ecb:	5d                   	pop    %ebp
    5ecc:	c3                   	ret    
    5ecd:	8d 76 00             	lea    0x0(%esi),%esi

00005ed0 <fdisk_cap_to_blocks>:
    5ed0:	55                   	push   %ebp
    5ed1:	89 e5                	mov    %esp,%ebp
    5ed3:	57                   	push   %edi
    5ed4:	56                   	push   %esi
    5ed5:	53                   	push   %ebx
    5ed6:	83 ec 3c             	sub    $0x3c,%esp
    5ed9:	8b 75 08             	mov    0x8(%ebp),%esi
    5edc:	8b 46 0c             	mov    0xc(%esi),%eax
    5edf:	8d 04 40             	lea    (%eax,%eax,2),%eax
    5ee2:	2b 46 08             	sub    0x8(%esi),%eax
    5ee5:	0f 88 15 01 00 00    	js     6000 <fdisk_cap_to_blocks+0x130>
    5eeb:	8d 55 e0             	lea    -0x20(%ebp),%edx
    5eee:	57                   	push   %edi
    5eef:	57                   	push   %edi
    5ef0:	52                   	push   %edx
    5ef1:	50                   	push   %eax
    5ef2:	e8 39 16 00 00       	call   7530 <ipow10_u64@plt>
    5ef7:	83 c4 10             	add    $0x10,%esp
    5efa:	85 c0                	test   %eax,%eax
    5efc:	0f 85 9b 00 00 00    	jne    5f9d <fdisk_cap_to_blocks+0xcd>
    5f02:	8b 45 e0             	mov    -0x20(%ebp),%eax
    5f05:	8b 55 e4             	mov    -0x1c(%ebp),%edx
    5f08:	83 7d 0c 01          	cmpl   $0x1,0xc(%ebp)
    5f0c:	0f 84 9e 00 00 00    	je     5fb0 <fdisk_cap_to_blocks+0xe0>
    5f12:	83 7d 0c 02          	cmpl   $0x2,0xc(%ebp)
    5f16:	89 45 d0             	mov    %eax,-0x30(%ebp)
    5f19:	89 55 d4             	mov    %edx,-0x2c(%ebp)
    5f1c:	0f 84 66 01 00 00    	je     6088 <fdisk_cap_to_blocks+0x1b8>
    5f22:	c7 45 c8 00 00 00 00 	movl   $0x0,-0x38(%ebp)
    5f29:	c7 45 cc 00 00 00 00 	movl   $0x0,-0x34(%ebp)
    5f30:	89 c1                	mov    %eax,%ecx
    5f32:	89 d3                	mov    %edx,%ebx
    5f34:	8b 3e                	mov    (%esi),%edi
    5f36:	8b 76 04             	mov    0x4(%esi),%esi
    5f39:	89 d8                	mov    %ebx,%eax
    5f3b:	89 f2                	mov    %esi,%edx
    5f3d:	0f af d1             	imul   %ecx,%edx
    5f40:	0f af c7             	imul   %edi,%eax
    5f43:	01 d0                	add    %edx,%eax
    5f45:	8b 4d c8             	mov    -0x38(%ebp),%ecx
    5f48:	89 c3                	mov    %eax,%ebx
    5f4a:	89 f8                	mov    %edi,%eax
    5f4c:	f7 65 d0             	mull   -0x30(%ebp)
    5f4f:	01 da                	add    %ebx,%edx
    5f51:	01 c1                	add    %eax,%ecx
    5f53:	8b 5d cc             	mov    -0x34(%ebp),%ebx
    5f56:	89 4d c8             	mov    %ecx,-0x38(%ebp)
    5f59:	11 d3                	adc    %edx,%ebx
    5f5b:	8b 4d d4             	mov    -0x2c(%ebp),%ecx
    5f5e:	89 5d cc             	mov    %ebx,-0x34(%ebp)
    5f61:	8b 5d d0             	mov    -0x30(%ebp),%ebx
    5f64:	51                   	push   %ecx
    5f65:	53                   	push   %ebx
    5f66:	52                   	push   %edx
    5f67:	50                   	push   %eax
    5f68:	e8 f3 13 00 00       	call   7360 <__udivdi3@plt>
    5f6d:	83 c4 10             	add    $0x10,%esp
    5f70:	31 f8                	xor    %edi,%eax
    5f72:	31 f2                	xor    %esi,%edx
    5f74:	09 c2                	or     %eax,%edx
    5f76:	75 25                	jne    5f9d <fdisk_cap_to_blocks+0xcd>
    5f78:	31 ff                	xor    %edi,%edi
    5f7a:	8b 45 cc             	mov    -0x34(%ebp),%eax
    5f7d:	8b 55 c8             	mov    -0x38(%ebp),%edx
    5f80:	8b 75 10             	mov    0x10(%ebp),%esi
    5f83:	57                   	push   %edi
    5f84:	56                   	push   %esi
    5f85:	50                   	push   %eax
    5f86:	52                   	push   %edx
    5f87:	e8 b4 13 00 00       	call   7340 <__umoddi3@plt>
    5f8c:	8b 4d c8             	mov    -0x38(%ebp),%ecx
    5f8f:	8b 5d cc             	mov    -0x34(%ebp),%ebx
    5f92:	83 c4 10             	add    $0x10,%esp
    5f95:	01 c8                	add    %ecx,%eax
    5f97:	11 da                	adc    %ebx,%edx
    5f99:	39 d3                	cmp    %edx,%ebx
    5f9b:	76 3b                	jbe    5fd8 <fdisk_cap_to_blocks+0x108>
    5f9d:	8d 65 f4             	lea    -0xc(%ebp),%esp
    5fa0:	b8 f8 fe ff ff       	mov    $0xfffffef8,%eax
    5fa5:	5b                   	pop    %ebx
    5fa6:	5e                   	pop    %esi
    5fa7:	5f                   	pop    %edi
    5fa8:	5d                   	pop    %ebp
    5fa9:	c3                   	ret    
    5faa:	8d b6 00 00 00 00    	lea    0x0(%esi),%esi
    5fb0:	89 45 d0             	mov    %eax,-0x30(%ebp)
    5fb3:	89 55 d4             	mov    %edx,-0x2c(%ebp)
    5fb6:	0f ac d0 01          	shrd   $0x1,%edx,%eax
    5fba:	d1 ea                	shr    %edx
    5fbc:	8b 4d d0             	mov    -0x30(%ebp),%ecx
    5fbf:	f7 d8                	neg    %eax
    5fc1:	83 d2 00             	adc    $0x0,%edx
    5fc4:	89 45 c8             	mov    %eax,-0x38(%ebp)
    5fc7:	f7 da                	neg    %edx
    5fc9:	89 55 cc             	mov    %edx,-0x34(%ebp)
    5fcc:	8b 5d d4             	mov    -0x2c(%ebp),%ebx
    5fcf:	e9 60 ff ff ff       	jmp    5f34 <fdisk_cap_to_blocks+0x64>
    5fd4:	8d 74 26 00          	lea    0x0(%esi,%eiz,1),%esi
    5fd8:	72 04                	jb     5fde <fdisk_cap_to_blocks+0x10e>
    5fda:	39 c1                	cmp    %eax,%ecx
    5fdc:	77 bf                	ja     5f9d <fdisk_cap_to_blocks+0xcd>
    5fde:	57                   	push   %edi
    5fdf:	56                   	push   %esi
    5fe0:	52                   	push   %edx
    5fe1:	50                   	push   %eax
    5fe2:	e8 79 13 00 00       	call   7360 <__udivdi3@plt>
    5fe7:	8b 4d 14             	mov    0x14(%ebp),%ecx
    5fea:	83 c4 10             	add    $0x10,%esp
    5fed:	89 01                	mov    %eax,(%ecx)
    5fef:	89 51 04             	mov    %edx,0x4(%ecx)
    5ff2:	8d 65 f4             	lea    -0xc(%ebp),%esp
    5ff5:	31 c0                	xor    %eax,%eax
    5ff7:	5b                   	pop    %ebx
    5ff8:	5e                   	pop    %esi
    5ff9:	5f                   	pop    %edi
    5ffa:	5d                   	pop    %ebp
    5ffb:	c3                   	ret    
    5ffc:	8d 74 26 00          	lea    0x0(%esi,%eiz,1),%esi
    6000:	f7 d8                	neg    %eax
    6002:	52                   	push   %edx
    6003:	52                   	push   %edx
    6004:	8d 55 e0             	lea    -0x20(%ebp),%edx
    6007:	52                   	push   %edx
    6008:	50                   	push   %eax
    6009:	e8 22 15 00 00       	call   7530 <ipow10_u64@plt>
    600e:	83 c4 10             	add    $0x10,%esp
    6011:	85 c0                	test   %eax,%eax
    6013:	75 88                	jne    5f9d <fdisk_cap_to_blocks+0xcd>
    6015:	8b 06                	mov    (%esi),%eax
    6017:	8b 56 04             	mov    0x4(%esi),%edx
    601a:	8b 7d e4             	mov    -0x1c(%ebp),%edi
    601d:	8b 75 e0             	mov    -0x20(%ebp),%esi
    6020:	89 fb                	mov    %edi,%ebx
    6022:	89 f1                	mov    %esi,%ecx
    6024:	0f ac d9 01          	shrd   $0x1,%ebx,%ecx
    6028:	89 45 d0             	mov    %eax,-0x30(%ebp)
    602b:	89 55 d4             	mov    %edx,-0x2c(%ebp)
    602e:	d1 eb                	shr    %ebx
    6030:	01 c8                	add    %ecx,%eax
    6032:	11 da                	adc    %ebx,%edx
    6034:	57                   	push   %edi
    6035:	89 4d c0             	mov    %ecx,-0x40(%ebp)
    6038:	56                   	push   %esi
    6039:	89 5d c4             	mov    %ebx,-0x3c(%ebp)
    603c:	52                   	push   %edx
    603d:	50                   	push   %eax
    603e:	e8 1d 13 00 00       	call   7360 <__udivdi3@plt>
    6043:	89 c3                	mov    %eax,%ebx
    6045:	89 45 c8             	mov    %eax,-0x38(%ebp)
    6048:	0f af df             	imul   %edi,%ebx
    604b:	89 f0                	mov    %esi,%eax
    604d:	89 d9                	mov    %ebx,%ecx
    604f:	89 d3                	mov    %edx,%ebx
    6051:	89 55 cc             	mov    %edx,-0x34(%ebp)
    6054:	0f af de             	imul   %esi,%ebx
    6057:	f7 65 c8             	mull   -0x38(%ebp)
    605a:	01 d9                	add    %ebx,%ecx
    605c:	89 c6                	mov    %eax,%esi
    605e:	89 d7                	mov    %edx,%edi
    6060:	83 c4 10             	add    $0x10,%esp
    6063:	01 cf                	add    %ecx,%edi
    6065:	2b 75 c0             	sub    -0x40(%ebp),%esi
    6068:	8b 4d d0             	mov    -0x30(%ebp),%ecx
    606b:	8b 5d d4             	mov    -0x2c(%ebp),%ebx
    606e:	1b 7d c4             	sbb    -0x3c(%ebp),%edi
    6071:	89 c8                	mov    %ecx,%eax
    6073:	89 da                	mov    %ebx,%edx
    6075:	31 f0                	xor    %esi,%eax
    6077:	31 fa                	xor    %edi,%edx
    6079:	09 c2                	or     %eax,%edx
    607b:	0f 84 f7 fe ff ff    	je     5f78 <fdisk_cap_to_blocks+0xa8>
    6081:	e9 17 ff ff ff       	jmp    5f9d <fdisk_cap_to_blocks+0xcd>
    6086:	66 90                	xchg   %ax,%ax
    6088:	0f ac d0 01          	shrd   $0x1,%edx,%eax
    608c:	d1 ea                	shr    %edx
    608e:	83 c0 ff             	add    $0xffffffff,%eax
    6091:	83 d2 ff             	adc    $0xffffffff,%edx
    6094:	89 45 c8             	mov    %eax,-0x38(%ebp)
    6097:	89 55 cc             	mov    %edx,-0x34(%ebp)
    609a:	8b 4d d0             	mov    -0x30(%ebp),%ecx
    609d:	8b 5d d4             	mov    -0x2c(%ebp),%ebx
    60a0:	e9 8f fe ff ff       	jmp    5f34 <fdisk_cap_to_blocks+0x64>
    60a5:	8d 74 26 00          	lea    0x0(%esi,%eiz,1),%esi
    60a9:	8d bc 27 00 00 00 00 	lea    0x0(%edi,%eiz,1),%edi

000060b0 <fdisk_cap_simplify>:
    60b0:	55                   	push   %ebp
    60b1:	89 e5                	mov    %esp,%ebp
    60b3:	57                   	push   %edi
    60b4:	56                   	push   %esi
    60b5:	53                   	push   %ebx
    60b6:	83 ec 44             	sub    $0x44,%esp
    60b9:	8d 45 e0             	lea    -0x20(%ebp),%eax
    60bc:	50                   	push   %eax
    60bd:	6a 03                	push   $0x3
    60bf:	e8 6c 14 00 00       	call   7530 <ipow10_u64@plt>
    60c4:	83 c4 10             	add    $0x10,%esp
    60c7:	85 c0                	test   %eax,%eax
    60c9:	0f 85 95 01 00 00    	jne    6264 <fdisk_cap_simplify+0x1b4>
    60cf:	8d 45 d8             	lea    -0x28(%ebp),%eax
    60d2:	51                   	push   %ecx
    60d3:	51                   	push   %ecx
    60d4:	50                   	push   %eax
    60d5:	8b 45 08             	mov    0x8(%ebp),%eax
    60d8:	8b 58 08             	mov    0x8(%eax),%ebx
    60db:	53                   	push   %ebx
    60dc:	e8 4f 14 00 00       	call   7530 <ipow10_u64@plt>
    60e1:	83 c4 10             	add    $0x10,%esp
    60e4:	85 c0                	test   %eax,%eax
    60e6:	0f 85 63 01 00 00    	jne    624f <fdisk_cap_simplify+0x19f>
    60ec:	8b 45 08             	mov    0x8(%ebp),%eax
    60ef:	8b 4d e0             	mov    -0x20(%ebp),%ecx
    60f2:	89 4d c0             	mov    %ecx,-0x40(%ebp)
    60f5:	8b 75 d8             	mov    -0x28(%ebp),%esi
    60f8:	8b 50 04             	mov    0x4(%eax),%edx
    60fb:	8b 4d e4             	mov    -0x1c(%ebp),%ecx
    60fe:	8b 00                	mov    (%eax),%eax
    6100:	8b 7d dc             	mov    -0x24(%ebp),%edi
    6103:	57                   	push   %edi
    6104:	89 cb                	mov    %ecx,%ebx
    6106:	56                   	push   %esi
    6107:	89 45 c8             	mov    %eax,-0x38(%ebp)
    610a:	52                   	push   %edx
    610b:	89 55 cc             	mov    %edx,-0x34(%ebp)
    610e:	50                   	push   %eax
    610f:	89 4d c4             	mov    %ecx,-0x3c(%ebp)
    6112:	e8 49 12 00 00       	call   7360 <__udivdi3@plt>
    6117:	83 c4 10             	add    $0x10,%esp
    611a:	39 d3                	cmp    %edx,%ebx
    611c:	0f 82 8f 00 00 00    	jb     61b1 <fdisk_cap_simplify+0x101>
    6122:	0f 86 80 00 00 00    	jbe    61a8 <fdisk_cap_simplify+0xf8>
    6128:	8b 55 c8             	mov    -0x38(%ebp),%edx
    612b:	50                   	push   %eax
    612c:	50                   	push   %eax
    612d:	8b 45 cc             	mov    -0x34(%ebp),%eax
    6130:	50                   	push   %eax
    6131:	52                   	push   %edx
    6132:	e8 e9 11 00 00       	call   7320 <ilog10_u64@plt>
    6137:	83 c4 10             	add    $0x10,%esp
    613a:	8d 50 01             	lea    0x1(%eax),%edx
    613d:	83 fa 04             	cmp    $0x4,%edx
    6140:	76 5c                	jbe    619e <fdisk_cap_simplify+0xee>
    6142:	8b 7d 08             	mov    0x8(%ebp),%edi
    6145:	83 e8 03             	sub    $0x3,%eax
    6148:	8b 5f 08             	mov    0x8(%edi),%ebx
    614b:	39 c3                	cmp    %eax,%ebx
    614d:	0f 87 f5 00 00 00    	ja     6248 <fdisk_cap_simplify+0x198>
    6153:	8d 45 d8             	lea    -0x28(%ebp),%eax
    6156:	56                   	push   %esi
    6157:	56                   	push   %esi
    6158:	50                   	push   %eax
    6159:	53                   	push   %ebx
    615a:	e8 d1 13 00 00       	call   7530 <ipow10_u64@plt>
    615f:	83 c4 10             	add    $0x10,%esp
    6162:	85 c0                	test   %eax,%eax
    6164:	0f 85 0f 01 00 00    	jne    6279 <fdisk_cap_simplify+0x1c9>
    616a:	8b 7d dc             	mov    -0x24(%ebp),%edi
    616d:	8b 75 d8             	mov    -0x28(%ebp),%esi
    6170:	89 fa                	mov    %edi,%edx
    6172:	8b 4d 08             	mov    0x8(%ebp),%ecx
    6175:	89 f0                	mov    %esi,%eax
    6177:	0f ac d0 01          	shrd   $0x1,%edx,%eax
    617b:	d1 ea                	shr    %edx
    617d:	03 01                	add    (%ecx),%eax
    617f:	13 51 04             	adc    0x4(%ecx),%edx
    6182:	57                   	push   %edi
    6183:	56                   	push   %esi
    6184:	52                   	push   %edx
    6185:	50                   	push   %eax
    6186:	e8 d5 11 00 00       	call   7360 <__udivdi3@plt>
    618b:	8b 7d 08             	mov    0x8(%ebp),%edi
    618e:	83 c4 10             	add    $0x10,%esp
    6191:	89 57 04             	mov    %edx,0x4(%edi)
    6194:	8b 57 08             	mov    0x8(%edi),%edx
    6197:	29 da                	sub    %ebx,%edx
    6199:	89 07                	mov    %eax,(%edi)
    619b:	89 57 08             	mov    %edx,0x8(%edi)
    619e:	8d 65 f4             	lea    -0xc(%ebp),%esp
    61a1:	5b                   	pop    %ebx
    61a2:	5e                   	pop    %esi
    61a3:	5f                   	pop    %edi
    61a4:	5d                   	pop    %ebp
    61a5:	c3                   	ret    
    61a6:	66 90                	xchg   %ax,%ax
    61a8:	39 45 c0             	cmp    %eax,-0x40(%ebp)
    61ab:	0f 87 77 ff ff ff    	ja     6128 <fdisk_cap_simplify+0x78>
    61b1:	8b 45 08             	mov    0x8(%ebp),%eax
    61b4:	8b 40 08             	mov    0x8(%eax),%eax
    61b7:	89 45 d0             	mov    %eax,-0x30(%ebp)
    61ba:	8b 45 08             	mov    0x8(%ebp),%eax
    61bd:	8b 40 0c             	mov    0xc(%eax),%eax
    61c0:	8d 58 01             	lea    0x1(%eax),%ebx
    61c3:	90                   	nop
    61c4:	8d 74 26 00          	lea    0x0(%esi,%eiz,1),%esi
    61c8:	8b 45 d0             	mov    -0x30(%ebp),%eax
    61cb:	89 fa                	mov    %edi,%edx
    61cd:	83 c0 03             	add    $0x3,%eax
    61d0:	89 45 d0             	mov    %eax,-0x30(%ebp)
    61d3:	89 f0                	mov    %esi,%eax
    61d5:	0f a4 c2 05          	shld   $0x5,%eax,%edx
    61d9:	c1 e0 05             	shl    $0x5,%eax
    61dc:	29 f0                	sub    %esi,%eax
    61de:	19 fa                	sbb    %edi,%edx
    61e0:	0f a4 c2 02          	shld   $0x2,%eax,%edx
    61e4:	c1 e0 02             	shl    $0x2,%eax
    61e7:	01 f0                	add    %esi,%eax
    61e9:	11 fa                	adc    %edi,%edx
    61eb:	0f a4 c2 03          	shld   $0x3,%eax,%edx
    61ef:	c1 e0 03             	shl    $0x3,%eax
    61f2:	52                   	push   %edx
    61f3:	89 45 b8             	mov    %eax,-0x48(%ebp)
    61f6:	89 c6                	mov    %eax,%esi
    61f8:	8d 43 01             	lea    0x1(%ebx),%eax
    61fb:	56                   	push   %esi
    61fc:	89 45 d4             	mov    %eax,-0x2c(%ebp)
    61ff:	8b 45 cc             	mov    -0x34(%ebp),%eax
    6202:	50                   	push   %eax
    6203:	8b 45 c8             	mov    -0x38(%ebp),%eax
    6206:	50                   	push   %eax
    6207:	89 55 bc             	mov    %edx,-0x44(%ebp)
    620a:	89 d7                	mov    %edx,%edi
    620c:	e8 4f 11 00 00       	call   7360 <__udivdi3@plt>
    6211:	83 c4 10             	add    $0x10,%esp
    6214:	3b 55 c4             	cmp    -0x3c(%ebp),%edx
    6217:	77 24                	ja     623d <fdisk_cap_simplify+0x18d>
    6219:	73 1d                	jae    6238 <fdisk_cap_simplify+0x188>
    621b:	8b 45 08             	mov    0x8(%ebp),%eax
    621e:	8b 7d d0             	mov    -0x30(%ebp),%edi
    6221:	8b 55 bc             	mov    -0x44(%ebp),%edx
    6224:	89 58 0c             	mov    %ebx,0xc(%eax)
    6227:	89 78 08             	mov    %edi,0x8(%eax)
    622a:	8b 45 b8             	mov    -0x48(%ebp),%eax
    622d:	89 55 dc             	mov    %edx,-0x24(%ebp)
    6230:	89 45 d8             	mov    %eax,-0x28(%ebp)
    6233:	e9 f0 fe ff ff       	jmp    6128 <fdisk_cap_simplify+0x78>
    6238:	3b 45 c0             	cmp    -0x40(%ebp),%eax
    623b:	72 de                	jb     621b <fdisk_cap_simplify+0x16b>
    623d:	8b 5d d4             	mov    -0x2c(%ebp),%ebx
    6240:	eb 86                	jmp    61c8 <fdisk_cap_simplify+0x118>
    6242:	8d b6 00 00 00 00    	lea    0x0(%esi),%esi
    6248:	89 c3                	mov    %eax,%ebx
    624a:	e9 04 ff ff ff       	jmp    6153 <fdisk_cap_simplify+0xa3>
    624f:	50                   	push   %eax
    6250:	68 9a 00 00 00       	push   $0x9a
    6255:	68 64 6e 00 00       	push   $0x6e64
    625a:	68 6e 6e 00 00       	push   $0x6e6e
    625f:	e8 3c 11 00 00       	call   73a0 <assert_abort@plt>
    6264:	56                   	push   %esi
    6265:	68 97 00 00 00       	push   $0x97
    626a:	68 64 6e 00 00       	push   $0x6e64
    626f:	68 6e 6e 00 00       	push   $0x6e6e
    6274:	e8 27 11 00 00       	call   73a0 <assert_abort@plt>
    6279:	51                   	push   %ecx
    627a:	68 ab 00 00 00       	push   $0xab
    627f:	68 64 6e 00 00       	push   $0x6e64
    6284:	68 6e 6e 00 00       	push   $0x6e6e
    6289:	e8 12 11 00 00       	call   73a0 <assert_abort@plt>
    628e:	66 90                	xchg   %ax,%ax

00006290 <fdisk_cap_format>:
    6290:	55                   	push   %ebp
    6291:	89 e5                	mov    %esp,%ebp
    6293:	57                   	push   %edi
    6294:	56                   	push   %esi
    6295:	53                   	push   %ebx
    6296:	83 ec 3c             	sub    $0x3c,%esp
    6299:	8b 5d 08             	mov    0x8(%ebp),%ebx
    629c:	83 7b 0c 08          	cmpl   $0x8,0xc(%ebx)
    62a0:	0f 87 c8 00 00 00    	ja     636e <fdisk_cap_format+0xde>
    62a6:	50                   	push   %eax
    62a7:	50                   	push   %eax
    62a8:	8d 45 e0             	lea    -0x20(%ebp),%eax
    62ab:	50                   	push   %eax
    62ac:	8b 43 08             	mov    0x8(%ebx),%eax
    62af:	50                   	push   %eax
    62b0:	e8 7b 12 00 00       	call   7530 <ipow10_u64@plt>
    62b5:	83 c4 10             	add    $0x10,%esp
    62b8:	89 c1                	mov    %eax,%ecx
    62ba:	85 c0                	test   %eax,%eax
    62bc:	75 61                	jne    631f <fdisk_cap_format+0x8f>
    62be:	8b 53 04             	mov    0x4(%ebx),%edx
    62c1:	89 45 cc             	mov    %eax,-0x34(%ebp)
    62c4:	8b 75 e0             	mov    -0x20(%ebp),%esi
    62c7:	8b 03                	mov    (%ebx),%eax
    62c9:	8b 7d e4             	mov    -0x1c(%ebp),%edi
    62cc:	89 45 d0             	mov    %eax,-0x30(%ebp)
    62cf:	57                   	push   %edi
    62d0:	89 55 d4             	mov    %edx,-0x2c(%ebp)
    62d3:	56                   	push   %esi
    62d4:	52                   	push   %edx
    62d5:	50                   	push   %eax
    62d6:	e8 85 10 00 00       	call   7360 <__udivdi3@plt>
    62db:	89 45 c0             	mov    %eax,-0x40(%ebp)
    62de:	8b 43 0c             	mov    0xc(%ebx),%eax
    62e1:	8b 5b 08             	mov    0x8(%ebx),%ebx
    62e4:	83 c4 10             	add    $0x10,%esp
    62e7:	89 55 c4             	mov    %edx,-0x3c(%ebp)
    62ea:	8b 04 85 20 6f 00 00 	mov    0x6f20(,%eax,4),%eax
    62f1:	85 db                	test   %ebx,%ebx
    62f3:	8b 4d cc             	mov    -0x34(%ebp),%ecx
    62f6:	75 38                	jne    6330 <fdisk_cap_format+0xa0>
    62f8:	83 ec 0c             	sub    $0xc,%esp
    62fb:	89 4d d0             	mov    %ecx,-0x30(%ebp)
    62fe:	8b 55 c0             	mov    -0x40(%ebp),%edx
    6301:	8b 4d 0c             	mov    0xc(%ebp),%ecx
    6304:	50                   	push   %eax
    6305:	8b 45 c4             	mov    -0x3c(%ebp),%eax
    6308:	50                   	push   %eax
    6309:	52                   	push   %edx
    630a:	68 8d 6e 00 00       	push   $0x6e8d
    630f:	51                   	push   %ecx
    6310:	e8 ab 11 00 00       	call   74c0 <asprintf@plt>
    6315:	83 c4 20             	add    $0x20,%esp
    6318:	8b 4d d0             	mov    -0x30(%ebp),%ecx
    631b:	85 c0                	test   %eax,%eax
    631d:	78 48                	js     6367 <fdisk_cap_format+0xd7>
    631f:	8d 65 f4             	lea    -0xc(%ebp),%esp
    6322:	89 c8                	mov    %ecx,%eax
    6324:	5b                   	pop    %ebx
    6325:	5e                   	pop    %esi
    6326:	5f                   	pop    %edi
    6327:	5d                   	pop    %ebp
    6328:	c3                   	ret    
    6329:	8d b4 26 00 00 00 00 	lea    0x0(%esi,%eiz,1),%esi
    6330:	50                   	push   %eax
    6331:	83 ec 0c             	sub    $0xc,%esp
    6334:	57                   	push   %edi
    6335:	8b 7d d0             	mov    -0x30(%ebp),%edi
    6338:	56                   	push   %esi
    6339:	8b 75 d4             	mov    -0x2c(%ebp),%esi
    633c:	56                   	push   %esi
    633d:	57                   	push   %edi
    633e:	e8 fd 0f 00 00       	call   7340 <__umoddi3@plt>
    6343:	83 c4 1c             	add    $0x1c,%esp
    6346:	52                   	push   %edx
    6347:	50                   	push   %eax
    6348:	8b 45 c4             	mov    -0x3c(%ebp),%eax
    634b:	53                   	push   %ebx
    634c:	50                   	push   %eax
    634d:	8b 45 c0             	mov    -0x40(%ebp),%eax
    6350:	50                   	push   %eax
    6351:	8b 45 0c             	mov    0xc(%ebp),%eax
    6354:	68 7e 6e 00 00       	push   $0x6e7e
    6359:	50                   	push   %eax
    635a:	e8 61 11 00 00       	call   74c0 <asprintf@plt>
    635f:	83 c4 20             	add    $0x20,%esp
    6362:	8b 4d cc             	mov    -0x34(%ebp),%ecx
    6365:	eb b4                	jmp    631b <fdisk_cap_format+0x8b>
    6367:	b9 fe ff ff ff       	mov    $0xfffffffe,%ecx
    636c:	eb b1                	jmp    631f <fdisk_cap_format+0x8f>
    636e:	50                   	push   %eax
    636f:	68 bd 00 00 00       	push   $0xbd
    6374:	68 64 6e 00 00       	push   $0x6e64
    6379:	68 78 6e 00 00       	push   $0x6e78
    637e:	e8 1d 10 00 00       	call   73a0 <assert_abort@plt>
    6383:	8d b6 00 00 00 00    	lea    0x0(%esi),%esi
    6389:	8d bc 27 00 00 00 00 	lea    0x0(%edi,%eiz,1),%edi

00006390 <fdisk_cap_parse>:
    6390:	55                   	push   %ebp
    6391:	89 e5                	mov    %esp,%ebp
    6393:	57                   	push   %edi
    6394:	56                   	push   %esi
    6395:	53                   	push   %ebx
    6396:	83 ec 1c             	sub    $0x1c,%esp
    6399:	31 ff                	xor    %edi,%edi
    639b:	8b 5d 08             	mov    0x8(%ebp),%ebx
    639e:	8a 0b                	mov    (%ebx),%cl
    63a0:	8d 41 d0             	lea    -0x30(%ecx),%eax
    63a3:	3c 09                	cmp    $0x9,%al
    63a5:	77 29                	ja     63d0 <fdisk_cap_parse+0x40>
    63a7:	90                   	nop
    63a8:	25 ff 00 00 00       	and    $0xff,%eax
    63ad:	ff 24 85 c0 6e 00 00 	jmp    *0x6ec0(,%eax,4)
    63b4:	8d 74 26 00          	lea    0x0(%esi,%eiz,1),%esi
    63b8:	b8 01 00 00 00       	mov    $0x1,%eax
    63bd:	8d 76 00             	lea    0x0(%esi),%esi
    63c0:	43                   	inc    %ebx
    63c1:	8d 14 bf             	lea    (%edi,%edi,4),%edx
    63c4:	8a 0b                	mov    (%ebx),%cl
    63c6:	8d 3c 50             	lea    (%eax,%edx,2),%edi
    63c9:	8d 41 d0             	lea    -0x30(%ecx),%eax
    63cc:	3c 09                	cmp    $0x9,%al
    63ce:	76 d8                	jbe    63a8 <fdisk_cap_parse+0x18>
    63d0:	80 f9 2e             	cmp    $0x2e,%cl
    63d3:	0f 84 2f 01 00 00    	je     6508 <fdisk_cap_parse+0x178>
    63d9:	c7 45 e4 00 00 00 00 	movl   $0x0,-0x1c(%ebp)
    63e0:	eb 09                	jmp    63eb <fdisk_cap_parse+0x5b>
    63e2:	8d b6 00 00 00 00    	lea    0x0(%esi),%esi
    63e8:	43                   	inc    %ebx
    63e9:	8a 0b                	mov    (%ebx),%cl
    63eb:	80 f9 20             	cmp    $0x20,%cl
    63ee:	74 f8                	je     63e8 <fdisk_cap_parse+0x58>
    63f0:	84 c9                	test   %cl,%cl
    63f2:	0f 85 90 00 00 00    	jne    6488 <fdisk_cap_parse+0xf8>
    63f8:	8b 45 0c             	mov    0xc(%ebp),%eax
    63fb:	c7 40 0c 00 00 00 00 	movl   $0x0,0xc(%eax)
    6402:	8b 75 e4             	mov    -0x1c(%ebp),%esi
    6405:	89 38                	mov    %edi,(%eax)
    6407:	c7 40 04 00 00 00 00 	movl   $0x0,0x4(%eax)
    640e:	89 70 08             	mov    %esi,0x8(%eax)
    6411:	8d 65 f4             	lea    -0xc(%ebp),%esp
    6414:	31 c0                	xor    %eax,%eax
    6416:	5b                   	pop    %ebx
    6417:	5e                   	pop    %esi
    6418:	5f                   	pop    %edi
    6419:	5d                   	pop    %ebp
    641a:	c3                   	ret    
    641b:	90                   	nop
    641c:	8d 74 26 00          	lea    0x0(%esi,%eiz,1),%esi
    6420:	b8 07 00 00 00       	mov    $0x7,%eax
    6425:	eb 99                	jmp    63c0 <fdisk_cap_parse+0x30>
    6427:	90                   	nop
    6428:	b8 04 00 00 00       	mov    $0x4,%eax
    642d:	eb 91                	jmp    63c0 <fdisk_cap_parse+0x30>
    642f:	90                   	nop
    6430:	b8 03 00 00 00       	mov    $0x3,%eax
    6435:	eb 89                	jmp    63c0 <fdisk_cap_parse+0x30>
    6437:	90                   	nop
    6438:	b8 02 00 00 00       	mov    $0x2,%eax
    643d:	eb 81                	jmp    63c0 <fdisk_cap_parse+0x30>
    643f:	90                   	nop
    6440:	31 c0                	xor    %eax,%eax
    6442:	e9 79 ff ff ff       	jmp    63c0 <fdisk_cap_parse+0x30>
    6447:	90                   	nop
    6448:	b8 08 00 00 00       	mov    $0x8,%eax
    644d:	e9 6e ff ff ff       	jmp    63c0 <fdisk_cap_parse+0x30>
    6452:	8d b6 00 00 00 00    	lea    0x0(%esi),%esi
    6458:	b8 06 00 00 00       	mov    $0x6,%eax
    645d:	e9 5e ff ff ff       	jmp    63c0 <fdisk_cap_parse+0x30>
    6462:	8d b6 00 00 00 00    	lea    0x0(%esi),%esi
    6468:	b8 05 00 00 00       	mov    $0x5,%eax
    646d:	e9 4e ff ff ff       	jmp    63c0 <fdisk_cap_parse+0x30>
    6472:	8d b6 00 00 00 00    	lea    0x0(%esi),%esi
    6478:	b8 09 00 00 00       	mov    $0x9,%eax
    647d:	e9 3e ff ff ff       	jmp    63c0 <fdisk_cap_parse+0x30>
    6482:	8d b6 00 00 00 00    	lea    0x0(%esi),%esi
    6488:	31 c9                	xor    %ecx,%ecx
    648a:	89 7d e0             	mov    %edi,-0x20(%ebp)
    648d:	89 cf                	mov    %ecx,%edi
    648f:	eb 0d                	jmp    649e <fdisk_cap_parse+0x10e>
    6491:	8d b4 26 00 00 00 00 	lea    0x0(%esi,%eiz,1),%esi
    6498:	47                   	inc    %edi
    6499:	83 ff 09             	cmp    $0x9,%edi
    649c:	74 5a                	je     64f8 <fdisk_cap_parse+0x168>
    649e:	83 ec 0c             	sub    $0xc,%esp
    64a1:	8b 34 bd 20 6f 00 00 	mov    0x6f20(,%edi,4),%esi
    64a8:	56                   	push   %esi
    64a9:	e8 52 10 00 00       	call   7500 <str_length@plt>
    64ae:	83 c4 0c             	add    $0xc,%esp
    64b1:	50                   	push   %eax
    64b2:	56                   	push   %esi
    64b3:	53                   	push   %ebx
    64b4:	e8 27 0f 00 00       	call   73e0 <str_lcasecmp@plt>
    64b9:	83 c4 10             	add    $0x10,%esp
    64bc:	85 c0                	test   %eax,%eax
    64be:	75 d8                	jne    6498 <fdisk_cap_parse+0x108>
    64c0:	83 ec 0c             	sub    $0xc,%esp
    64c3:	56                   	push   %esi
    64c4:	e8 27 10 00 00       	call   74f0 <str_size@plt>
    64c9:	01 d8                	add    %ebx,%eax
    64cb:	83 c4 10             	add    $0x10,%esp
    64ce:	8a 10                	mov    (%eax),%dl
    64d0:	80 fa 20             	cmp    $0x20,%dl
    64d3:	75 0b                	jne    64e0 <fdisk_cap_parse+0x150>
    64d5:	8d 76 00             	lea    0x0(%esi),%esi
    64d8:	40                   	inc    %eax
    64d9:	8a 10                	mov    (%eax),%dl
    64db:	80 fa 20             	cmp    $0x20,%dl
    64de:	74 f8                	je     64d8 <fdisk_cap_parse+0x148>
    64e0:	84 d2                	test   %dl,%dl
    64e2:	75 b4                	jne    6498 <fdisk_cap_parse+0x108>
    64e4:	8b 45 0c             	mov    0xc(%ebp),%eax
    64e7:	89 f9                	mov    %edi,%ecx
    64e9:	8b 7d e0             	mov    -0x20(%ebp),%edi
    64ec:	89 48 0c             	mov    %ecx,0xc(%eax)
    64ef:	e9 0e ff ff ff       	jmp    6402 <fdisk_cap_parse+0x72>
    64f4:	8d 74 26 00          	lea    0x0(%esi,%eiz,1),%esi
    64f8:	8d 65 f4             	lea    -0xc(%ebp),%esp
    64fb:	b8 f2 ff ff ff       	mov    $0xfffffff2,%eax
    6500:	5b                   	pop    %ebx
    6501:	5e                   	pop    %esi
    6502:	5f                   	pop    %edi
    6503:	5d                   	pop    %ebp
    6504:	c3                   	ret    
    6505:	8d 76 00             	lea    0x0(%esi),%esi
    6508:	43                   	inc    %ebx
    6509:	8a 0b                	mov    (%ebx),%cl
    650b:	31 d2                	xor    %edx,%edx
    650d:	8d 41 d0             	lea    -0x30(%ecx),%eax
    6510:	3c 09                	cmp    $0x9,%al
    6512:	77 2d                	ja     6541 <fdisk_cap_parse+0x1b1>
    6514:	8d 74 26 00          	lea    0x0(%esi,%eiz,1),%esi
    6518:	25 ff 00 00 00       	and    $0xff,%eax
    651d:	ff 24 85 e8 6e 00 00 	jmp    *0x6ee8(,%eax,4)
    6524:	8d 74 26 00          	lea    0x0(%esi,%eiz,1),%esi
    6528:	b9 01 00 00 00       	mov    $0x1,%ecx
    652d:	8d 76 00             	lea    0x0(%esi),%esi
    6530:	8d 04 bf             	lea    (%edi,%edi,4),%eax
    6533:	43                   	inc    %ebx
    6534:	42                   	inc    %edx
    6535:	8d 3c 41             	lea    (%ecx,%eax,2),%edi
    6538:	8a 0b                	mov    (%ebx),%cl
    653a:	8d 41 d0             	lea    -0x30(%ecx),%eax
    653d:	3c 09                	cmp    $0x9,%al
    653f:	76 d7                	jbe    6518 <fdisk_cap_parse+0x188>
    6541:	89 55 e4             	mov    %edx,-0x1c(%ebp)
    6544:	e9 a2 fe ff ff       	jmp    63eb <fdisk_cap_parse+0x5b>
    6549:	8d b4 26 00 00 00 00 	lea    0x0(%esi,%eiz,1),%esi
    6550:	31 c9                	xor    %ecx,%ecx
    6552:	eb dc                	jmp    6530 <fdisk_cap_parse+0x1a0>
    6554:	8d 74 26 00          	lea    0x0(%esi,%eiz,1),%esi
    6558:	b9 09 00 00 00       	mov    $0x9,%ecx
    655d:	eb d1                	jmp    6530 <fdisk_cap_parse+0x1a0>
    655f:	90                   	nop
    6560:	b9 08 00 00 00       	mov    $0x8,%ecx
    6565:	eb c9                	jmp    6530 <fdisk_cap_parse+0x1a0>
    6567:	90                   	nop
    6568:	b9 07 00 00 00       	mov    $0x7,%ecx
    656d:	eb c1                	jmp    6530 <fdisk_cap_parse+0x1a0>
    656f:	90                   	nop
    6570:	b9 06 00 00 00       	mov    $0x6,%ecx
    6575:	eb b9                	jmp    6530 <fdisk_cap_parse+0x1a0>
    6577:	90                   	nop
    6578:	b9 05 00 00 00       	mov    $0x5,%ecx
    657d:	eb b1                	jmp    6530 <fdisk_cap_parse+0x1a0>
    657f:	90                   	nop
    6580:	b9 04 00 00 00       	mov    $0x4,%ecx
    6585:	eb a9                	jmp    6530 <fdisk_cap_parse+0x1a0>
    6587:	90                   	nop
    6588:	b9 03 00 00 00       	mov    $0x3,%ecx
    658d:	eb a1                	jmp    6530 <fdisk_cap_parse+0x1a0>
    658f:	90                   	nop
    6590:	b9 02 00 00 00       	mov    $0x2,%ecx
    6595:	eb 99                	jmp    6530 <fdisk_cap_parse+0x1a0>
    6597:	43                   	inc    %ebx
    6598:	6f                   	outsl  %ds:(%esi),(%dx)
    6599:	70 79                	jo     6614 <fdisk_cap_parse+0x284>
    659b:	20 27                	and    %ah,(%edi)
    659d:	25 73 27 20 74       	and    $0x74202773,%eax
    65a2:	6f                   	outsl  %ds:(%esi),(%dx)
    65a3:	20 27                	and    %ah,(%edi)
    65a5:	25 73 27 2e 0a       	and    $0xa2e2773,%eax
    65aa:	00 25 73 2f 25 73    	add    %ah,0x73252f73
    65b0:	00 43 72             	add    %al,0x72(%ebx)
    65b3:	65 61                	gs popa 
    65b5:	74 65                	je     661c <fdisk_cap_parse+0x28c>
    65b7:	20 64 69 72          	and    %ah,0x72(%ecx,%ebp,2)
    65bb:	65 63 74 6f 72       	arpl   %si,%gs:0x72(%edi,%ebp,2)
    65c0:	79 20                	jns    65e2 <fdisk_cap_parse+0x252>
    65c2:	27                   	daa    
    65c3:	25 73 27 0a 00       	and    $0xa2773,%eax
    65c8:	73 79                	jae    6643 <fdisk_cap_parse+0x2b3>
    65ca:	73 69                	jae    6635 <fdisk_cap_parse+0x2a5>
    65cc:	6e                   	outsb  %ds:(%esi),(%dx)
    65cd:	73 74                	jae    6643 <fdisk_cap_parse+0x2b3>
    65cf:	5f                   	pop    %edi
    65d0:	63 6f 70             	arpl   %bp,0x70(%edi)
    65d3:	79 5f                	jns    6634 <fdisk_cap_parse+0x2a4>
    65d5:	62 6f 6f             	bound  %ebp,0x6f(%edi)
    65d8:	74 5f                	je     6639 <fdisk_cap_parse+0x2a9>
    65da:	62 6c 6f 63          	bound  %ebp,0x63(%edi,%ebp,2)
    65de:	6b 73 3a 20          	imul   $0x20,0x3a(%ebx),%esi
    65e2:	52                   	push   %edx
    65e3:	65 61                	gs popa 
    65e5:	64 20 62 6f          	and    %ah,%fs:0x6f(%edx)
    65e9:	6f                   	outsl  %ds:(%esi),(%dx)
    65ea:	74 20                	je     660c <fdisk_cap_parse+0x27c>
    65ec:	62 6c 6f 63          	bound  %ebp,0x63(%edi,%ebp,2)
    65f0:	6b 20 69             	imul   $0x69,(%eax),%esp
    65f3:	6d                   	insl   (%dx),%es:(%edi)
    65f4:	61                   	popa   
    65f5:	67 65 2e 0a 00       	gs or  %cs:(%bx,%si),%al
    65fa:	00 00                	add    %al,(%eax)
    65fc:	2f                   	das    
    65fd:	63 64 72 6f          	arpl   %sp,0x6f(%edx,%esi,2)
    6601:	6d                   	insl   (%dx),%es:(%edi)
    6602:	2f                   	das    
    6603:	62 6f 6f             	bound  %ebp,0x6f(%edi)
    6606:	74 2f                	je     6637 <fdisk_cap_parse+0x2a7>
    6608:	67 72 75             	addr16 jb 6680 <fdisk_cap_parse+0x2f0>
    660b:	62 2f                	bound  %ebp,(%edi)
    660d:	69 33 38 36 2d 70    	imul   $0x702d3638,(%ebx),%esi
    6613:	63 2f                	arpl   %bp,(%edi)
    6615:	62 6f 6f             	bound  %ebp,0x6f(%edi)
    6618:	74 2e                	je     6648 <fdisk_cap_parse+0x2b8>
    661a:	69 6d 67 00 00 00 73 	imul   $0x73000000,0x67(%ebp),%ebp
    6621:	79 73                	jns    6696 <fdisk_cap_parse+0x306>
    6623:	69 6e 73 74 5f 63 6f 	imul   $0x6f635f74,0x73(%esi),%ebp
    662a:	70 79                	jo     66a5 <fdisk_cap_parse+0x315>
    662c:	5f                   	pop    %edi
    662d:	62 6f 6f             	bound  %ebp,0x6f(%edi)
    6630:	74 5f                	je     6691 <fdisk_cap_parse+0x301>
    6632:	62 6c 6f 63          	bound  %ebp,0x63(%edi,%ebp,2)
    6636:	6b 73 3a 20          	imul   $0x20,0x3a(%ebx),%esi
    663a:	52                   	push   %edx
    663b:	65 61                	gs popa 
    663d:	64 20 47 52          	and    %al,%fs:0x52(%edi)
    6641:	55                   	push   %ebp
    6642:	42                   	inc    %edx
    6643:	20 63 6f             	and    %ah,0x6f(%ebx)
    6646:	72 65                	jb     66ad <fdisk_cap_parse+0x31d>
    6648:	20 69 6d             	and    %ch,0x6d(%ecx)
    664b:	61                   	popa   
    664c:	67 65 2e 0a 00       	gs or  %cs:(%bx,%si),%al
    6651:	00 00                	add    %al,(%eax)
    6653:	00 2f                	add    %ch,(%edi)
    6655:	63 64 72 6f          	arpl   %sp,0x6f(%edx,%esi,2)
    6659:	6d                   	insl   (%dx),%es:(%edi)
    665a:	2f                   	das    
    665b:	62 6f 6f             	bound  %ebp,0x6f(%edi)
    665e:	74 2f                	je     668f <fdisk_cap_parse+0x2ff>
    6660:	67 72 75             	addr16 jb 66d8 <fdisk_cap_parse+0x348>
    6663:	62 2f                	bound  %ebp,(%edi)
    6665:	69 33 38 36 2d 70    	imul   $0x702d3638,(%ebx),%esi
    666b:	63 2f                	arpl   %bp,(%edi)
    666d:	63 6f 72             	arpl   %bp,0x72(%edi)
    6670:	65 2e 69 6d 67 00 00 	gs imul $0x73000000,%cs:0x67(%ebp),%ebp
    6677:	00 73 
    6679:	79 73                	jns    66ee <fdisk_cap_parse+0x35e>
    667b:	69 6e 73 74 5f 63 6f 	imul   $0x6f635f74,0x73(%esi),%ebp
    6682:	70 79                	jo     66fd <fdisk_cap_parse+0x36d>
    6684:	5f                   	pop    %edi
    6685:	62 6f 6f             	bound  %ebp,0x6f(%edi)
    6688:	74 5f                	je     66e9 <fdisk_cap_parse+0x359>
    668a:	62 6c 6f 63          	bound  %ebp,0x63(%edi,%ebp,2)
    668e:	6b 73 3a 20          	imul   $0x20,0x3a(%ebx),%esi
    6692:	67 65 74 20          	addr16 gs je 66b6 <fdisk_cap_parse+0x326>
    6696:	73 65                	jae    66fd <fdisk_cap_parse+0x36d>
    6698:	72 76                	jb     6710 <fdisk_cap_parse+0x380>
    669a:	69 63 65 20 49 44 2e 	imul   $0x2e444920,0x65(%ebx),%esp
    66a1:	0a 00                	or     (%eax),%al
    66a3:	00 64 65 76          	add    %ah,0x76(%ebp,%eiz,2)
    66a7:	69 63 65 73 2f 5c 68 	imul   $0x685c2f73,0x65(%ebx),%esp
    66ae:	77 5c                	ja     670c <fdisk_cap_parse+0x37c>
    66b0:	70 63                	jo     6715 <fdisk_cap_parse+0x385>
    66b2:	69 30 5c 30 30 3a    	imul   $0x3a30305c,(%eax),%esi
    66b8:	30 31                	xor    %dh,(%ecx)
    66ba:	2e 30 5c 61 74       	xor    %bl,%cs:0x74(%ecx,%eiz,2)
    66bf:	61                   	popa   
    66c0:	2d 63 31 5c 64       	sub    $0x645c3163,%eax
    66c5:	30 00                	xor    %al,(%eax)
    66c7:	00 73 79             	add    %dh,0x79(%ebx)
    66ca:	73 69                	jae    6735 <fdisk_cap_parse+0x3a5>
    66cc:	6e                   	outsb  %ds:(%esi),(%dx)
    66cd:	73 74                	jae    6743 <fdisk_cap_parse+0x3b3>
    66cf:	5f                   	pop    %edi
    66d0:	63 6f 70             	arpl   %bp,0x70(%edi)
    66d3:	79 5f                	jns    6734 <fdisk_cap_parse+0x3a4>
    66d5:	62 6f 6f             	bound  %ebp,0x6f(%edi)
    66d8:	74 5f                	je     6739 <fdisk_cap_parse+0x3a9>
    66da:	62 6c 6f 63          	bound  %ebp,0x63(%edi,%ebp,2)
    66de:	6b 73 3a 20          	imul   $0x20,0x3a(%ebx),%esi
    66e2:	62 6c 6f 63          	bound  %ebp,0x63(%edi,%ebp,2)
    66e6:	6b 5f 69 6e          	imul   $0x6e,0x69(%edi),%ebx
    66ea:	69 74 2e 0a 00 00 73 	imul   $0x79730000,0xa(%esi,%ebp,1),%esi
    66f1:	79 
    66f2:	73 69                	jae    675d <fdisk_cap_parse+0x3cd>
    66f4:	6e                   	outsb  %ds:(%esi),(%dx)
    66f5:	73 74                	jae    676b <fdisk_cap_parse+0x3db>
    66f7:	5f                   	pop    %edi
    66f8:	63 6f 70             	arpl   %bp,0x70(%edi)
    66fb:	79 5f                	jns    675c <fdisk_cap_parse+0x3cc>
    66fd:	62 6f 6f             	bound  %ebp,0x6f(%edi)
    6700:	74 5f                	je     6761 <fdisk_cap_parse+0x3d1>
    6702:	62 6c 6f 63          	bound  %ebp,0x63(%edi,%ebp,2)
    6706:	6b 73 3a 20          	imul   $0x20,0x3a(%ebx),%esi
    670a:	67 65 74 20          	addr16 gs je 672e <fdisk_cap_parse+0x39e>
    670e:	62 6c 6f 63          	bound  %ebp,0x63(%edi,%ebp,2)
    6712:	6b 20 73             	imul   $0x73,(%eax),%esp
    6715:	69 7a 65 0a 00 00 00 	imul   $0xa,0x65(%edx),%edi
    671c:	73 79                	jae    6797 <fdisk_cap_parse+0x407>
    671e:	73 69                	jae    6789 <fdisk_cap_parse+0x3f9>
    6720:	6e                   	outsb  %ds:(%esi),(%dx)
    6721:	73 74                	jae    6797 <fdisk_cap_parse+0x407>
    6723:	5f                   	pop    %edi
    6724:	63 6f 70             	arpl   %bp,0x70(%edi)
    6727:	79 5f                	jns    6788 <fdisk_cap_parse+0x3f8>
    6729:	62 6f 6f             	bound  %ebp,0x6f(%edi)
    672c:	74 5f                	je     678d <fdisk_cap_parse+0x3fd>
    672e:	62 6c 6f 63          	bound  %ebp,0x63(%edi,%ebp,2)
    6732:	6b 73 3a 20          	imul   $0x20,0x3a(%ebx),%esi
    6736:	72 65                	jb     679d <fdisk_cap_parse+0x40d>
    6738:	61                   	popa   
    6739:	64 20 62 6f          	and    %ah,%fs:0x6f(%edx)
    673d:	6f                   	outsl  %ds:(%esi),(%dx)
    673e:	74 20                	je     6760 <fdisk_cap_parse+0x3d0>
    6740:	62 6c 6f 63          	bound  %ebp,0x63(%edi,%ebp,2)
    6744:	6b 0a 00             	imul   $0x0,(%edx),%ecx
    6747:	00 4e 6f             	add    %cl,0x6f(%esi)
    674a:	20 62 6c             	and    %ah,0x6c(%edx)
    674d:	6f                   	outsl  %ds:(%esi),(%dx)
    674e:	63 6b 20             	arpl   %bp,0x20(%ebx)
    6751:	74 65                	je     67b8 <fdisk_cap_parse+0x428>
    6753:	72 6d                	jb     67c2 <fdisk_cap_parse+0x432>
    6755:	69 6e 61 74 6f 72 20 	imul   $0x20726f74,0x61(%esi),%ebp
    675c:	69 6e 20 63 6f 72 65 	imul   $0x65726f63,0x20(%esi),%ebp
    6763:	20 69 6d             	and    %ch,0x6d(%ecx)
    6766:	61                   	popa   
    6767:	67 65 2e 0a 00       	gs or  %cs:(%bx,%si),%al
    676c:	73 79                	jae    67e7 <fdisk_cap_parse+0x457>
    676e:	73 69                	jae    67d9 <fdisk_cap_parse+0x449>
    6770:	6e                   	outsb  %ds:(%esi),(%dx)
    6771:	73 74                	jae    67e7 <fdisk_cap_parse+0x457>
    6773:	5f                   	pop    %edi
    6774:	63 6f 70             	arpl   %bp,0x70(%edi)
    6777:	79 5f                	jns    67d8 <fdisk_cap_parse+0x448>
    6779:	62 6f 6f             	bound  %ebp,0x6f(%edi)
    677c:	74 5f                	je     67dd <fdisk_cap_parse+0x44d>
    677e:	62 6c 6f 63          	bound  %ebp,0x63(%edi,%ebp,2)
    6782:	6b 73 3a 20          	imul   $0x20,0x3a(%ebx),%esi
    6786:	77 72                	ja     67fa <fdisk_cap_parse+0x46a>
    6788:	69 74 65 20 62 6f 6f 	imul   $0x746f6f62,0x20(%ebp,%eiz,2),%esi
    678f:	74 
    6790:	20 62 6c             	and    %ah,0x6c(%edx)
    6793:	6f                   	outsl  %ds:(%esi),(%dx)
    6794:	63 6b 0a             	arpl   %bp,0xa(%ebx)
    6797:	00 73 79             	add    %dh,0x79(%ebx)
    679a:	73 69                	jae    6805 <fdisk_cap_parse+0x475>
    679c:	6e                   	outsb  %ds:(%esi),(%dx)
    679d:	73 74                	jae    6813 <fdisk_cap_parse+0x483>
    679f:	5f                   	pop    %edi
    67a0:	63 6f 70             	arpl   %bp,0x70(%edi)
    67a3:	79 5f                	jns    6804 <fdisk_cap_parse+0x474>
    67a5:	62 6f 6f             	bound  %ebp,0x6f(%edi)
    67a8:	74 5f                	je     6809 <fdisk_cap_parse+0x479>
    67aa:	62 6c 6f 63          	bound  %ebp,0x63(%edi,%ebp,2)
    67ae:	6b 73 3a 20          	imul   $0x20,0x3a(%ebx),%esi
    67b2:	4f                   	dec    %edi
    67b3:	4b                   	dec    %ebx
    67b4:	2e 0a 00             	or     %cs:(%eax),%al
    67b7:	00 73 79             	add    %dh,0x79(%ebx)
    67ba:	73 69                	jae    6825 <fdisk_cap_parse+0x495>
    67bc:	6e                   	outsb  %ds:(%esi),(%dx)
    67bd:	73 74                	jae    6833 <fdisk_cap_parse+0x4a3>
    67bf:	5f                   	pop    %edi
    67c0:	6c                   	insb   (%dx),%es:(%edi)
    67c1:	61                   	popa   
    67c2:	62 65 6c             	bound  %esp,0x6c(%ebp)
    67c5:	5f                   	pop    %edi
    67c6:	64 65 76 28          	fs gs jbe 67f2 <fdisk_cap_parse+0x462>
    67ca:	29 3a                	sub    %edi,(%edx)
    67cc:	20 67 65             	and    %ah,0x65(%edi)
    67cf:	74 20                	je     67f1 <fdisk_cap_parse+0x461>
    67d1:	73 65                	jae    6838 <fdisk_cap_parse+0x4a8>
    67d3:	72 76                	jb     684b <fdisk_cap_parse+0x4bb>
    67d5:	69 63 65 20 49 44 20 	imul   $0x20444920,0x65(%ebx),%esp
    67dc:	27                   	daa    
    67dd:	25 73 27 0a 00       	and    $0xa2773,%eax
    67e2:	00 00                	add    %al,(%eax)
    67e4:	73 79                	jae    685f <fdisk_cap_parse+0x4cf>
    67e6:	73 69                	jae    6851 <fdisk_cap_parse+0x4c1>
    67e8:	6e                   	outsb  %ds:(%esi),(%dx)
    67e9:	73 74                	jae    685f <fdisk_cap_parse+0x4cf>
    67eb:	5f                   	pop    %edi
    67ec:	6c                   	insb   (%dx),%es:(%edi)
    67ed:	61                   	popa   
    67ee:	62 65 6c             	bound  %esp,0x6c(%ebp)
    67f1:	5f                   	pop    %edi
    67f2:	64 65 76 28          	fs gs jbe 681e <fdisk_cap_parse+0x48e>
    67f6:	29 3a                	sub    %edi,(%edx)
    67f8:	20 6f 70             	and    %ch,0x70(%edi)
    67fb:	65 6e                	outsb  %gs:(%esi),(%dx)
    67fd:	20 64 65 76          	and    %ah,0x76(%ebp,%eiz,2)
    6801:	69 63 65 0a 00 00 00 	imul   $0xa,0x65(%ebx),%esp
    6808:	73 79                	jae    6883 <fdisk_cap_parse+0x4f3>
    680a:	73 69                	jae    6875 <fdisk_cap_parse+0x4e5>
    680c:	6e                   	outsb  %ds:(%esi),(%dx)
    680d:	73 74                	jae    6883 <fdisk_cap_parse+0x4f3>
    680f:	5f                   	pop    %edi
    6810:	6c                   	insb   (%dx),%es:(%edi)
    6811:	61                   	popa   
    6812:	62 65 6c             	bound  %esp,0x6c(%ebp)
    6815:	5f                   	pop    %edi
    6816:	64 65 76 28          	fs gs jbe 6842 <fdisk_cap_parse+0x4b2>
    681a:	29 3a                	sub    %edi,(%edx)
    681c:	20 63 72             	and    %ah,0x72(%ebx)
    681f:	65 61                	gs popa 
    6821:	74 65                	je     6888 <fdisk_cap_parse+0x4f8>
    6823:	20 6c 61 62          	and    %ch,0x62(%ecx,%eiz,2)
    6827:	65 6c                	gs insb (%dx),%es:(%edi)
    6829:	0a 00                	or     (%eax),%al
    682b:	00 73 79             	add    %dh,0x79(%ebx)
    682e:	73 69                	jae    6899 <fdisk_cap_parse+0x509>
    6830:	6e                   	outsb  %ds:(%esi),(%dx)
    6831:	73 74                	jae    68a7 <fdisk_cap_parse+0x517>
    6833:	5f                   	pop    %edi
    6834:	6c                   	insb   (%dx),%es:(%edi)
    6835:	61                   	popa   
    6836:	62 65 6c             	bound  %esp,0x6c(%ebp)
    6839:	5f                   	pop    %edi
    683a:	64 65 76 28          	fs gs jbe 6866 <fdisk_cap_parse+0x4d6>
    683e:	29 3a                	sub    %edi,(%edx)
    6840:	20 63 72             	and    %ah,0x72(%ebx)
    6843:	65 61                	gs popa 
    6845:	74 65                	je     68ac <fdisk_cap_parse+0x51c>
    6847:	20 70 61             	and    %dh,0x61(%eax)
    684a:	72 74                	jb     68c0 <fdisk_cap_parse+0x530>
    684c:	69 74 69 6f 6e 0a 00 	imul   $0xa6e,0x6f(%ecx,%ebp,2),%esi
    6853:	00 
    6854:	45                   	inc    %ebp
    6855:	72 72                	jb     68c9 <fdisk_cap_parse+0x539>
    6857:	6f                   	outsl  %ds:(%esi),(%dx)
    6858:	72 20                	jb     687a <fdisk_cap_parse+0x4ea>
    685a:	67 65 74 74          	addr16 gs je 68d2 <fdisk_cap_parse+0x542>
    685e:	69 6e 67 20 61 76 61 	imul   $0x61766120,0x67(%esi),%ebp
    6865:	69 6c 61 62 6c 65 20 	imul   $0x6320656c,0x62(%ecx,%eiz,2),%ebp
    686c:	63 
    686d:	61                   	popa   
    686e:	70 61                	jo     68d1 <fdisk_cap_parse+0x541>
    6870:	63 69 74             	arpl   %bp,0x74(%ecx)
    6873:	79 20                	jns    6895 <fdisk_cap_parse+0x505>
    6875:	28 25 64 29 2e 0a    	sub    %ah,0xa2e2964
    687b:	00 73 79             	add    %dh,0x79(%ebx)
    687e:	73 69                	jae    68e9 <fdisk_cap_parse+0x559>
    6880:	6e                   	outsb  %ds:(%esi),(%dx)
    6881:	73 74                	jae    68f7 <fdisk_cap_parse+0x567>
    6883:	5f                   	pop    %edi
    6884:	66 73 5f             	data16 jae 68e6 <fdisk_cap_parse+0x556>
    6887:	6d                   	insl   (%dx),%es:(%edi)
    6888:	6f                   	outsl  %ds:(%esi),(%dx)
    6889:	75 6e                	jne    68f9 <fdisk_cap_parse+0x569>
    688b:	74 28                	je     68b5 <fdisk_cap_parse+0x525>
    688d:	29 3a                	sub    %edi,(%edx)
    688f:	20 73 74             	and    %dh,0x74(%ebx)
    6892:	61                   	popa   
    6893:	72 74                	jb     6909 <fdisk_cap_parse+0x579>
    6895:	20 66 69             	and    %ah,0x69(%esi)
    6898:	6c                   	insb   (%dx),%es:(%edi)
    6899:	65 73 79             	gs jae 6915 <fdisk_cap_parse+0x585>
    689c:	73 74                	jae    6912 <fdisk_cap_parse+0x582>
    689e:	65 6d                	gs insl (%dx),%es:(%edi)
    68a0:	20 73 65             	and    %dh,0x65(%ebx)
    68a3:	72 76                	jb     691b <fdisk_cap_parse+0x58b>
    68a5:	65 72 0a             	gs jb  68b2 <fdisk_cap_parse+0x522>
    68a8:	00 00                	add    %al,(%eax)
    68aa:	00 00                	add    %al,(%eax)
    68ac:	73 79                	jae    6927 <fdisk_cap_parse+0x597>
    68ae:	73 69                	jae    6919 <fdisk_cap_parse+0x589>
    68b0:	6e                   	outsb  %ds:(%esi),(%dx)
    68b1:	73 74                	jae    6927 <fdisk_cap_parse+0x597>
    68b3:	5f                   	pop    %edi
    68b4:	66 73 5f             	data16 jae 6916 <fdisk_cap_parse+0x586>
    68b7:	6d                   	insl   (%dx),%es:(%edi)
    68b8:	6f                   	outsl  %ds:(%esi),(%dx)
    68b9:	75 6e                	jne    6929 <fdisk_cap_parse+0x599>
    68bb:	74 28                	je     68e5 <fdisk_cap_parse+0x555>
    68bd:	29 3a                	sub    %edi,(%edx)
    68bf:	20 77 61             	and    %dh,0x61(%edi)
    68c2:	69 74 20 66 6f 72 20 	imul   $0x6620726f,0x66(%eax,%eiz,1),%esi
    68c9:	66 
    68ca:	69 6c 65 73 79 73 74 	imul   $0x65747379,0x73(%ebp,%eiz,2),%ebp
    68d1:	65 
    68d2:	6d                   	insl   (%dx),%es:(%edi)
    68d3:	20 73 65             	and    %dh,0x65(%ebx)
    68d6:	72 76                	jb     694e <fdisk_cap_parse+0x5be>
    68d8:	65 72 0a             	gs jb  68e5 <fdisk_cap_parse+0x555>
    68db:	00 73 79             	add    %dh,0x79(%ebx)
    68de:	73 69                	jae    6949 <fdisk_cap_parse+0x5b9>
    68e0:	6e                   	outsb  %ds:(%esi),(%dx)
    68e1:	73 74                	jae    6957 <fdisk_cap_parse+0x5c7>
    68e3:	5f                   	pop    %edi
    68e4:	66 73 5f             	data16 jae 6946 <fdisk_cap_parse+0x5b6>
    68e7:	6d                   	insl   (%dx),%es:(%edi)
    68e8:	6f                   	outsl  %ds:(%esi),(%dx)
    68e9:	75 6e                	jne    6959 <fdisk_cap_parse+0x5c9>
    68eb:	74 28                	je     6915 <fdisk_cap_parse+0x585>
    68ed:	29 3a                	sub    %edi,(%edx)
    68ef:	20 76 65             	and    %dh,0x65(%esi)
    68f2:	72 69                	jb     695d <fdisk_cap_parse+0x5cd>
    68f4:	66 79 20             	data16 jns 6917 <fdisk_cap_parse+0x587>
    68f7:	66 69 6c 65 73 79 73 	imul   $0x7379,0x73(%ebp,%eiz,2),%bp
    68fe:	74 65                	je     6965 <fdisk_cap_parse+0x5d5>
    6900:	6d                   	insl   (%dx),%es:(%edi)
    6901:	20 73 65             	and    %dh,0x65(%ebx)
    6904:	72 76                	jb     697c <fdisk_cap_parse+0x5ec>
    6906:	65 72 20             	gs jb  6929 <fdisk_cap_parse+0x599>
    6909:	72 65                	jb     6970 <fdisk_cap_parse+0x5e0>
    690b:	73 75                	jae    6982 <fdisk_cap_parse+0x5f2>
    690d:	6c                   	insb   (%dx),%es:(%edi)
    690e:	74 0a                	je     691a <fdisk_cap_parse+0x58a>
    6910:	00 00                	add    %al,(%eax)
    6912:	00 00                	add    %al,(%eax)
    6914:	73 79                	jae    698f <fdisk_cap_parse+0x5ff>
    6916:	73 69                	jae    6981 <fdisk_cap_parse+0x5f1>
    6918:	6e                   	outsb  %ds:(%esi),(%dx)
    6919:	73 74                	jae    698f <fdisk_cap_parse+0x5ff>
    691b:	5f                   	pop    %edi
    691c:	66 73 5f             	data16 jae 697e <fdisk_cap_parse+0x5ee>
    691f:	6d                   	insl   (%dx),%es:(%edi)
    6920:	6f                   	outsl  %ds:(%esi),(%dx)
    6921:	75 6e                	jne    6991 <fdisk_cap_parse+0x601>
    6923:	74 28                	je     694d <fdisk_cap_parse+0x5bd>
    6925:	29 3a                	sub    %edi,(%edx)
    6927:	20 6d 6f             	and    %ch,0x6f(%ebp)
    692a:	75 6e                	jne    699a <fdisk_cap_parse+0x60a>
    692c:	74 20                	je     694e <fdisk_cap_parse+0x5be>
    692e:	66 69 6c 65 73 79 73 	imul   $0x7379,0x73(%ebp,%eiz,2),%bp
    6935:	74 65                	je     699c <fdisk_cap_parse+0x60c>
    6937:	6d                   	insl   (%dx),%es:(%edi)
    6938:	0a 00                	or     (%eax),%al
    693a:	00 00                	add    %al,(%eax)
    693c:	46                   	inc    %esi
    693d:	53                   	push   %ebx
    693e:	20 63 72             	and    %ah,0x72(%ebx)
    6941:	65 61                	gs popa 
    6943:	74 65                	je     69aa <fdisk_cap_parse+0x61a>
    6945:	64 20 61 6e          	and    %ah,%fs:0x6e(%ecx)
    6949:	64 20 6d 6f          	and    %ch,%fs:0x6f(%ebp)
    694d:	75 6e                	jne    69bd <fdisk_cap_parse+0x62d>
    694f:	74 65                	je     69b6 <fdisk_cap_parse+0x626>
    6951:	64 2e 20 43 6f       	fs and %al,%cs:0x6f(%ebx)
    6956:	70 79                	jo     69d1 <fdisk_cap_parse+0x641>
    6958:	69 6e 67 20 62 6f 6f 	imul   $0x6f6f6220,0x67(%esi),%ebp
    695f:	74 20                	je     6981 <fdisk_cap_parse+0x5f1>
    6961:	66 69 6c 65 73 2e 0a 	imul   $0xa2e,0x73(%ebp,%eiz,2),%bp
    6968:	00 00                	add    %al,(%eax)
    696a:	00 00                	add    %al,(%eax)
    696c:	73 79                	jae    69e7 <fdisk_cap_parse+0x657>
    696e:	73 69                	jae    69d9 <fdisk_cap_parse+0x649>
    6970:	6e                   	outsb  %ds:(%esi),(%dx)
    6971:	73 74                	jae    69e7 <fdisk_cap_parse+0x657>
    6973:	5f                   	pop    %edi
    6974:	63 6f 70             	arpl   %bp,0x70(%edi)
    6977:	79 5f                	jns    69d8 <fdisk_cap_parse+0x648>
    6979:	62 6f 6f             	bound  %ebp,0x6f(%edi)
    697c:	74 5f                	je     69dd <fdisk_cap_parse+0x64d>
    697e:	66 69 6c 65 73 28 29 	imul   $0x2928,0x73(%ebp,%eiz,2),%bp
    6985:	3a 20                	cmp    (%eax),%ah
    6987:	73 74                	jae    69fd <fdisk_cap_parse+0x66d>
    6989:	61                   	popa   
    698a:	72 74                	jb     6a00 <fdisk_cap_parse+0x670>
    698c:	20 66 69             	and    %ah,0x69(%esi)
    698f:	6c                   	insb   (%dx),%es:(%edi)
    6990:	65 73 79             	gs jae 6a0c <fdisk_cap_parse+0x67c>
    6993:	73 74                	jae    6a09 <fdisk_cap_parse+0x679>
    6995:	65 6d                	gs insl (%dx),%es:(%edi)
    6997:	20 73 65             	and    %dh,0x65(%ebx)
    699a:	72 76                	jb     6a12 <fdisk_cap_parse+0x682>
    699c:	65 72 0a             	gs jb  69a9 <fdisk_cap_parse+0x619>
    699f:	00 73 79             	add    %dh,0x79(%ebx)
    69a2:	73 69                	jae    6a0d <fdisk_cap_parse+0x67d>
    69a4:	6e                   	outsb  %ds:(%esi),(%dx)
    69a5:	73 74                	jae    6a1b <fdisk_cap_parse+0x68b>
    69a7:	5f                   	pop    %edi
    69a8:	63 6f 70             	arpl   %bp,0x70(%edi)
    69ab:	79 5f                	jns    6a0c <fdisk_cap_parse+0x67c>
    69ad:	62 6f 6f             	bound  %ebp,0x6f(%edi)
    69b0:	74 5f                	je     6a11 <fdisk_cap_parse+0x681>
    69b2:	66 69 6c 65 73 28 29 	imul   $0x2928,0x73(%ebp,%eiz,2),%bp
    69b9:	3a 20                	cmp    (%eax),%ah
    69bb:	77 61                	ja     6a1e <fdisk_cap_parse+0x68e>
    69bd:	69 74 20 66 6f 72 20 	imul   $0x6620726f,0x66(%eax,%eiz,1),%esi
    69c4:	66 
    69c5:	69 6c 65 73 79 73 74 	imul   $0x65747379,0x73(%ebp,%eiz,2),%ebp
    69cc:	65 
    69cd:	6d                   	insl   (%dx),%es:(%edi)
    69ce:	20 73 65             	and    %dh,0x65(%ebx)
    69d1:	72 76                	jb     6a49 <fdisk_cap_parse+0x6b9>
    69d3:	65 72 0a             	gs jb  69e0 <fdisk_cap_parse+0x650>
    69d6:	00 00                	add    %al,(%eax)
    69d8:	73 79                	jae    6a53 <fdisk_cap_parse+0x6c3>
    69da:	73 69                	jae    6a45 <fdisk_cap_parse+0x6b5>
    69dc:	6e                   	outsb  %ds:(%esi),(%dx)
    69dd:	73 74                	jae    6a53 <fdisk_cap_parse+0x6c3>
    69df:	5f                   	pop    %edi
    69e0:	63 6f 70             	arpl   %bp,0x70(%edi)
    69e3:	79 5f                	jns    6a44 <fdisk_cap_parse+0x6b4>
    69e5:	62 6f 6f             	bound  %ebp,0x6f(%edi)
    69e8:	74 5f                	je     6a49 <fdisk_cap_parse+0x6b9>
    69ea:	66 69 6c 65 73 28 29 	imul   $0x2928,0x73(%ebp,%eiz,2),%bp
    69f1:	3a 20                	cmp    (%eax),%ah
    69f3:	76 65                	jbe    6a5a <fdisk_cap_parse+0x6ca>
    69f5:	72 69                	jb     6a60 <fdisk_cap_parse+0x6d0>
    69f7:	66 79 20             	data16 jns 6a1a <fdisk_cap_parse+0x68a>
    69fa:	66 69 6c 65 73 79 73 	imul   $0x7379,0x73(%ebp,%eiz,2),%bp
    6a01:	74 65                	je     6a68 <fdisk_cap_parse+0x6d8>
    6a03:	6d                   	insl   (%dx),%es:(%edi)
    6a04:	20 73 65             	and    %dh,0x65(%ebx)
    6a07:	72 76                	jb     6a7f <fdisk_cap_parse+0x6ef>
    6a09:	65 72 20             	gs jb  6a2c <fdisk_cap_parse+0x69c>
    6a0c:	72 65                	jb     6a73 <fdisk_cap_parse+0x6e3>
    6a0e:	73 75                	jae    6a85 <fdisk_cap_parse+0x6f5>
    6a10:	6c                   	insb   (%dx),%es:(%edi)
    6a11:	74 0a                	je     6a1d <fdisk_cap_parse+0x68d>
    6a13:	00 73 79             	add    %dh,0x79(%ebx)
    6a16:	73 69                	jae    6a81 <fdisk_cap_parse+0x6f1>
    6a18:	6e                   	outsb  %ds:(%esi),(%dx)
    6a19:	73 74                	jae    6a8f <fdisk_cap_parse+0x6ff>
    6a1b:	5f                   	pop    %edi
    6a1c:	63 6f 70             	arpl   %bp,0x70(%edi)
    6a1f:	79 5f                	jns    6a80 <fdisk_cap_parse+0x6f0>
    6a21:	62 6f 6f             	bound  %ebp,0x6f(%edi)
    6a24:	74 5f                	je     6a85 <fdisk_cap_parse+0x6f5>
    6a26:	66 69 6c 65 73 28 29 	imul   $0x2928,0x73(%ebp,%eiz,2),%bp
    6a2d:	3a 20                	cmp    (%eax),%ah
    6a2f:	63 72 65             	arpl   %si,0x65(%edx)
    6a32:	61                   	popa   
    6a33:	74 65                	je     6a9a <fdisk_cap_parse+0x70a>
    6a35:	20 43 44             	and    %al,0x44(%ebx)
    6a38:	20 6d 6f             	and    %ch,0x6f(%ebp)
    6a3b:	75 6e                	jne    6aab <fdisk_cap_parse+0x71b>
    6a3d:	74 20                	je     6a5f <fdisk_cap_parse+0x6cf>
    6a3f:	70 6f                	jo     6ab0 <fdisk_cap_parse+0x720>
    6a41:	69 6e 74 0a 00 00 00 	imul   $0xa,0x74(%esi),%ebp
    6a48:	73 79                	jae    6ac3 <fdisk_cap_parse+0x733>
    6a4a:	73 69                	jae    6ab5 <fdisk_cap_parse+0x725>
    6a4c:	6e                   	outsb  %ds:(%esi),(%dx)
    6a4d:	73 74                	jae    6ac3 <fdisk_cap_parse+0x733>
    6a4f:	5f                   	pop    %edi
    6a50:	63 6f 70             	arpl   %bp,0x70(%edi)
    6a53:	79 5f                	jns    6ab4 <fdisk_cap_parse+0x724>
    6a55:	62 6f 6f             	bound  %ebp,0x6f(%edi)
    6a58:	74 5f                	je     6ab9 <fdisk_cap_parse+0x729>
    6a5a:	66 69 6c 65 73 28 29 	imul   $0x2928,0x73(%ebp,%eiz,2),%bp
    6a61:	3a 20                	cmp    (%eax),%ah
    6a63:	6d                   	insl   (%dx),%es:(%edi)
    6a64:	6f                   	outsl  %ds:(%esi),(%dx)
    6a65:	75 6e                	jne    6ad5 <fdisk_cap_parse+0x745>
    6a67:	74 20                	je     6a89 <fdisk_cap_parse+0x6f9>
    6a69:	43                   	inc    %ebx
    6a6a:	44                   	inc    %esp
    6a6b:	20 66 69             	and    %ah,0x69(%esi)
    6a6e:	6c                   	insb   (%dx),%es:(%edi)
    6a6f:	65 73 79             	gs jae 6aeb <fdisk_cap_parse+0x75b>
    6a72:	73 74                	jae    6ae8 <fdisk_cap_parse+0x758>
    6a74:	65 6d                	gs insl (%dx),%es:(%edi)
    6a76:	0a 00                	or     (%eax),%al
    6a78:	64 65 76 69          	fs gs jbe 6ae5 <fdisk_cap_parse+0x755>
    6a7c:	63 65 73             	arpl   %sp,0x73(%ebp)
    6a7f:	2f                   	das    
    6a80:	5c                   	pop    %esp
    6a81:	68 77 5c 70 63       	push   $0x63705c77
    6a86:	69 30 5c 30 30 3a    	imul   $0x3a30305c,(%eax),%esi
    6a8c:	30 31                	xor    %dh,(%ecx)
    6a8e:	2e 30 5c 61 74       	xor    %bl,%cs:0x74(%ecx,%eiz,2)
    6a93:	61                   	popa   
    6a94:	2d 63 32 5c 64       	sub    $0x645c3263,%eax
    6a99:	30 00                	xor    %al,(%eax)
    6a9b:	00 73 79             	add    %dh,0x79(%ebx)
    6a9e:	73 69                	jae    6b09 <fdisk_cap_parse+0x779>
    6aa0:	6e                   	outsb  %ds:(%esi),(%dx)
    6aa1:	73 74                	jae    6b17 <fdisk_cap_parse+0x787>
    6aa3:	5f                   	pop    %edi
    6aa4:	63 6f 70             	arpl   %bp,0x70(%edi)
    6aa7:	79 5f                	jns    6b08 <fdisk_cap_parse+0x778>
    6aa9:	62 6f 6f             	bound  %ebp,0x6f(%edi)
    6aac:	74 5f                	je     6b0d <fdisk_cap_parse+0x77d>
    6aae:	66 69 6c 65 73 28 29 	imul   $0x2928,0x73(%ebp,%eiz,2),%bp
    6ab5:	3a 20                	cmp    (%eax),%ah
    6ab7:	63 6f 70             	arpl   %bp,0x70(%edi)
    6aba:	79 20                	jns    6adc <fdisk_cap_parse+0x74c>
    6abc:	62 6f 6f             	bound  %ebp,0x6f(%edi)
    6abf:	74 6c                	je     6b2d <fdisk_cap_parse+0x79d>
    6ac1:	6f                   	outsl  %ds:(%esi),(%dx)
    6ac2:	61                   	popa   
    6ac3:	64 65 72 20          	fs gs jb 6ae7 <fdisk_cap_parse+0x757>
    6ac7:	66 69 6c 65 73 0a 00 	imul   $0xa,0x73(%ebp,%eiz,2),%bp
    6ace:	00 00                	add    %al,(%eax)
    6ad0:	73 79                	jae    6b4b <fdisk_cap_parse+0x7bb>
    6ad2:	73 69                	jae    6b3d <fdisk_cap_parse+0x7ad>
    6ad4:	6e                   	outsb  %ds:(%esi),(%dx)
    6ad5:	73 74                	jae    6b4b <fdisk_cap_parse+0x7bb>
    6ad7:	5f                   	pop    %edi
    6ad8:	63 6f 70             	arpl   %bp,0x70(%edi)
    6adb:	79 5f                	jns    6b3c <fdisk_cap_parse+0x7ac>
    6add:	62 6f 6f             	bound  %ebp,0x6f(%edi)
    6ae0:	74 5f                	je     6b41 <fdisk_cap_parse+0x7b1>
    6ae2:	66 69 6c 65 73 28 29 	imul   $0x2928,0x73(%ebp,%eiz,2),%bp
    6ae9:	3a 20                	cmp    (%eax),%ah
    6aeb:	75 6e                	jne    6b5b <fdisk_cap_parse+0x7cb>
    6aed:	6d                   	insl   (%dx),%es:(%edi)
    6aee:	6f                   	outsl  %ds:(%esi),(%dx)
    6aef:	75 6e                	jne    6b5f <fdisk_cap_parse+0x7cf>
    6af1:	74 20                	je     6b13 <fdisk_cap_parse+0x783>
    6af3:	25 73 0a 00 00       	and    $0xa73,%eax
    6af8:	73 79                	jae    6b73 <fdisk_cap_parse+0x7e3>
    6afa:	73 69                	jae    6b65 <fdisk_cap_parse+0x7d5>
    6afc:	6e                   	outsb  %ds:(%esi),(%dx)
    6afd:	73 74                	jae    6b73 <fdisk_cap_parse+0x7e3>
    6aff:	5f                   	pop    %edi
    6b00:	63 6f 70             	arpl   %bp,0x70(%edi)
    6b03:	79 5f                	jns    6b64 <fdisk_cap_parse+0x7d4>
    6b05:	62 6f 6f             	bound  %ebp,0x6f(%edi)
    6b08:	74 5f                	je     6b69 <fdisk_cap_parse+0x7d9>
    6b0a:	66 69 6c 65 73 28 29 	imul   $0x2928,0x73(%ebp,%eiz,2),%bp
    6b11:	3a 20                	cmp    (%eax),%ah
    6b13:	4f                   	dec    %edi
    6b14:	4b                   	dec    %ebx
    6b15:	0a 00                	or     (%eax),%al
    6b17:	00 42 6f             	add    %al,0x6f(%edx)
    6b1a:	6f                   	outsl  %ds:(%esi),(%dx)
    6b1b:	74 20                	je     6b3d <fdisk_cap_parse+0x7ad>
    6b1d:	66 69 6c 65 73 20 64 	imul   $0x6420,0x73(%ebp,%eiz,2),%bp
    6b24:	6f                   	outsl  %ds:(%esi),(%dx)
    6b25:	6e                   	outsb  %ds:(%esi),(%dx)
    6b26:	65 2e 20 49 6e       	gs and %cl,%cs:0x6e(%ecx)
    6b2b:	73 74                	jae    6ba1 <fdisk_cap_parse+0x811>
    6b2d:	61                   	popa   
    6b2e:	6c                   	insb   (%dx),%es:(%edi)
    6b2f:	6c                   	insb   (%dx),%es:(%edi)
    6b30:	69 6e 67 20 62 6f 6f 	imul   $0x6f6f6220,0x67(%esi),%ebp
    6b37:	74 20                	je     6b59 <fdisk_cap_parse+0x7c9>
    6b39:	62 6c 6f 63          	bound  %ebp,0x63(%edi,%ebp,2)
    6b3d:	6b 73 2e 0a          	imul   $0xa,0x2e(%ebx),%esi
    6b41:	00 44 65 76          	add    %al,0x76(%ebp,%eiz,2)
    6b45:	69 63 65 20 62 6c 6f 	imul   $0x6f6c6220,0x65(%ebx),%esp
    6b4c:	63 6b 20             	arpl   %bp,0x20(%ebx)
    6b4f:	73 69                	jae    6bba <fdisk_cap_parse+0x82a>
    6b51:	7a 65                	jp     6bb8 <fdisk_cap_parse+0x828>
    6b53:	20 21                	and    %ah,(%ecx)
    6b55:	3d 20 35 31 32       	cmp    $0x32313520,%eax
    6b5a:	2e 0a 00             	or     %cs:(%eax),%al
    6b5d:	45                   	inc    %ebp
    6b5e:	72 72                	jb     6bd2 <fdisk_cap_parse+0x842>
    6b60:	6f                   	outsl  %ds:(%esi),(%dx)
    6b61:	72 20                	jb     6b83 <fdisk_cap_parse+0x7f3>
    6b63:	69 6e 69 74 69 61 6c 	imul   $0x6c616974,0x69(%esi),%ebp
    6b6a:	69 7a 69 6e 67 20 66 	imul   $0x6620676e,0x69(%edx),%edi
    6b71:	64 69 73 6b 2e 0a 00 	imul   $0x45000a2e,%fs:0x6b(%ebx),%esi
    6b78:	45 
    6b79:	72 72                	jb     6bed <fdisk_cap_parse+0x85d>
    6b7b:	6f                   	outsl  %ds:(%esi),(%dx)
    6b7c:	72 20                	jb     6b9e <fdisk_cap_parse+0x80e>
    6b7e:	6f                   	outsl  %ds:(%esi),(%dx)
    6b7f:	70 65                	jo     6be6 <fdisk_cap_parse+0x856>
    6b81:	6e                   	outsb  %ds:(%esi),(%dx)
    6b82:	69 6e 67 20 64 65 76 	imul   $0x76656420,0x67(%esi),%ebp
    6b89:	69 63 65 2e 0a 00 45 	imul   $0x45000a2e,0x65(%ebx),%esp
    6b90:	72 72                	jb     6c04 <fdisk_cap_parse+0x874>
    6b92:	6f                   	outsl  %ds:(%esi),(%dx)
    6b93:	72 20                	jb     6bb5 <fdisk_cap_parse+0x825>
    6b95:	63 72 65             	arpl   %si,0x65(%edx)
    6b98:	61                   	popa   
    6b99:	74 69                	je     6c04 <fdisk_cap_parse+0x874>
    6b9b:	6e                   	outsb  %ds:(%esi),(%dx)
    6b9c:	67 20 6c 61          	and    %ch,0x61(%si)
    6ba0:	62 65 6c             	bound  %esp,0x6c(%ebp)
    6ba3:	20 28                	and    %ch,(%eax)
    6ba5:	25 64 29 2e 0a       	and    $0xa2e2964,%eax
    6baa:	00 45 72             	add    %al,0x72(%ebp)
    6bad:	72 6f                	jb     6c1e <fdisk_cap_parse+0x88e>
    6baf:	72 20                	jb     6bd1 <fdisk_cap_parse+0x841>
    6bb1:	63 72 65             	arpl   %si,0x65(%edx)
    6bb4:	61                   	popa   
    6bb5:	74 69                	je     6c20 <fdisk_cap_parse+0x890>
    6bb7:	6e                   	outsb  %ds:(%esi),(%dx)
    6bb8:	67 20 70 61          	and    %dh,0x61(%bx,%si)
    6bbc:	72 74                	jb     6c32 <fdisk_cap_parse+0x8a2>
    6bbe:	69 74 69 6f 6e 2e 0a 	imul   $0xa2e6e,0x6f(%ecx,%ebp,2),%esi
    6bc5:	00 
    6bc6:	25 73 70 31 00       	and    $0x317073,%eax
    6bcb:	73 79                	jae    6c46 <fdisk_cap_parse+0x8b6>
    6bcd:	73 69                	jae    6c38 <fdisk_cap_parse+0x8a8>
    6bcf:	6e                   	outsb  %ds:(%esi),(%dx)
    6bd0:	73 74                	jae    6c46 <fdisk_cap_parse+0x8b6>
    6bd2:	5f                   	pop    %edi
    6bd3:	6c                   	insb   (%dx),%es:(%edi)
    6bd4:	61                   	popa   
    6bd5:	62 65 6c             	bound  %esp,0x6c(%ebp)
    6bd8:	5f                   	pop    %edi
    6bd9:	64 65 76 28          	fs gs jbe 6c05 <fdisk_cap_parse+0x875>
    6bdd:	29 3a                	sub    %edi,(%edx)
    6bdf:	20 4f 4b             	and    %cl,0x4b(%edi)
    6be2:	0a 00                	or     (%eax),%al
    6be4:	50                   	push   %eax
    6be5:	61                   	popa   
    6be6:	72 74                	jb     6c5c <fdisk_cap_parse+0x8cc>
    6be8:	69 74 69 6f 6e 20 27 	imul   $0x2527206e,0x6f(%ecx,%ebp,2),%esi
    6bef:	25 
    6bf0:	73 27                	jae    6c19 <fdisk_cap_parse+0x889>
    6bf2:	2e 20 4d 6f          	and    %cl,%cs:0x6f(%ebp)
    6bf6:	75 6e                	jne    6c66 <fdisk_cap_parse+0x8d6>
    6bf8:	74 20                	je     6c1a <fdisk_cap_parse+0x88a>
    6bfa:	69 74 2e 0a 00 2f 73 	imul   $0x72732f00,0xa(%esi,%ebp,1),%esi
    6c01:	72 
    6c02:	76 2f                	jbe    6c33 <fdisk_cap_parse+0x8a3>
    6c04:	6d                   	insl   (%dx),%es:(%edi)
    6c05:	66 73 00             	data16 jae 6c08 <fdisk_cap_parse+0x878>
    6c08:	2f                   	das    
    6c09:	69 6e 73 74 00 73 79 	imul   $0x79730074,0x73(%esi),%ebp
    6c10:	73 69                	jae    6c7b <fdisk_cap_parse+0x8eb>
    6c12:	6e                   	outsb  %ds:(%esi),(%dx)
    6c13:	73 74                	jae    6c89 <fdisk_cap_parse+0x8f9>
    6c15:	5f                   	pop    %edi
    6c16:	66 73 5f             	data16 jae 6c78 <fdisk_cap_parse+0x8e8>
    6c19:	6d                   	insl   (%dx),%es:(%edi)
    6c1a:	6f                   	outsl  %ds:(%esi),(%dx)
    6c1b:	75 6e                	jne    6c8b <fdisk_cap_parse+0x8fb>
    6c1d:	74 28                	je     6c47 <fdisk_cap_parse+0x8b7>
    6c1f:	29 3a                	sub    %edi,(%edx)
    6c21:	20 4f 4b             	and    %cl,0x4b(%edi)
    6c24:	0a 00                	or     (%eax),%al
    6c26:	2f                   	das    
    6c27:	73 72                	jae    6c9b <fdisk_cap_parse+0x90b>
    6c29:	76 2f                	jbe    6c5a <fdisk_cap_parse+0x8ca>
    6c2b:	63 64 66 73          	arpl   %sp,0x73(%esi,%eiz,2)
    6c2f:	00 2f                	add    %ch,(%edi)
    6c31:	63 64 72 6f          	arpl   %sp,0x6f(%edx,%esi,2)
    6c35:	6d                   	insl   (%dx),%es:(%edi)
    6c36:	00 62 6c             	add    %ah,0x6c(%edx)
    6c39:	6f                   	outsl  %ds:(%esi),(%dx)
    6c3a:	63 6b 2e             	arpl   %bp,0x2e(%ebx)
    6c3d:	63 00                	arpl   %ax,(%eax)
    6c3f:	64 65 76 63          	fs gs jbe 6ca6 <fdisk_cap_parse+0x916>
    6c43:	6f                   	outsl  %ds:(%esi),(%dx)
    6c44:	6e                   	outsb  %ds:(%esi),(%dx)
    6c45:	00 64 65 76          	add    %ah,0x76(%ebp,%eiz,2)
    6c49:	63 6f 6e             	arpl   %bp,0x6e(%edi)
    6c4c:	2d 3e 63 61 63       	sub    $0x6361633e,%eax
    6c51:	68 65 00 62 6c       	push   $0x6c620065
    6c56:	6f                   	outsl  %ds:(%esi),(%dx)
    6c57:	63 6b 2d             	arpl   %bp,0x2d(%ebx)
    6c5a:	3e 72 65             	jb,pt  6cc2 <fdisk_cap_parse+0x932>
    6c5d:	66 63 6e 74          	data16 arpl %bp,0x74(%esi)
    6c61:	20 3e                	and    %bh,(%esi)
    6c63:	3d 20 31 00 64       	cmp    $0x64003120,%eax
    6c68:	65 76 63             	gs jbe 6cce <fdisk_cap_parse+0x93e>
    6c6b:	6f                   	outsl  %ds:(%esi),(%dx)
    6c6c:	6e                   	outsb  %ds:(%esi),(%dx)
    6c6d:	2d 3e 63 61 63       	sub    $0x6361633e,%eax
    6c72:	68 65 20 21 3d       	push   $0x3d212065
    6c77:	20 4e 55             	and    %cl,0x55(%esi)
    6c7a:	4c                   	dec    %esp
    6c7b:	4c                   	dec    %esp
    6c7c:	00 62 2d             	add    %ah,0x2d(%edx)
    6c7f:	3e 74 6f             	je,pt  6cf1 <fdisk_cap_parse+0x961>
    6c82:	78 69                	js     6ced <fdisk_cap_parse+0x95d>
    6c84:	63 00                	arpl   %ax,(%eax)
    6c86:	66 90                	xchg   %ax,%ax
    6c88:	45                   	inc    %ebp
    6c89:	72 72                	jb     6cfd <fdisk_cap_parse+0x96d>
    6c8b:	6f                   	outsl  %ds:(%esi),(%dx)
    6c8c:	72 20                	jb     6cae <fdisk_cap_parse+0x91e>
    6c8e:	25 64 20 72 65       	and    $0x65722064,%eax
    6c93:	61                   	popa   
    6c94:	64 69 6e 67 20 25 7a 	imul   $0x757a2520,%fs:0x67(%esi),%ebp
    6c9b:	75 
    6c9c:	20 62 6c             	and    %ah,0x6c(%edx)
    6c9f:	6f                   	outsl  %ds:(%esi),(%dx)
    6ca0:	63 6b 73             	arpl   %bp,0x73(%ebx)
    6ca3:	20 73 74             	and    %dh,0x74(%ebx)
    6ca6:	61                   	popa   
    6ca7:	72 74                	jb     6d1d <fdisk_cap_parse+0x98d>
    6ca9:	69 6e 67 20 61 74 20 	imul   $0x20746120,0x67(%esi),%ebp
    6cb0:	62 6c 6f 63          	bound  %ebp,0x63(%edi,%ebp,2)
    6cb4:	6b 20 25             	imul   $0x25,(%eax),%esp
    6cb7:	6c                   	insb   (%dx),%es:(%edi)
    6cb8:	6c                   	insb   (%dx),%es:(%edi)
    6cb9:	75 20                	jne    6cdb <fdisk_cap_parse+0x94b>
    6cbb:	66 72 6f             	data16 jb 6d2d <fdisk_cap_parse+0x99d>
    6cbe:	6d                   	insl   (%dx),%es:(%edi)
    6cbf:	20 64 65 76          	and    %ah,0x76(%ebp,%eiz,2)
    6cc3:	69 63 65 20 68 61 6e 	imul   $0x6e616820,0x65(%ebx),%esp
    6cca:	64 6c                	fs insb (%dx),%es:(%edi)
    6ccc:	65 20 25 75 0a 00 00 	and    %ah,%gs:0xa75
    6cd3:	00 45 72             	add    %al,0x72(%ebp)
    6cd6:	72 6f                	jb     6d47 <fdisk_cap_parse+0x9b7>
    6cd8:	72 20                	jb     6cfa <fdisk_cap_parse+0x96a>
    6cda:	25 64 20 77 72       	and    $0x72772064,%eax
    6cdf:	69 74 69 6e 67 20 25 	imul   $0x7a252067,0x6e(%ecx,%ebp,2),%esi
    6ce6:	7a 
    6ce7:	75 20                	jne    6d09 <fdisk_cap_parse+0x979>
    6ce9:	62 6c 6f 63          	bound  %ebp,0x63(%edi,%ebp,2)
    6ced:	6b 73 20 73          	imul   $0x73,0x20(%ebx),%esi
    6cf1:	74 61                	je     6d54 <fdisk_cap_parse+0x9c4>
    6cf3:	72 74                	jb     6d69 <fdisk_cap_parse+0x9d9>
    6cf5:	69 6e 67 20 61 74 20 	imul   $0x20746120,0x67(%esi),%ebp
    6cfc:	62 6c 6f 63          	bound  %ebp,0x63(%edi,%ebp,2)
    6d00:	6b 20 25             	imul   $0x25,(%eax),%esp
    6d03:	6c                   	insb   (%dx),%es:(%edi)
    6d04:	6c                   	insb   (%dx),%es:(%edi)
    6d05:	75 20                	jne    6d27 <fdisk_cap_parse+0x997>
    6d07:	74 6f                	je     6d78 <fdisk_cap_parse+0x9e8>
    6d09:	20 64 65 76          	and    %ah,0x76(%ebp,%eiz,2)
    6d0d:	69 63 65 20 68 61 6e 	imul   $0x6e616820,0x65(%ebx),%esp
    6d14:	64 6c                	fs insb (%dx),%es:(%edi)
    6d16:	65 20 25 75 0a 00 54 	and    %ah,%gs:0x54000a75
    6d1d:	6f                   	outsl  %ds:(%esi),(%dx)
    6d1e:	6f                   	outsl  %ds:(%esi),(%dx)
    6d1f:	20 6d 61             	and    %ch,0x61(%ebp)
    6d22:	6e                   	outsb  %ds:(%esi),(%dx)
    6d23:	79 20                	jns    6d45 <fdisk_cap_parse+0x9b5>
    6d25:	65 72 72             	gs jb  6d9a <fdisk_cap_parse+0xa0a>
    6d28:	6f                   	outsl  %ds:(%esi),(%dx)
    6d29:	72 73                	jb     6d9e <fdisk_cap_parse+0xa0e>
    6d2b:	20 77 72             	and    %dh,0x72(%edi)
    6d2e:	69 74 69 6e 67 20 62 	imul   $0x6c622067,0x6e(%ecx,%ebp,2),%esi
    6d35:	6c 
    6d36:	6f                   	outsl  %ds:(%esi),(%dx)
    6d37:	63 6b 20             	arpl   %bp,0x20(%ebx)
    6d3a:	25 6c 6c 75 66       	and    $0x66756c6c,%eax
    6d3f:	72 6f                	jb     6db0 <fdisk_cap_parse+0xa20>
    6d41:	6d                   	insl   (%dx),%es:(%edi)
    6d42:	20 64 65 76          	and    %ah,0x76(%ebp,%eiz,2)
    6d46:	69 63 65 20 68 61 6e 	imul   $0x6e616820,0x65(%ebx),%esp
    6d4d:	64 6c                	fs insb (%dx),%es:(%edi)
    6d4f:	65 20 25 75 0a 53 45 	and    %ah,%gs:0x45530a75
    6d56:	56                   	push   %esi
    6d57:	45                   	inc    %ebp
    6d58:	52                   	push   %edx
    6d59:	45                   	inc    %ebp
    6d5a:	20 44 41 54          	and    %al,0x54(%ecx,%eax,2)
    6d5e:	41                   	inc    %ecx
    6d5f:	20 4c 4f 53          	and    %cl,0x53(%edi,%ecx,2)
    6d63:	53                   	push   %ebx
    6d64:	20 50 4f             	and    %dl,0x4f(%eax)
    6d67:	53                   	push   %ebx
    6d68:	53                   	push   %ebx
    6d69:	49                   	dec    %ecx
    6d6a:	42                   	inc    %edx
    6d6b:	4c                   	dec    %esp
    6d6c:	45                   	inc    %ebp
    6d6d:	0a 00                	or     (%eax),%al
    6d6f:	90                   	nop
    6d70:	2e 2e 2f             	cs cs das 
    6d73:	2e 2e 2f             	cs cs das 
    6d76:	6c                   	insb   (%dx),%es:(%edi)
    6d77:	69 62 2f 63 2f 69 6e 	imul   $0x6e692f63,0x2f(%edx),%esp
    6d7e:	63 6c 75 64          	arpl   %bp,0x64(%ebp,%esi,2)
    6d82:	65 2f                	gs das 
    6d84:	61                   	popa   
    6d85:	64 74 2f             	fs je  6db7 <fdisk_cap_parse+0xa27>
    6d88:	6c                   	insb   (%dx),%es:(%edi)
    6d89:	69 73 74 2e 68 00 00 	imul   $0x682e,0x74(%ebx),%esi
    6d90:	6c                   	insb   (%dx),%es:(%edi)
    6d91:	69 6e 6b 2d 3e 70 72 	imul   $0x72703e2d,0x6b(%esi),%ebp
    6d98:	65 76 20             	gs jbe 6dbb <fdisk_cap_parse+0xa2b>
    6d9b:	21 3d 20 4e 55 4c    	and    %edi,0x4c554e20
    6da1:	4c                   	dec    %esp
    6da2:	20 26                	and    %ah,(%esi)
    6da4:	26 20 6c 69 6e       	and    %ch,%es:0x6e(%ecx,%ebp,2)
    6da9:	6b 2d 3e 6e 65 78 74 	imul   $0x74,0x78656e3e,%ebp
    6db0:	20 21                	and    %ah,(%ecx)
    6db2:	3d 20 4e 55 4c       	cmp    $0x4c554e20,%eax
    6db7:	4c                   	dec    %esp
    6db8:	00 00                	add    %al,(%eax)
    6dba:	00 00                	add    %al,(%eax)
    6dbc:	73 72                	jae    6e30 <CSWTCH.100+0x4>
    6dbe:	63 2f                	arpl   %bp,(%edi)
    6dc0:	66 64 69 73 6b 2e 63 	imul   $0x632e,%fs:0x6b(%ebx),%si
    6dc7:	00 70 61             	add    %dh,0x61(%eax)
    6dca:	72 74                	jb     6e40 <CSWTCH.98+0x8>
    6dcc:	20 21                	and    %ah,(%ecx)
    6dce:	3d 20 4e 55 4c       	cmp    $0x4c554e20,%eax
    6dd3:	4c                   	dec    %esp
    6dd4:	00 66 6e             	add    %ah,0x6e(%esi)
    6dd7:	62 6c 6f 63          	bound  %ebp,0x63(%edi,%ebp,2)
    6ddb:	6b 73 20 3c          	imul   $0x3c,0x20(%ebx),%esi
    6ddf:	20 68 64             	and    %ch,0x64(%eax)
    6de2:	72 62                	jb     6e46 <CSWTCH.98+0xe>
    6de4:	20 2b                	and    %ch,(%ebx)
    6de6:	20 6e 6f             	and    %ch,0x6f(%esi)
    6de9:	6d                   	insl   (%dx),%es:(%edi)
    6dea:	5f                   	pop    %edi
    6deb:	62 6c 6f 63          	bound  %ebp,0x63(%edi,%ebp,2)
    6def:	6b 73 00 50          	imul   $0x50,0x0(%ebx),%esi
    6df3:	72 69                	jb     6e5e <CSWTCH.66+0xa>
    6df5:	6d                   	insl   (%dx),%es:(%edi)
    6df6:	61                   	popa   
    6df7:	72 79                	jb     6e72 <CSWTCH.66+0x1e>
    6df9:	00 45 78             	add    %al,0x78(%ebp)
    6dfc:	74 65                	je     6e63 <CSWTCH.66+0xf>
    6dfe:	6e                   	outsb  %ds:(%esi),(%dx)
    6dff:	64 65 64 00 4c 6f 67 	fs gs add %cl,%fs:0x67(%edi,%ebp,2)
    6e06:	69 63 61 6c 00 45 78 	imul   $0x7845006c,0x61(%ebx),%esp
    6e0d:	46                   	inc    %esi
    6e0e:	41                   	inc    %ecx
    6e0f:	54                   	push   %esp
    6e10:	00 4d 49             	add    %cl,0x49(%ebp)
    6e13:	4e                   	dec    %esi
    6e14:	49                   	dec    %ecx
    6e15:	58                   	pop    %eax
    6e16:	00 45 78             	add    %al,0x78(%ebp)
    6e19:	74 34                	je     6e4f <CSWTCH.96+0x7>
    6e1b:	00 4e 6f             	add    %cl,0x6f(%esi)
    6e1e:	6e                   	outsb  %ds:(%esi),(%dx)
    6e1f:	65 00 4d 42          	add    %cl,%gs:0x42(%ebp)
    6e23:	52                   	push   %edx
    6e24:	00 47 50             	add    %al,0x50(%edi)
    6e27:	54                   	push   %esp
    6e28:	00 66 90             	add    %ah,-0x70(%esi)
    6e2b:	90                   	nop

00006e2c <CSWTCH.100>:
    6e2c:	f2 6d 00 00 fa 6d 00 00 03 6e 00 00                 .m...m...n..

00006e38 <CSWTCH.98>:
    6e38:	0b 6e 00 00 0d 6e 00 00 11 6e 00 00 17 6e 00 00     .n...n...n...n..

00006e48 <CSWTCH.96>:
    6e48:	1c 6e 00 00 21 6e 00 00 25 6e 00 00                 .n..!n..%n..

00006e54 <CSWTCH.66>:
    6e54:	00 00 00 00 03 00 00 00 04 00 00 00 01 00 00 00     ................
    6e64:	73 72 63 2f 63 61 70 2e 63 00 72 63 20 3d 3d 20     src/cap.c.rc == 
    6e74:	45 4f 4b 00 66 61 6c 73 65 00 25 6c 6c 75 2e 25     EOK.false.%llu.%
    6e84:	30 2a 6c 6c 75 20 25 73 00 25 6c 6c 75 20 25 73     0*llu %s.%llu %s
    6e94:	00 6b 42 00 4d 42 00 47 42 00 54 42 00 50 42 00     .kB.MB.GB.TB.PB.
    6ea4:	45 42 00 5a 42 00 59 42 00 66 90 66 90 66 90 66     EB.ZB.YB.f.f.f.f
    6eb4:	90 66 90 66 90 66 90 66 90 66 90 90 40 64 00 00     .f.f.f.f.f..@d..
    6ec4:	b8 63 00 00 38 64 00 00 30 64 00 00 28 64 00 00     .c..8d..0d..(d..
    6ed4:	68 64 00 00 58 64 00 00 20 64 00 00 48 64 00 00     hd..Xd.. d..Hd..
    6ee4:	78 64 00 00 50 65 00 00 28 65 00 00 90 65 00 00     xd..Pe..(e...e..
    6ef4:	88 65 00 00 80 65 00 00 78 65 00 00 70 65 00 00     .e...e..xe..pe..
    6f04:	68 65 00 00 60 65 00 00 58 65 00 00 00 00 00 00     he..`e..Xe......
	...

00006f20 <cu_str>:
    6f20:	a5 6e 00 00 95 6e 00 00 98 6e 00 00 9b 6e 00 00     .n...n...n...n..
    6f30:	9e 6e 00 00 a1 6e 00 00 a4 6e 00 00 a7 6e 00 00     .n...n...n...n..
    6f40:	aa 6e 00 00                                         .n..

Disassembly of section .plt:

00007190 <__main@plt-0x10>:
    7190:	ff 35 ac 91 00 00    	pushl  0x91ac
    7196:	ff 25 b0 91 00 00    	jmp    *0x91b0
    719c:	00 00                	add    %al,(%eax)
	...

000071a0 <__main@plt>:
    71a0:	ff 25 b4 91 00 00    	jmp    *0x91b4
    71a6:	68 00 00 00 00       	push   $0x0
    71ab:	e9 e0 ff ff ff       	jmp    7190 <cu_str+0x270>

000071b0 <vol_destroy@plt>:
    71b0:	ff 25 b8 91 00 00    	jmp    *0x91b8
    71b6:	68 08 00 00 00       	push   $0x8
    71bb:	e9 d0 ff ff ff       	jmp    7190 <cu_str+0x270>

000071c0 <vbd_label_get_parts@plt>:
    71c0:	ff 25 bc 91 00 00    	jmp    *0x91bc
    71c6:	68 10 00 00 00       	push   $0x10
    71cb:	e9 c0 ff ff ff       	jmp    7190 <cu_str+0x270>

000071d0 <vbd_get_disks@plt>:
    71d0:	ff 25 c0 91 00 00    	jmp    *0x91c0
    71d6:	68 18 00 00 00       	push   $0x18
    71db:	e9 b0 ff ff ff       	jmp    7190 <cu_str+0x270>

000071e0 <loc_service_connect@plt>:
    71e0:	ff 25 c4 91 00 00    	jmp    *0x91c4
    71e6:	68 20 00 00 00       	push   $0x20
    71eb:	e9 a0 ff ff ff       	jmp    7190 <cu_str+0x270>

000071f0 <printf@plt>:
    71f0:	ff 25 c8 91 00 00    	jmp    *0x91c8
    71f6:	68 28 00 00 00       	push   $0x28
    71fb:	e9 90 ff ff ff       	jmp    7190 <cu_str+0x270>

00007200 <async_hangup@plt>:
    7200:	ff 25 cc 91 00 00    	jmp    *0x91cc
    7206:	68 30 00 00 00       	push   $0x30
    720b:	e9 80 ff ff ff       	jmp    7190 <cu_str+0x270>

00007210 <vbd_part_delete@plt>:
    7210:	ff 25 d0 91 00 00    	jmp    *0x91d0
    7216:	68 38 00 00 00       	push   $0x38
    721b:	e9 70 ff ff ff       	jmp    7190 <cu_str+0x270>

00007220 <hash_table_create@plt>:
    7220:	ff 25 d4 91 00 00    	jmp    *0x91d4
    7226:	68 40 00 00 00       	push   $0x40
    722b:	e9 60 ff ff ff       	jmp    7190 <cu_str+0x270>

00007230 <vbd_create@plt>:
    7230:	ff 25 d8 91 00 00    	jmp    *0x91d8
    7236:	68 48 00 00 00       	push   $0x48
    723b:	e9 50 ff ff ff       	jmp    7190 <cu_str+0x270>

00007240 <hash_table_insert@plt>:
    7240:	ff 25 dc 91 00 00    	jmp    *0x91dc
    7246:	68 50 00 00 00       	push   $0x50
    724b:	e9 40 ff ff ff       	jmp    7190 <cu_str+0x270>

00007250 <task_wait@plt>:
    7250:	ff 25 e0 91 00 00    	jmp    *0x91e0
    7256:	68 58 00 00 00       	push   $0x58
    725b:	e9 30 ff ff ff       	jmp    7190 <cu_str+0x270>

00007260 <vol_create@plt>:
    7260:	ff 25 e4 91 00 00    	jmp    *0x91e4
    7266:	68 60 00 00 00       	push   $0x60
    726b:	e9 20 ff ff ff       	jmp    7190 <cu_str+0x270>

00007270 <bd_write_blocks@plt>:
    7270:	ff 25 e8 91 00 00    	jmp    *0x91e8
    7276:	68 68 00 00 00       	push   $0x68
    727b:	e9 10 ff ff ff       	jmp    7190 <cu_str+0x270>

00007280 <bd_get_num_blocks@plt>:
    7280:	ff 25 ec 91 00 00    	jmp    *0x91ec
    7286:	68 70 00 00 00       	push   $0x70
    728b:	e9 00 ff ff ff       	jmp    7190 <cu_str+0x270>

00007290 <vbd_disk_info@plt>:
    7290:	ff 25 f0 91 00 00    	jmp    *0x91f0
    7296:	68 78 00 00 00       	push   $0x78
    729b:	e9 f0 fe ff ff       	jmp    7190 <cu_str+0x270>

000072a0 <bd_close@plt>:
    72a0:	ff 25 f4 91 00 00    	jmp    *0x91f4
    72a6:	68 80 00 00 00       	push   $0x80
    72ab:	e9 e0 fe ff ff       	jmp    7190 <cu_str+0x270>

000072b0 <memcpy@plt>:
    72b0:	ff 25 f8 91 00 00    	jmp    *0x91f8
    72b6:	68 88 00 00 00       	push   $0x88
    72bb:	e9 d0 fe ff ff       	jmp    7190 <cu_str+0x270>

000072c0 <vol_part_empty@plt>:
    72c0:	ff 25 fc 91 00 00    	jmp    *0x91fc
    72c6:	68 90 00 00 00       	push   $0x90
    72cb:	e9 c0 fe ff ff       	jmp    7190 <cu_str+0x270>

000072d0 <malloc@plt>:
    72d0:	ff 25 00 92 00 00    	jmp    *0x9200
    72d6:	68 98 00 00 00       	push   $0x98
    72db:	e9 b0 fe ff ff       	jmp    7190 <cu_str+0x270>

000072e0 <bd_open@plt>:
    72e0:	ff 25 04 92 00 00    	jmp    *0x9204
    72e6:	68 a0 00 00 00       	push   $0xa0
    72eb:	e9 a0 fe ff ff       	jmp    7190 <cu_str+0x270>

000072f0 <loc_service_get_id@plt>:
    72f0:	ff 25 08 92 00 00    	jmp    *0x9208
    72f6:	68 a8 00 00 00       	push   $0xa8
    72fb:	e9 90 fe ff ff       	jmp    7190 <cu_str+0x270>

00007300 <vbd_label_delete@plt>:
    7300:	ff 25 0c 92 00 00    	jmp    *0x920c
    7306:	68 b0 00 00 00       	push   $0xb0
    730b:	e9 80 fe ff ff       	jmp    7190 <cu_str+0x270>

00007310 <readdir@plt>:
    7310:	ff 25 10 92 00 00    	jmp    *0x9210
    7316:	68 b8 00 00 00       	push   $0xb8
    731b:	e9 70 fe ff ff       	jmp    7190 <cu_str+0x270>

00007320 <ilog10_u64@plt>:
    7320:	ff 25 14 92 00 00    	jmp    *0x9214
    7326:	68 c0 00 00 00       	push   $0xc0
    732b:	e9 60 fe ff ff       	jmp    7190 <cu_str+0x270>

00007330 <stacktrace_print@plt>:
    7330:	ff 25 18 92 00 00    	jmp    *0x9218
    7336:	68 c8 00 00 00       	push   $0xc8
    733b:	e9 50 fe ff ff       	jmp    7190 <cu_str+0x270>

00007340 <__umoddi3@plt>:
    7340:	ff 25 1c 92 00 00    	jmp    *0x921c
    7346:	68 d0 00 00 00       	push   $0xd0
    734b:	e9 40 fe ff ff       	jmp    7190 <cu_str+0x270>

00007350 <lseek@plt>:
    7350:	ff 25 20 92 00 00    	jmp    *0x9220
    7356:	68 d8 00 00 00       	push   $0xd8
    735b:	e9 30 fe ff ff       	jmp    7190 <cu_str+0x270>

00007360 <__udivdi3@plt>:
    7360:	ff 25 24 92 00 00    	jmp    *0x9224
    7366:	68 e0 00 00 00       	push   $0xe0
    736b:	e9 20 fe ff ff       	jmp    7190 <cu_str+0x270>

00007370 <bd_read_blocks@plt>:
    7370:	ff 25 28 92 00 00    	jmp    *0x9228
    7376:	68 e8 00 00 00       	push   $0xe8
    737b:	e9 10 fe ff ff       	jmp    7190 <cu_str+0x270>

00007380 <fibril_mutex_trylock@plt>:
    7380:	ff 25 2c 92 00 00    	jmp    *0x922c
    7386:	68 f0 00 00 00       	push   $0xf0
    738b:	e9 00 fe ff ff       	jmp    7190 <cu_str+0x270>

00007390 <loc_service_get_name@plt>:
    7390:	ff 25 30 92 00 00    	jmp    *0x9230
    7396:	68 f8 00 00 00       	push   $0xf8
    739b:	e9 f0 fd ff ff       	jmp    7190 <cu_str+0x270>

000073a0 <assert_abort@plt>:
    73a0:	ff 25 34 92 00 00    	jmp    *0x9234
    73a6:	68 00 01 00 00       	push   $0x100
    73ab:	e9 e0 fd ff ff       	jmp    7190 <cu_str+0x270>

000073b0 <calloc@plt>:
    73b0:	ff 25 38 92 00 00    	jmp    *0x9238
    73b6:	68 08 01 00 00       	push   $0x108
    73bb:	e9 d0 fd ff ff       	jmp    7190 <cu_str+0x270>

000073c0 <vbd_part_create@plt>:
    73c0:	ff 25 3c 92 00 00    	jmp    *0x923c
    73c6:	68 10 01 00 00       	push   $0x110
    73cb:	e9 c0 fd ff ff       	jmp    7190 <cu_str+0x270>

000073d0 <write@plt>:
    73d0:	ff 25 40 92 00 00    	jmp    *0x9240
    73d6:	68 18 01 00 00       	push   $0x118
    73db:	e9 b0 fd ff ff       	jmp    7190 <cu_str+0x270>

000073e0 <str_lcasecmp@plt>:
    73e0:	ff 25 44 92 00 00    	jmp    *0x9244
    73e6:	68 20 01 00 00       	push   $0x120
    73eb:	e9 a0 fd ff ff       	jmp    7190 <cu_str+0x270>

000073f0 <bd_read_toc@plt>:
    73f0:	ff 25 48 92 00 00    	jmp    *0x9248
    73f6:	68 28 01 00 00       	push   $0x128
    73fb:	e9 90 fd ff ff       	jmp    7190 <cu_str+0x270>

00007400 <vbd_part_get_info@plt>:
    7400:	ff 25 4c 92 00 00    	jmp    *0x924c
    7406:	68 30 01 00 00       	push   $0x130
    740b:	e9 80 fd ff ff       	jmp    7190 <cu_str+0x270>

00007410 <fibril_mutex_unlock@plt>:
    7410:	ff 25 50 92 00 00    	jmp    *0x9250
    7416:	68 38 01 00 00       	push   $0x138
    741b:	e9 70 fd ff ff       	jmp    7190 <cu_str+0x270>

00007420 <str_dup@plt>:
    7420:	ff 25 54 92 00 00    	jmp    *0x9254
    7426:	68 40 01 00 00       	push   $0x140
    742b:	e9 60 fd ff ff       	jmp    7190 <cu_str+0x270>

00007430 <fibril_mutex_initialize@plt>:
    7430:	ff 25 58 92 00 00    	jmp    *0x9258
    7436:	68 48 01 00 00       	push   $0x148
    743b:	e9 50 fd ff ff       	jmp    7190 <cu_str+0x270>

00007440 <read@plt>:
    7440:	ff 25 5c 92 00 00    	jmp    *0x925c
    7446:	68 50 01 00 00       	push   $0x150
    744b:	e9 40 fd ff ff       	jmp    7190 <cu_str+0x270>

00007450 <vbd_destroy@plt>:
    7450:	ff 25 60 92 00 00    	jmp    *0x9260
    7456:	68 58 01 00 00       	push   $0x158
    745b:	e9 30 fd ff ff       	jmp    7190 <cu_str+0x270>

00007460 <vfs_mount@plt>:
    7460:	ff 25 64 92 00 00    	jmp    *0x9264
    7466:	68 60 01 00 00       	push   $0x160
    746b:	e9 20 fd ff ff       	jmp    7190 <cu_str+0x270>

00007470 <vbd_label_create@plt>:
    7470:	ff 25 68 92 00 00    	jmp    *0x9268
    7476:	68 68 01 00 00       	push   $0x168
    747b:	e9 10 fd ff ff       	jmp    7190 <cu_str+0x270>

00007480 <hash_table_remove_item@plt>:
    7480:	ff 25 6c 92 00 00    	jmp    *0x926c
    7486:	68 70 01 00 00       	push   $0x170
    748b:	e9 00 fd ff ff       	jmp    7190 <cu_str+0x270>

00007490 <vol_part_mkfs@plt>:
    7490:	ff 25 70 92 00 00    	jmp    *0x9270
    7496:	68 78 01 00 00       	push   $0x178
    749b:	e9 f0 fc ff ff       	jmp    7190 <cu_str+0x270>

000074a0 <memset@plt>:
    74a0:	ff 25 74 92 00 00    	jmp    *0x9274
    74a6:	68 80 01 00 00       	push   $0x180
    74ab:	e9 e0 fc ff ff       	jmp    7190 <cu_str+0x270>

000074b0 <opendir@plt>:
    74b0:	ff 25 78 92 00 00    	jmp    *0x9278
    74b6:	68 88 01 00 00       	push   $0x188
    74bb:	e9 d0 fc ff ff       	jmp    7190 <cu_str+0x270>

000074c0 <asprintf@plt>:
    74c0:	ff 25 7c 92 00 00    	jmp    *0x927c
    74c6:	68 90 01 00 00       	push   $0x190
    74cb:	e9 c0 fc ff ff       	jmp    7190 <cu_str+0x270>

000074d0 <vol_part_add@plt>:
    74d0:	ff 25 80 92 00 00    	jmp    *0x9280
    74d6:	68 98 01 00 00       	push   $0x198
    74db:	e9 b0 fc ff ff       	jmp    7190 <cu_str+0x270>

000074e0 <bd_get_block_size@plt>:
    74e0:	ff 25 84 92 00 00    	jmp    *0x9284
    74e6:	68 a0 01 00 00       	push   $0x1a0
    74eb:	e9 a0 fc ff ff       	jmp    7190 <cu_str+0x270>

000074f0 <str_size@plt>:
    74f0:	ff 25 88 92 00 00    	jmp    *0x9288
    74f6:	68 a8 01 00 00       	push   $0x1a8
    74fb:	e9 90 fc ff ff       	jmp    7190 <cu_str+0x270>

00007500 <str_length@plt>:
    7500:	ff 25 8c 92 00 00    	jmp    *0x928c
    7506:	68 b0 01 00 00       	push   $0x1b0
    750b:	e9 80 fc ff ff       	jmp    7190 <cu_str+0x270>

00007510 <bd_sync_cache@plt>:
    7510:	ff 25 90 92 00 00    	jmp    *0x9290
    7516:	68 b8 01 00 00       	push   $0x1b8
    751b:	e9 70 fc ff ff       	jmp    7190 <cu_str+0x270>

00007520 <stat@plt>:
    7520:	ff 25 94 92 00 00    	jmp    *0x9294
    7526:	68 c0 01 00 00       	push   $0x1c0
    752b:	e9 60 fc ff ff       	jmp    7190 <cu_str+0x270>

00007530 <ipow10_u64@plt>:
    7530:	ff 25 98 92 00 00    	jmp    *0x9298
    7536:	68 c8 01 00 00       	push   $0x1c8
    753b:	e9 50 fc ff ff       	jmp    7190 <cu_str+0x270>

00007540 <hash_table_find@plt>:
    7540:	ff 25 9c 92 00 00    	jmp    *0x929c
    7546:	68 d0 01 00 00       	push   $0x1d0
    754b:	e9 40 fc ff ff       	jmp    7190 <cu_str+0x270>

00007550 <fibril_rwlock_initialize@plt>:
    7550:	ff 25 a0 92 00 00    	jmp    *0x92a0
    7556:	68 d8 01 00 00       	push   $0x1d8
    755b:	e9 30 fc ff ff       	jmp    7190 <cu_str+0x270>

00007560 <vbd_suggest_ptype@plt>:
    7560:	ff 25 a4 92 00 00    	jmp    *0x92a4
    7566:	68 e0 01 00 00       	push   $0x1e0
    756b:	e9 20 fc ff ff       	jmp    7190 <cu_str+0x270>

00007570 <vfs_unmount@plt>:
    7570:	ff 25 a8 92 00 00    	jmp    *0x92a8
    7576:	68 e8 01 00 00       	push   $0x1e8
    757b:	e9 10 fc ff ff       	jmp    7190 <cu_str+0x270>

00007580 <__syscall_fast@plt>:
    7580:	ff 25 ac 92 00 00    	jmp    *0x92ac
    7586:	68 f0 01 00 00       	push   $0x1f0
    758b:	e9 00 fc ff ff       	jmp    7190 <cu_str+0x270>

00007590 <open@plt>:
    7590:	ff 25 b0 92 00 00    	jmp    *0x92b0
    7596:	68 f8 01 00 00       	push   $0x1f8
    759b:	e9 f0 fb ff ff       	jmp    7190 <cu_str+0x270>

000075a0 <vol_part_info@plt>:
    75a0:	ff 25 b4 92 00 00    	jmp    *0x92b4
    75a6:	68 00 02 00 00       	push   $0x200
    75ab:	e9 e0 fb ff ff       	jmp    7190 <cu_str+0x270>

000075b0 <task_spawnl@plt>:
    75b0:	ff 25 b8 92 00 00    	jmp    *0x92b8
    75b6:	68 08 02 00 00       	push   $0x208
    75bb:	e9 d0 fb ff ff       	jmp    7190 <cu_str+0x270>

000075c0 <hash_table_destroy@plt>:
    75c0:	ff 25 bc 92 00 00    	jmp    *0x92bc
    75c6:	68 10 02 00 00       	push   $0x210
    75cb:	e9 c0 fb ff ff       	jmp    7190 <cu_str+0x270>

000075d0 <mkdir@plt>:
    75d0:	ff 25 c0 92 00 00    	jmp    *0x92c0
    75d6:	68 18 02 00 00       	push   $0x218
    75db:	e9 b0 fb ff ff       	jmp    7190 <cu_str+0x270>

000075e0 <close@plt>:
    75e0:	ff 25 c4 92 00 00    	jmp    *0x92c4
    75e6:	68 20 02 00 00       	push   $0x220
    75eb:	e9 a0 fb ff ff       	jmp    7190 <cu_str+0x270>

000075f0 <free@plt>:
    75f0:	ff 25 c8 92 00 00    	jmp    *0x92c8
    75f6:	68 28 02 00 00       	push   $0x228
    75fb:	e9 90 fb ff ff       	jmp    7190 <cu_str+0x270>

00007600 <fibril_mutex_lock@plt>:
    7600:	ff 25 cc 92 00 00    	jmp    *0x92cc
    7606:	68 30 02 00 00       	push   $0x230
    760b:	e9 80 fb ff ff       	jmp    7190 <cu_str+0x270>
