
pciintel:     file format elf32-i386


Disassembly of section .init:

000010f4 <__entry>:
    10f4:	66 8c d0             	mov    %ss,%ax
    10f7:	8e d8                	mov    %eax,%ds
    10f9:	8e c0                	mov    %eax,%es
    10fb:	8e e0                	mov    %eax,%fs
    10fd:	b8 01 00 00 00       	mov    $0x1,%eax
    1102:	0f a2                	cpuid  
    1104:	0f ba e2 0b          	bt     $0xb,%edx
    1108:	73 0c                	jae    1116 <__entry+0x22>
    110a:	8d 05 a0 19 01 00    	lea    0x119a0,%eax
    1110:	c7 00 30 f8 00 00    	movl   $0xf830,(%eax)
    1116:	6a 00                	push   $0x0
    1118:	6a 00                	push   $0x0
    111a:	89 e5                	mov    %esp,%ebp
    111c:	57                   	push   %edi
    111d:	e8 2e e2 00 00       	call   f350 <__main@plt>

Disassembly of section .text:

00001140 <pciintel_get_pio_window>:
    1140:	55                   	push   %ebp
    1141:	89 e5                	mov    %esp,%ebp
    1143:	83 ec 14             	sub    $0x14,%esp
    1146:	8b 45 08             	mov    0x8(%ebp),%eax
    1149:	50                   	push   %eax
    114a:	e8 51 3a 00 00       	call   4ba0 <ddf_fun_data_get>
    114f:	83 c4 10             	add    $0x10,%esp
    1152:	85 c0                	test   %eax,%eax
    1154:	74 0a                	je     1160 <pciintel_get_pio_window+0x20>
    1156:	05 18 01 00 00       	add    $0x118,%eax
    115b:	c9                   	leave  
    115c:	c3                   	ret    
    115d:	8d 76 00             	lea    0x0(%esi),%esi
    1160:	31 c0                	xor    %eax,%eax
    1162:	c9                   	leave  
    1163:	c3                   	ret    
    1164:	8d b6 00 00 00 00    	lea    0x0(%esi),%esi
    116a:	8d bf 00 00 00 00    	lea    0x0(%edi),%edi

00001170 <pciintel_get_resources>:
    1170:	55                   	push   %ebp
    1171:	89 e5                	mov    %esp,%ebp
    1173:	83 ec 14             	sub    $0x14,%esp
    1176:	8b 45 08             	mov    0x8(%ebp),%eax
    1179:	50                   	push   %eax
    117a:	e8 21 3a 00 00       	call   4ba0 <ddf_fun_data_get>
    117f:	83 c4 10             	add    $0x10,%esp
    1182:	85 c0                	test   %eax,%eax
    1184:	74 0a                	je     1190 <pciintel_get_resources+0x20>
    1186:	83 c0 20             	add    $0x20,%eax
    1189:	c9                   	leave  
    118a:	c3                   	ret    
    118b:	90                   	nop
    118c:	8d 74 26 00          	lea    0x0(%esi,%eiz,1),%esi
    1190:	31 c0                	xor    %eax,%eax
    1192:	c9                   	leave  
    1193:	c3                   	ret    
    1194:	8d b6 00 00 00 00    	lea    0x0(%esi),%esi
    119a:	8d bf 00 00 00 00    	lea    0x0(%edi),%edi

000011a0 <pci_fun_offline>:
    11a0:	55                   	push   %ebp
    11a1:	89 e5                	mov    %esp,%ebp
    11a3:	53                   	push   %ebx
    11a4:	83 ec 0c             	sub    $0xc,%esp
    11a7:	8b 5d 08             	mov    0x8(%ebp),%ebx
    11aa:	68 0f d1 00 00       	push   $0xd10f
    11af:	6a 04                	push   $0x4
    11b1:	e8 4a 40 00 00       	call   5200 <ddf_msg>
    11b6:	89 5d 08             	mov    %ebx,0x8(%ebp)
    11b9:	83 c4 10             	add    $0x10,%esp
    11bc:	8b 5d fc             	mov    -0x4(%ebp),%ebx
    11bf:	c9                   	leave  
    11c0:	e9 2b 3d 00 00       	jmp    4ef0 <ddf_fun_offline>
    11c5:	8d 74 26 00          	lea    0x0(%esi,%eiz,1),%esi
    11c9:	8d bc 27 00 00 00 00 	lea    0x0(%edi,%eiz,1),%edi

000011d0 <pci_fun_online>:
    11d0:	55                   	push   %ebp
    11d1:	89 e5                	mov    %esp,%ebp
    11d3:	53                   	push   %ebx
    11d4:	83 ec 0c             	sub    $0xc,%esp
    11d7:	8b 5d 08             	mov    0x8(%ebp),%ebx
    11da:	68 21 d1 00 00       	push   $0xd121
    11df:	6a 04                	push   $0x4
    11e1:	e8 1a 40 00 00       	call   5200 <ddf_msg>
    11e6:	89 5d 08             	mov    %ebx,0x8(%ebp)
    11e9:	83 c4 10             	add    $0x10,%esp
    11ec:	8b 5d fc             	mov    -0x4(%ebp),%ebx
    11ef:	c9                   	leave  
    11f0:	e9 cb 3c 00 00       	jmp    4ec0 <ddf_fun_online>
    11f5:	8d 74 26 00          	lea    0x0(%esi,%eiz,1),%esi
    11f9:	8d bc 27 00 00 00 00 	lea    0x0(%edi,%eiz,1),%edi

00001200 <pciintel_enable_interrupt>:
    1200:	55                   	push   %ebp
    1201:	89 e5                	mov    %esp,%ebp
    1203:	56                   	push   %esi
    1204:	53                   	push   %ebx
    1205:	8b 45 08             	mov    0x8(%ebp),%eax
    1208:	85 c0                	test   %eax,%eax
    120a:	74 5d                	je     1269 <pciintel_enable_interrupt+0x69>
    120c:	83 ec 0c             	sub    $0xc,%esp
    120f:	31 db                	xor    %ebx,%ebx
    1211:	50                   	push   %eax
    1212:	e8 89 39 00 00       	call   4ba0 <ddf_fun_data_get>
    1217:	83 c4 10             	add    $0x10,%esp
    121a:	89 c6                	mov    %eax,%esi
    121c:	8b 50 20             	mov    0x20(%eax),%edx
    121f:	85 d2                	test   %edx,%edx
    1221:	75 0a                	jne    122d <pciintel_enable_interrupt+0x2d>
    1223:	eb 32                	jmp    1257 <pciintel_enable_interrupt+0x57>
    1225:	8d 76 00             	lea    0x0(%esi),%esi
    1228:	43                   	inc    %ebx
    1229:	39 d3                	cmp    %edx,%ebx
    122b:	73 2a                	jae    1257 <pciintel_enable_interrupt+0x57>
    122d:	8b 4e 24             	mov    0x24(%esi),%ecx
    1230:	8d 04 5b             	lea    (%ebx,%ebx,2),%eax
    1233:	8d 04 c1             	lea    (%ecx,%eax,8),%eax
    1236:	8b 08                	mov    (%eax),%ecx
    1238:	85 c9                	test   %ecx,%ecx
    123a:	75 ec                	jne    1228 <pciintel_enable_interrupt+0x28>
    123c:	83 ec 0c             	sub    $0xc,%esp
    123f:	8b 40 04             	mov    0x4(%eax),%eax
    1242:	50                   	push   %eax
    1243:	e8 f8 e1 00 00       	call   f440 <irc_enable_interrupt@plt>
    1248:	83 c4 10             	add    $0x10,%esp
    124b:	85 c0                	test   %eax,%eax
    124d:	75 11                	jne    1260 <pciintel_enable_interrupt+0x60>
    124f:	8b 56 20             	mov    0x20(%esi),%edx
    1252:	43                   	inc    %ebx
    1253:	39 d3                	cmp    %edx,%ebx
    1255:	72 d6                	jb     122d <pciintel_enable_interrupt+0x2d>
    1257:	8d 65 f8             	lea    -0x8(%ebp),%esp
    125a:	b0 01                	mov    $0x1,%al
    125c:	5b                   	pop    %ebx
    125d:	5e                   	pop    %esi
    125e:	5d                   	pop    %ebp
    125f:	c3                   	ret    
    1260:	8d 65 f8             	lea    -0x8(%ebp),%esp
    1263:	31 c0                	xor    %eax,%eax
    1265:	5b                   	pop    %ebx
    1266:	5e                   	pop    %esi
    1267:	5d                   	pop    %ebp
    1268:	c3                   	ret    
    1269:	53                   	push   %ebx
    126a:	6a 68                	push   $0x68
    126c:	68 97 ef 00 00       	push   $0xef97
    1271:	68 32 d1 00 00       	push   $0xd132
    1276:	e8 e5 e2 00 00       	call   f560 <assert_abort@plt>
    127b:	90                   	nop
    127c:	8d 74 26 00          	lea    0x0(%esi,%eiz,1),%esi

00001280 <config_space_write_32>:
    1280:	55                   	push   %ebp
    1281:	89 e5                	mov    %esp,%ebp
    1283:	57                   	push   %edi
    1284:	56                   	push   %esi
    1285:	53                   	push   %ebx
    1286:	83 ec 0c             	sub    $0xc,%esp
    1289:	81 7d 0c fc 00 00 00 	cmpl   $0xfc,0xc(%ebp)
    1290:	0f 87 92 00 00 00    	ja     1328 <config_space_write_32+0xa8>
    1296:	83 ec 0c             	sub    $0xc,%esp
    1299:	8b 45 08             	mov    0x8(%ebp),%eax
    129c:	50                   	push   %eax
    129d:	e8 fe 38 00 00       	call   4ba0 <ddf_fun_data_get>
    12a2:	8b 58 08             	mov    0x8(%eax),%ebx
    12a5:	8b 50 0c             	mov    0xc(%eax),%edx
    12a8:	c1 e2 0b             	shl    $0xb,%edx
    12ab:	8b 30                	mov    (%eax),%esi
    12ad:	c1 e3 10             	shl    $0x10,%ebx
    12b0:	09 d3                	or     %edx,%ebx
    12b2:	8b 55 0c             	mov    0xc(%ebp),%edx
    12b5:	83 e2 fc             	and    $0xfffffffc,%edx
    12b8:	8d 7e 20             	lea    0x20(%esi),%edi
    12bb:	09 d3                	or     %edx,%ebx
    12bd:	8b 50 10             	mov    0x10(%eax),%edx
    12c0:	c1 e2 08             	shl    $0x8,%edx
    12c3:	89 3c 24             	mov    %edi,(%esp)
    12c6:	09 d3                	or     %edx,%ebx
    12c8:	e8 b3 e5 00 00       	call   f880 <fibril_mutex_lock@plt>
    12cd:	8b 46 04             	mov    0x4(%esi),%eax
    12d0:	83 c4 10             	add    $0x10,%esp
    12d3:	85 c0                	test   %eax,%eax
    12d5:	74 39                	je     1310 <config_space_write_32+0x90>
    12d7:	81 cb 00 00 00 80    	or     $0x80000000,%ebx
    12dd:	52                   	push   %edx
    12de:	52                   	push   %edx
    12df:	53                   	push   %ebx
    12e0:	50                   	push   %eax
    12e1:	e8 7a e3 00 00       	call   f660 <pio_write_32@plt>
    12e6:	8b 45 10             	mov    0x10(%ebp),%eax
    12e9:	59                   	pop    %ecx
    12ea:	5b                   	pop    %ebx
    12eb:	50                   	push   %eax
    12ec:	8b 46 08             	mov    0x8(%esi),%eax
    12ef:	50                   	push   %eax
    12f0:	e8 6b e3 00 00       	call   f660 <pio_write_32@plt>
    12f5:	83 c4 10             	add    $0x10,%esp
    12f8:	83 ec 0c             	sub    $0xc,%esp
    12fb:	57                   	push   %edi
    12fc:	e8 ef e2 00 00       	call   f5f0 <fibril_mutex_unlock@plt>
    1301:	83 c4 10             	add    $0x10,%esp
    1304:	31 c0                	xor    %eax,%eax
    1306:	8d 65 f4             	lea    -0xc(%ebp),%esp
    1309:	5b                   	pop    %ebx
    130a:	5e                   	pop    %esi
    130b:	5f                   	pop    %edi
    130c:	5d                   	pop    %ebp
    130d:	c3                   	ret    
    130e:	66 90                	xchg   %ax,%ax
    1310:	50                   	push   %eax
    1311:	50                   	push   %eax
    1312:	8b 4e 0c             	mov    0xc(%esi),%ecx
    1315:	8b 55 10             	mov    0x10(%ebp),%edx
    1318:	01 cb                	add    %ecx,%ebx
    131a:	52                   	push   %edx
    131b:	53                   	push   %ebx
    131c:	e8 3f e3 00 00       	call   f660 <pio_write_32@plt>
    1321:	83 c4 10             	add    $0x10,%esp
    1324:	eb d2                	jmp    12f8 <config_space_write_32+0x78>
    1326:	66 90                	xchg   %ax,%ax
    1328:	b8 f2 ff ff ff       	mov    $0xfffffff2,%eax
    132d:	eb d7                	jmp    1306 <config_space_write_32+0x86>
    132f:	90                   	nop

00001330 <config_space_read_16>:
    1330:	55                   	push   %ebp
    1331:	89 e5                	mov    %esp,%ebp
    1333:	57                   	push   %edi
    1334:	56                   	push   %esi
    1335:	53                   	push   %ebx
    1336:	83 ec 0c             	sub    $0xc,%esp
    1339:	81 7d 0c fe 00 00 00 	cmpl   $0xfe,0xc(%ebp)
    1340:	0f 87 a2 00 00 00    	ja     13e8 <config_space_read_16+0xb8>
    1346:	83 ec 0c             	sub    $0xc,%esp
    1349:	8b 7d 08             	mov    0x8(%ebp),%edi
    134c:	57                   	push   %edi
    134d:	e8 4e 38 00 00       	call   4ba0 <ddf_fun_data_get>
    1352:	8b 58 08             	mov    0x8(%eax),%ebx
    1355:	8b 50 0c             	mov    0xc(%eax),%edx
    1358:	c1 e2 0b             	shl    $0xb,%edx
    135b:	8b 30                	mov    (%eax),%esi
    135d:	c1 e3 10             	shl    $0x10,%ebx
    1360:	09 d3                	or     %edx,%ebx
    1362:	8b 55 0c             	mov    0xc(%ebp),%edx
    1365:	83 e2 fc             	and    $0xfffffffc,%edx
    1368:	8d 7e 20             	lea    0x20(%esi),%edi
    136b:	09 d3                	or     %edx,%ebx
    136d:	8b 50 10             	mov    0x10(%eax),%edx
    1370:	c1 e2 08             	shl    $0x8,%edx
    1373:	89 3c 24             	mov    %edi,(%esp)
    1376:	09 d3                	or     %edx,%ebx
    1378:	e8 03 e5 00 00       	call   f880 <fibril_mutex_lock@plt>
    137d:	8b 56 04             	mov    0x4(%esi),%edx
    1380:	83 c4 10             	add    $0x10,%esp
    1383:	85 d2                	test   %edx,%edx
    1385:	74 49                	je     13d0 <config_space_read_16+0xa0>
    1387:	81 cb 00 00 00 80    	or     $0x80000000,%ebx
    138d:	51                   	push   %ecx
    138e:	51                   	push   %ecx
    138f:	53                   	push   %ebx
    1390:	52                   	push   %edx
    1391:	e8 ca e2 00 00       	call   f660 <pio_write_32@plt>
    1396:	8b 76 08             	mov    0x8(%esi),%esi
    1399:	5b                   	pop    %ebx
    139a:	56                   	push   %esi
    139b:	e8 10 e1 00 00       	call   f4b0 <pio_read_32@plt>
    13a0:	83 c4 10             	add    $0x10,%esp
    13a3:	89 c3                	mov    %eax,%ebx
    13a5:	83 ec 0c             	sub    $0xc,%esp
    13a8:	57                   	push   %edi
    13a9:	e8 42 e2 00 00       	call   f5f0 <fibril_mutex_unlock@plt>
    13ae:	8b 75 0c             	mov    0xc(%ebp),%esi
    13b1:	8b 45 10             	mov    0x10(%ebp),%eax
    13b4:	83 e6 03             	and    $0x3,%esi
    13b7:	83 c4 10             	add    $0x10,%esp
    13ba:	8d 0c f5 00 00 00 00 	lea    0x0(,%esi,8),%ecx
    13c1:	d3 eb                	shr    %cl,%ebx
    13c3:	66 89 18             	mov    %bx,(%eax)
    13c6:	31 c0                	xor    %eax,%eax
    13c8:	8d 65 f4             	lea    -0xc(%ebp),%esp
    13cb:	5b                   	pop    %ebx
    13cc:	5e                   	pop    %esi
    13cd:	5f                   	pop    %edi
    13ce:	5d                   	pop    %ebp
    13cf:	c3                   	ret    
    13d0:	83 ec 0c             	sub    $0xc,%esp
    13d3:	8b 46 0c             	mov    0xc(%esi),%eax
    13d6:	01 c3                	add    %eax,%ebx
    13d8:	53                   	push   %ebx
    13d9:	e8 d2 e0 00 00       	call   f4b0 <pio_read_32@plt>
    13de:	83 c4 10             	add    $0x10,%esp
    13e1:	89 c3                	mov    %eax,%ebx
    13e3:	eb c0                	jmp    13a5 <config_space_read_16+0x75>
    13e5:	8d 76 00             	lea    0x0(%esi),%esi
    13e8:	b8 f2 ff ff ff       	mov    $0xfffffff2,%eax
    13ed:	eb d9                	jmp    13c8 <config_space_read_16+0x98>
    13ef:	90                   	nop

000013f0 <config_space_read_32>:
    13f0:	55                   	push   %ebp
    13f1:	89 e5                	mov    %esp,%ebp
    13f3:	57                   	push   %edi
    13f4:	56                   	push   %esi
    13f5:	53                   	push   %ebx
    13f6:	83 ec 0c             	sub    $0xc,%esp
    13f9:	81 7d 0c fc 00 00 00 	cmpl   $0xfc,0xc(%ebp)
    1400:	0f 87 92 00 00 00    	ja     1498 <config_space_read_32+0xa8>
    1406:	83 ec 0c             	sub    $0xc,%esp
    1409:	8b 75 08             	mov    0x8(%ebp),%esi
    140c:	56                   	push   %esi
    140d:	e8 8e 37 00 00       	call   4ba0 <ddf_fun_data_get>
    1412:	8b 58 08             	mov    0x8(%eax),%ebx
    1415:	8b 50 0c             	mov    0xc(%eax),%edx
    1418:	c1 e2 0b             	shl    $0xb,%edx
    141b:	8b 30                	mov    (%eax),%esi
    141d:	c1 e3 10             	shl    $0x10,%ebx
    1420:	09 d3                	or     %edx,%ebx
    1422:	8b 55 0c             	mov    0xc(%ebp),%edx
    1425:	83 e2 fc             	and    $0xfffffffc,%edx
    1428:	8d 7e 20             	lea    0x20(%esi),%edi
    142b:	09 d3                	or     %edx,%ebx
    142d:	8b 50 10             	mov    0x10(%eax),%edx
    1430:	c1 e2 08             	shl    $0x8,%edx
    1433:	89 3c 24             	mov    %edi,(%esp)
    1436:	09 d3                	or     %edx,%ebx
    1438:	e8 43 e4 00 00       	call   f880 <fibril_mutex_lock@plt>
    143d:	8b 46 04             	mov    0x4(%esi),%eax
    1440:	83 c4 10             	add    $0x10,%esp
    1443:	85 c0                	test   %eax,%eax
    1445:	74 39                	je     1480 <config_space_read_32+0x90>
    1447:	81 cb 00 00 00 80    	or     $0x80000000,%ebx
    144d:	52                   	push   %edx
    144e:	52                   	push   %edx
    144f:	53                   	push   %ebx
    1450:	50                   	push   %eax
    1451:	e8 0a e2 00 00       	call   f660 <pio_write_32@plt>
    1456:	8b 5e 08             	mov    0x8(%esi),%ebx
    1459:	59                   	pop    %ecx
    145a:	53                   	push   %ebx
    145b:	e8 50 e0 00 00       	call   f4b0 <pio_read_32@plt>
    1460:	83 c4 10             	add    $0x10,%esp
    1463:	89 c3                	mov    %eax,%ebx
    1465:	83 ec 0c             	sub    $0xc,%esp
    1468:	57                   	push   %edi
    1469:	e8 82 e1 00 00       	call   f5f0 <fibril_mutex_unlock@plt>
    146e:	8b 55 10             	mov    0x10(%ebp),%edx
    1471:	83 c4 10             	add    $0x10,%esp
    1474:	31 c0                	xor    %eax,%eax
    1476:	89 1a                	mov    %ebx,(%edx)
    1478:	8d 65 f4             	lea    -0xc(%ebp),%esp
    147b:	5b                   	pop    %ebx
    147c:	5e                   	pop    %esi
    147d:	5f                   	pop    %edi
    147e:	5d                   	pop    %ebp
    147f:	c3                   	ret    
    1480:	83 ec 0c             	sub    $0xc,%esp
    1483:	8b 46 0c             	mov    0xc(%esi),%eax
    1486:	01 c3                	add    %eax,%ebx
    1488:	53                   	push   %ebx
    1489:	e8 22 e0 00 00       	call   f4b0 <pio_read_32@plt>
    148e:	83 c4 10             	add    $0x10,%esp
    1491:	89 c3                	mov    %eax,%ebx
    1493:	eb d0                	jmp    1465 <config_space_read_32+0x75>
    1495:	8d 76 00             	lea    0x0(%esi),%esi
    1498:	b8 f2 ff ff ff       	mov    $0xfffffff2,%eax
    149d:	eb d9                	jmp    1478 <config_space_read_32+0x88>
    149f:	90                   	nop

000014a0 <config_space_write_16>:
    14a0:	55                   	push   %ebp
    14a1:	89 e5                	mov    %esp,%ebp
    14a3:	57                   	push   %edi
    14a4:	56                   	push   %esi
    14a5:	53                   	push   %ebx
    14a6:	83 ec 1c             	sub    $0x1c,%esp
    14a9:	8b 45 10             	mov    0x10(%ebp),%eax
    14ac:	89 45 e0             	mov    %eax,-0x20(%ebp)
    14af:	81 7d 0c fe 00 00 00 	cmpl   $0xfe,0xc(%ebp)
    14b6:	0f 87 04 01 00 00    	ja     15c0 <config_space_write_16+0x120>
    14bc:	83 ec 0c             	sub    $0xc,%esp
    14bf:	8b 75 08             	mov    0x8(%ebp),%esi
    14c2:	56                   	push   %esi
    14c3:	e8 d8 36 00 00       	call   4ba0 <ddf_fun_data_get>
    14c8:	8b 50 08             	mov    0x8(%eax),%edx
    14cb:	8b 48 0c             	mov    0xc(%eax),%ecx
    14ce:	c1 e1 0b             	shl    $0xb,%ecx
    14d1:	8b 30                	mov    (%eax),%esi
    14d3:	c1 e2 10             	shl    $0x10,%edx
    14d6:	09 ca                	or     %ecx,%edx
    14d8:	8b 4d 0c             	mov    0xc(%ebp),%ecx
    14db:	83 e1 fc             	and    $0xfffffffc,%ecx
    14de:	8d 7e 20             	lea    0x20(%esi),%edi
    14e1:	09 ca                	or     %ecx,%edx
    14e3:	8b 48 10             	mov    0x10(%eax),%ecx
    14e6:	c1 e1 08             	shl    $0x8,%ecx
    14e9:	89 3c 24             	mov    %edi,(%esp)
    14ec:	09 ca                	or     %ecx,%edx
    14ee:	89 d3                	mov    %edx,%ebx
    14f0:	89 55 e4             	mov    %edx,-0x1c(%ebp)
    14f3:	e8 88 e3 00 00       	call   f880 <fibril_mutex_lock@plt>
    14f8:	8b 46 04             	mov    0x4(%esi),%eax
    14fb:	83 c4 10             	add    $0x10,%esp
    14fe:	85 c0                	test   %eax,%eax
    1500:	0f 84 9a 00 00 00    	je     15a0 <config_space_write_16+0x100>
    1506:	52                   	push   %edx
    1507:	52                   	push   %edx
    1508:	89 da                	mov    %ebx,%edx
    150a:	81 ca 00 00 00 80    	or     $0x80000000,%edx
    1510:	52                   	push   %edx
    1511:	50                   	push   %eax
    1512:	e8 49 e1 00 00       	call   f660 <pio_write_32@plt>
    1517:	8b 5e 08             	mov    0x8(%esi),%ebx
    151a:	59                   	pop    %ecx
    151b:	53                   	push   %ebx
    151c:	e8 8f df 00 00       	call   f4b0 <pio_read_32@plt>
    1521:	83 c4 10             	add    $0x10,%esp
    1524:	8b 4d 0c             	mov    0xc(%ebp),%ecx
    1527:	ba ff ff 00 00       	mov    $0xffff,%edx
    152c:	83 e1 03             	and    $0x3,%ecx
    152f:	31 db                	xor    %ebx,%ebx
    1531:	c1 e1 03             	shl    $0x3,%ecx
    1534:	66 8b 5d e0          	mov    -0x20(%ebp),%bx
    1538:	d3 e2                	shl    %cl,%edx
    153a:	83 f2 ff             	xor    $0xffffffff,%edx
    153d:	21 d0                	and    %edx,%eax
    153f:	d3 e3                	shl    %cl,%ebx
    1541:	09 c3                	or     %eax,%ebx
    1543:	8b 46 04             	mov    0x4(%esi),%eax
    1546:	85 c0                	test   %eax,%eax
    1548:	74 3e                	je     1588 <config_space_write_16+0xe8>
    154a:	8b 55 e4             	mov    -0x1c(%ebp),%edx
    154d:	51                   	push   %ecx
    154e:	81 ca 00 00 00 80    	or     $0x80000000,%edx
    1554:	51                   	push   %ecx
    1555:	52                   	push   %edx
    1556:	50                   	push   %eax
    1557:	e8 04 e1 00 00       	call   f660 <pio_write_32@plt>
    155c:	8b 4e 08             	mov    0x8(%esi),%ecx
    155f:	58                   	pop    %eax
    1560:	5a                   	pop    %edx
    1561:	53                   	push   %ebx
    1562:	51                   	push   %ecx
    1563:	e8 f8 e0 00 00       	call   f660 <pio_write_32@plt>
    1568:	83 c4 10             	add    $0x10,%esp
    156b:	83 ec 0c             	sub    $0xc,%esp
    156e:	57                   	push   %edi
    156f:	e8 7c e0 00 00       	call   f5f0 <fibril_mutex_unlock@plt>
    1574:	83 c4 10             	add    $0x10,%esp
    1577:	31 c0                	xor    %eax,%eax
    1579:	8d 65 f4             	lea    -0xc(%ebp),%esp
    157c:	5b                   	pop    %ebx
    157d:	5e                   	pop    %esi
    157e:	5f                   	pop    %edi
    157f:	5d                   	pop    %ebp
    1580:	c3                   	ret    
    1581:	8d b4 26 00 00 00 00 	lea    0x0(%esi,%eiz,1),%esi
    1588:	50                   	push   %eax
    1589:	50                   	push   %eax
    158a:	8b 56 0c             	mov    0xc(%esi),%edx
    158d:	8b 45 e4             	mov    -0x1c(%ebp),%eax
    1590:	01 d0                	add    %edx,%eax
    1592:	53                   	push   %ebx
    1593:	50                   	push   %eax
    1594:	e8 c7 e0 00 00       	call   f660 <pio_write_32@plt>
    1599:	83 c4 10             	add    $0x10,%esp
    159c:	eb cd                	jmp    156b <config_space_write_16+0xcb>
    159e:	66 90                	xchg   %ax,%ax
    15a0:	83 ec 0c             	sub    $0xc,%esp
    15a3:	8b 5e 0c             	mov    0xc(%esi),%ebx
    15a6:	8b 45 e4             	mov    -0x1c(%ebp),%eax
    15a9:	01 d8                	add    %ebx,%eax
    15ab:	50                   	push   %eax
    15ac:	e8 ff de 00 00       	call   f4b0 <pio_read_32@plt>
    15b1:	83 c4 10             	add    $0x10,%esp
    15b4:	e9 6b ff ff ff       	jmp    1524 <config_space_write_16+0x84>
    15b9:	8d b4 26 00 00 00 00 	lea    0x0(%esi,%eiz,1),%esi
    15c0:	b8 f2 ff ff ff       	mov    $0xfffffff2,%eax
    15c5:	eb b2                	jmp    1579 <config_space_write_16+0xd9>
    15c7:	89 f6                	mov    %esi,%esi
    15c9:	8d bc 27 00 00 00 00 	lea    0x0(%edi,%eiz,1),%edi

000015d0 <config_space_write_8>:
    15d0:	55                   	push   %ebp
    15d1:	89 e5                	mov    %esp,%ebp
    15d3:	57                   	push   %edi
    15d4:	56                   	push   %esi
    15d5:	53                   	push   %ebx
    15d6:	83 ec 1c             	sub    $0x1c,%esp
    15d9:	8b 45 10             	mov    0x10(%ebp),%eax
    15dc:	89 45 e0             	mov    %eax,-0x20(%ebp)
    15df:	81 7d 0c ff 00 00 00 	cmpl   $0xff,0xc(%ebp)
    15e6:	0f 87 fc 00 00 00    	ja     16e8 <config_space_write_8+0x118>
    15ec:	83 ec 0c             	sub    $0xc,%esp
    15ef:	8b 75 08             	mov    0x8(%ebp),%esi
    15f2:	56                   	push   %esi
    15f3:	e8 a8 35 00 00       	call   4ba0 <ddf_fun_data_get>
    15f8:	8b 50 08             	mov    0x8(%eax),%edx
    15fb:	8b 48 0c             	mov    0xc(%eax),%ecx
    15fe:	c1 e1 0b             	shl    $0xb,%ecx
    1601:	8b 30                	mov    (%eax),%esi
    1603:	c1 e2 10             	shl    $0x10,%edx
    1606:	09 ca                	or     %ecx,%edx
    1608:	8b 4d 0c             	mov    0xc(%ebp),%ecx
    160b:	83 e1 fc             	and    $0xfffffffc,%ecx
    160e:	8d 7e 20             	lea    0x20(%esi),%edi
    1611:	09 ca                	or     %ecx,%edx
    1613:	8b 48 10             	mov    0x10(%eax),%ecx
    1616:	c1 e1 08             	shl    $0x8,%ecx
    1619:	89 3c 24             	mov    %edi,(%esp)
    161c:	09 ca                	or     %ecx,%edx
    161e:	89 d3                	mov    %edx,%ebx
    1620:	89 55 e4             	mov    %edx,-0x1c(%ebp)
    1623:	e8 58 e2 00 00       	call   f880 <fibril_mutex_lock@plt>
    1628:	8b 46 04             	mov    0x4(%esi),%eax
    162b:	83 c4 10             	add    $0x10,%esp
    162e:	85 c0                	test   %eax,%eax
    1630:	0f 84 92 00 00 00    	je     16c8 <config_space_write_8+0xf8>
    1636:	52                   	push   %edx
    1637:	52                   	push   %edx
    1638:	89 da                	mov    %ebx,%edx
    163a:	81 ca 00 00 00 80    	or     $0x80000000,%edx
    1640:	52                   	push   %edx
    1641:	50                   	push   %eax
    1642:	e8 19 e0 00 00       	call   f660 <pio_write_32@plt>
    1647:	8b 5e 08             	mov    0x8(%esi),%ebx
    164a:	59                   	pop    %ecx
    164b:	53                   	push   %ebx
    164c:	e8 5f de 00 00       	call   f4b0 <pio_read_32@plt>
    1651:	83 c4 10             	add    $0x10,%esp
    1654:	8b 4d 0c             	mov    0xc(%ebp),%ecx
    1657:	ba ff 00 00 00       	mov    $0xff,%edx
    165c:	83 e1 03             	and    $0x3,%ecx
    165f:	31 db                	xor    %ebx,%ebx
    1661:	c1 e1 03             	shl    $0x3,%ecx
    1664:	8a 5d e0             	mov    -0x20(%ebp),%bl
    1667:	d3 e2                	shl    %cl,%edx
    1669:	83 f2 ff             	xor    $0xffffffff,%edx
    166c:	21 d0                	and    %edx,%eax
    166e:	d3 e3                	shl    %cl,%ebx
    1670:	09 c3                	or     %eax,%ebx
    1672:	8b 46 04             	mov    0x4(%esi),%eax
    1675:	85 c0                	test   %eax,%eax
    1677:	74 37                	je     16b0 <config_space_write_8+0xe0>
    1679:	8b 55 e4             	mov    -0x1c(%ebp),%edx
    167c:	51                   	push   %ecx
    167d:	81 ca 00 00 00 80    	or     $0x80000000,%edx
    1683:	51                   	push   %ecx
    1684:	52                   	push   %edx
    1685:	50                   	push   %eax
    1686:	e8 d5 df 00 00       	call   f660 <pio_write_32@plt>
    168b:	8b 4e 08             	mov    0x8(%esi),%ecx
    168e:	58                   	pop    %eax
    168f:	5a                   	pop    %edx
    1690:	53                   	push   %ebx
    1691:	51                   	push   %ecx
    1692:	e8 c9 df 00 00       	call   f660 <pio_write_32@plt>
    1697:	83 c4 10             	add    $0x10,%esp
    169a:	83 ec 0c             	sub    $0xc,%esp
    169d:	57                   	push   %edi
    169e:	e8 4d df 00 00       	call   f5f0 <fibril_mutex_unlock@plt>
    16a3:	83 c4 10             	add    $0x10,%esp
    16a6:	31 c0                	xor    %eax,%eax
    16a8:	8d 65 f4             	lea    -0xc(%ebp),%esp
    16ab:	5b                   	pop    %ebx
    16ac:	5e                   	pop    %esi
    16ad:	5f                   	pop    %edi
    16ae:	5d                   	pop    %ebp
    16af:	c3                   	ret    
    16b0:	50                   	push   %eax
    16b1:	50                   	push   %eax
    16b2:	8b 56 0c             	mov    0xc(%esi),%edx
    16b5:	8b 45 e4             	mov    -0x1c(%ebp),%eax
    16b8:	01 d0                	add    %edx,%eax
    16ba:	53                   	push   %ebx
    16bb:	50                   	push   %eax
    16bc:	e8 9f df 00 00       	call   f660 <pio_write_32@plt>
    16c1:	83 c4 10             	add    $0x10,%esp
    16c4:	eb d4                	jmp    169a <config_space_write_8+0xca>
    16c6:	66 90                	xchg   %ax,%ax
    16c8:	83 ec 0c             	sub    $0xc,%esp
    16cb:	8b 5e 0c             	mov    0xc(%esi),%ebx
    16ce:	8b 45 e4             	mov    -0x1c(%ebp),%eax
    16d1:	01 d8                	add    %ebx,%eax
    16d3:	50                   	push   %eax
    16d4:	e8 d7 dd 00 00       	call   f4b0 <pio_read_32@plt>
    16d9:	83 c4 10             	add    $0x10,%esp
    16dc:	e9 73 ff ff ff       	jmp    1654 <config_space_write_8+0x84>
    16e1:	8d b4 26 00 00 00 00 	lea    0x0(%esi,%eiz,1),%esi
    16e8:	b8 f2 ff ff ff       	mov    $0xfffffff2,%eax
    16ed:	eb b9                	jmp    16a8 <config_space_write_8+0xd8>
    16ef:	90                   	nop

000016f0 <config_space_read_8>:
    16f0:	55                   	push   %ebp
    16f1:	89 e5                	mov    %esp,%ebp
    16f3:	57                   	push   %edi
    16f4:	56                   	push   %esi
    16f5:	53                   	push   %ebx
    16f6:	83 ec 0c             	sub    $0xc,%esp
    16f9:	81 7d 0c ff 00 00 00 	cmpl   $0xff,0xc(%ebp)
    1700:	0f 87 a2 00 00 00    	ja     17a8 <config_space_read_8+0xb8>
    1706:	83 ec 0c             	sub    $0xc,%esp
    1709:	8b 7d 08             	mov    0x8(%ebp),%edi
    170c:	57                   	push   %edi
    170d:	e8 8e 34 00 00       	call   4ba0 <ddf_fun_data_get>
    1712:	8b 58 08             	mov    0x8(%eax),%ebx
    1715:	8b 50 0c             	mov    0xc(%eax),%edx
    1718:	c1 e2 0b             	shl    $0xb,%edx
    171b:	8b 30                	mov    (%eax),%esi
    171d:	c1 e3 10             	shl    $0x10,%ebx
    1720:	09 d3                	or     %edx,%ebx
    1722:	8b 55 0c             	mov    0xc(%ebp),%edx
    1725:	83 e2 fc             	and    $0xfffffffc,%edx
    1728:	8d 7e 20             	lea    0x20(%esi),%edi
    172b:	09 d3                	or     %edx,%ebx
    172d:	8b 50 10             	mov    0x10(%eax),%edx
    1730:	c1 e2 08             	shl    $0x8,%edx
    1733:	89 3c 24             	mov    %edi,(%esp)
    1736:	09 d3                	or     %edx,%ebx
    1738:	e8 43 e1 00 00       	call   f880 <fibril_mutex_lock@plt>
    173d:	8b 56 04             	mov    0x4(%esi),%edx
    1740:	83 c4 10             	add    $0x10,%esp
    1743:	85 d2                	test   %edx,%edx
    1745:	74 49                	je     1790 <config_space_read_8+0xa0>
    1747:	81 cb 00 00 00 80    	or     $0x80000000,%ebx
    174d:	51                   	push   %ecx
    174e:	51                   	push   %ecx
    174f:	53                   	push   %ebx
    1750:	52                   	push   %edx
    1751:	e8 0a df 00 00       	call   f660 <pio_write_32@plt>
    1756:	8b 76 08             	mov    0x8(%esi),%esi
    1759:	5b                   	pop    %ebx
    175a:	56                   	push   %esi
    175b:	e8 50 dd 00 00       	call   f4b0 <pio_read_32@plt>
    1760:	83 c4 10             	add    $0x10,%esp
    1763:	89 c3                	mov    %eax,%ebx
    1765:	83 ec 0c             	sub    $0xc,%esp
    1768:	57                   	push   %edi
    1769:	e8 82 de 00 00       	call   f5f0 <fibril_mutex_unlock@plt>
    176e:	8b 75 0c             	mov    0xc(%ebp),%esi
    1771:	8b 45 10             	mov    0x10(%ebp),%eax
    1774:	83 e6 03             	and    $0x3,%esi
    1777:	83 c4 10             	add    $0x10,%esp
    177a:	8d 0c f5 00 00 00 00 	lea    0x0(,%esi,8),%ecx
    1781:	d3 eb                	shr    %cl,%ebx
    1783:	88 18                	mov    %bl,(%eax)
    1785:	31 c0                	xor    %eax,%eax
    1787:	8d 65 f4             	lea    -0xc(%ebp),%esp
    178a:	5b                   	pop    %ebx
    178b:	5e                   	pop    %esi
    178c:	5f                   	pop    %edi
    178d:	5d                   	pop    %ebp
    178e:	c3                   	ret    
    178f:	90                   	nop
    1790:	83 ec 0c             	sub    $0xc,%esp
    1793:	8b 46 0c             	mov    0xc(%esi),%eax
    1796:	01 c3                	add    %eax,%ebx
    1798:	53                   	push   %ebx
    1799:	e8 12 dd 00 00       	call   f4b0 <pio_read_32@plt>
    179e:	83 c4 10             	add    $0x10,%esp
    17a1:	89 c3                	mov    %eax,%ebx
    17a3:	eb c0                	jmp    1765 <config_space_read_8+0x75>
    17a5:	8d 76 00             	lea    0x0(%esi),%esi
    17a8:	b8 f2 ff ff ff       	mov    $0xfffffff2,%eax
    17ad:	eb d8                	jmp    1787 <config_space_read_8+0x97>
    17af:	90                   	nop

000017b0 <pci_conf_read_8>:
    17b0:	55                   	push   %ebp
    17b1:	89 e5                	mov    %esp,%ebp
    17b3:	57                   	push   %edi
    17b4:	56                   	push   %esi
    17b5:	53                   	push   %ebx
    17b6:	83 ec 28             	sub    $0x28,%esp
    17b9:	8b 55 08             	mov    0x8(%ebp),%edx
    17bc:	8b 42 08             	mov    0x8(%edx),%eax
    17bf:	8b 4a 0c             	mov    0xc(%edx),%ecx
    17c2:	c1 e1 0b             	shl    $0xb,%ecx
    17c5:	8b 3a                	mov    (%edx),%edi
    17c7:	c1 e0 10             	shl    $0x10,%eax
    17ca:	8b 5a 10             	mov    0x10(%edx),%ebx
    17cd:	09 c8                	or     %ecx,%eax
    17cf:	8b 4d 0c             	mov    0xc(%ebp),%ecx
    17d2:	83 e1 fc             	and    $0xfffffffc,%ecx
    17d5:	8d 77 20             	lea    0x20(%edi),%esi
    17d8:	09 c8                	or     %ecx,%eax
    17da:	56                   	push   %esi
    17db:	c1 e3 08             	shl    $0x8,%ebx
    17de:	09 c3                	or     %eax,%ebx
    17e0:	e8 9b e0 00 00       	call   f880 <fibril_mutex_lock@plt>
    17e5:	8b 57 04             	mov    0x4(%edi),%edx
    17e8:	83 c4 10             	add    $0x10,%esp
    17eb:	85 d2                	test   %edx,%edx
    17ed:	74 41                	je     1830 <pci_conf_read_8+0x80>
    17ef:	50                   	push   %eax
    17f0:	50                   	push   %eax
    17f1:	89 d8                	mov    %ebx,%eax
    17f3:	0d 00 00 00 80       	or     $0x80000000,%eax
    17f8:	50                   	push   %eax
    17f9:	52                   	push   %edx
    17fa:	e8 61 de 00 00       	call   f660 <pio_write_32@plt>
    17ff:	8b 4f 08             	mov    0x8(%edi),%ecx
    1802:	5a                   	pop    %edx
    1803:	51                   	push   %ecx
    1804:	e8 a7 dc 00 00       	call   f4b0 <pio_read_32@plt>
    1809:	83 c4 10             	add    $0x10,%esp
    180c:	83 ec 0c             	sub    $0xc,%esp
    180f:	89 45 e4             	mov    %eax,-0x1c(%ebp)
    1812:	56                   	push   %esi
    1813:	e8 d8 dd 00 00       	call   f5f0 <fibril_mutex_unlock@plt>
    1818:	8b 4d 0c             	mov    0xc(%ebp),%ecx
    181b:	8b 45 e4             	mov    -0x1c(%ebp),%eax
    181e:	83 e1 03             	and    $0x3,%ecx
    1821:	8d 65 f4             	lea    -0xc(%ebp),%esp
    1824:	c1 e1 03             	shl    $0x3,%ecx
    1827:	5b                   	pop    %ebx
    1828:	5e                   	pop    %esi
    1829:	d3 e8                	shr    %cl,%eax
    182b:	5f                   	pop    %edi
    182c:	5d                   	pop    %ebp
    182d:	c3                   	ret    
    182e:	66 90                	xchg   %ax,%ax
    1830:	83 ec 0c             	sub    $0xc,%esp
    1833:	8b 47 0c             	mov    0xc(%edi),%eax
    1836:	01 d8                	add    %ebx,%eax
    1838:	50                   	push   %eax
    1839:	e8 72 dc 00 00       	call   f4b0 <pio_read_32@plt>
    183e:	83 c4 10             	add    $0x10,%esp
    1841:	eb c9                	jmp    180c <pci_conf_read_8+0x5c>
    1843:	8d b6 00 00 00 00    	lea    0x0(%esi),%esi
    1849:	8d bc 27 00 00 00 00 	lea    0x0(%edi,%eiz,1),%edi

00001850 <pci_conf_read_16>:
    1850:	55                   	push   %ebp
    1851:	89 e5                	mov    %esp,%ebp
    1853:	57                   	push   %edi
    1854:	56                   	push   %esi
    1855:	53                   	push   %ebx
    1856:	83 ec 28             	sub    $0x28,%esp
    1859:	8b 55 08             	mov    0x8(%ebp),%edx
    185c:	8b 42 08             	mov    0x8(%edx),%eax
    185f:	8b 4a 0c             	mov    0xc(%edx),%ecx
    1862:	c1 e1 0b             	shl    $0xb,%ecx
    1865:	8b 3a                	mov    (%edx),%edi
    1867:	c1 e0 10             	shl    $0x10,%eax
    186a:	8b 5a 10             	mov    0x10(%edx),%ebx
    186d:	09 c8                	or     %ecx,%eax
    186f:	8b 4d 0c             	mov    0xc(%ebp),%ecx
    1872:	83 e1 fc             	and    $0xfffffffc,%ecx
    1875:	8d 77 20             	lea    0x20(%edi),%esi
    1878:	09 c8                	or     %ecx,%eax
    187a:	56                   	push   %esi
    187b:	c1 e3 08             	shl    $0x8,%ebx
    187e:	09 c3                	or     %eax,%ebx
    1880:	e8 fb df 00 00       	call   f880 <fibril_mutex_lock@plt>
    1885:	8b 57 04             	mov    0x4(%edi),%edx
    1888:	83 c4 10             	add    $0x10,%esp
    188b:	85 d2                	test   %edx,%edx
    188d:	74 41                	je     18d0 <pci_conf_read_16+0x80>
    188f:	50                   	push   %eax
    1890:	50                   	push   %eax
    1891:	89 d8                	mov    %ebx,%eax
    1893:	0d 00 00 00 80       	or     $0x80000000,%eax
    1898:	50                   	push   %eax
    1899:	52                   	push   %edx
    189a:	e8 c1 dd 00 00       	call   f660 <pio_write_32@plt>
    189f:	8b 4f 08             	mov    0x8(%edi),%ecx
    18a2:	5a                   	pop    %edx
    18a3:	51                   	push   %ecx
    18a4:	e8 07 dc 00 00       	call   f4b0 <pio_read_32@plt>
    18a9:	83 c4 10             	add    $0x10,%esp
    18ac:	83 ec 0c             	sub    $0xc,%esp
    18af:	89 45 e4             	mov    %eax,-0x1c(%ebp)
    18b2:	56                   	push   %esi
    18b3:	e8 38 dd 00 00       	call   f5f0 <fibril_mutex_unlock@plt>
    18b8:	8b 4d 0c             	mov    0xc(%ebp),%ecx
    18bb:	8b 45 e4             	mov    -0x1c(%ebp),%eax
    18be:	83 e1 03             	and    $0x3,%ecx
    18c1:	8d 65 f4             	lea    -0xc(%ebp),%esp
    18c4:	c1 e1 03             	shl    $0x3,%ecx
    18c7:	5b                   	pop    %ebx
    18c8:	5e                   	pop    %esi
    18c9:	d3 e8                	shr    %cl,%eax
    18cb:	5f                   	pop    %edi
    18cc:	5d                   	pop    %ebp
    18cd:	c3                   	ret    
    18ce:	66 90                	xchg   %ax,%ax
    18d0:	83 ec 0c             	sub    $0xc,%esp
    18d3:	8b 47 0c             	mov    0xc(%edi),%eax
    18d6:	01 d8                	add    %ebx,%eax
    18d8:	50                   	push   %eax
    18d9:	e8 d2 db 00 00       	call   f4b0 <pio_read_32@plt>
    18de:	83 c4 10             	add    $0x10,%esp
    18e1:	eb c9                	jmp    18ac <pci_conf_read_16+0x5c>
    18e3:	8d b6 00 00 00 00    	lea    0x0(%esi),%esi
    18e9:	8d bc 27 00 00 00 00 	lea    0x0(%edi,%eiz,1),%edi

000018f0 <pci_conf_read_32>:
    18f0:	55                   	push   %ebp
    18f1:	89 e5                	mov    %esp,%ebp
    18f3:	57                   	push   %edi
    18f4:	56                   	push   %esi
    18f5:	53                   	push   %ebx
    18f6:	83 ec 28             	sub    $0x28,%esp
    18f9:	8b 55 08             	mov    0x8(%ebp),%edx
    18fc:	8b 42 08             	mov    0x8(%edx),%eax
    18ff:	8b 4a 0c             	mov    0xc(%edx),%ecx
    1902:	c1 e1 0b             	shl    $0xb,%ecx
    1905:	8b 32                	mov    (%edx),%esi
    1907:	c1 e0 10             	shl    $0x10,%eax
    190a:	8b 5a 10             	mov    0x10(%edx),%ebx
    190d:	09 c8                	or     %ecx,%eax
    190f:	8b 4d 0c             	mov    0xc(%ebp),%ecx
    1912:	83 e1 fc             	and    $0xfffffffc,%ecx
    1915:	8d 7e 20             	lea    0x20(%esi),%edi
    1918:	09 c8                	or     %ecx,%eax
    191a:	57                   	push   %edi
    191b:	c1 e3 08             	shl    $0x8,%ebx
    191e:	09 c3                	or     %eax,%ebx
    1920:	e8 5b df 00 00       	call   f880 <fibril_mutex_lock@plt>
    1925:	8b 56 04             	mov    0x4(%esi),%edx
    1928:	83 c4 10             	add    $0x10,%esp
    192b:	85 d2                	test   %edx,%edx
    192d:	74 39                	je     1968 <pci_conf_read_32+0x78>
    192f:	50                   	push   %eax
    1930:	50                   	push   %eax
    1931:	89 d8                	mov    %ebx,%eax
    1933:	0d 00 00 00 80       	or     $0x80000000,%eax
    1938:	50                   	push   %eax
    1939:	52                   	push   %edx
    193a:	e8 21 dd 00 00       	call   f660 <pio_write_32@plt>
    193f:	8b 4e 08             	mov    0x8(%esi),%ecx
    1942:	5a                   	pop    %edx
    1943:	51                   	push   %ecx
    1944:	e8 67 db 00 00       	call   f4b0 <pio_read_32@plt>
    1949:	83 c4 10             	add    $0x10,%esp
    194c:	83 ec 0c             	sub    $0xc,%esp
    194f:	89 45 e4             	mov    %eax,-0x1c(%ebp)
    1952:	57                   	push   %edi
    1953:	e8 98 dc 00 00       	call   f5f0 <fibril_mutex_unlock@plt>
    1958:	8b 45 e4             	mov    -0x1c(%ebp),%eax
    195b:	8d 65 f4             	lea    -0xc(%ebp),%esp
    195e:	5b                   	pop    %ebx
    195f:	5e                   	pop    %esi
    1960:	5f                   	pop    %edi
    1961:	5d                   	pop    %ebp
    1962:	c3                   	ret    
    1963:	90                   	nop
    1964:	8d 74 26 00          	lea    0x0(%esi,%eiz,1),%esi
    1968:	83 ec 0c             	sub    $0xc,%esp
    196b:	8b 46 0c             	mov    0xc(%esi),%eax
    196e:	01 d8                	add    %ebx,%eax
    1970:	50                   	push   %eax
    1971:	e8 3a db 00 00       	call   f4b0 <pio_read_32@plt>
    1976:	83 c4 10             	add    $0x10,%esp
    1979:	eb d1                	jmp    194c <pci_conf_read_32+0x5c>
    197b:	90                   	nop
    197c:	8d 74 26 00          	lea    0x0(%esi,%eiz,1),%esi

00001980 <pci_conf_write_8>:
    1980:	55                   	push   %ebp
    1981:	89 e5                	mov    %esp,%ebp
    1983:	57                   	push   %edi
    1984:	56                   	push   %esi
    1985:	53                   	push   %ebx
    1986:	83 ec 28             	sub    $0x28,%esp
    1989:	8b 55 08             	mov    0x8(%ebp),%edx
    198c:	8b 45 10             	mov    0x10(%ebp),%eax
    198f:	89 45 e0             	mov    %eax,-0x20(%ebp)
    1992:	8b 5d 0c             	mov    0xc(%ebp),%ebx
    1995:	8b 42 08             	mov    0x8(%edx),%eax
    1998:	8b 4a 0c             	mov    0xc(%edx),%ecx
    199b:	c1 e1 0b             	shl    $0xb,%ecx
    199e:	8b 32                	mov    (%edx),%esi
    19a0:	c1 e0 10             	shl    $0x10,%eax
    19a3:	09 c8                	or     %ecx,%eax
    19a5:	89 d9                	mov    %ebx,%ecx
    19a7:	83 e1 fc             	and    $0xfffffffc,%ecx
    19aa:	8d 7e 20             	lea    0x20(%esi),%edi
    19ad:	09 c8                	or     %ecx,%eax
    19af:	8b 4a 10             	mov    0x10(%edx),%ecx
    19b2:	c1 e1 08             	shl    $0x8,%ecx
    19b5:	57                   	push   %edi
    19b6:	09 c8                	or     %ecx,%eax
    19b8:	89 45 e4             	mov    %eax,-0x1c(%ebp)
    19bb:	e8 c0 de 00 00       	call   f880 <fibril_mutex_lock@plt>
    19c0:	8b 46 04             	mov    0x4(%esi),%eax
    19c3:	83 c4 10             	add    $0x10,%esp
    19c6:	85 c0                	test   %eax,%eax
    19c8:	0f 84 a2 00 00 00    	je     1a70 <pci_conf_write_8+0xf0>
    19ce:	8b 55 e4             	mov    -0x1c(%ebp),%edx
    19d1:	51                   	push   %ecx
    19d2:	81 ca 00 00 00 80    	or     $0x80000000,%edx
    19d8:	51                   	push   %ecx
    19d9:	52                   	push   %edx
    19da:	50                   	push   %eax
    19db:	e8 80 dc 00 00       	call   f660 <pio_write_32@plt>
    19e0:	58                   	pop    %eax
    19e1:	8b 46 08             	mov    0x8(%esi),%eax
    19e4:	50                   	push   %eax
    19e5:	e8 c6 da 00 00       	call   f4b0 <pio_read_32@plt>
    19ea:	83 c4 10             	add    $0x10,%esp
    19ed:	83 e3 03             	and    $0x3,%ebx
    19f0:	ba ff 00 00 00       	mov    $0xff,%edx
    19f5:	8d 0c dd 00 00 00 00 	lea    0x0(,%ebx,8),%ecx
    19fc:	d3 e2                	shl    %cl,%edx
    19fe:	89 d3                	mov    %edx,%ebx
    1a00:	83 f3 ff             	xor    $0xffffffff,%ebx
    1a03:	21 d8                	and    %ebx,%eax
    1a05:	31 db                	xor    %ebx,%ebx
    1a07:	8a 5d e0             	mov    -0x20(%ebp),%bl
    1a0a:	d3 e3                	shl    %cl,%ebx
    1a0c:	09 c3                	or     %eax,%ebx
    1a0e:	8b 46 04             	mov    0x4(%esi),%eax
    1a11:	85 c0                	test   %eax,%eax
    1a13:	74 33                	je     1a48 <pci_conf_write_8+0xc8>
    1a15:	8b 55 e4             	mov    -0x1c(%ebp),%edx
    1a18:	51                   	push   %ecx
    1a19:	81 ca 00 00 00 80    	or     $0x80000000,%edx
    1a1f:	51                   	push   %ecx
    1a20:	52                   	push   %edx
    1a21:	50                   	push   %eax
    1a22:	e8 39 dc 00 00       	call   f660 <pio_write_32@plt>
    1a27:	58                   	pop    %eax
    1a28:	5a                   	pop    %edx
    1a29:	53                   	push   %ebx
    1a2a:	8b 4e 08             	mov    0x8(%esi),%ecx
    1a2d:	51                   	push   %ecx
    1a2e:	e8 2d dc 00 00       	call   f660 <pio_write_32@plt>
    1a33:	89 7d 08             	mov    %edi,0x8(%ebp)
    1a36:	83 c4 10             	add    $0x10,%esp
    1a39:	8d 65 f4             	lea    -0xc(%ebp),%esp
    1a3c:	5b                   	pop    %ebx
    1a3d:	5e                   	pop    %esi
    1a3e:	5f                   	pop    %edi
    1a3f:	5d                   	pop    %ebp
    1a40:	e9 ab db 00 00       	jmp    f5f0 <fibril_mutex_unlock@plt>
    1a45:	8d 76 00             	lea    0x0(%esi),%esi
    1a48:	50                   	push   %eax
    1a49:	50                   	push   %eax
    1a4a:	53                   	push   %ebx
    1a4b:	8b 45 e4             	mov    -0x1c(%ebp),%eax
    1a4e:	8b 56 0c             	mov    0xc(%esi),%edx
    1a51:	01 d0                	add    %edx,%eax
    1a53:	50                   	push   %eax
    1a54:	e8 07 dc 00 00       	call   f660 <pio_write_32@plt>
    1a59:	89 7d 08             	mov    %edi,0x8(%ebp)
    1a5c:	83 c4 10             	add    $0x10,%esp
    1a5f:	8d 65 f4             	lea    -0xc(%ebp),%esp
    1a62:	5b                   	pop    %ebx
    1a63:	5e                   	pop    %esi
    1a64:	5f                   	pop    %edi
    1a65:	5d                   	pop    %ebp
    1a66:	e9 85 db 00 00       	jmp    f5f0 <fibril_mutex_unlock@plt>
    1a6b:	90                   	nop
    1a6c:	8d 74 26 00          	lea    0x0(%esi,%eiz,1),%esi
    1a70:	83 ec 0c             	sub    $0xc,%esp
    1a73:	8b 56 0c             	mov    0xc(%esi),%edx
    1a76:	8b 45 e4             	mov    -0x1c(%ebp),%eax
    1a79:	01 d0                	add    %edx,%eax
    1a7b:	50                   	push   %eax
    1a7c:	e8 2f da 00 00       	call   f4b0 <pio_read_32@plt>
    1a81:	83 c4 10             	add    $0x10,%esp
    1a84:	e9 64 ff ff ff       	jmp    19ed <pci_conf_write_8+0x6d>
    1a89:	8d b4 26 00 00 00 00 	lea    0x0(%esi,%eiz,1),%esi

00001a90 <pci_conf_write_16>:
    1a90:	55                   	push   %ebp
    1a91:	89 e5                	mov    %esp,%ebp
    1a93:	57                   	push   %edi
    1a94:	56                   	push   %esi
    1a95:	53                   	push   %ebx
    1a96:	83 ec 28             	sub    $0x28,%esp
    1a99:	8b 55 08             	mov    0x8(%ebp),%edx
    1a9c:	8b 45 10             	mov    0x10(%ebp),%eax
    1a9f:	89 45 dc             	mov    %eax,-0x24(%ebp)
    1aa2:	8b 5d 0c             	mov    0xc(%ebp),%ebx
    1aa5:	8b 42 08             	mov    0x8(%edx),%eax
    1aa8:	8b 4a 0c             	mov    0xc(%edx),%ecx
    1aab:	c1 e1 0b             	shl    $0xb,%ecx
    1aae:	8b 3a                	mov    (%edx),%edi
    1ab0:	c1 e0 10             	shl    $0x10,%eax
    1ab3:	09 c8                	or     %ecx,%eax
    1ab5:	89 d9                	mov    %ebx,%ecx
    1ab7:	83 e1 fc             	and    $0xfffffffc,%ecx
    1aba:	09 c8                	or     %ecx,%eax
    1abc:	8b 4a 10             	mov    0x10(%edx),%ecx
    1abf:	c1 e1 08             	shl    $0x8,%ecx
    1ac2:	09 c8                	or     %ecx,%eax
    1ac4:	89 45 e4             	mov    %eax,-0x1c(%ebp)
    1ac7:	89 c6                	mov    %eax,%esi
    1ac9:	8d 47 20             	lea    0x20(%edi),%eax
    1acc:	50                   	push   %eax
    1acd:	89 45 e0             	mov    %eax,-0x20(%ebp)
    1ad0:	e8 ab dd 00 00       	call   f880 <fibril_mutex_lock@plt>
    1ad5:	8b 47 04             	mov    0x4(%edi),%eax
    1ad8:	83 c4 10             	add    $0x10,%esp
    1adb:	85 c0                	test   %eax,%eax
    1add:	0f 84 95 00 00 00    	je     1b78 <pci_conf_write_16+0xe8>
    1ae3:	89 f2                	mov    %esi,%edx
    1ae5:	51                   	push   %ecx
    1ae6:	81 ca 00 00 00 80    	or     $0x80000000,%edx
    1aec:	51                   	push   %ecx
    1aed:	52                   	push   %edx
    1aee:	50                   	push   %eax
    1aef:	e8 6c db 00 00       	call   f660 <pio_write_32@plt>
    1af4:	8b 47 08             	mov    0x8(%edi),%eax
    1af7:	5e                   	pop    %esi
    1af8:	50                   	push   %eax
    1af9:	e8 b2 d9 00 00       	call   f4b0 <pio_read_32@plt>
    1afe:	83 c4 10             	add    $0x10,%esp
    1b01:	83 e3 03             	and    $0x3,%ebx
    1b04:	ba ff ff 00 00       	mov    $0xffff,%edx
    1b09:	31 f6                	xor    %esi,%esi
    1b0b:	8d 0c dd 00 00 00 00 	lea    0x0(,%ebx,8),%ecx
    1b12:	66 8b 75 dc          	mov    -0x24(%ebp),%si
    1b16:	d3 e2                	shl    %cl,%edx
    1b18:	83 f2 ff             	xor    $0xffffffff,%edx
    1b1b:	21 d0                	and    %edx,%eax
    1b1d:	d3 e6                	shl    %cl,%esi
    1b1f:	09 c6                	or     %eax,%esi
    1b21:	8b 47 04             	mov    0x4(%edi),%eax
    1b24:	85 c0                	test   %eax,%eax
    1b26:	74 38                	je     1b60 <pci_conf_write_16+0xd0>
    1b28:	8b 55 e4             	mov    -0x1c(%ebp),%edx
    1b2b:	51                   	push   %ecx
    1b2c:	81 ca 00 00 00 80    	or     $0x80000000,%edx
    1b32:	51                   	push   %ecx
    1b33:	52                   	push   %edx
    1b34:	50                   	push   %eax
    1b35:	e8 26 db 00 00       	call   f660 <pio_write_32@plt>
    1b3a:	5b                   	pop    %ebx
    1b3b:	58                   	pop    %eax
    1b3c:	56                   	push   %esi
    1b3d:	8b 47 08             	mov    0x8(%edi),%eax
    1b40:	50                   	push   %eax
    1b41:	e8 1a db 00 00       	call   f660 <pio_write_32@plt>
    1b46:	83 c4 10             	add    $0x10,%esp
    1b49:	8b 45 e0             	mov    -0x20(%ebp),%eax
    1b4c:	89 45 08             	mov    %eax,0x8(%ebp)
    1b4f:	8d 65 f4             	lea    -0xc(%ebp),%esp
    1b52:	5b                   	pop    %ebx
    1b53:	5e                   	pop    %esi
    1b54:	5f                   	pop    %edi
    1b55:	5d                   	pop    %ebp
    1b56:	e9 95 da 00 00       	jmp    f5f0 <fibril_mutex_unlock@plt>
    1b5b:	90                   	nop
    1b5c:	8d 74 26 00          	lea    0x0(%esi,%eiz,1),%esi
    1b60:	50                   	push   %eax
    1b61:	50                   	push   %eax
    1b62:	56                   	push   %esi
    1b63:	8b 45 e4             	mov    -0x1c(%ebp),%eax
    1b66:	8b 57 0c             	mov    0xc(%edi),%edx
    1b69:	01 d0                	add    %edx,%eax
    1b6b:	50                   	push   %eax
    1b6c:	e8 ef da 00 00       	call   f660 <pio_write_32@plt>
    1b71:	83 c4 10             	add    $0x10,%esp
    1b74:	eb d3                	jmp    1b49 <pci_conf_write_16+0xb9>
    1b76:	66 90                	xchg   %ax,%ax
    1b78:	83 ec 0c             	sub    $0xc,%esp
    1b7b:	8b 57 0c             	mov    0xc(%edi),%edx
    1b7e:	8b 45 e4             	mov    -0x1c(%ebp),%eax
    1b81:	01 d0                	add    %edx,%eax
    1b83:	50                   	push   %eax
    1b84:	e8 27 d9 00 00       	call   f4b0 <pio_read_32@plt>
    1b89:	83 c4 10             	add    $0x10,%esp
    1b8c:	e9 70 ff ff ff       	jmp    1b01 <pci_conf_write_16+0x71>
    1b91:	eb 0d                	jmp    1ba0 <pci_conf_write_32>
    1b93:	90                   	nop
    1b94:	90                   	nop
    1b95:	90                   	nop
    1b96:	90                   	nop
    1b97:	90                   	nop
    1b98:	90                   	nop
    1b99:	90                   	nop
    1b9a:	90                   	nop
    1b9b:	90                   	nop
    1b9c:	90                   	nop
    1b9d:	90                   	nop
    1b9e:	90                   	nop
    1b9f:	90                   	nop

00001ba0 <pci_conf_write_32>:
    1ba0:	55                   	push   %ebp
    1ba1:	89 e5                	mov    %esp,%ebp
    1ba3:	57                   	push   %edi
    1ba4:	56                   	push   %esi
    1ba5:	53                   	push   %ebx
    1ba6:	83 ec 28             	sub    $0x28,%esp
    1ba9:	8b 55 08             	mov    0x8(%ebp),%edx
    1bac:	8b 45 10             	mov    0x10(%ebp),%eax
    1baf:	89 45 e4             	mov    %eax,-0x1c(%ebp)
    1bb2:	8b 4a 0c             	mov    0xc(%edx),%ecx
    1bb5:	8b 42 08             	mov    0x8(%edx),%eax
    1bb8:	c1 e1 0b             	shl    $0xb,%ecx
    1bbb:	8b 1a                	mov    (%edx),%ebx
    1bbd:	c1 e0 10             	shl    $0x10,%eax
    1bc0:	8b 72 10             	mov    0x10(%edx),%esi
    1bc3:	09 c8                	or     %ecx,%eax
    1bc5:	8b 4d 0c             	mov    0xc(%ebp),%ecx
    1bc8:	83 e1 fc             	and    $0xfffffffc,%ecx
    1bcb:	8d 7b 20             	lea    0x20(%ebx),%edi
    1bce:	09 c8                	or     %ecx,%eax
    1bd0:	57                   	push   %edi
    1bd1:	c1 e6 08             	shl    $0x8,%esi
    1bd4:	09 c6                	or     %eax,%esi
    1bd6:	e8 a5 dc 00 00       	call   f880 <fibril_mutex_lock@plt>
    1bdb:	8b 4b 04             	mov    0x4(%ebx),%ecx
    1bde:	83 c4 10             	add    $0x10,%esp
    1be1:	85 c9                	test   %ecx,%ecx
    1be3:	74 33                	je     1c18 <pci_conf_write_32+0x78>
    1be5:	81 ce 00 00 00 80    	or     $0x80000000,%esi
    1beb:	50                   	push   %eax
    1bec:	50                   	push   %eax
    1bed:	56                   	push   %esi
    1bee:	51                   	push   %ecx
    1bef:	e8 6c da 00 00       	call   f660 <pio_write_32@plt>
    1bf4:	8b 4d e4             	mov    -0x1c(%ebp),%ecx
    1bf7:	58                   	pop    %eax
    1bf8:	5a                   	pop    %edx
    1bf9:	51                   	push   %ecx
    1bfa:	8b 5b 08             	mov    0x8(%ebx),%ebx
    1bfd:	53                   	push   %ebx
    1bfe:	e8 5d da 00 00       	call   f660 <pio_write_32@plt>
    1c03:	89 7d 08             	mov    %edi,0x8(%ebp)
    1c06:	83 c4 10             	add    $0x10,%esp
    1c09:	8d 65 f4             	lea    -0xc(%ebp),%esp
    1c0c:	5b                   	pop    %ebx
    1c0d:	5e                   	pop    %esi
    1c0e:	5f                   	pop    %edi
    1c0f:	5d                   	pop    %ebp
    1c10:	e9 db d9 00 00       	jmp    f5f0 <fibril_mutex_unlock@plt>
    1c15:	8d 76 00             	lea    0x0(%esi),%esi
    1c18:	8b 55 e4             	mov    -0x1c(%ebp),%edx
    1c1b:	50                   	push   %eax
    1c1c:	50                   	push   %eax
    1c1d:	52                   	push   %edx
    1c1e:	8b 43 0c             	mov    0xc(%ebx),%eax
    1c21:	01 f0                	add    %esi,%eax
    1c23:	50                   	push   %eax
    1c24:	e8 37 da 00 00       	call   f660 <pio_write_32@plt>
    1c29:	89 7d 08             	mov    %edi,0x8(%ebp)
    1c2c:	83 c4 10             	add    $0x10,%esp
    1c2f:	8d 65 f4             	lea    -0xc(%ebp),%esp
    1c32:	5b                   	pop    %ebx
    1c33:	5e                   	pop    %esi
    1c34:	5f                   	pop    %edi
    1c35:	5d                   	pop    %ebp
    1c36:	e9 b5 d9 00 00       	jmp    f5f0 <fibril_mutex_unlock@plt>
    1c3b:	90                   	nop
    1c3c:	8d 74 26 00          	lea    0x0(%esi,%eiz,1),%esi

00001c40 <pci_fun_create_match_ids>:
    1c40:	55                   	push   %ebp
    1c41:	31 c0                	xor    %eax,%eax
    1c43:	89 e5                	mov    %esp,%ebp
    1c45:	56                   	push   %esi
    1c46:	53                   	push   %ebx
    1c47:	83 ec 4c             	sub    $0x4c,%esp
    1c4a:	8d 75 c6             	lea    -0x3a(%ebp),%esi
    1c4d:	8b 5d 08             	mov    0x8(%ebp),%ebx
    1c50:	66 8b 43 16          	mov    0x16(%ebx),%ax
    1c54:	50                   	push   %eax
    1c55:	31 c0                	xor    %eax,%eax
    1c57:	66 8b 43 14          	mov    0x14(%ebx),%ax
    1c5b:	50                   	push   %eax
    1c5c:	68 38 d1 00 00       	push   $0xd138
    1c61:	6a 32                	push   $0x32
    1c63:	56                   	push   %esi
    1c64:	e8 97 d7 00 00       	call   f400 <snprintf@plt>
    1c69:	83 c4 20             	add    $0x20,%esp
    1c6c:	85 c0                	test   %eax,%eax
    1c6e:	0f 88 d4 01 00 00    	js     1e48 <pci_fun_create_match_ids+0x208>
    1c74:	51                   	push   %ecx
    1c75:	6a 5a                	push   $0x5a
    1c77:	8b 43 04             	mov    0x4(%ebx),%eax
    1c7a:	56                   	push   %esi
    1c7b:	50                   	push   %eax
    1c7c:	e8 9f 32 00 00       	call   4f20 <ddf_fun_add_match_id>
    1c81:	83 c4 10             	add    $0x10,%esp
    1c84:	85 c0                	test   %eax,%eax
    1c86:	0f 85 94 01 00 00    	jne    1e20 <pci_fun_create_match_ids+0x1e0>
    1c8c:	31 c0                	xor    %eax,%eax
    1c8e:	52                   	push   %edx
    1c8f:	8a 43 1d             	mov    0x1d(%ebx),%al
    1c92:	50                   	push   %eax
    1c93:	31 c0                	xor    %eax,%eax
    1c95:	8a 43 1c             	mov    0x1c(%ebx),%al
    1c98:	50                   	push   %eax
    1c99:	31 c0                	xor    %eax,%eax
    1c9b:	8a 43 1b             	mov    0x1b(%ebx),%al
    1c9e:	50                   	push   %eax
    1c9f:	31 c0                	xor    %eax,%eax
    1ca1:	8a 43 1a             	mov    0x1a(%ebx),%al
    1ca4:	50                   	push   %eax
    1ca5:	68 00 d3 00 00       	push   $0xd300
    1caa:	6a 32                	push   $0x32
    1cac:	56                   	push   %esi
    1cad:	e8 4e d7 00 00       	call   f400 <snprintf@plt>
    1cb2:	83 c4 20             	add    $0x20,%esp
    1cb5:	85 c0                	test   %eax,%eax
    1cb7:	0f 88 b3 01 00 00    	js     1e70 <pci_fun_create_match_ids+0x230>
    1cbd:	50                   	push   %eax
    1cbe:	6a 46                	push   $0x46
    1cc0:	8b 43 04             	mov    0x4(%ebx),%eax
    1cc3:	56                   	push   %esi
    1cc4:	50                   	push   %eax
    1cc5:	e8 56 32 00 00       	call   4f20 <ddf_fun_add_match_id>
    1cca:	83 c4 10             	add    $0x10,%esp
    1ccd:	85 c0                	test   %eax,%eax
    1ccf:	0f 85 23 01 00 00    	jne    1df8 <pci_fun_create_match_ids+0x1b8>
    1cd5:	50                   	push   %eax
    1cd6:	50                   	push   %eax
    1cd7:	31 c0                	xor    %eax,%eax
    1cd9:	8a 43 1c             	mov    0x1c(%ebx),%al
    1cdc:	50                   	push   %eax
    1cdd:	31 c0                	xor    %eax,%eax
    1cdf:	8a 43 1b             	mov    0x1b(%ebx),%al
    1ce2:	50                   	push   %eax
    1ce3:	31 c0                	xor    %eax,%eax
    1ce5:	8a 43 1a             	mov    0x1a(%ebx),%al
    1ce8:	50                   	push   %eax
    1ce9:	68 38 d3 00 00       	push   $0xd338
    1cee:	6a 32                	push   $0x32
    1cf0:	56                   	push   %esi
    1cf1:	e8 0a d7 00 00       	call   f400 <snprintf@plt>
    1cf6:	83 c4 20             	add    $0x20,%esp
    1cf9:	85 c0                	test   %eax,%eax
    1cfb:	0f 88 97 01 00 00    	js     1e98 <pci_fun_create_match_ids+0x258>
    1d01:	50                   	push   %eax
    1d02:	6a 3c                	push   $0x3c
    1d04:	8b 43 04             	mov    0x4(%ebx),%eax
    1d07:	56                   	push   %esi
    1d08:	50                   	push   %eax
    1d09:	e8 12 32 00 00       	call   4f20 <ddf_fun_add_match_id>
    1d0e:	83 c4 10             	add    $0x10,%esp
    1d11:	85 c0                	test   %eax,%eax
    1d13:	0f 85 b7 00 00 00    	jne    1dd0 <pci_fun_create_match_ids+0x190>
    1d19:	83 ec 0c             	sub    $0xc,%esp
    1d1c:	31 c0                	xor    %eax,%eax
    1d1e:	8a 43 1b             	mov    0x1b(%ebx),%al
    1d21:	50                   	push   %eax
    1d22:	31 c0                	xor    %eax,%eax
    1d24:	8a 43 1a             	mov    0x1a(%ebx),%al
    1d27:	50                   	push   %eax
    1d28:	68 6b d1 00 00       	push   $0xd16b
    1d2d:	6a 32                	push   $0x32
    1d2f:	56                   	push   %esi
    1d30:	e8 cb d6 00 00       	call   f400 <snprintf@plt>
    1d35:	83 c4 20             	add    $0x20,%esp
    1d38:	85 c0                	test   %eax,%eax
    1d3a:	0f 88 80 01 00 00    	js     1ec0 <pci_fun_create_match_ids+0x280>
    1d40:	51                   	push   %ecx
    1d41:	6a 32                	push   $0x32
    1d43:	8b 43 04             	mov    0x4(%ebx),%eax
    1d46:	56                   	push   %esi
    1d47:	50                   	push   %eax
    1d48:	e8 d3 31 00 00       	call   4f20 <ddf_fun_add_match_id>
    1d4d:	83 c4 10             	add    $0x10,%esp
    1d50:	85 c0                	test   %eax,%eax
    1d52:	75 5c                	jne    1db0 <pci_fun_create_match_ids+0x170>
    1d54:	31 c0                	xor    %eax,%eax
    1d56:	8a 43 1a             	mov    0x1a(%ebx),%al
    1d59:	50                   	push   %eax
    1d5a:	68 88 d1 00 00       	push   $0xd188
    1d5f:	6a 32                	push   $0x32
    1d61:	56                   	push   %esi
    1d62:	e8 99 d6 00 00       	call   f400 <snprintf@plt>
    1d67:	83 c4 10             	add    $0x10,%esp
    1d6a:	85 c0                	test   %eax,%eax
    1d6c:	0f 88 76 01 00 00    	js     1ee8 <pci_fun_create_match_ids+0x2a8>
    1d72:	50                   	push   %eax
    1d73:	6a 28                	push   $0x28
    1d75:	8b 53 04             	mov    0x4(%ebx),%edx
    1d78:	56                   	push   %esi
    1d79:	52                   	push   %edx
    1d7a:	e8 a1 31 00 00       	call   4f20 <ddf_fun_add_match_id>
    1d7f:	83 c4 10             	add    $0x10,%esp
    1d82:	85 c0                	test   %eax,%eax
    1d84:	74 1c                	je     1da2 <pci_fun_create_match_ids+0x162>
    1d86:	83 ec 0c             	sub    $0xc,%esp
    1d89:	50                   	push   %eax
    1d8a:	e8 f1 d9 00 00       	call   f780 <str_error@plt>
    1d8f:	83 c4 0c             	add    $0xc,%esp
    1d92:	50                   	push   %eax
    1d93:	68 50 d1 00 00       	push   $0xd150
    1d98:	6a 01                	push   $0x1
    1d9a:	e8 61 34 00 00       	call   5200 <ddf_msg>
    1d9f:	83 c4 10             	add    $0x10,%esp
    1da2:	8d 65 f8             	lea    -0x8(%ebp),%esp
    1da5:	5b                   	pop    %ebx
    1da6:	5e                   	pop    %esi
    1da7:	5d                   	pop    %ebp
    1da8:	c3                   	ret    
    1da9:	8d b4 26 00 00 00 00 	lea    0x0(%esi,%eiz,1),%esi
    1db0:	83 ec 0c             	sub    $0xc,%esp
    1db3:	50                   	push   %eax
    1db4:	e8 c7 d9 00 00       	call   f780 <str_error@plt>
    1db9:	83 c4 0c             	add    $0xc,%esp
    1dbc:	50                   	push   %eax
    1dbd:	68 50 d1 00 00       	push   $0xd150
    1dc2:	6a 01                	push   $0x1
    1dc4:	e8 37 34 00 00       	call   5200 <ddf_msg>
    1dc9:	83 c4 10             	add    $0x10,%esp
    1dcc:	eb 86                	jmp    1d54 <pci_fun_create_match_ids+0x114>
    1dce:	66 90                	xchg   %ax,%ax
    1dd0:	83 ec 0c             	sub    $0xc,%esp
    1dd3:	50                   	push   %eax
    1dd4:	e8 a7 d9 00 00       	call   f780 <str_error@plt>
    1dd9:	83 c4 0c             	add    $0xc,%esp
    1ddc:	50                   	push   %eax
    1ddd:	68 50 d1 00 00       	push   $0xd150
    1de2:	6a 01                	push   $0x1
    1de4:	e8 17 34 00 00       	call   5200 <ddf_msg>
    1de9:	83 c4 10             	add    $0x10,%esp
    1dec:	e9 28 ff ff ff       	jmp    1d19 <pci_fun_create_match_ids+0xd9>
    1df1:	8d b4 26 00 00 00 00 	lea    0x0(%esi,%eiz,1),%esi
    1df8:	83 ec 0c             	sub    $0xc,%esp
    1dfb:	50                   	push   %eax
    1dfc:	e8 7f d9 00 00       	call   f780 <str_error@plt>
    1e01:	83 c4 0c             	add    $0xc,%esp
    1e04:	50                   	push   %eax
    1e05:	68 50 d1 00 00       	push   $0xd150
    1e0a:	6a 01                	push   $0x1
    1e0c:	e8 ef 33 00 00       	call   5200 <ddf_msg>
    1e11:	83 c4 10             	add    $0x10,%esp
    1e14:	e9 bc fe ff ff       	jmp    1cd5 <pci_fun_create_match_ids+0x95>
    1e19:	8d b4 26 00 00 00 00 	lea    0x0(%esi,%eiz,1),%esi
    1e20:	83 ec 0c             	sub    $0xc,%esp
    1e23:	50                   	push   %eax
    1e24:	e8 57 d9 00 00       	call   f780 <str_error@plt>
    1e29:	83 c4 0c             	add    $0xc,%esp
    1e2c:	50                   	push   %eax
    1e2d:	68 50 d1 00 00       	push   $0xd150
    1e32:	6a 01                	push   $0x1
    1e34:	e8 c7 33 00 00       	call   5200 <ddf_msg>
    1e39:	83 c4 10             	add    $0x10,%esp
    1e3c:	e9 4b fe ff ff       	jmp    1c8c <pci_fun_create_match_ids+0x4c>
    1e41:	8d b4 26 00 00 00 00 	lea    0x0(%esi,%eiz,1),%esi
    1e48:	83 ec 0c             	sub    $0xc,%esp
    1e4b:	50                   	push   %eax
    1e4c:	e8 2f d9 00 00       	call   f780 <str_error@plt>
    1e51:	83 c4 0c             	add    $0xc,%esp
    1e54:	50                   	push   %eax
    1e55:	68 dc d2 00 00       	push   $0xd2dc
    1e5a:	6a 01                	push   $0x1
    1e5c:	e8 9f 33 00 00       	call   5200 <ddf_msg>
    1e61:	83 c4 10             	add    $0x10,%esp
    1e64:	e9 0b fe ff ff       	jmp    1c74 <pci_fun_create_match_ids+0x34>
    1e69:	8d b4 26 00 00 00 00 	lea    0x0(%esi,%eiz,1),%esi
    1e70:	83 ec 0c             	sub    $0xc,%esp
    1e73:	50                   	push   %eax
    1e74:	e8 07 d9 00 00       	call   f780 <str_error@plt>
    1e79:	83 c4 0c             	add    $0xc,%esp
    1e7c:	50                   	push   %eax
    1e7d:	68 dc d2 00 00       	push   $0xd2dc
    1e82:	6a 01                	push   $0x1
    1e84:	e8 77 33 00 00       	call   5200 <ddf_msg>
    1e89:	83 c4 10             	add    $0x10,%esp
    1e8c:	e9 2c fe ff ff       	jmp    1cbd <pci_fun_create_match_ids+0x7d>
    1e91:	8d b4 26 00 00 00 00 	lea    0x0(%esi,%eiz,1),%esi
    1e98:	83 ec 0c             	sub    $0xc,%esp
    1e9b:	50                   	push   %eax
    1e9c:	e8 df d8 00 00       	call   f780 <str_error@plt>
    1ea1:	83 c4 0c             	add    $0xc,%esp
    1ea4:	50                   	push   %eax
    1ea5:	68 dc d2 00 00       	push   $0xd2dc
    1eaa:	6a 01                	push   $0x1
    1eac:	e8 4f 33 00 00       	call   5200 <ddf_msg>
    1eb1:	83 c4 10             	add    $0x10,%esp
    1eb4:	e9 48 fe ff ff       	jmp    1d01 <pci_fun_create_match_ids+0xc1>
    1eb9:	8d b4 26 00 00 00 00 	lea    0x0(%esi,%eiz,1),%esi
    1ec0:	83 ec 0c             	sub    $0xc,%esp
    1ec3:	50                   	push   %eax
    1ec4:	e8 b7 d8 00 00       	call   f780 <str_error@plt>
    1ec9:	83 c4 0c             	add    $0xc,%esp
    1ecc:	50                   	push   %eax
    1ecd:	68 dc d2 00 00       	push   $0xd2dc
    1ed2:	6a 01                	push   $0x1
    1ed4:	e8 27 33 00 00       	call   5200 <ddf_msg>
    1ed9:	83 c4 10             	add    $0x10,%esp
    1edc:	e9 5f fe ff ff       	jmp    1d40 <pci_fun_create_match_ids+0x100>
    1ee1:	8d b4 26 00 00 00 00 	lea    0x0(%esi,%eiz,1),%esi
    1ee8:	83 ec 0c             	sub    $0xc,%esp
    1eeb:	50                   	push   %eax
    1eec:	e8 8f d8 00 00       	call   f780 <str_error@plt>
    1ef1:	83 c4 0c             	add    $0xc,%esp
    1ef4:	50                   	push   %eax
    1ef5:	68 dc d2 00 00       	push   $0xd2dc
    1efa:	6a 01                	push   $0x1
    1efc:	e8 ff 32 00 00       	call   5200 <ddf_msg>
    1f01:	83 c4 10             	add    $0x10,%esp
    1f04:	e9 69 fe ff ff       	jmp    1d72 <pci_fun_create_match_ids+0x132>
    1f09:	8d b4 26 00 00 00 00 	lea    0x0(%esi,%eiz,1),%esi

00001f10 <pci_add_range>:
    1f10:	55                   	push   %ebp
    1f11:	89 e5                	mov    %esp,%ebp
    1f13:	57                   	push   %edi
    1f14:	56                   	push   %esi
    1f15:	53                   	push   %ebx
    1f16:	83 ec 1c             	sub    $0x1c,%esp
    1f19:	8b 55 08             	mov    0x8(%ebp),%edx
    1f1c:	8b 4d 0c             	mov    0xc(%ebp),%ecx
    1f1f:	8b 5d 10             	mov    0x10(%ebp),%ebx
    1f22:	89 4d e0             	mov    %ecx,-0x20(%ebp)
    1f25:	8b 72 24             	mov    0x24(%edx),%esi
    1f28:	89 5d e4             	mov    %ebx,-0x1c(%ebp)
    1f2b:	8b 7d 18             	mov    0x18(%ebp),%edi
    1f2e:	8b 42 20             	mov    0x20(%edx),%eax
    1f31:	85 f6                	test   %esi,%esi
    1f33:	0f 84 8b 00 00 00    	je     1fc4 <pci_add_range+0xb4>
    1f39:	83 f8 09             	cmp    $0x9,%eax
    1f3c:	77 71                	ja     1faf <pci_add_range+0x9f>
    1f3e:	89 fb                	mov    %edi,%ebx
    1f40:	8d 3c 40             	lea    (%eax,%eax,2),%edi
    1f43:	84 db                	test   %bl,%bl
    1f45:	8d 34 fe             	lea    (%esi,%edi,8),%esi
    1f48:	75 36                	jne    1f80 <pci_add_range+0x70>
    1f4a:	8b 4d e0             	mov    -0x20(%ebp),%ecx
    1f4d:	8b 5d e4             	mov    -0x1c(%ebp),%ebx
    1f50:	89 4e 04             	mov    %ecx,0x4(%esi)
    1f53:	40                   	inc    %eax
    1f54:	8b 4d 14             	mov    0x14(%ebp),%ecx
    1f57:	c7 06 02 00 00 00    	movl   $0x2,(%esi)
    1f5d:	89 5e 08             	mov    %ebx,0x8(%esi)
    1f60:	89 4e 0c             	mov    %ecx,0xc(%esi)
    1f63:	c6 46 10 00          	movb   $0x0,0x10(%esi)
    1f67:	c7 46 14 00 00 00 00 	movl   $0x0,0x14(%esi)
    1f6e:	89 42 20             	mov    %eax,0x20(%edx)
    1f71:	8d 65 f4             	lea    -0xc(%ebp),%esp
    1f74:	5b                   	pop    %ebx
    1f75:	5e                   	pop    %esi
    1f76:	5f                   	pop    %edi
    1f77:	5d                   	pop    %ebp
    1f78:	c3                   	ret    
    1f79:	8d b4 26 00 00 00 00 	lea    0x0(%esi,%eiz,1),%esi
    1f80:	8b 5d e4             	mov    -0x1c(%ebp),%ebx
    1f83:	8b 4d e0             	mov    -0x20(%ebp),%ecx
    1f86:	89 5e 08             	mov    %ebx,0x8(%esi)
    1f89:	40                   	inc    %eax
    1f8a:	8b 5d 14             	mov    0x14(%ebp),%ebx
    1f8d:	c7 06 01 00 00 00    	movl   $0x1,(%esi)
    1f93:	89 4e 04             	mov    %ecx,0x4(%esi)
    1f96:	89 5e 0c             	mov    %ebx,0xc(%esi)
    1f99:	c6 46 10 01          	movb   $0x1,0x10(%esi)
    1f9d:	c7 46 14 00 00 00 00 	movl   $0x0,0x14(%esi)
    1fa4:	89 42 20             	mov    %eax,0x20(%edx)
    1fa7:	8d 65 f4             	lea    -0xc(%ebp),%esp
    1faa:	5b                   	pop    %ebx
    1fab:	5e                   	pop    %esi
    1fac:	5f                   	pop    %edi
    1fad:	5d                   	pop    %ebp
    1fae:	c3                   	ret    
    1faf:	50                   	push   %eax
    1fb0:	68 b8 01 00 00       	push   $0x1b8
    1fb5:	68 97 ef 00 00       	push   $0xef97
    1fba:	68 ac d1 00 00       	push   $0xd1ac
    1fbf:	e8 9c d5 00 00       	call   f560 <assert_abort@plt>
    1fc4:	52                   	push   %edx
    1fc5:	68 b7 01 00 00       	push   $0x1b7
    1fca:	68 97 ef 00 00       	push   $0xef97
    1fcf:	68 97 d1 00 00       	push   $0xd197
    1fd4:	e8 87 d5 00 00       	call   f560 <assert_abort@plt>
    1fd9:	8d b4 26 00 00 00 00 	lea    0x0(%esi,%eiz,1),%esi

00001fe0 <pci_read_bar>:
    1fe0:	55                   	push   %ebp
    1fe1:	89 e5                	mov    %esp,%ebp
    1fe3:	57                   	push   %edi
    1fe4:	56                   	push   %esi
    1fe5:	53                   	push   %ebx
    1fe6:	83 ec 38             	sub    $0x38,%esp
    1fe9:	8b 7d 08             	mov    0x8(%ebp),%edi
    1fec:	8b 45 0c             	mov    0xc(%ebp),%eax
    1fef:	83 e0 fc             	and    $0xfffffffc,%eax
    1ff2:	89 c2                	mov    %eax,%edx
    1ff4:	8b 77 08             	mov    0x8(%edi),%esi
    1ff7:	89 45 e4             	mov    %eax,-0x1c(%ebp)
    1ffa:	8b 47 0c             	mov    0xc(%edi),%eax
    1ffd:	c1 e0 0b             	shl    $0xb,%eax
    2000:	8b 1f                	mov    (%edi),%ebx
    2002:	c1 e6 10             	shl    $0x10,%esi
    2005:	09 c6                	or     %eax,%esi
    2007:	8b 47 10             	mov    0x10(%edi),%eax
    200a:	c1 e0 08             	shl    $0x8,%eax
    200d:	09 d6                	or     %edx,%esi
    200f:	09 c6                	or     %eax,%esi
    2011:	8d 43 20             	lea    0x20(%ebx),%eax
    2014:	50                   	push   %eax
    2015:	89 45 dc             	mov    %eax,-0x24(%ebp)
    2018:	e8 63 d8 00 00       	call   f880 <fibril_mutex_lock@plt>
    201d:	8b 43 04             	mov    0x4(%ebx),%eax
    2020:	83 c4 10             	add    $0x10,%esp
    2023:	85 c0                	test   %eax,%eax
    2025:	0f 84 fd 02 00 00    	je     2328 <pci_read_bar+0x348>
    202b:	81 ce 00 00 00 80    	or     $0x80000000,%esi
    2031:	52                   	push   %edx
    2032:	52                   	push   %edx
    2033:	56                   	push   %esi
    2034:	50                   	push   %eax
    2035:	e8 26 d6 00 00       	call   f660 <pio_write_32@plt>
    203a:	8b 5b 08             	mov    0x8(%ebx),%ebx
    203d:	59                   	pop    %ecx
    203e:	53                   	push   %ebx
    203f:	e8 6c d4 00 00       	call   f4b0 <pio_read_32@plt>
    2044:	83 c4 10             	add    $0x10,%esp
    2047:	89 45 e0             	mov    %eax,-0x20(%ebp)
    204a:	83 ec 0c             	sub    $0xc,%esp
    204d:	8b 45 dc             	mov    -0x24(%ebp),%eax
    2050:	50                   	push   %eax
    2051:	e8 9a d5 00 00       	call   f5f0 <fibril_mutex_unlock@plt>
    2056:	8b 55 e0             	mov    -0x20(%ebp),%edx
    2059:	83 c4 10             	add    $0x10,%esp
    205c:	89 d0                	mov    %edx,%eax
    205e:	83 e0 01             	and    $0x1,%eax
    2061:	89 45 d4             	mov    %eax,-0x2c(%ebp)
    2064:	0f 85 1e 01 00 00    	jne    2188 <pci_read_bar+0x1a8>
    206a:	89 d0                	mov    %edx,%eax
    206c:	d1 e8                	shr    %eax
    206e:	83 e0 03             	and    $0x3,%eax
    2071:	0f 84 01 01 00 00    	je     2178 <pci_read_bar+0x198>
    2077:	83 f8 02             	cmp    $0x2,%eax
    207a:	0f 85 18 01 00 00    	jne    2198 <pci_read_bar+0x1b8>
    2080:	c6 45 dc 01          	movb   $0x1,-0x24(%ebp)
    2084:	c7 45 d0 f0 ff ff ff 	movl   $0xfffffff0,-0x30(%ebp)
    208b:	8b 5f 08             	mov    0x8(%edi),%ebx
    208e:	8b 47 0c             	mov    0xc(%edi),%eax
    2091:	c1 e0 0b             	shl    $0xb,%eax
    2094:	8b 75 e4             	mov    -0x1c(%ebp),%esi
    2097:	c1 e3 10             	shl    $0x10,%ebx
    209a:	83 ec 0c             	sub    $0xc,%esp
    209d:	09 c3                	or     %eax,%ebx
    209f:	8b 47 10             	mov    0x10(%edi),%eax
    20a2:	c1 e0 08             	shl    $0x8,%eax
    20a5:	09 f3                	or     %esi,%ebx
    20a7:	8b 37                	mov    (%edi),%esi
    20a9:	09 c3                	or     %eax,%ebx
    20ab:	8d 46 20             	lea    0x20(%esi),%eax
    20ae:	50                   	push   %eax
    20af:	89 45 d8             	mov    %eax,-0x28(%ebp)
    20b2:	e8 c9 d7 00 00       	call   f880 <fibril_mutex_lock@plt>
    20b7:	8b 4e 04             	mov    0x4(%esi),%ecx
    20ba:	83 c4 10             	add    $0x10,%esp
    20bd:	85 c9                	test   %ecx,%ecx
    20bf:	0f 84 4b 02 00 00    	je     2310 <pci_read_bar+0x330>
    20c5:	81 cb 00 00 00 80    	or     $0x80000000,%ebx
    20cb:	50                   	push   %eax
    20cc:	50                   	push   %eax
    20cd:	53                   	push   %ebx
    20ce:	51                   	push   %ecx
    20cf:	e8 8c d5 00 00       	call   f660 <pio_write_32@plt>
    20d4:	8b 4e 08             	mov    0x8(%esi),%ecx
    20d7:	58                   	pop    %eax
    20d8:	5a                   	pop    %edx
    20d9:	6a ff                	push   $0xffffffff
    20db:	51                   	push   %ecx
    20dc:	e8 7f d5 00 00       	call   f660 <pio_write_32@plt>
    20e1:	83 c4 10             	add    $0x10,%esp
    20e4:	83 ec 0c             	sub    $0xc,%esp
    20e7:	8b 55 d8             	mov    -0x28(%ebp),%edx
    20ea:	52                   	push   %edx
    20eb:	e8 00 d5 00 00       	call   f5f0 <fibril_mutex_unlock@plt>
    20f0:	8b 5f 08             	mov    0x8(%edi),%ebx
    20f3:	8b 47 0c             	mov    0xc(%edi),%eax
    20f6:	c1 e0 0b             	shl    $0xb,%eax
    20f9:	8b 37                	mov    (%edi),%esi
    20fb:	c1 e3 10             	shl    $0x10,%ebx
    20fe:	8b 4d e4             	mov    -0x1c(%ebp),%ecx
    2101:	09 c3                	or     %eax,%ebx
    2103:	8b 47 10             	mov    0x10(%edi),%eax
    2106:	c1 e0 08             	shl    $0x8,%eax
    2109:	09 cb                	or     %ecx,%ebx
    210b:	09 c3                	or     %eax,%ebx
    210d:	8d 46 20             	lea    0x20(%esi),%eax
    2110:	89 04 24             	mov    %eax,(%esp)
    2113:	89 45 d8             	mov    %eax,-0x28(%ebp)
    2116:	e8 65 d7 00 00       	call   f880 <fibril_mutex_lock@plt>
    211b:	8b 4e 04             	mov    0x4(%esi),%ecx
    211e:	83 c4 10             	add    $0x10,%esp
    2121:	85 c9                	test   %ecx,%ecx
    2123:	0f 84 1f 02 00 00    	je     2348 <pci_read_bar+0x368>
    2129:	81 cb 00 00 00 80    	or     $0x80000000,%ebx
    212f:	50                   	push   %eax
    2130:	50                   	push   %eax
    2131:	53                   	push   %ebx
    2132:	51                   	push   %ecx
    2133:	e8 28 d5 00 00       	call   f660 <pio_write_32@plt>
    2138:	58                   	pop    %eax
    2139:	8b 46 08             	mov    0x8(%esi),%eax
    213c:	50                   	push   %eax
    213d:	e8 6e d3 00 00       	call   f4b0 <pio_read_32@plt>
    2142:	83 c4 10             	add    $0x10,%esp
    2145:	89 c3                	mov    %eax,%ebx
    2147:	83 ec 0c             	sub    $0xc,%esp
    214a:	8b 45 d8             	mov    -0x28(%ebp),%eax
    214d:	50                   	push   %eax
    214e:	e8 9d d4 00 00       	call   f5f0 <fibril_mutex_unlock@plt>
    2153:	83 c4 10             	add    $0x10,%esp
    2156:	85 db                	test   %ebx,%ebx
    2158:	75 4e                	jne    21a8 <pci_read_bar+0x1c8>
    215a:	80 7d dc 01          	cmpb   $0x1,-0x24(%ebp)
    215e:	19 c0                	sbb    %eax,%eax
    2160:	8b 55 0c             	mov    0xc(%ebp),%edx
    2163:	83 e0 fc             	and    $0xfffffffc,%eax
    2166:	8d 44 10 08          	lea    0x8(%eax,%edx,1),%eax
    216a:	8d 65 f4             	lea    -0xc(%ebp),%esp
    216d:	5b                   	pop    %ebx
    216e:	5e                   	pop    %esi
    216f:	5f                   	pop    %edi
    2170:	5d                   	pop    %ebp
    2171:	c3                   	ret    
    2172:	8d b6 00 00 00 00    	lea    0x0(%esi),%esi
    2178:	c6 45 dc 00          	movb   $0x0,-0x24(%ebp)
    217c:	c7 45 d0 f0 ff ff ff 	movl   $0xfffffff0,-0x30(%ebp)
    2183:	e9 03 ff ff ff       	jmp    208b <pci_read_bar+0xab>
    2188:	c6 45 dc 00          	movb   $0x0,-0x24(%ebp)
    218c:	c7 45 d0 fc ff ff ff 	movl   $0xfffffffc,-0x30(%ebp)
    2193:	e9 f3 fe ff ff       	jmp    208b <pci_read_bar+0xab>
    2198:	8b 45 0c             	mov    0xc(%ebp),%eax
    219b:	8d 65 f4             	lea    -0xc(%ebp),%esp
    219e:	83 c0 04             	add    $0x4,%eax
    21a1:	5b                   	pop    %ebx
    21a2:	5e                   	pop    %esi
    21a3:	5f                   	pop    %edi
    21a4:	5d                   	pop    %ebp
    21a5:	c3                   	ret    
    21a6:	66 90                	xchg   %ax,%ax
    21a8:	8b 75 d0             	mov    -0x30(%ebp),%esi
    21ab:	8b 47 0c             	mov    0xc(%edi),%eax
    21ae:	21 f3                	and    %esi,%ebx
    21b0:	83 ec 0c             	sub    $0xc,%esp
    21b3:	c1 e0 0b             	shl    $0xb,%eax
    21b6:	89 5d d8             	mov    %ebx,-0x28(%ebp)
    21b9:	8b 5f 08             	mov    0x8(%edi),%ebx
    21bc:	c1 e3 10             	shl    $0x10,%ebx
    21bf:	09 c3                	or     %eax,%ebx
    21c1:	8b 45 e4             	mov    -0x1c(%ebp),%eax
    21c4:	09 c3                	or     %eax,%ebx
    21c6:	8b 47 10             	mov    0x10(%edi),%eax
    21c9:	c1 e0 08             	shl    $0x8,%eax
    21cc:	09 c3                	or     %eax,%ebx
    21ce:	8b 07                	mov    (%edi),%eax
    21d0:	89 45 d0             	mov    %eax,-0x30(%ebp)
    21d3:	8d 70 20             	lea    0x20(%eax),%esi
    21d6:	56                   	push   %esi
    21d7:	e8 a4 d6 00 00       	call   f880 <fibril_mutex_lock@plt>
    21dc:	8b 45 d0             	mov    -0x30(%ebp),%eax
    21df:	83 c4 10             	add    $0x10,%esp
    21e2:	8b 48 04             	mov    0x4(%eax),%ecx
    21e5:	85 c9                	test   %ecx,%ecx
    21e7:	0f 84 4b 02 00 00    	je     2438 <pci_read_bar+0x458>
    21ed:	81 cb 00 00 00 80    	or     $0x80000000,%ebx
    21f3:	50                   	push   %eax
    21f4:	50                   	push   %eax
    21f5:	53                   	push   %ebx
    21f6:	51                   	push   %ecx
    21f7:	e8 64 d4 00 00       	call   f660 <pio_write_32@plt>
    21fc:	58                   	pop    %eax
    21fd:	8b 45 d0             	mov    -0x30(%ebp),%eax
    2200:	8b 4d e0             	mov    -0x20(%ebp),%ecx
    2203:	5a                   	pop    %edx
    2204:	8b 58 08             	mov    0x8(%eax),%ebx
    2207:	51                   	push   %ecx
    2208:	53                   	push   %ebx
    2209:	e8 52 d4 00 00       	call   f660 <pio_write_32@plt>
    220e:	83 c4 10             	add    $0x10,%esp
    2211:	83 ec 0c             	sub    $0xc,%esp
    2214:	56                   	push   %esi
    2215:	e8 d6 d3 00 00       	call   f5f0 <fibril_mutex_unlock@plt>
    221a:	8b 5f 08             	mov    0x8(%edi),%ebx
    221d:	8b 47 0c             	mov    0xc(%edi),%eax
    2220:	c1 e0 0b             	shl    $0xb,%eax
    2223:	8b 75 e4             	mov    -0x1c(%ebp),%esi
    2226:	c1 e3 10             	shl    $0x10,%ebx
    2229:	09 c3                	or     %eax,%ebx
    222b:	8b 47 10             	mov    0x10(%edi),%eax
    222e:	c1 e0 08             	shl    $0x8,%eax
    2231:	09 f3                	or     %esi,%ebx
    2233:	8b 37                	mov    (%edi),%esi
    2235:	09 c3                	or     %eax,%ebx
    2237:	8d 46 20             	lea    0x20(%esi),%eax
    223a:	89 04 24             	mov    %eax,(%esp)
    223d:	89 45 e4             	mov    %eax,-0x1c(%ebp)
    2240:	e8 3b d6 00 00       	call   f880 <fibril_mutex_lock@plt>
    2245:	8b 46 04             	mov    0x4(%esi),%eax
    2248:	83 c4 10             	add    $0x10,%esp
    224b:	85 c0                	test   %eax,%eax
    224d:	0f 84 05 02 00 00    	je     2458 <pci_read_bar+0x478>
    2253:	81 cb 00 00 00 80    	or     $0x80000000,%ebx
    2259:	52                   	push   %edx
    225a:	52                   	push   %edx
    225b:	53                   	push   %ebx
    225c:	50                   	push   %eax
    225d:	e8 fe d3 00 00       	call   f660 <pio_write_32@plt>
    2262:	8b 5e 08             	mov    0x8(%esi),%ebx
    2265:	59                   	pop    %ecx
    2266:	53                   	push   %ebx
    2267:	e8 44 d2 00 00       	call   f4b0 <pio_read_32@plt>
    226c:	83 c4 10             	add    $0x10,%esp
    226f:	89 45 e0             	mov    %eax,-0x20(%ebp)
    2272:	83 ec 0c             	sub    $0xc,%esp
    2275:	8b 45 e4             	mov    -0x1c(%ebp),%eax
    2278:	50                   	push   %eax
    2279:	e8 72 d3 00 00       	call   f5f0 <fibril_mutex_unlock@plt>
    227e:	8b 55 d8             	mov    -0x28(%ebp),%edx
    2281:	83 c4 10             	add    $0x10,%esp
    2284:	89 d0                	mov    %edx,%eax
    2286:	f7 d8                	neg    %eax
    2288:	21 d0                	and    %edx,%eax
    228a:	89 45 e4             	mov    %eax,-0x1c(%ebp)
    228d:	80 7d dc 00          	cmpb   $0x0,-0x24(%ebp)
    2291:	0f 85 21 01 00 00    	jne    23b8 <pci_read_bar+0x3d8>
    2297:	8b 75 e0             	mov    -0x20(%ebp),%esi
    229a:	83 e6 f0             	and    $0xfffffff0,%esi
    229d:	89 f3                	mov    %esi,%ebx
    229f:	31 f6                	xor    %esi,%esi
    22a1:	89 f1                	mov    %esi,%ecx
    22a3:	09 d9                	or     %ebx,%ecx
    22a5:	0f 85 dd 00 00 00    	jne    2388 <pci_read_bar+0x3a8>
    22ab:	8b 4f 24             	mov    0x24(%edi),%ecx
    22ae:	8b 47 20             	mov    0x20(%edi),%eax
    22b1:	85 c9                	test   %ecx,%ecx
    22b3:	0f 84 e3 01 00 00    	je     249c <pci_read_bar+0x4bc>
    22b9:	83 f8 09             	cmp    $0x9,%eax
    22bc:	0f 87 c5 01 00 00    	ja     2487 <pci_read_bar+0x4a7>
    22c2:	8d 14 40             	lea    (%eax,%eax,2),%edx
    22c5:	8d 0c d1             	lea    (%ecx,%edx,8),%ecx
    22c8:	8b 55 d4             	mov    -0x2c(%ebp),%edx
    22cb:	85 d2                	test   %edx,%edx
    22cd:	0f 85 8d 00 00 00    	jne    2360 <pci_read_bar+0x380>
    22d3:	8b 55 e4             	mov    -0x1c(%ebp),%edx
    22d6:	c7 01 02 00 00 00    	movl   $0x2,(%ecx)
    22dc:	89 59 04             	mov    %ebx,0x4(%ecx)
    22df:	89 71 08             	mov    %esi,0x8(%ecx)
    22e2:	89 51 0c             	mov    %edx,0xc(%ecx)
    22e5:	c6 41 10 00          	movb   $0x0,0x10(%ecx)
    22e9:	c7 41 14 00 00 00 00 	movl   $0x0,0x14(%ecx)
    22f0:	40                   	inc    %eax
    22f1:	89 47 20             	mov    %eax,0x20(%edi)
    22f4:	8b 45 0c             	mov    0xc(%ebp),%eax
    22f7:	83 c0 04             	add    $0x4,%eax
    22fa:	80 7d dc 00          	cmpb   $0x0,-0x24(%ebp)
    22fe:	0f 84 66 fe ff ff    	je     216a <pci_read_bar+0x18a>
    2304:	8b 45 0c             	mov    0xc(%ebp),%eax
    2307:	83 c0 08             	add    $0x8,%eax
    230a:	e9 5b fe ff ff       	jmp    216a <pci_read_bar+0x18a>
    230f:	90                   	nop
    2310:	50                   	push   %eax
    2311:	50                   	push   %eax
    2312:	8b 46 0c             	mov    0xc(%esi),%eax
    2315:	6a ff                	push   $0xffffffff
    2317:	01 c3                	add    %eax,%ebx
    2319:	53                   	push   %ebx
    231a:	e8 41 d3 00 00       	call   f660 <pio_write_32@plt>
    231f:	83 c4 10             	add    $0x10,%esp
    2322:	e9 bd fd ff ff       	jmp    20e4 <pci_read_bar+0x104>
    2327:	90                   	nop
    2328:	83 ec 0c             	sub    $0xc,%esp
    232b:	8b 43 0c             	mov    0xc(%ebx),%eax
    232e:	01 c6                	add    %eax,%esi
    2330:	56                   	push   %esi
    2331:	e8 7a d1 00 00       	call   f4b0 <pio_read_32@plt>
    2336:	83 c4 10             	add    $0x10,%esp
    2339:	89 45 e0             	mov    %eax,-0x20(%ebp)
    233c:	e9 09 fd ff ff       	jmp    204a <pci_read_bar+0x6a>
    2341:	8d b4 26 00 00 00 00 	lea    0x0(%esi,%eiz,1),%esi
    2348:	83 ec 0c             	sub    $0xc,%esp
    234b:	8b 46 0c             	mov    0xc(%esi),%eax
    234e:	01 c3                	add    %eax,%ebx
    2350:	53                   	push   %ebx
    2351:	e8 5a d1 00 00       	call   f4b0 <pio_read_32@plt>
    2356:	83 c4 10             	add    $0x10,%esp
    2359:	89 c3                	mov    %eax,%ebx
    235b:	e9 e7 fd ff ff       	jmp    2147 <pci_read_bar+0x167>
    2360:	8b 55 e4             	mov    -0x1c(%ebp),%edx
    2363:	c7 01 01 00 00 00    	movl   $0x1,(%ecx)
    2369:	89 59 04             	mov    %ebx,0x4(%ecx)
    236c:	89 71 08             	mov    %esi,0x8(%ecx)
    236f:	89 51 0c             	mov    %edx,0xc(%ecx)
    2372:	c6 41 10 01          	movb   $0x1,0x10(%ecx)
    2376:	c7 41 14 00 00 00 00 	movl   $0x0,0x14(%ecx)
    237d:	e9 6e ff ff ff       	jmp    22f0 <pci_read_bar+0x310>
    2382:	8d b6 00 00 00 00    	lea    0x0(%esi),%esi
    2388:	83 ec 0c             	sub    $0xc,%esp
    238b:	8b 47 04             	mov    0x4(%edi),%eax
    238e:	50                   	push   %eax
    238f:	e8 1c 28 00 00       	call   4bb0 <ddf_fun_get_name>
    2394:	5a                   	pop    %edx
    2395:	8b 55 e4             	mov    -0x1c(%ebp),%edx
    2398:	59                   	pop    %ecx
    2399:	52                   	push   %edx
    239a:	56                   	push   %esi
    239b:	53                   	push   %ebx
    239c:	50                   	push   %eax
    239d:	68 64 d3 00 00       	push   $0xd364
    23a2:	6a 04                	push   $0x4
    23a4:	e8 57 2e 00 00       	call   5200 <ddf_msg>
    23a9:	83 c4 20             	add    $0x20,%esp
    23ac:	e9 fa fe ff ff       	jmp    22ab <pci_read_bar+0x2cb>
    23b1:	8d b4 26 00 00 00 00 	lea    0x0(%esi,%eiz,1),%esi
    23b8:	8b 4f 08             	mov    0x8(%edi),%ecx
    23bb:	8b 47 0c             	mov    0xc(%edi),%eax
    23be:	c1 e1 10             	shl    $0x10,%ecx
    23c1:	8b 37                	mov    (%edi),%esi
    23c3:	c1 e0 0b             	shl    $0xb,%eax
    23c6:	83 ec 0c             	sub    $0xc,%esp
    23c9:	09 c8                	or     %ecx,%eax
    23cb:	8b 4d 0c             	mov    0xc(%ebp),%ecx
    23ce:	83 c1 04             	add    $0x4,%ecx
    23d1:	8d 5e 20             	lea    0x20(%esi),%ebx
    23d4:	83 e1 fc             	and    $0xfffffffc,%ecx
    23d7:	09 c8                	or     %ecx,%eax
    23d9:	8b 4f 10             	mov    0x10(%edi),%ecx
    23dc:	c1 e1 08             	shl    $0x8,%ecx
    23df:	53                   	push   %ebx
    23e0:	09 c8                	or     %ecx,%eax
    23e2:	89 45 d8             	mov    %eax,-0x28(%ebp)
    23e5:	e8 96 d4 00 00       	call   f880 <fibril_mutex_lock@plt>
    23ea:	8b 46 04             	mov    0x4(%esi),%eax
    23ed:	83 c4 10             	add    $0x10,%esp
    23f0:	85 c0                	test   %eax,%eax
    23f2:	74 7d                	je     2471 <pci_read_bar+0x491>
    23f4:	8b 4d d8             	mov    -0x28(%ebp),%ecx
    23f7:	52                   	push   %edx
    23f8:	81 c9 00 00 00 80    	or     $0x80000000,%ecx
    23fe:	52                   	push   %edx
    23ff:	51                   	push   %ecx
    2400:	50                   	push   %eax
    2401:	e8 5a d2 00 00       	call   f660 <pio_write_32@plt>
    2406:	8b 76 08             	mov    0x8(%esi),%esi
    2409:	59                   	pop    %ecx
    240a:	56                   	push   %esi
    240b:	e8 a0 d0 00 00       	call   f4b0 <pio_read_32@plt>
    2410:	83 c4 10             	add    $0x10,%esp
    2413:	83 ec 0c             	sub    $0xc,%esp
    2416:	89 45 d8             	mov    %eax,-0x28(%ebp)
    2419:	53                   	push   %ebx
    241a:	e8 d1 d1 00 00       	call   f5f0 <fibril_mutex_unlock@plt>
    241f:	8b 45 e0             	mov    -0x20(%ebp),%eax
    2422:	83 c4 10             	add    $0x10,%esp
    2425:	83 e0 f0             	and    $0xfffffff0,%eax
    2428:	89 c3                	mov    %eax,%ebx
    242a:	8b 45 d8             	mov    -0x28(%ebp),%eax
    242d:	89 c6                	mov    %eax,%esi
    242f:	e9 6d fe ff ff       	jmp    22a1 <pci_read_bar+0x2c1>
    2434:	8d 74 26 00          	lea    0x0(%esi,%eiz,1),%esi
    2438:	52                   	push   %edx
    2439:	52                   	push   %edx
    243a:	8b 50 0c             	mov    0xc(%eax),%edx
    243d:	8b 4d e0             	mov    -0x20(%ebp),%ecx
    2440:	01 d3                	add    %edx,%ebx
    2442:	51                   	push   %ecx
    2443:	53                   	push   %ebx
    2444:	e8 17 d2 00 00       	call   f660 <pio_write_32@plt>
    2449:	83 c4 10             	add    $0x10,%esp
    244c:	e9 c0 fd ff ff       	jmp    2211 <pci_read_bar+0x231>
    2451:	8d b4 26 00 00 00 00 	lea    0x0(%esi,%eiz,1),%esi
    2458:	83 ec 0c             	sub    $0xc,%esp
    245b:	8b 46 0c             	mov    0xc(%esi),%eax
    245e:	01 c3                	add    %eax,%ebx
    2460:	53                   	push   %ebx
    2461:	e8 4a d0 00 00       	call   f4b0 <pio_read_32@plt>
    2466:	83 c4 10             	add    $0x10,%esp
    2469:	89 45 e0             	mov    %eax,-0x20(%ebp)
    246c:	e9 01 fe ff ff       	jmp    2272 <pci_read_bar+0x292>
    2471:	83 ec 0c             	sub    $0xc,%esp
    2474:	8b 46 0c             	mov    0xc(%esi),%eax
    2477:	8b 4d d8             	mov    -0x28(%ebp),%ecx
    247a:	01 c1                	add    %eax,%ecx
    247c:	51                   	push   %ecx
    247d:	e8 2e d0 00 00       	call   f4b0 <pio_read_32@plt>
    2482:	83 c4 10             	add    $0x10,%esp
    2485:	eb 8c                	jmp    2413 <pci_read_bar+0x433>
    2487:	51                   	push   %ecx
    2488:	68 b8 01 00 00       	push   $0x1b8
    248d:	68 97 ef 00 00       	push   $0xef97
    2492:	68 ac d1 00 00       	push   $0xd1ac
    2497:	e8 c4 d0 00 00       	call   f560 <assert_abort@plt>
    249c:	53                   	push   %ebx
    249d:	68 b7 01 00 00       	push   $0x1b7
    24a2:	68 97 ef 00 00       	push   $0xef97
    24a7:	68 97 d1 00 00       	push   $0xd197
    24ac:	e8 af d0 00 00       	call   f560 <assert_abort@plt>
    24b1:	eb 0d                	jmp    24c0 <pci_add_interrupt>
    24b3:	90                   	nop
    24b4:	90                   	nop
    24b5:	90                   	nop
    24b6:	90                   	nop
    24b7:	90                   	nop
    24b8:	90                   	nop
    24b9:	90                   	nop
    24ba:	90                   	nop
    24bb:	90                   	nop
    24bc:	90                   	nop
    24bd:	90                   	nop
    24be:	90                   	nop
    24bf:	90                   	nop

000024c0 <pci_add_interrupt>:
    24c0:	55                   	push   %ebp
    24c1:	89 e5                	mov    %esp,%ebp
    24c3:	56                   	push   %esi
    24c4:	53                   	push   %ebx
    24c5:	8b 55 08             	mov    0x8(%ebp),%edx
    24c8:	8b 5d 0c             	mov    0xc(%ebp),%ebx
    24cb:	8b 4a 24             	mov    0x24(%edx),%ecx
    24ce:	8b 42 20             	mov    0x20(%edx),%eax
    24d1:	85 c9                	test   %ecx,%ecx
    24d3:	74 3c                	je     2511 <pci_add_interrupt+0x51>
    24d5:	83 f8 09             	cmp    $0x9,%eax
    24d8:	77 4c                	ja     2526 <pci_add_interrupt+0x66>
    24da:	8d 34 40             	lea    (%eax,%eax,2),%esi
    24dd:	83 ec 0c             	sub    $0xc,%esp
    24e0:	40                   	inc    %eax
    24e1:	8d 0c f1             	lea    (%ecx,%esi,8),%ecx
    24e4:	89 59 04             	mov    %ebx,0x4(%ecx)
    24e7:	c7 01 00 00 00 00    	movl   $0x0,(%ecx)
    24ed:	89 42 20             	mov    %eax,0x20(%edx)
    24f0:	8b 42 04             	mov    0x4(%edx),%eax
    24f3:	50                   	push   %eax
    24f4:	e8 b7 26 00 00       	call   4bb0 <ddf_fun_get_name>
    24f9:	53                   	push   %ebx
    24fa:	50                   	push   %eax
    24fb:	68 d8 d1 00 00       	push   $0xd1d8
    2500:	6a 03                	push   $0x3
    2502:	e8 f9 2c 00 00       	call   5200 <ddf_msg>
    2507:	83 c4 20             	add    $0x20,%esp
    250a:	8d 65 f8             	lea    -0x8(%ebp),%esp
    250d:	5b                   	pop    %ebx
    250e:	5e                   	pop    %esi
    250f:	5d                   	pop    %ebp
    2510:	c3                   	ret    
    2511:	51                   	push   %ecx
    2512:	68 2a 02 00 00       	push   $0x22a
    2517:	68 97 ef 00 00       	push   $0xef97
    251c:	68 c3 d1 00 00       	push   $0xd1c3
    2521:	e8 3a d0 00 00       	call   f560 <assert_abort@plt>
    2526:	52                   	push   %edx
    2527:	68 2b 02 00 00       	push   $0x22b
    252c:	68 97 ef 00 00       	push   $0xef97
    2531:	68 ac d1 00 00       	push   $0xd1ac
    2536:	e8 25 d0 00 00       	call   f560 <assert_abort@plt>
    253b:	90                   	nop
    253c:	8d 74 26 00          	lea    0x0(%esi,%eiz,1),%esi

00002540 <pci_read_interrupt>:
    2540:	55                   	push   %ebp
    2541:	89 e5                	mov    %esp,%ebp
    2543:	57                   	push   %edi
    2544:	56                   	push   %esi
    2545:	53                   	push   %ebx
    2546:	83 ec 28             	sub    $0x28,%esp
    2549:	8b 5d 08             	mov    0x8(%ebp),%ebx
    254c:	8b 43 08             	mov    0x8(%ebx),%eax
    254f:	8b 53 0c             	mov    0xc(%ebx),%edx
    2552:	c1 e2 0b             	shl    $0xb,%edx
    2555:	8b 73 10             	mov    0x10(%ebx),%esi
    2558:	c1 e0 10             	shl    $0x10,%eax
    255b:	c1 e6 08             	shl    $0x8,%esi
    255e:	09 d0                	or     %edx,%eax
    2560:	83 c8 3c             	or     $0x3c,%eax
    2563:	09 f0                	or     %esi,%eax
    2565:	8b 33                	mov    (%ebx),%esi
    2567:	89 45 e4             	mov    %eax,-0x1c(%ebp)
    256a:	8d 7e 20             	lea    0x20(%esi),%edi
    256d:	57                   	push   %edi
    256e:	e8 0d d3 00 00       	call   f880 <fibril_mutex_lock@plt>
    2573:	8b 4e 04             	mov    0x4(%esi),%ecx
    2576:	83 c4 10             	add    $0x10,%esp
    2579:	85 c9                	test   %ecx,%ecx
    257b:	0f 84 1f 01 00 00    	je     26a0 <pci_read_interrupt+0x160>
    2581:	50                   	push   %eax
    2582:	50                   	push   %eax
    2583:	8b 45 e4             	mov    -0x1c(%ebp),%eax
    2586:	0d 00 00 00 80       	or     $0x80000000,%eax
    258b:	50                   	push   %eax
    258c:	51                   	push   %ecx
    258d:	e8 ce d0 00 00       	call   f660 <pio_write_32@plt>
    2592:	58                   	pop    %eax
    2593:	8b 46 08             	mov    0x8(%esi),%eax
    2596:	50                   	push   %eax
    2597:	e8 14 cf 00 00       	call   f4b0 <pio_read_32@plt>
    259c:	83 c4 10             	add    $0x10,%esp
    259f:	89 45 e4             	mov    %eax,-0x1c(%ebp)
    25a2:	83 ec 0c             	sub    $0xc,%esp
    25a5:	8a 45 e4             	mov    -0x1c(%ebp),%al
    25a8:	88 45 df             	mov    %al,-0x21(%ebp)
    25ab:	57                   	push   %edi
    25ac:	e8 3f d0 00 00       	call   f5f0 <fibril_mutex_unlock@plt>
    25b1:	8b 4b 08             	mov    0x8(%ebx),%ecx
    25b4:	8b 43 0c             	mov    0xc(%ebx),%eax
    25b7:	c1 e0 0b             	shl    $0xb,%eax
    25ba:	8b 33                	mov    (%ebx),%esi
    25bc:	c1 e1 10             	shl    $0x10,%ecx
    25bf:	09 c1                	or     %eax,%ecx
    25c1:	8b 43 10             	mov    0x10(%ebx),%eax
    25c4:	c1 e0 08             	shl    $0x8,%eax
    25c7:	83 c9 3c             	or     $0x3c,%ecx
    25ca:	09 c1                	or     %eax,%ecx
    25cc:	8d 7e 20             	lea    0x20(%esi),%edi
    25cf:	89 3c 24             	mov    %edi,(%esp)
    25d2:	89 4d e0             	mov    %ecx,-0x20(%ebp)
    25d5:	e8 a6 d2 00 00       	call   f880 <fibril_mutex_lock@plt>
    25da:	8b 56 04             	mov    0x4(%esi),%edx
    25dd:	83 c4 10             	add    $0x10,%esp
    25e0:	85 d2                	test   %edx,%edx
    25e2:	0f 84 98 00 00 00    	je     2680 <pci_read_interrupt+0x140>
    25e8:	8b 4d e0             	mov    -0x20(%ebp),%ecx
    25eb:	50                   	push   %eax
    25ec:	81 c9 00 00 00 80    	or     $0x80000000,%ecx
    25f2:	50                   	push   %eax
    25f3:	51                   	push   %ecx
    25f4:	52                   	push   %edx
    25f5:	e8 66 d0 00 00       	call   f660 <pio_write_32@plt>
    25fa:	58                   	pop    %eax
    25fb:	8b 46 08             	mov    0x8(%esi),%eax
    25fe:	50                   	push   %eax
    25ff:	e8 ac ce 00 00       	call   f4b0 <pio_read_32@plt>
    2604:	83 c4 10             	add    $0x10,%esp
    2607:	83 ec 0c             	sub    $0xc,%esp
    260a:	89 45 e0             	mov    %eax,-0x20(%ebp)
    260d:	57                   	push   %edi
    260e:	e8 dd cf 00 00       	call   f5f0 <fibril_mutex_unlock@plt>
    2613:	8b 45 e0             	mov    -0x20(%ebp),%eax
    2616:	83 c4 10             	add    $0x10,%esp
    2619:	c1 e8 08             	shr    $0x8,%eax
    261c:	84 c0                	test   %al,%al
    261e:	74 53                	je     2673 <pci_read_interrupt+0x133>
    2620:	80 7d df ff          	cmpb   $0xff,-0x21(%ebp)
    2624:	74 4d                	je     2673 <pci_read_interrupt+0x133>
    2626:	0f b6 75 e4          	movzbl -0x1c(%ebp),%esi
    262a:	8b 53 24             	mov    0x24(%ebx),%edx
    262d:	81 e6 ff 00 00 00    	and    $0xff,%esi
    2633:	8b 43 20             	mov    0x20(%ebx),%eax
    2636:	85 d2                	test   %edx,%edx
    2638:	0f 84 93 00 00 00    	je     26d1 <pci_read_interrupt+0x191>
    263e:	83 f8 09             	cmp    $0x9,%eax
    2641:	77 79                	ja     26bc <pci_read_interrupt+0x17c>
    2643:	8d 0c 40             	lea    (%eax,%eax,2),%ecx
    2646:	83 ec 0c             	sub    $0xc,%esp
    2649:	40                   	inc    %eax
    264a:	8d 14 ca             	lea    (%edx,%ecx,8),%edx
    264d:	89 72 04             	mov    %esi,0x4(%edx)
    2650:	c7 02 00 00 00 00    	movl   $0x0,(%edx)
    2656:	89 43 20             	mov    %eax,0x20(%ebx)
    2659:	8b 43 04             	mov    0x4(%ebx),%eax
    265c:	50                   	push   %eax
    265d:	e8 4e 25 00 00       	call   4bb0 <ddf_fun_get_name>
    2662:	56                   	push   %esi
    2663:	50                   	push   %eax
    2664:	68 d8 d1 00 00       	push   $0xd1d8
    2669:	6a 03                	push   $0x3
    266b:	e8 90 2b 00 00       	call   5200 <ddf_msg>
    2670:	83 c4 20             	add    $0x20,%esp
    2673:	8d 65 f4             	lea    -0xc(%ebp),%esp
    2676:	5b                   	pop    %ebx
    2677:	5e                   	pop    %esi
    2678:	5f                   	pop    %edi
    2679:	5d                   	pop    %ebp
    267a:	c3                   	ret    
    267b:	90                   	nop
    267c:	8d 74 26 00          	lea    0x0(%esi,%eiz,1),%esi
    2680:	83 ec 0c             	sub    $0xc,%esp
    2683:	8b 46 0c             	mov    0xc(%esi),%eax
    2686:	8b 4d e0             	mov    -0x20(%ebp),%ecx
    2689:	01 c1                	add    %eax,%ecx
    268b:	51                   	push   %ecx
    268c:	e8 1f ce 00 00       	call   f4b0 <pio_read_32@plt>
    2691:	83 c4 10             	add    $0x10,%esp
    2694:	e9 6e ff ff ff       	jmp    2607 <pci_read_interrupt+0xc7>
    2699:	8d b4 26 00 00 00 00 	lea    0x0(%esi,%eiz,1),%esi
    26a0:	83 ec 0c             	sub    $0xc,%esp
    26a3:	8b 56 0c             	mov    0xc(%esi),%edx
    26a6:	8b 45 e4             	mov    -0x1c(%ebp),%eax
    26a9:	01 d0                	add    %edx,%eax
    26ab:	50                   	push   %eax
    26ac:	e8 ff cd 00 00       	call   f4b0 <pio_read_32@plt>
    26b1:	83 c4 10             	add    $0x10,%esp
    26b4:	89 45 e4             	mov    %eax,-0x1c(%ebp)
    26b7:	e9 e6 fe ff ff       	jmp    25a2 <pci_read_interrupt+0x62>
    26bc:	52                   	push   %edx
    26bd:	68 2b 02 00 00       	push   $0x22b
    26c2:	68 97 ef 00 00       	push   $0xef97
    26c7:	68 ac d1 00 00       	push   $0xd1ac
    26cc:	e8 8f ce 00 00       	call   f560 <assert_abort@plt>
    26d1:	51                   	push   %ecx
    26d2:	68 2a 02 00 00       	push   $0x22a
    26d7:	68 97 ef 00 00       	push   $0xef97
    26dc:	68 c3 d1 00 00       	push   $0xd1c3
    26e1:	e8 7a ce 00 00       	call   f560 <assert_abort@plt>
    26e6:	8d 76 00             	lea    0x0(%esi),%esi
    26e9:	8d bc 27 00 00 00 00 	lea    0x0(%edi,%eiz,1),%edi

000026f0 <pci_fun_new>:
    26f0:	55                   	push   %ebp
    26f1:	89 e5                	mov    %esp,%ebp
    26f3:	56                   	push   %esi
    26f4:	53                   	push   %ebx
    26f5:	52                   	push   %edx
    26f6:	8b 75 08             	mov    0x8(%ebp),%esi
    26f9:	6a 00                	push   $0x0
    26fb:	6a 01                	push   $0x1
    26fd:	8b 0e                	mov    (%esi),%ecx
    26ff:	51                   	push   %ecx
    2700:	e8 2b 23 00 00       	call   4a30 <ddf_fun_create>
    2705:	83 c4 10             	add    $0x10,%esp
    2708:	85 c0                	test   %eax,%eax
    270a:	74 24                	je     2730 <pci_fun_new+0x40>
    270c:	89 c3                	mov    %eax,%ebx
    270e:	50                   	push   %eax
    270f:	50                   	push   %eax
    2710:	68 28 01 00 00       	push   $0x128
    2715:	53                   	push   %ebx
    2716:	e8 25 24 00 00       	call   4b40 <ddf_fun_data_alloc>
    271b:	83 c4 10             	add    $0x10,%esp
    271e:	85 c0                	test   %eax,%eax
    2720:	74 05                	je     2727 <pci_fun_new+0x37>
    2722:	89 30                	mov    %esi,(%eax)
    2724:	89 58 04             	mov    %ebx,0x4(%eax)
    2727:	8d 65 f8             	lea    -0x8(%ebp),%esp
    272a:	5b                   	pop    %ebx
    272b:	5e                   	pop    %esi
    272c:	5d                   	pop    %ebp
    272d:	c3                   	ret    
    272e:	66 90                	xchg   %ax,%ax
    2730:	31 c0                	xor    %eax,%eax
    2732:	eb f3                	jmp    2727 <pci_fun_new+0x37>
    2734:	8d b6 00 00 00 00    	lea    0x0(%esi),%esi
    273a:	8d bf 00 00 00 00    	lea    0x0(%edi),%edi

00002740 <pci_fun_init>:
    2740:	55                   	push   %ebp
    2741:	89 e5                	mov    %esp,%ebp
    2743:	57                   	push   %edi
    2744:	56                   	push   %esi
    2745:	53                   	push   %ebx
    2746:	83 ec 28             	sub    $0x28,%esp
    2749:	8b 75 08             	mov    0x8(%ebp),%esi
    274c:	8b 45 10             	mov    0x10(%ebp),%eax
    274f:	8b 4d 14             	mov    0x14(%ebp),%ecx
    2752:	8b 5d 0c             	mov    0xc(%ebp),%ebx
    2755:	8b 3e                	mov    (%esi),%edi
    2757:	89 46 0c             	mov    %eax,0xc(%esi)
    275a:	89 4e 10             	mov    %ecx,0x10(%esi)
    275d:	89 5e 08             	mov    %ebx,0x8(%esi)
    2760:	c1 e1 08             	shl    $0x8,%ecx
    2763:	c1 e0 0b             	shl    $0xb,%eax
    2766:	c1 e3 10             	shl    $0x10,%ebx
    2769:	09 c8                	or     %ecx,%eax
    276b:	09 c3                	or     %eax,%ebx
    276d:	8d 47 20             	lea    0x20(%edi),%eax
    2770:	50                   	push   %eax
    2771:	89 45 e4             	mov    %eax,-0x1c(%ebp)
    2774:	e8 07 d1 00 00       	call   f880 <fibril_mutex_lock@plt>
    2779:	8b 4f 04             	mov    0x4(%edi),%ecx
    277c:	83 c4 10             	add    $0x10,%esp
    277f:	85 c9                	test   %ecx,%ecx
    2781:	0f 84 11 04 00 00    	je     2b98 <pci_fun_init+0x458>
    2787:	50                   	push   %eax
    2788:	50                   	push   %eax
    2789:	89 d8                	mov    %ebx,%eax
    278b:	0d 00 00 00 80       	or     $0x80000000,%eax
    2790:	50                   	push   %eax
    2791:	51                   	push   %ecx
    2792:	e8 c9 ce 00 00       	call   f660 <pio_write_32@plt>
    2797:	8b 57 08             	mov    0x8(%edi),%edx
    279a:	58                   	pop    %eax
    279b:	52                   	push   %edx
    279c:	e8 0f cd 00 00       	call   f4b0 <pio_read_32@plt>
    27a1:	83 c4 10             	add    $0x10,%esp
    27a4:	89 c3                	mov    %eax,%ebx
    27a6:	83 ec 0c             	sub    $0xc,%esp
    27a9:	8b 45 e4             	mov    -0x1c(%ebp),%eax
    27ac:	50                   	push   %eax
    27ad:	e8 3e ce 00 00       	call   f5f0 <fibril_mutex_unlock@plt>
    27b2:	8b 46 08             	mov    0x8(%esi),%eax
    27b5:	8b 4e 0c             	mov    0xc(%esi),%ecx
    27b8:	c1 e1 0b             	shl    $0xb,%ecx
    27bb:	8b 3e                	mov    (%esi),%edi
    27bd:	c1 e0 10             	shl    $0x10,%eax
    27c0:	66 89 5e 14          	mov    %bx,0x14(%esi)
    27c4:	8b 5e 10             	mov    0x10(%esi),%ebx
    27c7:	09 c8                	or     %ecx,%eax
    27c9:	c1 e3 08             	shl    $0x8,%ebx
    27cc:	09 d8                	or     %ebx,%eax
    27ce:	8d 5f 20             	lea    0x20(%edi),%ebx
    27d1:	89 1c 24             	mov    %ebx,(%esp)
    27d4:	89 45 e4             	mov    %eax,-0x1c(%ebp)
    27d7:	e8 a4 d0 00 00       	call   f880 <fibril_mutex_lock@plt>
    27dc:	8b 4f 04             	mov    0x4(%edi),%ecx
    27df:	83 c4 10             	add    $0x10,%esp
    27e2:	85 c9                	test   %ecx,%ecx
    27e4:	0f 84 c6 03 00 00    	je     2bb0 <pci_fun_init+0x470>
    27ea:	50                   	push   %eax
    27eb:	50                   	push   %eax
    27ec:	8b 45 e4             	mov    -0x1c(%ebp),%eax
    27ef:	0d 00 00 00 80       	or     $0x80000000,%eax
    27f4:	50                   	push   %eax
    27f5:	51                   	push   %ecx
    27f6:	e8 65 ce 00 00       	call   f660 <pio_write_32@plt>
    27fb:	58                   	pop    %eax
    27fc:	8b 47 08             	mov    0x8(%edi),%eax
    27ff:	50                   	push   %eax
    2800:	e8 ab cc 00 00       	call   f4b0 <pio_read_32@plt>
    2805:	83 c4 10             	add    $0x10,%esp
    2808:	83 ec 0c             	sub    $0xc,%esp
    280b:	89 45 e4             	mov    %eax,-0x1c(%ebp)
    280e:	53                   	push   %ebx
    280f:	e8 dc cd 00 00       	call   f5f0 <fibril_mutex_unlock@plt>
    2814:	8b 45 e4             	mov    -0x1c(%ebp),%eax
    2817:	8b 4e 0c             	mov    0xc(%esi),%ecx
    281a:	c1 e8 10             	shr    $0x10,%eax
    281d:	8b 3e                	mov    (%esi),%edi
    281f:	66 89 46 16          	mov    %ax,0x16(%esi)
    2823:	8b 46 08             	mov    0x8(%esi),%eax
    2826:	c1 e1 0b             	shl    $0xb,%ecx
    2829:	8b 5e 10             	mov    0x10(%esi),%ebx
    282c:	c1 e0 10             	shl    $0x10,%eax
    282f:	c1 e3 08             	shl    $0x8,%ebx
    2832:	09 c8                	or     %ecx,%eax
    2834:	83 c8 04             	or     $0x4,%eax
    2837:	09 c3                	or     %eax,%ebx
    2839:	8d 47 20             	lea    0x20(%edi),%eax
    283c:	89 04 24             	mov    %eax,(%esp)
    283f:	89 45 e4             	mov    %eax,-0x1c(%ebp)
    2842:	e8 39 d0 00 00       	call   f880 <fibril_mutex_lock@plt>
    2847:	8b 4f 04             	mov    0x4(%edi),%ecx
    284a:	83 c4 10             	add    $0x10,%esp
    284d:	85 c9                	test   %ecx,%ecx
    284f:	0f 84 7b 03 00 00    	je     2bd0 <pci_fun_init+0x490>
    2855:	50                   	push   %eax
    2856:	50                   	push   %eax
    2857:	89 d8                	mov    %ebx,%eax
    2859:	0d 00 00 00 80       	or     $0x80000000,%eax
    285e:	50                   	push   %eax
    285f:	51                   	push   %ecx
    2860:	e8 fb cd 00 00       	call   f660 <pio_write_32@plt>
    2865:	58                   	pop    %eax
    2866:	8b 47 08             	mov    0x8(%edi),%eax
    2869:	50                   	push   %eax
    286a:	e8 41 cc 00 00       	call   f4b0 <pio_read_32@plt>
    286f:	83 c4 10             	add    $0x10,%esp
    2872:	89 c3                	mov    %eax,%ebx
    2874:	83 ec 0c             	sub    $0xc,%esp
    2877:	8b 7d e4             	mov    -0x1c(%ebp),%edi
    287a:	57                   	push   %edi
    287b:	e8 70 cd 00 00       	call   f5f0 <fibril_mutex_unlock@plt>
    2880:	89 d8                	mov    %ebx,%eax
    2882:	8b 4e 0c             	mov    0xc(%esi),%ecx
    2885:	83 c8 04             	or     $0x4,%eax
    2888:	8b 3e                	mov    (%esi),%edi
    288a:	66 89 46 18          	mov    %ax,0x18(%esi)
    288e:	66 89 45 e2          	mov    %ax,-0x1e(%ebp)
    2892:	c1 e1 0b             	shl    $0xb,%ecx
    2895:	8b 46 08             	mov    0x8(%esi),%eax
    2898:	c1 e0 10             	shl    $0x10,%eax
    289b:	09 c8                	or     %ecx,%eax
    289d:	8b 4e 10             	mov    0x10(%esi),%ecx
    28a0:	c1 e1 08             	shl    $0x8,%ecx
    28a3:	83 c8 04             	or     $0x4,%eax
    28a6:	09 c8                	or     %ecx,%eax
    28a8:	89 45 e4             	mov    %eax,-0x1c(%ebp)
    28ab:	89 c3                	mov    %eax,%ebx
    28ad:	8d 47 20             	lea    0x20(%edi),%eax
    28b0:	89 04 24             	mov    %eax,(%esp)
    28b3:	89 45 dc             	mov    %eax,-0x24(%ebp)
    28b6:	e8 c5 cf 00 00       	call   f880 <fibril_mutex_lock@plt>
    28bb:	8b 47 04             	mov    0x4(%edi),%eax
    28be:	83 c4 10             	add    $0x10,%esp
    28c1:	85 c0                	test   %eax,%eax
    28c3:	0f 84 37 02 00 00    	je     2b00 <pci_fun_init+0x3c0>
    28c9:	89 d9                	mov    %ebx,%ecx
    28cb:	52                   	push   %edx
    28cc:	81 c9 00 00 00 80    	or     $0x80000000,%ecx
    28d2:	52                   	push   %edx
    28d3:	51                   	push   %ecx
    28d4:	50                   	push   %eax
    28d5:	e8 86 cd 00 00       	call   f660 <pio_write_32@plt>
    28da:	8b 5f 08             	mov    0x8(%edi),%ebx
    28dd:	59                   	pop    %ecx
    28de:	53                   	push   %ebx
    28df:	e8 cc cb 00 00       	call   f4b0 <pio_read_32@plt>
    28e4:	83 c4 10             	add    $0x10,%esp
    28e7:	31 db                	xor    %ebx,%ebx
    28e9:	25 00 00 ff ff       	and    $0xffff0000,%eax
    28ee:	66 8b 5d e2          	mov    -0x1e(%ebp),%bx
    28f2:	09 c3                	or     %eax,%ebx
    28f4:	8b 47 04             	mov    0x4(%edi),%eax
    28f7:	85 c0                	test   %eax,%eax
    28f9:	0f 84 e1 01 00 00    	je     2ae0 <pci_fun_init+0x3a0>
    28ff:	51                   	push   %ecx
    2900:	51                   	push   %ecx
    2901:	8b 4d e4             	mov    -0x1c(%ebp),%ecx
    2904:	81 c9 00 00 00 80    	or     $0x80000000,%ecx
    290a:	51                   	push   %ecx
    290b:	50                   	push   %eax
    290c:	e8 4f cd 00 00       	call   f660 <pio_write_32@plt>
    2911:	8b 4f 08             	mov    0x8(%edi),%ecx
    2914:	58                   	pop    %eax
    2915:	5a                   	pop    %edx
    2916:	53                   	push   %ebx
    2917:	51                   	push   %ecx
    2918:	e8 43 cd 00 00       	call   f660 <pio_write_32@plt>
    291d:	83 c4 10             	add    $0x10,%esp
    2920:	83 ec 0c             	sub    $0xc,%esp
    2923:	8b 45 dc             	mov    -0x24(%ebp),%eax
    2926:	50                   	push   %eax
    2927:	e8 c4 cc 00 00       	call   f5f0 <fibril_mutex_unlock@plt>
    292c:	8b 46 08             	mov    0x8(%esi),%eax
    292f:	8b 4e 0c             	mov    0xc(%esi),%ecx
    2932:	c1 e1 0b             	shl    $0xb,%ecx
    2935:	8b 3e                	mov    (%esi),%edi
    2937:	c1 e0 10             	shl    $0x10,%eax
    293a:	8b 5e 10             	mov    0x10(%esi),%ebx
    293d:	c1 e3 08             	shl    $0x8,%ebx
    2940:	09 c8                	or     %ecx,%eax
    2942:	83 c8 08             	or     $0x8,%eax
    2945:	09 d8                	or     %ebx,%eax
    2947:	8d 5f 20             	lea    0x20(%edi),%ebx
    294a:	89 1c 24             	mov    %ebx,(%esp)
    294d:	89 45 e4             	mov    %eax,-0x1c(%ebp)
    2950:	e8 2b cf 00 00       	call   f880 <fibril_mutex_lock@plt>
    2955:	8b 4f 04             	mov    0x4(%edi),%ecx
    2958:	83 c4 10             	add    $0x10,%esp
    295b:	85 c9                	test   %ecx,%ecx
    295d:	0f 84 bd 01 00 00    	je     2b20 <pci_fun_init+0x3e0>
    2963:	50                   	push   %eax
    2964:	50                   	push   %eax
    2965:	8b 45 e4             	mov    -0x1c(%ebp),%eax
    2968:	0d 00 00 00 80       	or     $0x80000000,%eax
    296d:	50                   	push   %eax
    296e:	51                   	push   %ecx
    296f:	e8 ec cc 00 00       	call   f660 <pio_write_32@plt>
    2974:	58                   	pop    %eax
    2975:	8b 47 08             	mov    0x8(%edi),%eax
    2978:	50                   	push   %eax
    2979:	e8 32 cb 00 00       	call   f4b0 <pio_read_32@plt>
    297e:	83 c4 10             	add    $0x10,%esp
    2981:	83 ec 0c             	sub    $0xc,%esp
    2984:	89 45 e4             	mov    %eax,-0x1c(%ebp)
    2987:	53                   	push   %ebx
    2988:	e8 63 cc 00 00       	call   f5f0 <fibril_mutex_unlock@plt>
    298d:	8b 45 e4             	mov    -0x1c(%ebp),%eax
    2990:	8b 4e 0c             	mov    0xc(%esi),%ecx
    2993:	c1 e8 18             	shr    $0x18,%eax
    2996:	8b 3e                	mov    (%esi),%edi
    2998:	88 46 1a             	mov    %al,0x1a(%esi)
    299b:	8b 46 08             	mov    0x8(%esi),%eax
    299e:	c1 e1 0b             	shl    $0xb,%ecx
    29a1:	8b 5e 10             	mov    0x10(%esi),%ebx
    29a4:	c1 e0 10             	shl    $0x10,%eax
    29a7:	c1 e3 08             	shl    $0x8,%ebx
    29aa:	09 c8                	or     %ecx,%eax
    29ac:	83 c8 08             	or     $0x8,%eax
    29af:	09 d8                	or     %ebx,%eax
    29b1:	8d 5f 20             	lea    0x20(%edi),%ebx
    29b4:	89 1c 24             	mov    %ebx,(%esp)
    29b7:	89 45 e4             	mov    %eax,-0x1c(%ebp)
    29ba:	e8 c1 ce 00 00       	call   f880 <fibril_mutex_lock@plt>
    29bf:	8b 4f 04             	mov    0x4(%edi),%ecx
    29c2:	83 c4 10             	add    $0x10,%esp
    29c5:	85 c9                	test   %ecx,%ecx
    29c7:	0f 84 73 01 00 00    	je     2b40 <pci_fun_init+0x400>
    29cd:	50                   	push   %eax
    29ce:	50                   	push   %eax
    29cf:	8b 45 e4             	mov    -0x1c(%ebp),%eax
    29d2:	0d 00 00 00 80       	or     $0x80000000,%eax
    29d7:	50                   	push   %eax
    29d8:	51                   	push   %ecx
    29d9:	e8 82 cc 00 00       	call   f660 <pio_write_32@plt>
    29de:	58                   	pop    %eax
    29df:	8b 47 08             	mov    0x8(%edi),%eax
    29e2:	50                   	push   %eax
    29e3:	e8 c8 ca 00 00       	call   f4b0 <pio_read_32@plt>
    29e8:	83 c4 10             	add    $0x10,%esp
    29eb:	83 ec 0c             	sub    $0xc,%esp
    29ee:	89 45 e4             	mov    %eax,-0x1c(%ebp)
    29f1:	53                   	push   %ebx
    29f2:	e8 f9 cb 00 00       	call   f5f0 <fibril_mutex_unlock@plt>
    29f7:	8b 45 e4             	mov    -0x1c(%ebp),%eax
    29fa:	8b 4e 0c             	mov    0xc(%esi),%ecx
    29fd:	c1 e8 10             	shr    $0x10,%eax
    2a00:	8b 3e                	mov    (%esi),%edi
    2a02:	88 46 1b             	mov    %al,0x1b(%esi)
    2a05:	8b 46 08             	mov    0x8(%esi),%eax
    2a08:	c1 e1 0b             	shl    $0xb,%ecx
    2a0b:	8b 5e 10             	mov    0x10(%esi),%ebx
    2a0e:	c1 e0 10             	shl    $0x10,%eax
    2a11:	c1 e3 08             	shl    $0x8,%ebx
    2a14:	09 c8                	or     %ecx,%eax
    2a16:	83 c8 08             	or     $0x8,%eax
    2a19:	09 d8                	or     %ebx,%eax
    2a1b:	8d 5f 20             	lea    0x20(%edi),%ebx
    2a1e:	89 1c 24             	mov    %ebx,(%esp)
    2a21:	89 45 e4             	mov    %eax,-0x1c(%ebp)
    2a24:	e8 57 ce 00 00       	call   f880 <fibril_mutex_lock@plt>
    2a29:	8b 4f 04             	mov    0x4(%edi),%ecx
    2a2c:	83 c4 10             	add    $0x10,%esp
    2a2f:	85 c9                	test   %ecx,%ecx
    2a31:	0f 84 29 01 00 00    	je     2b60 <pci_fun_init+0x420>
    2a37:	50                   	push   %eax
    2a38:	50                   	push   %eax
    2a39:	8b 45 e4             	mov    -0x1c(%ebp),%eax
    2a3c:	0d 00 00 00 80       	or     $0x80000000,%eax
    2a41:	50                   	push   %eax
    2a42:	51                   	push   %ecx
    2a43:	e8 18 cc 00 00       	call   f660 <pio_write_32@plt>
    2a48:	58                   	pop    %eax
    2a49:	8b 47 08             	mov    0x8(%edi),%eax
    2a4c:	50                   	push   %eax
    2a4d:	e8 5e ca 00 00       	call   f4b0 <pio_read_32@plt>
    2a52:	83 c4 10             	add    $0x10,%esp
    2a55:	83 ec 0c             	sub    $0xc,%esp
    2a58:	89 45 e4             	mov    %eax,-0x1c(%ebp)
    2a5b:	53                   	push   %ebx
    2a5c:	e8 8f cb 00 00       	call   f5f0 <fibril_mutex_unlock@plt>
    2a61:	8b 45 e4             	mov    -0x1c(%ebp),%eax
    2a64:	8b 4e 0c             	mov    0xc(%esi),%ecx
    2a67:	c1 e8 08             	shr    $0x8,%eax
    2a6a:	8b 3e                	mov    (%esi),%edi
    2a6c:	88 46 1c             	mov    %al,0x1c(%esi)
    2a6f:	8b 46 08             	mov    0x8(%esi),%eax
    2a72:	c1 e1 0b             	shl    $0xb,%ecx
    2a75:	8b 5e 10             	mov    0x10(%esi),%ebx
    2a78:	c1 e0 10             	shl    $0x10,%eax
    2a7b:	c1 e3 08             	shl    $0x8,%ebx
    2a7e:	09 c8                	or     %ecx,%eax
    2a80:	83 c8 08             	or     $0x8,%eax
    2a83:	09 c3                	or     %eax,%ebx
    2a85:	8d 47 20             	lea    0x20(%edi),%eax
    2a88:	89 04 24             	mov    %eax,(%esp)
    2a8b:	89 45 e4             	mov    %eax,-0x1c(%ebp)
    2a8e:	e8 ed cd 00 00       	call   f880 <fibril_mutex_lock@plt>
    2a93:	8b 4f 04             	mov    0x4(%edi),%ecx
    2a96:	83 c4 10             	add    $0x10,%esp
    2a99:	85 c9                	test   %ecx,%ecx
    2a9b:	0f 84 df 00 00 00    	je     2b80 <pci_fun_init+0x440>
    2aa1:	89 d8                	mov    %ebx,%eax
    2aa3:	52                   	push   %edx
    2aa4:	0d 00 00 00 80       	or     $0x80000000,%eax
    2aa9:	52                   	push   %edx
    2aaa:	50                   	push   %eax
    2aab:	51                   	push   %ecx
    2aac:	e8 af cb 00 00       	call   f660 <pio_write_32@plt>
    2ab1:	8b 5f 08             	mov    0x8(%edi),%ebx
    2ab4:	59                   	pop    %ecx
    2ab5:	53                   	push   %ebx
    2ab6:	e8 f5 c9 00 00       	call   f4b0 <pio_read_32@plt>
    2abb:	83 c4 10             	add    $0x10,%esp
    2abe:	89 c3                	mov    %eax,%ebx
    2ac0:	83 ec 0c             	sub    $0xc,%esp
    2ac3:	8b 45 e4             	mov    -0x1c(%ebp),%eax
    2ac6:	50                   	push   %eax
    2ac7:	e8 24 cb 00 00       	call   f5f0 <fibril_mutex_unlock@plt>
    2acc:	88 5e 1d             	mov    %bl,0x1d(%esi)
    2acf:	83 c4 10             	add    $0x10,%esp
    2ad2:	8d 65 f4             	lea    -0xc(%ebp),%esp
    2ad5:	5b                   	pop    %ebx
    2ad6:	5e                   	pop    %esi
    2ad7:	5f                   	pop    %edi
    2ad8:	5d                   	pop    %ebp
    2ad9:	c3                   	ret    
    2ada:	8d b6 00 00 00 00    	lea    0x0(%esi),%esi
    2ae0:	50                   	push   %eax
    2ae1:	50                   	push   %eax
    2ae2:	8b 57 0c             	mov    0xc(%edi),%edx
    2ae5:	8b 45 e4             	mov    -0x1c(%ebp),%eax
    2ae8:	01 d0                	add    %edx,%eax
    2aea:	53                   	push   %ebx
    2aeb:	50                   	push   %eax
    2aec:	e8 6f cb 00 00       	call   f660 <pio_write_32@plt>
    2af1:	83 c4 10             	add    $0x10,%esp
    2af4:	e9 27 fe ff ff       	jmp    2920 <pci_fun_init+0x1e0>
    2af9:	8d b4 26 00 00 00 00 	lea    0x0(%esi,%eiz,1),%esi
    2b00:	83 ec 0c             	sub    $0xc,%esp
    2b03:	8b 5f 0c             	mov    0xc(%edi),%ebx
    2b06:	8b 45 e4             	mov    -0x1c(%ebp),%eax
    2b09:	01 d8                	add    %ebx,%eax
    2b0b:	50                   	push   %eax
    2b0c:	e8 9f c9 00 00       	call   f4b0 <pio_read_32@plt>
    2b11:	83 c4 10             	add    $0x10,%esp
    2b14:	e9 ce fd ff ff       	jmp    28e7 <pci_fun_init+0x1a7>
    2b19:	8d b4 26 00 00 00 00 	lea    0x0(%esi,%eiz,1),%esi
    2b20:	83 ec 0c             	sub    $0xc,%esp
    2b23:	8b 57 0c             	mov    0xc(%edi),%edx
    2b26:	8b 45 e4             	mov    -0x1c(%ebp),%eax
    2b29:	01 d0                	add    %edx,%eax
    2b2b:	50                   	push   %eax
    2b2c:	e8 7f c9 00 00       	call   f4b0 <pio_read_32@plt>
    2b31:	83 c4 10             	add    $0x10,%esp
    2b34:	e9 48 fe ff ff       	jmp    2981 <pci_fun_init+0x241>
    2b39:	8d b4 26 00 00 00 00 	lea    0x0(%esi,%eiz,1),%esi
    2b40:	83 ec 0c             	sub    $0xc,%esp
    2b43:	8b 57 0c             	mov    0xc(%edi),%edx
    2b46:	8b 45 e4             	mov    -0x1c(%ebp),%eax
    2b49:	01 d0                	add    %edx,%eax
    2b4b:	50                   	push   %eax
    2b4c:	e8 5f c9 00 00       	call   f4b0 <pio_read_32@plt>
    2b51:	83 c4 10             	add    $0x10,%esp
    2b54:	e9 92 fe ff ff       	jmp    29eb <pci_fun_init+0x2ab>
    2b59:	8d b4 26 00 00 00 00 	lea    0x0(%esi,%eiz,1),%esi
    2b60:	83 ec 0c             	sub    $0xc,%esp
    2b63:	8b 57 0c             	mov    0xc(%edi),%edx
    2b66:	8b 45 e4             	mov    -0x1c(%ebp),%eax
    2b69:	01 d0                	add    %edx,%eax
    2b6b:	50                   	push   %eax
    2b6c:	e8 3f c9 00 00       	call   f4b0 <pio_read_32@plt>
    2b71:	83 c4 10             	add    $0x10,%esp
    2b74:	e9 dc fe ff ff       	jmp    2a55 <pci_fun_init+0x315>
    2b79:	8d b4 26 00 00 00 00 	lea    0x0(%esi,%eiz,1),%esi
    2b80:	83 ec 0c             	sub    $0xc,%esp
    2b83:	8b 47 0c             	mov    0xc(%edi),%eax
    2b86:	01 d8                	add    %ebx,%eax
    2b88:	50                   	push   %eax
    2b89:	e8 22 c9 00 00       	call   f4b0 <pio_read_32@plt>
    2b8e:	83 c4 10             	add    $0x10,%esp
    2b91:	89 c3                	mov    %eax,%ebx
    2b93:	e9 28 ff ff ff       	jmp    2ac0 <pci_fun_init+0x380>
    2b98:	83 ec 0c             	sub    $0xc,%esp
    2b9b:	8b 47 0c             	mov    0xc(%edi),%eax
    2b9e:	01 d8                	add    %ebx,%eax
    2ba0:	50                   	push   %eax
    2ba1:	e8 0a c9 00 00       	call   f4b0 <pio_read_32@plt>
    2ba6:	83 c4 10             	add    $0x10,%esp
    2ba9:	89 c3                	mov    %eax,%ebx
    2bab:	e9 f6 fb ff ff       	jmp    27a6 <pci_fun_init+0x66>
    2bb0:	83 ec 0c             	sub    $0xc,%esp
    2bb3:	8b 57 0c             	mov    0xc(%edi),%edx
    2bb6:	8b 45 e4             	mov    -0x1c(%ebp),%eax
    2bb9:	01 d0                	add    %edx,%eax
    2bbb:	50                   	push   %eax
    2bbc:	e8 ef c8 00 00       	call   f4b0 <pio_read_32@plt>
    2bc1:	83 c4 10             	add    $0x10,%esp
    2bc4:	e9 3f fc ff ff       	jmp    2808 <pci_fun_init+0xc8>
    2bc9:	8d b4 26 00 00 00 00 	lea    0x0(%esi,%eiz,1),%esi
    2bd0:	83 ec 0c             	sub    $0xc,%esp
    2bd3:	8b 47 0c             	mov    0xc(%edi),%eax
    2bd6:	01 d8                	add    %ebx,%eax
    2bd8:	50                   	push   %eax
    2bd9:	e8 d2 c8 00 00       	call   f4b0 <pio_read_32@plt>
    2bde:	83 c4 10             	add    $0x10,%esp
    2be1:	89 c3                	mov    %eax,%ebx
    2be3:	e9 8c fc ff ff       	jmp    2874 <pci_fun_init+0x134>
    2be8:	90                   	nop
    2be9:	8d b4 26 00 00 00 00 	lea    0x0(%esi,%eiz,1),%esi

00002bf0 <pci_bus_scan>:
    2bf0:	55                   	push   %ebp
    2bf1:	89 e5                	mov    %esp,%ebp
    2bf3:	57                   	push   %edi
    2bf4:	56                   	push   %esi
    2bf5:	53                   	push   %ebx
    2bf6:	83 ec 5c             	sub    $0x5c,%esp
    2bf9:	c7 45 ac 00 00 00 00 	movl   $0x0,-0x54(%ebp)
    2c00:	c7 45 b8 00 00 00 00 	movl   $0x0,-0x48(%ebp)
    2c07:	90                   	nop
    2c08:	8b 45 08             	mov    0x8(%ebp),%eax
    2c0b:	52                   	push   %edx
    2c0c:	6a 00                	push   $0x0
    2c0e:	6a 01                	push   $0x1
    2c10:	8b 08                	mov    (%eax),%ecx
    2c12:	51                   	push   %ecx
    2c13:	e8 18 1e 00 00       	call   4a30 <ddf_fun_create>
    2c18:	83 c4 10             	add    $0x10,%esp
    2c1b:	89 c6                	mov    %eax,%esi
    2c1d:	85 c0                	test   %eax,%eax
    2c1f:	0f 84 94 06 00 00    	je     32b9 <pci_bus_scan+0x6c9>
    2c25:	50                   	push   %eax
    2c26:	50                   	push   %eax
    2c27:	68 28 01 00 00       	push   $0x128
    2c2c:	56                   	push   %esi
    2c2d:	e8 0e 1f 00 00       	call   4b40 <ddf_fun_data_alloc>
    2c32:	83 c4 10             	add    $0x10,%esp
    2c35:	89 c3                	mov    %eax,%ebx
    2c37:	85 c0                	test   %eax,%eax
    2c39:	0f 84 7a 06 00 00    	je     32b9 <pci_bus_scan+0x6c9>
    2c3f:	8b 45 08             	mov    0x8(%ebp),%eax
    2c42:	89 73 04             	mov    %esi,0x4(%ebx)
    2c45:	89 03                	mov    %eax,(%ebx)
    2c47:	8b 45 b8             	mov    -0x48(%ebp),%eax
    2c4a:	50                   	push   %eax
    2c4b:	8b 45 ac             	mov    -0x54(%ebp),%eax
    2c4e:	50                   	push   %eax
    2c4f:	8b 45 0c             	mov    0xc(%ebp),%eax
    2c52:	50                   	push   %eax
    2c53:	53                   	push   %ebx
    2c54:	e8 e7 fa ff ff       	call   2740 <pci_fun_init>
    2c59:	83 c4 10             	add    $0x10,%esp
    2c5c:	66 83 7b 14 ff       	cmpw   $0xffff,0x14(%ebx)
    2c61:	0f 84 91 07 00 00    	je     33f8 <pci_bus_scan+0x808>
    2c67:	8b 53 08             	mov    0x8(%ebx),%edx
    2c6a:	8b 43 0c             	mov    0xc(%ebx),%eax
    2c6d:	c1 e2 10             	shl    $0x10,%edx
    2c70:	8b 3b                	mov    (%ebx),%edi
    2c72:	c1 e0 0b             	shl    $0xb,%eax
    2c75:	83 ec 0c             	sub    $0xc,%esp
    2c78:	09 d0                	or     %edx,%eax
    2c7a:	8d 77 20             	lea    0x20(%edi),%esi
    2c7d:	83 c8 0c             	or     $0xc,%eax
    2c80:	89 c2                	mov    %eax,%edx
    2c82:	8b 43 10             	mov    0x10(%ebx),%eax
    2c85:	c1 e0 08             	shl    $0x8,%eax
    2c88:	56                   	push   %esi
    2c89:	09 c2                	or     %eax,%edx
    2c8b:	89 55 d4             	mov    %edx,-0x2c(%ebp)
    2c8e:	e8 ed cb 00 00       	call   f880 <fibril_mutex_lock@plt>
    2c93:	8b 47 04             	mov    0x4(%edi),%eax
    2c96:	83 c4 10             	add    $0x10,%esp
    2c99:	85 c0                	test   %eax,%eax
    2c9b:	0f 84 e7 07 00 00    	je     3488 <pci_bus_scan+0x898>
    2ca1:	52                   	push   %edx
    2ca2:	52                   	push   %edx
    2ca3:	8b 55 d4             	mov    -0x2c(%ebp),%edx
    2ca6:	81 ca 00 00 00 80    	or     $0x80000000,%edx
    2cac:	52                   	push   %edx
    2cad:	50                   	push   %eax
    2cae:	e8 ad c9 00 00       	call   f660 <pio_write_32@plt>
    2cb3:	8b 7f 08             	mov    0x8(%edi),%edi
    2cb6:	59                   	pop    %ecx
    2cb7:	57                   	push   %edi
    2cb8:	e8 f3 c7 00 00       	call   f4b0 <pio_read_32@plt>
    2cbd:	83 c4 10             	add    $0x10,%esp
    2cc0:	c1 e8 10             	shr    $0x10,%eax
    2cc3:	83 ec 0c             	sub    $0xc,%esp
    2cc6:	89 c7                	mov    %eax,%edi
    2cc8:	89 45 a4             	mov    %eax,-0x5c(%ebp)
    2ccb:	56                   	push   %esi
    2ccc:	e8 1f c9 00 00       	call   f5f0 <fibril_mutex_unlock@plt>
    2cd1:	8b 55 b8             	mov    -0x48(%ebp),%edx
    2cd4:	83 c4 10             	add    $0x10,%esp
    2cd7:	b0 01                	mov    $0x1,%al
    2cd9:	85 d2                	test   %edx,%edx
    2cdb:	75 05                	jne    2ce2 <pci_bus_scan+0xf2>
    2cdd:	89 f8                	mov    %edi,%eax
    2cdf:	c0 e8 07             	shr    $0x7,%al
    2ce2:	83 ec 0c             	sub    $0xc,%esp
    2ce5:	83 e0 01             	and    $0x1,%eax
    2ce8:	88 45 ab             	mov    %al,-0x55(%ebp)
    2ceb:	8b 43 10             	mov    0x10(%ebx),%eax
    2cee:	50                   	push   %eax
    2cef:	c7 45 e4 00 00 00 00 	movl   $0x0,-0x1c(%ebp)
    2cf6:	8b 43 0c             	mov    0xc(%ebx),%eax
    2cf9:	50                   	push   %eax
    2cfa:	8b 43 08             	mov    0x8(%ebx),%eax
    2cfd:	50                   	push   %eax
    2cfe:	8d 45 e4             	lea    -0x1c(%ebp),%eax
    2d01:	68 f1 d1 00 00       	push   $0xd1f1
    2d06:	50                   	push   %eax
    2d07:	e8 f4 c9 00 00       	call   f700 <asprintf@plt>
    2d0c:	8b 7d e4             	mov    -0x1c(%ebp),%edi
    2d0f:	83 c4 20             	add    $0x20,%esp
    2d12:	85 ff                	test   %edi,%edi
    2d14:	0f 84 c8 08 00 00    	je     35e2 <pci_bus_scan+0x9f2>
    2d1a:	50                   	push   %eax
    2d1b:	50                   	push   %eax
    2d1c:	8b 43 04             	mov    0x4(%ebx),%eax
    2d1f:	57                   	push   %edi
    2d20:	50                   	push   %eax
    2d21:	e8 9a 1c 00 00       	call   49c0 <ddf_fun_set_name>
    2d26:	89 c6                	mov    %eax,%esi
    2d28:	89 3c 24             	mov    %edi,(%esp)
    2d2b:	e8 30 cb 00 00       	call   f860 <free@plt>
    2d30:	83 c4 10             	add    $0x10,%esp
    2d33:	85 f6                	test   %esi,%esi
    2d35:	0f 85 56 08 00 00    	jne    3591 <pci_bus_scan+0x9a1>
    2d3b:	8d 43 28             	lea    0x28(%ebx),%eax
    2d3e:	c7 45 d4 10 00 00 00 	movl   $0x10,-0x2c(%ebp)
    2d45:	89 43 24             	mov    %eax,0x24(%ebx)
    2d48:	89 df                	mov    %ebx,%edi
    2d4a:	e9 12 01 00 00       	jmp    2e61 <pci_bus_scan+0x271>
    2d4f:	90                   	nop
    2d50:	89 d0                	mov    %edx,%eax
    2d52:	d1 e8                	shr    %eax
    2d54:	83 e0 03             	and    $0x3,%eax
    2d57:	0f 84 0b 05 00 00    	je     3268 <pci_bus_scan+0x678>
    2d5d:	83 f8 02             	cmp    $0x2,%eax
    2d60:	0f 85 f7 02 00 00    	jne    305d <pci_bus_scan+0x46d>
    2d66:	c6 45 c8 01          	movb   $0x1,-0x38(%ebp)
    2d6a:	c7 45 bc f0 ff ff ff 	movl   $0xfffffff0,-0x44(%ebp)
    2d71:	8b 77 08             	mov    0x8(%edi),%esi
    2d74:	8b 47 0c             	mov    0xc(%edi),%eax
    2d77:	c1 e0 0b             	shl    $0xb,%eax
    2d7a:	8b 5d d0             	mov    -0x30(%ebp),%ebx
    2d7d:	c1 e6 10             	shl    $0x10,%esi
    2d80:	83 ec 0c             	sub    $0xc,%esp
    2d83:	09 c6                	or     %eax,%esi
    2d85:	8b 47 10             	mov    0x10(%edi),%eax
    2d88:	c1 e0 08             	shl    $0x8,%eax
    2d8b:	09 c6                	or     %eax,%esi
    2d8d:	09 de                	or     %ebx,%esi
    2d8f:	8b 1f                	mov    (%edi),%ebx
    2d91:	8d 43 20             	lea    0x20(%ebx),%eax
    2d94:	50                   	push   %eax
    2d95:	89 45 c4             	mov    %eax,-0x3c(%ebp)
    2d98:	e8 e3 ca 00 00       	call   f880 <fibril_mutex_lock@plt>
    2d9d:	8b 4b 04             	mov    0x4(%ebx),%ecx
    2da0:	83 c4 10             	add    $0x10,%esp
    2da3:	85 c9                	test   %ecx,%ecx
    2da5:	0f 84 dd 04 00 00    	je     3288 <pci_bus_scan+0x698>
    2dab:	81 ce 00 00 00 80    	or     $0x80000000,%esi
    2db1:	50                   	push   %eax
    2db2:	50                   	push   %eax
    2db3:	56                   	push   %esi
    2db4:	51                   	push   %ecx
    2db5:	e8 a6 c8 00 00       	call   f660 <pio_write_32@plt>
    2dba:	8b 4b 08             	mov    0x8(%ebx),%ecx
    2dbd:	58                   	pop    %eax
    2dbe:	5a                   	pop    %edx
    2dbf:	6a ff                	push   $0xffffffff
    2dc1:	51                   	push   %ecx
    2dc2:	e8 99 c8 00 00       	call   f660 <pio_write_32@plt>
    2dc7:	83 c4 10             	add    $0x10,%esp
    2dca:	83 ec 0c             	sub    $0xc,%esp
    2dcd:	8b 4d c4             	mov    -0x3c(%ebp),%ecx
    2dd0:	51                   	push   %ecx
    2dd1:	e8 1a c8 00 00       	call   f5f0 <fibril_mutex_unlock@plt>
    2dd6:	8b 77 08             	mov    0x8(%edi),%esi
    2dd9:	8b 47 0c             	mov    0xc(%edi),%eax
    2ddc:	c1 e0 0b             	shl    $0xb,%eax
    2ddf:	8b 5d d0             	mov    -0x30(%ebp),%ebx
    2de2:	c1 e6 10             	shl    $0x10,%esi
    2de5:	09 c6                	or     %eax,%esi
    2de7:	8b 47 10             	mov    0x10(%edi),%eax
    2dea:	c1 e0 08             	shl    $0x8,%eax
    2ded:	09 c6                	or     %eax,%esi
    2def:	09 de                	or     %ebx,%esi
    2df1:	8b 1f                	mov    (%edi),%ebx
    2df3:	8d 43 20             	lea    0x20(%ebx),%eax
    2df6:	89 04 24             	mov    %eax,(%esp)
    2df9:	89 45 c4             	mov    %eax,-0x3c(%ebp)
    2dfc:	e8 7f ca 00 00       	call   f880 <fibril_mutex_lock@plt>
    2e01:	8b 4b 04             	mov    0x4(%ebx),%ecx
    2e04:	83 c4 10             	add    $0x10,%esp
    2e07:	85 c9                	test   %ecx,%ecx
    2e09:	0f 84 c9 04 00 00    	je     32d8 <pci_bus_scan+0x6e8>
    2e0f:	81 ce 00 00 00 80    	or     $0x80000000,%esi
    2e15:	50                   	push   %eax
    2e16:	50                   	push   %eax
    2e17:	56                   	push   %esi
    2e18:	51                   	push   %ecx
    2e19:	e8 42 c8 00 00       	call   f660 <pio_write_32@plt>
    2e1e:	8b 53 08             	mov    0x8(%ebx),%edx
    2e21:	58                   	pop    %eax
    2e22:	52                   	push   %edx
    2e23:	e8 88 c6 00 00       	call   f4b0 <pio_read_32@plt>
    2e28:	83 c4 10             	add    $0x10,%esp
    2e2b:	89 c6                	mov    %eax,%esi
    2e2d:	83 ec 0c             	sub    $0xc,%esp
    2e30:	8b 45 c4             	mov    -0x3c(%ebp),%eax
    2e33:	50                   	push   %eax
    2e34:	e8 b7 c7 00 00       	call   f5f0 <fibril_mutex_unlock@plt>
    2e39:	83 c4 10             	add    $0x10,%esp
    2e3c:	85 f6                	test   %esi,%esi
    2e3e:	0f 85 b4 00 00 00    	jne    2ef8 <pci_bus_scan+0x308>
    2e44:	80 7d c8 01          	cmpb   $0x1,-0x38(%ebp)
    2e48:	19 c0                	sbb    %eax,%eax
    2e4a:	8b 55 d4             	mov    -0x2c(%ebp),%edx
    2e4d:	83 e0 fc             	and    $0xfffffffc,%eax
    2e50:	8d 44 10 08          	lea    0x8(%eax,%edx,1),%eax
    2e54:	89 45 d4             	mov    %eax,-0x2c(%ebp)
    2e57:	83 7d d4 24          	cmpl   $0x24,-0x2c(%ebp)
    2e5b:	0f 8f 0f 02 00 00    	jg     3070 <pci_bus_scan+0x480>
    2e61:	8b 45 d4             	mov    -0x2c(%ebp),%eax
    2e64:	8b 77 08             	mov    0x8(%edi),%esi
    2e67:	83 e0 fc             	and    $0xfffffffc,%eax
    2e6a:	8b 1f                	mov    (%edi),%ebx
    2e6c:	89 c2                	mov    %eax,%edx
    2e6e:	89 45 d0             	mov    %eax,-0x30(%ebp)
    2e71:	8b 47 0c             	mov    0xc(%edi),%eax
    2e74:	83 ec 0c             	sub    $0xc,%esp
    2e77:	c1 e0 0b             	shl    $0xb,%eax
    2e7a:	c1 e6 10             	shl    $0x10,%esi
    2e7d:	09 c6                	or     %eax,%esi
    2e7f:	8b 47 10             	mov    0x10(%edi),%eax
    2e82:	c1 e0 08             	shl    $0x8,%eax
    2e85:	09 c6                	or     %eax,%esi
    2e87:	8d 43 20             	lea    0x20(%ebx),%eax
    2e8a:	50                   	push   %eax
    2e8b:	09 d6                	or     %edx,%esi
    2e8d:	89 45 c8             	mov    %eax,-0x38(%ebp)
    2e90:	e8 eb c9 00 00       	call   f880 <fibril_mutex_lock@plt>
    2e95:	8b 43 04             	mov    0x4(%ebx),%eax
    2e98:	83 c4 10             	add    $0x10,%esp
    2e9b:	85 c0                	test   %eax,%eax
    2e9d:	0f 84 fd 03 00 00    	je     32a0 <pci_bus_scan+0x6b0>
    2ea3:	81 ce 00 00 00 80    	or     $0x80000000,%esi
    2ea9:	52                   	push   %edx
    2eaa:	52                   	push   %edx
    2eab:	56                   	push   %esi
    2eac:	50                   	push   %eax
    2ead:	e8 ae c7 00 00       	call   f660 <pio_write_32@plt>
    2eb2:	8b 5b 08             	mov    0x8(%ebx),%ebx
    2eb5:	59                   	pop    %ecx
    2eb6:	53                   	push   %ebx
    2eb7:	e8 f4 c5 00 00       	call   f4b0 <pio_read_32@plt>
    2ebc:	83 c4 10             	add    $0x10,%esp
    2ebf:	89 45 cc             	mov    %eax,-0x34(%ebp)
    2ec2:	83 ec 0c             	sub    $0xc,%esp
    2ec5:	8b 75 c8             	mov    -0x38(%ebp),%esi
    2ec8:	56                   	push   %esi
    2ec9:	e8 22 c7 00 00       	call   f5f0 <fibril_mutex_unlock@plt>
    2ece:	8b 55 cc             	mov    -0x34(%ebp),%edx
    2ed1:	83 c4 10             	add    $0x10,%esp
    2ed4:	89 d0                	mov    %edx,%eax
    2ed6:	83 e0 01             	and    $0x1,%eax
    2ed9:	89 45 c0             	mov    %eax,-0x40(%ebp)
    2edc:	0f 84 6e fe ff ff    	je     2d50 <pci_bus_scan+0x160>
    2ee2:	c6 45 c8 00          	movb   $0x0,-0x38(%ebp)
    2ee6:	c7 45 bc fc ff ff ff 	movl   $0xfffffffc,-0x44(%ebp)
    2eed:	e9 7f fe ff ff       	jmp    2d71 <pci_bus_scan+0x181>
    2ef2:	8d b6 00 00 00 00    	lea    0x0(%esi),%esi
    2ef8:	8b 45 bc             	mov    -0x44(%ebp),%eax
    2efb:	8b 1f                	mov    (%edi),%ebx
    2efd:	21 c6                	and    %eax,%esi
    2eff:	8b 47 0c             	mov    0xc(%edi),%eax
    2f02:	89 75 c4             	mov    %esi,-0x3c(%ebp)
    2f05:	8b 77 08             	mov    0x8(%edi),%esi
    2f08:	c1 e0 0b             	shl    $0xb,%eax
    2f0b:	83 ec 0c             	sub    $0xc,%esp
    2f0e:	c1 e6 10             	shl    $0x10,%esi
    2f11:	09 c6                	or     %eax,%esi
    2f13:	8b 47 10             	mov    0x10(%edi),%eax
    2f16:	c1 e0 08             	shl    $0x8,%eax
    2f19:	09 c6                	or     %eax,%esi
    2f1b:	8b 45 d0             	mov    -0x30(%ebp),%eax
    2f1e:	09 c6                	or     %eax,%esi
    2f20:	8d 43 20             	lea    0x20(%ebx),%eax
    2f23:	50                   	push   %eax
    2f24:	89 45 bc             	mov    %eax,-0x44(%ebp)
    2f27:	e8 54 c9 00 00       	call   f880 <fibril_mutex_lock@plt>
    2f2c:	8b 4b 04             	mov    0x4(%ebx),%ecx
    2f2f:	83 c4 10             	add    $0x10,%esp
    2f32:	85 c9                	test   %ecx,%ecx
    2f34:	0f 84 9e 04 00 00    	je     33d8 <pci_bus_scan+0x7e8>
    2f3a:	81 ce 00 00 00 80    	or     $0x80000000,%esi
    2f40:	50                   	push   %eax
    2f41:	50                   	push   %eax
    2f42:	56                   	push   %esi
    2f43:	51                   	push   %ecx
    2f44:	e8 17 c7 00 00       	call   f660 <pio_write_32@plt>
    2f49:	8b 4d cc             	mov    -0x34(%ebp),%ecx
    2f4c:	8b 5b 08             	mov    0x8(%ebx),%ebx
    2f4f:	58                   	pop    %eax
    2f50:	5a                   	pop    %edx
    2f51:	51                   	push   %ecx
    2f52:	53                   	push   %ebx
    2f53:	e8 08 c7 00 00       	call   f660 <pio_write_32@plt>
    2f58:	83 c4 10             	add    $0x10,%esp
    2f5b:	83 ec 0c             	sub    $0xc,%esp
    2f5e:	8b 75 bc             	mov    -0x44(%ebp),%esi
    2f61:	56                   	push   %esi
    2f62:	e8 89 c6 00 00       	call   f5f0 <fibril_mutex_unlock@plt>
    2f67:	8b 5f 08             	mov    0x8(%edi),%ebx
    2f6a:	8b 47 0c             	mov    0xc(%edi),%eax
    2f6d:	c1 e0 0b             	shl    $0xb,%eax
    2f70:	8b 37                	mov    (%edi),%esi
    2f72:	c1 e3 10             	shl    $0x10,%ebx
    2f75:	09 c3                	or     %eax,%ebx
    2f77:	8b 47 10             	mov    0x10(%edi),%eax
    2f7a:	c1 e0 08             	shl    $0x8,%eax
    2f7d:	09 c3                	or     %eax,%ebx
    2f7f:	8b 45 d0             	mov    -0x30(%ebp),%eax
    2f82:	09 c3                	or     %eax,%ebx
    2f84:	8d 46 20             	lea    0x20(%esi),%eax
    2f87:	89 04 24             	mov    %eax,(%esp)
    2f8a:	89 45 d0             	mov    %eax,-0x30(%ebp)
    2f8d:	e8 ee c8 00 00       	call   f880 <fibril_mutex_lock@plt>
    2f92:	8b 46 04             	mov    0x4(%esi),%eax
    2f95:	83 c4 10             	add    $0x10,%esp
    2f98:	85 c0                	test   %eax,%eax
    2f9a:	0f 84 a0 04 00 00    	je     3440 <pci_bus_scan+0x850>
    2fa0:	81 cb 00 00 00 80    	or     $0x80000000,%ebx
    2fa6:	52                   	push   %edx
    2fa7:	52                   	push   %edx
    2fa8:	53                   	push   %ebx
    2fa9:	50                   	push   %eax
    2faa:	e8 b1 c6 00 00       	call   f660 <pio_write_32@plt>
    2faf:	8b 5e 08             	mov    0x8(%esi),%ebx
    2fb2:	59                   	pop    %ecx
    2fb3:	53                   	push   %ebx
    2fb4:	e8 f7 c4 00 00       	call   f4b0 <pio_read_32@plt>
    2fb9:	83 c4 10             	add    $0x10,%esp
    2fbc:	89 c3                	mov    %eax,%ebx
    2fbe:	83 ec 0c             	sub    $0xc,%esp
    2fc1:	8b 45 d0             	mov    -0x30(%ebp),%eax
    2fc4:	50                   	push   %eax
    2fc5:	e8 26 c6 00 00       	call   f5f0 <fibril_mutex_unlock@plt>
    2fca:	8b 75 c4             	mov    -0x3c(%ebp),%esi
    2fcd:	83 c4 10             	add    $0x10,%esp
    2fd0:	89 f0                	mov    %esi,%eax
    2fd2:	f7 d8                	neg    %eax
    2fd4:	21 c6                	and    %eax,%esi
    2fd6:	89 75 d0             	mov    %esi,-0x30(%ebp)
    2fd9:	80 7d c8 00          	cmpb   $0x0,-0x38(%ebp)
    2fdd:	0f 85 65 03 00 00    	jne    3348 <pci_bus_scan+0x758>
    2fe3:	89 d8                	mov    %ebx,%eax
    2fe5:	c7 45 b4 00 00 00 00 	movl   $0x0,-0x4c(%ebp)
    2fec:	83 e0 f0             	and    $0xfffffff0,%eax
    2fef:	89 45 b0             	mov    %eax,-0x50(%ebp)
    2ff2:	8b 4d b0             	mov    -0x50(%ebp),%ecx
    2ff5:	8b 5d b4             	mov    -0x4c(%ebp),%ebx
    2ff8:	89 c8                	mov    %ecx,%eax
    2ffa:	89 d9                	mov    %ebx,%ecx
    2ffc:	09 c1                	or     %eax,%ecx
    2ffe:	0f 85 14 03 00 00    	jne    3318 <pci_bus_scan+0x728>
    3004:	8b 4f 24             	mov    0x24(%edi),%ecx
    3007:	8b 47 20             	mov    0x20(%edi),%eax
    300a:	85 c9                	test   %ecx,%ecx
    300c:	0f 84 09 06 00 00    	je     361b <pci_bus_scan+0xa2b>
    3012:	83 f8 09             	cmp    $0x9,%eax
    3015:	0f 87 eb 05 00 00    	ja     3606 <pci_bus_scan+0xa16>
    301b:	8d 1c 40             	lea    (%eax,%eax,2),%ebx
    301e:	8b 55 c0             	mov    -0x40(%ebp),%edx
    3021:	85 d2                	test   %edx,%edx
    3023:	8d 0c d9             	lea    (%ecx,%ebx,8),%ecx
    3026:	0f 85 c4 02 00 00    	jne    32f0 <pci_bus_scan+0x700>
    302c:	8b 5d b0             	mov    -0x50(%ebp),%ebx
    302f:	8b 75 b4             	mov    -0x4c(%ebp),%esi
    3032:	8b 55 d0             	mov    -0x30(%ebp),%edx
    3035:	c7 01 02 00 00 00    	movl   $0x2,(%ecx)
    303b:	89 59 04             	mov    %ebx,0x4(%ecx)
    303e:	89 71 08             	mov    %esi,0x8(%ecx)
    3041:	89 51 0c             	mov    %edx,0xc(%ecx)
    3044:	c6 41 10 00          	movb   $0x0,0x10(%ecx)
    3048:	c7 41 14 00 00 00 00 	movl   $0x0,0x14(%ecx)
    304f:	40                   	inc    %eax
    3050:	89 47 20             	mov    %eax,0x20(%edi)
    3053:	80 7d c8 00          	cmpb   $0x0,-0x38(%ebp)
    3057:	0f 85 1b 02 00 00    	jne    3278 <pci_bus_scan+0x688>
    305d:	8b 45 d4             	mov    -0x2c(%ebp),%eax
    3060:	83 c0 04             	add    $0x4,%eax
    3063:	89 45 d4             	mov    %eax,-0x2c(%ebp)
    3066:	83 7d d4 24          	cmpl   $0x24,-0x2c(%ebp)
    306a:	0f 8e f1 fd ff ff    	jle    2e61 <pci_bus_scan+0x271>
    3070:	8b 77 08             	mov    0x8(%edi),%esi
    3073:	8b 47 0c             	mov    0xc(%edi),%eax
    3076:	c1 e0 0b             	shl    $0xb,%eax
    3079:	89 fb                	mov    %edi,%ebx
    307b:	c1 e6 10             	shl    $0x10,%esi
    307e:	83 ec 0c             	sub    $0xc,%esp
    3081:	09 c6                	or     %eax,%esi
    3083:	8b 47 10             	mov    0x10(%edi),%eax
    3086:	8b 3f                	mov    (%edi),%edi
    3088:	83 ce 3c             	or     $0x3c,%esi
    308b:	c1 e0 08             	shl    $0x8,%eax
    308e:	09 c6                	or     %eax,%esi
    3090:	8d 47 20             	lea    0x20(%edi),%eax
    3093:	50                   	push   %eax
    3094:	89 45 d0             	mov    %eax,-0x30(%ebp)
    3097:	e8 e4 c7 00 00       	call   f880 <fibril_mutex_lock@plt>
    309c:	8b 47 04             	mov    0x4(%edi),%eax
    309f:	83 c4 10             	add    $0x10,%esp
    30a2:	85 c0                	test   %eax,%eax
    30a4:	0f 84 1e 04 00 00    	je     34c8 <pci_bus_scan+0x8d8>
    30aa:	81 ce 00 00 00 80    	or     $0x80000000,%esi
    30b0:	52                   	push   %edx
    30b1:	52                   	push   %edx
    30b2:	56                   	push   %esi
    30b3:	50                   	push   %eax
    30b4:	e8 a7 c5 00 00       	call   f660 <pio_write_32@plt>
    30b9:	8b 77 08             	mov    0x8(%edi),%esi
    30bc:	59                   	pop    %ecx
    30bd:	56                   	push   %esi
    30be:	e8 ed c3 00 00       	call   f4b0 <pio_read_32@plt>
    30c3:	83 c4 10             	add    $0x10,%esp
    30c6:	89 45 d4             	mov    %eax,-0x2c(%ebp)
    30c9:	83 ec 0c             	sub    $0xc,%esp
    30cc:	8a 45 d4             	mov    -0x2c(%ebp),%al
    30cf:	88 45 cc             	mov    %al,-0x34(%ebp)
    30d2:	8b 45 d0             	mov    -0x30(%ebp),%eax
    30d5:	50                   	push   %eax
    30d6:	e8 15 c5 00 00       	call   f5f0 <fibril_mutex_unlock@plt>
    30db:	8b 53 08             	mov    0x8(%ebx),%edx
    30de:	8b 43 0c             	mov    0xc(%ebx),%eax
    30e1:	c1 e2 10             	shl    $0x10,%edx
    30e4:	8b 3b                	mov    (%ebx),%edi
    30e6:	c1 e0 0b             	shl    $0xb,%eax
    30e9:	09 d0                	or     %edx,%eax
    30eb:	8d 77 20             	lea    0x20(%edi),%esi
    30ee:	83 c8 3c             	or     $0x3c,%eax
    30f1:	89 c2                	mov    %eax,%edx
    30f3:	8b 43 10             	mov    0x10(%ebx),%eax
    30f6:	c1 e0 08             	shl    $0x8,%eax
    30f9:	89 34 24             	mov    %esi,(%esp)
    30fc:	09 c2                	or     %eax,%edx
    30fe:	89 55 d0             	mov    %edx,-0x30(%ebp)
    3101:	e8 7a c7 00 00       	call   f880 <fibril_mutex_lock@plt>
    3106:	8b 57 04             	mov    0x4(%edi),%edx
    3109:	83 c4 10             	add    $0x10,%esp
    310c:	85 d2                	test   %edx,%edx
    310e:	0f 84 94 03 00 00    	je     34a8 <pci_bus_scan+0x8b8>
    3114:	50                   	push   %eax
    3115:	50                   	push   %eax
    3116:	8b 45 d0             	mov    -0x30(%ebp),%eax
    3119:	0d 00 00 00 80       	or     $0x80000000,%eax
    311e:	50                   	push   %eax
    311f:	52                   	push   %edx
    3120:	e8 3b c5 00 00       	call   f660 <pio_write_32@plt>
    3125:	58                   	pop    %eax
    3126:	8b 47 08             	mov    0x8(%edi),%eax
    3129:	50                   	push   %eax
    312a:	e8 81 c3 00 00       	call   f4b0 <pio_read_32@plt>
    312f:	83 c4 10             	add    $0x10,%esp
    3132:	83 ec 0c             	sub    $0xc,%esp
    3135:	89 45 d0             	mov    %eax,-0x30(%ebp)
    3138:	56                   	push   %esi
    3139:	e8 b2 c4 00 00       	call   f5f0 <fibril_mutex_unlock@plt>
    313e:	8b 45 d0             	mov    -0x30(%ebp),%eax
    3141:	83 c4 10             	add    $0x10,%esp
    3144:	c1 e8 08             	shr    $0x8,%eax
    3147:	84 c0                	test   %al,%al
    3149:	74 57                	je     31a2 <pci_bus_scan+0x5b2>
    314b:	80 7d cc ff          	cmpb   $0xff,-0x34(%ebp)
    314f:	74 51                	je     31a2 <pci_bus_scan+0x5b2>
    3151:	0f b6 7d d4          	movzbl -0x2c(%ebp),%edi
    3155:	8b 53 24             	mov    0x24(%ebx),%edx
    3158:	81 e7 ff 00 00 00    	and    $0xff,%edi
    315e:	8b 43 20             	mov    0x20(%ebx),%eax
    3161:	85 d2                	test   %edx,%edx
    3163:	0f 84 dc 04 00 00    	je     3645 <pci_bus_scan+0xa55>
    3169:	83 f8 09             	cmp    $0x9,%eax
    316c:	0f 87 be 04 00 00    	ja     3630 <pci_bus_scan+0xa40>
    3172:	8d 0c 40             	lea    (%eax,%eax,2),%ecx
    3175:	83 ec 0c             	sub    $0xc,%esp
    3178:	40                   	inc    %eax
    3179:	8d 14 ca             	lea    (%edx,%ecx,8),%edx
    317c:	89 7a 04             	mov    %edi,0x4(%edx)
    317f:	c7 02 00 00 00 00    	movl   $0x0,(%edx)
    3185:	89 43 20             	mov    %eax,0x20(%ebx)
    3188:	8b 43 04             	mov    0x4(%ebx),%eax
    318b:	50                   	push   %eax
    318c:	e8 1f 1a 00 00       	call   4bb0 <ddf_fun_get_name>
    3191:	57                   	push   %edi
    3192:	50                   	push   %eax
    3193:	68 d8 d1 00 00       	push   $0xd1d8
    3198:	6a 03                	push   $0x3
    319a:	e8 61 20 00 00       	call   5200 <ddf_msg>
    319f:	83 c4 20             	add    $0x20,%esp
    31a2:	8b 45 08             	mov    0x8(%ebp),%eax
    31a5:	8b 40 10             	mov    0x10(%eax),%eax
    31a8:	89 83 18 01 00 00    	mov    %eax,0x118(%ebx)
    31ae:	8b 45 08             	mov    0x8(%ebp),%eax
    31b1:	8b 40 14             	mov    0x14(%eax),%eax
    31b4:	89 83 1c 01 00 00    	mov    %eax,0x11c(%ebx)
    31ba:	8b 45 08             	mov    0x8(%ebp),%eax
    31bd:	8b 40 18             	mov    0x18(%eax),%eax
    31c0:	89 83 20 01 00 00    	mov    %eax,0x120(%ebx)
    31c6:	8b 45 08             	mov    0x8(%ebp),%eax
    31c9:	8b 40 1c             	mov    0x1c(%eax),%eax
    31cc:	89 83 24 01 00 00    	mov    %eax,0x124(%ebx)
    31d2:	56                   	push   %esi
    31d3:	56                   	push   %esi
    31d4:	68 a0 17 01 00       	push   $0x117a0
    31d9:	8b 7b 04             	mov    0x4(%ebx),%edi
    31dc:	57                   	push   %edi
    31dd:	e8 fe 1d 00 00       	call   4fe0 <ddf_fun_set_ops>
    31e2:	58                   	pop    %eax
    31e3:	8b 43 04             	mov    0x4(%ebx),%eax
    31e6:	50                   	push   %eax
    31e7:	e8 c4 19 00 00       	call   4bb0 <ddf_fun_get_name>
    31ec:	83 c4 0c             	add    $0xc,%esp
    31ef:	50                   	push   %eax
    31f0:	68 2d d2 00 00       	push   $0xd22d
    31f5:	6a 04                	push   $0x4
    31f7:	e8 04 20 00 00       	call   5200 <ddf_msg>
    31fc:	89 1c 24             	mov    %ebx,(%esp)
    31ff:	e8 3c ea ff ff       	call   1c40 <pci_fun_create_match_ids>
    3204:	58                   	pop    %eax
    3205:	8b 43 04             	mov    0x4(%ebx),%eax
    3208:	50                   	push   %eax
    3209:	e8 e2 1a 00 00       	call   4cf0 <ddf_fun_bind>
    320e:	83 c4 10             	add    $0x10,%esp
    3211:	85 c0                	test   %eax,%eax
    3213:	0f 85 3f 02 00 00    	jne    3458 <pci_bus_scan+0x868>
    3219:	8a 45 a4             	mov    -0x5c(%ebp),%al
    321c:	83 e0 7f             	and    $0x7f,%eax
    321f:	48                   	dec    %eax
    3220:	3c 01                	cmp    $0x1,%al
    3222:	0f 86 cf 02 00 00    	jbe    34f7 <pci_bus_scan+0x907>
    3228:	8b 5d b8             	mov    -0x48(%ebp),%ebx
    322b:	43                   	inc    %ebx
    322c:	89 5d b8             	mov    %ebx,-0x48(%ebp)
    322f:	8b 45 b8             	mov    -0x48(%ebp),%eax
    3232:	83 f8 07             	cmp    $0x7,%eax
    3235:	7f 11                	jg     3248 <pci_bus_scan+0x658>
    3237:	80 7d ab 00          	cmpb   $0x0,-0x55(%ebp)
    323b:	0f 85 c7 f9 ff ff    	jne    2c08 <pci_bus_scan+0x18>
    3241:	8d b4 26 00 00 00 00 	lea    0x0(%esi,%eiz,1),%esi
    3248:	8b 45 ac             	mov    -0x54(%ebp),%eax
    324b:	40                   	inc    %eax
    324c:	89 45 ac             	mov    %eax,-0x54(%ebp)
    324f:	8b 45 ac             	mov    -0x54(%ebp),%eax
    3252:	83 f8 20             	cmp    $0x20,%eax
    3255:	0f 85 a5 f9 ff ff    	jne    2c00 <pci_bus_scan+0x10>
    325b:	8d 65 f4             	lea    -0xc(%ebp),%esp
    325e:	5b                   	pop    %ebx
    325f:	5e                   	pop    %esi
    3260:	5f                   	pop    %edi
    3261:	5d                   	pop    %ebp
    3262:	c3                   	ret    
    3263:	90                   	nop
    3264:	8d 74 26 00          	lea    0x0(%esi,%eiz,1),%esi
    3268:	c6 45 c8 00          	movb   $0x0,-0x38(%ebp)
    326c:	c7 45 bc f0 ff ff ff 	movl   $0xfffffff0,-0x44(%ebp)
    3273:	e9 f9 fa ff ff       	jmp    2d71 <pci_bus_scan+0x181>
    3278:	8b 45 d4             	mov    -0x2c(%ebp),%eax
    327b:	83 c0 08             	add    $0x8,%eax
    327e:	89 45 d4             	mov    %eax,-0x2c(%ebp)
    3281:	e9 d1 fb ff ff       	jmp    2e57 <pci_bus_scan+0x267>
    3286:	66 90                	xchg   %ax,%ax
    3288:	50                   	push   %eax
    3289:	50                   	push   %eax
    328a:	8b 43 0c             	mov    0xc(%ebx),%eax
    328d:	6a ff                	push   $0xffffffff
    328f:	01 c6                	add    %eax,%esi
    3291:	56                   	push   %esi
    3292:	e8 c9 c3 00 00       	call   f660 <pio_write_32@plt>
    3297:	83 c4 10             	add    $0x10,%esp
    329a:	e9 2b fb ff ff       	jmp    2dca <pci_bus_scan+0x1da>
    329f:	90                   	nop
    32a0:	83 ec 0c             	sub    $0xc,%esp
    32a3:	8b 43 0c             	mov    0xc(%ebx),%eax
    32a6:	01 c6                	add    %eax,%esi
    32a8:	56                   	push   %esi
    32a9:	e8 02 c2 00 00       	call   f4b0 <pio_read_32@plt>
    32ae:	83 c4 10             	add    $0x10,%esp
    32b1:	89 45 cc             	mov    %eax,-0x34(%ebp)
    32b4:	e9 09 fc ff ff       	jmp    2ec2 <pci_bus_scan+0x2d2>
    32b9:	8b 45 b8             	mov    -0x48(%ebp),%eax
    32bc:	8b 55 ac             	mov    -0x54(%ebp),%edx
    32bf:	8b 4d 0c             	mov    0xc(%ebp),%ecx
    32c2:	50                   	push   %eax
    32c3:	52                   	push   %edx
    32c4:	51                   	push   %ecx
    32c5:	6a 00                	push   $0x0
    32c7:	e8 74 f4 ff ff       	call   2740 <pci_fun_init>
    32cc:	66 a1 14 00 00 00    	mov    0x14,%ax
    32d2:	0f 0b                	ud2    
    32d4:	8d 74 26 00          	lea    0x0(%esi,%eiz,1),%esi
    32d8:	83 ec 0c             	sub    $0xc,%esp
    32db:	8b 43 0c             	mov    0xc(%ebx),%eax
    32de:	01 c6                	add    %eax,%esi
    32e0:	56                   	push   %esi
    32e1:	e8 ca c1 00 00       	call   f4b0 <pio_read_32@plt>
    32e6:	83 c4 10             	add    $0x10,%esp
    32e9:	89 c6                	mov    %eax,%esi
    32eb:	e9 3d fb ff ff       	jmp    2e2d <pci_bus_scan+0x23d>
    32f0:	8b 5d b0             	mov    -0x50(%ebp),%ebx
    32f3:	8b 75 b4             	mov    -0x4c(%ebp),%esi
    32f6:	8b 55 d0             	mov    -0x30(%ebp),%edx
    32f9:	c7 01 01 00 00 00    	movl   $0x1,(%ecx)
    32ff:	89 59 04             	mov    %ebx,0x4(%ecx)
    3302:	89 71 08             	mov    %esi,0x8(%ecx)
    3305:	89 51 0c             	mov    %edx,0xc(%ecx)
    3308:	c6 41 10 01          	movb   $0x1,0x10(%ecx)
    330c:	c7 41 14 00 00 00 00 	movl   $0x0,0x14(%ecx)
    3313:	e9 37 fd ff ff       	jmp    304f <pci_bus_scan+0x45f>
    3318:	83 ec 0c             	sub    $0xc,%esp
    331b:	8b 77 04             	mov    0x4(%edi),%esi
    331e:	56                   	push   %esi
    331f:	e8 8c 18 00 00       	call   4bb0 <ddf_fun_get_name>
    3324:	5a                   	pop    %edx
    3325:	8b 5d d0             	mov    -0x30(%ebp),%ebx
    3328:	8b 75 b4             	mov    -0x4c(%ebp),%esi
    332b:	8b 55 b0             	mov    -0x50(%ebp),%edx
    332e:	59                   	pop    %ecx
    332f:	53                   	push   %ebx
    3330:	56                   	push   %esi
    3331:	52                   	push   %edx
    3332:	50                   	push   %eax
    3333:	68 64 d3 00 00       	push   $0xd364
    3338:	6a 04                	push   $0x4
    333a:	e8 c1 1e 00 00       	call   5200 <ddf_msg>
    333f:	83 c4 20             	add    $0x20,%esp
    3342:	e9 bd fc ff ff       	jmp    3004 <pci_bus_scan+0x414>
    3347:	90                   	nop
    3348:	8b 4f 08             	mov    0x8(%edi),%ecx
    334b:	8b 47 0c             	mov    0xc(%edi),%eax
    334e:	c1 e0 0b             	shl    $0xb,%eax
    3351:	8b 17                	mov    (%edi),%edx
    3353:	c1 e1 10             	shl    $0x10,%ecx
    3356:	83 ec 0c             	sub    $0xc,%esp
    3359:	09 c1                	or     %eax,%ecx
    335b:	8b 47 10             	mov    0x10(%edi),%eax
    335e:	c1 e0 08             	shl    $0x8,%eax
    3361:	89 55 c4             	mov    %edx,-0x3c(%ebp)
    3364:	09 c1                	or     %eax,%ecx
    3366:	8b 45 d4             	mov    -0x2c(%ebp),%eax
    3369:	83 c0 04             	add    $0x4,%eax
    336c:	83 e0 fc             	and    $0xfffffffc,%eax
    336f:	09 c1                	or     %eax,%ecx
    3371:	8d 42 20             	lea    0x20(%edx),%eax
    3374:	50                   	push   %eax
    3375:	89 45 cc             	mov    %eax,-0x34(%ebp)
    3378:	89 ce                	mov    %ecx,%esi
    337a:	e8 01 c5 00 00       	call   f880 <fibril_mutex_lock@plt>
    337f:	8b 55 c4             	mov    -0x3c(%ebp),%edx
    3382:	83 c4 10             	add    $0x10,%esp
    3385:	8b 42 04             	mov    0x4(%edx),%eax
    3388:	85 c0                	test   %eax,%eax
    338a:	0f 84 51 01 00 00    	je     34e1 <pci_bus_scan+0x8f1>
    3390:	89 f1                	mov    %esi,%ecx
    3392:	52                   	push   %edx
    3393:	81 c9 00 00 00 80    	or     $0x80000000,%ecx
    3399:	52                   	push   %edx
    339a:	51                   	push   %ecx
    339b:	50                   	push   %eax
    339c:	e8 bf c2 00 00       	call   f660 <pio_write_32@plt>
    33a1:	8b 55 c4             	mov    -0x3c(%ebp),%edx
    33a4:	8b 72 08             	mov    0x8(%edx),%esi
    33a7:	59                   	pop    %ecx
    33a8:	56                   	push   %esi
    33a9:	e8 02 c1 00 00       	call   f4b0 <pio_read_32@plt>
    33ae:	83 c4 10             	add    $0x10,%esp
    33b1:	83 ec 0c             	sub    $0xc,%esp
    33b4:	8b 4d cc             	mov    -0x34(%ebp),%ecx
    33b7:	89 45 c4             	mov    %eax,-0x3c(%ebp)
    33ba:	83 e3 f0             	and    $0xfffffff0,%ebx
    33bd:	51                   	push   %ecx
    33be:	e8 2d c2 00 00       	call   f5f0 <fibril_mutex_unlock@plt>
    33c3:	8b 45 c4             	mov    -0x3c(%ebp),%eax
    33c6:	89 5d b0             	mov    %ebx,-0x50(%ebp)
    33c9:	89 45 b4             	mov    %eax,-0x4c(%ebp)
    33cc:	83 c4 10             	add    $0x10,%esp
    33cf:	e9 1e fc ff ff       	jmp    2ff2 <pci_bus_scan+0x402>
    33d4:	8d 74 26 00          	lea    0x0(%esi,%eiz,1),%esi
    33d8:	50                   	push   %eax
    33d9:	50                   	push   %eax
    33da:	8b 45 cc             	mov    -0x34(%ebp),%eax
    33dd:	50                   	push   %eax
    33de:	8b 43 0c             	mov    0xc(%ebx),%eax
    33e1:	01 c6                	add    %eax,%esi
    33e3:	56                   	push   %esi
    33e4:	e8 77 c2 00 00       	call   f660 <pio_write_32@plt>
    33e9:	83 c4 10             	add    $0x10,%esp
    33ec:	e9 6a fb ff ff       	jmp    2f5b <pci_bus_scan+0x36b>
    33f1:	8d b4 26 00 00 00 00 	lea    0x0(%esi,%eiz,1),%esi
    33f8:	8b 43 24             	mov    0x24(%ebx),%eax
    33fb:	85 c0                	test   %eax,%eax
    33fd:	74 13                	je     3412 <pci_bus_scan+0x822>
    33ff:	83 ec 0c             	sub    $0xc,%esp
    3402:	50                   	push   %eax
    3403:	e8 58 c4 00 00       	call   f860 <free@plt>
    3408:	c7 43 24 00 00 00 00 	movl   $0x0,0x24(%ebx)
    340f:	83 c4 10             	add    $0x10,%esp
    3412:	8b 43 04             	mov    0x4(%ebx),%eax
    3415:	c7 43 20 00 00 00 00 	movl   $0x0,0x20(%ebx)
    341c:	85 c0                	test   %eax,%eax
    341e:	74 0c                	je     342c <pci_bus_scan+0x83c>
    3420:	83 ec 0c             	sub    $0xc,%esp
    3423:	50                   	push   %eax
    3424:	e8 97 17 00 00       	call   4bc0 <ddf_fun_destroy>
    3429:	83 c4 10             	add    $0x10,%esp
    342c:	8b 45 b8             	mov    -0x48(%ebp),%eax
    342f:	85 c0                	test   %eax,%eax
    3431:	0f 84 11 fe ff ff    	je     3248 <pci_bus_scan+0x658>
    3437:	c6 45 ab 01          	movb   $0x1,-0x55(%ebp)
    343b:	e9 e8 fd ff ff       	jmp    3228 <pci_bus_scan+0x638>
    3440:	83 ec 0c             	sub    $0xc,%esp
    3443:	8b 46 0c             	mov    0xc(%esi),%eax
    3446:	01 c3                	add    %eax,%ebx
    3448:	53                   	push   %ebx
    3449:	e8 62 c0 00 00       	call   f4b0 <pio_read_32@plt>
    344e:	83 c4 10             	add    $0x10,%esp
    3451:	89 c3                	mov    %eax,%ebx
    3453:	e9 66 fb ff ff       	jmp    2fbe <pci_bus_scan+0x3ce>
    3458:	8b 43 04             	mov    0x4(%ebx),%eax
    345b:	c7 43 24 00 00 00 00 	movl   $0x0,0x24(%ebx)
    3462:	c7 43 20 00 00 00 00 	movl   $0x0,0x20(%ebx)
    3469:	85 c0                	test   %eax,%eax
    346b:	0f 84 b7 fd ff ff    	je     3228 <pci_bus_scan+0x638>
    3471:	83 ec 0c             	sub    $0xc,%esp
    3474:	50                   	push   %eax
    3475:	e8 46 17 00 00       	call   4bc0 <ddf_fun_destroy>
    347a:	83 c4 10             	add    $0x10,%esp
    347d:	e9 a6 fd ff ff       	jmp    3228 <pci_bus_scan+0x638>
    3482:	8d b6 00 00 00 00    	lea    0x0(%esi),%esi
    3488:	83 ec 0c             	sub    $0xc,%esp
    348b:	8b 4f 0c             	mov    0xc(%edi),%ecx
    348e:	8b 45 d4             	mov    -0x2c(%ebp),%eax
    3491:	01 c8                	add    %ecx,%eax
    3493:	50                   	push   %eax
    3494:	e8 17 c0 00 00       	call   f4b0 <pio_read_32@plt>
    3499:	83 c4 10             	add    $0x10,%esp
    349c:	e9 1f f8 ff ff       	jmp    2cc0 <pci_bus_scan+0xd0>
    34a1:	8d b4 26 00 00 00 00 	lea    0x0(%esi,%eiz,1),%esi
    34a8:	83 ec 0c             	sub    $0xc,%esp
    34ab:	8b 4f 0c             	mov    0xc(%edi),%ecx
    34ae:	8b 45 d0             	mov    -0x30(%ebp),%eax
    34b1:	01 c8                	add    %ecx,%eax
    34b3:	50                   	push   %eax
    34b4:	e8 f7 bf 00 00       	call   f4b0 <pio_read_32@plt>
    34b9:	83 c4 10             	add    $0x10,%esp
    34bc:	e9 71 fc ff ff       	jmp    3132 <pci_bus_scan+0x542>
    34c1:	8d b4 26 00 00 00 00 	lea    0x0(%esi,%eiz,1),%esi
    34c8:	83 ec 0c             	sub    $0xc,%esp
    34cb:	8b 47 0c             	mov    0xc(%edi),%eax
    34ce:	01 c6                	add    %eax,%esi
    34d0:	56                   	push   %esi
    34d1:	e8 da bf 00 00       	call   f4b0 <pio_read_32@plt>
    34d6:	83 c4 10             	add    $0x10,%esp
    34d9:	89 45 d4             	mov    %eax,-0x2c(%ebp)
    34dc:	e9 e8 fb ff ff       	jmp    30c9 <pci_bus_scan+0x4d9>
    34e1:	83 ec 0c             	sub    $0xc,%esp
    34e4:	8b 4a 0c             	mov    0xc(%edx),%ecx
    34e7:	01 f1                	add    %esi,%ecx
    34e9:	51                   	push   %ecx
    34ea:	e8 c1 bf 00 00       	call   f4b0 <pio_read_32@plt>
    34ef:	83 c4 10             	add    $0x10,%esp
    34f2:	e9 ba fe ff ff       	jmp    33b1 <pci_bus_scan+0x7c1>
    34f7:	8b 53 08             	mov    0x8(%ebx),%edx
    34fa:	8b 43 0c             	mov    0xc(%ebx),%eax
    34fd:	c1 e2 10             	shl    $0x10,%edx
    3500:	8b 3b                	mov    (%ebx),%edi
    3502:	c1 e0 0b             	shl    $0xb,%eax
    3505:	83 ec 0c             	sub    $0xc,%esp
    3508:	09 d0                	or     %edx,%eax
    350a:	8d 77 20             	lea    0x20(%edi),%esi
    350d:	83 c8 18             	or     $0x18,%eax
    3510:	89 c2                	mov    %eax,%edx
    3512:	8b 43 10             	mov    0x10(%ebx),%eax
    3515:	c1 e0 08             	shl    $0x8,%eax
    3518:	56                   	push   %esi
    3519:	09 c2                	or     %eax,%edx
    351b:	89 55 d4             	mov    %edx,-0x2c(%ebp)
    351e:	e8 5d c3 00 00       	call   f880 <fibril_mutex_lock@plt>
    3523:	8b 47 04             	mov    0x4(%edi),%eax
    3526:	83 c4 10             	add    $0x10,%esp
    3529:	85 c0                	test   %eax,%eax
    352b:	0f 84 ba 00 00 00    	je     35eb <pci_bus_scan+0x9fb>
    3531:	8b 5d d4             	mov    -0x2c(%ebp),%ebx
    3534:	52                   	push   %edx
    3535:	81 cb 00 00 00 80    	or     $0x80000000,%ebx
    353b:	52                   	push   %edx
    353c:	53                   	push   %ebx
    353d:	50                   	push   %eax
    353e:	e8 1d c1 00 00       	call   f660 <pio_write_32@plt>
    3543:	8b 5f 08             	mov    0x8(%edi),%ebx
    3546:	59                   	pop    %ecx
    3547:	53                   	push   %ebx
    3548:	e8 63 bf 00 00       	call   f4b0 <pio_read_32@plt>
    354d:	83 c4 10             	add    $0x10,%esp
    3550:	89 c3                	mov    %eax,%ebx
    3552:	83 ec 0c             	sub    $0xc,%esp
    3555:	0f b6 df             	movzbl %bh,%ebx
    3558:	56                   	push   %esi
    3559:	e8 92 c0 00 00       	call   f5f0 <fibril_mutex_unlock@plt>
    355e:	83 c4 0c             	add    $0xc,%esp
    3561:	8b 45 0c             	mov    0xc(%ebp),%eax
    3564:	50                   	push   %eax
    3565:	68 8c d3 00 00       	push   $0xd38c
    356a:	6a 04                	push   $0x4
    356c:	e8 8f 1c 00 00       	call   5200 <ddf_msg>
    3571:	83 c4 10             	add    $0x10,%esp
    3574:	39 5d 0c             	cmp    %ebx,0xc(%ebp)
    3577:	0f 8d ab fc ff ff    	jge    3228 <pci_bus_scan+0x638>
    357d:	8b 7d 08             	mov    0x8(%ebp),%edi
    3580:	56                   	push   %esi
    3581:	56                   	push   %esi
    3582:	53                   	push   %ebx
    3583:	57                   	push   %edi
    3584:	e8 67 f6 ff ff       	call   2bf0 <pci_bus_scan>
    3589:	83 c4 10             	add    $0x10,%esp
    358c:	e9 97 fc ff ff       	jmp    3228 <pci_bus_scan+0x638>
    3591:	56                   	push   %esi
    3592:	56                   	push   %esi
    3593:	68 0f d2 00 00       	push   $0xd20f
    3598:	6a 01                	push   $0x1
    359a:	e8 61 1c 00 00       	call   5200 <ddf_msg>
    359f:	8b 43 24             	mov    0x24(%ebx),%eax
    35a2:	83 c4 10             	add    $0x10,%esp
    35a5:	85 c0                	test   %eax,%eax
    35a7:	74 13                	je     35bc <pci_bus_scan+0x9cc>
    35a9:	83 ec 0c             	sub    $0xc,%esp
    35ac:	50                   	push   %eax
    35ad:	e8 ae c2 00 00       	call   f860 <free@plt>
    35b2:	c7 43 24 00 00 00 00 	movl   $0x0,0x24(%ebx)
    35b9:	83 c4 10             	add    $0x10,%esp
    35bc:	8b 43 04             	mov    0x4(%ebx),%eax
    35bf:	c7 43 20 00 00 00 00 	movl   $0x0,0x20(%ebx)
    35c6:	85 c0                	test   %eax,%eax
    35c8:	0f 84 8d fc ff ff    	je     325b <pci_bus_scan+0x66b>
    35ce:	83 ec 0c             	sub    $0xc,%esp
    35d1:	50                   	push   %eax
    35d2:	e8 e9 15 00 00       	call   4bc0 <ddf_fun_destroy>
    35d7:	83 c4 10             	add    $0x10,%esp
    35da:	8d 65 f4             	lea    -0xc(%ebp),%esp
    35dd:	5b                   	pop    %ebx
    35de:	5e                   	pop    %esi
    35df:	5f                   	pop    %edi
    35e0:	5d                   	pop    %ebp
    35e1:	c3                   	ret    
    35e2:	50                   	push   %eax
    35e3:	50                   	push   %eax
    35e4:	68 00 d2 00 00       	push   $0xd200
    35e9:	eb ad                	jmp    3598 <pci_bus_scan+0x9a8>
    35eb:	83 ec 0c             	sub    $0xc,%esp
    35ee:	8b 47 0c             	mov    0xc(%edi),%eax
    35f1:	8b 5d d4             	mov    -0x2c(%ebp),%ebx
    35f4:	01 c3                	add    %eax,%ebx
    35f6:	53                   	push   %ebx
    35f7:	e8 b4 be 00 00       	call   f4b0 <pio_read_32@plt>
    35fc:	83 c4 10             	add    $0x10,%esp
    35ff:	89 c3                	mov    %eax,%ebx
    3601:	e9 4c ff ff ff       	jmp    3552 <pci_bus_scan+0x962>
    3606:	51                   	push   %ecx
    3607:	68 b8 01 00 00       	push   $0x1b8
    360c:	68 97 ef 00 00       	push   $0xef97
    3611:	68 ac d1 00 00       	push   $0xd1ac
    3616:	e8 45 bf 00 00       	call   f560 <assert_abort@plt>
    361b:	53                   	push   %ebx
    361c:	68 b7 01 00 00       	push   $0x1b7
    3621:	68 97 ef 00 00       	push   $0xef97
    3626:	68 97 d1 00 00       	push   $0xd197
    362b:	e8 30 bf 00 00       	call   f560 <assert_abort@plt>
    3630:	50                   	push   %eax
    3631:	68 2b 02 00 00       	push   $0x22b
    3636:	68 97 ef 00 00       	push   $0xef97
    363b:	68 ac d1 00 00       	push   $0xd1ac
    3640:	e8 1b bf 00 00       	call   f560 <assert_abort@plt>
    3645:	52                   	push   %edx
    3646:	68 2a 02 00 00       	push   $0x22a
    364b:	68 97 ef 00 00       	push   $0xef97
    3650:	68 c3 d1 00 00       	push   $0xd1c3
    3655:	e8 06 bf 00 00       	call   f560 <assert_abort@plt>
    365a:	8d b6 00 00 00 00    	lea    0x0(%esi),%esi

00003660 <pci_dev_add>:
    3660:	55                   	push   %ebp
    3661:	89 e5                	mov    %esp,%ebp
    3663:	57                   	push   %edi
    3664:	56                   	push   %esi
    3665:	53                   	push   %ebx
    3666:	83 ec 34             	sub    $0x34,%esp
    3669:	8b 75 08             	mov    0x8(%ebp),%esi
    366c:	68 45 d2 00 00       	push   $0xd245
    3671:	6a 04                	push   $0x4
    3673:	e8 88 1b 00 00       	call   5200 <ddf_msg>
    3678:	5f                   	pop    %edi
    3679:	58                   	pop    %eax
    367a:	6a 30                	push   $0x30
    367c:	56                   	push   %esi
    367d:	e8 7e 12 00 00       	call   4900 <ddf_dev_data_alloc>
    3682:	83 c4 10             	add    $0x10,%esp
    3685:	85 c0                	test   %eax,%eax
    3687:	0f 84 e3 01 00 00    	je     3870 <pci_dev_add+0x210>
    368d:	83 ec 0c             	sub    $0xc,%esp
    3690:	89 c3                	mov    %eax,%ebx
    3692:	8d 40 20             	lea    0x20(%eax),%eax
    3695:	50                   	push   %eax
    3696:	e8 85 bf 00 00       	call   f620 <fibril_mutex_initialize@plt>
    369b:	89 33                	mov    %esi,(%ebx)
    369d:	89 34 24             	mov    %esi,(%esp)
    36a0:	e8 cb 12 00 00       	call   4970 <ddf_dev_parent_sess_create>
    36a5:	83 c4 10             	add    $0x10,%esp
    36a8:	85 c0                	test   %eax,%eax
    36aa:	0f 84 e0 01 00 00    	je     3890 <pci_dev_add+0x230>
    36b0:	8d 7b 10             	lea    0x10(%ebx),%edi
    36b3:	89 45 d4             	mov    %eax,-0x2c(%ebp)
    36b6:	51                   	push   %ecx
    36b7:	51                   	push   %ecx
    36b8:	57                   	push   %edi
    36b9:	50                   	push   %eax
    36ba:	e8 e1 bd 00 00       	call   f4a0 <pio_window_get@plt>
    36bf:	83 c4 10             	add    $0x10,%esp
    36c2:	89 c6                	mov    %eax,%esi
    36c4:	85 c0                	test   %eax,%eax
    36c6:	8b 55 d4             	mov    -0x2c(%ebp),%edx
    36c9:	0f 85 29 01 00 00    	jne    37f8 <pci_dev_add+0x198>
    36cf:	50                   	push   %eax
    36d0:	50                   	push   %eax
    36d1:	8d 45 e0             	lea    -0x20(%ebp),%eax
    36d4:	50                   	push   %eax
    36d5:	52                   	push   %edx
    36d6:	e8 d5 be 00 00       	call   f5b0 <hw_res_get_resource_list@plt>
    36db:	83 c4 10             	add    $0x10,%esp
    36de:	89 c6                	mov    %eax,%esi
    36e0:	85 c0                	test   %eax,%eax
    36e2:	0f 85 28 02 00 00    	jne    3910 <pci_dev_add+0x2b0>
    36e8:	8b 45 e0             	mov    -0x20(%ebp),%eax
    36eb:	85 c0                	test   %eax,%eax
    36ed:	0f 84 9d 02 00 00    	je     3990 <pci_dev_add+0x330>
    36f3:	48                   	dec    %eax
    36f4:	8b 45 e4             	mov    -0x1c(%ebp),%eax
    36f7:	0f 84 1b 01 00 00    	je     3818 <pci_dev_add+0x1b8>
    36fd:	83 38 01             	cmpl   $0x1,(%eax)
    3700:	0f 85 75 02 00 00    	jne    397b <pci_dev_add+0x31b>
    3706:	83 78 0c 03          	cmpl   $0x3,0xc(%eax)
    370a:	0f 86 bf 02 00 00    	jbe    39cf <pci_dev_add+0x36f>
    3710:	83 78 18 01          	cmpl   $0x1,0x18(%eax)
    3714:	0f 85 a0 02 00 00    	jne    39ba <pci_dev_add+0x35a>
    371a:	83 78 24 03          	cmpl   $0x3,0x24(%eax)
    371e:	0f 86 81 02 00 00    	jbe    39a5 <pci_dev_add+0x345>
    3724:	8b 50 08             	mov    0x8(%eax),%edx
    3727:	52                   	push   %edx
    3728:	8b 48 04             	mov    0x4(%eax),%ecx
    372b:	51                   	push   %ecx
    372c:	68 81 d2 00 00       	push   $0xd281
    3731:	6a 04                	push   $0x4
    3733:	e8 c8 1a 00 00       	call   5200 <ddf_msg>
    3738:	8b 45 e4             	mov    -0x1c(%ebp),%eax
    373b:	8b 70 20             	mov    0x20(%eax),%esi
    373e:	56                   	push   %esi
    373f:	8b 40 1c             	mov    0x1c(%eax),%eax
    3742:	50                   	push   %eax
    3743:	68 93 d2 00 00       	push   $0xd293
    3748:	6a 04                	push   $0x4
    374a:	e8 b1 1a 00 00       	call   5200 <ddf_msg>
    374f:	83 c4 1c             	add    $0x1c,%esp
    3752:	8d 43 04             	lea    0x4(%ebx),%eax
    3755:	50                   	push   %eax
    3756:	8b 45 e4             	mov    -0x1c(%ebp),%eax
    3759:	50                   	push   %eax
    375a:	57                   	push   %edi
    375b:	e8 20 bd 00 00       	call   f480 <pio_enable_resource@plt>
    3760:	83 c4 10             	add    $0x10,%esp
    3763:	85 c0                	test   %eax,%eax
    3765:	0f 85 45 01 00 00    	jne    38b0 <pci_dev_add+0x250>
    376b:	50                   	push   %eax
    376c:	8d 43 08             	lea    0x8(%ebx),%eax
    376f:	50                   	push   %eax
    3770:	8b 45 e4             	mov    -0x1c(%ebp),%eax
    3773:	83 c0 18             	add    $0x18,%eax
    3776:	50                   	push   %eax
    3777:	57                   	push   %edi
    3778:	e8 03 bd 00 00       	call   f480 <pio_enable_resource@plt>
    377d:	83 c4 10             	add    $0x10,%esp
    3780:	85 c0                	test   %eax,%eax
    3782:	0f 85 28 01 00 00    	jne    38b0 <pci_dev_add+0x250>
    3788:	57                   	push   %edi
    3789:	57                   	push   %edi
    378a:	68 a5 d2 00 00       	push   $0xd2a5
    378f:	6a 04                	push   $0x4
    3791:	e8 6a 1a 00 00       	call   5200 <ddf_msg>
    3796:	83 c4 0c             	add    $0xc,%esp
    3799:	8b 03                	mov    (%ebx),%eax
    379b:	68 bd d2 00 00       	push   $0xd2bd
    37a0:	6a 02                	push   $0x2
    37a2:	50                   	push   %eax
    37a3:	e8 88 12 00 00       	call   4a30 <ddf_fun_create>
    37a8:	83 c4 10             	add    $0x10,%esp
    37ab:	89 c7                	mov    %eax,%edi
    37ad:	85 c0                	test   %eax,%eax
    37af:	0f 84 ab 01 00 00    	je     3960 <pci_dev_add+0x300>
    37b5:	83 ec 0c             	sub    $0xc,%esp
    37b8:	50                   	push   %eax
    37b9:	e8 32 15 00 00       	call   4cf0 <ddf_fun_bind>
    37be:	83 c4 10             	add    $0x10,%esp
    37c1:	89 c6                	mov    %eax,%esi
    37c3:	85 c0                	test   %eax,%eax
    37c5:	0f 84 5d 01 00 00    	je     3928 <pci_dev_add+0x2c8>
    37cb:	53                   	push   %ebx
    37cc:	53                   	push   %ebx
    37cd:	68 e4 d5 00 00       	push   $0xd5e4
    37d2:	6a 01                	push   $0x1
    37d4:	e8 27 1a 00 00       	call   5200 <ddf_msg>
    37d9:	8b 45 e4             	mov    -0x1c(%ebp),%eax
    37dc:	83 c4 10             	add    $0x10,%esp
    37df:	85 c0                	test   %eax,%eax
    37e1:	0f 85 ec 00 00 00    	jne    38d3 <pci_dev_add+0x273>
    37e7:	c7 45 e0 00 00 00 00 	movl   $0x0,-0x20(%ebp)
    37ee:	e9 02 01 00 00       	jmp    38f5 <pci_dev_add+0x295>
    37f3:	90                   	nop
    37f4:	8d 74 26 00          	lea    0x0(%esi,%eiz,1),%esi
    37f8:	50                   	push   %eax
    37f9:	50                   	push   %eax
    37fa:	68 18 d4 00 00       	push   $0xd418
    37ff:	6a 01                	push   $0x1
    3801:	e8 fa 19 00 00       	call   5200 <ddf_msg>
    3806:	83 c4 10             	add    $0x10,%esp
    3809:	8d 65 f4             	lea    -0xc(%ebp),%esp
    380c:	89 f0                	mov    %esi,%eax
    380e:	5b                   	pop    %ebx
    380f:	5e                   	pop    %esi
    3810:	5f                   	pop    %edi
    3811:	5d                   	pop    %ebp
    3812:	c3                   	ret    
    3813:	90                   	nop
    3814:	8d 74 26 00          	lea    0x0(%esi,%eiz,1),%esi
    3818:	83 38 02             	cmpl   $0x2,(%eax)
    381b:	0f 85 c3 01 00 00    	jne    39e4 <pci_dev_add+0x384>
    3821:	8b 48 08             	mov    0x8(%eax),%ecx
    3824:	51                   	push   %ecx
    3825:	8b 70 04             	mov    0x4(%eax),%esi
    3828:	56                   	push   %esi
    3829:	68 69 d2 00 00       	push   $0xd269
    382e:	6a 04                	push   $0x4
    3830:	e8 cb 19 00 00       	call   5200 <ddf_msg>
    3835:	83 c4 0c             	add    $0xc,%esp
    3838:	8d 43 0c             	lea    0xc(%ebx),%eax
    383b:	50                   	push   %eax
    383c:	8b 45 e4             	mov    -0x1c(%ebp),%eax
    383f:	50                   	push   %eax
    3840:	57                   	push   %edi
    3841:	e8 3a bc 00 00       	call   f480 <pio_enable_resource@plt>
    3846:	83 c4 10             	add    $0x10,%esp
    3849:	85 c0                	test   %eax,%eax
    384b:	0f 84 37 ff ff ff    	je     3788 <pci_dev_add+0x128>
    3851:	52                   	push   %edx
    3852:	52                   	push   %edx
    3853:	68 b4 d4 00 00       	push   $0xd4b4
    3858:	6a 01                	push   $0x1
    385a:	be f4 ff ff ff       	mov    $0xfffffff4,%esi
    385f:	e8 9c 19 00 00       	call   5200 <ddf_msg>
    3864:	83 c4 10             	add    $0x10,%esp
    3867:	eb 5d                	jmp    38c6 <pci_dev_add+0x266>
    3869:	8d b4 26 00 00 00 00 	lea    0x0(%esi,%eiz,1),%esi
    3870:	56                   	push   %esi
    3871:	56                   	push   %esi
    3872:	68 c4 d3 00 00       	push   $0xd3c4
    3877:	6a 01                	push   $0x1
    3879:	e8 82 19 00 00       	call   5200 <ddf_msg>
    387e:	83 c4 10             	add    $0x10,%esp
    3881:	8d 65 f4             	lea    -0xc(%ebp),%esp
    3884:	be fe ff ff ff       	mov    $0xfffffffe,%esi
    3889:	89 f0                	mov    %esi,%eax
    388b:	5b                   	pop    %ebx
    388c:	5e                   	pop    %esi
    388d:	5f                   	pop    %edi
    388e:	5d                   	pop    %ebp
    388f:	c3                   	ret    
    3890:	53                   	push   %ebx
    3891:	53                   	push   %ebx
    3892:	68 e4 d3 00 00       	push   $0xd3e4
    3897:	6a 01                	push   $0x1
    3899:	e8 62 19 00 00       	call   5200 <ddf_msg>
    389e:	83 c4 10             	add    $0x10,%esp
    38a1:	8d 65 f4             	lea    -0xc(%ebp),%esp
    38a4:	83 ce ff             	or     $0xffffffff,%esi
    38a7:	89 f0                	mov    %esi,%eax
    38a9:	5b                   	pop    %ebx
    38aa:	5e                   	pop    %esi
    38ab:	5f                   	pop    %edi
    38ac:	5d                   	pop    %ebp
    38ad:	c3                   	ret    
    38ae:	66 90                	xchg   %ax,%ax
    38b0:	50                   	push   %eax
    38b1:	50                   	push   %eax
    38b2:	68 98 d5 00 00       	push   $0xd598
    38b7:	6a 01                	push   $0x1
    38b9:	be f4 ff ff ff       	mov    $0xfffffff4,%esi
    38be:	e8 3d 19 00 00       	call   5200 <ddf_msg>
    38c3:	83 c4 10             	add    $0x10,%esp
    38c6:	8b 45 e4             	mov    -0x1c(%ebp),%eax
    38c9:	85 c0                	test   %eax,%eax
    38cb:	0f 84 38 ff ff ff    	je     3809 <pci_dev_add+0x1a9>
    38d1:	31 ff                	xor    %edi,%edi
    38d3:	83 ec 0c             	sub    $0xc,%esp
    38d6:	50                   	push   %eax
    38d7:	e8 84 bf 00 00       	call   f860 <free@plt>
    38dc:	83 c4 10             	add    $0x10,%esp
    38df:	c7 45 e4 00 00 00 00 	movl   $0x0,-0x1c(%ebp)
    38e6:	c7 45 e0 00 00 00 00 	movl   $0x0,-0x20(%ebp)
    38ed:	85 ff                	test   %edi,%edi
    38ef:	0f 84 14 ff ff ff    	je     3809 <pci_dev_add+0x1a9>
    38f5:	83 ec 0c             	sub    $0xc,%esp
    38f8:	57                   	push   %edi
    38f9:	e8 c2 12 00 00       	call   4bc0 <ddf_fun_destroy>
    38fe:	83 c4 10             	add    $0x10,%esp
    3901:	8d 65 f4             	lea    -0xc(%ebp),%esp
    3904:	89 f0                	mov    %esi,%eax
    3906:	5b                   	pop    %ebx
    3907:	5e                   	pop    %esi
    3908:	5f                   	pop    %edi
    3909:	5d                   	pop    %ebp
    390a:	c3                   	ret    
    390b:	90                   	nop
    390c:	8d 74 26 00          	lea    0x0(%esi,%eiz,1),%esi
    3910:	50                   	push   %eax
    3911:	50                   	push   %eax
    3912:	68 50 d4 00 00       	push   $0xd450
    3917:	6a 01                	push   $0x1
    3919:	e8 e2 18 00 00       	call   5200 <ddf_msg>
    391e:	83 c4 10             	add    $0x10,%esp
    3921:	e9 e3 fe ff ff       	jmp    3809 <pci_dev_add+0x1a9>
    3926:	66 90                	xchg   %ax,%ax
    3928:	50                   	push   %eax
    3929:	50                   	push   %eax
    392a:	68 c1 d2 00 00       	push   $0xd2c1
    392f:	6a 04                	push   $0x4
    3931:	e8 ca 18 00 00       	call   5200 <ddf_msg>
    3936:	5a                   	pop    %edx
    3937:	59                   	pop    %ecx
    3938:	6a 00                	push   $0x0
    393a:	53                   	push   %ebx
    393b:	e8 b0 f2 ff ff       	call   2bf0 <pci_bus_scan>
    3940:	8b 45 e4             	mov    -0x1c(%ebp),%eax
    3943:	83 c4 10             	add    $0x10,%esp
    3946:	85 c0                	test   %eax,%eax
    3948:	0f 84 bb fe ff ff    	je     3809 <pci_dev_add+0x1a9>
    394e:	83 ec 0c             	sub    $0xc,%esp
    3951:	50                   	push   %eax
    3952:	e8 09 bf 00 00       	call   f860 <free@plt>
    3957:	83 c4 10             	add    $0x10,%esp
    395a:	e9 aa fe ff ff       	jmp    3809 <pci_dev_add+0x1a9>
    395f:	90                   	nop
    3960:	56                   	push   %esi
    3961:	56                   	push   %esi
    3962:	68 c0 d5 00 00       	push   $0xd5c0
    3967:	6a 01                	push   $0x1
    3969:	be fe ff ff ff       	mov    $0xfffffffe,%esi
    396e:	e8 8d 18 00 00       	call   5200 <ddf_msg>
    3973:	83 c4 10             	add    $0x10,%esp
    3976:	e9 4b ff ff ff       	jmp    38c6 <pci_dev_add+0x266>
    397b:	50                   	push   %eax
    397c:	68 d7 02 00 00       	push   $0x2d7
    3981:	68 97 ef 00 00       	push   $0xef97
    3986:	68 d8 d4 00 00       	push   $0xd4d8
    398b:	e8 d0 bb 00 00       	call   f560 <assert_abort@plt>
    3990:	50                   	push   %eax
    3991:	68 c5 02 00 00       	push   $0x2c5
    3996:	68 97 ef 00 00       	push   $0xef97
    399b:	68 51 d2 00 00       	push   $0xd251
    39a0:	e8 bb bb 00 00       	call   f560 <assert_abort@plt>
    39a5:	50                   	push   %eax
    39a6:	68 db 02 00 00       	push   $0x2db
    39ab:	68 97 ef 00 00       	push   $0xef97
    39b0:	68 64 d5 00 00       	push   $0xd564
    39b5:	e8 a6 bb 00 00       	call   f560 <assert_abort@plt>
    39ba:	50                   	push   %eax
    39bb:	68 da 02 00 00       	push   $0x2da
    39c0:	68 97 ef 00 00       	push   $0xef97
    39c5:	68 38 d5 00 00       	push   $0xd538
    39ca:	e8 91 bb 00 00       	call   f560 <assert_abort@plt>
    39cf:	50                   	push   %eax
    39d0:	68 d8 02 00 00       	push   $0x2d8
    39d5:	68 97 ef 00 00       	push   $0xef97
    39da:	68 04 d5 00 00       	push   $0xd504
    39df:	e8 7c bb 00 00       	call   f560 <assert_abort@plt>
    39e4:	50                   	push   %eax
    39e5:	68 c8 02 00 00       	push   $0x2c8
    39ea:	68 97 ef 00 00       	push   $0xef97
    39ef:	68 88 d4 00 00       	push   $0xd488
    39f4:	e8 67 bb 00 00       	call   f560 <assert_abort@plt>
    39f9:	8d b4 26 00 00 00 00 	lea    0x0(%esi,%eiz,1),%esi

00003a00 <pci_fun_delete>:
    3a00:	55                   	push   %ebp
    3a01:	89 e5                	mov    %esp,%ebp
    3a03:	53                   	push   %ebx
    3a04:	50                   	push   %eax
    3a05:	8b 5d 08             	mov    0x8(%ebp),%ebx
    3a08:	8b 43 24             	mov    0x24(%ebx),%eax
    3a0b:	85 c0                	test   %eax,%eax
    3a0d:	74 13                	je     3a22 <pci_fun_delete+0x22>
    3a0f:	83 ec 0c             	sub    $0xc,%esp
    3a12:	50                   	push   %eax
    3a13:	e8 48 be 00 00       	call   f860 <free@plt>
    3a18:	c7 43 24 00 00 00 00 	movl   $0x0,0x24(%ebx)
    3a1f:	83 c4 10             	add    $0x10,%esp
    3a22:	8b 43 04             	mov    0x4(%ebx),%eax
    3a25:	c7 43 20 00 00 00 00 	movl   $0x0,0x20(%ebx)
    3a2c:	85 c0                	test   %eax,%eax
    3a2e:	74 10                	je     3a40 <pci_fun_delete+0x40>
    3a30:	8b 5d fc             	mov    -0x4(%ebp),%ebx
    3a33:	89 45 08             	mov    %eax,0x8(%ebp)
    3a36:	c9                   	leave  
    3a37:	e9 84 11 00 00       	jmp    4bc0 <ddf_fun_destroy>
    3a3c:	8d 74 26 00          	lea    0x0(%esi,%eiz,1),%esi
    3a40:	8b 5d fc             	mov    -0x4(%ebp),%ebx
    3a43:	c9                   	leave  
    3a44:	c3                   	ret    
    3a45:	8d 74 26 00          	lea    0x0(%esi,%eiz,1),%esi
    3a49:	8d bc 27 00 00 00 00 	lea    0x0(%edi,%eiz,1),%edi

00003a50 <pci_fun_create_name>:
    3a50:	55                   	push   %ebp
    3a51:	89 e5                	mov    %esp,%ebp
    3a53:	83 ec 24             	sub    $0x24,%esp
    3a56:	8b 45 08             	mov    0x8(%ebp),%eax
    3a59:	c7 45 f4 00 00 00 00 	movl   $0x0,-0xc(%ebp)
    3a60:	8b 50 10             	mov    0x10(%eax),%edx
    3a63:	52                   	push   %edx
    3a64:	8b 48 0c             	mov    0xc(%eax),%ecx
    3a67:	51                   	push   %ecx
    3a68:	8b 40 08             	mov    0x8(%eax),%eax
    3a6b:	50                   	push   %eax
    3a6c:	8d 45 f4             	lea    -0xc(%ebp),%eax
    3a6f:	68 f1 d1 00 00       	push   $0xd1f1
    3a74:	50                   	push   %eax
    3a75:	e8 86 bc 00 00       	call   f700 <asprintf@plt>
    3a7a:	8b 45 f4             	mov    -0xc(%ebp),%eax
    3a7d:	c9                   	leave  
    3a7e:	c3                   	ret    
    3a7f:	90                   	nop

00003a80 <pci_alloc_resource_list>:
    3a80:	55                   	push   %ebp
    3a81:	89 e5                	mov    %esp,%ebp
    3a83:	8b 45 08             	mov    0x8(%ebp),%eax
    3a86:	8d 50 28             	lea    0x28(%eax),%edx
    3a89:	89 50 24             	mov    %edx,0x24(%eax)
    3a8c:	b0 01                	mov    $0x1,%al
    3a8e:	5d                   	pop    %ebp
    3a8f:	c3                   	ret    

00003a90 <pci_clean_resource_list>:
    3a90:	55                   	push   %ebp
    3a91:	89 e5                	mov    %esp,%ebp
    3a93:	8b 45 08             	mov    0x8(%ebp),%eax
    3a96:	c7 40 24 00 00 00 00 	movl   $0x0,0x24(%eax)
    3a9d:	5d                   	pop    %ebp
    3a9e:	c3                   	ret    
    3a9f:	90                   	nop

00003aa0 <pci_read_bars>:
    3aa0:	55                   	push   %ebp
    3aa1:	89 e5                	mov    %esp,%ebp
    3aa3:	57                   	push   %edi
    3aa4:	56                   	push   %esi
    3aa5:	53                   	push   %ebx
    3aa6:	83 ec 3c             	sub    $0x3c,%esp
    3aa9:	c7 45 e4 10 00 00 00 	movl   $0x10,-0x1c(%ebp)
    3ab0:	8b 5d 08             	mov    0x8(%ebp),%ebx
    3ab3:	89 df                	mov    %ebx,%edi
    3ab5:	e9 17 01 00 00       	jmp    3bd1 <pci_read_bars+0x131>
    3aba:	8d b6 00 00 00 00    	lea    0x0(%esi),%esi
    3ac0:	89 d0                	mov    %edx,%eax
    3ac2:	d1 e8                	shr    %eax
    3ac4:	83 e0 03             	and    $0x3,%eax
    3ac7:	0f 84 13 03 00 00    	je     3de0 <pci_read_bars+0x340>
    3acd:	83 f8 02             	cmp    $0x2,%eax
    3ad0:	0f 85 ef 02 00 00    	jne    3dc5 <pci_read_bars+0x325>
    3ad6:	c6 45 d8 01          	movb   $0x1,-0x28(%ebp)
    3ada:	c7 45 cc f0 ff ff ff 	movl   $0xfffffff0,-0x34(%ebp)
    3ae1:	8b 77 08             	mov    0x8(%edi),%esi
    3ae4:	8b 47 0c             	mov    0xc(%edi),%eax
    3ae7:	c1 e0 0b             	shl    $0xb,%eax
    3aea:	8b 5d e0             	mov    -0x20(%ebp),%ebx
    3aed:	c1 e6 10             	shl    $0x10,%esi
    3af0:	83 ec 0c             	sub    $0xc,%esp
    3af3:	09 c6                	or     %eax,%esi
    3af5:	8b 47 10             	mov    0x10(%edi),%eax
    3af8:	c1 e0 08             	shl    $0x8,%eax
    3afb:	09 c6                	or     %eax,%esi
    3afd:	09 de                	or     %ebx,%esi
    3aff:	8b 1f                	mov    (%edi),%ebx
    3b01:	8d 43 20             	lea    0x20(%ebx),%eax
    3b04:	50                   	push   %eax
    3b05:	89 45 d4             	mov    %eax,-0x2c(%ebp)
    3b08:	e8 73 bd 00 00       	call   f880 <fibril_mutex_lock@plt>
    3b0d:	8b 4b 04             	mov    0x4(%ebx),%ecx
    3b10:	83 c4 10             	add    $0x10,%esp
    3b13:	85 c9                	test   %ecx,%ecx
    3b15:	0f 84 e5 02 00 00    	je     3e00 <pci_read_bars+0x360>
    3b1b:	81 ce 00 00 00 80    	or     $0x80000000,%esi
    3b21:	50                   	push   %eax
    3b22:	50                   	push   %eax
    3b23:	56                   	push   %esi
    3b24:	51                   	push   %ecx
    3b25:	e8 36 bb 00 00       	call   f660 <pio_write_32@plt>
    3b2a:	8b 4b 08             	mov    0x8(%ebx),%ecx
    3b2d:	58                   	pop    %eax
    3b2e:	5a                   	pop    %edx
    3b2f:	6a ff                	push   $0xffffffff
    3b31:	51                   	push   %ecx
    3b32:	e8 29 bb 00 00       	call   f660 <pio_write_32@plt>
    3b37:	83 c4 10             	add    $0x10,%esp
    3b3a:	83 ec 0c             	sub    $0xc,%esp
    3b3d:	8b 4d d4             	mov    -0x2c(%ebp),%ecx
    3b40:	51                   	push   %ecx
    3b41:	e8 aa ba 00 00       	call   f5f0 <fibril_mutex_unlock@plt>
    3b46:	8b 77 08             	mov    0x8(%edi),%esi
    3b49:	8b 47 0c             	mov    0xc(%edi),%eax
    3b4c:	c1 e0 0b             	shl    $0xb,%eax
    3b4f:	8b 5d e0             	mov    -0x20(%ebp),%ebx
    3b52:	c1 e6 10             	shl    $0x10,%esi
    3b55:	09 c6                	or     %eax,%esi
    3b57:	8b 47 10             	mov    0x10(%edi),%eax
    3b5a:	c1 e0 08             	shl    $0x8,%eax
    3b5d:	09 c6                	or     %eax,%esi
    3b5f:	09 de                	or     %ebx,%esi
    3b61:	8b 1f                	mov    (%edi),%ebx
    3b63:	8d 43 20             	lea    0x20(%ebx),%eax
    3b66:	89 04 24             	mov    %eax,(%esp)
    3b69:	89 45 d4             	mov    %eax,-0x2c(%ebp)
    3b6c:	e8 0f bd 00 00       	call   f880 <fibril_mutex_lock@plt>
    3b71:	8b 4b 04             	mov    0x4(%ebx),%ecx
    3b74:	83 c4 10             	add    $0x10,%esp
    3b77:	85 c9                	test   %ecx,%ecx
    3b79:	0f 84 b9 02 00 00    	je     3e38 <pci_read_bars+0x398>
    3b7f:	81 ce 00 00 00 80    	or     $0x80000000,%esi
    3b85:	50                   	push   %eax
    3b86:	50                   	push   %eax
    3b87:	56                   	push   %esi
    3b88:	51                   	push   %ecx
    3b89:	e8 d2 ba 00 00       	call   f660 <pio_write_32@plt>
    3b8e:	8b 53 08             	mov    0x8(%ebx),%edx
    3b91:	58                   	pop    %eax
    3b92:	52                   	push   %edx
    3b93:	e8 18 b9 00 00       	call   f4b0 <pio_read_32@plt>
    3b98:	83 c4 10             	add    $0x10,%esp
    3b9b:	89 c6                	mov    %eax,%esi
    3b9d:	83 ec 0c             	sub    $0xc,%esp
    3ba0:	8b 45 d4             	mov    -0x2c(%ebp),%eax
    3ba3:	50                   	push   %eax
    3ba4:	e8 47 ba 00 00       	call   f5f0 <fibril_mutex_unlock@plt>
    3ba9:	83 c4 10             	add    $0x10,%esp
    3bac:	85 f6                	test   %esi,%esi
    3bae:	0f 85 b4 00 00 00    	jne    3c68 <pci_read_bars+0x1c8>
    3bb4:	80 7d d8 01          	cmpb   $0x1,-0x28(%ebp)
    3bb8:	19 c0                	sbb    %eax,%eax
    3bba:	8b 55 e4             	mov    -0x1c(%ebp),%edx
    3bbd:	83 e0 fc             	and    $0xfffffffc,%eax
    3bc0:	8d 44 10 08          	lea    0x8(%eax,%edx,1),%eax
    3bc4:	89 45 e4             	mov    %eax,-0x1c(%ebp)
    3bc7:	83 7d e4 24          	cmpl   $0x24,-0x1c(%ebp)
    3bcb:	0f 8f 07 02 00 00    	jg     3dd8 <pci_read_bars+0x338>
    3bd1:	8b 45 e4             	mov    -0x1c(%ebp),%eax
    3bd4:	8b 77 08             	mov    0x8(%edi),%esi
    3bd7:	83 e0 fc             	and    $0xfffffffc,%eax
    3bda:	8b 1f                	mov    (%edi),%ebx
    3bdc:	89 c2                	mov    %eax,%edx
    3bde:	89 45 e0             	mov    %eax,-0x20(%ebp)
    3be1:	8b 47 0c             	mov    0xc(%edi),%eax
    3be4:	83 ec 0c             	sub    $0xc,%esp
    3be7:	c1 e0 0b             	shl    $0xb,%eax
    3bea:	c1 e6 10             	shl    $0x10,%esi
    3bed:	09 c6                	or     %eax,%esi
    3bef:	8b 47 10             	mov    0x10(%edi),%eax
    3bf2:	c1 e0 08             	shl    $0x8,%eax
    3bf5:	09 c6                	or     %eax,%esi
    3bf7:	8d 43 20             	lea    0x20(%ebx),%eax
    3bfa:	50                   	push   %eax
    3bfb:	09 d6                	or     %edx,%esi
    3bfd:	89 45 d8             	mov    %eax,-0x28(%ebp)
    3c00:	e8 7b bc 00 00       	call   f880 <fibril_mutex_lock@plt>
    3c05:	8b 43 04             	mov    0x4(%ebx),%eax
    3c08:	83 c4 10             	add    $0x10,%esp
    3c0b:	85 c0                	test   %eax,%eax
    3c0d:	0f 84 05 02 00 00    	je     3e18 <pci_read_bars+0x378>
    3c13:	81 ce 00 00 00 80    	or     $0x80000000,%esi
    3c19:	52                   	push   %edx
    3c1a:	52                   	push   %edx
    3c1b:	56                   	push   %esi
    3c1c:	50                   	push   %eax
    3c1d:	e8 3e ba 00 00       	call   f660 <pio_write_32@plt>
    3c22:	8b 5b 08             	mov    0x8(%ebx),%ebx
    3c25:	59                   	pop    %ecx
    3c26:	53                   	push   %ebx
    3c27:	e8 84 b8 00 00       	call   f4b0 <pio_read_32@plt>
    3c2c:	83 c4 10             	add    $0x10,%esp
    3c2f:	89 45 dc             	mov    %eax,-0x24(%ebp)
    3c32:	83 ec 0c             	sub    $0xc,%esp
    3c35:	8b 75 d8             	mov    -0x28(%ebp),%esi
    3c38:	56                   	push   %esi
    3c39:	e8 b2 b9 00 00       	call   f5f0 <fibril_mutex_unlock@plt>
    3c3e:	8b 55 dc             	mov    -0x24(%ebp),%edx
    3c41:	83 c4 10             	add    $0x10,%esp
    3c44:	89 d0                	mov    %edx,%eax
    3c46:	83 e0 01             	and    $0x1,%eax
    3c49:	89 45 d0             	mov    %eax,-0x30(%ebp)
    3c4c:	0f 84 6e fe ff ff    	je     3ac0 <pci_read_bars+0x20>
    3c52:	c6 45 d8 00          	movb   $0x0,-0x28(%ebp)
    3c56:	c7 45 cc fc ff ff ff 	movl   $0xfffffffc,-0x34(%ebp)
    3c5d:	e9 7f fe ff ff       	jmp    3ae1 <pci_read_bars+0x41>
    3c62:	8d b6 00 00 00 00    	lea    0x0(%esi),%esi
    3c68:	8b 45 cc             	mov    -0x34(%ebp),%eax
    3c6b:	8b 1f                	mov    (%edi),%ebx
    3c6d:	21 c6                	and    %eax,%esi
    3c6f:	8b 47 0c             	mov    0xc(%edi),%eax
    3c72:	89 75 d4             	mov    %esi,-0x2c(%ebp)
    3c75:	8b 77 08             	mov    0x8(%edi),%esi
    3c78:	c1 e0 0b             	shl    $0xb,%eax
    3c7b:	83 ec 0c             	sub    $0xc,%esp
    3c7e:	c1 e6 10             	shl    $0x10,%esi
    3c81:	09 c6                	or     %eax,%esi
    3c83:	8b 47 10             	mov    0x10(%edi),%eax
    3c86:	c1 e0 08             	shl    $0x8,%eax
    3c89:	09 c6                	or     %eax,%esi
    3c8b:	8b 45 e0             	mov    -0x20(%ebp),%eax
    3c8e:	09 c6                	or     %eax,%esi
    3c90:	8d 43 20             	lea    0x20(%ebx),%eax
    3c93:	50                   	push   %eax
    3c94:	89 45 cc             	mov    %eax,-0x34(%ebp)
    3c97:	e8 e4 bb 00 00       	call   f880 <fibril_mutex_lock@plt>
    3c9c:	8b 4b 04             	mov    0x4(%ebx),%ecx
    3c9f:	83 c4 10             	add    $0x10,%esp
    3ca2:	85 c9                	test   %ecx,%ecx
    3ca4:	0f 84 86 02 00 00    	je     3f30 <pci_read_bars+0x490>
    3caa:	81 ce 00 00 00 80    	or     $0x80000000,%esi
    3cb0:	50                   	push   %eax
    3cb1:	50                   	push   %eax
    3cb2:	56                   	push   %esi
    3cb3:	51                   	push   %ecx
    3cb4:	e8 a7 b9 00 00       	call   f660 <pio_write_32@plt>
    3cb9:	8b 4d dc             	mov    -0x24(%ebp),%ecx
    3cbc:	8b 5b 08             	mov    0x8(%ebx),%ebx
    3cbf:	58                   	pop    %eax
    3cc0:	5a                   	pop    %edx
    3cc1:	51                   	push   %ecx
    3cc2:	53                   	push   %ebx
    3cc3:	e8 98 b9 00 00       	call   f660 <pio_write_32@plt>
    3cc8:	83 c4 10             	add    $0x10,%esp
    3ccb:	83 ec 0c             	sub    $0xc,%esp
    3cce:	8b 75 cc             	mov    -0x34(%ebp),%esi
    3cd1:	56                   	push   %esi
    3cd2:	e8 19 b9 00 00       	call   f5f0 <fibril_mutex_unlock@plt>
    3cd7:	8b 5f 08             	mov    0x8(%edi),%ebx
    3cda:	8b 47 0c             	mov    0xc(%edi),%eax
    3cdd:	c1 e0 0b             	shl    $0xb,%eax
    3ce0:	8b 37                	mov    (%edi),%esi
    3ce2:	c1 e3 10             	shl    $0x10,%ebx
    3ce5:	09 c3                	or     %eax,%ebx
    3ce7:	8b 47 10             	mov    0x10(%edi),%eax
    3cea:	c1 e0 08             	shl    $0x8,%eax
    3ced:	09 c3                	or     %eax,%ebx
    3cef:	8b 45 e0             	mov    -0x20(%ebp),%eax
    3cf2:	09 c3                	or     %eax,%ebx
    3cf4:	8d 46 20             	lea    0x20(%esi),%eax
    3cf7:	89 04 24             	mov    %eax,(%esp)
    3cfa:	89 45 e0             	mov    %eax,-0x20(%ebp)
    3cfd:	e8 7e bb 00 00       	call   f880 <fibril_mutex_lock@plt>
    3d02:	8b 46 04             	mov    0x4(%esi),%eax
    3d05:	83 c4 10             	add    $0x10,%esp
    3d08:	85 c0                	test   %eax,%eax
    3d0a:	0f 84 40 02 00 00    	je     3f50 <pci_read_bars+0x4b0>
    3d10:	81 cb 00 00 00 80    	or     $0x80000000,%ebx
    3d16:	52                   	push   %edx
    3d17:	52                   	push   %edx
    3d18:	53                   	push   %ebx
    3d19:	50                   	push   %eax
    3d1a:	e8 41 b9 00 00       	call   f660 <pio_write_32@plt>
    3d1f:	8b 5e 08             	mov    0x8(%esi),%ebx
    3d22:	59                   	pop    %ecx
    3d23:	53                   	push   %ebx
    3d24:	e8 87 b7 00 00       	call   f4b0 <pio_read_32@plt>
    3d29:	83 c4 10             	add    $0x10,%esp
    3d2c:	89 c3                	mov    %eax,%ebx
    3d2e:	83 ec 0c             	sub    $0xc,%esp
    3d31:	8b 45 e0             	mov    -0x20(%ebp),%eax
    3d34:	50                   	push   %eax
    3d35:	e8 b6 b8 00 00       	call   f5f0 <fibril_mutex_unlock@plt>
    3d3a:	8b 75 d4             	mov    -0x2c(%ebp),%esi
    3d3d:	83 c4 10             	add    $0x10,%esp
    3d40:	89 f0                	mov    %esi,%eax
    3d42:	f7 d8                	neg    %eax
    3d44:	21 c6                	and    %eax,%esi
    3d46:	89 75 e0             	mov    %esi,-0x20(%ebp)
    3d49:	80 7d d8 00          	cmpb   $0x0,-0x28(%ebp)
    3d4d:	0f 85 55 01 00 00    	jne    3ea8 <pci_read_bars+0x408>
    3d53:	89 d8                	mov    %ebx,%eax
    3d55:	c7 45 c4 00 00 00 00 	movl   $0x0,-0x3c(%ebp)
    3d5c:	83 e0 f0             	and    $0xfffffff0,%eax
    3d5f:	89 45 c0             	mov    %eax,-0x40(%ebp)
    3d62:	8b 55 c0             	mov    -0x40(%ebp),%edx
    3d65:	8b 4d c4             	mov    -0x3c(%ebp),%ecx
    3d68:	09 d1                	or     %edx,%ecx
    3d6a:	0f 85 08 01 00 00    	jne    3e78 <pci_read_bars+0x3d8>
    3d70:	8b 4f 24             	mov    0x24(%edi),%ecx
    3d73:	8b 47 20             	mov    0x20(%edi),%eax
    3d76:	85 c9                	test   %ecx,%ecx
    3d78:	0f 84 12 02 00 00    	je     3f90 <pci_read_bars+0x4f0>
    3d7e:	83 f8 09             	cmp    $0x9,%eax
    3d81:	0f 87 f4 01 00 00    	ja     3f7b <pci_read_bars+0x4db>
    3d87:	8d 1c 40             	lea    (%eax,%eax,2),%ebx
    3d8a:	8d 0c d9             	lea    (%ecx,%ebx,8),%ecx
    3d8d:	8b 5d d0             	mov    -0x30(%ebp),%ebx
    3d90:	85 db                	test   %ebx,%ebx
    3d92:	0f 85 b8 00 00 00    	jne    3e50 <pci_read_bars+0x3b0>
    3d98:	8b 5d c0             	mov    -0x40(%ebp),%ebx
    3d9b:	8b 75 c4             	mov    -0x3c(%ebp),%esi
    3d9e:	8b 55 e0             	mov    -0x20(%ebp),%edx
    3da1:	c7 01 02 00 00 00    	movl   $0x2,(%ecx)
    3da7:	89 59 04             	mov    %ebx,0x4(%ecx)
    3daa:	89 71 08             	mov    %esi,0x8(%ecx)
    3dad:	89 51 0c             	mov    %edx,0xc(%ecx)
    3db0:	c6 41 10 00          	movb   $0x0,0x10(%ecx)
    3db4:	c7 41 14 00 00 00 00 	movl   $0x0,0x14(%ecx)
    3dbb:	40                   	inc    %eax
    3dbc:	89 47 20             	mov    %eax,0x20(%edi)
    3dbf:	80 7d d8 00          	cmpb   $0x0,-0x28(%ebp)
    3dc3:	75 2b                	jne    3df0 <pci_read_bars+0x350>
    3dc5:	8b 45 e4             	mov    -0x1c(%ebp),%eax
    3dc8:	83 c0 04             	add    $0x4,%eax
    3dcb:	89 45 e4             	mov    %eax,-0x1c(%ebp)
    3dce:	83 7d e4 24          	cmpl   $0x24,-0x1c(%ebp)
    3dd2:	0f 8e f9 fd ff ff    	jle    3bd1 <pci_read_bars+0x131>
    3dd8:	8d 65 f4             	lea    -0xc(%ebp),%esp
    3ddb:	5b                   	pop    %ebx
    3ddc:	5e                   	pop    %esi
    3ddd:	5f                   	pop    %edi
    3dde:	5d                   	pop    %ebp
    3ddf:	c3                   	ret    
    3de0:	c6 45 d8 00          	movb   $0x0,-0x28(%ebp)
    3de4:	c7 45 cc f0 ff ff ff 	movl   $0xfffffff0,-0x34(%ebp)
    3deb:	e9 f1 fc ff ff       	jmp    3ae1 <pci_read_bars+0x41>
    3df0:	8b 55 e4             	mov    -0x1c(%ebp),%edx
    3df3:	83 c2 08             	add    $0x8,%edx
    3df6:	89 55 e4             	mov    %edx,-0x1c(%ebp)
    3df9:	e9 c9 fd ff ff       	jmp    3bc7 <pci_read_bars+0x127>
    3dfe:	66 90                	xchg   %ax,%ax
    3e00:	50                   	push   %eax
    3e01:	50                   	push   %eax
    3e02:	8b 43 0c             	mov    0xc(%ebx),%eax
    3e05:	6a ff                	push   $0xffffffff
    3e07:	01 c6                	add    %eax,%esi
    3e09:	56                   	push   %esi
    3e0a:	e8 51 b8 00 00       	call   f660 <pio_write_32@plt>
    3e0f:	83 c4 10             	add    $0x10,%esp
    3e12:	e9 23 fd ff ff       	jmp    3b3a <pci_read_bars+0x9a>
    3e17:	90                   	nop
    3e18:	83 ec 0c             	sub    $0xc,%esp
    3e1b:	8b 43 0c             	mov    0xc(%ebx),%eax
    3e1e:	01 c6                	add    %eax,%esi
    3e20:	56                   	push   %esi
    3e21:	e8 8a b6 00 00       	call   f4b0 <pio_read_32@plt>
    3e26:	83 c4 10             	add    $0x10,%esp
    3e29:	89 45 dc             	mov    %eax,-0x24(%ebp)
    3e2c:	e9 01 fe ff ff       	jmp    3c32 <pci_read_bars+0x192>
    3e31:	8d b4 26 00 00 00 00 	lea    0x0(%esi,%eiz,1),%esi
    3e38:	83 ec 0c             	sub    $0xc,%esp
    3e3b:	8b 43 0c             	mov    0xc(%ebx),%eax
    3e3e:	01 c6                	add    %eax,%esi
    3e40:	56                   	push   %esi
    3e41:	e8 6a b6 00 00       	call   f4b0 <pio_read_32@plt>
    3e46:	83 c4 10             	add    $0x10,%esp
    3e49:	89 c6                	mov    %eax,%esi
    3e4b:	e9 4d fd ff ff       	jmp    3b9d <pci_read_bars+0xfd>
    3e50:	8b 5d c0             	mov    -0x40(%ebp),%ebx
    3e53:	8b 75 c4             	mov    -0x3c(%ebp),%esi
    3e56:	8b 55 e0             	mov    -0x20(%ebp),%edx
    3e59:	c7 01 01 00 00 00    	movl   $0x1,(%ecx)
    3e5f:	89 59 04             	mov    %ebx,0x4(%ecx)
    3e62:	89 71 08             	mov    %esi,0x8(%ecx)
    3e65:	89 51 0c             	mov    %edx,0xc(%ecx)
    3e68:	c6 41 10 01          	movb   $0x1,0x10(%ecx)
    3e6c:	c7 41 14 00 00 00 00 	movl   $0x0,0x14(%ecx)
    3e73:	e9 43 ff ff ff       	jmp    3dbb <pci_read_bars+0x31b>
    3e78:	83 ec 0c             	sub    $0xc,%esp
    3e7b:	8b 47 04             	mov    0x4(%edi),%eax
    3e7e:	50                   	push   %eax
    3e7f:	e8 2c 0d 00 00       	call   4bb0 <ddf_fun_get_name>
    3e84:	5a                   	pop    %edx
    3e85:	8b 5d e0             	mov    -0x20(%ebp),%ebx
    3e88:	8b 75 c4             	mov    -0x3c(%ebp),%esi
    3e8b:	8b 55 c0             	mov    -0x40(%ebp),%edx
    3e8e:	59                   	pop    %ecx
    3e8f:	53                   	push   %ebx
    3e90:	56                   	push   %esi
    3e91:	52                   	push   %edx
    3e92:	50                   	push   %eax
    3e93:	68 64 d3 00 00       	push   $0xd364
    3e98:	6a 04                	push   $0x4
    3e9a:	e8 61 13 00 00       	call   5200 <ddf_msg>
    3e9f:	83 c4 20             	add    $0x20,%esp
    3ea2:	e9 c9 fe ff ff       	jmp    3d70 <pci_read_bars+0x2d0>
    3ea7:	90                   	nop
    3ea8:	8b 4f 08             	mov    0x8(%edi),%ecx
    3eab:	8b 47 0c             	mov    0xc(%edi),%eax
    3eae:	c1 e0 0b             	shl    $0xb,%eax
    3eb1:	8b 17                	mov    (%edi),%edx
    3eb3:	c1 e1 10             	shl    $0x10,%ecx
    3eb6:	83 ec 0c             	sub    $0xc,%esp
    3eb9:	09 c1                	or     %eax,%ecx
    3ebb:	8b 47 10             	mov    0x10(%edi),%eax
    3ebe:	c1 e0 08             	shl    $0x8,%eax
    3ec1:	89 55 d4             	mov    %edx,-0x2c(%ebp)
    3ec4:	09 c1                	or     %eax,%ecx
    3ec6:	8b 45 e4             	mov    -0x1c(%ebp),%eax
    3ec9:	83 c0 04             	add    $0x4,%eax
    3ecc:	83 e0 fc             	and    $0xfffffffc,%eax
    3ecf:	09 c1                	or     %eax,%ecx
    3ed1:	8d 42 20             	lea    0x20(%edx),%eax
    3ed4:	50                   	push   %eax
    3ed5:	89 45 dc             	mov    %eax,-0x24(%ebp)
    3ed8:	89 ce                	mov    %ecx,%esi
    3eda:	e8 a1 b9 00 00       	call   f880 <fibril_mutex_lock@plt>
    3edf:	8b 55 d4             	mov    -0x2c(%ebp),%edx
    3ee2:	83 c4 10             	add    $0x10,%esp
    3ee5:	8b 42 04             	mov    0x4(%edx),%eax
    3ee8:	85 c0                	test   %eax,%eax
    3eea:	74 7c                	je     3f68 <pci_read_bars+0x4c8>
    3eec:	89 f1                	mov    %esi,%ecx
    3eee:	52                   	push   %edx
    3eef:	81 c9 00 00 00 80    	or     $0x80000000,%ecx
    3ef5:	52                   	push   %edx
    3ef6:	51                   	push   %ecx
    3ef7:	50                   	push   %eax
    3ef8:	e8 63 b7 00 00       	call   f660 <pio_write_32@plt>
    3efd:	8b 55 d4             	mov    -0x2c(%ebp),%edx
    3f00:	8b 72 08             	mov    0x8(%edx),%esi
    3f03:	59                   	pop    %ecx
    3f04:	56                   	push   %esi
    3f05:	e8 a6 b5 00 00       	call   f4b0 <pio_read_32@plt>
    3f0a:	83 c4 10             	add    $0x10,%esp
    3f0d:	83 ec 0c             	sub    $0xc,%esp
    3f10:	8b 4d dc             	mov    -0x24(%ebp),%ecx
    3f13:	89 45 d4             	mov    %eax,-0x2c(%ebp)
    3f16:	83 e3 f0             	and    $0xfffffff0,%ebx
    3f19:	51                   	push   %ecx
    3f1a:	e8 d1 b6 00 00       	call   f5f0 <fibril_mutex_unlock@plt>
    3f1f:	8b 45 d4             	mov    -0x2c(%ebp),%eax
    3f22:	89 5d c0             	mov    %ebx,-0x40(%ebp)
    3f25:	89 45 c4             	mov    %eax,-0x3c(%ebp)
    3f28:	83 c4 10             	add    $0x10,%esp
    3f2b:	e9 32 fe ff ff       	jmp    3d62 <pci_read_bars+0x2c2>
    3f30:	50                   	push   %eax
    3f31:	50                   	push   %eax
    3f32:	8b 45 dc             	mov    -0x24(%ebp),%eax
    3f35:	50                   	push   %eax
    3f36:	8b 43 0c             	mov    0xc(%ebx),%eax
    3f39:	01 c6                	add    %eax,%esi
    3f3b:	56                   	push   %esi
    3f3c:	e8 1f b7 00 00       	call   f660 <pio_write_32@plt>
    3f41:	83 c4 10             	add    $0x10,%esp
    3f44:	e9 82 fd ff ff       	jmp    3ccb <pci_read_bars+0x22b>
    3f49:	8d b4 26 00 00 00 00 	lea    0x0(%esi,%eiz,1),%esi
    3f50:	83 ec 0c             	sub    $0xc,%esp
    3f53:	8b 46 0c             	mov    0xc(%esi),%eax
    3f56:	01 c3                	add    %eax,%ebx
    3f58:	53                   	push   %ebx
    3f59:	e8 52 b5 00 00       	call   f4b0 <pio_read_32@plt>
    3f5e:	83 c4 10             	add    $0x10,%esp
    3f61:	89 c3                	mov    %eax,%ebx
    3f63:	e9 c6 fd ff ff       	jmp    3d2e <pci_read_bars+0x28e>
    3f68:	83 ec 0c             	sub    $0xc,%esp
    3f6b:	8b 4a 0c             	mov    0xc(%edx),%ecx
    3f6e:	01 f1                	add    %esi,%ecx
    3f70:	51                   	push   %ecx
    3f71:	e8 3a b5 00 00       	call   f4b0 <pio_read_32@plt>
    3f76:	83 c4 10             	add    $0x10,%esp
    3f79:	eb 92                	jmp    3f0d <pci_read_bars+0x46d>
    3f7b:	56                   	push   %esi
    3f7c:	68 b8 01 00 00       	push   $0x1b8
    3f81:	68 97 ef 00 00       	push   $0xef97
    3f86:	68 ac d1 00 00       	push   $0xd1ac
    3f8b:	e8 d0 b5 00 00       	call   f560 <assert_abort@plt>
    3f90:	57                   	push   %edi
    3f91:	68 b7 01 00 00       	push   $0x1b7
    3f96:	68 97 ef 00 00       	push   $0xef97
    3f9b:	68 97 d1 00 00       	push   $0xd197
    3fa0:	e8 bb b5 00 00       	call   f560 <assert_abort@plt>
    3fa5:	8d 74 26 00          	lea    0x0(%esi,%eiz,1),%esi
    3fa9:	8d bc 27 00 00 00 00 	lea    0x0(%edi,%eiz,1),%edi

00003fb0 <pci_bar_mask_to_size>:
    3fb0:	55                   	push   %ebp
    3fb1:	89 e5                	mov    %esp,%ebp
    3fb3:	8b 55 08             	mov    0x8(%ebp),%edx
    3fb6:	5d                   	pop    %ebp
    3fb7:	89 d0                	mov    %edx,%eax
    3fb9:	f7 d8                	neg    %eax
    3fbb:	21 d0                	and    %edx,%eax
    3fbd:	c3                   	ret    
    3fbe:	66 90                	xchg   %ax,%ax

00003fc0 <main>:
    3fc0:	8d 4c 24 04          	lea    0x4(%esp),%ecx
    3fc4:	83 e4 f0             	and    $0xfffffff0,%esp
    3fc7:	ff 71 fc             	pushl  -0x4(%ecx)
    3fca:	55                   	push   %ebp
    3fcb:	89 e5                	mov    %esp,%ebp
    3fcd:	51                   	push   %ecx
    3fce:	83 ec 10             	sub    $0x10,%esp
    3fd1:	68 08 d6 00 00       	push   $0xd608
    3fd6:	e8 d5 b3 00 00       	call   f3b0 <printf@plt>
    3fdb:	c7 04 24 d2 d2 00 00 	movl   $0xd2d2,(%esp)
    3fe2:	e8 09 12 00 00       	call   51f0 <ddf_log_init>
    3fe7:	c7 04 24 80 17 01 00 	movl   $0x11780,(%esp)
    3fee:	e8 9d 10 00 00       	call   5090 <ddf_driver_main>
    3ff3:	8b 4d fc             	mov    -0x4(%ebp),%ecx
    3ff6:	c9                   	leave  
    3ff7:	8d 61 fc             	lea    -0x4(%ecx),%esp
    3ffa:	c3                   	ret    
    3ffb:	66 90                	xchg   %ax,%ax
    3ffd:	66 90                	xchg   %ax,%ax
    3fff:	90                   	nop

00004000 <fun_del_ref>:
    4000:	55                   	push   %ebp
    4001:	83 ca ff             	or     $0xffffffff,%edx
    4004:	89 e5                	mov    %esp,%ebp
    4006:	57                   	push   %edi
    4007:	56                   	push   %esi
    4008:	53                   	push   %ebx
    4009:	83 ec 1c             	sub    $0x1c,%esp
    400c:	8b 70 0c             	mov    0xc(%eax),%esi
    400f:	f0 0f c1 50 08       	lock xadd %edx,0x8(%eax)
    4014:	4a                   	dec    %edx
    4015:	74 69                	je     4080 <fun_del_ref+0x80>
    4017:	83 c8 ff             	or     $0xffffffff,%eax
    401a:	f0 0f c1 46 04       	lock xadd %eax,0x4(%esi)
    401f:	48                   	dec    %eax
    4020:	74 0e                	je     4030 <fun_del_ref+0x30>
    4022:	8d 65 f4             	lea    -0xc(%ebp),%esp
    4025:	5b                   	pop    %ebx
    4026:	5e                   	pop    %esi
    4027:	5f                   	pop    %edi
    4028:	5d                   	pop    %ebp
    4029:	c3                   	ret    
    402a:	8d b6 00 00 00 00    	lea    0x0(%esi),%esi
    4030:	8b 46 08             	mov    0x8(%esi),%eax
    4033:	85 c0                	test   %eax,%eax
    4035:	74 0c                	je     4043 <fun_del_ref+0x43>
    4037:	83 ec 0c             	sub    $0xc,%esp
    403a:	50                   	push   %eax
    403b:	e8 80 b3 00 00       	call   f3c0 <async_hangup@plt>
    4040:	83 c4 10             	add    $0x10,%esp
    4043:	8b 46 10             	mov    0x10(%esi),%eax
    4046:	85 c0                	test   %eax,%eax
    4048:	74 0c                	je     4056 <fun_del_ref+0x56>
    404a:	83 ec 0c             	sub    $0xc,%esp
    404d:	50                   	push   %eax
    404e:	e8 0d b8 00 00       	call   f860 <free@plt>
    4053:	83 c4 10             	add    $0x10,%esp
    4056:	8b 46 0c             	mov    0xc(%esi),%eax
    4059:	85 c0                	test   %eax,%eax
    405b:	74 0c                	je     4069 <fun_del_ref+0x69>
    405d:	83 ec 0c             	sub    $0xc,%esp
    4060:	50                   	push   %eax
    4061:	e8 fa b7 00 00       	call   f860 <free@plt>
    4066:	83 c4 10             	add    $0x10,%esp
    4069:	83 ec 0c             	sub    $0xc,%esp
    406c:	56                   	push   %esi
    406d:	e8 ee b7 00 00       	call   f860 <free@plt>
    4072:	83 c4 10             	add    $0x10,%esp
    4075:	8d 65 f4             	lea    -0xc(%ebp),%esp
    4078:	5b                   	pop    %ebx
    4079:	5e                   	pop    %esi
    407a:	5f                   	pop    %edi
    407b:	5d                   	pop    %ebp
    407c:	c3                   	ret    
    407d:	8d 76 00             	lea    0x0(%esi),%esi
    4080:	8b 58 1c             	mov    0x1c(%eax),%ebx
    4083:	89 c7                	mov    %eax,%edi
    4085:	8d 40 18             	lea    0x18(%eax),%eax
    4088:	89 45 e4             	mov    %eax,-0x1c(%ebp)
    408b:	39 d8                	cmp    %ebx,%eax
    408d:	74 49                	je     40d8 <fun_del_ref+0xd8>
    408f:	90                   	nop
    4090:	8b 0b                	mov    (%ebx),%ecx
    4092:	85 c9                	test   %ecx,%ecx
    4094:	74 0e                	je     40a4 <fun_del_ref+0xa4>
    4096:	8b 53 04             	mov    0x4(%ebx),%edx
    4099:	85 d2                	test   %edx,%edx
    409b:	74 07                	je     40a4 <fun_del_ref+0xa4>
    409d:	89 0a                	mov    %ecx,(%edx)
    409f:	8b 0b                	mov    (%ebx),%ecx
    40a1:	89 51 04             	mov    %edx,0x4(%ecx)
    40a4:	8b 53 08             	mov    0x8(%ebx),%edx
    40a7:	c7 03 00 00 00 00    	movl   $0x0,(%ebx)
    40ad:	c7 43 04 00 00 00 00 	movl   $0x0,0x4(%ebx)
    40b4:	85 d2                	test   %edx,%edx
    40b6:	74 0c                	je     40c4 <fun_del_ref+0xc4>
    40b8:	83 ec 0c             	sub    $0xc,%esp
    40bb:	52                   	push   %edx
    40bc:	e8 9f b7 00 00       	call   f860 <free@plt>
    40c1:	83 c4 10             	add    $0x10,%esp
    40c4:	83 ec 0c             	sub    $0xc,%esp
    40c7:	53                   	push   %ebx
    40c8:	e8 93 b7 00 00       	call   f860 <free@plt>
    40cd:	8b 5f 1c             	mov    0x1c(%edi),%ebx
    40d0:	83 c4 10             	add    $0x10,%esp
    40d3:	3b 5d e4             	cmp    -0x1c(%ebp),%ebx
    40d6:	75 b8                	jne    4090 <fun_del_ref+0x90>
    40d8:	8b 57 20             	mov    0x20(%edi),%edx
    40db:	85 d2                	test   %edx,%edx
    40dd:	74 0c                	je     40eb <fun_del_ref+0xeb>
    40df:	83 ec 0c             	sub    $0xc,%esp
    40e2:	52                   	push   %edx
    40e3:	e8 78 b7 00 00       	call   f860 <free@plt>
    40e8:	83 c4 10             	add    $0x10,%esp
    40eb:	8b 57 14             	mov    0x14(%edi),%edx
    40ee:	85 d2                	test   %edx,%edx
    40f0:	74 0c                	je     40fe <fun_del_ref+0xfe>
    40f2:	83 ec 0c             	sub    $0xc,%esp
    40f5:	52                   	push   %edx
    40f6:	e8 65 b7 00 00       	call   f860 <free@plt>
    40fb:	83 c4 10             	add    $0x10,%esp
    40fe:	83 ec 0c             	sub    $0xc,%esp
    4101:	57                   	push   %edi
    4102:	e8 59 b7 00 00       	call   f860 <free@plt>
    4107:	83 c4 10             	add    $0x10,%esp
    410a:	e9 08 ff ff ff       	jmp    4017 <fun_del_ref+0x17>
    410f:	90                   	nop

00004110 <driver_connection_gen.constprop.7>:
    4110:	55                   	push   %ebp
    4111:	89 e5                	mov    %esp,%ebp
    4113:	57                   	push   %edi
    4114:	56                   	push   %esi
    4115:	53                   	push   %ebx
    4116:	83 ec 58             	sub    $0x58,%esp
    4119:	89 d3                	mov    %edx,%ebx
    411b:	8b 72 08             	mov    0x8(%edx),%esi
    411e:	89 45 b4             	mov    %eax,-0x4c(%ebp)
    4121:	68 14 18 01 00       	push   $0x11814
    4126:	e8 55 b7 00 00       	call   f880 <fibril_mutex_lock@plt>
    412b:	c7 04 24 14 18 01 00 	movl   $0x11814,(%esp)
    4132:	e8 f9 b2 00 00       	call   f430 <fibril_mutex_is_locked@plt>
    4137:	83 c4 10             	add    $0x10,%esp
    413a:	84 c0                	test   %al,%al
    413c:	0f 84 71 02 00 00    	je     43b3 <driver_connection_gen.constprop.7+0x2a3>
    4142:	a1 28 18 01 00       	mov    0x11828,%eax
    4147:	3d 24 18 01 00       	cmp    $0x11824,%eax
    414c:	8d 78 d4             	lea    -0x2c(%eax),%edi
    414f:	75 18                	jne    4169 <driver_connection_gen.constprop.7+0x59>
    4151:	e9 22 02 00 00       	jmp    4378 <driver_connection_gen.constprop.7+0x268>
    4156:	66 90                	xchg   %ax,%ax
    4158:	8b 40 04             	mov    0x4(%eax),%eax
    415b:	3d 24 18 01 00       	cmp    $0x11824,%eax
    4160:	8d 78 d4             	lea    -0x2c(%eax),%edi
    4163:	0f 84 0f 02 00 00    	je     4378 <driver_connection_gen.constprop.7+0x268>
    4169:	3b 77 04             	cmp    0x4(%edi),%esi
    416c:	75 ea                	jne    4158 <driver_connection_gen.constprop.7+0x48>
    416e:	8b 47 0c             	mov    0xc(%edi),%eax
    4171:	f0 ff 40 04          	lock incl 0x4(%eax)
    4175:	f0 ff 47 08          	lock incl 0x8(%edi)
    4179:	83 ec 0c             	sub    $0xc,%esp
    417c:	68 14 18 01 00       	push   $0x11814
    4181:	e8 6a b4 00 00       	call   f5f0 <fibril_mutex_unlock@plt>
    4186:	8b 47 28             	mov    0x28(%edi),%eax
    4189:	83 c4 10             	add    $0x10,%esp
    418c:	85 c0                	test   %eax,%eax
    418e:	74 20                	je     41b0 <driver_connection_gen.constprop.7+0xa0>
    4190:	8b 55 b4             	mov    -0x4c(%ebp),%edx
    4193:	56                   	push   %esi
    4194:	57                   	push   %edi
    4195:	53                   	push   %ebx
    4196:	52                   	push   %edx
    4197:	ff d0                	call   *%eax
    4199:	89 f8                	mov    %edi,%eax
    419b:	e8 60 fe ff ff       	call   4000 <fun_del_ref>
    41a0:	83 c4 10             	add    $0x10,%esp
    41a3:	8d 65 f4             	lea    -0xc(%ebp),%esp
    41a6:	5b                   	pop    %ebx
    41a7:	5e                   	pop    %esi
    41a8:	5f                   	pop    %edi
    41a9:	5d                   	pop    %ebp
    41aa:	c3                   	ret    
    41ab:	90                   	nop
    41ac:	8d 74 26 00          	lea    0x0(%esi,%eiz,1),%esi
    41b0:	8b 47 24             	mov    0x24(%edi),%eax
    41b3:	85 c0                	test   %eax,%eax
    41b5:	0f 84 a5 01 00 00    	je     4360 <driver_connection_gen.constprop.7+0x250>
    41bb:	8b 00                	mov    (%eax),%eax
    41bd:	85 c0                	test   %eax,%eax
    41bf:	0f 84 9b 01 00 00    	je     4360 <driver_connection_gen.constprop.7+0x250>
    41c5:	83 ec 0c             	sub    $0xc,%esp
    41c8:	57                   	push   %edi
    41c9:	ff d0                	call   *%eax
    41cb:	8b 4d b4             	mov    -0x4c(%ebp),%ecx
    41ce:	89 c3                	mov    %eax,%ebx
    41d0:	58                   	pop    %eax
    41d1:	5a                   	pop    %edx
    41d2:	53                   	push   %ebx
    41d3:	51                   	push   %ecx
    41d4:	e8 27 b3 00 00       	call   f500 <async_answer_0@plt>
    41d9:	83 c4 10             	add    $0x10,%esp
    41dc:	85 db                	test   %ebx,%ebx
    41de:	0f 85 70 01 00 00    	jne    4354 <driver_connection_gen.constprop.7+0x244>
    41e4:	8d 74 26 00          	lea    0x0(%esi,%eiz,1),%esi
    41e8:	50                   	push   %eax
    41e9:	50                   	push   %eax
    41ea:	8d 45 c4             	lea    -0x3c(%ebp),%eax
    41ed:	6a 00                	push   $0x0
    41ef:	50                   	push   %eax
    41f0:	e8 3b b5 00 00       	call   f730 <async_get_call_timeout@plt>
    41f5:	8b 5d c4             	mov    -0x3c(%ebp),%ebx
    41f8:	83 c4 10             	add    $0x10,%esp
    41fb:	89 45 b4             	mov    %eax,-0x4c(%ebp)
    41fe:	85 db                	test   %ebx,%ebx
    4200:	0f 84 e2 00 00 00    	je     42e8 <driver_connection_gen.constprop.7+0x1d8>
    4206:	83 ec 0c             	sub    $0xc,%esp
    4209:	81 eb 00 04 00 00    	sub    $0x400,%ebx
    420f:	53                   	push   %ebx
    4210:	e8 cb 0f 00 00       	call   51e0 <is_valid_iface_idx>
    4215:	83 c4 10             	add    $0x10,%esp
    4218:	84 c0                	test   %al,%al
    421a:	75 2c                	jne    4248 <driver_connection_gen.constprop.7+0x138>
    421c:	8b 47 24             	mov    0x24(%edi),%eax
    421f:	85 c0                	test   %eax,%eax
    4221:	0f 84 91 00 00 00    	je     42b8 <driver_connection_gen.constprop.7+0x1a8>
    4227:	8b 40 44             	mov    0x44(%eax),%eax
    422a:	85 c0                	test   %eax,%eax
    422c:	0f 84 86 00 00 00    	je     42b8 <driver_connection_gen.constprop.7+0x1a8>
    4232:	8d 4d c4             	lea    -0x3c(%ebp),%ecx
    4235:	52                   	push   %edx
    4236:	51                   	push   %ecx
    4237:	8b 4d b4             	mov    -0x4c(%ebp),%ecx
    423a:	51                   	push   %ecx
    423b:	57                   	push   %edi
    423c:	ff d0                	call   *%eax
    423e:	83 c4 10             	add    $0x10,%esp
    4241:	eb a5                	jmp    41e8 <driver_connection_gen.constprop.7+0xd8>
    4243:	90                   	nop
    4244:	8d 74 26 00          	lea    0x0(%esi,%eiz,1),%esi
    4248:	83 ec 0c             	sub    $0xc,%esp
    424b:	53                   	push   %ebx
    424c:	e8 8f 0f 00 00       	call   51e0 <is_valid_iface_idx>
    4251:	83 c4 10             	add    $0x10,%esp
    4254:	84 c0                	test   %al,%al
    4256:	0f 84 69 01 00 00    	je     43c5 <driver_connection_gen.constprop.7+0x2b5>
    425c:	8b 47 24             	mov    0x24(%edi),%eax
    425f:	85 c0                	test   %eax,%eax
    4261:	0f 84 b9 00 00 00    	je     4320 <driver_connection_gen.constprop.7+0x210>
    4267:	8b 44 98 08          	mov    0x8(%eax,%ebx,4),%eax
    426b:	89 45 b0             	mov    %eax,-0x50(%ebp)
    426e:	85 c0                	test   %eax,%eax
    4270:	0f 84 aa 00 00 00    	je     4320 <driver_connection_gen.constprop.7+0x210>
    4276:	83 ec 0c             	sub    $0xc,%esp
    4279:	53                   	push   %ebx
    427a:	e8 11 0f 00 00       	call   5190 <get_remote_iface>
    427f:	83 c4 10             	add    $0x10,%esp
    4282:	85 c0                	test   %eax,%eax
    4284:	0f 84 50 01 00 00    	je     43da <driver_connection_gen.constprop.7+0x2ca>
    428a:	8b 4d c8             	mov    -0x38(%ebp),%ecx
    428d:	52                   	push   %edx
    428e:	52                   	push   %edx
    428f:	51                   	push   %ecx
    4290:	50                   	push   %eax
    4291:	e8 2a 0f 00 00       	call   51c0 <get_remote_method>
    4296:	83 c4 10             	add    $0x10,%esp
    4299:	85 c0                	test   %eax,%eax
    429b:	0f 84 9f 00 00 00    	je     4340 <driver_connection_gen.constprop.7+0x230>
    42a1:	8d 55 c4             	lea    -0x3c(%ebp),%edx
    42a4:	8b 4d b0             	mov    -0x50(%ebp),%ecx
    42a7:	52                   	push   %edx
    42a8:	8b 55 b4             	mov    -0x4c(%ebp),%edx
    42ab:	52                   	push   %edx
    42ac:	51                   	push   %ecx
    42ad:	57                   	push   %edi
    42ae:	ff d0                	call   *%eax
    42b0:	83 c4 10             	add    $0x10,%esp
    42b3:	e9 30 ff ff ff       	jmp    41e8 <driver_connection_gen.constprop.7+0xd8>
    42b8:	50                   	push   %eax
    42b9:	a1 ac 19 01 00       	mov    0x119ac,%eax
    42be:	53                   	push   %ebx
    42bf:	8b 00                	mov    (%eax),%eax
    42c1:	50                   	push   %eax
    42c2:	68 c0 d7 00 00       	push   $0xd7c0
    42c7:	e8 e4 b0 00 00       	call   f3b0 <printf@plt>
    42cc:	5b                   	pop    %ebx
    42cd:	58                   	pop    %eax
    42ce:	8b 45 b4             	mov    -0x4c(%ebp),%eax
    42d1:	6a f5                	push   $0xfffffff5
    42d3:	50                   	push   %eax
    42d4:	e8 27 b2 00 00       	call   f500 <async_answer_0@plt>
    42d9:	83 c4 10             	add    $0x10,%esp
    42dc:	e9 07 ff ff ff       	jmp    41e8 <driver_connection_gen.constprop.7+0xd8>
    42e1:	8d b4 26 00 00 00 00 	lea    0x0(%esi,%eiz,1),%esi
    42e8:	8b 47 24             	mov    0x24(%edi),%eax
    42eb:	85 c0                	test   %eax,%eax
    42ed:	74 10                	je     42ff <driver_connection_gen.constprop.7+0x1ef>
    42ef:	8b 40 04             	mov    0x4(%eax),%eax
    42f2:	85 c0                	test   %eax,%eax
    42f4:	74 09                	je     42ff <driver_connection_gen.constprop.7+0x1ef>
    42f6:	83 ec 0c             	sub    $0xc,%esp
    42f9:	57                   	push   %edi
    42fa:	ff d0                	call   *%eax
    42fc:	83 c4 10             	add    $0x10,%esp
    42ff:	8b 75 b4             	mov    -0x4c(%ebp),%esi
    4302:	53                   	push   %ebx
    4303:	53                   	push   %ebx
    4304:	6a 00                	push   $0x0
    4306:	56                   	push   %esi
    4307:	e8 f4 b1 00 00       	call   f500 <async_answer_0@plt>
    430c:	89 f8                	mov    %edi,%eax
    430e:	e8 ed fc ff ff       	call   4000 <fun_del_ref>
    4313:	83 c4 10             	add    $0x10,%esp
    4316:	8d 65 f4             	lea    -0xc(%ebp),%esp
    4319:	5b                   	pop    %ebx
    431a:	5e                   	pop    %esi
    431b:	5f                   	pop    %edi
    431c:	5d                   	pop    %ebp
    431d:	c3                   	ret    
    431e:	66 90                	xchg   %ax,%ax
    4320:	50                   	push   %eax
    4321:	50                   	push   %eax
    4322:	a1 ac 19 01 00       	mov    0x119ac,%eax
    4327:	8b 00                	mov    (%eax),%eax
    4329:	50                   	push   %eax
    432a:	68 fc d7 00 00       	push   $0xd7fc
    432f:	e8 7c b0 00 00       	call   f3b0 <printf@plt>
    4334:	83 c4 0c             	add    $0xc,%esp
    4337:	53                   	push   %ebx
    4338:	56                   	push   %esi
    4339:	68 20 d8 00 00       	push   $0xd820
    433e:	eb 87                	jmp    42c7 <driver_connection_gen.constprop.7+0x1b7>
    4340:	50                   	push   %eax
    4341:	50                   	push   %eax
    4342:	a1 ac 19 01 00       	mov    0x119ac,%eax
    4347:	8b 00                	mov    (%eax),%eax
    4349:	50                   	push   %eax
    434a:	68 58 d8 00 00       	push   $0xd858
    434f:	e9 73 ff ff ff       	jmp    42c7 <driver_connection_gen.constprop.7+0x1b7>
    4354:	89 f8                	mov    %edi,%eax
    4356:	e8 a5 fc ff ff       	call   4000 <fun_del_ref>
    435b:	e9 43 fe ff ff       	jmp    41a3 <driver_connection_gen.constprop.7+0x93>
    4360:	8b 55 b4             	mov    -0x4c(%ebp),%edx
    4363:	50                   	push   %eax
    4364:	50                   	push   %eax
    4365:	6a 00                	push   $0x0
    4367:	52                   	push   %edx
    4368:	e8 93 b1 00 00       	call   f500 <async_answer_0@plt>
    436d:	83 c4 10             	add    $0x10,%esp
    4370:	e9 73 fe ff ff       	jmp    41e8 <driver_connection_gen.constprop.7+0xd8>
    4375:	8d 76 00             	lea    0x0(%esi),%esi
    4378:	83 ec 0c             	sub    $0xc,%esp
    437b:	68 14 18 01 00       	push   $0x11814
    4380:	e8 6b b2 00 00       	call   f5f0 <fibril_mutex_unlock@plt>
    4385:	a1 ac 19 01 00       	mov    0x119ac,%eax
    438a:	83 c4 0c             	add    $0xc,%esp
    438d:	8b 08                	mov    (%eax),%ecx
    438f:	56                   	push   %esi
    4390:	51                   	push   %ecx
    4391:	68 94 d8 00 00       	push   $0xd894
    4396:	e8 15 b0 00 00       	call   f3b0 <printf@plt>
    439b:	8b 7d b4             	mov    -0x4c(%ebp),%edi
    439e:	5b                   	pop    %ebx
    439f:	5e                   	pop    %esi
    43a0:	6a ff                	push   $0xffffffff
    43a2:	57                   	push   %edi
    43a3:	e8 58 b1 00 00       	call   f500 <async_answer_0@plt>
    43a8:	83 c4 10             	add    $0x10,%esp
    43ab:	8d 65 f4             	lea    -0xc(%ebp),%esp
    43ae:	5b                   	pop    %ebx
    43af:	5e                   	pop    %esi
    43b0:	5f                   	pop    %edi
    43b1:	5d                   	pop    %ebp
    43b2:	c3                   	ret    
    43b3:	51                   	push   %ecx
    43b4:	6a 6b                	push   $0x6b
    43b6:	68 3c d6 00 00       	push   $0xd63c
    43bb:	68 94 d7 00 00       	push   $0xd794
    43c0:	e8 9b b1 00 00       	call   f560 <assert_abort@plt>
    43c5:	50                   	push   %eax
    43c6:	68 fb 02 00 00       	push   $0x2fb
    43cb:	68 3c d6 00 00       	push   $0xd63c
    43d0:	68 4d d6 00 00       	push   $0xd64d
    43d5:	e8 86 b1 00 00       	call   f560 <assert_abort@plt>
    43da:	53                   	push   %ebx
    43db:	68 aa 01 00 00       	push   $0x1aa
    43e0:	68 3c d6 00 00       	push   $0xd63c
    43e5:	68 65 d6 00 00       	push   $0xd665
    43ea:	e8 71 b1 00 00       	call   f560 <assert_abort@plt>
    43ef:	90                   	nop

000043f0 <driver_connection_driver>:
    43f0:	55                   	push   %ebp
    43f1:	89 e5                	mov    %esp,%ebp
    43f3:	8b 55 0c             	mov    0xc(%ebp),%edx
    43f6:	8b 45 08             	mov    0x8(%ebp),%eax
    43f9:	5d                   	pop    %ebp
    43fa:	e9 11 fd ff ff       	jmp    4110 <driver_connection_gen.constprop.7>
    43ff:	90                   	nop

00004400 <driver_connection_client>:
    4400:	55                   	push   %ebp
    4401:	89 e5                	mov    %esp,%ebp
    4403:	8b 55 0c             	mov    0xc(%ebp),%edx
    4406:	8b 45 08             	mov    0x8(%ebp),%eax
    4409:	5d                   	pop    %ebp
    440a:	e9 01 fd ff ff       	jmp    4110 <driver_connection_gen.constprop.7>
    440f:	90                   	nop

00004410 <driver_connection_devman>:
    4410:	55                   	push   %ebp
    4411:	89 e5                	mov    %esp,%ebp
    4413:	57                   	push   %edi
    4414:	56                   	push   %esi
    4415:	53                   	push   %ebx
    4416:	83 ec 54             	sub    $0x54,%esp
    4419:	8d 75 c4             	lea    -0x3c(%ebp),%esi
    441c:	8b 45 08             	mov    0x8(%ebp),%eax
    441f:	6a 00                	push   $0x0
    4421:	50                   	push   %eax
    4422:	e8 d9 b0 00 00       	call   f500 <async_answer_0@plt>
    4427:	83 c4 10             	add    $0x10,%esp
    442a:	8d b6 00 00 00 00    	lea    0x0(%esi),%esi
    4430:	50                   	push   %eax
    4431:	50                   	push   %eax
    4432:	6a 00                	push   $0x0
    4434:	56                   	push   %esi
    4435:	e8 f6 b2 00 00       	call   f730 <async_get_call_timeout@plt>
    443a:	83 c4 10             	add    $0x10,%esp
    443d:	89 c3                	mov    %eax,%ebx
    443f:	8b 45 c4             	mov    -0x3c(%ebp),%eax
    4442:	85 c0                	test   %eax,%eax
    4444:	0f 84 de 03 00 00    	je     4828 <driver_connection_devman+0x418>
    444a:	2d 00 04 00 00       	sub    $0x400,%eax
    444f:	83 f8 04             	cmp    $0x4,%eax
    4452:	0f 87 b8 03 00 00    	ja     4810 <driver_connection_devman+0x400>
    4458:	8b 7d c8             	mov    -0x38(%ebp),%edi
    445b:	ff 24 85 44 d9 00 00 	jmp    *0xd944(,%eax,4)
    4462:	8d b6 00 00 00 00    	lea    0x0(%esi),%esi
    4468:	83 ec 0c             	sub    $0xc,%esp
    446b:	68 14 18 01 00       	push   $0x11814
    4470:	e8 0b b4 00 00       	call   f880 <fibril_mutex_lock@plt>
    4475:	c7 04 24 14 18 01 00 	movl   $0x11814,(%esp)
    447c:	e8 af af 00 00       	call   f430 <fibril_mutex_is_locked@plt>
    4481:	83 c4 10             	add    $0x10,%esp
    4484:	84 c0                	test   %al,%al
    4486:	0f 84 5a 04 00 00    	je     48e6 <driver_connection_devman+0x4d6>
    448c:	a1 28 18 01 00       	mov    0x11828,%eax
    4491:	3d 24 18 01 00       	cmp    $0x11824,%eax
    4496:	8d 50 d4             	lea    -0x2c(%eax),%edx
    4499:	75 16                	jne    44b1 <driver_connection_devman+0xa1>
    449b:	e9 90 03 00 00       	jmp    4830 <driver_connection_devman+0x420>
    44a0:	8b 40 04             	mov    0x4(%eax),%eax
    44a3:	3d 24 18 01 00       	cmp    $0x11824,%eax
    44a8:	8d 50 d4             	lea    -0x2c(%eax),%edx
    44ab:	0f 84 7f 03 00 00    	je     4830 <driver_connection_devman+0x420>
    44b1:	3b 7a 04             	cmp    0x4(%edx),%edi
    44b4:	75 ea                	jne    44a0 <driver_connection_devman+0x90>
    44b6:	8b 42 0c             	mov    0xc(%edx),%eax
    44b9:	f0 ff 40 04          	lock incl 0x4(%eax)
    44bd:	f0 ff 42 08          	lock incl 0x8(%edx)
    44c1:	83 ec 0c             	sub    $0xc,%esp
    44c4:	89 55 b4             	mov    %edx,-0x4c(%ebp)
    44c7:	68 14 18 01 00       	push   $0x11814
    44cc:	e8 1f b1 00 00       	call   f5f0 <fibril_mutex_unlock@plt>
    44d1:	a1 ac 19 01 00       	mov    0x119ac,%eax
    44d6:	83 c4 10             	add    $0x10,%esp
    44d9:	8b 55 b4             	mov    -0x4c(%ebp),%edx
    44dc:	8b 40 04             	mov    0x4(%eax),%eax
    44df:	8b 40 0c             	mov    0xc(%eax),%eax
    44e2:	85 c0                	test   %eax,%eax
    44e4:	0f 84 76 03 00 00    	je     4860 <driver_connection_devman+0x450>
    44ea:	83 ec 0c             	sub    $0xc,%esp
    44ed:	52                   	push   %edx
    44ee:	ff d0                	call   *%eax
    44f0:	83 c4 10             	add    $0x10,%esp
    44f3:	89 c7                	mov    %eax,%edi
    44f5:	8b 55 b4             	mov    -0x4c(%ebp),%edx
    44f8:	89 d0                	mov    %edx,%eax
    44fa:	e8 01 fb ff ff       	call   4000 <fun_del_ref>
    44ff:	51                   	push   %ecx
    4500:	51                   	push   %ecx
    4501:	57                   	push   %edi
    4502:	53                   	push   %ebx
    4503:	e8 f8 af 00 00       	call   f500 <async_answer_0@plt>
    4508:	83 c4 10             	add    $0x10,%esp
    450b:	e9 20 ff ff ff       	jmp    4430 <driver_connection_devman+0x20>
    4510:	83 ec 0c             	sub    $0xc,%esp
    4513:	68 2c 18 01 00       	push   $0x1182c
    4518:	e8 63 b3 00 00       	call   f880 <fibril_mutex_lock@plt>
    451d:	c7 04 24 2c 18 01 00 	movl   $0x1182c,(%esp)
    4524:	e8 07 af 00 00       	call   f430 <fibril_mutex_is_locked@plt>
    4529:	83 c4 10             	add    $0x10,%esp
    452c:	84 c0                	test   %al,%al
    452e:	0f 84 a0 03 00 00    	je     48d4 <driver_connection_devman+0x4c4>
    4534:	a1 40 18 01 00       	mov    0x11840,%eax
    4539:	3d 3c 18 01 00       	cmp    $0x1183c,%eax
    453e:	8d 50 ec             	lea    -0x14(%eax),%edx
    4541:	75 16                	jne    4559 <driver_connection_devman+0x149>
    4543:	e9 08 03 00 00       	jmp    4850 <driver_connection_devman+0x440>
    4548:	8b 40 04             	mov    0x4(%eax),%eax
    454b:	3d 3c 18 01 00       	cmp    $0x1183c,%eax
    4550:	8d 50 ec             	lea    -0x14(%eax),%edx
    4553:	0f 84 f7 02 00 00    	je     4850 <driver_connection_devman+0x440>
    4559:	3b 78 ec             	cmp    -0x14(%eax),%edi
    455c:	75 ea                	jne    4548 <driver_connection_devman+0x138>
    455e:	8d 7a 04             	lea    0x4(%edx),%edi
    4561:	f0 ff 42 04          	lock incl 0x4(%edx)
    4565:	83 ec 0c             	sub    $0xc,%esp
    4568:	89 55 b4             	mov    %edx,-0x4c(%ebp)
    456b:	68 2c 18 01 00       	push   $0x1182c
    4570:	e8 7b b0 00 00       	call   f5f0 <fibril_mutex_unlock@plt>
    4575:	a1 ac 19 01 00       	mov    0x119ac,%eax
    457a:	83 c4 10             	add    $0x10,%esp
    457d:	8b 40 04             	mov    0x4(%eax),%eax
    4580:	8b 40 08             	mov    0x8(%eax),%eax
    4583:	85 c0                	test   %eax,%eax
    4585:	0f 85 88 00 00 00    	jne    4613 <driver_connection_devman+0x203>
    458b:	b8 f5 ff ff ff       	mov    $0xfffffff5,%eax
    4590:	e9 63 02 00 00       	jmp    47f8 <driver_connection_devman+0x3e8>
    4595:	8d 76 00             	lea    0x0(%esi),%esi
    4598:	83 ec 0c             	sub    $0xc,%esp
    459b:	68 2c 18 01 00       	push   $0x1182c
    45a0:	e8 db b2 00 00       	call   f880 <fibril_mutex_lock@plt>
    45a5:	c7 04 24 2c 18 01 00 	movl   $0x1182c,(%esp)
    45ac:	e8 7f ae 00 00       	call   f430 <fibril_mutex_is_locked@plt>
    45b1:	83 c4 10             	add    $0x10,%esp
    45b4:	84 c0                	test   %al,%al
    45b6:	0f 84 18 03 00 00    	je     48d4 <driver_connection_devman+0x4c4>
    45bc:	a1 40 18 01 00       	mov    0x11840,%eax
    45c1:	3d 3c 18 01 00       	cmp    $0x1183c,%eax
    45c6:	8d 50 ec             	lea    -0x14(%eax),%edx
    45c9:	75 16                	jne    45e1 <driver_connection_devman+0x1d1>
    45cb:	e9 80 02 00 00       	jmp    4850 <driver_connection_devman+0x440>
    45d0:	8b 40 04             	mov    0x4(%eax),%eax
    45d3:	3d 3c 18 01 00       	cmp    $0x1183c,%eax
    45d8:	8d 50 ec             	lea    -0x14(%eax),%edx
    45db:	0f 84 6f 02 00 00    	je     4850 <driver_connection_devman+0x440>
    45e1:	3b 78 ec             	cmp    -0x14(%eax),%edi
    45e4:	75 ea                	jne    45d0 <driver_connection_devman+0x1c0>
    45e6:	8d 7a 04             	lea    0x4(%edx),%edi
    45e9:	f0 ff 42 04          	lock incl 0x4(%edx)
    45ed:	83 ec 0c             	sub    $0xc,%esp
    45f0:	89 55 b4             	mov    %edx,-0x4c(%ebp)
    45f3:	68 2c 18 01 00       	push   $0x1182c
    45f8:	e8 f3 af 00 00       	call   f5f0 <fibril_mutex_unlock@plt>
    45fd:	a1 ac 19 01 00       	mov    0x119ac,%eax
    4602:	83 c4 10             	add    $0x10,%esp
    4605:	8b 40 04             	mov    0x4(%eax),%eax
    4608:	8b 40 04             	mov    0x4(%eax),%eax
    460b:	85 c0                	test   %eax,%eax
    460d:	0f 84 78 ff ff ff    	je     458b <driver_connection_devman+0x17b>
    4613:	83 ec 0c             	sub    $0xc,%esp
    4616:	8b 55 b4             	mov    -0x4c(%ebp),%edx
    4619:	52                   	push   %edx
    461a:	ff d0                	call   *%eax
    461c:	83 c4 10             	add    $0x10,%esp
    461f:	8b 55 b4             	mov    -0x4c(%ebp),%edx
    4622:	85 c0                	test   %eax,%eax
    4624:	0f 85 ce 01 00 00    	jne    47f8 <driver_connection_devman+0x3e8>
    462a:	83 c9 ff             	or     $0xffffffff,%ecx
    462d:	f0 0f c1 0f          	lock xadd %ecx,(%edi)
    4631:	49                   	dec    %ecx
    4632:	0f 85 c0 01 00 00    	jne    47f8 <driver_connection_devman+0x3e8>
    4638:	8b 42 08             	mov    0x8(%edx),%eax
    463b:	85 c0                	test   %eax,%eax
    463d:	74 0f                	je     464e <driver_connection_devman+0x23e>
    463f:	83 ec 0c             	sub    $0xc,%esp
    4642:	50                   	push   %eax
    4643:	e8 78 ad 00 00       	call   f3c0 <async_hangup@plt>
    4648:	83 c4 10             	add    $0x10,%esp
    464b:	8b 55 b4             	mov    -0x4c(%ebp),%edx
    464e:	8b 42 10             	mov    0x10(%edx),%eax
    4651:	85 c0                	test   %eax,%eax
    4653:	74 12                	je     4667 <driver_connection_devman+0x257>
    4655:	83 ec 0c             	sub    $0xc,%esp
    4658:	89 55 b4             	mov    %edx,-0x4c(%ebp)
    465b:	50                   	push   %eax
    465c:	e8 ff b1 00 00       	call   f860 <free@plt>
    4661:	83 c4 10             	add    $0x10,%esp
    4664:	8b 55 b4             	mov    -0x4c(%ebp),%edx
    4667:	8b 42 0c             	mov    0xc(%edx),%eax
    466a:	85 c0                	test   %eax,%eax
    466c:	74 12                	je     4680 <driver_connection_devman+0x270>
    466e:	83 ec 0c             	sub    $0xc,%esp
    4671:	89 55 b4             	mov    %edx,-0x4c(%ebp)
    4674:	50                   	push   %eax
    4675:	e8 e6 b1 00 00       	call   f860 <free@plt>
    467a:	83 c4 10             	add    $0x10,%esp
    467d:	8b 55 b4             	mov    -0x4c(%ebp),%edx
    4680:	83 ec 0c             	sub    $0xc,%esp
    4683:	52                   	push   %edx
    4684:	e8 d7 b1 00 00       	call   f860 <free@plt>
    4689:	83 c4 10             	add    $0x10,%esp
    468c:	31 c0                	xor    %eax,%eax
    468e:	e9 65 01 00 00       	jmp    47f8 <driver_connection_devman+0x3e8>
    4693:	90                   	nop
    4694:	8d 74 26 00          	lea    0x0(%esi,%eiz,1),%esi
    4698:	50                   	push   %eax
    4699:	50                   	push   %eax
    469a:	8d 45 c0             	lea    -0x40(%ebp),%eax
    469d:	6a 00                	push   $0x0
    469f:	c7 45 c0 00 00 00 00 	movl   $0x0,-0x40(%ebp)
    46a6:	6a 00                	push   $0x0
    46a8:	6a 00                	push   $0x0
    46aa:	6a 00                	push   $0x0
    46ac:	6a 01                	push   $0x1
    46ae:	50                   	push   %eax
    46af:	e8 3c b1 00 00       	call   f7f0 <async_data_write_accept@plt>
    46b4:	83 c4 20             	add    $0x20,%esp
    46b7:	85 c0                	test   %eax,%eax
