
logger:     file format elf32-i386


Disassembly of section .init:

000010b4 <__entry>:
    10b4:	66 8c d0             	mov    %ss,%ax
    10b7:	8e d8                	mov    %eax,%ds
    10b9:	8e c0                	mov    %eax,%es
    10bb:	8e e0                	mov    %eax,%fs
    10bd:	b8 01 00 00 00       	mov    $0x1,%eax
    10c2:	0f a2                	cpuid  
    10c4:	0f ba e2 0b          	bt     $0xb,%edx
    10c8:	73 0c                	jae    10d6 <__entry+0x22>
    10ca:	8d 05 f8 80 02 00    	lea    0x280f8,%eax
    10d0:	c7 00 cd f3 01 00    	movl   $0x1f3cd,(%eax)
    10d6:	6a 00                	push   $0x0
    10d8:	6a 00                	push   $0x0
    10da:	89 e5                	mov    %esp,%ebp
    10dc:	57                   	push   %edi
    10dd:	e8 fe 0f 00 00       	call   20e0 <__main>

Disassembly of section .text:

00001100 <logger_connection_handler_control>:
    1100:	55                   	push   %ebp
    1101:	89 e5                	mov    %esp,%ebp
    1103:	57                   	push   %edi
    1104:	56                   	push   %esi
    1105:	53                   	push   %ebx
    1106:	83 ec 54             	sub    $0x54,%esp
    1109:	8d 5d c4             	lea    -0x3c(%ebp),%ebx
    110c:	8b 7d 08             	mov    0x8(%ebp),%edi
    110f:	6a 00                	push   $0x0
    1111:	57                   	push   %edi
    1112:	e8 39 55 01 00       	call   16650 <async_answer_0>
    1117:	83 c4 10             	add    $0x10,%esp
    111a:	8d b6 00 00 00 00    	lea    0x0(%esi),%esi
    1120:	56                   	push   %esi
    1121:	56                   	push   %esi
    1122:	6a 00                	push   $0x0
    1124:	53                   	push   %ebx
    1125:	e8 a6 3c 01 00       	call   14dd0 <async_get_call_timeout>
    112a:	83 c4 10             	add    $0x10,%esp
    112d:	89 c6                	mov    %eax,%esi
    112f:	8b 45 c4             	mov    -0x3c(%ebp),%eax
    1132:	85 c0                	test   %eax,%eax
    1134:	0f 84 ae 00 00 00    	je     11e8 <logger_connection_handler_control+0xe8>
    113a:	3d 00 04 00 00       	cmp    $0x400,%eax
    113f:	74 37                	je     1178 <logger_connection_handler_control+0x78>
    1141:	3d 01 04 00 00       	cmp    $0x401,%eax
    1146:	75 50                	jne    1198 <logger_connection_handler_control+0x98>
    1148:	50                   	push   %eax
    1149:	50                   	push   %eax
    114a:	8d 45 c0             	lea    -0x40(%ebp),%eax
    114d:	6a 00                	push   $0x0
    114f:	8b 7d c8             	mov    -0x38(%ebp),%edi
    1152:	6a 00                	push   $0x0
    1154:	6a 00                	push   $0x0
    1156:	6a 00                	push   $0x0
    1158:	6a 01                	push   $0x1
    115a:	50                   	push   %eax
    115b:	e8 60 71 01 00       	call   182c0 <async_data_write_accept>
    1160:	83 c4 20             	add    $0x20,%esp
    1163:	85 c0                	test   %eax,%eax
    1165:	74 49                	je     11b0 <logger_connection_handler_control+0xb0>
    1167:	52                   	push   %edx
    1168:	52                   	push   %edx
    1169:	50                   	push   %eax
    116a:	56                   	push   %esi
    116b:	e8 e0 54 01 00       	call   16650 <async_answer_0>
    1170:	83 c4 10             	add    $0x10,%esp
    1173:	eb ab                	jmp    1120 <logger_connection_handler_control+0x20>
    1175:	8d 76 00             	lea    0x0(%esi),%esi
    1178:	83 ec 0c             	sub    $0xc,%esp
    117b:	8b 45 c8             	mov    -0x38(%ebp),%eax
    117e:	50                   	push   %eax
    117f:	e8 0c 02 00 00       	call   1390 <set_default_logging_level>
    1184:	5a                   	pop    %edx
    1185:	59                   	pop    %ecx
    1186:	50                   	push   %eax
    1187:	56                   	push   %esi
    1188:	e8 c3 54 01 00       	call   16650 <async_answer_0>
    118d:	83 c4 10             	add    $0x10,%esp
    1190:	eb 8e                	jmp    1120 <logger_connection_handler_control+0x20>
    1192:	8d b6 00 00 00 00    	lea    0x0(%esi),%esi
    1198:	50                   	push   %eax
    1199:	50                   	push   %eax
    119a:	6a f2                	push   $0xfffffff2
    119c:	56                   	push   %esi
    119d:	e8 ae 54 01 00       	call   16650 <async_answer_0>
    11a2:	83 c4 10             	add    $0x10,%esp
    11a5:	e9 76 ff ff ff       	jmp    1120 <logger_connection_handler_control+0x20>
    11aa:	8d b6 00 00 00 00    	lea    0x0(%esi),%esi
    11b0:	83 ec 0c             	sub    $0xc,%esp
    11b3:	8b 4d c0             	mov    -0x40(%ebp),%ecx
    11b6:	51                   	push   %ecx
    11b7:	e8 14 04 00 00       	call   15d0 <find_log_by_name_and_lock>
    11bc:	89 45 b4             	mov    %eax,-0x4c(%ebp)
    11bf:	58                   	pop    %eax
    11c0:	8b 45 c0             	mov    -0x40(%ebp),%eax
    11c3:	50                   	push   %eax
    11c4:	e8 d7 10 01 00       	call   122a0 <free>
    11c9:	8b 45 b4             	mov    -0x4c(%ebp),%eax
    11cc:	83 c4 10             	add    $0x10,%esp
    11cf:	85 c0                	test   %eax,%eax
    11d1:	74 1d                	je     11f0 <logger_connection_handler_control+0xf0>
    11d3:	83 ec 0c             	sub    $0xc,%esp
    11d6:	89 78 28             	mov    %edi,0x28(%eax)
    11d9:	50                   	push   %eax
    11da:	e8 41 05 00 00       	call   1720 <log_unlock>
    11df:	83 c4 10             	add    $0x10,%esp
    11e2:	31 c0                	xor    %eax,%eax
    11e4:	eb 81                	jmp    1167 <logger_connection_handler_control+0x67>
    11e6:	66 90                	xchg   %ax,%ax
    11e8:	8d 65 f4             	lea    -0xc(%ebp),%esp
    11eb:	5b                   	pop    %ebx
    11ec:	5e                   	pop    %esi
    11ed:	5f                   	pop    %edi
    11ee:	5d                   	pop    %ebp
    11ef:	c3                   	ret    
    11f0:	83 c8 ff             	or     $0xffffffff,%eax
    11f3:	e9 6f ff ff ff       	jmp    1167 <logger_connection_handler_control+0x67>
    11f8:	66 90                	xchg   %ax,%ax
    11fa:	66 90                	xchg   %ax,%ax
    11fc:	66 90                	xchg   %ax,%ax
    11fe:	66 90                	xchg   %ax,%ax

00001200 <parse_level_settings>:
    1200:	55                   	push   %ebp
    1201:	89 e5                	mov    %esp,%ebp
    1203:	57                   	push   %edi
    1204:	56                   	push   %esi
    1205:	53                   	push   %ebx
    1206:	83 ec 20             	sub    $0x20,%esp
    1209:	8d 7d dc             	lea    -0x24(%ebp),%edi
    120c:	8b 5d 08             	mov    0x8(%ebp),%ebx
    120f:	57                   	push   %edi
    1210:	68 b3 45 02 00       	push   $0x245b3
    1215:	53                   	push   %ebx
    1216:	e8 05 40 00 00       	call   5220 <str_tok>
    121b:	83 c4 10             	add    $0x10,%esp
    121e:	85 c0                	test   %eax,%eax
    1220:	0f 84 ca 00 00 00    	je     12f0 <parse_level_settings+0xf0>
    1226:	8d 75 e0             	lea    -0x20(%ebp),%esi
    1229:	eb 20                	jmp    124b <parse_level_settings+0x4b>
    122b:	90                   	nop
    122c:	8d 74 26 00          	lea    0x0(%esi,%eiz,1),%esi
    1230:	8b 55 dc             	mov    -0x24(%ebp),%edx
    1233:	50                   	push   %eax
    1234:	57                   	push   %edi
    1235:	68 b3 45 02 00       	push   $0x245b3
    123a:	52                   	push   %edx
    123b:	e8 e0 3f 00 00       	call   5220 <str_tok>
    1240:	83 c4 10             	add    $0x10,%esp
    1243:	85 c0                	test   %eax,%eax
    1245:	0f 84 a5 00 00 00    	je     12f0 <parse_level_settings+0xf0>
    124b:	52                   	push   %edx
    124c:	56                   	push   %esi
    124d:	68 66 44 02 00       	push   $0x24466
    1252:	50                   	push   %eax
    1253:	e8 c8 3f 00 00       	call   5220 <str_tok>
    1258:	83 c4 0c             	add    $0xc,%esp
    125b:	8b 4d e0             	mov    -0x20(%ebp),%ecx
    125e:	56                   	push   %esi
    125f:	89 c3                	mov    %eax,%ebx
    1261:	68 66 44 02 00       	push   $0x24466
    1266:	51                   	push   %ecx
    1267:	e8 b4 3f 00 00       	call   5220 <str_tok>
    126c:	83 c4 10             	add    $0x10,%esp
    126f:	85 db                	test   %ebx,%ebx
    1271:	74 bd                	je     1230 <parse_level_settings+0x30>
    1273:	85 c0                	test   %eax,%eax
    1275:	74 49                	je     12c0 <parse_level_settings+0xc0>
    1277:	8d 4d e4             	lea    -0x1c(%ebp),%ecx
    127a:	52                   	push   %edx
    127b:	52                   	push   %edx
    127c:	51                   	push   %ecx
    127d:	50                   	push   %eax
    127e:	e8 5d ba 00 00       	call   cce0 <log_level_from_str>
    1283:	83 c4 10             	add    $0x10,%esp
    1286:	85 c0                	test   %eax,%eax
    1288:	75 a6                	jne    1230 <parse_level_settings+0x30>
    128a:	50                   	push   %eax
    128b:	50                   	push   %eax
    128c:	6a 00                	push   $0x0
    128e:	53                   	push   %ebx
    128f:	e8 3c 01 00 00       	call   13d0 <find_or_create_log_and_lock>
    1294:	83 c4 10             	add    $0x10,%esp
    1297:	85 c0                	test   %eax,%eax
    1299:	74 95                	je     1230 <parse_level_settings+0x30>
    129b:	8b 48 08             	mov    0x8(%eax),%ecx
    129e:	83 ec 0c             	sub    $0xc,%esp
    12a1:	8b 55 e4             	mov    -0x1c(%ebp),%edx
    12a4:	41                   	inc    %ecx
    12a5:	89 50 28             	mov    %edx,0x28(%eax)
    12a8:	89 48 08             	mov    %ecx,0x8(%eax)
    12ab:	50                   	push   %eax
    12ac:	e8 6f 04 00 00       	call   1720 <log_unlock>
    12b1:	83 c4 10             	add    $0x10,%esp
    12b4:	e9 77 ff ff ff       	jmp    1230 <parse_level_settings+0x30>
    12b9:	8d b4 26 00 00 00 00 	lea    0x0(%esi,%eiz,1),%esi
    12c0:	50                   	push   %eax
    12c1:	50                   	push   %eax
    12c2:	8d 45 e4             	lea    -0x1c(%ebp),%eax
    12c5:	50                   	push   %eax
    12c6:	53                   	push   %ebx
    12c7:	e8 14 ba 00 00       	call   cce0 <log_level_from_str>
    12cc:	83 c4 10             	add    $0x10,%esp
    12cf:	85 c0                	test   %eax,%eax
    12d1:	0f 85 59 ff ff ff    	jne    1230 <parse_level_settings+0x30>
    12d7:	83 ec 0c             	sub    $0xc,%esp
    12da:	8b 4d e4             	mov    -0x1c(%ebp),%ecx
    12dd:	51                   	push   %ecx
    12de:	e8 ad 00 00 00       	call   1390 <set_default_logging_level>
    12e3:	83 c4 10             	add    $0x10,%esp
    12e6:	e9 45 ff ff ff       	jmp    1230 <parse_level_settings+0x30>
    12eb:	90                   	nop
    12ec:	8d 74 26 00          	lea    0x0(%esi,%eiz,1),%esi
    12f0:	8d 65 f4             	lea    -0xc(%ebp),%esp
    12f3:	5b                   	pop    %ebx
    12f4:	5e                   	pop    %esi
    12f5:	5f                   	pop    %edi
    12f6:	5d                   	pop    %ebp
    12f7:	c3                   	ret    
    12f8:	90                   	nop
    12f9:	8d b4 26 00 00 00 00 	lea    0x0(%esi,%eiz,1),%esi

00001300 <parse_initial_settings>:
    1300:	55                   	push   %ebp
    1301:	89 e5                	mov    %esp,%ebp
    1303:	53                   	push   %ebx
    1304:	81 ec ec 00 00 00    	sub    $0xec,%esp
    130a:	8d 85 2c ff ff ff    	lea    -0xd4(%ebp),%eax
    1310:	50                   	push   %eax
    1311:	68 68 44 02 00       	push   $0x24468
    1316:	e8 a5 20 01 00       	call   133c0 <sysinfo_get_data>
    131b:	83 c4 10             	add    $0x10,%esp
    131e:	85 c0                	test   %eax,%eax
    1320:	74 32                	je     1354 <parse_initial_settings+0x54>
    1322:	8d 9d 30 ff ff ff    	lea    -0xd0(%ebp),%ebx
    1328:	89 85 24 ff ff ff    	mov    %eax,-0xdc(%ebp)
    132e:	52                   	push   %edx
    132f:	50                   	push   %eax
    1330:	68 c8 00 00 00       	push   $0xc8
    1335:	53                   	push   %ebx
    1336:	e8 f5 23 00 00       	call   3730 <str_cpy>
    133b:	8b 85 24 ff ff ff    	mov    -0xdc(%ebp),%eax
    1341:	89 04 24             	mov    %eax,(%esp)
    1344:	e8 57 0f 01 00       	call   122a0 <free>
    1349:	89 1c 24             	mov    %ebx,(%esp)
    134c:	e8 af fe ff ff       	call   1200 <parse_level_settings>
    1351:	83 c4 10             	add    $0x10,%esp
    1354:	8b 5d fc             	mov    -0x4(%ebp),%ebx
    1357:	c9                   	leave  
    1358:	c3                   	ret    
    1359:	66 90                	xchg   %ax,%ax
    135b:	66 90                	xchg   %ax,%ax
    135d:	66 90                	xchg   %ax,%ax
    135f:	90                   	nop

00001360 <get_default_logging_level>:
    1360:	55                   	push   %ebp
    1361:	89 e5                	mov    %esp,%ebp
    1363:	53                   	push   %ebx
    1364:	83 ec 10             	sub    $0x10,%esp
    1367:	68 e0 7e 02 00       	push   $0x27ee0
    136c:	e8 4f 60 00 00       	call   73c0 <fibril_mutex_lock>
    1371:	8b 1d f0 7e 02 00    	mov    0x27ef0,%ebx
    1377:	c7 04 24 e0 7e 02 00 	movl   $0x27ee0,(%esp)
    137e:	e8 bd 61 00 00       	call   7540 <fibril_mutex_unlock>
    1383:	89 d8                	mov    %ebx,%eax
    1385:	8b 5d fc             	mov    -0x4(%ebp),%ebx
    1388:	c9                   	leave  
    1389:	c3                   	ret    
    138a:	8d b6 00 00 00 00    	lea    0x0(%esi),%esi

00001390 <set_default_logging_level>:
    1390:	55                   	push   %ebp
    1391:	89 e5                	mov    %esp,%ebp
    1393:	53                   	push   %ebx
    1394:	50                   	push   %eax
    1395:	8b 5d 08             	mov    0x8(%ebp),%ebx
    1398:	83 fb 05             	cmp    $0x5,%ebx
    139b:	77 2b                	ja     13c8 <set_default_logging_level+0x38>
    139d:	83 ec 0c             	sub    $0xc,%esp
    13a0:	68 e0 7e 02 00       	push   $0x27ee0
    13a5:	e8 16 60 00 00       	call   73c0 <fibril_mutex_lock>
    13aa:	c7 04 24 e0 7e 02 00 	movl   $0x27ee0,(%esp)
    13b1:	89 1d f0 7e 02 00    	mov    %ebx,0x27ef0
    13b7:	e8 84 61 00 00       	call   7540 <fibril_mutex_unlock>
    13bc:	83 c4 10             	add    $0x10,%esp
    13bf:	31 c0                	xor    %eax,%eax
    13c1:	8b 5d fc             	mov    -0x4(%ebp),%ebx
    13c4:	c9                   	leave  
    13c5:	c3                   	ret    
    13c6:	66 90                	xchg   %ax,%ax
    13c8:	b8 f8 fe ff ff       	mov    $0xfffffef8,%eax
    13cd:	eb f2                	jmp    13c1 <set_default_logging_level+0x31>
    13cf:	90                   	nop

000013d0 <find_or_create_log_and_lock>:
    13d0:	55                   	push   %ebp
    13d1:	89 e5                	mov    %esp,%ebp
    13d3:	57                   	push   %edi
    13d4:	56                   	push   %esi
    13d5:	53                   	push   %ebx
    13d6:	83 ec 18             	sub    $0x18,%esp
    13d9:	8b 75 08             	mov    0x8(%ebp),%esi
    13dc:	8b 7d 0c             	mov    0xc(%ebp),%edi
    13df:	68 fc 7e 02 00       	push   $0x27efc
    13e4:	e8 d7 5f 00 00       	call   73c0 <fibril_mutex_lock>
    13e9:	8b 1d f8 7e 02 00    	mov    0x27ef8,%ebx
    13ef:	83 c4 10             	add    $0x10,%esp
    13f2:	81 fb f4 7e 02 00    	cmp    $0x27ef4,%ebx
    13f8:	75 11                	jne    140b <find_or_create_log_and_lock+0x3b>
    13fa:	eb 54                	jmp    1450 <find_or_create_log_and_lock+0x80>
    13fc:	8d 74 26 00          	lea    0x0(%esi,%eiz,1),%esi
    1400:	8b 5b 04             	mov    0x4(%ebx),%ebx
    1403:	81 fb f4 7e 02 00    	cmp    $0x27ef4,%ebx
    1409:	74 45                	je     1450 <find_or_create_log_and_lock+0x80>
    140b:	3b 7b 24             	cmp    0x24(%ebx),%edi
    140e:	75 f0                	jne    1400 <find_or_create_log_and_lock+0x30>
    1410:	50                   	push   %eax
    1411:	50                   	push   %eax
    1412:	56                   	push   %esi
    1413:	8b 43 1c             	mov    0x1c(%ebx),%eax
    1416:	50                   	push   %eax
    1417:	e8 34 18 00 00       	call   2c50 <str_cmp>
    141c:	83 c4 10             	add    $0x10,%esp
    141f:	85 c0                	test   %eax,%eax
    1421:	75 dd                	jne    1400 <find_or_create_log_and_lock+0x30>
    1423:	8d 73 0c             	lea    0xc(%ebx),%esi
    1426:	83 ec 0c             	sub    $0xc,%esp
    1429:	56                   	push   %esi
    142a:	e8 91 5f 00 00       	call   73c0 <fibril_mutex_lock>
    142f:	83 c4 10             	add    $0x10,%esp
    1432:	83 ec 0c             	sub    $0xc,%esp
    1435:	68 fc 7e 02 00       	push   $0x27efc
    143a:	e8 01 61 00 00       	call   7540 <fibril_mutex_unlock>
    143f:	8d 65 f4             	lea    -0xc(%ebp),%esp
    1442:	89 d8                	mov    %ebx,%eax
    1444:	5b                   	pop    %ebx
    1445:	5e                   	pop    %esi
    1446:	5f                   	pop    %edi
    1447:	5d                   	pop    %ebp
    1448:	c3                   	ret    
    1449:	8d b4 26 00 00 00 00 	lea    0x0(%esi,%eiz,1),%esi
    1450:	50                   	push   %eax
    1451:	50                   	push   %eax
    1452:	6a 30                	push   $0x30
    1454:	6a 01                	push   $0x1
    1456:	e8 f5 0b 01 00       	call   12050 <calloc>
    145b:	83 c4 10             	add    $0x10,%esp
    145e:	89 c3                	mov    %eax,%ebx
    1460:	85 c0                	test   %eax,%eax
    1462:	74 ce                	je     1432 <find_or_create_log_and_lock+0x62>
    1464:	83 ec 0c             	sub    $0xc,%esp
    1467:	56                   	push   %esi
    1468:	e8 b3 38 00 00       	call   4d20 <str_dup>
    146d:	83 c4 10             	add    $0x10,%esp
    1470:	89 43 1c             	mov    %eax,0x1c(%ebx)
    1473:	85 c0                	test   %eax,%eax
    1475:	0f 84 1c 01 00 00    	je     1597 <find_or_create_log_and_lock+0x1c7>
    147b:	85 ff                	test   %edi,%edi
    147d:	74 79                	je     14f8 <find_or_create_log_and_lock+0x128>
    147f:	56                   	push   %esi
    1480:	8d 43 20             	lea    0x20(%ebx),%eax
    1483:	8b 77 20             	mov    0x20(%edi),%esi
    1486:	56                   	push   %esi
    1487:	68 81 44 02 00       	push   $0x24481
    148c:	50                   	push   %eax
    148d:	e8 8e 8b 00 00       	call   a020 <asprintf>
    1492:	83 c4 10             	add    $0x10,%esp
    1495:	85 c0                	test   %eax,%eax
    1497:	0f 88 1f 01 00 00    	js     15bc <find_or_create_log_and_lock+0x1ec>
    149d:	83 ec 0c             	sub    $0xc,%esp
    14a0:	8b 47 2c             	mov    0x2c(%edi),%eax
    14a3:	89 43 2c             	mov    %eax,0x2c(%ebx)
    14a6:	c7 43 28 07 00 00 00 	movl   $0x7,0x28(%ebx)
    14ad:	8d 73 0c             	lea    0xc(%ebx),%esi
    14b0:	56                   	push   %esi
    14b1:	e8 ea 5e 00 00       	call   73a0 <fibril_mutex_initialize>
    14b6:	a1 f4 7e 02 00       	mov    0x27ef4,%eax
    14bb:	89 7b 24             	mov    %edi,0x24(%ebx)
    14be:	89 03                	mov    %eax,(%ebx)
    14c0:	c7 43 04 f4 7e 02 00 	movl   $0x27ef4,0x4(%ebx)
    14c7:	83 c7 0c             	add    $0xc,%edi
    14ca:	89 58 04             	mov    %ebx,0x4(%eax)
    14cd:	89 1d f4 7e 02 00    	mov    %ebx,0x27ef4
    14d3:	89 3c 24             	mov    %edi,(%esp)
    14d6:	e8 e5 5e 00 00       	call   73c0 <fibril_mutex_lock>
    14db:	8b 43 24             	mov    0x24(%ebx),%eax
    14de:	8b 48 08             	mov    0x8(%eax),%ecx
    14e1:	83 c0 0c             	add    $0xc,%eax
    14e4:	41                   	inc    %ecx
    14e5:	89 48 fc             	mov    %ecx,-0x4(%eax)
    14e8:	89 04 24             	mov    %eax,(%esp)
    14eb:	e8 50 60 00 00       	call   7540 <fibril_mutex_unlock>
    14f0:	83 c4 10             	add    $0x10,%esp
    14f3:	e9 2e ff ff ff       	jmp    1426 <find_or_create_log_and_lock+0x56>
    14f8:	83 ec 0c             	sub    $0xc,%esp
    14fb:	56                   	push   %esi
    14fc:	e8 1f 38 00 00       	call   4d20 <str_dup>
    1501:	83 c4 10             	add    $0x10,%esp
    1504:	89 43 20             	mov    %eax,0x20(%ebx)
    1507:	85 c0                	test   %eax,%eax
    1509:	0f 84 ad 00 00 00    	je     15bc <find_or_create_log_and_lock+0x1ec>
    150f:	83 ec 0c             	sub    $0xc,%esp
    1512:	6a 18                	push   $0x18
    1514:	e8 d7 0b 01 00       	call   120f0 <malloc>
    1519:	83 c4 10             	add    $0x10,%esp
    151c:	89 c7                	mov    %eax,%edi
    151e:	85 c0                	test   %eax,%eax
    1520:	0f 84 96 00 00 00    	je     15bc <find_or_create_log_and_lock+0x1ec>
    1526:	50                   	push   %eax
    1527:	8d 47 10             	lea    0x10(%edi),%eax
    152a:	56                   	push   %esi
    152b:	68 79 44 02 00       	push   $0x24479
    1530:	50                   	push   %eax
    1531:	e8 ea 8a 00 00       	call   a020 <asprintf>
    1536:	83 c4 10             	add    $0x10,%esp
    1539:	85 c0                	test   %eax,%eax
    153b:	78 4b                	js     1588 <find_or_create_log_and_lock+0x1b8>
    153d:	83 ec 0c             	sub    $0xc,%esp
    1540:	c7 47 14 00 00 00 00 	movl   $0x0,0x14(%edi)
    1547:	8d 73 0c             	lea    0xc(%ebx),%esi
    154a:	57                   	push   %edi
    154b:	e8 50 5e 00 00       	call   73a0 <fibril_mutex_initialize>
    1550:	89 7b 2c             	mov    %edi,0x2c(%ebx)
    1553:	c7 43 28 07 00 00 00 	movl   $0x7,0x28(%ebx)
    155a:	89 34 24             	mov    %esi,(%esp)
    155d:	e8 3e 5e 00 00       	call   73a0 <fibril_mutex_initialize>
    1562:	a1 f4 7e 02 00       	mov    0x27ef4,%eax
    1567:	c7 43 24 00 00 00 00 	movl   $0x0,0x24(%ebx)
    156e:	c7 43 04 f4 7e 02 00 	movl   $0x27ef4,0x4(%ebx)
    1575:	89 03                	mov    %eax,(%ebx)
    1577:	89 1d f4 7e 02 00    	mov    %ebx,0x27ef4
    157d:	89 58 04             	mov    %ebx,0x4(%eax)
    1580:	83 c4 10             	add    $0x10,%esp
    1583:	e9 9e fe ff ff       	jmp    1426 <find_or_create_log_and_lock+0x56>
    1588:	83 ec 0c             	sub    $0xc,%esp
    158b:	57                   	push   %edi
    158c:	e8 0f 0d 01 00       	call   122a0 <free>
    1591:	8b 43 1c             	mov    0x1c(%ebx),%eax
    1594:	83 c4 10             	add    $0x10,%esp
    1597:	83 ec 0c             	sub    $0xc,%esp
    159a:	50                   	push   %eax
    159b:	e8 00 0d 01 00       	call   122a0 <free>
    15a0:	8b 53 20             	mov    0x20(%ebx),%edx
    15a3:	58                   	pop    %eax
    15a4:	52                   	push   %edx
    15a5:	e8 f6 0c 01 00       	call   122a0 <free>
    15aa:	89 1c 24             	mov    %ebx,(%esp)
    15ad:	e8 ee 0c 01 00       	call   122a0 <free>
    15b2:	31 db                	xor    %ebx,%ebx
    15b4:	83 c4 10             	add    $0x10,%esp
    15b7:	e9 76 fe ff ff       	jmp    1432 <find_or_create_log_and_lock+0x62>
    15bc:	8b 43 1c             	mov    0x1c(%ebx),%eax
    15bf:	eb d6                	jmp    1597 <find_or_create_log_and_lock+0x1c7>
    15c1:	eb 0d                	jmp    15d0 <find_log_by_name_and_lock>
    15c3:	90                   	nop
    15c4:	90                   	nop
    15c5:	90                   	nop
    15c6:	90                   	nop
    15c7:	90                   	nop
    15c8:	90                   	nop
    15c9:	90                   	nop
    15ca:	90                   	nop
    15cb:	90                   	nop
    15cc:	90                   	nop
    15cd:	90                   	nop
    15ce:	90                   	nop
    15cf:	90                   	nop

000015d0 <find_log_by_name_and_lock>:
    15d0:	55                   	push   %ebp
    15d1:	89 e5                	mov    %esp,%ebp
    15d3:	56                   	push   %esi
    15d4:	53                   	push   %ebx
    15d5:	83 ec 0c             	sub    $0xc,%esp
    15d8:	8b 75 08             	mov    0x8(%ebp),%esi
    15db:	68 fc 7e 02 00       	push   $0x27efc
    15e0:	e8 db 5d 00 00       	call   73c0 <fibril_mutex_lock>
    15e5:	8b 1d f8 7e 02 00    	mov    0x27ef8,%ebx
    15eb:	83 c4 10             	add    $0x10,%esp
    15ee:	81 fb f4 7e 02 00    	cmp    $0x27ef4,%ebx
    15f4:	75 0d                	jne    1603 <find_log_by_name_and_lock+0x33>
    15f6:	eb 48                	jmp    1640 <find_log_by_name_and_lock+0x70>
    15f8:	8b 5b 04             	mov    0x4(%ebx),%ebx
    15fb:	81 fb f4 7e 02 00    	cmp    $0x27ef4,%ebx
    1601:	74 3d                	je     1640 <find_log_by_name_and_lock+0x70>
    1603:	50                   	push   %eax
    1604:	50                   	push   %eax
    1605:	56                   	push   %esi
    1606:	8b 53 20             	mov    0x20(%ebx),%edx
    1609:	52                   	push   %edx
    160a:	e8 41 16 00 00       	call   2c50 <str_cmp>
    160f:	83 c4 10             	add    $0x10,%esp
    1612:	85 c0                	test   %eax,%eax
    1614:	75 e2                	jne    15f8 <find_log_by_name_and_lock+0x28>
    1616:	83 ec 0c             	sub    $0xc,%esp
    1619:	8d 43 0c             	lea    0xc(%ebx),%eax
    161c:	50                   	push   %eax
    161d:	e8 9e 5d 00 00       	call   73c0 <fibril_mutex_lock>
    1622:	83 c4 10             	add    $0x10,%esp
    1625:	83 ec 0c             	sub    $0xc,%esp
    1628:	68 fc 7e 02 00       	push   $0x27efc
    162d:	e8 0e 5f 00 00       	call   7540 <fibril_mutex_unlock>
    1632:	8d 65 f8             	lea    -0x8(%ebp),%esp
    1635:	89 d8                	mov    %ebx,%eax
    1637:	5b                   	pop    %ebx
    1638:	5e                   	pop    %esi
    1639:	5d                   	pop    %ebp
    163a:	c3                   	ret    
    163b:	90                   	nop
    163c:	8d 74 26 00          	lea    0x0(%esi,%eiz,1),%esi
    1640:	31 db                	xor    %ebx,%ebx
    1642:	eb e1                	jmp    1625 <find_log_by_name_and_lock+0x55>
    1644:	8d b6 00 00 00 00    	lea    0x0(%esi),%esi
    164a:	8d bf 00 00 00 00    	lea    0x0(%edi),%edi

00001650 <find_log_by_id_and_lock>:
    1650:	55                   	push   %ebp
    1651:	89 e5                	mov    %esp,%ebp
    1653:	56                   	push   %esi
    1654:	53                   	push   %ebx
    1655:	83 ec 0c             	sub    $0xc,%esp
    1658:	8b 75 08             	mov    0x8(%ebp),%esi
    165b:	68 fc 7e 02 00       	push   $0x27efc
    1660:	e8 5b 5d 00 00       	call   73c0 <fibril_mutex_lock>
    1665:	8b 1d f8 7e 02 00    	mov    0x27ef8,%ebx
    166b:	83 c4 10             	add    $0x10,%esp
    166e:	81 fb f4 7e 02 00    	cmp    $0x27ef4,%ebx
    1674:	75 0d                	jne    1683 <find_log_by_id_and_lock+0x33>
    1676:	eb 38                	jmp    16b0 <find_log_by_id_and_lock+0x60>
    1678:	8b 5b 04             	mov    0x4(%ebx),%ebx
    167b:	81 fb f4 7e 02 00    	cmp    $0x27ef4,%ebx
    1681:	74 2d                	je     16b0 <find_log_by_id_and_lock+0x60>
    1683:	39 f3                	cmp    %esi,%ebx
    1685:	75 f1                	jne    1678 <find_log_by_id_and_lock+0x28>
    1687:	83 ec 0c             	sub    $0xc,%esp
    168a:	8d 43 0c             	lea    0xc(%ebx),%eax
    168d:	50                   	push   %eax
    168e:	e8 2d 5d 00 00       	call   73c0 <fibril_mutex_lock>
    1693:	83 c4 10             	add    $0x10,%esp
    1696:	83 ec 0c             	sub    $0xc,%esp
    1699:	68 fc 7e 02 00       	push   $0x27efc
    169e:	e8 9d 5e 00 00       	call   7540 <fibril_mutex_unlock>
    16a3:	8d 65 f8             	lea    -0x8(%ebp),%esp
    16a6:	89 d8                	mov    %ebx,%eax
    16a8:	5b                   	pop    %ebx
    16a9:	5e                   	pop    %esi
    16aa:	5d                   	pop    %ebp
    16ab:	c3                   	ret    
    16ac:	8d 74 26 00          	lea    0x0(%esi,%eiz,1),%esi
    16b0:	31 db                	xor    %ebx,%ebx
    16b2:	eb e2                	jmp    1696 <find_log_by_id_and_lock+0x46>
    16b4:	8d b6 00 00 00 00    	lea    0x0(%esi),%esi
    16ba:	8d bf 00 00 00 00    	lea    0x0(%edi),%edi

000016c0 <shall_log_message>:
    16c0:	55                   	push   %ebp
    16c1:	89 e5                	mov    %esp,%ebp
    16c3:	53                   	push   %ebx
    16c4:	83 ec 10             	sub    $0x10,%esp
    16c7:	8b 5d 08             	mov    0x8(%ebp),%ebx
    16ca:	68 fc 7e 02 00       	push   $0x27efc
    16cf:	e8 ec 5c 00 00       	call   73c0 <fibril_mutex_lock>
    16d4:	8b 43 28             	mov    0x28(%ebx),%eax
    16d7:	83 c4 10             	add    $0x10,%esp
    16da:	8b 53 24             	mov    0x24(%ebx),%edx
    16dd:	83 f8 07             	cmp    $0x7,%eax
    16e0:	74 13                	je     16f5 <shall_log_message+0x35>
    16e2:	eb 1a                	jmp    16fe <shall_log_message+0x3e>
    16e4:	8d 74 26 00          	lea    0x0(%esi,%eiz,1),%esi
    16e8:	8b 42 28             	mov    0x28(%edx),%eax
    16eb:	8b 4a 24             	mov    0x24(%edx),%ecx
    16ee:	83 f8 07             	cmp    $0x7,%eax
    16f1:	75 0b                	jne    16fe <shall_log_message+0x3e>
    16f3:	89 ca                	mov    %ecx,%edx
    16f5:	85 d2                	test   %edx,%edx
    16f7:	75 ef                	jne    16e8 <shall_log_message+0x28>
    16f9:	e8 62 fc ff ff       	call   1360 <get_default_logging_level>
    16fe:	39 45 0c             	cmp    %eax,0xc(%ebp)
    1701:	0f 96 c3             	setbe  %bl
    1704:	83 ec 0c             	sub    $0xc,%esp
    1707:	68 fc 7e 02 00       	push   $0x27efc
    170c:	e8 2f 5e 00 00       	call   7540 <fibril_mutex_unlock>
    1711:	88 d8                	mov    %bl,%al
    1713:	8b 5d fc             	mov    -0x4(%ebp),%ebx
    1716:	c9                   	leave  
    1717:	c3                   	ret    
    1718:	90                   	nop
    1719:	8d b4 26 00 00 00 00 	lea    0x0(%esi,%eiz,1),%esi

00001720 <log_unlock>:
    1720:	55                   	push   %ebp
    1721:	89 e5                	mov    %esp,%ebp
    1723:	53                   	push   %ebx
    1724:	83 ec 10             	sub    $0x10,%esp
    1727:	8b 45 08             	mov    0x8(%ebp),%eax
    172a:	8d 58 0c             	lea    0xc(%eax),%ebx
    172d:	53                   	push   %ebx
    172e:	e8 bd 5f 00 00       	call   76f0 <fibril_mutex_is_locked>
    1733:	83 c4 10             	add    $0x10,%esp
    1736:	84 c0                	test   %al,%al
    1738:	74 0c                	je     1746 <log_unlock+0x26>
    173a:	89 5d 08             	mov    %ebx,0x8(%ebp)
    173d:	8b 5d fc             	mov    -0x4(%ebp),%ebx
    1740:	c9                   	leave  
    1741:	e9 fa 5d 00 00       	jmp    7540 <fibril_mutex_unlock>
    1746:	50                   	push   %eax
    1747:	68 c8 00 00 00       	push   $0xc8
    174c:	68 87 44 02 00       	push   $0x24487
    1751:	68 c4 44 02 00       	push   $0x244c4
    1756:	e8 e5 cd 01 00       	call   1e540 <assert_abort>
    175b:	90                   	nop
    175c:	8d 74 26 00          	lea    0x0(%esi,%eiz,1),%esi

00001760 <log_release>:
    1760:	55                   	push   %ebp
    1761:	89 e5                	mov    %esp,%ebp
    1763:	56                   	push   %esi
    1764:	53                   	push   %ebx
    1765:	8b 5d 08             	mov    0x8(%ebp),%ebx
    1768:	83 ec 0c             	sub    $0xc,%esp
    176b:	8d 73 0c             	lea    0xc(%ebx),%esi
    176e:	56                   	push   %esi
    176f:	e8 7c 5f 00 00       	call   76f0 <fibril_mutex_is_locked>
    1774:	83 c4 10             	add    $0x10,%esp
    1777:	84 c0                	test   %al,%al
    1779:	0f 84 31 01 00 00    	je     18b0 <log_release+0x150>
    177f:	8b 43 08             	mov    0x8(%ebx),%eax
    1782:	85 c0                	test   %eax,%eax
    1784:	0f 84 3b 01 00 00    	je     18c5 <log_release+0x165>
    178a:	83 f8 01             	cmp    $0x1,%eax
    178d:	76 19                	jbe    17a8 <log_release+0x48>
    178f:	48                   	dec    %eax
    1790:	89 43 08             	mov    %eax,0x8(%ebx)
    1793:	89 75 08             	mov    %esi,0x8(%ebp)
    1796:	8d 65 f8             	lea    -0x8(%ebp),%esp
    1799:	5b                   	pop    %ebx
    179a:	5e                   	pop    %esi
    179b:	5d                   	pop    %ebp
    179c:	e9 9f 5d 00 00       	jmp    7540 <fibril_mutex_unlock>
    17a1:	8d b4 26 00 00 00 00 	lea    0x0(%esi,%eiz,1),%esi
    17a8:	83 ec 0c             	sub    $0xc,%esp
    17ab:	56                   	push   %esi
    17ac:	e8 8f 5d 00 00       	call   7540 <fibril_mutex_unlock>
    17b1:	c7 04 24 fc 7e 02 00 	movl   $0x27efc,(%esp)
    17b8:	e8 03 5c 00 00       	call   73c0 <fibril_mutex_lock>
    17bd:	89 34 24             	mov    %esi,(%esp)
    17c0:	e8 fb 5b 00 00       	call   73c0 <fibril_mutex_lock>
    17c5:	8b 43 08             	mov    0x8(%ebx),%eax
    17c8:	83 c4 10             	add    $0x10,%esp
    17cb:	85 c0                	test   %eax,%eax
    17cd:	0f 84 07 01 00 00    	je     18da <log_release+0x17a>
    17d3:	48                   	dec    %eax
    17d4:	89 43 08             	mov    %eax,0x8(%ebx)
    17d7:	85 c0                	test   %eax,%eax
    17d9:	0f 85 b9 00 00 00    	jne    1898 <log_release+0x138>
    17df:	8b 13                	mov    (%ebx),%edx
    17e1:	85 d2                	test   %edx,%edx
    17e3:	74 0e                	je     17f3 <log_release+0x93>
    17e5:	8b 43 04             	mov    0x4(%ebx),%eax
    17e8:	85 c0                	test   %eax,%eax
    17ea:	74 07                	je     17f3 <log_release+0x93>
    17ec:	89 10                	mov    %edx,(%eax)
    17ee:	8b 13                	mov    (%ebx),%edx
    17f0:	89 42 04             	mov    %eax,0x4(%edx)
    17f3:	83 ec 0c             	sub    $0xc,%esp
    17f6:	c7 03 00 00 00 00    	movl   $0x0,(%ebx)
    17fc:	c7 43 04 00 00 00 00 	movl   $0x0,0x4(%ebx)
    1803:	68 fc 7e 02 00       	push   $0x27efc
    1808:	e8 33 5d 00 00       	call   7540 <fibril_mutex_unlock>
    180d:	89 34 24             	mov    %esi,(%esp)
    1810:	e8 2b 5d 00 00       	call   7540 <fibril_mutex_unlock>
    1815:	8b 43 24             	mov    0x24(%ebx),%eax
    1818:	83 c4 10             	add    $0x10,%esp
    181b:	85 c0                	test   %eax,%eax
    181d:	74 41                	je     1860 <log_release+0x100>
    181f:	83 ec 0c             	sub    $0xc,%esp
    1822:	83 c0 0c             	add    $0xc,%eax
    1825:	50                   	push   %eax
    1826:	e8 95 5b 00 00       	call   73c0 <fibril_mutex_lock>
    182b:	8b 43 24             	mov    0x24(%ebx),%eax
    182e:	5e                   	pop    %esi
    182f:	50                   	push   %eax
    1830:	e8 2b ff ff ff       	call   1760 <log_release>
    1835:	83 c4 10             	add    $0x10,%esp
    1838:	83 ec 0c             	sub    $0xc,%esp
    183b:	8b 43 1c             	mov    0x1c(%ebx),%eax
    183e:	50                   	push   %eax
    183f:	e8 5c 0a 01 00       	call   122a0 <free>
    1844:	8b 4b 20             	mov    0x20(%ebx),%ecx
    1847:	5a                   	pop    %edx
    1848:	51                   	push   %ecx
    1849:	e8 52 0a 01 00       	call   122a0 <free>
    184e:	89 5d 08             	mov    %ebx,0x8(%ebp)
    1851:	83 c4 10             	add    $0x10,%esp
    1854:	8d 65 f8             	lea    -0x8(%ebp),%esp
    1857:	5b                   	pop    %ebx
    1858:	5e                   	pop    %esi
    1859:	5d                   	pop    %ebp
    185a:	e9 41 0a 01 00       	jmp    122a0 <free>
    185f:	90                   	nop
    1860:	8b 43 2c             	mov    0x2c(%ebx),%eax
    1863:	8b 50 14             	mov    0x14(%eax),%edx
    1866:	85 d2                	test   %edx,%edx
    1868:	74 0f                	je     1879 <log_release+0x119>
    186a:	83 ec 0c             	sub    $0xc,%esp
    186d:	52                   	push   %edx
    186e:	e8 fd 91 00 00       	call   aa70 <fclose>
    1873:	8b 43 2c             	mov    0x2c(%ebx),%eax
    1876:	83 c4 10             	add    $0x10,%esp
    1879:	83 ec 0c             	sub    $0xc,%esp
    187c:	8b 40 10             	mov    0x10(%eax),%eax
    187f:	50                   	push   %eax
    1880:	e8 1b 0a 01 00       	call   122a0 <free>
    1885:	58                   	pop    %eax
    1886:	8b 43 2c             	mov    0x2c(%ebx),%eax
    1889:	50                   	push   %eax
    188a:	e8 11 0a 01 00       	call   122a0 <free>
    188f:	83 c4 10             	add    $0x10,%esp
    1892:	eb a4                	jmp    1838 <log_release+0xd8>
    1894:	8d 74 26 00          	lea    0x0(%esi,%eiz,1),%esi
    1898:	83 ec 0c             	sub    $0xc,%esp
    189b:	56                   	push   %esi
    189c:	e8 9f 5c 00 00       	call   7540 <fibril_mutex_unlock>
    18a1:	83 c4 10             	add    $0x10,%esp
    18a4:	c7 45 08 fc 7e 02 00 	movl   $0x27efc,0x8(%ebp)
    18ab:	e9 e6 fe ff ff       	jmp    1796 <log_release+0x36>
    18b0:	52                   	push   %edx
    18b1:	68 d5 00 00 00       	push   $0xd5
    18b6:	68 87 44 02 00       	push   $0x24487
    18bb:	68 c4 44 02 00       	push   $0x244c4
    18c0:	e8 7b cc 01 00       	call   1e540 <assert_abort>
    18c5:	50                   	push   %eax
    18c6:	68 d6 00 00 00       	push   $0xd6
    18cb:	68 87 44 02 00       	push   $0x24487
    18d0:	68 8e 44 02 00       	push   $0x2448e
    18d5:	e8 66 cc 01 00       	call   1e540 <assert_abort>
    18da:	50                   	push   %eax
    18db:	68 ef 00 00 00       	push   $0xef
    18e0:	68 87 44 02 00       	push   $0x24487
    18e5:	68 8e 44 02 00       	push   $0x2448e
    18ea:	e8 51 cc 01 00       	call   1e540 <assert_abort>
    18ef:	90                   	nop

000018f0 <write_to_log>:
    18f0:	55                   	push   %ebp
    18f1:	89 e5                	mov    %esp,%ebp
    18f3:	57                   	push   %edi
    18f4:	56                   	push   %esi
    18f5:	53                   	push   %ebx
    18f6:	83 ec 28             	sub    $0x28,%esp
    18f9:	8b 5d 08             	mov    0x8(%ebp),%ebx
    18fc:	8b 75 0c             	mov    0xc(%ebp),%esi
    18ff:	8b 7d 10             	mov    0x10(%ebp),%edi
    1902:	8d 43 0c             	lea    0xc(%ebx),%eax
    1905:	50                   	push   %eax
    1906:	e8 e5 5d 00 00       	call   76f0 <fibril_mutex_is_locked>
    190b:	83 c4 10             	add    $0x10,%esp
    190e:	84 c0                	test   %al,%al
    1910:	0f 84 92 00 00 00    	je     19a8 <write_to_log+0xb8>
    1916:	8b 43 2c             	mov    0x2c(%ebx),%eax
    1919:	85 c0                	test   %eax,%eax
    191b:	0f 84 9c 00 00 00    	je     19bd <write_to_log+0xcd>
    1921:	83 ec 0c             	sub    $0xc,%esp
    1924:	50                   	push   %eax
    1925:	e8 96 5a 00 00       	call   73c0 <fibril_mutex_lock>
    192a:	8b 53 2c             	mov    0x2c(%ebx),%edx
    192d:	83 c4 10             	add    $0x10,%esp
    1930:	8b 42 14             	mov    0x14(%edx),%eax
    1933:	85 c0                	test   %eax,%eax
    1935:	74 49                	je     1980 <write_to_log+0x90>
    1937:	83 ec 0c             	sub    $0xc,%esp
    193a:	56                   	push   %esi
    193b:	e8 80 b3 00 00       	call   ccc0 <log_level_str>
    1940:	89 3c 24             	mov    %edi,(%esp)
    1943:	50                   	push   %eax
    1944:	8b 4b 20             	mov    0x20(%ebx),%ecx
    1947:	51                   	push   %ecx
    1948:	68 b5 44 02 00       	push   $0x244b5
    194d:	8b 43 2c             	mov    0x2c(%ebx),%eax
    1950:	8b 70 14             	mov    0x14(%eax),%esi
    1953:	56                   	push   %esi
    1954:	e8 27 b3 00 00       	call   cc80 <fprintf>
    1959:	8b 43 2c             	mov    0x2c(%ebx),%eax
    195c:	83 c4 14             	add    $0x14,%esp
    195f:	8b 78 14             	mov    0x14(%eax),%edi
    1962:	57                   	push   %edi
    1963:	e8 88 a5 00 00       	call   bef0 <fflush>
    1968:	8b 43 2c             	mov    0x2c(%ebx),%eax
    196b:	83 c4 10             	add    $0x10,%esp
    196e:	89 45 08             	mov    %eax,0x8(%ebp)
    1971:	8d 65 f4             	lea    -0xc(%ebp),%esp
    1974:	5b                   	pop    %ebx
    1975:	5e                   	pop    %esi
    1976:	5f                   	pop    %edi
    1977:	5d                   	pop    %ebp
    1978:	e9 c3 5b 00 00       	jmp    7540 <fibril_mutex_unlock>
    197d:	8d 76 00             	lea    0x0(%esi),%esi
    1980:	50                   	push   %eax
    1981:	50                   	push   %eax
    1982:	68 ab 5b 02 00       	push   $0x25bab
    1987:	89 55 e4             	mov    %edx,-0x1c(%ebp)
    198a:	8b 4a 10             	mov    0x10(%edx),%ecx
    198d:	51                   	push   %ecx
    198e:	e8 fd 8d 00 00       	call   a790 <fopen>
    1993:	8b 55 e4             	mov    -0x1c(%ebp),%edx
    1996:	83 c4 10             	add    $0x10,%esp
    1999:	89 42 14             	mov    %eax,0x14(%edx)
    199c:	8b 43 2c             	mov    0x2c(%ebx),%eax
    199f:	8b 50 14             	mov    0x14(%eax),%edx
    19a2:	85 d2                	test   %edx,%edx
    19a4:	74 c8                	je     196e <write_to_log+0x7e>
    19a6:	eb 8f                	jmp    1937 <write_to_log+0x47>
    19a8:	50                   	push   %eax
    19a9:	68 24 01 00 00       	push   $0x124
    19ae:	68 87 44 02 00       	push   $0x24487
    19b3:	68 c4 44 02 00       	push   $0x244c4
    19b8:	e8 83 cb 01 00       	call   1e540 <assert_abort>
    19bd:	50                   	push   %eax
    19be:	68 25 01 00 00       	push   $0x125
    19c3:	68 87 44 02 00       	push   $0x24487
    19c8:	68 a3 44 02 00       	push   $0x244a3
    19cd:	e8 6e cb 01 00       	call   1e540 <assert_abort>
    19d2:	8d b4 26 00 00 00 00 	lea    0x0(%esi,%eiz,1),%esi
    19d9:	8d bc 27 00 00 00 00 	lea    0x0(%edi,%eiz,1),%edi

000019e0 <registered_logs_init>:
    19e0:	55                   	push   %ebp
    19e1:	89 e5                	mov    %esp,%ebp
    19e3:	8b 45 08             	mov    0x8(%ebp),%eax
    19e6:	c7 00 00 00 00 00    	movl   $0x0,(%eax)
    19ec:	5d                   	pop    %ebp
    19ed:	c3                   	ret    
    19ee:	66 90                	xchg   %ax,%ax

000019f0 <register_log>:
    19f0:	55                   	push   %ebp
    19f1:	31 c0                	xor    %eax,%eax
    19f3:	89 e5                	mov    %esp,%ebp
    19f5:	56                   	push   %esi
    19f6:	53                   	push   %ebx
    19f7:	8b 5d 08             	mov    0x8(%ebp),%ebx
    19fa:	8b 75 0c             	mov    0xc(%ebp),%esi
    19fd:	83 3b 63             	cmpl   $0x63,(%ebx)
    1a00:	76 0e                	jbe    1a10 <register_log+0x20>
    1a02:	8d 65 f8             	lea    -0x8(%ebp),%esp
    1a05:	5b                   	pop    %ebx
    1a06:	5e                   	pop    %esi
    1a07:	5d                   	pop    %ebp
    1a08:	c3                   	ret    
    1a09:	8d b4 26 00 00 00 00 	lea    0x0(%esi,%eiz,1),%esi
    1a10:	83 ec 0c             	sub    $0xc,%esp
    1a13:	8d 46 0c             	lea    0xc(%esi),%eax
    1a16:	50                   	push   %eax
    1a17:	e8 d4 5c 00 00       	call   76f0 <fibril_mutex_is_locked>
    1a1c:	83 c4 10             	add    $0x10,%esp
    1a1f:	84 c0                	test   %al,%al
    1a21:	74 17                	je     1a3a <register_log+0x4a>
    1a23:	8b 56 08             	mov    0x8(%esi),%edx
    1a26:	42                   	inc    %edx
    1a27:	89 56 08             	mov    %edx,0x8(%esi)
    1a2a:	8b 13                	mov    (%ebx),%edx
    1a2c:	89 74 93 04          	mov    %esi,0x4(%ebx,%edx,4)
    1a30:	42                   	inc    %edx
    1a31:	89 13                	mov    %edx,(%ebx)
    1a33:	8d 65 f8             	lea    -0x8(%ebp),%esp
    1a36:	5b                   	pop    %ebx
    1a37:	5e                   	pop    %esi
    1a38:	5d                   	pop    %ebp
    1a39:	c3                   	ret    
    1a3a:	51                   	push   %ecx
    1a3b:	68 3f 01 00 00       	push   $0x13f
    1a40:	68 87 44 02 00       	push   $0x24487
    1a45:	68 e8 44 02 00       	push   $0x244e8
    1a4a:	e8 f1 ca 01 00       	call   1e540 <assert_abort>
    1a4f:	90                   	nop

00001a50 <unregister_logs>:
    1a50:	55                   	push   %ebp
    1a51:	89 e5                	mov    %esp,%ebp
    1a53:	57                   	push   %edi
    1a54:	56                   	push   %esi
    1a55:	53                   	push   %ebx
    1a56:	83 ec 0c             	sub    $0xc,%esp
    1a59:	8b 45 08             	mov    0x8(%ebp),%eax
    1a5c:	8b 08                	mov    (%eax),%ecx
    1a5e:	85 c9                	test   %ecx,%ecx
    1a60:	0f 84 16 01 00 00    	je     1b7c <unregister_logs+0x12c>
    1a66:	31 f6                	xor    %esi,%esi
    1a68:	eb 22                	jmp    1a8c <unregister_logs+0x3c>
    1a6a:	8d b6 00 00 00 00    	lea    0x0(%esi),%esi
    1a70:	83 ec 0c             	sub    $0xc,%esp
    1a73:	48                   	dec    %eax
    1a74:	89 47 08             	mov    %eax,0x8(%edi)
    1a77:	53                   	push   %ebx
    1a78:	e8 c3 5a 00 00       	call   7540 <fibril_mutex_unlock>
    1a7d:	83 c4 10             	add    $0x10,%esp
    1a80:	8b 45 08             	mov    0x8(%ebp),%eax
    1a83:	46                   	inc    %esi
    1a84:	39 30                	cmp    %esi,(%eax)
    1a86:	0f 86 f0 00 00 00    	jbe    1b7c <unregister_logs+0x12c>
    1a8c:	8b 7c b0 04          	mov    0x4(%eax,%esi,4),%edi
    1a90:	83 ec 0c             	sub    $0xc,%esp
    1a93:	8d 5f 0c             	lea    0xc(%edi),%ebx
    1a96:	53                   	push   %ebx
    1a97:	e8 24 59 00 00       	call   73c0 <fibril_mutex_lock>
    1a9c:	89 1c 24             	mov    %ebx,(%esp)
    1a9f:	e8 4c 5c 00 00       	call   76f0 <fibril_mutex_is_locked>
    1aa4:	83 c4 10             	add    $0x10,%esp
    1aa7:	84 c0                	test   %al,%al
    1aa9:	0f 84 2e 01 00 00    	je     1bdd <unregister_logs+0x18d>
    1aaf:	8b 47 08             	mov    0x8(%edi),%eax
    1ab2:	85 c0                	test   %eax,%eax
    1ab4:	0f 84 38 01 00 00    	je     1bf2 <unregister_logs+0x1a2>
    1aba:	83 f8 01             	cmp    $0x1,%eax
    1abd:	77 b1                	ja     1a70 <unregister_logs+0x20>
    1abf:	83 ec 0c             	sub    $0xc,%esp
    1ac2:	53                   	push   %ebx
    1ac3:	e8 78 5a 00 00       	call   7540 <fibril_mutex_unlock>
    1ac8:	c7 04 24 fc 7e 02 00 	movl   $0x27efc,(%esp)
    1acf:	e8 ec 58 00 00       	call   73c0 <fibril_mutex_lock>
    1ad4:	89 1c 24             	mov    %ebx,(%esp)
    1ad7:	e8 e4 58 00 00       	call   73c0 <fibril_mutex_lock>
    1adc:	8b 47 08             	mov    0x8(%edi),%eax
    1adf:	83 c4 10             	add    $0x10,%esp
    1ae2:	85 c0                	test   %eax,%eax
    1ae4:	0f 84 1d 01 00 00    	je     1c07 <unregister_logs+0x1b7>
    1aea:	48                   	dec    %eax
    1aeb:	89 47 08             	mov    %eax,0x8(%edi)
    1aee:	85 c0                	test   %eax,%eax
    1af0:	0f 85 ca 00 00 00    	jne    1bc0 <unregister_logs+0x170>
    1af6:	8b 0f                	mov    (%edi),%ecx
    1af8:	85 c9                	test   %ecx,%ecx
    1afa:	74 0e                	je     1b0a <unregister_logs+0xba>
    1afc:	8b 47 04             	mov    0x4(%edi),%eax
    1aff:	85 c0                	test   %eax,%eax
    1b01:	74 07                	je     1b0a <unregister_logs+0xba>
    1b03:	89 08                	mov    %ecx,(%eax)
    1b05:	8b 0f                	mov    (%edi),%ecx
    1b07:	89 41 04             	mov    %eax,0x4(%ecx)
    1b0a:	83 ec 0c             	sub    $0xc,%esp
    1b0d:	c7 07 00 00 00 00    	movl   $0x0,(%edi)
    1b13:	c7 47 04 00 00 00 00 	movl   $0x0,0x4(%edi)
    1b1a:	68 fc 7e 02 00       	push   $0x27efc
    1b1f:	e8 1c 5a 00 00       	call   7540 <fibril_mutex_unlock>
    1b24:	89 1c 24             	mov    %ebx,(%esp)
    1b27:	e8 14 5a 00 00       	call   7540 <fibril_mutex_unlock>
    1b2c:	8b 47 24             	mov    0x24(%edi),%eax
    1b2f:	83 c4 10             	add    $0x10,%esp
    1b32:	85 c0                	test   %eax,%eax
    1b34:	74 52                	je     1b88 <unregister_logs+0x138>
    1b36:	83 ec 0c             	sub    $0xc,%esp
    1b39:	83 c0 0c             	add    $0xc,%eax
    1b3c:	50                   	push   %eax
    1b3d:	e8 7e 58 00 00       	call   73c0 <fibril_mutex_lock>
    1b42:	8b 47 24             	mov    0x24(%edi),%eax
    1b45:	5b                   	pop    %ebx
    1b46:	50                   	push   %eax
    1b47:	e8 14 fc ff ff       	call   1760 <log_release>
    1b4c:	83 c4 10             	add    $0x10,%esp
    1b4f:	83 ec 0c             	sub    $0xc,%esp
    1b52:	8b 47 1c             	mov    0x1c(%edi),%eax
    1b55:	46                   	inc    %esi
    1b56:	50                   	push   %eax
    1b57:	e8 44 07 01 00       	call   122a0 <free>
    1b5c:	8b 4f 20             	mov    0x20(%edi),%ecx
    1b5f:	5a                   	pop    %edx
    1b60:	51                   	push   %ecx
    1b61:	e8 3a 07 01 00       	call   122a0 <free>
    1b66:	89 3c 24             	mov    %edi,(%esp)
    1b69:	e8 32 07 01 00       	call   122a0 <free>
    1b6e:	8b 45 08             	mov    0x8(%ebp),%eax
    1b71:	83 c4 10             	add    $0x10,%esp
    1b74:	39 30                	cmp    %esi,(%eax)
    1b76:	0f 87 10 ff ff ff    	ja     1a8c <unregister_logs+0x3c>
    1b7c:	8d 65 f4             	lea    -0xc(%ebp),%esp
    1b7f:	5b                   	pop    %ebx
    1b80:	5e                   	pop    %esi
    1b81:	5f                   	pop    %edi
    1b82:	5d                   	pop    %ebp
    1b83:	c3                   	ret    
    1b84:	8d 74 26 00          	lea    0x0(%esi,%eiz,1),%esi
    1b88:	8b 47 2c             	mov    0x2c(%edi),%eax
    1b8b:	8b 48 14             	mov    0x14(%eax),%ecx
    1b8e:	85 c9                	test   %ecx,%ecx
    1b90:	74 0f                	je     1ba1 <unregister_logs+0x151>
    1b92:	83 ec 0c             	sub    $0xc,%esp
    1b95:	51                   	push   %ecx
    1b96:	e8 d5 8e 00 00       	call   aa70 <fclose>
    1b9b:	8b 47 2c             	mov    0x2c(%edi),%eax
    1b9e:	83 c4 10             	add    $0x10,%esp
    1ba1:	83 ec 0c             	sub    $0xc,%esp
    1ba4:	8b 40 10             	mov    0x10(%eax),%eax
    1ba7:	50                   	push   %eax
    1ba8:	e8 f3 06 01 00       	call   122a0 <free>
    1bad:	58                   	pop    %eax
    1bae:	8b 47 2c             	mov    0x2c(%edi),%eax
    1bb1:	50                   	push   %eax
    1bb2:	e8 e9 06 01 00       	call   122a0 <free>
    1bb7:	83 c4 10             	add    $0x10,%esp
    1bba:	eb 93                	jmp    1b4f <unregister_logs+0xff>
    1bbc:	8d 74 26 00          	lea    0x0(%esi,%eiz,1),%esi
    1bc0:	83 ec 0c             	sub    $0xc,%esp
    1bc3:	53                   	push   %ebx
    1bc4:	e8 77 59 00 00       	call   7540 <fibril_mutex_unlock>
    1bc9:	c7 04 24 fc 7e 02 00 	movl   $0x27efc,(%esp)
    1bd0:	e8 6b 59 00 00       	call   7540 <fibril_mutex_unlock>
    1bd5:	83 c4 10             	add    $0x10,%esp
    1bd8:	e9 a3 fe ff ff       	jmp    1a80 <unregister_logs+0x30>
    1bdd:	52                   	push   %edx
    1bde:	68 d5 00 00 00       	push   $0xd5
    1be3:	68 87 44 02 00       	push   $0x24487
    1be8:	68 c4 44 02 00       	push   $0x244c4
    1bed:	e8 4e c9 01 00       	call   1e540 <assert_abort>
    1bf2:	50                   	push   %eax
    1bf3:	68 d6 00 00 00       	push   $0xd6
    1bf8:	68 87 44 02 00       	push   $0x24487
    1bfd:	68 8e 44 02 00       	push   $0x2448e
    1c02:	e8 39 c9 01 00       	call   1e540 <assert_abort>
    1c07:	50                   	push   %eax
    1c08:	68 ef 00 00 00       	push   $0xef
    1c0d:	68 87 44 02 00       	push   $0x24487
    1c12:	68 8e 44 02 00       	push   $0x2448e
    1c17:	e8 24 c9 01 00       	call   1e540 <assert_abort>
    1c1c:	66 90                	xchg   %ax,%ax
    1c1e:	66 90                	xchg   %ax,%ax

00001c20 <connection_handler_writer>:
    1c20:	55                   	push   %ebp
    1c21:	89 e5                	mov    %esp,%ebp
    1c23:	5d                   	pop    %ebp
    1c24:	e9 37 01 00 00       	jmp    1d60 <logger_connection_handler_writer>
    1c29:	8d b4 26 00 00 00 00 	lea    0x0(%esi,%eiz,1),%esi

00001c30 <connection_handler_control>:
    1c30:	55                   	push   %ebp
    1c31:	89 e5                	mov    %esp,%ebp
    1c33:	5d                   	pop    %ebp
    1c34:	e9 c7 f4 ff ff       	jmp    1100 <logger_connection_handler_control>
    1c39:	66 90                	xchg   %ax,%ax
    1c3b:	66 90                	xchg   %ax,%ax
    1c3d:	66 90                	xchg   %ax,%ax
    1c3f:	90                   	nop

00001c40 <main>:
    1c40:	8d 4c 24 04          	lea    0x4(%esp),%ecx
    1c44:	83 e4 f0             	and    $0xfffffff0,%esp
    1c47:	ff 71 fc             	pushl  -0x4(%ecx)
    1c4a:	55                   	push   %ebp
    1c4b:	89 e5                	mov    %esp,%ebp
    1c4d:	57                   	push   %edi
    1c4e:	56                   	push   %esi
    1c4f:	53                   	push   %ebx
    1c50:	51                   	push   %ecx
    1c51:	bb 01 00 00 00       	mov    $0x1,%ebx
    1c56:	83 ec 24             	sub    $0x24,%esp
    1c59:	8b 31                	mov    (%ecx),%esi
    1c5b:	8b 79 04             	mov    0x4(%ecx),%edi
    1c5e:	68 10 45 02 00       	push   $0x24510
    1c63:	e8 38 b0 00 00       	call   cca0 <printf>
    1c68:	e8 93 f6 ff ff       	call   1300 <parse_initial_settings>
    1c6d:	83 c4 10             	add    $0x10,%esp
    1c70:	83 fe 01             	cmp    $0x1,%esi
    1c73:	7e 17                	jle    1c8c <main+0x4c>
    1c75:	8d 76 00             	lea    0x0(%esi),%esi
    1c78:	83 ec 0c             	sub    $0xc,%esp
    1c7b:	8b 04 9f             	mov    (%edi,%ebx,4),%eax
    1c7e:	43                   	inc    %ebx
    1c7f:	50                   	push   %eax
    1c80:	e8 7b f5 ff ff       	call   1200 <parse_level_settings>
    1c85:	83 c4 10             	add    $0x10,%esp
    1c88:	39 de                	cmp    %ebx,%esi
    1c8a:	75 ec                	jne    1c78 <main+0x38>
    1c8c:	8d 75 e4             	lea    -0x1c(%ebp),%esi
    1c8f:	56                   	push   %esi
    1c90:	6a 00                	push   $0x0
    1c92:	68 30 1c 00 00       	push   $0x1c30
    1c97:	68 c1 7e 9f c7       	push   $0xc79f7ec1
    1c9c:	e8 4f 2b 01 00       	call   147f0 <async_create_port>
    1ca1:	83 c4 10             	add    $0x10,%esp
    1ca4:	89 c3                	mov    %eax,%ebx
    1ca6:	85 c0                	test   %eax,%eax
    1ca8:	74 0e                	je     1cb8 <main+0x78>
    1caa:	8d 65 f0             	lea    -0x10(%ebp),%esp
    1cad:	89 d8                	mov    %ebx,%eax
    1caf:	59                   	pop    %ecx
    1cb0:	5b                   	pop    %ebx
    1cb1:	5e                   	pop    %esi
    1cb2:	5f                   	pop    %edi
    1cb3:	5d                   	pop    %ebp
    1cb4:	8d 61 fc             	lea    -0x4(%ecx),%esp
    1cb7:	c3                   	ret    
    1cb8:	56                   	push   %esi
    1cb9:	6a 00                	push   $0x0
    1cbb:	68 20 1c 00 00       	push   $0x1c20
    1cc0:	68 c1 7e 9f ef       	push   $0xef9f7ec1
    1cc5:	e8 26 2b 01 00       	call   147f0 <async_create_port>
    1cca:	83 c4 10             	add    $0x10,%esp
    1ccd:	89 c3                	mov    %eax,%ebx
    1ccf:	85 c0                	test   %eax,%eax
    1cd1:	75 d7                	jne    1caa <main+0x6a>
    1cd3:	83 ec 0c             	sub    $0xc,%esp
    1cd6:	68 6c 6f 67 67       	push   $0x67676f6c
    1cdb:	e8 c0 18 01 00       	call   135a0 <service_register>
    1ce0:	83 c4 10             	add    $0x10,%esp
    1ce3:	89 c3                	mov    %eax,%ebx
    1ce5:	85 c0                	test   %eax,%eax
    1ce7:	75 4a                	jne    1d33 <main+0xf3>
    1ce9:	83 ec 0c             	sub    $0xc,%esp
    1cec:	68 58 45 02 00       	push   $0x24558
    1cf1:	e8 aa af 00 00       	call   cca0 <printf>
    1cf6:	83 c8 ff             	or     $0xffffffff,%eax
    1cf9:	f0 0f c1 05 cc 80 02 	lock xadd %eax,0x280cc
    1d00:	00 
    1d01:	83 c4 10             	add    $0x10,%esp
    1d04:	48                   	dec    %eax
    1d05:	78 0f                	js     1d16 <main+0xd6>
    1d07:	83 ec 0c             	sub    $0xc,%esp
    1d0a:	6a 03                	push   $0x3
    1d0c:	e8 bf 4b 00 00       	call   68d0 <fibril_switch>
    1d11:	83 c4 10             	add    $0x10,%esp
    1d14:	eb 94                	jmp    1caa <main+0x6a>
    1d16:	50                   	push   %eax
    1d17:	6a 0b                	push   $0xb
    1d19:	6a 00                	push   $0x0
    1d1b:	6a 00                	push   $0x0
    1d1d:	6a 00                	push   $0x0
    1d1f:	6a 00                	push   $0x0
    1d21:	6a 00                	push   $0x0
    1d23:	68 cc 80 02 00       	push   $0x280cc
    1d28:	ff 15 f8 80 02 00    	call   *0x280f8
    1d2e:	83 c4 20             	add    $0x20,%esp
    1d31:	eb d4                	jmp    1d07 <main+0xc7>
    1d33:	83 ec 0c             	sub    $0xc,%esp
    1d36:	83 cb ff             	or     $0xffffffff,%ebx
    1d39:	50                   	push   %eax
    1d3a:	e8 f1 48 00 00       	call   6630 <str_error>
    1d3f:	5a                   	pop    %edx
    1d40:	59                   	pop    %ecx
    1d41:	50                   	push   %eax
    1d42:	68 34 45 02 00       	push   $0x24534
    1d47:	e8 54 af 00 00       	call   cca0 <printf>
    1d4c:	83 c4 10             	add    $0x10,%esp
    1d4f:	e9 56 ff ff ff       	jmp    1caa <main+0x6a>
    1d54:	66 90                	xchg   %ax,%ax
    1d56:	66 90                	xchg   %ax,%ax
    1d58:	66 90                	xchg   %ax,%ax
    1d5a:	66 90                	xchg   %ax,%ax
    1d5c:	66 90                	xchg   %ax,%ax
    1d5e:	66 90                	xchg   %ax,%ax

00001d60 <logger_connection_handler_writer>:
    1d60:	55                   	push   %ebp
    1d61:	89 e5                	mov    %esp,%ebp
    1d63:	57                   	push   %edi
    1d64:	56                   	push   %esi
    1d65:	53                   	push   %ebx
    1d66:	81 ec e4 01 00 00    	sub    $0x1e4,%esp
    1d6c:	8d bd 30 fe ff ff    	lea    -0x1d0(%ebp),%edi
    1d72:	8b 75 08             	mov    0x8(%ebp),%esi
    1d75:	6a 00                	push   $0x0
    1d77:	56                   	push   %esi
    1d78:	e8 d3 48 01 00       	call   16650 <async_answer_0>
    1d7d:	8d 85 54 fe ff ff    	lea    -0x1ac(%ebp),%eax
    1d83:	89 04 24             	mov    %eax,(%esp)
    1d86:	e8 55 fc ff ff       	call   19e0 <registered_logs_init>
    1d8b:	83 c4 10             	add    $0x10,%esp
    1d8e:	66 90                	xchg   %ax,%ax
    1d90:	53                   	push   %ebx
    1d91:	53                   	push   %ebx
    1d92:	6a 00                	push   $0x0
    1d94:	57                   	push   %edi
    1d95:	e8 36 30 01 00       	call   14dd0 <async_get_call_timeout>
    1d9a:	83 c4 10             	add    $0x10,%esp
    1d9d:	89 c3                	mov    %eax,%ebx
    1d9f:	8b 85 30 fe ff ff    	mov    -0x1d0(%ebp),%eax
    1da5:	85 c0                	test   %eax,%eax
    1da7:	0f 84 63 01 00 00    	je     1f10 <logger_connection_handler_writer+0x1b0>
    1dad:	3d 00 04 00 00       	cmp    $0x400,%eax
    1db2:	0f 84 98 00 00 00    	je     1e50 <logger_connection_handler_writer+0xf0>
    1db8:	3d 01 04 00 00       	cmp    $0x401,%eax
    1dbd:	0f 85 15 01 00 00    	jne    1ed8 <logger_connection_handler_writer+0x178>
    1dc3:	83 ec 0c             	sub    $0xc,%esp
    1dc6:	8b 85 38 fe ff ff    	mov    -0x1c8(%ebp),%eax
    1dcc:	8b 8d 34 fe ff ff    	mov    -0x1cc(%ebp),%ecx
    1dd2:	89 85 24 fe ff ff    	mov    %eax,-0x1dc(%ebp)
    1dd8:	51                   	push   %ecx
    1dd9:	e8 72 f8 ff ff       	call   1650 <find_log_by_id_and_lock>
    1dde:	83 c4 10             	add    $0x10,%esp
    1de1:	89 c6                	mov    %eax,%esi
    1de3:	85 c0                	test   %eax,%eax
    1de5:	0f 84 5f 02 00 00    	je     204a <logger_connection_handler_writer+0x2ea>
    1deb:	8d 85 28 fe ff ff    	lea    -0x1d8(%ebp),%eax
    1df1:	c7 85 28 fe ff ff 00 	movl   $0x0,-0x1d8(%ebp)
    1df8:	00 00 00 
    1dfb:	52                   	push   %edx
    1dfc:	52                   	push   %edx
    1dfd:	6a 00                	push   $0x0
    1dff:	6a 00                	push   $0x0
    1e01:	6a 00                	push   $0x0
    1e03:	6a 01                	push   $0x1
    1e05:	6a 01                	push   $0x1
    1e07:	50                   	push   %eax
    1e08:	e8 b3 64 01 00       	call   182c0 <async_data_write_accept>
    1e0d:	83 c4 20             	add    $0x20,%esp
    1e10:	85 c0                	test   %eax,%eax
    1e12:	0f 84 18 01 00 00    	je     1f30 <logger_connection_handler_writer+0x1d0>
    1e18:	83 ec 0c             	sub    $0xc,%esp
    1e1b:	89 85 24 fe ff ff    	mov    %eax,-0x1dc(%ebp)
    1e21:	56                   	push   %esi
    1e22:	e8 f9 f8 ff ff       	call   1720 <log_unlock>
    1e27:	8b b5 28 fe ff ff    	mov    -0x1d8(%ebp),%esi
    1e2d:	59                   	pop    %ecx
    1e2e:	56                   	push   %esi
    1e2f:	e8 6c 04 01 00       	call   122a0 <free>
    1e34:	83 c4 10             	add    $0x10,%esp
    1e37:	8b 85 24 fe ff ff    	mov    -0x1dc(%ebp),%eax
    1e3d:	52                   	push   %edx
    1e3e:	52                   	push   %edx
    1e3f:	50                   	push   %eax
    1e40:	53                   	push   %ebx
    1e41:	e8 0a 48 01 00       	call   16650 <async_answer_0>
    1e46:	83 c4 10             	add    $0x10,%esp
    1e49:	e9 42 ff ff ff       	jmp    1d90 <logger_connection_handler_writer+0x30>
    1e4e:	66 90                	xchg   %ax,%ax
    1e50:	8d 85 2c fe ff ff    	lea    -0x1d4(%ebp),%eax
    1e56:	8b b5 34 fe ff ff    	mov    -0x1cc(%ebp),%esi
    1e5c:	51                   	push   %ecx
    1e5d:	51                   	push   %ecx
    1e5e:	6a 00                	push   $0x0
    1e60:	6a 00                	push   $0x0
    1e62:	6a 00                	push   $0x0
    1e64:	6a 01                	push   $0x1
    1e66:	6a 01                	push   $0x1
    1e68:	50                   	push   %eax
    1e69:	e8 52 64 01 00       	call   182c0 <async_data_write_accept>
    1e6e:	83 c4 20             	add    $0x20,%esp
    1e71:	85 c0                	test   %eax,%eax
    1e73:	0f 85 bf 01 00 00    	jne    2038 <logger_connection_handler_writer+0x2d8>
    1e79:	50                   	push   %eax
    1e7a:	50                   	push   %eax
    1e7b:	8b 85 2c fe ff ff    	mov    -0x1d4(%ebp),%eax
    1e81:	56                   	push   %esi
    1e82:	50                   	push   %eax
    1e83:	e8 48 f5 ff ff       	call   13d0 <find_or_create_log_and_lock>
    1e88:	8b 95 2c fe ff ff    	mov    -0x1d4(%ebp),%edx
    1e8e:	89 c6                	mov    %eax,%esi
    1e90:	58                   	pop    %eax
    1e91:	52                   	push   %edx
    1e92:	e8 09 04 01 00       	call   122a0 <free>
    1e97:	83 c4 10             	add    $0x10,%esp
    1e9a:	85 f6                	test   %esi,%esi
    1e9c:	0f 84 96 01 00 00    	je     2038 <logger_connection_handler_writer+0x2d8>
    1ea2:	50                   	push   %eax
    1ea3:	50                   	push   %eax
    1ea4:	8d 85 54 fe ff ff    	lea    -0x1ac(%ebp),%eax
    1eaa:	56                   	push   %esi
    1eab:	50                   	push   %eax
    1eac:	e8 3f fb ff ff       	call   19f0 <register_log>
    1eb1:	83 c4 10             	add    $0x10,%esp
    1eb4:	84 c0                	test   %al,%al
    1eb6:	75 38                	jne    1ef0 <logger_connection_handler_writer+0x190>
    1eb8:	83 ec 0c             	sub    $0xc,%esp
    1ebb:	56                   	push   %esi
    1ebc:	e8 5f f8 ff ff       	call   1720 <log_unlock>
    1ec1:	5e                   	pop    %esi
    1ec2:	58                   	pop    %eax
    1ec3:	6a fd                	push   $0xfffffffd
    1ec5:	53                   	push   %ebx
    1ec6:	e8 85 47 01 00       	call   16650 <async_answer_0>
    1ecb:	83 c4 10             	add    $0x10,%esp
    1ece:	e9 bd fe ff ff       	jmp    1d90 <logger_connection_handler_writer+0x30>
    1ed3:	90                   	nop
    1ed4:	8d 74 26 00          	lea    0x0(%esi,%eiz,1),%esi
    1ed8:	50                   	push   %eax
    1ed9:	50                   	push   %eax
    1eda:	6a f2                	push   $0xfffffff2
    1edc:	53                   	push   %ebx
    1edd:	e8 6e 47 01 00       	call   16650 <async_answer_0>
    1ee2:	83 c4 10             	add    $0x10,%esp
    1ee5:	e9 a6 fe ff ff       	jmp    1d90 <logger_connection_handler_writer+0x30>
    1eea:	8d b6 00 00 00 00    	lea    0x0(%esi),%esi
    1ef0:	83 ec 0c             	sub    $0xc,%esp
    1ef3:	56                   	push   %esi
    1ef4:	e8 27 f8 ff ff       	call   1720 <log_unlock>
    1ef9:	83 c4 0c             	add    $0xc,%esp
    1efc:	56                   	push   %esi
    1efd:	6a 00                	push   $0x0
    1eff:	53                   	push   %ebx
    1f00:	e8 6b 47 01 00       	call   16670 <async_answer_1>
    1f05:	83 c4 10             	add    $0x10,%esp
    1f08:	e9 83 fe ff ff       	jmp    1d90 <logger_connection_handler_writer+0x30>
    1f0d:	8d 76 00             	lea    0x0(%esi),%esi
    1f10:	83 ec 0c             	sub    $0xc,%esp
    1f13:	8d 85 54 fe ff ff    	lea    -0x1ac(%ebp),%eax
    1f19:	50                   	push   %eax
    1f1a:	e8 31 fb ff ff       	call   1a50 <unregister_logs>
    1f1f:	83 c4 10             	add    $0x10,%esp
    1f22:	8d 65 f4             	lea    -0xc(%ebp),%esp
    1f25:	5b                   	pop    %ebx
    1f26:	5e                   	pop    %esi
    1f27:	5f                   	pop    %edi
    1f28:	5d                   	pop    %ebp
    1f29:	c3                   	ret    
    1f2a:	8d b6 00 00 00 00    	lea    0x0(%esi),%esi
    1f30:	50                   	push   %eax
    1f31:	50                   	push   %eax
    1f32:	8b 85 24 fe ff ff    	mov    -0x1dc(%ebp),%eax
    1f38:	50                   	push   %eax
    1f39:	56                   	push   %esi
    1f3a:	e8 81 f7 ff ff       	call   16c0 <shall_log_message>
    1f3f:	83 c4 10             	add    $0x10,%esp
    1f42:	88 c1                	mov    %al,%cl
    1f44:	31 c0                	xor    %eax,%eax
    1f46:	84 c9                	test   %cl,%cl
    1f48:	0f 84 ca fe ff ff    	je     1e18 <logger_connection_handler_writer+0xb8>
    1f4e:	83 ec 0c             	sub    $0xc,%esp
    1f51:	68 b5 44 02 00       	push   $0x244b5
    1f56:	e8 c5 2d 00 00       	call   4d20 <str_dup>
    1f5b:	89 04 24             	mov    %eax,(%esp)
    1f5e:	89 85 20 fe ff ff    	mov    %eax,-0x1e0(%ebp)
    1f64:	e8 07 08 00 00       	call   2770 <str_size>
    1f69:	83 c4 10             	add    $0x10,%esp
    1f6c:	85 c0                	test   %eax,%eax
    1f6e:	74 13                	je     1f83 <logger_connection_handler_writer+0x223>
    1f70:	8b 95 20 fe ff ff    	mov    -0x1e0(%ebp),%edx
    1f76:	8d 44 02 ff          	lea    -0x1(%edx,%eax,1),%eax
    1f7a:	80 38 0a             	cmpb   $0xa,(%eax)
    1f7d:	0f 84 cf 00 00 00    	je     2052 <logger_connection_handler_writer+0x2f2>
    1f83:	83 ec 0c             	sub    $0xc,%esp
    1f86:	8b 8d 28 fe ff ff    	mov    -0x1d8(%ebp),%ecx
    1f8c:	8b 85 24 fe ff ff    	mov    -0x1dc(%ebp),%eax
    1f92:	89 8d 1c fe ff ff    	mov    %ecx,-0x1e4(%ebp)
    1f98:	50                   	push   %eax
    1f99:	e8 22 ad 00 00       	call   ccc0 <log_level_str>
    1f9e:	8b 8d 1c fe ff ff    	mov    -0x1e4(%ebp),%ecx
    1fa4:	89 0c 24             	mov    %ecx,(%esp)
    1fa7:	50                   	push   %eax
    1fa8:	8b 46 20             	mov    0x20(%esi),%eax
    1fab:	50                   	push   %eax
    1fac:	8b 85 20 fe ff ff    	mov    -0x1e0(%ebp),%eax
    1fb2:	50                   	push   %eax
    1fb3:	8d 85 2c fe ff ff    	lea    -0x1d4(%ebp),%eax
    1fb9:	50                   	push   %eax
    1fba:	e8 61 80 00 00       	call   a020 <asprintf>
    1fbf:	83 c4 14             	add    $0x14,%esp
    1fc2:	89 85 1c fe ff ff    	mov    %eax,-0x1e4(%ebp)
    1fc8:	8b 85 20 fe ff ff    	mov    -0x1e0(%ebp),%eax
    1fce:	50                   	push   %eax
    1fcf:	e8 cc 02 01 00       	call   122a0 <free>
    1fd4:	8b 85 1c fe ff ff    	mov    -0x1e4(%ebp),%eax
    1fda:	83 c4 10             	add    $0x10,%esp
    1fdd:	85 c0                	test   %eax,%eax
    1fdf:	78 36                	js     2017 <logger_connection_handler_writer+0x2b7>
    1fe1:	83 ec 0c             	sub    $0xc,%esp
    1fe4:	8b 85 2c fe ff ff    	mov    -0x1d4(%ebp),%eax
    1fea:	50                   	push   %eax
    1feb:	e8 80 07 00 00       	call   2770 <str_size>
    1ff0:	83 c4 0c             	add    $0xc,%esp
    1ff3:	50                   	push   %eax
    1ff4:	8b 85 2c fe ff ff    	mov    -0x1d4(%ebp),%eax
    1ffa:	50                   	push   %eax
    1ffb:	8b 85 24 fe ff ff    	mov    -0x1dc(%ebp),%eax
    2001:	50                   	push   %eax
    2002:	e8 69 b2 00 00       	call   d270 <klog_write>
    2007:	8b 8d 2c fe ff ff    	mov    -0x1d4(%ebp),%ecx
    200d:	5a                   	pop    %edx
    200e:	51                   	push   %ecx
    200f:	e8 8c 02 01 00       	call   122a0 <free>
    2014:	83 c4 10             	add    $0x10,%esp
    2017:	50                   	push   %eax
    2018:	8b 85 28 fe ff ff    	mov    -0x1d8(%ebp),%eax
    201e:	50                   	push   %eax
    201f:	8b 85 24 fe ff ff    	mov    -0x1dc(%ebp),%eax
    2025:	50                   	push   %eax
    2026:	56                   	push   %esi
    2027:	e8 c4 f8 ff ff       	call   18f0 <write_to_log>
    202c:	83 c4 10             	add    $0x10,%esp
    202f:	31 c0                	xor    %eax,%eax
    2031:	e9 e2 fd ff ff       	jmp    1e18 <logger_connection_handler_writer+0xb8>
    2036:	66 90                	xchg   %ax,%ax
    2038:	50                   	push   %eax
    2039:	50                   	push   %eax
    203a:	6a fe                	push   $0xfffffffe
    203c:	53                   	push   %ebx
    203d:	e8 0e 46 01 00       	call   16650 <async_answer_0>
    2042:	83 c4 10             	add    $0x10,%esp
    2045:	e9 46 fd ff ff       	jmp    1d90 <logger_connection_handler_writer+0x30>
    204a:	83 c8 ff             	or     $0xffffffff,%eax
    204d:	e9 eb fd ff ff       	jmp    1e3d <logger_connection_handler_writer+0xdd>
    2052:	c6 00 00             	movb   $0x0,(%eax)
    2055:	e9 29 ff ff ff       	jmp    1f83 <logger_connection_handler_writer+0x223>
    205a:	66 90                	xchg   %ax,%ax
    205c:	66 90                	xchg   %ax,%ax
    205e:	66 90                	xchg   %ax,%ax

00002060 <exit>:
    2060:	55                   	push   %ebp
    2061:	89 e5                	mov    %esp,%ebp
    2063:	83 ec 08             	sub    $0x8,%esp
    2066:	80 3d ac 81 02 00 00 	cmpb   $0x0,0x281ac
    206d:	75 1a                	jne    2089 <exit+0x29>
    206f:	50                   	push   %eax
    2070:	6a 09                	push   $0x9
    2072:	6a 00                	push   $0x0
    2074:	6a 00                	push   $0x0
    2076:	6a 00                	push   $0x0
    2078:	6a 00                	push   $0x0
    207a:	6a 00                	push   $0x0
    207c:	6a 00                	push   $0x0
    207e:	ff 15 f8 80 02 00    	call   *0x280f8
    2084:	83 c4 20             	add    $0x20,%esp
    2087:	eb fe                	jmp    2087 <exit+0x27>
    2089:	e8 92 83 00 00       	call   a420 <__stdio_done>
    208e:	83 ec 0c             	sub    $0xc,%esp
    2091:	8b 55 08             	mov    0x8(%ebp),%edx
    2094:	52                   	push   %edx
    2095:	e8 36 7e 00 00       	call   9ed0 <task_retval>
    209a:	65 a1 00 00 00 00    	mov    %gs:0x0,%eax
    20a0:	59                   	pop    %ecx
    20a1:	8b 48 04             	mov    0x4(%eax),%ecx
    20a4:	5a                   	pop    %edx
    20a5:	6a 00                	push   $0x0
    20a7:	51                   	push   %ecx
    20a8:	e8 23 47 00 00       	call   67d0 <fibril_teardown>
    20ad:	83 c4 10             	add    $0x10,%esp
    20b0:	eb bd                	jmp    206f <exit+0xf>
    20b2:	8d b4 26 00 00 00 00 	lea    0x0(%esi,%eiz,1),%esi
    20b9:	8d bc 27 00 00 00 00 	lea    0x0(%edi,%eiz,1),%edi

000020c0 <abort>:
    20c0:	55                   	push   %ebp
    20c1:	89 e5                	mov    %esp,%ebp
    20c3:	83 ec 0c             	sub    $0xc,%esp
    20c6:	6a 09                	push   $0x9
    20c8:	6a 00                	push   $0x0
    20ca:	6a 00                	push   $0x0
    20cc:	6a 00                	push   $0x0
    20ce:	6a 00                	push   $0x0
    20d0:	6a 00                	push   $0x0
    20d2:	6a 01                	push   $0x1
    20d4:	ff 15 f8 80 02 00    	call   *0x280f8
    20da:	83 c4 20             	add    $0x20,%esp
    20dd:	eb fe                	jmp    20dd <abort+0x1d>
    20df:	90                   	nop

000020e0 <__main>:
    20e0:	55                   	push   %ebp
    20e1:	89 e5                	mov    %esp,%ebp
    20e3:	56                   	push   %esi
    20e4:	53                   	push   %ebx
    20e5:	8b 5d 08             	mov    0x8(%ebp),%ebx
    20e8:	e8 c3 fe 00 00       	call   11fb0 <__malloc_init>
    20ed:	89 1d a0 81 02 00    	mov    %ebx,0x281a0
    20f3:	85 db                	test   %ebx,%ebx
    20f5:	74 68                	je     215f <__main+0x7f>
    20f7:	8b 43 18             	mov    0x18(%ebx),%eax
    20fa:	85 c0                	test   %eax,%eax
    20fc:	74 61                	je     215f <__main+0x7f>
    20fe:	a3 a8 81 02 00       	mov    %eax,0x281a8
    2103:	e8 b8 45 00 00       	call   66c0 <fibril_setup>
    2108:	85 c0                	test   %eax,%eax
    210a:	74 5c                	je     2168 <__main+0x88>
    210c:	8b 40 38             	mov    0x38(%eax),%eax
    210f:	65 a3 00 00 00 00    	mov    %eax,%gs:0x0
    2115:	e8 c6 33 01 00       	call   154e0 <__async_init>
    211a:	a1 a0 81 02 00       	mov    0x281a0,%eax
    211f:	c6 05 ac 81 02 00 01 	movb   $0x1,0x281ac
    2126:	85 c0                	test   %eax,%eax
    2128:	74 43                	je     216d <__main+0x8d>
    212a:	83 ec 0c             	sub    $0xc,%esp
    212d:	8b 50 10             	mov    0x10(%eax),%edx
    2130:	8b 58 08             	mov    0x8(%eax),%ebx
    2133:	8b 70 0c             	mov    0xc(%eax),%esi
    2136:	52                   	push   %edx
    2137:	e8 44 80 00 00       	call   a180 <__stdio_init>
    213c:	a1 a0 81 02 00       	mov    0x281a0,%eax
    2141:	59                   	pop    %ecx
    2142:	8b 40 04             	mov    0x4(%eax),%eax
    2145:	50                   	push   %eax
    2146:	e8 45 b7 01 00       	call   1d890 <chdir>
    214b:	83 c4 10             	add    $0x10,%esp
    214e:	50                   	push   %eax
    214f:	50                   	push   %eax
    2150:	56                   	push   %esi
    2151:	53                   	push   %ebx
    2152:	e8 e9 fa ff ff       	call   1c40 <main>
    2157:	89 04 24             	mov    %eax,(%esp)
    215a:	e8 01 ff ff ff       	call   2060 <exit>
    215f:	e8 2c c4 01 00       	call   1e590 <rtld_init_static>
    2164:	85 c0                	test   %eax,%eax
    2166:	74 9b                	je     2103 <__main+0x23>
    2168:	e8 53 ff ff ff       	call   20c0 <abort>
    216d:	83 ec 0c             	sub    $0xc,%esp
    2170:	31 f6                	xor    %esi,%esi
    2172:	31 db                	xor    %ebx,%ebx
    2174:	6a 00                	push   $0x0
    2176:	e8 05 80 00 00       	call   a180 <__stdio_init>
    217b:	83 c4 10             	add    $0x10,%esp
    217e:	eb ce                	jmp    214e <__main+0x6e>

00002180 <_strtoul.constprop.4>:
    2180:	55                   	push   %ebp
    2181:	89 e5                	mov    %esp,%ebp
    2183:	57                   	push   %edi
    2184:	56                   	push   %esi
    2185:	53                   	push   %ebx
    2186:	83 ec 0c             	sub    $0xc,%esp
    2189:	89 c6                	mov    %eax,%esi
    218b:	89 45 e8             	mov    %eax,-0x18(%ebp)
    218e:	89 55 ec             	mov    %edx,-0x14(%ebp)
    2191:	8a 06                	mov    (%esi),%al
    2193:	3c 09                	cmp    $0x9,%al
    2195:	7c 10                	jl     21a7 <_strtoul.constprop.4+0x27>
    2197:	3c 0d                	cmp    $0xd,%al
    2199:	0f 8e a9 00 00 00    	jle    2248 <_strtoul.constprop.4+0xc8>
    219f:	3c 20                	cmp    $0x20,%al
    21a1:	0f 84 a1 00 00 00    	je     2248 <_strtoul.constprop.4+0xc8>
    21a7:	3c 2d                	cmp    $0x2d,%al
    21a9:	0f 84 11 01 00 00    	je     22c0 <_strtoul.constprop.4+0x140>
    21af:	3c 2b                	cmp    $0x2b,%al
    21b1:	0f 94 c0             	sete   %al
    21b4:	25 ff 00 00 00       	and    $0xff,%eax
    21b9:	01 c6                	add    %eax,%esi
    21bb:	85 c9                	test   %ecx,%ecx
    21bd:	0f 84 8d 00 00 00    	je     2250 <_strtoul.constprop.4+0xd0>
    21c3:	83 f9 01             	cmp    $0x1,%ecx
    21c6:	0f 84 e4 00 00 00    	je     22b0 <_strtoul.constprop.4+0x130>
    21cc:	83 f9 24             	cmp    $0x24,%ecx
    21cf:	0f 8f db 00 00 00    	jg     22b0 <_strtoul.constprop.4+0x130>
    21d5:	8a 16                	mov    (%esi),%dl
    21d7:	83 f9 10             	cmp    $0x10,%ecx
    21da:	0f 84 fb 00 00 00    	je     22db <_strtoul.constprop.4+0x15b>
    21e0:	84 d2                	test   %dl,%dl
    21e2:	0f 84 11 01 00 00    	je     22f9 <_strtoul.constprop.4+0x179>
    21e8:	89 f3                	mov    %esi,%ebx
    21ea:	31 c0                	xor    %eax,%eax
    21ec:	eb 48                	jmp    2236 <_strtoul.constprop.4+0xb6>
    21ee:	66 90                	xchg   %ax,%ax
    21f0:	83 ea 57             	sub    $0x57,%edx
    21f3:	89 d7                	mov    %edx,%edi
    21f5:	81 e7 ff 00 00 00    	and    $0xff,%edi
    21fb:	39 cf                	cmp    %ecx,%edi
    21fd:	0f 8d 82 00 00 00    	jge    2285 <_strtoul.constprop.4+0x105>
    2203:	31 d2                	xor    %edx,%edx
    2205:	88 c2                	mov    %al,%dl
    2207:	0f af d1             	imul   %ecx,%edx
    220a:	c1 e8 08             	shr    $0x8,%eax
    220d:	01 d7                	add    %edx,%edi
    220f:	0f af c1             	imul   %ecx,%eax
    2212:	89 7d f0             	mov    %edi,-0x10(%ebp)
    2215:	c1 ef 08             	shr    $0x8,%edi
    2218:	01 f8                	add    %edi,%eax
    221a:	3d ff ff ff 00       	cmp    $0xffffff,%eax
    221f:	0f 87 ab 00 00 00    	ja     22d0 <_strtoul.constprop.4+0x150>
    2225:	31 d2                	xor    %edx,%edx
    2227:	43                   	inc    %ebx
    2228:	c1 e0 08             	shl    $0x8,%eax
    222b:	8a 55 f0             	mov    -0x10(%ebp),%dl
    222e:	01 d0                	add    %edx,%eax
    2230:	8a 13                	mov    (%ebx),%dl
    2232:	84 d2                	test   %dl,%dl
    2234:	74 4f                	je     2285 <_strtoul.constprop.4+0x105>
    2236:	80 fa 60             	cmp    $0x60,%dl
    2239:	77 b5                	ja     21f0 <_strtoul.constprop.4+0x70>
    223b:	80 fa 40             	cmp    $0x40,%dl
    223e:	76 40                	jbe    2280 <_strtoul.constprop.4+0x100>
    2240:	83 ea 37             	sub    $0x37,%edx
    2243:	eb ae                	jmp    21f3 <_strtoul.constprop.4+0x73>
    2245:	8d 76 00             	lea    0x0(%esi),%esi
    2248:	46                   	inc    %esi
    2249:	e9 43 ff ff ff       	jmp    2191 <_strtoul.constprop.4+0x11>
    224e:	66 90                	xchg   %ax,%ax
    2250:	8a 16                	mov    (%esi),%dl
    2252:	b9 0a 00 00 00       	mov    $0xa,%ecx
    2257:	80 fa 30             	cmp    $0x30,%dl
    225a:	75 84                	jne    21e0 <_strtoul.constprop.4+0x60>
    225c:	8a 46 01             	mov    0x1(%esi),%al
    225f:	83 e0 df             	and    $0xffffffdf,%eax
    2262:	3c 58                	cmp    $0x58,%al
    2264:	0f 85 9d 00 00 00    	jne    2307 <_strtoul.constprop.4+0x187>
    226a:	8a 56 02             	mov    0x2(%esi),%dl
    226d:	b9 10 00 00 00       	mov    $0x10,%ecx
    2272:	83 c6 02             	add    $0x2,%esi
    2275:	e9 66 ff ff ff       	jmp    21e0 <_strtoul.constprop.4+0x60>
    227a:	8d b6 00 00 00 00    	lea    0x0(%esi),%esi
    2280:	80 fa 39             	cmp    $0x39,%dl
    2283:	76 23                	jbe    22a8 <_strtoul.constprop.4+0x128>
    2285:	39 de                	cmp    %ebx,%esi
    2287:	74 70                	je     22f9 <_strtoul.constprop.4+0x179>
    2289:	8b 55 ec             	mov    -0x14(%ebp),%edx
    228c:	85 d2                	test   %edx,%edx
    228e:	74 05                	je     2295 <_strtoul.constprop.4+0x115>
    2290:	8b 75 ec             	mov    -0x14(%ebp),%esi
    2293:	89 1e                	mov    %ebx,(%esi)
    2295:	39 5d e8             	cmp    %ebx,-0x18(%ebp)
    2298:	74 16                	je     22b0 <_strtoul.constprop.4+0x130>
    229a:	83 c4 0c             	add    $0xc,%esp
    229d:	5b                   	pop    %ebx
    229e:	5e                   	pop    %esi
    229f:	5f                   	pop    %edi
    22a0:	5d                   	pop    %ebp
    22a1:	c3                   	ret    
    22a2:	8d b6 00 00 00 00    	lea    0x0(%esi),%esi
    22a8:	83 ea 30             	sub    $0x30,%edx
    22ab:	e9 43 ff ff ff       	jmp    21f3 <_strtoul.constprop.4+0x73>
    22b0:	83 c4 0c             	add    $0xc,%esp
    22b3:	31 c0                	xor    %eax,%eax
    22b5:	5b                   	pop    %ebx
    22b6:	5e                   	pop    %esi
    22b7:	5f                   	pop    %edi
    22b8:	5d                   	pop    %ebp
    22b9:	c3                   	ret    
    22ba:	8d b6 00 00 00 00    	lea    0x0(%esi),%esi
    22c0:	8b 45 08             	mov    0x8(%ebp),%eax
    22c3:	46                   	inc    %esi
    22c4:	c6 00 01             	movb   $0x1,(%eax)
    22c7:	e9 ef fe ff ff       	jmp    21bb <_strtoul.constprop.4+0x3b>
    22cc:	8d 74 26 00          	lea    0x0(%esi,%eiz,1),%esi
    22d0:	83 c4 0c             	add    $0xc,%esp
    22d3:	83 c8 ff             	or     $0xffffffff,%eax
    22d6:	5b                   	pop    %ebx
    22d7:	5e                   	pop    %esi
    22d8:	5f                   	pop    %edi
    22d9:	5d                   	pop    %ebp
    22da:	c3                   	ret    
    22db:	80 fa 30             	cmp    $0x30,%dl
    22de:	0f 85 fc fe ff ff    	jne    21e0 <_strtoul.constprop.4+0x60>
    22e4:	8a 46 01             	mov    0x1(%esi),%al
    22e7:	83 e0 df             	and    $0xffffffdf,%eax
    22ea:	3c 58                	cmp    $0x58,%al
    22ec:	75 1e                	jne    230c <_strtoul.constprop.4+0x18c>
    22ee:	8a 56 02             	mov    0x2(%esi),%dl
    22f1:	83 c6 02             	add    $0x2,%esi
    22f4:	e9 e7 fe ff ff       	jmp    21e0 <_strtoul.constprop.4+0x60>
    22f9:	8b 45 ec             	mov    -0x14(%ebp),%eax
    22fc:	85 c0                	test   %eax,%eax
    22fe:	74 b0                	je     22b0 <_strtoul.constprop.4+0x130>
    2300:	8b 5d e8             	mov    -0x18(%ebp),%ebx
    2303:	31 c0                	xor    %eax,%eax
    2305:	eb 89                	jmp    2290 <_strtoul.constprop.4+0x110>
    2307:	b9 08 00 00 00       	mov    $0x8,%ecx
    230c:	b2 30                	mov    $0x30,%dl
    230e:	e9 d5 fe ff ff       	jmp    21e8 <_strtoul.constprop.4+0x68>
    2313:	8d b6 00 00 00 00    	lea    0x0(%esi),%esi
    2319:	8d bc 27 00 00 00 00 	lea    0x0(%edi,%eiz,1),%edi

00002320 <str_decode>:
    2320:	55                   	push   %ebp
    2321:	31 c0                	xor    %eax,%eax
    2323:	89 e5                	mov    %esp,%ebp
    2325:	57                   	push   %edi
    2326:	56                   	push   %esi
    2327:	53                   	push   %ebx
    2328:	83 ec 08             	sub    $0x8,%esp
    232b:	8b 5d 0c             	mov    0xc(%ebp),%ebx
    232e:	8b 7d 08             	mov    0x8(%ebp),%edi
    2331:	8b 13                	mov    (%ebx),%edx
    2333:	8d 72 01             	lea    0x1(%edx),%esi
    2336:	3b 75 10             	cmp    0x10(%ebp),%esi
    2339:	77 13                	ja     234e <str_decode+0x2e>
    233b:	89 33                	mov    %esi,(%ebx)
    233d:	8a 04 17             	mov    (%edi,%edx,1),%al
    2340:	88 c1                	mov    %al,%cl
    2342:	88 45 ec             	mov    %al,-0x14(%ebp)
    2345:	89 c8                	mov    %ecx,%eax
    2347:	83 e0 7f             	and    $0x7f,%eax
    234a:	84 c9                	test   %cl,%cl
    234c:	78 0a                	js     2358 <str_decode+0x38>
    234e:	5a                   	pop    %edx
    234f:	59                   	pop    %ecx
    2350:	5b                   	pop    %ebx
    2351:	5e                   	pop    %esi
    2352:	5f                   	pop    %edi
    2353:	5d                   	pop    %ebp
    2354:	c3                   	ret    
    2355:	8d 76 00             	lea    0x0(%esi),%esi
    2358:	88 c8                	mov    %cl,%al
    235a:	83 e0 e0             	and    $0xffffffe0,%eax
    235d:	3c c0                	cmp    $0xc0,%al
    235f:	74 27                	je     2388 <str_decode+0x68>
    2361:	88 c8                	mov    %cl,%al
    2363:	83 e0 f0             	and    $0xfffffff0,%eax
    2366:	3c e0                	cmp    $0xe0,%al
    2368:	0f 84 8a 00 00 00    	je     23f8 <str_decode+0xd8>
    236e:	88 c8                	mov    %cl,%al
    2370:	83 e0 f8             	and    $0xfffffff8,%eax
    2373:	3c f0                	cmp    $0xf0,%al
    2375:	0f 84 89 00 00 00    	je     2404 <str_decode+0xe4>
    237b:	5a                   	pop    %edx
    237c:	b8 3f 00 00 00       	mov    $0x3f,%eax
    2381:	59                   	pop    %ecx
    2382:	5b                   	pop    %ebx
    2383:	5e                   	pop    %esi
    2384:	5f                   	pop    %edi
    2385:	5d                   	pop    %ebp
    2386:	c3                   	ret    
    2387:	90                   	nop
    2388:	b8 01 00 00 00       	mov    $0x1,%eax
    238d:	b9 05 00 00 00       	mov    $0x5,%ecx
    2392:	01 f0                	add    %esi,%eax
    2394:	89 45 f0             	mov    %eax,-0x10(%ebp)
    2397:	39 45 10             	cmp    %eax,0x10(%ebp)
    239a:	72 df                	jb     237b <str_decode+0x5b>
    239c:	b8 01 00 00 00       	mov    $0x1,%eax
    23a1:	83 c2 02             	add    $0x2,%edx
    23a4:	d3 e0                	shl    %cl,%eax
    23a6:	48                   	dec    %eax
    23a7:	8b 4d ec             	mov    -0x14(%ebp),%ecx
    23aa:	89 13                	mov    %edx,(%ebx)
    23ac:	21 c8                	and    %ecx,%eax
    23ae:	8a 0c 37             	mov    (%edi,%esi,1),%cl
    23b1:	89 55 ec             	mov    %edx,-0x14(%ebp)
    23b4:	89 ce                	mov    %ecx,%esi
    23b6:	25 ff 00 00 00       	and    $0xff,%eax
    23bb:	83 e6 c0             	and    $0xffffffc0,%esi
    23be:	89 f2                	mov    %esi,%edx
    23c0:	80 fa 80             	cmp    $0x80,%dl
    23c3:	75 b6                	jne    237b <str_decode+0x5b>
    23c5:	8b 55 ec             	mov    -0x14(%ebp),%edx
    23c8:	89 de                	mov    %ebx,%esi
    23ca:	eb 15                	jmp    23e1 <str_decode+0xc1>
    23cc:	8d 74 26 00          	lea    0x0(%esi,%eiz,1),%esi
    23d0:	42                   	inc    %edx
    23d1:	89 16                	mov    %edx,(%esi)
    23d3:	8a 4c 17 ff          	mov    -0x1(%edi,%edx,1),%cl
    23d7:	88 cb                	mov    %cl,%bl
    23d9:	83 e3 c0             	and    $0xffffffc0,%ebx
    23dc:	80 fb 80             	cmp    $0x80,%bl
    23df:	75 9a                	jne    237b <str_decode+0x5b>
    23e1:	c1 e0 06             	shl    $0x6,%eax
    23e4:	83 e1 3f             	and    $0x3f,%ecx
    23e7:	09 c8                	or     %ecx,%eax
    23e9:	3b 55 f0             	cmp    -0x10(%ebp),%edx
    23ec:	75 e2                	jne    23d0 <str_decode+0xb0>
    23ee:	e9 5b ff ff ff       	jmp    234e <str_decode+0x2e>
    23f3:	90                   	nop
    23f4:	8d 74 26 00          	lea    0x0(%esi,%eiz,1),%esi
    23f8:	b8 02 00 00 00       	mov    $0x2,%eax
    23fd:	b9 04 00 00 00       	mov    $0x4,%ecx
    2402:	eb 8e                	jmp    2392 <str_decode+0x72>
    2404:	b8 03 00 00 00       	mov    $0x3,%eax
    2409:	b9 03 00 00 00       	mov    $0x3,%ecx
    240e:	eb 82                	jmp    2392 <str_decode+0x72>

00002410 <str_decode_reverse>:
    2410:	55                   	push   %ebp
    2411:	89 e5                	mov    %esp,%ebp
    2413:	57                   	push   %edi
    2414:	56                   	push   %esi
    2415:	53                   	push   %ebx
    2416:	83 ec 08             	sub    $0x8,%esp
    2419:	8b 7d 0c             	mov    0xc(%ebp),%edi
    241c:	8b 07                	mov    (%edi),%eax
    241e:	89 45 f0             	mov    %eax,-0x10(%ebp)
    2421:	85 c0                	test   %eax,%eax
    2423:	0f 84 25 01 00 00    	je     254e <str_decode_reverse+0x13e>
    2429:	8d 58 ff             	lea    -0x1(%eax),%ebx
    242c:	8b 45 08             	mov    0x8(%ebp),%eax
    242f:	89 1f                	mov    %ebx,(%edi)
    2431:	8a 04 18             	mov    (%eax,%ebx,1),%al
    2434:	84 c0                	test   %al,%al
    2436:	0f 89 ec 01 00 00    	jns    2628 <str_decode_reverse+0x218>
    243c:	88 c1                	mov    %al,%cl
    243e:	83 e1 e0             	and    $0xffffffe0,%ecx
    2441:	88 4d ef             	mov    %cl,-0x11(%ebp)
    2444:	80 f9 c0             	cmp    $0xc0,%cl
    2447:	0f 84 bd 01 00 00    	je     260a <str_decode_reverse+0x1fa>
    244d:	88 c1                	mov    %al,%cl
    244f:	83 e1 f0             	and    $0xfffffff0,%ecx
    2452:	80 f9 e0             	cmp    $0xe0,%cl
    2455:	0f 84 dc 01 00 00    	je     2637 <str_decode_reverse+0x227>
    245b:	89 c6                	mov    %eax,%esi
    245d:	83 e6 f8             	and    $0xfffffff8,%esi
    2460:	89 f2                	mov    %esi,%edx
    2462:	80 fa f0             	cmp    $0xf0,%dl
    2465:	0f 84 d6 01 00 00    	je     2641 <str_decode_reverse+0x231>
    246b:	83 e0 c0             	and    $0xffffffc0,%eax
    246e:	3c 80                	cmp    $0x80,%al
    2470:	0f 85 c3 00 00 00    	jne    2539 <str_decode_reverse+0x129>
    2476:	85 db                	test   %ebx,%ebx
    2478:	0f 84 bb 00 00 00    	je     2539 <str_decode_reverse+0x129>
    247e:	8b 55 f0             	mov    -0x10(%ebp),%edx
    2481:	8b 45 08             	mov    0x8(%ebp),%eax
    2484:	8d 72 fe             	lea    -0x2(%edx),%esi
    2487:	89 37                	mov    %esi,(%edi)
    2489:	8a 04 30             	mov    (%eax,%esi,1),%al
    248c:	88 c1                	mov    %al,%cl
    248e:	83 e1 e0             	and    $0xffffffe0,%ecx
    2491:	88 4d ef             	mov    %cl,-0x11(%ebp)
    2494:	80 f9 c0             	cmp    $0xc0,%cl
    2497:	0f 84 93 01 00 00    	je     2630 <str_decode_reverse+0x220>
    249d:	88 c1                	mov    %al,%cl
    249f:	83 e1 f0             	and    $0xfffffff0,%ecx
    24a2:	80 f9 e0             	cmp    $0xe0,%cl
    24a5:	0f 84 9c 00 00 00    	je     2547 <str_decode_reverse+0x137>
    24ab:	88 c2                	mov    %al,%dl
    24ad:	83 e2 f8             	and    $0xfffffff8,%edx
    24b0:	80 fa f0             	cmp    $0xf0,%dl
    24b3:	0f 84 90 00 00 00    	je     2549 <str_decode_reverse+0x139>
    24b9:	83 e0 c0             	and    $0xffffffc0,%eax
    24bc:	3c 80                	cmp    $0x80,%al
    24be:	75 79                	jne    2539 <str_decode_reverse+0x129>
    24c0:	85 f6                	test   %esi,%esi
    24c2:	74 75                	je     2539 <str_decode_reverse+0x129>
    24c4:	8b 55 f0             	mov    -0x10(%ebp),%edx
    24c7:	8b 45 08             	mov    0x8(%ebp),%eax
    24ca:	8d 5a fd             	lea    -0x3(%edx),%ebx
    24cd:	89 1f                	mov    %ebx,(%edi)
    24cf:	8a 04 18             	mov    (%eax,%ebx,1),%al
    24d2:	88 c1                	mov    %al,%cl
    24d4:	83 e1 e0             	and    $0xffffffe0,%ecx
    24d7:	88 4d ef             	mov    %cl,-0x11(%ebp)
    24da:	80 f9 c0             	cmp    $0xc0,%cl
    24dd:	0f 84 6d 01 00 00    	je     2650 <str_decode_reverse+0x240>
    24e3:	88 c1                	mov    %al,%cl
    24e5:	83 e1 f0             	and    $0xfffffff0,%ecx
    24e8:	80 f9 e0             	cmp    $0xe0,%cl
    24eb:	74 58                	je     2545 <str_decode_reverse+0x135>
    24ed:	88 c2                	mov    %al,%dl
    24ef:	83 e2 f8             	and    $0xfffffff8,%edx
    24f2:	80 fa f0             	cmp    $0xf0,%dl
    24f5:	0f 84 4e 01 00 00    	je     2649 <str_decode_reverse+0x239>
    24fb:	83 e0 c0             	and    $0xffffffc0,%eax
    24fe:	3c 80                	cmp    $0x80,%al
    2500:	75 37                	jne    2539 <str_decode_reverse+0x129>
    2502:	85 db                	test   %ebx,%ebx
    2504:	74 33                	je     2539 <str_decode_reverse+0x129>
    2506:	8b 55 f0             	mov    -0x10(%ebp),%edx
    2509:	8b 45 08             	mov    0x8(%ebp),%eax
    250c:	83 ea 04             	sub    $0x4,%edx
    250f:	89 17                	mov    %edx,(%edi)
    2511:	8a 04 10             	mov    (%eax,%edx,1),%al
    2514:	88 c2                	mov    %al,%dl
    2516:	83 e2 e0             	and    $0xffffffe0,%edx
    2519:	88 55 ef             	mov    %dl,-0x11(%ebp)
    251c:	80 fa c0             	cmp    $0xc0,%dl
    251f:	0f 84 0b 01 00 00    	je     2630 <str_decode_reverse+0x220>
    2525:	88 c1                	mov    %al,%cl
    2527:	83 e1 f0             	and    $0xfffffff0,%ecx
    252a:	80 f9 e0             	cmp    $0xe0,%cl
    252d:	74 18                	je     2547 <str_decode_reverse+0x137>
    252f:	88 c2                	mov    %al,%dl
    2531:	83 e2 f8             	and    $0xfffffff8,%edx
    2534:	80 fa f0             	cmp    $0xf0,%dl
    2537:	74 10                	je     2549 <str_decode_reverse+0x139>
    2539:	b8 3f 00 00 00       	mov    $0x3f,%eax
    253e:	5a                   	pop    %edx
    253f:	59                   	pop    %ecx
    2540:	5b                   	pop    %ebx
    2541:	5e                   	pop    %esi
    2542:	5f                   	pop    %edi
    2543:	5d                   	pop    %ebp
    2544:	c3                   	ret    
    2545:	89 f3                	mov    %esi,%ebx
    2547:	b1 e0                	mov    $0xe0,%cl
    2549:	39 5d 10             	cmp    %ebx,0x10(%ebp)
    254c:	73 0a                	jae    2558 <str_decode_reverse+0x148>
    254e:	5a                   	pop    %edx
    254f:	31 c0                	xor    %eax,%eax
    2551:	59                   	pop    %ecx
    2552:	5b                   	pop    %ebx
    2553:	5e                   	pop    %esi
    2554:	5f                   	pop    %edi
    2555:	5d                   	pop    %ebp
    2556:	c3                   	ret    
    2557:	90                   	nop
    2558:	80 7d ef c0          	cmpb   $0xc0,-0x11(%ebp)
    255c:	0f 84 b6 00 00 00    	je     2618 <str_decode_reverse+0x208>
    2562:	80 f9 e0             	cmp    $0xe0,%cl
    2565:	0f 84 ea 00 00 00    	je     2655 <str_decode_reverse+0x245>
    256b:	88 c2                	mov    %al,%dl
    256d:	83 e2 f8             	and    $0xfffffff8,%edx
    2570:	80 fa f0             	cmp    $0xf0,%dl
    2573:	75 c4                	jne    2539 <str_decode_reverse+0x129>
    2575:	be 03 00 00 00       	mov    $0x3,%esi
    257a:	b9 03 00 00 00       	mov    $0x3,%ecx
    257f:	8d 14 1e             	lea    (%esi,%ebx,1),%edx
    2582:	39 55 10             	cmp    %edx,0x10(%ebp)
    2585:	72 b2                	jb     2539 <str_decode_reverse+0x129>
    2587:	ba 01 00 00 00       	mov    $0x1,%edx
    258c:	d3 e2                	shl    %cl,%edx
    258e:	4a                   	dec    %edx
    258f:	8d 4b 01             	lea    0x1(%ebx),%ecx
    2592:	21 d0                	and    %edx,%eax
    2594:	89 c7                	mov    %eax,%edi
    2596:	8b 45 08             	mov    0x8(%ebp),%eax
    2599:	81 e7 ff 00 00 00    	and    $0xff,%edi
    259f:	8a 14 18             	mov    (%eax,%ebx,1),%dl
    25a2:	89 7d f0             	mov    %edi,-0x10(%ebp)
    25a5:	89 d7                	mov    %edx,%edi
    25a7:	83 e7 c0             	and    $0xffffffc0,%edi
    25aa:	89 f8                	mov    %edi,%eax
    25ac:	3c 80                	cmp    $0x80,%al
    25ae:	75 89                	jne    2539 <str_decode_reverse+0x129>
    25b0:	8b 45 f0             	mov    -0x10(%ebp),%eax
    25b3:	83 e2 3f             	and    $0x3f,%edx
    25b6:	c1 e0 06             	shl    $0x6,%eax
    25b9:	09 d0                	or     %edx,%eax
    25bb:	83 fe 01             	cmp    $0x1,%esi
    25be:	0f 84 7a ff ff ff    	je     253e <str_decode_reverse+0x12e>
    25c4:	8b 7d 08             	mov    0x8(%ebp),%edi
    25c7:	83 c3 02             	add    $0x2,%ebx
    25ca:	8a 0c 0f             	mov    (%edi,%ecx,1),%cl
    25cd:	88 ca                	mov    %cl,%dl
    25cf:	83 e2 c0             	and    $0xffffffc0,%edx
    25d2:	80 fa 80             	cmp    $0x80,%dl
    25d5:	0f 85 5e ff ff ff    	jne    2539 <str_decode_reverse+0x129>
    25db:	c1 e0 06             	shl    $0x6,%eax
    25de:	83 e1 3f             	and    $0x3f,%ecx
    25e1:	09 c8                	or     %ecx,%eax
    25e3:	83 fe 02             	cmp    $0x2,%esi
    25e6:	0f 84 52 ff ff ff    	je     253e <str_decode_reverse+0x12e>
    25ec:	8a 0c 1f             	mov    (%edi,%ebx,1),%cl
    25ef:	88 ca                	mov    %cl,%dl
    25f1:	83 e2 c0             	and    $0xffffffc0,%edx
    25f4:	80 fa 80             	cmp    $0x80,%dl
    25f7:	0f 85 3c ff ff ff    	jne    2539 <str_decode_reverse+0x129>
    25fd:	c1 e0 06             	shl    $0x6,%eax
    2600:	83 e1 3f             	and    $0x3f,%ecx
    2603:	09 c8                	or     %ecx,%eax
    2605:	e9 34 ff ff ff       	jmp    253e <str_decode_reverse+0x12e>
    260a:	8b 75 f0             	mov    -0x10(%ebp),%esi
    260d:	39 75 10             	cmp    %esi,0x10(%ebp)
    2610:	0f 82 38 ff ff ff    	jb     254e <str_decode_reverse+0x13e>
    2616:	89 f3                	mov    %esi,%ebx
    2618:	be 01 00 00 00       	mov    $0x1,%esi
    261d:	b9 05 00 00 00       	mov    $0x5,%ecx
    2622:	e9 58 ff ff ff       	jmp    257f <str_decode_reverse+0x16f>
    2627:	90                   	nop
    2628:	83 e0 7f             	and    $0x7f,%eax
    262b:	e9 0e ff ff ff       	jmp    253e <str_decode_reverse+0x12e>
    2630:	89 5d f0             	mov    %ebx,-0x10(%ebp)
    2633:	89 de                	mov    %ebx,%esi
    2635:	eb d6                	jmp    260d <str_decode_reverse+0x1fd>
    2637:	8b 5d f0             	mov    -0x10(%ebp),%ebx
    263a:	b1 e0                	mov    $0xe0,%cl
    263c:	e9 08 ff ff ff       	jmp    2549 <str_decode_reverse+0x139>
    2641:	8b 5d f0             	mov    -0x10(%ebp),%ebx
    2644:	e9 00 ff ff ff       	jmp    2549 <str_decode_reverse+0x139>
    2649:	89 f3                	mov    %esi,%ebx
    264b:	e9 f9 fe ff ff       	jmp    2549 <str_decode_reverse+0x139>
    2650:	89 75 f0             	mov    %esi,-0x10(%ebp)
    2653:	eb b8                	jmp    260d <str_decode_reverse+0x1fd>
    2655:	be 02 00 00 00       	mov    $0x2,%esi
    265a:	b9 04 00 00 00       	mov    $0x4,%ecx
    265f:	e9 1b ff ff ff       	jmp    257f <str_decode_reverse+0x16f>
    2664:	8d b6 00 00 00 00    	lea    0x0(%esi),%esi
    266a:	8d bf 00 00 00 00    	lea    0x0(%edi),%edi

00002670 <chr_encode>:
    2670:	55                   	push   %ebp
    2671:	89 e5                	mov    %esp,%ebp
    2673:	57                   	push   %edi
    2674:	56                   	push   %esi
    2675:	53                   	push   %ebx
    2676:	83 ec 08             	sub    $0x8,%esp
    2679:	8b 75 10             	mov    0x10(%ebp),%esi
    267c:	8b 5d 08             	mov    0x8(%ebp),%ebx
    267f:	8b 7d 0c             	mov    0xc(%ebp),%edi
    2682:	8b 06                	mov    (%esi),%eax
    2684:	3b 45 14             	cmp    0x14(%ebp),%eax
    2687:	0f 83 d7 00 00 00    	jae    2764 <chr_encode+0xf4>
    268d:	81 fb ff ff 10 00    	cmp    $0x10ffff,%ebx
    2693:	76 13                	jbe    26a8 <chr_encode+0x38>
    2695:	b8 f2 ff ff ff       	mov    $0xfffffff2,%eax
    269a:	5a                   	pop    %edx
    269b:	59                   	pop    %ecx
    269c:	5b                   	pop    %ebx
    269d:	5e                   	pop    %esi
    269e:	5f                   	pop    %edi
    269f:	5d                   	pop    %ebp
    26a0:	c3                   	ret    
    26a1:	8d b4 26 00 00 00 00 	lea    0x0(%esi,%eiz,1),%esi
    26a8:	f7 c3 80 ff ff ff    	test   $0xffffff80,%ebx
    26ae:	0f 84 84 00 00 00    	je     2738 <chr_encode+0xc8>
    26b4:	f7 c3 00 f8 ff ff    	test   $0xfffff800,%ebx
    26ba:	0f 84 90 00 00 00    	je     2750 <chr_encode+0xe0>
    26c0:	89 da                	mov    %ebx,%edx
    26c2:	81 e2 00 00 ff ff    	and    $0xffff0000,%edx
    26c8:	83 fa 01             	cmp    $0x1,%edx
    26cb:	19 c9                	sbb    %ecx,%ecx
    26cd:	83 e1 f0             	and    $0xfffffff0,%ecx
    26d0:	83 e9 10             	sub    $0x10,%ecx
    26d3:	83 fa 01             	cmp    $0x1,%edx
    26d6:	88 4d ee             	mov    %cl,-0x12(%ebp)
    26d9:	19 c9                	sbb    %ecx,%ecx
    26db:	83 e1 08             	and    $0x8,%ecx
    26de:	83 c1 07             	add    $0x7,%ecx
    26e1:	83 fa 01             	cmp    $0x1,%edx
    26e4:	19 d2                	sbb    %edx,%edx
    26e6:	88 4d ef             	mov    %cl,-0x11(%ebp)
    26e9:	83 c2 03             	add    $0x3,%edx
    26ec:	89 55 f0             	mov    %edx,-0x10(%ebp)
    26ef:	89 d1                	mov    %edx,%ecx
    26f1:	89 ca                	mov    %ecx,%edx
    26f3:	01 c2                	add    %eax,%edx
    26f5:	39 55 14             	cmp    %edx,0x14(%ebp)
    26f8:	76 6a                	jbe    2764 <chr_encode+0xf4>
    26fa:	89 ca                	mov    %ecx,%edx
    26fc:	8d 74 26 00          	lea    0x0(%esi,%eiz,1),%esi
    2700:	88 d9                	mov    %bl,%cl
    2702:	01 f8                	add    %edi,%eax
    2704:	c1 eb 06             	shr    $0x6,%ebx
    2707:	83 e1 3f             	and    $0x3f,%ecx
    270a:	83 c9 80             	or     $0xffffff80,%ecx
    270d:	88 0c 10             	mov    %cl,(%eax,%edx,1)
    2710:	4a                   	dec    %edx
    2711:	8b 06                	mov    (%esi),%eax
    2713:	75 eb                	jne    2700 <chr_encode+0x90>
    2715:	22 5d ef             	and    -0x11(%ebp),%bl
    2718:	0a 5d ee             	or     -0x12(%ebp),%bl
    271b:	88 1c 07             	mov    %bl,(%edi,%eax,1)
    271e:	8b 7d f0             	mov    -0x10(%ebp),%edi
    2721:	8b 06                	mov    (%esi),%eax
    2723:	8d 44 07 01          	lea    0x1(%edi,%eax,1),%eax
    2727:	89 06                	mov    %eax,(%esi)
    2729:	31 c0                	xor    %eax,%eax
    272b:	5a                   	pop    %edx
    272c:	59                   	pop    %ecx
    272d:	5b                   	pop    %ebx
    272e:	5e                   	pop    %esi
    272f:	5f                   	pop    %edi
    2730:	5d                   	pop    %ebp
    2731:	c3                   	ret    
    2732:	8d b6 00 00 00 00    	lea    0x0(%esi),%esi
    2738:	c6 45 ee 00          	movb   $0x0,-0x12(%ebp)
    273c:	c6 45 ef 7f          	movb   $0x7f,-0x11(%ebp)
    2740:	c7 45 f0 00 00 00 00 	movl   $0x0,-0x10(%ebp)
    2747:	eb cc                	jmp    2715 <chr_encode+0xa5>
    2749:	8d b4 26 00 00 00 00 	lea    0x0(%esi,%eiz,1),%esi
    2750:	c7 45 f0 01 00 00 00 	movl   $0x1,-0x10(%ebp)
    2757:	c6 45 ee c0          	movb   $0xc0,-0x12(%ebp)
    275b:	c6 45 ef 1f          	movb   $0x1f,-0x11(%ebp)
    275f:	8b 4d f0             	mov    -0x10(%ebp),%ecx
    2762:	eb 8d                	jmp    26f1 <chr_encode+0x81>
    2764:	b8 f0 ff ff ff       	mov    $0xfffffff0,%eax
    2769:	e9 2c ff ff ff       	jmp    269a <chr_encode+0x2a>
    276e:	66 90                	xchg   %ax,%ax

00002770 <str_size>:
    2770:	55                   	push   %ebp
    2771:	31 c0                	xor    %eax,%eax
    2773:	89 e5                	mov    %esp,%ebp
    2775:	8b 55 08             	mov    0x8(%ebp),%edx
    2778:	80 3a 00             	cmpb   $0x0,(%edx)
    277b:	74 0a                	je     2787 <str_size+0x17>
    277d:	8d 76 00             	lea    0x0(%esi),%esi
    2780:	40                   	inc    %eax
    2781:	80 3c 02 00          	cmpb   $0x0,(%edx,%eax,1)
    2785:	75 f9                	jne    2780 <str_size+0x10>
    2787:	5d                   	pop    %ebp
    2788:	c3                   	ret    
    2789:	8d b4 26 00 00 00 00 	lea    0x0(%esi,%eiz,1),%esi

00002790 <wstr_size>:
    2790:	55                   	push   %ebp
    2791:	31 c0                	xor    %eax,%eax
    2793:	89 e5                	mov    %esp,%ebp
    2795:	8b 55 08             	mov    0x8(%ebp),%edx
    2798:	8b 0a                	mov    (%edx),%ecx
    279a:	85 c9                	test   %ecx,%ecx
    279c:	74 0d                	je     27ab <wstr_size+0x1b>
    279e:	66 90                	xchg   %ax,%ax
    27a0:	40                   	inc    %eax
    27a1:	8b 0c 82             	mov    (%edx,%eax,4),%ecx
    27a4:	85 c9                	test   %ecx,%ecx
    27a6:	75 f8                	jne    27a0 <wstr_size+0x10>
    27a8:	c1 e0 02             	shl    $0x2,%eax
    27ab:	5d                   	pop    %ebp
    27ac:	c3                   	ret    
    27ad:	8d 76 00             	lea    0x0(%esi),%esi

000027b0 <str_lsize>:
    27b0:	55                   	push   %ebp
    27b1:	31 c0                	xor    %eax,%eax
    27b3:	89 e5                	mov    %esp,%ebp
    27b5:	57                   	push   %edi
    27b6:	56                   	push   %esi
    27b7:	53                   	push   %ebx
    27b8:	83 ec 08             	sub    $0x8,%esp
    27bb:	8b 55 0c             	mov    0xc(%ebp),%edx
    27be:	8b 7d 08             	mov    0x8(%ebp),%edi
    27c1:	85 d2                	test   %edx,%edx
    27c3:	74 5c                	je     2821 <str_lsize+0x71>
    27c5:	c7 45 f0 00 00 00 00 	movl   $0x0,-0x10(%ebp)
    27cc:	eb 1a                	jmp    27e8 <str_lsize+0x38>
    27ce:	66 90                	xchg   %ax,%ax
    27d0:	83 e2 7f             	and    $0x7f,%edx
    27d3:	89 f0                	mov    %esi,%eax
    27d5:	85 d2                	test   %edx,%edx
    27d7:	74 48                	je     2821 <str_lsize+0x71>
    27d9:	8b 5d f0             	mov    -0x10(%ebp),%ebx
    27dc:	43                   	inc    %ebx
    27dd:	89 5d f0             	mov    %ebx,-0x10(%ebp)
    27e0:	8b 75 f0             	mov    -0x10(%ebp),%esi
    27e3:	39 75 0c             	cmp    %esi,0xc(%ebp)
    27e6:	74 39                	je     2821 <str_lsize+0x71>
    27e8:	8a 14 07             	mov    (%edi,%eax,1),%dl
    27eb:	8d 70 01             	lea    0x1(%eax),%esi
    27ee:	84 d2                	test   %dl,%dl
    27f0:	79 de                	jns    27d0 <str_lsize+0x20>
    27f2:	88 d1                	mov    %dl,%cl
    27f4:	83 e1 e0             	and    $0xffffffe0,%ecx
    27f7:	80 f9 c0             	cmp    $0xc0,%cl
    27fa:	74 2c                	je     2828 <str_lsize+0x78>
    27fc:	88 d1                	mov    %dl,%cl
    27fe:	83 e1 f0             	and    $0xfffffff0,%ecx
    2801:	80 f9 e0             	cmp    $0xe0,%cl
    2804:	74 6e                	je     2874 <str_lsize+0xc4>
    2806:	88 d1                	mov    %dl,%cl
    2808:	83 e1 f8             	and    $0xfffffff8,%ecx
    280b:	80 f9 f0             	cmp    $0xf0,%cl
    280e:	74 70                	je     2880 <str_lsize+0xd0>
    2810:	8b 5d f0             	mov    -0x10(%ebp),%ebx
    2813:	89 f0                	mov    %esi,%eax
    2815:	43                   	inc    %ebx
    2816:	89 5d f0             	mov    %ebx,-0x10(%ebp)
    2819:	8b 75 f0             	mov    -0x10(%ebp),%esi
    281c:	39 75 0c             	cmp    %esi,0xc(%ebp)
    281f:	75 c7                	jne    27e8 <str_lsize+0x38>
    2821:	5a                   	pop    %edx
    2822:	59                   	pop    %ecx
    2823:	5b                   	pop    %ebx
    2824:	5e                   	pop    %esi
    2825:	5f                   	pop    %edi
    2826:	5d                   	pop    %ebp
    2827:	c3                   	ret    
    2828:	83 e2 1f             	and    $0x1f,%edx
    282b:	c7 45 ec 01 00 00 00 	movl   $0x1,-0x14(%ebp)
    2832:	8a 0c 37             	mov    (%edi,%esi,1),%cl
    2835:	83 c0 02             	add    $0x2,%eax
    2838:	88 cb                	mov    %cl,%bl
    283a:	83 e3 c0             	and    $0xffffffc0,%ebx
    283d:	80 fb 80             	cmp    $0x80,%bl
    2840:	75 97                	jne    27d9 <str_lsize+0x29>
    2842:	8b 5d ec             	mov    -0x14(%ebp),%ebx
    2845:	01 de                	add    %ebx,%esi
    2847:	eb 1a                	jmp    2863 <str_lsize+0xb3>
    2849:	8d b4 26 00 00 00 00 	lea    0x0(%esi,%eiz,1),%esi
    2850:	40                   	inc    %eax
    2851:	8a 4c 07 ff          	mov    -0x1(%edi,%eax,1),%cl
    2855:	88 cb                	mov    %cl,%bl
    2857:	83 e3 c0             	and    $0xffffffc0,%ebx
    285a:	80 fb 80             	cmp    $0x80,%bl
    285d:	0f 85 76 ff ff ff    	jne    27d9 <str_lsize+0x29>
    2863:	c1 e2 06             	shl    $0x6,%edx
    2866:	83 e1 3f             	and    $0x3f,%ecx
    2869:	09 ca                	or     %ecx,%edx
    286b:	39 f0                	cmp    %esi,%eax
    286d:	75 e1                	jne    2850 <str_lsize+0xa0>
    286f:	e9 61 ff ff ff       	jmp    27d5 <str_lsize+0x25>
    2874:	83 e2 0f             	and    $0xf,%edx
    2877:	c7 45 ec 02 00 00 00 	movl   $0x2,-0x14(%ebp)
    287e:	eb b2                	jmp    2832 <str_lsize+0x82>
    2880:	83 e2 07             	and    $0x7,%edx
    2883:	c7 45 ec 03 00 00 00 	movl   $0x3,-0x14(%ebp)
    288a:	eb a6                	jmp    2832 <str_lsize+0x82>
    288c:	8d 74 26 00          	lea    0x0(%esi,%eiz,1),%esi

00002890 <str_nsize>:
    2890:	55                   	push   %ebp
    2891:	31 c0                	xor    %eax,%eax
    2893:	89 e5                	mov    %esp,%ebp
    2895:	8b 55 08             	mov    0x8(%ebp),%edx
    2898:	8b 4d 0c             	mov    0xc(%ebp),%ecx
    289b:	80 3a 00             	cmpb   $0x0,(%edx)
    289e:	74 13                	je     28b3 <str_nsize+0x23>
    28a0:	85 c9                	test   %ecx,%ecx
    28a2:	75 08                	jne    28ac <str_nsize+0x1c>
    28a4:	eb 0d                	jmp    28b3 <str_nsize+0x23>
    28a6:	66 90                	xchg   %ax,%ax
    28a8:	39 c1                	cmp    %eax,%ecx
    28aa:	76 07                	jbe    28b3 <str_nsize+0x23>
    28ac:	40                   	inc    %eax
    28ad:	80 3c 02 00          	cmpb   $0x0,(%edx,%eax,1)
    28b1:	75 f5                	jne    28a8 <str_nsize+0x18>
    28b3:	5d                   	pop    %ebp
    28b4:	c3                   	ret    
    28b5:	8d 74 26 00          	lea    0x0(%esi,%eiz,1),%esi
    28b9:	8d bc 27 00 00 00 00 	lea    0x0(%edi,%eiz,1),%edi

000028c0 <wstr_nsize>:
    28c0:	55                   	push   %ebp
    28c1:	89 e5                	mov    %esp,%ebp
    28c3:	53                   	push   %ebx
    28c4:	8b 4d 0c             	mov    0xc(%ebp),%ecx
    28c7:	8b 5d 08             	mov    0x8(%ebp),%ebx
    28ca:	83 e1 fc             	and    $0xfffffffc,%ecx
    28cd:	74 26                	je     28f5 <wstr_nsize+0x35>
    28cf:	8b 03                	mov    (%ebx),%eax
    28d1:	85 c0                	test   %eax,%eax
    28d3:	74 20                	je     28f5 <wstr_nsize+0x35>
    28d5:	31 d2                	xor    %edx,%edx
    28d7:	eb 0d                	jmp    28e6 <wstr_nsize+0x26>
    28d9:	8d b4 26 00 00 00 00 	lea    0x0(%esi,%eiz,1),%esi
    28e0:	83 3c 93 00          	cmpl   $0x0,(%ebx,%edx,4)
    28e4:	74 0c                	je     28f2 <wstr_nsize+0x32>
    28e6:	42                   	inc    %edx
    28e7:	8d 04 95 00 00 00 00 	lea    0x0(,%edx,4),%eax
    28ee:	39 c1                	cmp    %eax,%ecx
    28f0:	77 ee                	ja     28e0 <wstr_nsize+0x20>
    28f2:	5b                   	pop    %ebx
    28f3:	5d                   	pop    %ebp
    28f4:	c3                   	ret    
    28f5:	31 c0                	xor    %eax,%eax
    28f7:	eb f9                	jmp    28f2 <wstr_nsize+0x32>
    28f9:	8d b4 26 00 00 00 00 	lea    0x0(%esi,%eiz,1),%esi

00002900 <wstr_lsize>:
    2900:	55                   	push   %ebp
    2901:	89 e5                	mov    %esp,%ebp
    2903:	53                   	push   %ebx
    2904:	8b 4d 0c             	mov    0xc(%ebp),%ecx
    2907:	8b 5d 08             	mov    0x8(%ebp),%ebx
    290a:	c1 e1 02             	shl    $0x2,%ecx
    290d:	74 26                	je     2935 <wstr_lsize+0x35>
    290f:	8b 03                	mov    (%ebx),%eax
    2911:	85 c0                	test   %eax,%eax
    2913:	74 20                	je     2935 <wstr_lsize+0x35>
    2915:	31 d2                	xor    %edx,%edx
    2917:	eb 0d                	jmp    2926 <wstr_lsize+0x26>
    2919:	8d b4 26 00 00 00 00 	lea    0x0(%esi,%eiz,1),%esi
    2920:	83 3c 93 00          	cmpl   $0x0,(%ebx,%edx,4)
    2924:	74 0c                	je     2932 <wstr_lsize+0x32>
    2926:	42                   	inc    %edx
    2927:	8d 04 95 00 00 00 00 	lea    0x0(,%edx,4),%eax
    292e:	39 c1                	cmp    %eax,%ecx
    2930:	77 ee                	ja     2920 <wstr_lsize+0x20>
    2932:	5b                   	pop    %ebx
    2933:	5d                   	pop    %ebp
    2934:	c3                   	ret    
    2935:	31 c0                	xor    %eax,%eax
    2937:	eb f9                	jmp    2932 <wstr_lsize+0x32>
    2939:	8d b4 26 00 00 00 00 	lea    0x0(%esi,%eiz,1),%esi

00002940 <str_length>:
    2940:	55                   	push   %ebp
    2941:	31 c9                	xor    %ecx,%ecx
    2943:	89 e5                	mov    %esp,%ebp
    2945:	57                   	push   %edi
    2946:	56                   	push   %esi
    2947:	53                   	push   %ebx
    2948:	83 ec 08             	sub    $0x8,%esp
    294b:	c7 45 ec 00 00 00 00 	movl   $0x0,-0x14(%ebp)
    2952:	8b 75 08             	mov    0x8(%ebp),%esi
    2955:	eb 17                	jmp    296e <str_length+0x2e>
    2957:	90                   	nop
    2958:	83 e0 7f             	and    $0x7f,%eax
    295b:	89 d9                	mov    %ebx,%ecx
    295d:	89 45 f0             	mov    %eax,-0x10(%ebp)
    2960:	8b 5d f0             	mov    -0x10(%ebp),%ebx
    2963:	85 db                	test   %ebx,%ebx
    2965:	74 33                	je     299a <str_length+0x5a>
    2967:	8b 7d ec             	mov    -0x14(%ebp),%edi
    296a:	47                   	inc    %edi
    296b:	89 7d ec             	mov    %edi,-0x14(%ebp)
    296e:	8a 04 0e             	mov    (%esi,%ecx,1),%al
    2971:	8d 59 01             	lea    0x1(%ecx),%ebx
    2974:	84 c0                	test   %al,%al
    2976:	79 e0                	jns    2958 <str_length+0x18>
    2978:	88 c2                	mov    %al,%dl
    297a:	83 e2 e0             	and    $0xffffffe0,%edx
    297d:	80 fa c0             	cmp    $0xc0,%dl
    2980:	74 22                	je     29a4 <str_length+0x64>
    2982:	88 c2                	mov    %al,%dl
    2984:	83 e2 f0             	and    $0xfffffff0,%edx
    2987:	80 fa e0             	cmp    $0xe0,%dl
    298a:	74 5f                	je     29eb <str_length+0xab>
    298c:	88 c2                	mov    %al,%dl
    298e:	83 e2 f8             	and    $0xfffffff8,%edx
    2991:	80 fa f0             	cmp    $0xf0,%dl
    2994:	74 62                	je     29f8 <str_length+0xb8>
    2996:	89 d9                	mov    %ebx,%ecx
    2998:	eb cd                	jmp    2967 <str_length+0x27>
    299a:	8b 45 ec             	mov    -0x14(%ebp),%eax
    299d:	5a                   	pop    %edx
    299e:	59                   	pop    %ecx
    299f:	5b                   	pop    %ebx
    29a0:	5e                   	pop    %esi
    29a1:	5f                   	pop    %edi
    29a2:	5d                   	pop    %ebp
    29a3:	c3                   	ret    
    29a4:	83 e0 1f             	and    $0x1f,%eax
    29a7:	bf 01 00 00 00       	mov    $0x1,%edi
    29ac:	89 45 f0             	mov    %eax,-0x10(%ebp)
    29af:	8a 14 1e             	mov    (%esi,%ebx,1),%dl
    29b2:	83 c1 02             	add    $0x2,%ecx
    29b5:	88 d0                	mov    %dl,%al
    29b7:	83 e0 c0             	and    $0xffffffc0,%eax
    29ba:	3c 80                	cmp    $0x80,%al
    29bc:	75 a9                	jne    2967 <str_length+0x27>
    29be:	01 df                	add    %ebx,%edi
    29c0:	8b 45 f0             	mov    -0x10(%ebp),%eax
    29c3:	eb 12                	jmp    29d7 <str_length+0x97>
    29c5:	8d 76 00             	lea    0x0(%esi),%esi
    29c8:	41                   	inc    %ecx
    29c9:	8a 54 0e ff          	mov    -0x1(%esi,%ecx,1),%dl
    29cd:	88 d3                	mov    %dl,%bl
    29cf:	83 e3 c0             	and    $0xffffffc0,%ebx
    29d2:	80 fb 80             	cmp    $0x80,%bl
    29d5:	75 90                	jne    2967 <str_length+0x27>
    29d7:	c1 e0 06             	shl    $0x6,%eax
    29da:	83 e2 3f             	and    $0x3f,%edx
    29dd:	09 d0                	or     %edx,%eax
    29df:	39 f9                	cmp    %edi,%ecx
    29e1:	75 e5                	jne    29c8 <str_length+0x88>
    29e3:	89 45 f0             	mov    %eax,-0x10(%ebp)
    29e6:	e9 75 ff ff ff       	jmp    2960 <str_length+0x20>
    29eb:	83 e0 0f             	and    $0xf,%eax
    29ee:	bf 02 00 00 00       	mov    $0x2,%edi
    29f3:	89 45 f0             	mov    %eax,-0x10(%ebp)
    29f6:	eb b7                	jmp    29af <str_length+0x6f>
    29f8:	83 e0 07             	and    $0x7,%eax
    29fb:	bf 03 00 00 00       	mov    $0x3,%edi
    2a00:	89 45 f0             	mov    %eax,-0x10(%ebp)
    2a03:	eb aa                	jmp    29af <str_length+0x6f>
    2a05:	8d 74 26 00          	lea    0x0(%esi,%eiz,1),%esi
    2a09:	8d bc 27 00 00 00 00 	lea    0x0(%edi,%eiz,1),%edi

00002a10 <wstr_length>:
    2a10:	55                   	push   %ebp
    2a11:	31 c0                	xor    %eax,%eax
    2a13:	89 e5                	mov    %esp,%ebp
    2a15:	8b 55 08             	mov    0x8(%ebp),%edx
    2a18:	8b 0a                	mov    (%edx),%ecx
    2a1a:	85 c9                	test   %ecx,%ecx
    2a1c:	74 0a                	je     2a28 <wstr_length+0x18>
    2a1e:	66 90                	xchg   %ax,%ax
    2a20:	40                   	inc    %eax
    2a21:	8b 0c 82             	mov    (%edx,%eax,4),%ecx
    2a24:	85 c9                	test   %ecx,%ecx
    2a26:	75 f8                	jne    2a20 <wstr_length+0x10>
    2a28:	5d                   	pop    %ebp
    2a29:	c3                   	ret    
    2a2a:	8d b6 00 00 00 00    	lea    0x0(%esi),%esi

00002a30 <str_nlength>:
    2a30:	55                   	push   %ebp
    2a31:	89 e5                	mov    %esp,%ebp
    2a33:	57                   	push   %edi
    2a34:	56                   	push   %esi
    2a35:	53                   	push   %ebx
    2a36:	56                   	push   %esi
    2a37:	c7 45 f0 00 00 00 00 	movl   $0x0,-0x10(%ebp)
    2a3e:	8b 7d 0c             	mov    0xc(%ebp),%edi
    2a41:	8b 75 08             	mov    0x8(%ebp),%esi
    2a44:	85 ff                	test   %edi,%edi
    2a46:	74 29                	je     2a71 <str_nlength+0x41>
    2a48:	31 c9                	xor    %ecx,%ecx
    2a4a:	bb 01 00 00 00       	mov    $0x1,%ebx
    2a4f:	90                   	nop
    2a50:	8a 04 0e             	mov    (%esi,%ecx,1),%al
    2a53:	84 c0                	test   %al,%al
    2a55:	78 29                	js     2a80 <str_nlength+0x50>
    2a57:	39 5d 0c             	cmp    %ebx,0xc(%ebp)
    2a5a:	0f 83 a1 00 00 00    	jae    2b01 <str_nlength+0xd1>
    2a60:	89 d9                	mov    %ebx,%ecx
    2a62:	8b 5d f0             	mov    -0x10(%ebp),%ebx
    2a65:	43                   	inc    %ebx
    2a66:	89 5d f0             	mov    %ebx,-0x10(%ebp)
    2a69:	8d 59 01             	lea    0x1(%ecx),%ebx
    2a6c:	39 5d 0c             	cmp    %ebx,0xc(%ebp)
    2a6f:	73 df                	jae    2a50 <str_nlength+0x20>
    2a71:	8b 45 f0             	mov    -0x10(%ebp),%eax
    2a74:	5a                   	pop    %edx
    2a75:	5b                   	pop    %ebx
    2a76:	5e                   	pop    %esi
    2a77:	5f                   	pop    %edi
    2a78:	5d                   	pop    %ebp
    2a79:	c3                   	ret    
    2a7a:	8d b6 00 00 00 00    	lea    0x0(%esi),%esi
    2a80:	88 c2                	mov    %al,%dl
    2a82:	83 e2 e0             	and    $0xffffffe0,%edx
    2a85:	80 fa c0             	cmp    $0xc0,%dl
    2a88:	74 1e                	je     2aa8 <str_nlength+0x78>
    2a8a:	88 c2                	mov    %al,%dl
    2a8c:	83 e2 f0             	and    $0xfffffff0,%edx
    2a8f:	80 fa e0             	cmp    $0xe0,%dl
    2a92:	74 64                	je     2af8 <str_nlength+0xc8>
    2a94:	88 c2                	mov    %al,%dl
    2a96:	83 e2 f8             	and    $0xfffffff8,%edx
    2a99:	80 fa f0             	cmp    $0xf0,%dl
    2a9c:	75 c2                	jne    2a60 <str_nlength+0x30>
    2a9e:	b2 07                	mov    $0x7,%dl
    2aa0:	bf 03 00 00 00       	mov    $0x3,%edi
    2aa5:	eb 08                	jmp    2aaf <str_nlength+0x7f>
    2aa7:	90                   	nop
    2aa8:	b2 1f                	mov    $0x1f,%dl
    2aaa:	bf 01 00 00 00       	mov    $0x1,%edi
    2aaf:	01 df                	add    %ebx,%edi
    2ab1:	39 7d 0c             	cmp    %edi,0xc(%ebp)
    2ab4:	72 aa                	jb     2a60 <str_nlength+0x30>
    2ab6:	21 d0                	and    %edx,%eax
    2ab8:	8a 14 1e             	mov    (%esi,%ebx,1),%dl
    2abb:	8d 4b 01             	lea    0x1(%ebx),%ecx
    2abe:	88 d3                	mov    %dl,%bl
    2ac0:	83 e3 c0             	and    $0xffffffc0,%ebx
    2ac3:	25 ff 00 00 00       	and    $0xff,%eax
    2ac8:	80 fb 80             	cmp    $0x80,%bl
    2acb:	74 12                	je     2adf <str_nlength+0xaf>
    2acd:	eb 93                	jmp    2a62 <str_nlength+0x32>
    2acf:	90                   	nop
    2ad0:	41                   	inc    %ecx
    2ad1:	8a 54 0e ff          	mov    -0x1(%esi,%ecx,1),%dl
    2ad5:	88 d3                	mov    %dl,%bl
    2ad7:	83 e3 c0             	and    $0xffffffc0,%ebx
    2ada:	80 fb 80             	cmp    $0x80,%bl
    2add:	75 83                	jne    2a62 <str_nlength+0x32>
    2adf:	c1 e0 06             	shl    $0x6,%eax
    2ae2:	83 e2 3f             	and    $0x3f,%edx
    2ae5:	09 d0                	or     %edx,%eax
    2ae7:	39 f9                	cmp    %edi,%ecx
    2ae9:	75 e5                	jne    2ad0 <str_nlength+0xa0>
    2aeb:	85 c0                	test   %eax,%eax
    2aed:	0f 85 6f ff ff ff    	jne    2a62 <str_nlength+0x32>
    2af3:	e9 79 ff ff ff       	jmp    2a71 <str_nlength+0x41>
    2af8:	b2 0f                	mov    $0xf,%dl
    2afa:	bf 02 00 00 00       	mov    $0x2,%edi
    2aff:	eb ae                	jmp    2aaf <str_nlength+0x7f>
    2b01:	83 e0 7f             	and    $0x7f,%eax
    2b04:	89 d9                	mov    %ebx,%ecx
    2b06:	eb e3                	jmp    2aeb <str_nlength+0xbb>
    2b08:	90                   	nop
    2b09:	8d b4 26 00 00 00 00 	lea    0x0(%esi,%eiz,1),%esi

00002b10 <wstr_nlength>:
    2b10:	55                   	push   %ebp
    2b11:	31 c0                	xor    %eax,%eax
    2b13:	89 e5                	mov    %esp,%ebp
    2b15:	53                   	push   %ebx
    2b16:	8b 4d 0c             	mov    0xc(%ebp),%ecx
    2b19:	8b 5d 08             	mov    0x8(%ebp),%ebx
    2b1c:	83 e1 fc             	and    $0xfffffffc,%ecx
    2b1f:	74 22                	je     2b43 <wstr_nlength+0x33>
    2b21:	8b 13                	mov    (%ebx),%edx
    2b23:	85 d2                	test   %edx,%edx
    2b25:	75 10                	jne    2b37 <wstr_nlength+0x27>
    2b27:	eb 1a                	jmp    2b43 <wstr_nlength+0x33>
    2b29:	8d b4 26 00 00 00 00 	lea    0x0(%esi,%eiz,1),%esi
    2b30:	8b 14 83             	mov    (%ebx,%eax,4),%edx
    2b33:	85 d2                	test   %edx,%edx
    2b35:	74 0c                	je     2b43 <wstr_nlength+0x33>
    2b37:	40                   	inc    %eax
    2b38:	8d 14 85 00 00 00 00 	lea    0x0(,%eax,4),%edx
    2b3f:	39 ca                	cmp    %ecx,%edx
    2b41:	72 ed                	jb     2b30 <wstr_nlength+0x20>
    2b43:	5b                   	pop    %ebx
    2b44:	5d                   	pop    %ebp
    2b45:	c3                   	ret    
    2b46:	8d 76 00             	lea    0x0(%esi),%esi
    2b49:	8d bc 27 00 00 00 00 	lea    0x0(%edi,%eiz,1),%edi

00002b50 <chr_width>:
    2b50:	55                   	push   %ebp
    2b51:	b8 01 00 00 00       	mov    $0x1,%eax
    2b56:	89 e5                	mov    %esp,%ebp
    2b58:	5d                   	pop    %ebp
    2b59:	c3                   	ret    
    2b5a:	8d b6 00 00 00 00    	lea    0x0(%esi),%esi

00002b60 <str_width>:
    2b60:	55                   	push   %ebp
    2b61:	31 c9                	xor    %ecx,%ecx
    2b63:	89 e5                	mov    %esp,%ebp
    2b65:	57                   	push   %edi
    2b66:	56                   	push   %esi
    2b67:	53                   	push   %ebx
    2b68:	83 ec 08             	sub    $0x8,%esp
    2b6b:	c7 45 ec 00 00 00 00 	movl   $0x0,-0x14(%ebp)
    2b72:	8b 75 08             	mov    0x8(%ebp),%esi
    2b75:	eb 17                	jmp    2b8e <str_width+0x2e>
    2b77:	90                   	nop
    2b78:	83 e0 7f             	and    $0x7f,%eax
    2b7b:	89 d9                	mov    %ebx,%ecx
    2b7d:	89 45 f0             	mov    %eax,-0x10(%ebp)
    2b80:	8b 5d f0             	mov    -0x10(%ebp),%ebx
    2b83:	85 db                	test   %ebx,%ebx
    2b85:	74 33                	je     2bba <str_width+0x5a>
    2b87:	8b 7d ec             	mov    -0x14(%ebp),%edi
    2b8a:	47                   	inc    %edi
    2b8b:	89 7d ec             	mov    %edi,-0x14(%ebp)
    2b8e:	8a 04 0e             	mov    (%esi,%ecx,1),%al
    2b91:	8d 59 01             	lea    0x1(%ecx),%ebx
    2b94:	84 c0                	test   %al,%al
    2b96:	79 e0                	jns    2b78 <str_width+0x18>
    2b98:	88 c2                	mov    %al,%dl
    2b9a:	83 e2 e0             	and    $0xffffffe0,%edx
    2b9d:	80 fa c0             	cmp    $0xc0,%dl
    2ba0:	74 22                	je     2bc4 <str_width+0x64>
    2ba2:	88 c2                	mov    %al,%dl
    2ba4:	83 e2 f0             	and    $0xfffffff0,%edx
    2ba7:	80 fa e0             	cmp    $0xe0,%dl
    2baa:	74 5f                	je     2c0b <str_width+0xab>
    2bac:	88 c2                	mov    %al,%dl
    2bae:	83 e2 f8             	and    $0xfffffff8,%edx
    2bb1:	80 fa f0             	cmp    $0xf0,%dl
    2bb4:	74 62                	je     2c18 <str_width+0xb8>
    2bb6:	89 d9                	mov    %ebx,%ecx
    2bb8:	eb cd                	jmp    2b87 <str_width+0x27>
    2bba:	8b 45 ec             	mov    -0x14(%ebp),%eax
    2bbd:	5a                   	pop    %edx
    2bbe:	59                   	pop    %ecx
    2bbf:	5b                   	pop    %ebx
    2bc0:	5e                   	pop    %esi
    2bc1:	5f                   	pop    %edi
    2bc2:	5d                   	pop    %ebp
    2bc3:	c3                   	ret    
    2bc4:	83 e0 1f             	and    $0x1f,%eax
    2bc7:	bf 01 00 00 00       	mov    $0x1,%edi
    2bcc:	89 45 f0             	mov    %eax,-0x10(%ebp)
    2bcf:	8a 14 1e             	mov    (%esi,%ebx,1),%dl
    2bd2:	83 c1 02             	add    $0x2,%ecx
    2bd5:	88 d0                	mov    %dl,%al
    2bd7:	83 e0 c0             	and    $0xffffffc0,%eax
    2bda:	3c 80                	cmp    $0x80,%al
    2bdc:	75 a9                	jne    2b87 <str_width+0x27>
    2bde:	01 df                	add    %ebx,%edi
    2be0:	8b 45 f0             	mov    -0x10(%ebp),%eax
    2be3:	eb 12                	jmp    2bf7 <str_width+0x97>
    2be5:	8d 76 00             	lea    0x0(%esi),%esi
    2be8:	41                   	inc    %ecx
    2be9:	8a 54 0e ff          	mov    -0x1(%esi,%ecx,1),%dl
    2bed:	88 d3                	mov    %dl,%bl
    2bef:	83 e3 c0             	and    $0xffffffc0,%ebx
    2bf2:	80 fb 80             	cmp    $0x80,%bl
    2bf5:	75 90                	jne    2b87 <str_width+0x27>
    2bf7:	c1 e0 06             	shl    $0x6,%eax
    2bfa:	83 e2 3f             	and    $0x3f,%edx
    2bfd:	09 d0                	or     %edx,%eax
    2bff:	39 f9                	cmp    %edi,%ecx
    2c01:	75 e5                	jne    2be8 <str_width+0x88>
    2c03:	89 45 f0             	mov    %eax,-0x10(%ebp)
    2c06:	e9 75 ff ff ff       	jmp    2b80 <str_width+0x20>
    2c0b:	83 e0 0f             	and    $0xf,%eax
    2c0e:	bf 02 00 00 00       	mov    $0x2,%edi
    2c13:	89 45 f0             	mov    %eax,-0x10(%ebp)
    2c16:	eb b7                	jmp    2bcf <str_width+0x6f>
    2c18:	83 e0 07             	and    $0x7,%eax
    2c1b:	bf 03 00 00 00       	mov    $0x3,%edi
    2c20:	89 45 f0             	mov    %eax,-0x10(%ebp)
    2c23:	eb aa                	jmp    2bcf <str_width+0x6f>
    2c25:	8d 74 26 00          	lea    0x0(%esi,%eiz,1),%esi
    2c29:	8d bc 27 00 00 00 00 	lea    0x0(%edi,%eiz,1),%edi

00002c30 <ascii_check>:
    2c30:	55                   	push   %ebp
    2c31:	89 e5                	mov    %esp,%ebp
    2c33:	83 7d 08 7f          	cmpl   $0x7f,0x8(%ebp)
    2c37:	5d                   	pop    %ebp
    2c38:	0f 96 c0             	setbe  %al
    2c3b:	c3                   	ret    
    2c3c:	8d 74 26 00          	lea    0x0(%esi,%eiz,1),%esi

00002c40 <chr_check>:
    2c40:	55                   	push   %ebp
    2c41:	89 e5                	mov    %esp,%ebp
    2c43:	81 7d 08 ff ff 10 00 	cmpl   $0x10ffff,0x8(%ebp)
    2c4a:	5d                   	pop    %ebp
    2c4b:	0f 96 c0             	setbe  %al
    2c4e:	c3                   	ret    
    2c4f:	90                   	nop

00002c50 <str_cmp>:
    2c50:	55                   	push   %ebp
    2c51:	89 e5                	mov    %esp,%ebp
    2c53:	57                   	push   %edi
    2c54:	56                   	push   %esi
    2c55:	53                   	push   %ebx
    2c56:	83 ec 08             	sub    $0x8,%esp
    2c59:	31 f6                	xor    %esi,%esi
    2c5b:	31 ff                	xor    %edi,%edi
    2c5d:	eb 3c                	jmp    2c9b <str_cmp+0x4b>
    2c5f:	90                   	nop
    2c60:	83 e3 7f             	and    $0x7f,%ebx
    2c63:	89 cf                	mov    %ecx,%edi
    2c65:	8d 46 01             	lea    0x1(%esi),%eax
    2c68:	89 45 f0             	mov    %eax,-0x10(%ebp)
    2c6b:	8b 45 0c             	mov    0xc(%ebp),%eax
    2c6e:	8a 14 30             	mov    (%eax,%esi,1),%dl
    2c71:	84 d2                	test   %dl,%dl
    2c73:	78 73                	js     2ce8 <str_cmp+0x98>
    2c75:	89 d0                	mov    %edx,%eax
    2c77:	8b 75 f0             	mov    -0x10(%ebp),%esi
    2c7a:	83 e0 7f             	and    $0x7f,%eax
    2c7d:	39 d8                	cmp    %ebx,%eax
    2c7f:	0f 8f 9a 00 00 00    	jg     2d1f <str_cmp+0xcf>
    2c85:	0f 8c 94 01 00 00    	jl     2e1f <str_cmp+0x1cf>
    2c8b:	85 db                	test   %ebx,%ebx
    2c8d:	0f 84 98 01 00 00    	je     2e2b <str_cmp+0x1db>
    2c93:	85 c0                	test   %eax,%eax
    2c95:	0f 84 90 01 00 00    	je     2e2b <str_cmp+0x1db>
    2c9b:	8b 45 08             	mov    0x8(%ebp),%eax
    2c9e:	8d 4f 01             	lea    0x1(%edi),%ecx
    2ca1:	8a 1c 38             	mov    (%eax,%edi,1),%bl
    2ca4:	84 db                	test   %bl,%bl
    2ca6:	79 b8                	jns    2c60 <str_cmp+0x10>
    2ca8:	88 da                	mov    %bl,%dl
    2caa:	83 e2 e0             	and    $0xffffffe0,%edx
    2cad:	80 fa c0             	cmp    $0xc0,%dl
    2cb0:	74 77                	je     2d29 <str_cmp+0xd9>
    2cb2:	88 da                	mov    %bl,%dl
    2cb4:	83 e2 f0             	and    $0xfffffff0,%edx
    2cb7:	80 fa e0             	cmp    $0xe0,%dl
    2cba:	0f 84 38 01 00 00    	je     2df8 <str_cmp+0x1a8>
    2cc0:	88 da                	mov    %bl,%dl
    2cc2:	83 e2 f8             	and    $0xfffffff8,%edx
    2cc5:	80 fa f0             	cmp    $0xf0,%dl
    2cc8:	0f 84 74 01 00 00    	je     2e42 <str_cmp+0x1f2>
    2cce:	8d 46 01             	lea    0x1(%esi),%eax
    2cd1:	89 cf                	mov    %ecx,%edi
    2cd3:	89 45 f0             	mov    %eax,-0x10(%ebp)
    2cd6:	8b 45 0c             	mov    0xc(%ebp),%eax
    2cd9:	bb 3f 00 00 00       	mov    $0x3f,%ebx
    2cde:	8a 14 30             	mov    (%eax,%esi,1),%dl
    2ce1:	84 d2                	test   %dl,%dl
    2ce3:	79 90                	jns    2c75 <str_cmp+0x25>
    2ce5:	8d 76 00             	lea    0x0(%esi),%esi
    2ce8:	88 d0                	mov    %dl,%al
    2cea:	83 e0 e0             	and    $0xffffffe0,%eax
    2ced:	3c c0                	cmp    $0xc0,%al
    2cef:	0f 84 90 00 00 00    	je     2d85 <str_cmp+0x135>
    2cf5:	88 d0                	mov    %dl,%al
    2cf7:	83 e0 f0             	and    $0xfffffff0,%eax
    2cfa:	3c e0                	cmp    $0xe0,%al
    2cfc:	0f 84 05 01 00 00    	je     2e07 <str_cmp+0x1b7>
    2d02:	88 d0                	mov    %dl,%al
    2d04:	83 e0 f8             	and    $0xfffffff8,%eax
    2d07:	3c f0                	cmp    $0xf0,%al
    2d09:	0f 84 25 01 00 00    	je     2e34 <str_cmp+0x1e4>
    2d0f:	b8 3f 00 00 00       	mov    $0x3f,%eax
    2d14:	8b 75 f0             	mov    -0x10(%ebp),%esi
    2d17:	39 d8                	cmp    %ebx,%eax
    2d19:	0f 8e 66 ff ff ff    	jle    2c85 <str_cmp+0x35>
    2d1f:	5a                   	pop    %edx
    2d20:	83 c8 ff             	or     $0xffffffff,%eax
    2d23:	59                   	pop    %ecx
    2d24:	5b                   	pop    %ebx
    2d25:	5e                   	pop    %esi
    2d26:	5f                   	pop    %edi
    2d27:	5d                   	pop    %ebp
    2d28:	c3                   	ret    
    2d29:	83 e3 1f             	and    $0x1f,%ebx
    2d2c:	c7 45 f0 01 00 00 00 	movl   $0x1,-0x10(%ebp)
    2d33:	8a 04 08             	mov    (%eax,%ecx,1),%al
    2d36:	83 c7 02             	add    $0x2,%edi
    2d39:	88 c2                	mov    %al,%dl
    2d3b:	83 e2 c0             	and    $0xffffffc0,%edx
    2d3e:	80 fa 80             	cmp    $0x80,%dl
    2d41:	75 38                	jne    2d7b <str_cmp+0x12b>
    2d43:	8b 55 f0             	mov    -0x10(%ebp),%edx
    2d46:	89 75 f0             	mov    %esi,-0x10(%ebp)
    2d49:	01 d1                	add    %edx,%ecx
    2d4b:	8b 75 08             	mov    0x8(%ebp),%esi
    2d4e:	eb 0f                	jmp    2d5f <str_cmp+0x10f>
    2d50:	47                   	inc    %edi
    2d51:	8a 44 3e ff          	mov    -0x1(%esi,%edi,1),%al
    2d55:	88 c2                	mov    %al,%dl
    2d57:	83 e2 c0             	and    $0xffffffc0,%edx
    2d5a:	80 fa 80             	cmp    $0x80,%dl
    2d5d:	75 19                	jne    2d78 <str_cmp+0x128>
    2d5f:	c1 e3 06             	shl    $0x6,%ebx
    2d62:	83 e0 3f             	and    $0x3f,%eax
    2d65:	09 c3                	or     %eax,%ebx
    2d67:	39 cf                	cmp    %ecx,%edi
    2d69:	75 e5                	jne    2d50 <str_cmp+0x100>
    2d6b:	8b 75 f0             	mov    -0x10(%ebp),%esi
    2d6e:	e9 f2 fe ff ff       	jmp    2c65 <str_cmp+0x15>
    2d73:	90                   	nop
    2d74:	8d 74 26 00          	lea    0x0(%esi,%eiz,1),%esi
    2d78:	8b 75 f0             	mov    -0x10(%ebp),%esi
    2d7b:	bb 3f 00 00 00       	mov    $0x3f,%ebx
    2d80:	e9 e0 fe ff ff       	jmp    2c65 <str_cmp+0x15>
    2d85:	b0 1f                	mov    $0x1f,%al
    2d87:	c7 45 ec 01 00 00 00 	movl   $0x1,-0x14(%ebp)
    2d8e:	21 d0                	and    %edx,%eax
    2d90:	8b 4d 0c             	mov    0xc(%ebp),%ecx
    2d93:	8b 55 f0             	mov    -0x10(%ebp),%edx
    2d96:	25 ff 00 00 00       	and    $0xff,%eax
    2d9b:	83 c6 02             	add    $0x2,%esi
    2d9e:	8a 14 11             	mov    (%ecx,%edx,1),%dl
    2da1:	88 d1                	mov    %dl,%cl
    2da3:	83 e1 c0             	and    $0xffffffc0,%ecx
    2da6:	80 f9 80             	cmp    $0x80,%cl
    2da9:	75 6a                	jne    2e15 <str_cmp+0x1c5>
    2dab:	8b 4d f0             	mov    -0x10(%ebp),%ecx
    2dae:	89 7d f0             	mov    %edi,-0x10(%ebp)
    2db1:	03 4d ec             	add    -0x14(%ebp),%ecx
    2db4:	8b 7d 0c             	mov    0xc(%ebp),%edi
    2db7:	89 5d ec             	mov    %ebx,-0x14(%ebp)
    2dba:	89 cb                	mov    %ecx,%ebx
    2dbc:	eb 11                	jmp    2dcf <str_cmp+0x17f>
    2dbe:	66 90                	xchg   %ax,%ax
    2dc0:	46                   	inc    %esi
    2dc1:	8a 54 37 ff          	mov    -0x1(%edi,%esi,1),%dl
    2dc5:	88 d1                	mov    %dl,%cl
    2dc7:	83 e1 c0             	and    $0xffffffc0,%ecx
    2dca:	80 f9 80             	cmp    $0x80,%cl
    2dcd:	75 19                	jne    2de8 <str_cmp+0x198>
    2dcf:	c1 e0 06             	shl    $0x6,%eax
    2dd2:	83 e2 3f             	and    $0x3f,%edx
    2dd5:	09 d0                	or     %edx,%eax
    2dd7:	39 de                	cmp    %ebx,%esi
    2dd9:	75 e5                	jne    2dc0 <str_cmp+0x170>
    2ddb:	8b 7d f0             	mov    -0x10(%ebp),%edi
    2dde:	8b 5d ec             	mov    -0x14(%ebp),%ebx
    2de1:	e9 97 fe ff ff       	jmp    2c7d <str_cmp+0x2d>
    2de6:	66 90                	xchg   %ax,%ax
    2de8:	8b 7d f0             	mov    -0x10(%ebp),%edi
    2deb:	8b 5d ec             	mov    -0x14(%ebp),%ebx
    2dee:	b8 3f 00 00 00       	mov    $0x3f,%eax
    2df3:	e9 85 fe ff ff       	jmp    2c7d <str_cmp+0x2d>
    2df8:	83 e3 0f             	and    $0xf,%ebx
    2dfb:	c7 45 f0 02 00 00 00 	movl   $0x2,-0x10(%ebp)
    2e02:	e9 2c ff ff ff       	jmp    2d33 <str_cmp+0xe3>
    2e07:	b0 0f                	mov    $0xf,%al
    2e09:	c7 45 ec 02 00 00 00 	movl   $0x2,-0x14(%ebp)
    2e10:	e9 79 ff ff ff       	jmp    2d8e <str_cmp+0x13e>
    2e15:	b8 3f 00 00 00       	mov    $0x3f,%eax
    2e1a:	e9 5e fe ff ff       	jmp    2c7d <str_cmp+0x2d>
    2e1f:	5a                   	pop    %edx
    2e20:	b8 01 00 00 00       	mov    $0x1,%eax
    2e25:	59                   	pop    %ecx
    2e26:	5b                   	pop    %ebx
    2e27:	5e                   	pop    %esi
    2e28:	5f                   	pop    %edi
    2e29:	5d                   	pop    %ebp
    2e2a:	c3                   	ret    
    2e2b:	5a                   	pop    %edx
    2e2c:	31 c0                	xor    %eax,%eax
    2e2e:	59                   	pop    %ecx
    2e2f:	5b                   	pop    %ebx
    2e30:	5e                   	pop    %esi
    2e31:	5f                   	pop    %edi
    2e32:	5d                   	pop    %ebp
    2e33:	c3                   	ret    
    2e34:	b0 07                	mov    $0x7,%al
    2e36:	c7 45 ec 03 00 00 00 	movl   $0x3,-0x14(%ebp)
    2e3d:	e9 4c ff ff ff       	jmp    2d8e <str_cmp+0x13e>
    2e42:	83 e3 07             	and    $0x7,%ebx
    2e45:	c7 45 f0 03 00 00 00 	movl   $0x3,-0x10(%ebp)
    2e4c:	e9 e2 fe ff ff       	jmp    2d33 <str_cmp+0xe3>
    2e51:	eb 0d                	jmp    2e60 <str_lcmp>
    2e53:	90                   	nop
    2e54:	90                   	nop
    2e55:	90                   	nop
    2e56:	90                   	nop
    2e57:	90                   	nop
    2e58:	90                   	nop
    2e59:	90                   	nop
    2e5a:	90                   	nop
    2e5b:	90                   	nop
    2e5c:	90                   	nop
    2e5d:	90                   	nop
    2e5e:	90                   	nop
    2e5f:	90                   	nop

00002e60 <str_lcmp>:
    2e60:	55                   	push   %ebp
    2e61:	89 e5                	mov    %esp,%ebp
    2e63:	57                   	push   %edi
    2e64:	56                   	push   %esi
    2e65:	53                   	push   %ebx
    2e66:	83 ec 0c             	sub    $0xc,%esp
    2e69:	8b 4d 10             	mov    0x10(%ebp),%ecx
    2e6c:	85 c9                	test   %ecx,%ecx
    2e6e:	0f 84 e6 01 00 00    	je     305a <str_lcmp+0x1fa>
    2e74:	31 ff                	xor    %edi,%edi
    2e76:	31 f6                	xor    %esi,%esi
    2e78:	c7 45 ec 00 00 00 00 	movl   $0x0,-0x14(%ebp)
    2e7f:	eb 57                	jmp    2ed8 <str_lcmp+0x78>
    2e81:	8d b4 26 00 00 00 00 	lea    0x0(%esi,%eiz,1),%esi
    2e88:	83 e3 7f             	and    $0x7f,%ebx
    2e8b:	89 ce                	mov    %ecx,%esi
    2e8d:	8d 47 01             	lea    0x1(%edi),%eax
    2e90:	89 45 f0             	mov    %eax,-0x10(%ebp)
    2e93:	8b 45 0c             	mov    0xc(%ebp),%eax
    2e96:	8a 04 38             	mov    (%eax,%edi,1),%al
    2e99:	84 c0                	test   %al,%al
    2e9b:	0f 88 87 00 00 00    	js     2f28 <str_lcmp+0xc8>
    2ea1:	83 e0 7f             	and    $0x7f,%eax
    2ea4:	8b 7d f0             	mov    -0x10(%ebp),%edi
    2ea7:	39 d8                	cmp    %ebx,%eax
    2ea9:	0f 8f b3 00 00 00    	jg     2f62 <str_lcmp+0x102>
    2eaf:	0f 8c d6 01 00 00    	jl     308b <str_lcmp+0x22b>
    2eb5:	85 db                	test   %ebx,%ebx
    2eb7:	0f 84 9d 01 00 00    	je     305a <str_lcmp+0x1fa>
    2ebd:	85 c0                	test   %eax,%eax
    2ebf:	0f 84 95 01 00 00    	je     305a <str_lcmp+0x1fa>
    2ec5:	8b 45 ec             	mov    -0x14(%ebp),%eax
    2ec8:	40                   	inc    %eax
    2ec9:	89 45 ec             	mov    %eax,-0x14(%ebp)
    2ecc:	8b 45 ec             	mov    -0x14(%ebp),%eax
    2ecf:	39 45 10             	cmp    %eax,0x10(%ebp)
    2ed2:	0f 84 82 01 00 00    	je     305a <str_lcmp+0x1fa>
    2ed8:	8b 45 08             	mov    0x8(%ebp),%eax
    2edb:	8d 4e 01             	lea    0x1(%esi),%ecx
    2ede:	8a 1c 30             	mov    (%eax,%esi,1),%bl
    2ee1:	84 db                	test   %bl,%bl
    2ee3:	79 a3                	jns    2e88 <str_lcmp+0x28>
    2ee5:	88 da                	mov    %bl,%dl
    2ee7:	83 e2 e0             	and    $0xffffffe0,%edx
    2eea:	80 fa c0             	cmp    $0xc0,%dl
    2eed:	74 7e                	je     2f6d <str_lcmp+0x10d>
    2eef:	88 da                	mov    %bl,%dl
    2ef1:	83 e2 f0             	and    $0xfffffff0,%edx
    2ef4:	80 fa e0             	cmp    $0xe0,%dl
    2ef7:	0f 84 4e 01 00 00    	je     304b <str_lcmp+0x1eb>
    2efd:	88 da                	mov    %bl,%dl
    2eff:	83 e2 f8             	and    $0xfffffff8,%edx
    2f02:	80 fa f0             	cmp    $0xf0,%dl
    2f05:	0f 84 71 01 00 00    	je     307c <str_lcmp+0x21c>
    2f0b:	8d 47 01             	lea    0x1(%edi),%eax
    2f0e:	89 ce                	mov    %ecx,%esi
    2f10:	89 45 f0             	mov    %eax,-0x10(%ebp)
    2f13:	8b 45 0c             	mov    0xc(%ebp),%eax
    2f16:	bb 3f 00 00 00       	mov    $0x3f,%ebx
    2f1b:	8a 04 38             	mov    (%eax,%edi,1),%al
    2f1e:	84 c0                	test   %al,%al
    2f20:	0f 89 7b ff ff ff    	jns    2ea1 <str_lcmp+0x41>
    2f26:	66 90                	xchg   %ax,%ax
    2f28:	88 c2                	mov    %al,%dl
    2f2a:	83 e2 e0             	and    $0xffffffe0,%edx
    2f2d:	80 fa c0             	cmp    $0xc0,%dl
    2f30:	0f 84 97 00 00 00    	je     2fcd <str_lcmp+0x16d>
    2f36:	88 c2                	mov    %al,%dl
    2f38:	83 e2 f0             	and    $0xfffffff0,%edx
    2f3b:	80 fa e0             	cmp    $0xe0,%dl
    2f3e:	0f 84 fc 00 00 00    	je     3040 <str_lcmp+0x1e0>
    2f44:	88 c2                	mov    %al,%dl
    2f46:	83 e2 f8             	and    $0xfffffff8,%edx
    2f49:	80 fa f0             	cmp    $0xf0,%dl
    2f4c:	0f 84 1c 01 00 00    	je     306e <str_lcmp+0x20e>
    2f52:	b8 3f 00 00 00       	mov    $0x3f,%eax
    2f57:	8b 7d f0             	mov    -0x10(%ebp),%edi
    2f5a:	39 d8                	cmp    %ebx,%eax
    2f5c:	0f 8e 4d ff ff ff    	jle    2eaf <str_lcmp+0x4f>
    2f62:	83 c4 0c             	add    $0xc,%esp
    2f65:	83 c8 ff             	or     $0xffffffff,%eax
    2f68:	5b                   	pop    %ebx
    2f69:	5e                   	pop    %esi
    2f6a:	5f                   	pop    %edi
    2f6b:	5d                   	pop    %ebp
    2f6c:	c3                   	ret    
    2f6d:	83 e3 1f             	and    $0x1f,%ebx
    2f70:	c7 45 f0 01 00 00 00 	movl   $0x1,-0x10(%ebp)
    2f77:	8a 04 08             	mov    (%eax,%ecx,1),%al
    2f7a:	83 c6 02             	add    $0x2,%esi
    2f7d:	88 c2                	mov    %al,%dl
    2f7f:	83 e2 c0             	and    $0xffffffc0,%edx
    2f82:	80 fa 80             	cmp    $0x80,%dl
    2f85:	75 3c                	jne    2fc3 <str_lcmp+0x163>
    2f87:	8b 55 f0             	mov    -0x10(%ebp),%edx
    2f8a:	89 7d f0             	mov    %edi,-0x10(%ebp)
    2f8d:	01 d1                	add    %edx,%ecx
    2f8f:	8b 7d 08             	mov    0x8(%ebp),%edi
    2f92:	eb 13                	jmp    2fa7 <str_lcmp+0x147>
    2f94:	8d 74 26 00          	lea    0x0(%esi,%eiz,1),%esi
    2f98:	46                   	inc    %esi
    2f99:	8a 44 37 ff          	mov    -0x1(%edi,%esi,1),%al
    2f9d:	88 c2                	mov    %al,%dl
    2f9f:	83 e2 c0             	and    $0xffffffc0,%edx
    2fa2:	80 fa 80             	cmp    $0x80,%dl
    2fa5:	75 19                	jne    2fc0 <str_lcmp+0x160>
    2fa7:	c1 e3 06             	shl    $0x6,%ebx
    2faa:	83 e0 3f             	and    $0x3f,%eax
    2fad:	09 c3                	or     %eax,%ebx
    2faf:	39 ce                	cmp    %ecx,%esi
    2fb1:	75 e5                	jne    2f98 <str_lcmp+0x138>
    2fb3:	8b 7d f0             	mov    -0x10(%ebp),%edi
    2fb6:	e9 d2 fe ff ff       	jmp    2e8d <str_lcmp+0x2d>
    2fbb:	90                   	nop
    2fbc:	8d 74 26 00          	lea    0x0(%esi,%eiz,1),%esi
    2fc0:	8b 7d f0             	mov    -0x10(%ebp),%edi
    2fc3:	bb 3f 00 00 00       	mov    $0x3f,%ebx
    2fc8:	e9 c0 fe ff ff       	jmp    2e8d <str_lcmp+0x2d>
    2fcd:	b2 1f                	mov    $0x1f,%dl
    2fcf:	c7 45 e8 01 00 00 00 	movl   $0x1,-0x18(%ebp)
    2fd6:	21 d0                	and    %edx,%eax
    2fd8:	8b 4d 0c             	mov    0xc(%ebp),%ecx
    2fdb:	8b 55 f0             	mov    -0x10(%ebp),%edx
    2fde:	25 ff 00 00 00       	and    $0xff,%eax
    2fe3:	83 c7 02             	add    $0x2,%edi
    2fe6:	8a 14 11             	mov    (%ecx,%edx,1),%dl
    2fe9:	88 d1                	mov    %dl,%cl
    2feb:	83 e1 c0             	and    $0xffffffc0,%ecx
    2fee:	80 f9 80             	cmp    $0x80,%cl
    2ff1:	75 71                	jne    3064 <str_lcmp+0x204>
    2ff3:	8b 4d f0             	mov    -0x10(%ebp),%ecx
    2ff6:	89 5d f0             	mov    %ebx,-0x10(%ebp)
    2ff9:	03 4d e8             	add    -0x18(%ebp),%ecx
    2ffc:	8b 5d 0c             	mov    0xc(%ebp),%ebx
    2fff:	89 75 e8             	mov    %esi,-0x18(%ebp)
    3002:	89 ce                	mov    %ecx,%esi
    3004:	eb 11                	jmp    3017 <str_lcmp+0x1b7>
    3006:	66 90                	xchg   %ax,%ax
    3008:	47                   	inc    %edi
    3009:	8a 54 3b ff          	mov    -0x1(%ebx,%edi,1),%dl
    300d:	88 d1                	mov    %dl,%cl
    300f:	83 e1 c0             	and    $0xffffffc0,%ecx
    3012:	80 f9 80             	cmp    $0x80,%cl
    3015:	75 19                	jne    3030 <str_lcmp+0x1d0>
    3017:	c1 e0 06             	shl    $0x6,%eax
    301a:	83 e2 3f             	and    $0x3f,%edx
    301d:	09 d0                	or     %edx,%eax
    301f:	39 f7                	cmp    %esi,%edi
    3021:	75 e5                	jne    3008 <str_lcmp+0x1a8>
    3023:	8b 5d f0             	mov    -0x10(%ebp),%ebx
    3026:	8b 75 e8             	mov    -0x18(%ebp),%esi
    3029:	e9 79 fe ff ff       	jmp    2ea7 <str_lcmp+0x47>
    302e:	66 90                	xchg   %ax,%ax
    3030:	8b 5d f0             	mov    -0x10(%ebp),%ebx
    3033:	8b 75 e8             	mov    -0x18(%ebp),%esi
    3036:	b8 3f 00 00 00       	mov    $0x3f,%eax
    303b:	e9 67 fe ff ff       	jmp    2ea7 <str_lcmp+0x47>
    3040:	b2 0f                	mov    $0xf,%dl
    3042:	c7 45 e8 02 00 00 00 	movl   $0x2,-0x18(%ebp)
    3049:	eb 8b                	jmp    2fd6 <str_lcmp+0x176>
    304b:	83 e3 0f             	and    $0xf,%ebx
    304e:	c7 45 f0 02 00 00 00 	movl   $0x2,-0x10(%ebp)
    3055:	e9 1d ff ff ff       	jmp    2f77 <str_lcmp+0x117>
    305a:	83 c4 0c             	add    $0xc,%esp
    305d:	31 c0                	xor    %eax,%eax
    305f:	5b                   	pop    %ebx
    3060:	5e                   	pop    %esi
    3061:	5f                   	pop    %edi
    3062:	5d                   	pop    %ebp
    3063:	c3                   	ret    
    3064:	b8 3f 00 00 00       	mov    $0x3f,%eax
    3069:	e9 39 fe ff ff       	jmp    2ea7 <str_lcmp+0x47>
    306e:	b2 07                	mov    $0x7,%dl
    3070:	c7 45 e8 03 00 00 00 	movl   $0x3,-0x18(%ebp)
    3077:	e9 5a ff ff ff       	jmp    2fd6 <str_lcmp+0x176>
    307c:	83 e3 07             	and    $0x7,%ebx
    307f:	c7 45 f0 03 00 00 00 	movl   $0x3,-0x10(%ebp)
    3086:	e9 ec fe ff ff       	jmp    2f77 <str_lcmp+0x117>
    308b:	83 c4 0c             	add    $0xc,%esp
    308e:	b8 01 00 00 00       	mov    $0x1,%eax
    3093:	5b                   	pop    %ebx
    3094:	5e                   	pop    %esi
    3095:	5f                   	pop    %edi
    3096:	5d                   	pop    %ebp
    3097:	c3                   	ret    
    3098:	90                   	nop
    3099:	8d b4 26 00 00 00 00 	lea    0x0(%esi,%eiz,1),%esi

000030a0 <str_casecmp>:
    30a0:	55                   	push   %ebp
    30a1:	89 e5                	mov    %esp,%ebp
    30a3:	57                   	push   %edi
    30a4:	56                   	push   %esi
    30a5:	53                   	push   %ebx
    30a6:	83 ec 08             	sub    $0x8,%esp
    30a9:	31 f6                	xor    %esi,%esi
    30ab:	31 ff                	xor    %edi,%edi
    30ad:	eb 56                	jmp    3105 <str_casecmp+0x65>
    30af:	90                   	nop
    30b0:	83 e0 7f             	and    $0x7f,%eax
    30b3:	89 df                	mov    %ebx,%edi
    30b5:	8d 50 bf             	lea    -0x41(%eax),%edx
    30b8:	83 fa 19             	cmp    $0x19,%edx
    30bb:	0f 87 06 02 00 00    	ja     32c7 <str_casecmp+0x227>
    30c1:	83 c0 20             	add    $0x20,%eax
    30c4:	89 45 f0             	mov    %eax,-0x10(%ebp)
    30c7:	8b 45 0c             	mov    0xc(%ebp),%eax
    30ca:	8d 5e 01             	lea    0x1(%esi),%ebx
    30cd:	8a 04 30             	mov    (%eax,%esi,1),%al
    30d0:	84 c0                	test   %al,%al
    30d2:	78 7c                	js     3150 <str_casecmp+0xb0>
    30d4:	83 e0 7f             	and    $0x7f,%eax
    30d7:	89 de                	mov    %ebx,%esi
    30d9:	8d 50 bf             	lea    -0x41(%eax),%edx
    30dc:	83 fa 19             	cmp    $0x19,%edx
    30df:	77 03                	ja     30e4 <str_casecmp+0x44>
    30e1:	83 c0 20             	add    $0x20,%eax
    30e4:	8b 5d f0             	mov    -0x10(%ebp),%ebx
    30e7:	39 d8                	cmp    %ebx,%eax
    30e9:	0f 8f 9d 00 00 00    	jg     318c <str_casecmp+0xec>
    30ef:	0f 8c a0 01 00 00    	jl     3295 <str_casecmp+0x1f5>
    30f5:	85 db                	test   %ebx,%ebx
    30f7:	0f 84 a4 01 00 00    	je     32a1 <str_casecmp+0x201>
    30fd:	85 c0                	test   %eax,%eax
    30ff:	0f 84 9c 01 00 00    	je     32a1 <str_casecmp+0x201>
    3105:	8b 45 08             	mov    0x8(%ebp),%eax
    3108:	8d 5f 01             	lea    0x1(%edi),%ebx
    310b:	8a 04 38             	mov    (%eax,%edi,1),%al
    310e:	84 c0                	test   %al,%al
    3110:	79 9e                	jns    30b0 <str_casecmp+0x10>
    3112:	88 c2                	mov    %al,%dl
    3114:	83 e2 e0             	and    $0xffffffe0,%edx
    3117:	80 fa c0             	cmp    $0xc0,%dl
    311a:	74 7a                	je     3196 <str_casecmp+0xf6>
    311c:	88 c2                	mov    %al,%dl
    311e:	83 e2 f0             	and    $0xfffffff0,%edx
    3121:	80 fa e0             	cmp    $0xe0,%dl
    3124:	0f 84 3b 01 00 00    	je     3265 <str_casecmp+0x1c5>
    312a:	88 c2                	mov    %al,%dl
    312c:	83 e2 f8             	and    $0xfffffff8,%edx
    312f:	80 fa f0             	cmp    $0xf0,%dl
    3132:	0f 84 72 01 00 00    	je     32aa <str_casecmp+0x20a>
    3138:	8b 45 0c             	mov    0xc(%ebp),%eax
    313b:	89 df                	mov    %ebx,%edi
    313d:	c7 45 f0 3f 00 00 00 	movl   $0x3f,-0x10(%ebp)
    3144:	8d 5e 01             	lea    0x1(%esi),%ebx
    3147:	8a 04 30             	mov    (%eax,%esi,1),%al
    314a:	84 c0                	test   %al,%al
    314c:	79 86                	jns    30d4 <str_casecmp+0x34>
    314e:	66 90                	xchg   %ax,%ax
    3150:	88 c2                	mov    %al,%dl
    3152:	83 e2 e0             	and    $0xffffffe0,%edx
    3155:	80 fa c0             	cmp    $0xc0,%dl
    3158:	0f 84 a1 00 00 00    	je     31ff <str_casecmp+0x15f>
    315e:	88 c2                	mov    %al,%dl
    3160:	83 e2 f0             	and    $0xfffffff0,%edx
    3163:	80 fa e0             	cmp    $0xe0,%dl
    3166:	0f 84 08 01 00 00    	je     3274 <str_casecmp+0x1d4>
    316c:	88 c2                	mov    %al,%dl
    316e:	83 e2 f8             	and    $0xfffffff8,%edx
    3171:	80 fa f0             	cmp    $0xf0,%dl
    3174:	0f 84 3f 01 00 00    	je     32b9 <str_casecmp+0x219>
    317a:	89 de                	mov    %ebx,%esi
    317c:	b8 3f 00 00 00       	mov    $0x3f,%eax
    3181:	8b 5d f0             	mov    -0x10(%ebp),%ebx
    3184:	39 d8                	cmp    %ebx,%eax
    3186:	0f 8e 63 ff ff ff    	jle    30ef <str_casecmp+0x4f>
    318c:	5a                   	pop    %edx
    318d:	83 c8 ff             	or     $0xffffffff,%eax
    3190:	59                   	pop    %ecx
    3191:	5b                   	pop    %ebx
    3192:	5e                   	pop    %esi
    3193:	5f                   	pop    %edi
    3194:	5d                   	pop    %ebp
    3195:	c3                   	ret    
    3196:	83 e0 1f             	and    $0x1f,%eax
    3199:	c7 45 f0 01 00 00 00 	movl   $0x1,-0x10(%ebp)
    31a0:	8b 4d 08             	mov    0x8(%ebp),%ecx
    31a3:	83 c7 02             	add    $0x2,%edi
    31a6:	8a 14 19             	mov    (%ecx,%ebx,1),%dl
    31a9:	88 d1                	mov    %dl,%cl
    31ab:	83 e1 c0             	and    $0xffffffc0,%ecx
    31ae:	80 f9 80             	cmp    $0x80,%cl
    31b1:	0f 85 c8 00 00 00    	jne    327f <str_casecmp+0x1df>
    31b7:	8b 4d f0             	mov    -0x10(%ebp),%ecx
    31ba:	89 75 f0             	mov    %esi,-0x10(%ebp)
    31bd:	01 cb                	add    %ecx,%ebx
    31bf:	8b 75 08             	mov    0x8(%ebp),%esi
    31c2:	eb 13                	jmp    31d7 <str_casecmp+0x137>
    31c4:	8d 74 26 00          	lea    0x0(%esi,%eiz,1),%esi
    31c8:	47                   	inc    %edi
    31c9:	8a 54 3e ff          	mov    -0x1(%esi,%edi,1),%dl
    31cd:	88 d1                	mov    %dl,%cl
    31cf:	83 e1 c0             	and    $0xffffffc0,%ecx
    31d2:	80 f9 80             	cmp    $0x80,%cl
    31d5:	75 19                	jne    31f0 <str_casecmp+0x150>
    31d7:	c1 e0 06             	shl    $0x6,%eax
    31da:	83 e2 3f             	and    $0x3f,%edx
    31dd:	09 d0                	or     %edx,%eax
    31df:	39 df                	cmp    %ebx,%edi
    31e1:	75 e5                	jne    31c8 <str_casecmp+0x128>
    31e3:	8b 75 f0             	mov    -0x10(%ebp),%esi
    31e6:	e9 ca fe ff ff       	jmp    30b5 <str_casecmp+0x15>
    31eb:	90                   	nop
    31ec:	8d 74 26 00          	lea    0x0(%esi,%eiz,1),%esi
    31f0:	8b 75 f0             	mov    -0x10(%ebp),%esi
    31f3:	c7 45 f0 3f 00 00 00 	movl   $0x3f,-0x10(%ebp)
    31fa:	e9 c8 fe ff ff       	jmp    30c7 <str_casecmp+0x27>
    31ff:	b2 1f                	mov    $0x1f,%dl
    3201:	c7 45 ec 01 00 00 00 	movl   $0x1,-0x14(%ebp)
    3208:	8b 4d 0c             	mov    0xc(%ebp),%ecx
    320b:	21 d0                	and    %edx,%eax
    320d:	25 ff 00 00 00       	and    $0xff,%eax
    3212:	83 c6 02             	add    $0x2,%esi
    3215:	8a 14 19             	mov    (%ecx,%ebx,1),%dl
    3218:	88 d1                	mov    %dl,%cl
    321a:	83 e1 c0             	and    $0xffffffc0,%ecx
    321d:	80 f9 80             	cmp    $0x80,%cl
    3220:	75 69                	jne    328b <str_casecmp+0x1eb>
    3222:	8b 4d ec             	mov    -0x14(%ebp),%ecx
    3225:	89 7d ec             	mov    %edi,-0x14(%ebp)
    3228:	01 cb                	add    %ecx,%ebx
    322a:	8b 7d 0c             	mov    0xc(%ebp),%edi
    322d:	eb 10                	jmp    323f <str_casecmp+0x19f>
    322f:	90                   	nop
    3230:	46                   	inc    %esi
    3231:	8a 54 37 ff          	mov    -0x1(%edi,%esi,1),%dl
    3235:	88 d1                	mov    %dl,%cl
    3237:	83 e1 c0             	and    $0xffffffc0,%ecx
    323a:	80 f9 80             	cmp    $0x80,%cl
    323d:	75 19                	jne    3258 <str_casecmp+0x1b8>
    323f:	c1 e0 06             	shl    $0x6,%eax
    3242:	83 e2 3f             	and    $0x3f,%edx
    3245:	09 d0                	or     %edx,%eax
    3247:	39 de                	cmp    %ebx,%esi
    3249:	75 e5                	jne    3230 <str_casecmp+0x190>
    324b:	8b 7d ec             	mov    -0x14(%ebp),%edi
    324e:	e9 86 fe ff ff       	jmp    30d9 <str_casecmp+0x39>
    3253:	90                   	nop
    3254:	8d 74 26 00          	lea    0x0(%esi,%eiz,1),%esi
    3258:	8b 7d ec             	mov    -0x14(%ebp),%edi
    325b:	b8 3f 00 00 00       	mov    $0x3f,%eax
    3260:	e9 7f fe ff ff       	jmp    30e4 <str_casecmp+0x44>
    3265:	83 e0 0f             	and    $0xf,%eax
    3268:	c7 45 f0 02 00 00 00 	movl   $0x2,-0x10(%ebp)
    326f:	e9 2c ff ff ff       	jmp    31a0 <str_casecmp+0x100>
    3274:	b2 0f                	mov    $0xf,%dl
    3276:	c7 45 ec 02 00 00 00 	movl   $0x2,-0x14(%ebp)
    327d:	eb 89                	jmp    3208 <str_casecmp+0x168>
    327f:	c7 45 f0 3f 00 00 00 	movl   $0x3f,-0x10(%ebp)
    3286:	e9 3c fe ff ff       	jmp    30c7 <str_casecmp+0x27>
    328b:	b8 3f 00 00 00       	mov    $0x3f,%eax
    3290:	e9 4f fe ff ff       	jmp    30e4 <str_casecmp+0x44>
    3295:	5a                   	pop    %edx
    3296:	b8 01 00 00 00       	mov    $0x1,%eax
    329b:	59                   	pop    %ecx
    329c:	5b                   	pop    %ebx
    329d:	5e                   	pop    %esi
    329e:	5f                   	pop    %edi
    329f:	5d                   	pop    %ebp
    32a0:	c3                   	ret    
    32a1:	5a                   	pop    %edx
    32a2:	31 c0                	xor    %eax,%eax
    32a4:	59                   	pop    %ecx
    32a5:	5b                   	pop    %ebx
    32a6:	5e                   	pop    %esi
    32a7:	5f                   	pop    %edi
    32a8:	5d                   	pop    %ebp
    32a9:	c3                   	ret    
    32aa:	83 e0 07             	and    $0x7,%eax
    32ad:	c7 45 f0 03 00 00 00 	movl   $0x3,-0x10(%ebp)
    32b4:	e9 e7 fe ff ff       	jmp    31a0 <str_casecmp+0x100>
    32b9:	b2 07                	mov    $0x7,%dl
    32bb:	c7 45 ec 03 00 00 00 	movl   $0x3,-0x14(%ebp)
    32c2:	e9 41 ff ff ff       	jmp    3208 <str_casecmp+0x168>
    32c7:	89 45 f0             	mov    %eax,-0x10(%ebp)
    32ca:	e9 f8 fd ff ff       	jmp    30c7 <str_casecmp+0x27>
    32cf:	90                   	nop

000032d0 <str_lcasecmp>:
    32d0:	55                   	push   %ebp
    32d1:	89 e5                	mov    %esp,%ebp
    32d3:	57                   	push   %edi
    32d4:	56                   	push   %esi
    32d5:	53                   	push   %ebx
    32d6:	83 ec 0c             	sub    $0xc,%esp
    32d9:	8b 5d 10             	mov    0x10(%ebp),%ebx
    32dc:	85 db                	test   %ebx,%ebx
    32de:	0f 84 03 02 00 00    	je     34e7 <str_lcasecmp+0x217>
    32e4:	31 ff                	xor    %edi,%edi
    32e6:	31 f6                	xor    %esi,%esi
    32e8:	c7 45 f0 00 00 00 00 	movl   $0x0,-0x10(%ebp)
    32ef:	eb 73                	jmp    3364 <str_lcasecmp+0x94>
    32f1:	8d b4 26 00 00 00 00 	lea    0x0(%esi,%eiz,1),%esi
    32f8:	83 e0 7f             	and    $0x7f,%eax
    32fb:	89 de                	mov    %ebx,%esi
    32fd:	8d 50 bf             	lea    -0x41(%eax),%edx
    3300:	83 fa 19             	cmp    $0x19,%edx
    3303:	0f 87 28 02 00 00    	ja     3531 <str_lcasecmp+0x261>
    3309:	83 c0 20             	add    $0x20,%eax
    330c:	89 45 ec             	mov    %eax,-0x14(%ebp)
    330f:	8b 45 0c             	mov    0xc(%ebp),%eax
    3312:	8d 5f 01             	lea    0x1(%edi),%ebx
    3315:	8a 04 38             	mov    (%eax,%edi,1),%al
    3318:	84 c0                	test   %al,%al
    331a:	0f 88 98 00 00 00    	js     33b8 <str_lcasecmp+0xe8>
    3320:	83 e0 7f             	and    $0x7f,%eax
    3323:	89 df                	mov    %ebx,%edi
    3325:	8d 50 bf             	lea    -0x41(%eax),%edx
    3328:	83 fa 19             	cmp    $0x19,%edx
    332b:	77 03                	ja     3330 <str_lcasecmp+0x60>
    332d:	83 c0 20             	add    $0x20,%eax
    3330:	8b 5d ec             	mov    -0x14(%ebp),%ebx
    3333:	39 d8                	cmp    %ebx,%eax
    3335:	0f 8f b9 00 00 00    	jg     33f4 <str_lcasecmp+0x124>
    333b:	0f 8c e3 01 00 00    	jl     3524 <str_lcasecmp+0x254>
    3341:	85 db                	test   %ebx,%ebx
    3343:	0f 84 9e 01 00 00    	je     34e7 <str_lcasecmp+0x217>
    3349:	85 c0                	test   %eax,%eax
    334b:	0f 84 96 01 00 00    	je     34e7 <str_lcasecmp+0x217>
    3351:	8b 45 f0             	mov    -0x10(%ebp),%eax
    3354:	40                   	inc    %eax
    3355:	89 45 f0             	mov    %eax,-0x10(%ebp)
    3358:	8b 45 f0             	mov    -0x10(%ebp),%eax
    335b:	39 45 10             	cmp    %eax,0x10(%ebp)
    335e:	0f 84 83 01 00 00    	je     34e7 <str_lcasecmp+0x217>
    3364:	8b 45 08             	mov    0x8(%ebp),%eax
    3367:	8d 5e 01             	lea    0x1(%esi),%ebx
    336a:	8a 04 30             	mov    (%eax,%esi,1),%al
    336d:	84 c0                	test   %al,%al
    336f:	79 87                	jns    32f8 <str_lcasecmp+0x28>
    3371:	88 c2                	mov    %al,%dl
    3373:	83 e2 e0             	and    $0xffffffe0,%edx
    3376:	80 fa c0             	cmp    $0xc0,%dl
    3379:	0f 84 80 00 00 00    	je     33ff <str_lcasecmp+0x12f>
    337f:	88 c2                	mov    %al,%dl
    3381:	83 e2 f0             	and    $0xfffffff0,%edx
    3384:	80 fa e0             	cmp    $0xe0,%dl
    3387:	0f 84 4b 01 00 00    	je     34d8 <str_lcasecmp+0x208>
    338d:	88 c2                	mov    %al,%dl
    338f:	83 e2 f8             	and    $0xfffffff8,%edx
    3392:	80 fa f0             	cmp    $0xf0,%dl
    3395:	0f 84 7a 01 00 00    	je     3515 <str_lcasecmp+0x245>
    339b:	8b 45 0c             	mov    0xc(%ebp),%eax
    339e:	89 de                	mov    %ebx,%esi
    33a0:	c7 45 ec 3f 00 00 00 	movl   $0x3f,-0x14(%ebp)
    33a7:	8d 5f 01             	lea    0x1(%edi),%ebx
    33aa:	8a 04 38             	mov    (%eax,%edi,1),%al
    33ad:	84 c0                	test   %al,%al
    33af:	0f 89 6b ff ff ff    	jns    3320 <str_lcasecmp+0x50>
    33b5:	8d 76 00             	lea    0x0(%esi),%esi
    33b8:	88 c2                	mov    %al,%dl
    33ba:	83 e2 e0             	and    $0xffffffe0,%edx
    33bd:	80 fa c0             	cmp    $0xc0,%dl
    33c0:	0f 84 a1 00 00 00    	je     3467 <str_lcasecmp+0x197>
    33c6:	88 c2                	mov    %al,%dl
    33c8:	83 e2 f0             	and    $0xfffffff0,%edx
    33cb:	80 fa e0             	cmp    $0xe0,%dl
    33ce:	0f 84 f9 00 00 00    	je     34cd <str_lcasecmp+0x1fd>
    33d4:	88 c2                	mov    %al,%dl
    33d6:	83 e2 f8             	and    $0xfffffff8,%edx
    33d9:	80 fa f0             	cmp    $0xf0,%dl
    33dc:	0f 84 25 01 00 00    	je     3507 <str_lcasecmp+0x237>
    33e2:	89 df                	mov    %ebx,%edi
    33e4:	b8 3f 00 00 00       	mov    $0x3f,%eax
    33e9:	8b 5d ec             	mov    -0x14(%ebp),%ebx
    33ec:	39 d8                	cmp    %ebx,%eax
    33ee:	0f 8e 47 ff ff ff    	jle    333b <str_lcasecmp+0x6b>
    33f4:	83 c4 0c             	add    $0xc,%esp
    33f7:	83 c8 ff             	or     $0xffffffff,%eax
    33fa:	5b                   	pop    %ebx
    33fb:	5e                   	pop    %esi
    33fc:	5f                   	pop    %edi
    33fd:	5d                   	pop    %ebp
    33fe:	c3                   	ret    
    33ff:	83 e0 1f             	and    $0x1f,%eax
    3402:	c7 45 ec 01 00 00 00 	movl   $0x1,-0x14(%ebp)
    3409:	8b 4d 08             	mov    0x8(%ebp),%ecx
    340c:	83 c6 02             	add    $0x2,%esi
    340f:	8a 14 19             	mov    (%ecx,%ebx,1),%dl
    3412:	88 d1                	mov    %dl,%cl
    3414:	83 e1 c0             	and    $0xffffffc0,%ecx
    3417:	80 f9 80             	cmp    $0x80,%cl
    341a:	0f 85 d1 00 00 00    	jne    34f1 <str_lcasecmp+0x221>
    3420:	8b 4d ec             	mov    -0x14(%ebp),%ecx
    3423:	89 7d ec             	mov    %edi,-0x14(%ebp)
    3426:	01 cb                	add    %ecx,%ebx
    3428:	8b 7d 08             	mov    0x8(%ebp),%edi
    342b:	eb 12                	jmp    343f <str_lcasecmp+0x16f>
    342d:	8d 76 00             	lea    0x0(%esi),%esi
    3430:	46                   	inc    %esi
    3431:	8a 54 37 ff          	mov    -0x1(%edi,%esi,1),%dl
    3435:	88 d1                	mov    %dl,%cl
    3437:	83 e1 c0             	and    $0xffffffc0,%ecx
    343a:	80 f9 80             	cmp    $0x80,%cl
    343d:	75 19                	jne    3458 <str_lcasecmp+0x188>
    343f:	c1 e0 06             	shl    $0x6,%eax
    3442:	83 e2 3f             	and    $0x3f,%edx
    3445:	09 d0                	or     %edx,%eax
    3447:	39 de                	cmp    %ebx,%esi
    3449:	75 e5                	jne    3430 <str_lcasecmp+0x160>
    344b:	8b 7d ec             	mov    -0x14(%ebp),%edi
    344e:	e9 aa fe ff ff       	jmp    32fd <str_lcasecmp+0x2d>
    3453:	90                   	nop
    3454:	8d 74 26 00          	lea    0x0(%esi,%eiz,1),%esi
    3458:	8b 7d ec             	mov    -0x14(%ebp),%edi
    345b:	c7 45 ec 3f 00 00 00 	movl   $0x3f,-0x14(%ebp)
    3462:	e9 a8 fe ff ff       	jmp    330f <str_lcasecmp+0x3f>
    3467:	b2 1f                	mov    $0x1f,%dl
    3469:	c7 45 e8 01 00 00 00 	movl   $0x1,-0x18(%ebp)
    3470:	8b 4d 0c             	mov    0xc(%ebp),%ecx
    3473:	21 d0                	and    %edx,%eax
    3475:	25 ff 00 00 00       	and    $0xff,%eax
    347a:	83 c7 02             	add    $0x2,%edi
    347d:	8a 14 19             	mov    (%ecx,%ebx,1),%dl
    3480:	88 d1                	mov    %dl,%cl
    3482:	83 e1 c0             	and    $0xffffffc0,%ecx
    3485:	80 f9 80             	cmp    $0x80,%cl
    3488:	75 73                	jne    34fd <str_lcasecmp+0x22d>
    348a:	8b 4d e8             	mov    -0x18(%ebp),%ecx
    348d:	89 75 e8             	mov    %esi,-0x18(%ebp)
    3490:	01 cb                	add    %ecx,%ebx
    3492:	8b 75 0c             	mov    0xc(%ebp),%esi
    3495:	eb 10                	jmp    34a7 <str_lcasecmp+0x1d7>
    3497:	90                   	nop
    3498:	47                   	inc    %edi
    3499:	8a 54 3e ff          	mov    -0x1(%esi,%edi,1),%dl
    349d:	88 d1                	mov    %dl,%cl
    349f:	83 e1 c0             	and    $0xffffffc0,%ecx
    34a2:	80 f9 80             	cmp    $0x80,%cl
    34a5:	75 19                	jne    34c0 <str_lcasecmp+0x1f0>
    34a7:	c1 e0 06             	shl    $0x6,%eax
    34aa:	83 e2 3f             	and    $0x3f,%edx
    34ad:	09 d0                	or     %edx,%eax
    34af:	39 df                	cmp    %ebx,%edi
    34b1:	75 e5                	jne    3498 <str_lcasecmp+0x1c8>
    34b3:	8b 75 e8             	mov    -0x18(%ebp),%esi
    34b6:	e9 6a fe ff ff       	jmp    3325 <str_lcasecmp+0x55>
    34bb:	90                   	nop
    34bc:	8d 74 26 00          	lea    0x0(%esi,%eiz,1),%esi
    34c0:	8b 75 e8             	mov    -0x18(%ebp),%esi
    34c3:	b8 3f 00 00 00       	mov    $0x3f,%eax
    34c8:	e9 63 fe ff ff       	jmp    3330 <str_lcasecmp+0x60>
    34cd:	b2 0f                	mov    $0xf,%dl
    34cf:	c7 45 e8 02 00 00 00 	movl   $0x2,-0x18(%ebp)
    34d6:	eb 98                	jmp    3470 <str_lcasecmp+0x1a0>
    34d8:	83 e0 0f             	and    $0xf,%eax
    34db:	c7 45 ec 02 00 00 00 	movl   $0x2,-0x14(%ebp)
    34e2:	e9 22 ff ff ff       	jmp    3409 <str_lcasecmp+0x139>
    34e7:	83 c4 0c             	add    $0xc,%esp
    34ea:	31 c0                	xor    %eax,%eax
    34ec:	5b                   	pop    %ebx
    34ed:	5e                   	pop    %esi
    34ee:	5f                   	pop    %edi
    34ef:	5d                   	pop    %ebp
    34f0:	c3                   	ret    
    34f1:	c7 45 ec 3f 00 00 00 	movl   $0x3f,-0x14(%ebp)
    34f8:	e9 12 fe ff ff       	jmp    330f <str_lcasecmp+0x3f>
    34fd:	b8 3f 00 00 00       	mov    $0x3f,%eax
    3502:	e9 29 fe ff ff       	jmp    3330 <str_lcasecmp+0x60>
    3507:	b2 07                	mov    $0x7,%dl
    3509:	c7 45 e8 03 00 00 00 	movl   $0x3,-0x18(%ebp)
    3510:	e9 5b ff ff ff       	jmp    3470 <str_lcasecmp+0x1a0>
    3515:	83 e0 07             	and    $0x7,%eax
    3518:	c7 45 ec 03 00 00 00 	movl   $0x3,-0x14(%ebp)
    351f:	e9 e5 fe ff ff       	jmp    3409 <str_lcasecmp+0x139>
    3524:	83 c4 0c             	add    $0xc,%esp
    3527:	b8 01 00 00 00       	mov    $0x1,%eax
    352c:	5b                   	pop    %ebx
    352d:	5e                   	pop    %esi
    352e:	5f                   	pop    %edi
    352f:	5d                   	pop    %ebp
    3530:	c3                   	ret    
    3531:	89 45 ec             	mov    %eax,-0x14(%ebp)
    3534:	e9 d6 fd ff ff       	jmp    330f <str_lcasecmp+0x3f>
    3539:	8d b4 26 00 00 00 00 	lea    0x0(%esi,%eiz,1),%esi

00003540 <str_test_prefix>:
    3540:	55                   	push   %ebp
    3541:	89 e5                	mov    %esp,%ebp
    3543:	57                   	push   %edi
    3544:	56                   	push   %esi
    3545:	53                   	push   %ebx
    3546:	83 ec 08             	sub    $0x8,%esp
    3549:	31 f6                	xor    %esi,%esi
    354b:	31 ff                	xor    %edi,%edi
    354d:	eb 2e                	jmp    357d <str_test_prefix+0x3d>
    354f:	90                   	nop
    3550:	83 e3 7f             	and    $0x7f,%ebx
    3553:	89 cf                	mov    %ecx,%edi
    3555:	8d 46 01             	lea    0x1(%esi),%eax
    3558:	89 45 f0             	mov    %eax,-0x10(%ebp)
    355b:	8b 45 0c             	mov    0xc(%ebp),%eax
    355e:	8a 14 30             	mov    (%eax,%esi,1),%dl
    3561:	84 d2                	test   %dl,%dl
    3563:	78 63                	js     35c8 <str_test_prefix+0x88>
    3565:	89 d0                	mov    %edx,%eax
    3567:	8b 75 f0             	mov    -0x10(%ebp),%esi
    356a:	83 e0 7f             	and    $0x7f,%eax
    356d:	85 c0                	test   %eax,%eax
    356f:	0f 84 54 01 00 00    	je     36c9 <str_test_prefix+0x189>
    3575:	39 d8                	cmp    %ebx,%eax
    3577:	0f 85 82 00 00 00    	jne    35ff <str_test_prefix+0xbf>
    357d:	8b 45 08             	mov    0x8(%ebp),%eax
    3580:	8d 4f 01             	lea    0x1(%edi),%ecx
    3583:	8a 1c 38             	mov    (%eax,%edi,1),%bl
    3586:	84 db                	test   %bl,%bl
    3588:	79 c6                	jns    3550 <str_test_prefix+0x10>
    358a:	88 da                	mov    %bl,%dl
    358c:	83 e2 e0             	and    $0xffffffe0,%edx
    358f:	80 fa c0             	cmp    $0xc0,%dl
    3592:	74 74                	je     3608 <str_test_prefix+0xc8>
    3594:	88 da                	mov    %bl,%dl
    3596:	83 e2 f0             	and    $0xfffffff0,%edx
    3599:	80 fa e0             	cmp    $0xe0,%dl
    359c:	0f 84 46 01 00 00    	je     36e8 <str_test_prefix+0x1a8>
    35a2:	88 da                	mov    %bl,%dl
    35a4:	83 e2 f8             	and    $0xfffffff8,%edx
    35a7:	80 fa f0             	cmp    $0xf0,%dl
    35aa:	0f 84 6d 01 00 00    	je     371d <str_test_prefix+0x1dd>
    35b0:	8d 46 01             	lea    0x1(%esi),%eax
    35b3:	89 cf                	mov    %ecx,%edi
    35b5:	89 45 f0             	mov    %eax,-0x10(%ebp)
    35b8:	8b 45 0c             	mov    0xc(%ebp),%eax
    35bb:	bb 3f 00 00 00       	mov    $0x3f,%ebx
    35c0:	8a 14 30             	mov    (%eax,%esi,1),%dl
    35c3:	84 d2                	test   %dl,%dl
    35c5:	79 9e                	jns    3565 <str_test_prefix+0x25>
    35c7:	90                   	nop
    35c8:	88 d0                	mov    %dl,%al
    35ca:	83 e0 e0             	and    $0xffffffe0,%eax
    35cd:	3c c0                	cmp    $0xc0,%al
    35cf:	0f 84 90 00 00 00    	je     3665 <str_test_prefix+0x125>
    35d5:	88 d0                	mov    %dl,%al
    35d7:	83 e0 f0             	and    $0xfffffff0,%eax
    35da:	3c e0                	cmp    $0xe0,%al
    35dc:	0f 84 15 01 00 00    	je     36f7 <str_test_prefix+0x1b7>
    35e2:	88 d0                	mov    %dl,%al
    35e4:	83 e0 f8             	and    $0xfffffff8,%eax
    35e7:	3c f0                	cmp    $0xf0,%al
    35e9:	0f 84 20 01 00 00    	je     370f <str_test_prefix+0x1cf>
    35ef:	b8 3f 00 00 00       	mov    $0x3f,%eax
    35f4:	8b 75 f0             	mov    -0x10(%ebp),%esi
    35f7:	39 d8                	cmp    %ebx,%eax
    35f9:	0f 84 7e ff ff ff    	je     357d <str_test_prefix+0x3d>
    35ff:	5a                   	pop    %edx
    3600:	31 c0                	xor    %eax,%eax
    3602:	59                   	pop    %ecx
    3603:	5b                   	pop    %ebx
    3604:	5e                   	pop    %esi
    3605:	5f                   	pop    %edi
    3606:	5d                   	pop    %ebp
    3607:	c3                   	ret    
    3608:	83 e3 1f             	and    $0x1f,%ebx
    360b:	c7 45 f0 01 00 00 00 	movl   $0x1,-0x10(%ebp)
    3612:	8a 04 08             	mov    (%eax,%ecx,1),%al
    3615:	83 c7 02             	add    $0x2,%edi
    3618:	88 c2                	mov    %al,%dl
    361a:	83 e2 c0             	and    $0xffffffc0,%edx
    361d:	80 fa 80             	cmp    $0x80,%dl
    3620:	75 39                	jne    365b <str_test_prefix+0x11b>
    3622:	8b 55 f0             	mov    -0x10(%ebp),%edx
    3625:	89 75 f0             	mov    %esi,-0x10(%ebp)
    3628:	01 d1                	add    %edx,%ecx
    362a:	8b 75 08             	mov    0x8(%ebp),%esi
    362d:	eb 10                	jmp    363f <str_test_prefix+0xff>
    362f:	90                   	nop
    3630:	47                   	inc    %edi
    3631:	8a 44 3e ff          	mov    -0x1(%esi,%edi,1),%al
    3635:	88 c2                	mov    %al,%dl
    3637:	83 e2 c0             	and    $0xffffffc0,%edx
    363a:	80 fa 80             	cmp    $0x80,%dl
    363d:	75 19                	jne    3658 <str_test_prefix+0x118>
    363f:	c1 e3 06             	shl    $0x6,%ebx
    3642:	83 e0 3f             	and    $0x3f,%eax
    3645:	09 c3                	or     %eax,%ebx
    3647:	39 cf                	cmp    %ecx,%edi
    3649:	75 e5                	jne    3630 <str_test_prefix+0xf0>
    364b:	8b 75 f0             	mov    -0x10(%ebp),%esi
    364e:	e9 02 ff ff ff       	jmp    3555 <str_test_prefix+0x15>
    3653:	90                   	nop
    3654:	8d 74 26 00          	lea    0x0(%esi,%eiz,1),%esi
    3658:	8b 75 f0             	mov    -0x10(%ebp),%esi
    365b:	bb 3f 00 00 00       	mov    $0x3f,%ebx
    3660:	e9 f0 fe ff ff       	jmp    3555 <str_test_prefix+0x15>
    3665:	b0 1f                	mov    $0x1f,%al
    3667:	c7 45 ec 01 00 00 00 	movl   $0x1,-0x14(%ebp)
    366e:	21 d0                	and    %edx,%eax
    3670:	8b 4d 0c             	mov    0xc(%ebp),%ecx
    3673:	8b 55 f0             	mov    -0x10(%ebp),%edx
    3676:	25 ff 00 00 00       	and    $0xff,%eax
    367b:	83 c6 02             	add    $0x2,%esi
    367e:	8a 14 11             	mov    (%ecx,%edx,1),%dl
    3681:	88 d1                	mov    %dl,%cl
    3683:	83 e1 c0             	and    $0xffffffc0,%ecx
    3686:	80 f9 80             	cmp    $0x80,%cl
    3689:	75 7a                	jne    3705 <str_test_prefix+0x1c5>
    368b:	8b 4d f0             	mov    -0x10(%ebp),%ecx
    368e:	89 7d f0             	mov    %edi,-0x10(%ebp)
    3691:	03 4d ec             	add    -0x14(%ebp),%ecx
    3694:	8b 7d 0c             	mov    0xc(%ebp),%edi
    3697:	89 5d ec             	mov    %ebx,-0x14(%ebp)
    369a:	89 cb                	mov    %ecx,%ebx
    369c:	eb 11                	jmp    36af <str_test_prefix+0x16f>
    369e:	66 90                	xchg   %ax,%ax
    36a0:	46                   	inc    %esi
    36a1:	8a 54 37 ff          	mov    -0x1(%edi,%esi,1),%dl
    36a5:	88 d1                	mov    %dl,%cl
    36a7:	83 e1 c0             	and    $0xffffffc0,%ecx
    36aa:	80 f9 80             	cmp    $0x80,%cl
    36ad:	75 29                	jne    36d8 <str_test_prefix+0x198>
    36af:	c1 e0 06             	shl    $0x6,%eax
    36b2:	83 e2 3f             	and    $0x3f,%edx
    36b5:	09 d0                	or     %edx,%eax
    36b7:	39 de                	cmp    %ebx,%esi
    36b9:	75 e5                	jne    36a0 <str_test_prefix+0x160>
    36bb:	8b 7d f0             	mov    -0x10(%ebp),%edi
    36be:	8b 5d ec             	mov    -0x14(%ebp),%ebx
    36c1:	85 c0                	test   %eax,%eax
    36c3:	0f 85 ac fe ff ff    	jne    3575 <str_test_prefix+0x35>
    36c9:	5a                   	pop    %edx
    36ca:	b0 01                	mov    $0x1,%al
    36cc:	59                   	pop    %ecx
    36cd:	5b                   	pop    %ebx
    36ce:	5e                   	pop    %esi
    36cf:	5f                   	pop    %edi
    36d0:	5d                   	pop    %ebp
    36d1:	c3                   	ret    
    36d2:	8d b6 00 00 00 00    	lea    0x0(%esi),%esi
    36d8:	8b 7d f0             	mov    -0x10(%ebp),%edi
    36db:	8b 5d ec             	mov    -0x14(%ebp),%ebx
    36de:	b8 3f 00 00 00       	mov    $0x3f,%eax
    36e3:	e9 8d fe ff ff       	jmp    3575 <str_test_prefix+0x35>
    36e8:	83 e3 0f             	and    $0xf,%ebx
    36eb:	c7 45 f0 02 00 00 00 	movl   $0x2,-0x10(%ebp)
    36f2:	e9 1b ff ff ff       	jmp    3612 <str_test_prefix+0xd2>
    36f7:	b0 0f                	mov    $0xf,%al
    36f9:	c7 45 ec 02 00 00 00 	movl   $0x2,-0x14(%ebp)
    3700:	e9 69 ff ff ff       	jmp    366e <str_test_prefix+0x12e>
    3705:	b8 3f 00 00 00       	mov    $0x3f,%eax
    370a:	e9 66 fe ff ff       	jmp    3575 <str_test_prefix+0x35>
    370f:	b0 07                	mov    $0x7,%al
    3711:	c7 45 ec 03 00 00 00 	movl   $0x3,-0x14(%ebp)
    3718:	e9 51 ff ff ff       	jmp    366e <str_test_prefix+0x12e>
    371d:	83 e3 07             	and    $0x7,%ebx
    3720:	c7 45 f0 03 00 00 00 	movl   $0x3,-0x10(%ebp)
    3727:	e9 e6 fe ff ff       	jmp    3612 <str_test_prefix+0xd2>
    372c:	8d 74 26 00          	lea    0x0(%esi,%eiz,1),%esi

00003730 <str_cpy>:
    3730:	55                   	push   %ebp
    3731:	89 e5                	mov    %esp,%ebp
    3733:	57                   	push   %edi
    3734:	56                   	push   %esi
    3735:	53                   	push   %ebx
    3736:	83 ec 2c             	sub    $0x2c,%esp
    3739:	8b 45 0c             	mov    0xc(%ebp),%eax
    373c:	8b 75 10             	mov    0x10(%ebp),%esi
    373f:	85 c0                	test   %eax,%eax
    3741:	0f 84 a3 01 00 00    	je     38ea <str_cpy+0x1ba>
    3747:	48                   	dec    %eax
    3748:	c7 45 e4 00 00 00 00 	movl   $0x0,-0x1c(%ebp)
    374f:	31 ff                	xor    %edi,%edi
    3751:	89 45 d8             	mov    %eax,-0x28(%ebp)
    3754:	8d 74 26 00          	lea    0x0(%esi,%eiz,1),%esi
    3758:	8a 04 3e             	mov    (%esi,%edi,1),%al
    375b:	8d 4f 01             	lea    0x1(%edi),%ecx
    375e:	84 c0                	test   %al,%al
    3760:	78 2e                	js     3790 <str_cpy+0x60>
    3762:	83 e0 7f             	and    $0x7f,%eax
    3765:	89 cf                	mov    %ecx,%edi
    3767:	85 c0                	test   %eax,%eax
    3769:	74 0f                	je     377a <str_cpy+0x4a>
    376b:	8b 55 e4             	mov    -0x1c(%ebp),%edx
    376e:	39 55 d8             	cmp    %edx,-0x28(%ebp)
    3771:	76 07                	jbe    377a <str_cpy+0x4a>
    3773:	3d ff ff 10 00       	cmp    $0x10ffff,%eax
    3778:	76 4f                	jbe    37c9 <str_cpy+0x99>
    377a:	8b 75 e4             	mov    -0x1c(%ebp),%esi
    377d:	8b 45 08             	mov    0x8(%ebp),%eax
    3780:	c6 04 30 00          	movb   $0x0,(%eax,%esi,1)
    3784:	8d 65 f4             	lea    -0xc(%ebp),%esp
    3787:	5b                   	pop    %ebx
    3788:	5e                   	pop    %esi
    3789:	5f                   	pop    %edi
    378a:	5d                   	pop    %ebp
    378b:	c3                   	ret    
    378c:	8d 74 26 00          	lea    0x0(%esi,%eiz,1),%esi
    3790:	88 c2                	mov    %al,%dl
    3792:	83 e2 e0             	and    $0xffffffe0,%edx
    3795:	80 fa c0             	cmp    $0xc0,%dl
    3798:	0f 84 d3 00 00 00    	je     3871 <str_cpy+0x141>
    379e:	88 c2                	mov    %al,%dl
    37a0:	83 e2 f0             	and    $0xfffffff0,%edx
    37a3:	80 fa e0             	cmp    $0xe0,%dl
    37a6:	0f 84 26 01 00 00    	je     38d2 <str_cpy+0x1a2>
    37ac:	88 c2                	mov    %al,%dl
    37ae:	83 e2 f8             	and    $0xfffffff8,%edx
    37b1:	80 fa f0             	cmp    $0xf0,%dl
    37b4:	0f 84 24 01 00 00    	je     38de <str_cpy+0x1ae>
    37ba:	8b 7d e4             	mov    -0x1c(%ebp),%edi
    37bd:	39 7d d8             	cmp    %edi,-0x28(%ebp)
    37c0:	76 b8                	jbe    377a <str_cpy+0x4a>
    37c2:	89 cf                	mov    %ecx,%edi
    37c4:	b8 3f 00 00 00       	mov    $0x3f,%eax
    37c9:	a9 80 ff ff ff       	test   $0xffffff80,%eax
    37ce:	0f 84 2b 01 00 00    	je     38ff <str_cpy+0x1cf>
    37d4:	a9 00 f8 ff ff       	test   $0xfffff800,%eax
    37d9:	74 6d                	je     3848 <str_cpy+0x118>
    37db:	a9 00 00 ff ff       	test   $0xffff0000,%eax
    37e0:	74 7e                	je     3860 <str_cpy+0x130>
    37e2:	a9 00 00 e0 ff       	test   $0xffe00000,%eax
    37e7:	75 91                	jne    377a <str_cpy+0x4a>
    37e9:	c6 45 de f0          	movb   $0xf0,-0x22(%ebp)
    37ed:	c6 45 df 07          	movb   $0x7,-0x21(%ebp)
    37f1:	c7 45 d4 03 00 00 00 	movl   $0x3,-0x2c(%ebp)
    37f8:	8b 4d e4             	mov    -0x1c(%ebp),%ecx
    37fb:	8b 5d d4             	mov    -0x2c(%ebp),%ebx
    37fe:	01 cb                	add    %ecx,%ebx
    3800:	89 5d e0             	mov    %ebx,-0x20(%ebp)
    3803:	3b 5d d8             	cmp    -0x28(%ebp),%ebx
    3806:	0f 83 6e ff ff ff    	jae    377a <str_cpy+0x4a>
    380c:	8b 55 08             	mov    0x8(%ebp),%edx
    380f:	89 cb                	mov    %ecx,%ebx
    3811:	01 d3                	add    %edx,%ebx
    3813:	8b 55 d4             	mov    -0x2c(%ebp),%edx
    3816:	66 90                	xchg   %ax,%ax
    3818:	88 c1                	mov    %al,%cl
    381a:	c1 e8 06             	shr    $0x6,%eax
    381d:	83 e1 3f             	and    $0x3f,%ecx
    3820:	83 c9 80             	or     $0xffffff80,%ecx
    3823:	88 0c 13             	mov    %cl,(%ebx,%edx,1)
    3826:	4a                   	dec    %edx
    3827:	75 ef                	jne    3818 <str_cpy+0xe8>
    3829:	8b 55 e4             	mov    -0x1c(%ebp),%edx
    382c:	22 45 df             	and    -0x21(%ebp),%al
    382f:	8b 5d 08             	mov    0x8(%ebp),%ebx
    3832:	0a 45 de             	or     -0x22(%ebp),%al
    3835:	88 04 13             	mov    %al,(%ebx,%edx,1)
    3838:	8b 45 e0             	mov    -0x20(%ebp),%eax
    383b:	40                   	inc    %eax
    383c:	89 45 e4             	mov    %eax,-0x1c(%ebp)
    383f:	e9 14 ff ff ff       	jmp    3758 <str_cpy+0x28>
    3844:	8d 74 26 00          	lea    0x0(%esi,%eiz,1),%esi
    3848:	c6 45 de c0          	movb   $0xc0,-0x22(%ebp)
    384c:	c6 45 df 1f          	movb   $0x1f,-0x21(%ebp)
    3850:	c7 45 d4 01 00 00 00 	movl   $0x1,-0x2c(%ebp)
    3857:	eb 9f                	jmp    37f8 <str_cpy+0xc8>
    3859:	8d b4 26 00 00 00 00 	lea    0x0(%esi,%eiz,1),%esi
    3860:	c6 45 de e0          	movb   $0xe0,-0x22(%ebp)
    3864:	c6 45 df 0f          	movb   $0xf,-0x21(%ebp)
    3868:	c7 45 d4 02 00 00 00 	movl   $0x2,-0x2c(%ebp)
    386f:	eb 87                	jmp    37f8 <str_cpy+0xc8>
    3871:	83 e0 1f             	and    $0x1f,%eax
    3874:	c7 45 e0 01 00 00 00 	movl   $0x1,-0x20(%ebp)
    387b:	8a 14 0e             	mov    (%esi,%ecx,1),%dl
    387e:	83 c7 02             	add    $0x2,%edi
    3881:	88 d3                	mov    %dl,%bl
    3883:	83 e3 c0             	and    $0xffffffc0,%ebx
    3886:	80 fb 80             	cmp    $0x80,%bl
    3889:	75 24                	jne    38af <str_cpy+0x17f>
    388b:	8b 5d e0             	mov    -0x20(%ebp),%ebx
    388e:	01 d9                	add    %ebx,%ecx
    3890:	c1 e0 06             	shl    $0x6,%eax
    3893:	83 e2 3f             	and    $0x3f,%edx
    3896:	09 d0                	or     %edx,%eax
    3898:	39 cf                	cmp    %ecx,%edi
    389a:	0f 84 c7 fe ff ff    	je     3767 <str_cpy+0x37>
    38a0:	47                   	inc    %edi
    38a1:	8a 54 3e ff          	mov    -0x1(%esi,%edi,1),%dl
    38a5:	88 d3                	mov    %dl,%bl
    38a7:	83 e3 c0             	and    $0xffffffc0,%ebx
    38aa:	80 fb 80             	cmp    $0x80,%bl
    38ad:	74 e1                	je     3890 <str_cpy+0x160>
    38af:	8b 45 e4             	mov    -0x1c(%ebp),%eax
    38b2:	8b 5d d8             	mov    -0x28(%ebp),%ebx
    38b5:	39 d8                	cmp    %ebx,%eax
    38b7:	0f 83 bd fe ff ff    	jae    377a <str_cpy+0x4a>
    38bd:	89 45 e0             	mov    %eax,-0x20(%ebp)
    38c0:	c6 45 de 00          	movb   $0x0,-0x22(%ebp)
    38c4:	c6 45 df 7f          	movb   $0x7f,-0x21(%ebp)
    38c8:	b8 3f 00 00 00       	mov    $0x3f,%eax
    38cd:	e9 57 ff ff ff       	jmp    3829 <str_cpy+0xf9>
    38d2:	83 e0 0f             	and    $0xf,%eax
    38d5:	c7 45 e0 02 00 00 00 	movl   $0x2,-0x20(%ebp)
    38dc:	eb 9d                	jmp    387b <str_cpy+0x14b>
    38de:	83 e0 07             	and    $0x7,%eax
    38e1:	c7 45 e0 03 00 00 00 	movl   $0x3,-0x20(%ebp)
    38e8:	eb 91                	jmp    387b <str_cpy+0x14b>
    38ea:	56                   	push   %esi
    38eb:	68 eb 02 00 00       	push   $0x2eb
    38f0:	68 77 45 02 00       	push   $0x24577
    38f5:	68 28 5b 02 00       	push   $0x25b28
    38fa:	e8 41 ac 01 00       	call   1e540 <assert_abort>
    38ff:	8b 5d e4             	mov    -0x1c(%ebp),%ebx
    3902:	c6 45 de 00          	movb   $0x0,-0x22(%ebp)
    3906:	89 5d e0             	mov    %ebx,-0x20(%ebp)
    3909:	c6 45 df 7f          	movb   $0x7f,-0x21(%ebp)
    390d:	89 da                	mov    %ebx,%edx
    390f:	e9 18 ff ff ff       	jmp    382c <str_cpy+0xfc>
    3914:	8d b6 00 00 00 00    	lea    0x0(%esi),%esi
    391a:	8d bf 00 00 00 00    	lea    0x0(%edi),%edi

00003920 <str_ncpy>:
    3920:	55                   	push   %ebp
    3921:	89 e5                	mov    %esp,%ebp
    3923:	57                   	push   %edi
    3924:	56                   	push   %esi
    3925:	53                   	push   %ebx
    3926:	83 ec 1c             	sub    $0x1c,%esp
    3929:	8b 45 0c             	mov    0xc(%ebp),%eax
    392c:	85 c0                	test   %eax,%eax
    392e:	0f 84 c9 01 00 00    	je     3afd <str_ncpy+0x1dd>
    3934:	8b 55 14             	mov    0x14(%ebp),%edx
    3937:	c7 45 e4 00 00 00 00 	movl   $0x0,-0x1c(%ebp)
    393e:	85 d2                	test   %edx,%edx
    3940:	74 29                	je     396b <str_ncpy+0x4b>
    3942:	31 c9                	xor    %ecx,%ecx
    3944:	8b 7d 10             	mov    0x10(%ebp),%edi
    3947:	48                   	dec    %eax
    3948:	ba 01 00 00 00       	mov    $0x1,%edx
    394d:	89 45 d8             	mov    %eax,-0x28(%ebp)
    3950:	8a 04 0f             	mov    (%edi,%ecx,1),%al
    3953:	84 c0                	test   %al,%al
    3955:	78 60                	js     39b7 <str_ncpy+0x97>
    3957:	90                   	nop
    3958:	39 55 14             	cmp    %edx,0x14(%ebp)
    395b:	0f 83 82 01 00 00    	jae    3ae3 <str_ncpy+0x1c3>
    3961:	8b 45 e4             	mov    -0x1c(%ebp),%eax
    3964:	8b 4d d8             	mov    -0x28(%ebp),%ecx
    3967:	39 c8                	cmp    %ecx,%eax
    3969:	72 15                	jb     3980 <str_ncpy+0x60>
    396b:	8b 7d e4             	mov    -0x1c(%ebp),%edi
    396e:	8b 45 08             	mov    0x8(%ebp),%eax
    3971:	c6 04 38 00          	movb   $0x0,(%eax,%edi,1)
    3975:	8d 65 f4             	lea    -0xc(%ebp),%esp
    3978:	5b                   	pop    %ebx
    3979:	5e                   	pop    %esi
    397a:	5f                   	pop    %edi
    397b:	5d                   	pop    %ebp
    397c:	c3                   	ret    
    397d:	8d 76 00             	lea    0x0(%esi),%esi
    3980:	89 45 e0             	mov    %eax,-0x20(%ebp)
    3983:	89 d1                	mov    %edx,%ecx
    3985:	c6 45 de 00          	movb   $0x0,-0x22(%ebp)
    3989:	c6 45 df 7f          	movb   $0x7f,-0x21(%ebp)
    398d:	b8 3f 00 00 00       	mov    $0x3f,%eax
    3992:	8b 55 e4             	mov    -0x1c(%ebp),%edx
    3995:	22 45 df             	and    -0x21(%ebp),%al
    3998:	8b 75 08             	mov    0x8(%ebp),%esi
    399b:	0a 45 de             	or     -0x22(%ebp),%al
    399e:	88 04 16             	mov    %al,(%esi,%edx,1)
    39a1:	8b 45 e0             	mov    -0x20(%ebp),%eax
    39a4:	40                   	inc    %eax
    39a5:	8d 51 01             	lea    0x1(%ecx),%edx
    39a8:	89 45 e4             	mov    %eax,-0x1c(%ebp)
    39ab:	39 55 14             	cmp    %edx,0x14(%ebp)
    39ae:	72 bb                	jb     396b <str_ncpy+0x4b>
    39b0:	8a 04 0f             	mov    (%edi,%ecx,1),%al
    39b3:	84 c0                	test   %al,%al
    39b5:	79 a1                	jns    3958 <str_ncpy+0x38>
    39b7:	88 c1                	mov    %al,%cl
    39b9:	83 e1 e0             	and    $0xffffffe0,%ecx
    39bc:	80 f9 c0             	cmp    $0xc0,%cl
    39bf:	74 21                	je     39e2 <str_ncpy+0xc2>
    39c1:	88 c1                	mov    %al,%cl
    39c3:	83 e1 f0             	and    $0xfffffff0,%ecx
    39c6:	80 f9 e0             	cmp    $0xe0,%cl
    39c9:	0f 84 08 01 00 00    	je     3ad7 <str_ncpy+0x1b7>
    39cf:	88 c1                	mov    %al,%cl
    39d1:	83 e1 f8             	and    $0xfffffff8,%ecx
    39d4:	80 f9 f0             	cmp    $0xf0,%cl
    39d7:	75 88                	jne    3961 <str_ncpy+0x41>
    39d9:	b1 07                	mov    $0x7,%cl
    39db:	be 03 00 00 00       	mov    $0x3,%esi
    39e0:	eb 07                	jmp    39e9 <str_ncpy+0xc9>
    39e2:	b1 1f                	mov    $0x1f,%cl
    39e4:	be 01 00 00 00       	mov    $0x1,%esi
    39e9:	01 d6                	add    %edx,%esi
    39eb:	39 75 14             	cmp    %esi,0x14(%ebp)
    39ee:	0f 82 6d ff ff ff    	jb     3961 <str_ncpy+0x41>
    39f4:	21 c8                	and    %ecx,%eax
    39f6:	8d 4a 01             	lea    0x1(%edx),%ecx
    39f9:	8a 14 17             	mov    (%edi,%edx,1),%dl
    39fc:	25 ff 00 00 00       	and    $0xff,%eax
    3a01:	88 d3                	mov    %dl,%bl
    3a03:	83 e3 c0             	and    $0xffffffc0,%ebx
    3a06:	80 fb 80             	cmp    $0x80,%bl
    3a09:	74 18                	je     3a23 <str_ncpy+0x103>
    3a0b:	e9 c0 00 00 00       	jmp    3ad0 <str_ncpy+0x1b0>
    3a10:	41                   	inc    %ecx
    3a11:	8a 54 0f ff          	mov    -0x1(%edi,%ecx,1),%dl
    3a15:	88 d3                	mov    %dl,%bl
    3a17:	83 e3 c0             	and    $0xffffffc0,%ebx
    3a1a:	80 fb 80             	cmp    $0x80,%bl
    3a1d:	0f 85 ad 00 00 00    	jne    3ad0 <str_ncpy+0x1b0>
    3a23:	c1 e0 06             	shl    $0x6,%eax
    3a26:	83 e2 3f             	and    $0x3f,%edx
    3a29:	09 d0                	or     %edx,%eax
    3a2b:	39 f1                	cmp    %esi,%ecx
    3a2d:	75 e1                	jne    3a10 <str_ncpy+0xf0>
    3a2f:	85 c0                	test   %eax,%eax
    3a31:	0f 84 34 ff ff ff    	je     396b <str_ncpy+0x4b>
    3a37:	8b 55 e4             	mov    -0x1c(%ebp),%edx
    3a3a:	39 55 d8             	cmp    %edx,-0x28(%ebp)
    3a3d:	0f 86 28 ff ff ff    	jbe    396b <str_ncpy+0x4b>
    3a43:	3d ff ff 10 00       	cmp    $0x10ffff,%eax
    3a48:	0f 87 1d ff ff ff    	ja     396b <str_ncpy+0x4b>
    3a4e:	a9 80 ff ff ff       	test   $0xffffff80,%eax
    3a53:	0f 84 94 00 00 00    	je     3aed <str_ncpy+0x1cd>
    3a59:	a9 00 f8 ff ff       	test   $0xfffff800,%eax
    3a5e:	74 60                	je     3ac0 <str_ncpy+0x1a0>
    3a60:	89 c2                	mov    %eax,%edx
    3a62:	81 e2 00 00 ff ff    	and    $0xffff0000,%edx
    3a68:	83 fa 01             	cmp    $0x1,%edx
    3a6b:	19 f6                	sbb    %esi,%esi
    3a6d:	89 f3                	mov    %esi,%ebx
    3a6f:	89 f2                	mov    %esi,%edx
    3a71:	83 e3 f0             	and    $0xfffffff0,%ebx
    3a74:	83 c2 03             	add    $0x3,%edx
    3a77:	83 eb 10             	sub    $0x10,%ebx
    3a7a:	88 5d de             	mov    %bl,-0x22(%ebp)
    3a7d:	89 f3                	mov    %esi,%ebx
    3a7f:	83 e3 08             	and    $0x8,%ebx
    3a82:	83 c3 07             	add    $0x7,%ebx
    3a85:	88 5d df             	mov    %bl,-0x21(%ebp)
    3a88:	8b 75 e4             	mov    -0x1c(%ebp),%esi
    3a8b:	01 d6                	add    %edx,%esi
    3a8d:	89 75 e0             	mov    %esi,-0x20(%ebp)
    3a90:	39 75 d8             	cmp    %esi,-0x28(%ebp)
    3a93:	0f 86 d2 fe ff ff    	jbe    396b <str_ncpy+0x4b>
    3a99:	8b 5d 08             	mov    0x8(%ebp),%ebx
    3a9c:	8b 75 e4             	mov    -0x1c(%ebp),%esi
    3a9f:	01 de                	add    %ebx,%esi
    3aa1:	8d b4 26 00 00 00 00 	lea    0x0(%esi,%eiz,1),%esi
    3aa8:	88 c3                	mov    %al,%bl
    3aaa:	c1 e8 06             	shr    $0x6,%eax
    3aad:	83 e3 3f             	and    $0x3f,%ebx
    3ab0:	83 cb 80             	or     $0xffffff80,%ebx
    3ab3:	88 1c 16             	mov    %bl,(%esi,%edx,1)
    3ab6:	4a                   	dec    %edx
    3ab7:	75 ef                	jne    3aa8 <str_ncpy+0x188>
    3ab9:	e9 d4 fe ff ff       	jmp    3992 <str_ncpy+0x72>
    3abe:	66 90                	xchg   %ax,%ax
    3ac0:	c6 45 de c0          	movb   $0xc0,-0x22(%ebp)
    3ac4:	c6 45 df 1f          	movb   $0x1f,-0x21(%ebp)
    3ac8:	ba 01 00 00 00       	mov    $0x1,%edx
    3acd:	eb b9                	jmp    3a88 <str_ncpy+0x168>
    3acf:	90                   	nop
    3ad0:	89 ca                	mov    %ecx,%edx
    3ad2:	e9 8a fe ff ff       	jmp    3961 <str_ncpy+0x41>
    3ad7:	b1 0f                	mov    $0xf,%cl
    3ad9:	be 02 00 00 00       	mov    $0x2,%esi
    3ade:	e9 06 ff ff ff       	jmp    39e9 <str_ncpy+0xc9>
    3ae3:	83 e0 7f             	and    $0x7f,%eax
    3ae6:	89 d1                	mov    %edx,%ecx
    3ae8:	e9 42 ff ff ff       	jmp    3a2f <str_ncpy+0x10f>
    3aed:	89 55 e0             	mov    %edx,-0x20(%ebp)
    3af0:	c6 45 de 00          	movb   $0x0,-0x22(%ebp)
    3af4:	c6 45 df 7f          	movb   $0x7f,-0x21(%ebp)
    3af8:	e9 98 fe ff ff       	jmp    3995 <str_ncpy+0x75>
    3afd:	50                   	push   %eax
    3afe:	68 0c 03 00 00       	push   $0x30c
    3b03:	68 77 45 02 00       	push   $0x24577
    3b08:	68 28 5b 02 00       	push   $0x25b28
    3b0d:	e8 2e aa 01 00       	call   1e540 <assert_abort>
    3b12:	8d b4 26 00 00 00 00 	lea    0x0(%esi,%eiz,1),%esi
    3b19:	8d bc 27 00 00 00 00 	lea    0x0(%edi,%eiz,1),%edi

00003b20 <str_append>:
    3b20:	55                   	push   %ebp
    3b21:	31 c0                	xor    %eax,%eax
    3b23:	89 e5                	mov    %esp,%ebp
    3b25:	57                   	push   %edi
    3b26:	56                   	push   %esi
    3b27:	53                   	push   %ebx
    3b28:	83 ec 18             	sub    $0x18,%esp
    3b2b:	8b 4d 08             	mov    0x8(%ebp),%ecx
    3b2e:	8b 75 10             	mov    0x10(%ebp),%esi
    3b31:	80 39 00             	cmpb   $0x0,(%ecx)
    3b34:	74 09                	je     3b3f <str_append+0x1f>
    3b36:	66 90                	xchg   %ax,%ax
    3b38:	40                   	inc    %eax
    3b39:	80 3c 01 00          	cmpb   $0x0,(%ecx,%eax,1)
    3b3d:	75 f9                	jne    3b38 <str_append+0x18>
    3b3f:	39 45 0c             	cmp    %eax,0xc(%ebp)
    3b42:	77 0c                	ja     3b50 <str_append+0x30>
    3b44:	83 c4 18             	add    $0x18,%esp
    3b47:	5b                   	pop    %ebx
    3b48:	5e                   	pop    %esi
    3b49:	5f                   	pop    %edi
    3b4a:	5d                   	pop    %ebp
    3b4b:	c3                   	ret    
    3b4c:	8d 74 26 00          	lea    0x0(%esi,%eiz,1),%esi
    3b50:	8b 55 0c             	mov    0xc(%ebp),%edx
    3b53:	c7 45 f0 00 00 00 00 	movl   $0x0,-0x10(%ebp)
    3b5a:	29 c2                	sub    %eax,%edx
    3b5c:	01 c8                	add    %ecx,%eax
    3b5e:	89 45 ec             	mov    %eax,-0x14(%ebp)
    3b61:	31 ff                	xor    %edi,%edi
    3b63:	8d 42 ff             	lea    -0x1(%edx),%eax
    3b66:	89 45 e0             	mov    %eax,-0x20(%ebp)
    3b69:	8d b4 26 00 00 00 00 	lea    0x0(%esi,%eiz,1),%esi
    3b70:	8a 04 3e             	mov    (%esi,%edi,1),%al
    3b73:	8d 4f 01             	lea    0x1(%edi),%ecx
    3b76:	84 c0                	test   %al,%al
    3b78:	78 2e                	js     3ba8 <str_append+0x88>
    3b7a:	83 e0 7f             	and    $0x7f,%eax
    3b7d:	89 cf                	mov    %ecx,%edi
    3b7f:	85 c0                	test   %eax,%eax
    3b81:	74 0f                	je     3b92 <str_append+0x72>
    3b83:	8b 55 f0             	mov    -0x10(%ebp),%edx
    3b86:	39 55 e0             	cmp    %edx,-0x20(%ebp)
    3b89:	76 07                	jbe    3b92 <str_append+0x72>
    3b8b:	3d ff ff 10 00       	cmp    $0x10ffff,%eax
    3b90:	76 4f                	jbe    3be1 <str_append+0xc1>
    3b92:	8b 75 f0             	mov    -0x10(%ebp),%esi
    3b95:	8b 45 ec             	mov    -0x14(%ebp),%eax
    3b98:	c6 04 30 00          	movb   $0x0,(%eax,%esi,1)
    3b9c:	83 c4 18             	add    $0x18,%esp
    3b9f:	5b                   	pop    %ebx
    3ba0:	5e                   	pop    %esi
    3ba1:	5f                   	pop    %edi
    3ba2:	5d                   	pop    %ebp
    3ba3:	c3                   	ret    
    3ba4:	8d 74 26 00          	lea    0x0(%esi,%eiz,1),%esi
    3ba8:	88 c2                	mov    %al,%dl
    3baa:	83 e2 e0             	and    $0xffffffe0,%edx
    3bad:	80 fa c0             	cmp    $0xc0,%dl
    3bb0:	0f 84 d3 00 00 00    	je     3c89 <str_append+0x169>
    3bb6:	88 c2                	mov    %al,%dl
    3bb8:	83 e2 f0             	and    $0xfffffff0,%edx
    3bbb:	80 fa e0             	cmp    $0xe0,%dl
    3bbe:	0f 84 24 01 00 00    	je     3ce8 <str_append+0x1c8>
    3bc4:	88 c2                	mov    %al,%dl
    3bc6:	83 e2 f8             	and    $0xfffffff8,%edx
    3bc9:	80 fa f0             	cmp    $0xf0,%dl
    3bcc:	0f 84 22 01 00 00    	je     3cf4 <str_append+0x1d4>
    3bd2:	8b 7d e0             	mov    -0x20(%ebp),%edi
    3bd5:	39 7d f0             	cmp    %edi,-0x10(%ebp)
    3bd8:	73 b8                	jae    3b92 <str_append+0x72>
    3bda:	89 cf                	mov    %ecx,%edi
    3bdc:	b8 3f 00 00 00       	mov    $0x3f,%eax
    3be1:	a9 80 ff ff ff       	test   $0xffffff80,%eax
    3be6:	0f 84 14 01 00 00    	je     3d00 <str_append+0x1e0>
    3bec:	a9 00 f8 ff ff       	test   $0xfffff800,%eax
    3bf1:	74 6d                	je     3c60 <str_append+0x140>
    3bf3:	a9 00 00 ff ff       	test   $0xffff0000,%eax
    3bf8:	74 7e                	je     3c78 <str_append+0x158>
    3bfa:	a9 00 00 e0 ff       	test   $0xffe00000,%eax
    3bff:	75 91                	jne    3b92 <str_append+0x72>
    3c01:	c6 45 e6 f0          	movb   $0xf0,-0x1a(%ebp)
    3c05:	c6 45 e7 07          	movb   $0x7,-0x19(%ebp)
    3c09:	c7 45 dc 03 00 00 00 	movl   $0x3,-0x24(%ebp)
    3c10:	8b 4d f0             	mov    -0x10(%ebp),%ecx
    3c13:	8b 5d dc             	mov    -0x24(%ebp),%ebx
    3c16:	01 cb                	add    %ecx,%ebx
    3c18:	89 5d e8             	mov    %ebx,-0x18(%ebp)
    3c1b:	3b 5d e0             	cmp    -0x20(%ebp),%ebx
    3c1e:	0f 83 6e ff ff ff    	jae    3b92 <str_append+0x72>
    3c24:	8b 55 ec             	mov    -0x14(%ebp),%edx
    3c27:	89 cb                	mov    %ecx,%ebx
    3c29:	01 d3                	add    %edx,%ebx
    3c2b:	8b 55 dc             	mov    -0x24(%ebp),%edx
    3c2e:	66 90                	xchg   %ax,%ax
    3c30:	88 c1                	mov    %al,%cl
    3c32:	c1 e8 06             	shr    $0x6,%eax
    3c35:	83 e1 3f             	and    $0x3f,%ecx
    3c38:	83 c9 80             	or     $0xffffff80,%ecx
    3c3b:	88 0c 13             	mov    %cl,(%ebx,%edx,1)
    3c3e:	4a                   	dec    %edx
    3c3f:	75 ef                	jne    3c30 <str_append+0x110>
    3c41:	8b 55 f0             	mov    -0x10(%ebp),%edx
    3c44:	22 45 e7             	and    -0x19(%ebp),%al
    3c47:	8b 5d ec             	mov    -0x14(%ebp),%ebx
    3c4a:	0a 45 e6             	or     -0x1a(%ebp),%al
    3c4d:	88 04 13             	mov    %al,(%ebx,%edx,1)
    3c50:	8b 45 e8             	mov    -0x18(%ebp),%eax
    3c53:	40                   	inc    %eax
    3c54:	89 45 f0             	mov    %eax,-0x10(%ebp)
    3c57:	e9 14 ff ff ff       	jmp    3b70 <str_append+0x50>
    3c5c:	8d 74 26 00          	lea    0x0(%esi,%eiz,1),%esi
    3c60:	c6 45 e6 c0          	movb   $0xc0,-0x1a(%ebp)
    3c64:	c6 45 e7 1f          	movb   $0x1f,-0x19(%ebp)
    3c68:	c7 45 dc 01 00 00 00 	movl   $0x1,-0x24(%ebp)
    3c6f:	eb 9f                	jmp    3c10 <str_append+0xf0>
    3c71:	8d b4 26 00 00 00 00 	lea    0x0(%esi,%eiz,1),%esi
    3c78:	c6 45 e6 e0          	movb   $0xe0,-0x1a(%ebp)
    3c7c:	c6 45 e7 0f          	movb   $0xf,-0x19(%ebp)
    3c80:	c7 45 dc 02 00 00 00 	movl   $0x2,-0x24(%ebp)
    3c87:	eb 87                	jmp    3c10 <str_append+0xf0>
    3c89:	83 e0 1f             	and    $0x1f,%eax
    3c8c:	c7 45 e8 01 00 00 00 	movl   $0x1,-0x18(%ebp)
    3c93:	8a 14 0e             	mov    (%esi,%ecx,1),%dl
    3c96:	83 c7 02             	add    $0x2,%edi
    3c99:	88 d3                	mov    %dl,%bl
    3c9b:	83 e3 c0             	and    $0xffffffc0,%ebx
    3c9e:	80 fb 80             	cmp    $0x80,%bl
    3ca1:	75 24                	jne    3cc7 <str_append+0x1a7>
    3ca3:	8b 5d e8             	mov    -0x18(%ebp),%ebx
    3ca6:	01 d9                	add    %ebx,%ecx
    3ca8:	c1 e0 06             	shl    $0x6,%eax
    3cab:	83 e2 3f             	and    $0x3f,%edx
    3cae:	09 d0                	or     %edx,%eax
    3cb0:	39 cf                	cmp    %ecx,%edi
    3cb2:	0f 84 c7 fe ff ff    	je     3b7f <str_append+0x5f>
    3cb8:	47                   	inc    %edi
    3cb9:	8a 54 3e ff          	mov    -0x1(%esi,%edi,1),%dl
    3cbd:	88 d3                	mov    %dl,%bl
    3cbf:	83 e3 c0             	and    $0xffffffc0,%ebx
    3cc2:	80 fb 80             	cmp    $0x80,%bl
    3cc5:	74 e1                	je     3ca8 <str_append+0x188>
    3cc7:	8b 45 f0             	mov    -0x10(%ebp),%eax
    3cca:	39 45 e0             	cmp    %eax,-0x20(%ebp)
    3ccd:	0f 86 bf fe ff ff    	jbe    3b92 <str_append+0x72>
    3cd3:	89 45 e8             	mov    %eax,-0x18(%ebp)
    3cd6:	c6 45 e6 00          	movb   $0x0,-0x1a(%ebp)
    3cda:	c6 45 e7 7f          	movb   $0x7f,-0x19(%ebp)
    3cde:	b8 3f 00 00 00       	mov    $0x3f,%eax
    3ce3:	e9 59 ff ff ff       	jmp    3c41 <str_append+0x121>
    3ce8:	83 e0 0f             	and    $0xf,%eax
    3ceb:	c7 45 e8 02 00 00 00 	movl   $0x2,-0x18(%ebp)
    3cf2:	eb 9f                	jmp    3c93 <str_append+0x173>
    3cf4:	83 e0 07             	and    $0x7,%eax
    3cf7:	c7 45 e8 03 00 00 00 	movl   $0x3,-0x18(%ebp)
    3cfe:	eb 93                	jmp    3c93 <str_append+0x173>
    3d00:	8b 5d f0             	mov    -0x10(%ebp),%ebx
    3d03:	c6 45 e6 00          	movb   $0x0,-0x1a(%ebp)
    3d07:	89 5d e8             	mov    %ebx,-0x18(%ebp)
    3d0a:	c6 45 e7 7f          	movb   $0x7f,-0x19(%ebp)
    3d0e:	89 da                	mov    %ebx,%edx
    3d10:	e9 2f ff ff ff       	jmp    3c44 <str_append+0x124>
    3d15:	8d 74 26 00          	lea    0x0(%esi,%eiz,1),%esi
    3d19:	8d bc 27 00 00 00 00 	lea    0x0(%edi,%eiz,1),%edi

00003d20 <spascii_to_str>:
    3d20:	55                   	push   %ebp
    3d21:	89 e5                	mov    %esp,%ebp
    3d23:	57                   	push   %edi
    3d24:	56                   	push   %esi
    3d25:	53                   	push   %ebx
    3d26:	83 ec 1c             	sub    $0x1c,%esp
    3d29:	8b 45 0c             	mov    0xc(%ebp),%eax
    3d2c:	8b 75 08             	mov    0x8(%ebp),%esi
    3d2f:	8b 7d 14             	mov    0x14(%ebp),%edi
    3d32:	85 c0                	test   %eax,%eax
    3d34:	74 6f                	je     3da5 <spascii_to_str+0x85>
    3d36:	85 ff                	test   %edi,%edi
    3d38:	74 67                	je     3da1 <spascii_to_str+0x81>
    3d3a:	8b 4d 10             	mov    0x10(%ebp),%ecx
    3d3d:	48                   	dec    %eax
    3d3e:	89 45 e0             	mov    %eax,-0x20(%ebp)
    3d41:	31 d2                	xor    %edx,%edx
    3d43:	8d 04 39             	lea    (%ecx,%edi,1),%eax
    3d46:	31 ff                	xor    %edi,%edi
    3d48:	89 45 e4             	mov    %eax,-0x1c(%ebp)
    3d4b:	31 c0                	xor    %eax,%eax
    3d4d:	eb 17                	jmp    3d66 <spascii_to_str+0x46>
    3d4f:	90                   	nop
    3d50:	39 55 e0             	cmp    %edx,-0x20(%ebp)
    3d53:	76 3b                	jbe    3d90 <spascii_to_str+0x70>
    3d55:	88 1c 16             	mov    %bl,(%esi,%edx,1)
    3d58:	42                   	inc    %edx
    3d59:	80 fb 20             	cmp    $0x20,%bl
    3d5c:	74 02                	je     3d60 <spascii_to_str+0x40>
    3d5e:	89 d7                	mov    %edx,%edi
    3d60:	41                   	inc    %ecx
    3d61:	39 4d e4             	cmp    %ecx,-0x1c(%ebp)
    3d64:	74 1d                	je     3d83 <spascii_to_str+0x63>
    3d66:	8a 19                	mov    (%ecx),%bl
    3d68:	84 db                	test   %bl,%bl
    3d6a:	79 e4                	jns    3d50 <spascii_to_str+0x30>
    3d6c:	39 55 e0             	cmp    %edx,-0x20(%ebp)
    3d6f:	76 1f                	jbe    3d90 <spascii_to_str+0x70>
    3d71:	c6 04 16 3f          	movb   $0x3f,(%esi,%edx,1)
    3d75:	41                   	inc    %ecx
    3d76:	42                   	inc    %edx
    3d77:	b8 f6 fe ff ff       	mov    $0xfffffef6,%eax
    3d7c:	89 d7                	mov    %edx,%edi
    3d7e:	39 4d e4             	cmp    %ecx,-0x1c(%ebp)
    3d81:	75 e3                	jne    3d66 <spascii_to_str+0x46>
    3d83:	c6 04 3e 00          	movb   $0x0,(%esi,%edi,1)
    3d87:	8d 65 f4             	lea    -0xc(%ebp),%esp
    3d8a:	5b                   	pop    %ebx
    3d8b:	5e                   	pop    %esi
    3d8c:	5f                   	pop    %edi
    3d8d:	5d                   	pop    %ebp
    3d8e:	c3                   	ret    
    3d8f:	90                   	nop
    3d90:	c6 04 16 00          	movb   $0x0,(%esi,%edx,1)
    3d94:	8d 65 f4             	lea    -0xc(%ebp),%esp
    3d97:	b8 f0 ff ff ff       	mov    $0xfffffff0,%eax
    3d9c:	5b                   	pop    %ebx
    3d9d:	5e                   	pop    %esi
    3d9e:	5f                   	pop    %edi
    3d9f:	5d                   	pop    %ebp
    3da0:	c3                   	ret    
    3da1:	31 c0                	xor    %eax,%eax
    3da3:	eb de                	jmp    3d83 <spascii_to_str+0x63>
    3da5:	50                   	push   %eax
    3da6:	68 52 03 00 00       	push   $0x352
    3dab:	68 77 45 02 00       	push   $0x24577
    3db0:	68 28 5b 02 00       	push   $0x25b28
    3db5:	e8 86 a7 01 00       	call   1e540 <assert_abort>
    3dba:	8d b6 00 00 00 00    	lea    0x0(%esi),%esi

00003dc0 <wstr_to_str>:
    3dc0:	55                   	push   %ebp
    3dc1:	89 e5                	mov    %esp,%ebp
    3dc3:	57                   	push   %edi
    3dc4:	56                   	push   %esi
    3dc5:	53                   	push   %ebx
    3dc6:	83 ec 1c             	sub    $0x1c,%esp
    3dc9:	8b 55 0c             	mov    0xc(%ebp),%edx
    3dcc:	8b 4d 10             	mov    0x10(%ebp),%ecx
    3dcf:	85 d2                	test   %edx,%edx
    3dd1:	0f 84 f0 00 00 00    	je     3ec7 <wstr_to_str+0x107>
    3dd7:	8b 01                	mov    (%ecx),%eax
    3dd9:	85 c0                	test   %eax,%eax
    3ddb:	0f 84 c5 00 00 00    	je     3ea6 <wstr_to_str+0xe6>
    3de1:	4a                   	dec    %edx
    3de2:	89 55 e4             	mov    %edx,-0x1c(%ebp)
    3de5:	0f 84 bb 00 00 00    	je     3ea6 <wstr_to_str+0xe6>
    3deb:	3d ff ff 10 00       	cmp    $0x10ffff,%eax
    3df0:	0f 87 b0 00 00 00    	ja     3ea6 <wstr_to_str+0xe6>
    3df6:	8d 59 04             	lea    0x4(%ecx),%ebx
    3df9:	31 c9                	xor    %ecx,%ecx
    3dfb:	89 df                	mov    %ebx,%edi
    3dfd:	a9 80 ff ff ff       	test   $0xffffff80,%eax
    3e02:	75 48                	jne    3e4c <wstr_to_str+0x8c>
    3e04:	8d 74 26 00          	lea    0x0(%esi,%eiz,1),%esi
    3e08:	39 4d e4             	cmp    %ecx,-0x1c(%ebp)
    3e0b:	0f 86 97 00 00 00    	jbe    3ea8 <wstr_to_str+0xe8>
    3e11:	89 4d e0             	mov    %ecx,-0x20(%ebp)
    3e14:	c6 45 de 00          	movb   $0x0,-0x22(%ebp)
    3e18:	c6 45 df 7f          	movb   $0x7f,-0x21(%ebp)
    3e1c:	8d 74 26 00          	lea    0x0(%esi,%eiz,1),%esi
    3e20:	22 45 df             	and    -0x21(%ebp),%al
    3e23:	8b 75 08             	mov    0x8(%ebp),%esi
    3e26:	0a 45 de             	or     -0x22(%ebp),%al
    3e29:	88 04 0e             	mov    %al,(%esi,%ecx,1)
    3e2c:	8b 4d e0             	mov    -0x20(%ebp),%ecx
    3e2f:	8b 07                	mov    (%edi),%eax
    3e31:	41                   	inc    %ecx
    3e32:	85 c0                	test   %eax,%eax
    3e34:	74 72                	je     3ea8 <wstr_to_str+0xe8>
    3e36:	3b 4d e4             	cmp    -0x1c(%ebp),%ecx
    3e39:	73 6d                	jae    3ea8 <wstr_to_str+0xe8>
    3e3b:	83 c7 04             	add    $0x4,%edi
    3e3e:	3d ff ff 10 00       	cmp    $0x10ffff,%eax
    3e43:	77 63                	ja     3ea8 <wstr_to_str+0xe8>
    3e45:	a9 80 ff ff ff       	test   $0xffffff80,%eax
    3e4a:	74 bc                	je     3e08 <wstr_to_str+0x48>
    3e4c:	a9 00 f8 ff ff       	test   $0xfffff800,%eax
    3e51:	74 65                	je     3eb8 <wstr_to_str+0xf8>
    3e53:	89 c2                	mov    %eax,%edx
    3e55:	81 e2 00 00 ff ff    	and    $0xffff0000,%edx
    3e5b:	83 fa 01             	cmp    $0x1,%edx
    3e5e:	19 f6                	sbb    %esi,%esi
    3e60:	89 f3                	mov    %esi,%ebx
    3e62:	89 f2                	mov    %esi,%edx
    3e64:	83 e3 f0             	and    $0xfffffff0,%ebx
    3e67:	83 c2 03             	add    $0x3,%edx
    3e6a:	83 eb 10             	sub    $0x10,%ebx
    3e6d:	88 5d de             	mov    %bl,-0x22(%ebp)
    3e70:	89 f3                	mov    %esi,%ebx
    3e72:	83 e3 08             	and    $0x8,%ebx
    3e75:	83 c3 07             	add    $0x7,%ebx
    3e78:	88 5d df             	mov    %bl,-0x21(%ebp)
    3e7b:	8d 34 0a             	lea    (%edx,%ecx,1),%esi
    3e7e:	89 75 e0             	mov    %esi,-0x20(%ebp)
    3e81:	39 75 e4             	cmp    %esi,-0x1c(%ebp)
    3e84:	76 22                	jbe    3ea8 <wstr_to_str+0xe8>
    3e86:	8b 75 08             	mov    0x8(%ebp),%esi
    3e89:	01 ce                	add    %ecx,%esi
    3e8b:	90                   	nop
    3e8c:	8d 74 26 00          	lea    0x0(%esi,%eiz,1),%esi
    3e90:	88 c3                	mov    %al,%bl
    3e92:	c1 e8 06             	shr    $0x6,%eax
    3e95:	83 e3 3f             	and    $0x3f,%ebx
    3e98:	83 cb 80             	or     $0xffffff80,%ebx
    3e9b:	88 1c 16             	mov    %bl,(%esi,%edx,1)
    3e9e:	4a                   	dec    %edx
    3e9f:	75 ef                	jne    3e90 <wstr_to_str+0xd0>
    3ea1:	e9 7a ff ff ff       	jmp    3e20 <wstr_to_str+0x60>
    3ea6:	31 c9                	xor    %ecx,%ecx
    3ea8:	8b 45 08             	mov    0x8(%ebp),%eax
    3eab:	c6 04 08 00          	movb   $0x0,(%eax,%ecx,1)
    3eaf:	8d 65 f4             	lea    -0xc(%ebp),%esp
    3eb2:	5b                   	pop    %ebx
    3eb3:	5e                   	pop    %esi
    3eb4:	5f                   	pop    %edi
    3eb5:	5d                   	pop    %ebp
    3eb6:	c3                   	ret    
    3eb7:	90                   	nop
    3eb8:	c6 45 de c0          	movb   $0xc0,-0x22(%ebp)
    3ebc:	c6 45 df 1f          	movb   $0x1f,-0x21(%ebp)
    3ec0:	ba 01 00 00 00       	mov    $0x1,%edx
    3ec5:	eb b4                	jmp    3e7b <wstr_to_str+0xbb>
    3ec7:	50                   	push   %eax
    3ec8:	68 80 03 00 00       	push   $0x380
    3ecd:	68 77 45 02 00       	push   $0x24577
    3ed2:	68 28 5b 02 00       	push   $0x25b28
    3ed7:	e8 64 a6 01 00       	call   1e540 <assert_abort>
    3edc:	8d 74 26 00          	lea    0x0(%esi,%eiz,1),%esi

00003ee0 <utf16_to_str>:
    3ee0:	55                   	push   %ebp
    3ee1:	89 e5                	mov    %esp,%ebp
    3ee3:	57                   	push   %edi
    3ee4:	56                   	push   %esi
    3ee5:	53                   	push   %ebx
    3ee6:	83 ec 1c             	sub    $0x1c,%esp
    3ee9:	8b 45 0c             	mov    0xc(%ebp),%eax
    3eec:	85 c0                	test   %eax,%eax
    3eee:	0f 84 4c 01 00 00    	je     4040 <utf16_to_str+0x160>
    3ef4:	8b 7d 10             	mov    0x10(%ebp),%edi
    3ef7:	48                   	dec    %eax
    3ef8:	31 c9                	xor    %ecx,%ecx
    3efa:	89 45 dc             	mov    %eax,-0x24(%ebp)
    3efd:	66 8b 17             	mov    (%edi),%dx
    3f00:	31 ff                	xor    %edi,%edi
    3f02:	66 85 d2             	test   %dx,%dx
    3f05:	0f 84 24 01 00 00    	je     402f <utf16_to_str+0x14f>
    3f0b:	90                   	nop
    3f0c:	8d 74 26 00          	lea    0x0(%esi,%eiz,1),%esi
    3f10:	31 c0                	xor    %eax,%eax
    3f12:	66 89 d0             	mov    %dx,%ax
    3f15:	81 e2 00 fc ff ff    	and    $0xfffffc00,%edx
    3f1b:	66 81 fa 00 d8       	cmp    $0xd800,%dx
    3f20:	0f 84 ba 00 00 00    	je     3fe0 <utf16_to_str+0x100>
    3f26:	47                   	inc    %edi
    3f27:	3b 4d dc             	cmp    -0x24(%ebp),%ecx
    3f2a:	72 14                	jb     3f40 <utf16_to_str+0x60>
    3f2c:	8b 7d 08             	mov    0x8(%ebp),%edi
    3f2f:	b8 f0 ff ff ff       	mov    $0xfffffff0,%eax
    3f34:	c6 04 0f 00          	movb   $0x0,(%edi,%ecx,1)
    3f38:	8d 65 f4             	lea    -0xc(%ebp),%esp
    3f3b:	5b                   	pop    %ebx
    3f3c:	5e                   	pop    %esi
    3f3d:	5f                   	pop    %edi
    3f3e:	5d                   	pop    %ebp
    3f3f:	c3                   	ret    
    3f40:	a9 80 ff 3f 00       	test   $0x3fff80,%eax
    3f45:	75 39                	jne    3f80 <utf16_to_str+0xa0>
    3f47:	89 4d e4             	mov    %ecx,-0x1c(%ebp)
    3f4a:	c6 45 e2 00          	movb   $0x0,-0x1e(%ebp)
    3f4e:	c6 45 e3 7f          	movb   $0x7f,-0x1d(%ebp)
    3f52:	22 45 e3             	and    -0x1d(%ebp),%al
    3f55:	8b 75 08             	mov    0x8(%ebp),%esi
    3f58:	0a 45 e2             	or     -0x1e(%ebp),%al
    3f5b:	88 04 0e             	mov    %al,(%esi,%ecx,1)
    3f5e:	8b 45 10             	mov    0x10(%ebp),%eax
    3f61:	8b 4d e4             	mov    -0x1c(%ebp),%ecx
    3f64:	66 8b 14 78          	mov    (%eax,%edi,2),%dx
    3f68:	41                   	inc    %ecx
    3f69:	66 85 d2             	test   %dx,%dx
    3f6c:	75 a2                	jne    3f10 <utf16_to_str+0x30>
    3f6e:	89 f7                	mov    %esi,%edi
    3f70:	31 c0                	xor    %eax,%eax
    3f72:	c6 04 0f 00          	movb   $0x0,(%edi,%ecx,1)
    3f76:	8d 65 f4             	lea    -0xc(%ebp),%esp
    3f79:	5b                   	pop    %ebx
    3f7a:	5e                   	pop    %esi
    3f7b:	5f                   	pop    %edi
    3f7c:	5d                   	pop    %ebp
    3f7d:	c3                   	ret    
    3f7e:	66 90                	xchg   %ax,%ax
    3f80:	a9 00 f8 3f 00       	test   $0x3ff800,%eax
    3f85:	0f 84 95 00 00 00    	je     4020 <utf16_to_str+0x140>
    3f8b:	89 c2                	mov    %eax,%edx
    3f8d:	81 e2 00 00 ff ff    	and    $0xffff0000,%edx
    3f93:	83 fa 01             	cmp    $0x1,%edx
    3f96:	19 f6                	sbb    %esi,%esi
    3f98:	89 f3                	mov    %esi,%ebx
    3f9a:	89 f2                	mov    %esi,%edx
    3f9c:	83 e3 f0             	and    $0xfffffff0,%ebx
    3f9f:	83 c2 03             	add    $0x3,%edx
    3fa2:	83 eb 10             	sub    $0x10,%ebx
    3fa5:	88 5d e2             	mov    %bl,-0x1e(%ebp)
    3fa8:	89 f3                	mov    %esi,%ebx
    3faa:	83 e3 08             	and    $0x8,%ebx
    3fad:	83 c3 07             	add    $0x7,%ebx
    3fb0:	88 5d e3             	mov    %bl,-0x1d(%ebp)
    3fb3:	8d 34 11             	lea    (%ecx,%edx,1),%esi
    3fb6:	89 75 e4             	mov    %esi,-0x1c(%ebp)
    3fb9:	3b 75 dc             	cmp    -0x24(%ebp),%esi
    3fbc:	0f 83 6a ff ff ff    	jae    3f2c <utf16_to_str+0x4c>
    3fc2:	8b 75 08             	mov    0x8(%ebp),%esi
    3fc5:	01 ce                	add    %ecx,%esi
    3fc7:	90                   	nop
    3fc8:	88 c3                	mov    %al,%bl
    3fca:	c1 e8 06             	shr    $0x6,%eax
    3fcd:	83 e3 3f             	and    $0x3f,%ebx
    3fd0:	83 cb 80             	or     $0xffffff80,%ebx
    3fd3:	88 1c 16             	mov    %bl,(%esi,%edx,1)
    3fd6:	4a                   	dec    %edx
    3fd7:	75 ef                	jne    3fc8 <utf16_to_str+0xe8>
    3fd9:	e9 74 ff ff ff       	jmp    3f52 <utf16_to_str+0x72>
    3fde:	66 90                	xchg   %ax,%ax
    3fe0:	8b 75 10             	mov    0x10(%ebp),%esi
    3fe3:	66 8b 54 7e 02       	mov    0x2(%esi,%edi,2),%dx
    3fe8:	66 85 d2             	test   %dx,%dx
    3feb:	74 42                	je     402f <utf16_to_str+0x14f>
    3fed:	89 d3                	mov    %edx,%ebx
    3fef:	81 e3 00 fc ff ff    	and    $0xfffffc00,%ebx
    3ff5:	66 81 fb 00 dc       	cmp    $0xdc00,%bx
    3ffa:	75 33                	jne    402f <utf16_to_str+0x14f>
    3ffc:	c1 e0 0a             	shl    $0xa,%eax
    3fff:	81 e2 ff 03 00 00    	and    $0x3ff,%edx
    4005:	25 00 fc 0f 00       	and    $0xffc00,%eax
    400a:	83 c7 02             	add    $0x2,%edi
    400d:	8d 84 10 00 00 01 00 	lea    0x10000(%eax,%edx,1),%eax
    4014:	e9 0e ff ff ff       	jmp    3f27 <utf16_to_str+0x47>
    4019:	8d b4 26 00 00 00 00 	lea    0x0(%esi,%eiz,1),%esi
    4020:	c6 45 e2 c0          	movb   $0xc0,-0x1e(%ebp)
    4024:	c6 45 e3 1f          	movb   $0x1f,-0x1d(%ebp)
    4028:	ba 01 00 00 00       	mov    $0x1,%edx
    402d:	eb 84                	jmp    3fb3 <utf16_to_str+0xd3>
    402f:	8b 7d 08             	mov    0x8(%ebp),%edi
    4032:	31 c0                	xor    %eax,%eax
    4034:	c6 04 0f 00          	movb   $0x0,(%edi,%ecx,1)
    4038:	8d 65 f4             	lea    -0xc(%ebp),%esp
    403b:	5b                   	pop    %ebx
    403c:	5e                   	pop    %esi
    403d:	5f                   	pop    %edi
    403e:	5d                   	pop    %ebp
    403f:	c3                   	ret    
    4040:	50                   	push   %eax
    4041:	68 a0 03 00 00       	push   $0x3a0
    4046:	68 77 45 02 00       	push   $0x24577
    404b:	68 28 5b 02 00       	push   $0x25b28
    4050:	e8 eb a4 01 00       	call   1e540 <assert_abort>
    4055:	8d 74 26 00          	lea    0x0(%esi,%eiz,1),%esi
    4059:	8d bc 27 00 00 00 00 	lea    0x0(%edi,%eiz,1),%edi

00004060 <str_to_utf16>:
    4060:	55                   	push   %ebp
    4061:	89 e5                	mov    %esp,%ebp
    4063:	57                   	push   %edi
    4064:	56                   	push   %esi
    4065:	53                   	push   %ebx
    4066:	83 ec 1c             	sub    $0x1c,%esp
    4069:	8b 45 0c             	mov    0xc(%ebp),%eax
    406c:	8b 7d 10             	mov    0x10(%ebp),%edi
    406f:	85 c0                	test   %eax,%eax
    4071:	0f 84 6a 01 00 00    	je     41e1 <str_to_utf16+0x181>
    4077:	48                   	dec    %eax
    4078:	31 c9                	xor    %ecx,%ecx
    407a:	c7 45 e4 00 00 00 00 	movl   $0x0,-0x1c(%ebp)
    4081:	89 45 e0             	mov    %eax,-0x20(%ebp)
    4084:	8d 74 26 00          	lea    0x0(%esi,%eiz,1),%esi
    4088:	8a 04 0f             	mov    (%edi,%ecx,1),%al
    408b:	8d 71 01             	lea    0x1(%ecx),%esi
    408e:	84 c0                	test   %al,%al
    4090:	78 26                	js     40b8 <str_to_utf16+0x58>
    4092:	83 e0 7f             	and    $0x7f,%eax
    4095:	0f 85 35 01 00 00    	jne    41d0 <str_to_utf16+0x170>
    409b:	31 c0                	xor    %eax,%eax
    409d:	8b 75 e4             	mov    -0x1c(%ebp),%esi
    40a0:	8b 7d 08             	mov    0x8(%ebp),%edi
    40a3:	66 c7 04 77 00 00    	movw   $0x0,(%edi,%esi,2)
    40a9:	8d 65 f4             	lea    -0xc(%ebp),%esp
    40ac:	5b                   	pop    %ebx
    40ad:	5e                   	pop    %esi
    40ae:	5f                   	pop    %edi
    40af:	5d                   	pop    %ebp
    40b0:	c3                   	ret    
    40b1:	8d b4 26 00 00 00 00 	lea    0x0(%esi,%eiz,1),%esi
    40b8:	88 c2                	mov    %al,%dl
    40ba:	83 e2 e0             	and    $0xffffffe0,%edx
    40bd:	80 fa c0             	cmp    $0xc0,%dl
    40c0:	74 46                	je     4108 <str_to_utf16+0xa8>
    40c2:	88 c2                	mov    %al,%dl
    40c4:	83 e2 f0             	and    $0xfffffff0,%edx
    40c7:	80 fa e0             	cmp    $0xe0,%dl
    40ca:	0f 84 da 00 00 00    	je     41aa <str_to_utf16+0x14a>
    40d0:	88 c2                	mov    %al,%dl
    40d2:	83 e2 f8             	and    $0xfffffff8,%edx
    40d5:	80 fa f0             	cmp    $0xf0,%dl
    40d8:	0f 84 db 00 00 00    	je     41b9 <str_to_utf16+0x159>
    40de:	89 f1                	mov    %esi,%ecx
    40e0:	b8 3f 00 00 00       	mov    $0x3f,%eax
    40e5:	8b 75 08             	mov    0x8(%ebp),%esi
    40e8:	8b 5d e4             	mov    -0x1c(%ebp),%ebx
    40eb:	66 89 04 5e          	mov    %ax,(%esi,%ebx,2)
    40ef:	8b 75 e4             	mov    -0x1c(%ebp),%esi
    40f2:	46                   	inc    %esi
    40f3:	89 75 e4             	mov    %esi,-0x1c(%ebp)
    40f6:	8b 45 e4             	mov    -0x1c(%ebp),%eax
    40f9:	3b 45 e0             	cmp    -0x20(%ebp),%eax
    40fc:	72 8a                	jb     4088 <str_to_utf16+0x28>
    40fe:	b8 f0 ff ff ff       	mov    $0xfffffff0,%eax
    4103:	8b 75 e4             	mov    -0x1c(%ebp),%esi
    4106:	eb 98                	jmp    40a0 <str_to_utf16+0x40>
    4108:	83 e0 1f             	and    $0x1f,%eax
    410b:	c7 45 dc 01 00 00 00 	movl   $0x1,-0x24(%ebp)
    4112:	8a 14 37             	mov    (%edi,%esi,1),%dl
    4115:	83 c1 02             	add    $0x2,%ecx
    4118:	88 d3                	mov    %dl,%bl
    411a:	83 e3 c0             	and    $0xffffffc0,%ebx
    411d:	80 fb 80             	cmp    $0x80,%bl
    4120:	75 7e                	jne    41a0 <str_to_utf16+0x140>
    4122:	8b 5d dc             	mov    -0x24(%ebp),%ebx
    4125:	01 de                	add    %ebx,%esi
    4127:	eb 16                	jmp    413f <str_to_utf16+0xdf>
    4129:	8d b4 26 00 00 00 00 	lea    0x0(%esi,%eiz,1),%esi
    4130:	41                   	inc    %ecx
    4131:	8a 54 0f ff          	mov    -0x1(%edi,%ecx,1),%dl
    4135:	88 d3                	mov    %dl,%bl
    4137:	83 e3 c0             	and    $0xffffffc0,%ebx
    413a:	80 fb 80             	cmp    $0x80,%bl
    413d:	75 61                	jne    41a0 <str_to_utf16+0x140>
    413f:	c1 e0 06             	shl    $0x6,%eax
    4142:	83 e2 3f             	and    $0x3f,%edx
    4145:	09 d0                	or     %edx,%eax
    4147:	39 f1                	cmp    %esi,%ecx
    4149:	75 e5                	jne    4130 <str_to_utf16+0xd0>
    414b:	85 c0                	test   %eax,%eax
    414d:	74 b4                	je     4103 <str_to_utf16+0xa3>
    414f:	3d 00 00 01 00       	cmp    $0x10000,%eax
    4154:	7e 72                	jle    41c8 <str_to_utf16+0x168>
    4156:	8b 75 e4             	mov    -0x1c(%ebp),%esi
    4159:	8d 56 02             	lea    0x2(%esi),%edx
    415c:	3b 55 e0             	cmp    -0x20(%ebp),%edx
    415f:	73 76                	jae    41d7 <str_to_utf16+0x177>
    4161:	2d 00 00 01 00       	sub    $0x10000,%eax
    4166:	8d 1c 36             	lea    (%esi,%esi,1),%ebx
    4169:	89 c2                	mov    %eax,%edx
    416b:	89 45 e4             	mov    %eax,-0x1c(%ebp)
    416e:	c1 fa 0a             	sar    $0xa,%edx
    4171:	8b 45 08             	mov    0x8(%ebp),%eax
    4174:	81 ca 00 d8 ff ff    	or     $0xffffd800,%edx
    417a:	66 89 14 18          	mov    %dx,(%eax,%ebx,1)
    417e:	8b 45 e4             	mov    -0x1c(%ebp),%eax
    4181:	25 ff 03 00 00       	and    $0x3ff,%eax
    4186:	8b 55 08             	mov    0x8(%ebp),%edx
    4189:	0d 00 dc ff ff       	or     $0xffffdc00,%eax
    418e:	66 89 44 1a 02       	mov    %ax,0x2(%edx,%ebx,1)
    4193:	8d 46 01             	lea    0x1(%esi),%eax
    4196:	89 45 e4             	mov    %eax,-0x1c(%ebp)
    4199:	e9 51 ff ff ff       	jmp    40ef <str_to_utf16+0x8f>
    419e:	66 90                	xchg   %ax,%ax
    41a0:	b8 3f 00 00 00       	mov    $0x3f,%eax
    41a5:	e9 3b ff ff ff       	jmp    40e5 <str_to_utf16+0x85>
    41aa:	83 e0 0f             	and    $0xf,%eax
    41ad:	c7 45 dc 02 00 00 00 	movl   $0x2,-0x24(%ebp)
    41b4:	e9 59 ff ff ff       	jmp    4112 <str_to_utf16+0xb2>
    41b9:	83 e0 07             	and    $0x7,%eax
    41bc:	c7 45 dc 03 00 00 00 	movl   $0x3,-0x24(%ebp)
    41c3:	e9 4a ff ff ff       	jmp    4112 <str_to_utf16+0xb2>
    41c8:	89 ce                	mov    %ecx,%esi
    41ca:	8d b6 00 00 00 00    	lea    0x0(%esi),%esi
    41d0:	89 f1                	mov    %esi,%ecx
    41d2:	e9 0e ff ff ff       	jmp    40e5 <str_to_utf16+0x85>
    41d7:	b8 f0 ff ff ff       	mov    $0xfffffff0,%eax
    41dc:	e9 bf fe ff ff       	jmp    40a0 <str_to_utf16+0x40>
    41e1:	57                   	push   %edi
    41e2:	68 bf 03 00 00       	push   $0x3bf
    41e7:	68 77 45 02 00       	push   $0x24577
    41ec:	68 28 5b 02 00       	push   $0x25b28
    41f1:	e8 4a a3 01 00       	call   1e540 <assert_abort>
    41f6:	8d 76 00             	lea    0x0(%esi),%esi
    41f9:	8d bc 27 00 00 00 00 	lea    0x0(%edi,%eiz,1),%edi

00004200 <wstr_to_astr>:
    4200:	55                   	push   %ebp
    4201:	89 e5                	mov    %esp,%ebp
    4203:	57                   	push   %edi
    4204:	56                   	push   %esi
    4205:	53                   	push   %ebx
    4206:	83 ec 3c             	sub    $0x3c,%esp
    4209:	8b 45 08             	mov    0x8(%ebp),%eax
    420c:	8b 30                	mov    (%eax),%esi
    420e:	85 f6                	test   %esi,%esi
    4210:	0f 84 bf 00 00 00    	je     42d5 <wstr_to_astr+0xd5>
    4216:	81 fe ff ff 10 00    	cmp    $0x10ffff,%esi
    421c:	0f 87 b3 00 00 00    	ja     42d5 <wstr_to_astr+0xd5>
    4222:	83 c0 04             	add    $0x4,%eax
    4225:	c7 45 d4 00 00 00 00 	movl   $0x0,-0x2c(%ebp)
    422c:	89 45 c4             	mov    %eax,-0x3c(%ebp)
    422f:	89 45 d0             	mov    %eax,-0x30(%ebp)
    4232:	8d b6 00 00 00 00    	lea    0x0(%esi),%esi
    4238:	f7 c6 80 ff ff ff    	test   $0xffffff80,%esi
    423e:	0f 85 b4 00 00 00    	jne    42f8 <wstr_to_astr+0xf8>
    4244:	89 f2                	mov    %esi,%edx
    4246:	b9 01 00 00 00       	mov    $0x1,%ecx
    424b:	31 c0                	xor    %eax,%eax
    424d:	b3 7f                	mov    $0x7f,%bl
    424f:	21 da                	and    %ebx,%edx
    4251:	09 d0                	or     %edx,%eax
    4253:	88 45 e4             	mov    %al,-0x1c(%ebp)
    4256:	8b 45 d4             	mov    -0x2c(%ebp),%eax
    4259:	01 c8                	add    %ecx,%eax
    425b:	89 45 d4             	mov    %eax,-0x2c(%ebp)
    425e:	8b 45 d0             	mov    -0x30(%ebp),%eax
    4261:	8b 30                	mov    (%eax),%esi
    4263:	85 f6                	test   %esi,%esi
    4265:	74 11                	je     4278 <wstr_to_astr+0x78>
    4267:	8b 45 d0             	mov    -0x30(%ebp),%eax
    426a:	83 c0 04             	add    $0x4,%eax
    426d:	81 fe ff ff 10 00    	cmp    $0x10ffff,%esi
    4273:	89 45 d0             	mov    %eax,-0x30(%ebp)
    4276:	76 c0                	jbe    4238 <wstr_to_astr+0x38>
    4278:	83 ec 0c             	sub    $0xc,%esp
    427b:	8b 45 d4             	mov    -0x2c(%ebp),%eax
    427e:	40                   	inc    %eax
    427f:	50                   	push   %eax
    4280:	e8 6b de 00 00       	call   120f0 <malloc>
    4285:	83 c4 10             	add    $0x10,%esp
    4288:	89 c1                	mov    %eax,%ecx
    428a:	85 c0                	test   %eax,%eax
    428c:	74 3d                	je     42cb <wstr_to_astr+0xcb>
    428e:	8b 45 08             	mov    0x8(%ebp),%eax
    4291:	8b 00                	mov    (%eax),%eax
    4293:	85 c0                	test   %eax,%eax
    4295:	74 2d                	je     42c4 <wstr_to_astr+0xc4>
    4297:	8b 7d d4             	mov    -0x2c(%ebp),%edi
    429a:	85 ff                	test   %edi,%edi
    429c:	74 26                	je     42c4 <wstr_to_astr+0xc4>
    429e:	3d ff ff 10 00       	cmp    $0x10ffff,%eax
    42a3:	77 1f                	ja     42c4 <wstr_to_astr+0xc4>
    42a5:	8b 7d c4             	mov    -0x3c(%ebp),%edi
    42a8:	31 db                	xor    %ebx,%ebx
    42aa:	89 7d d0             	mov    %edi,-0x30(%ebp)
    42ad:	89 df                	mov    %ebx,%edi
    42af:	90                   	nop
    42b0:	a9 80 ff ff ff       	test   $0xffffff80,%eax
    42b5:	0f 85 c5 00 00 00    	jne    4380 <wstr_to_astr+0x180>
    42bb:	39 7d d4             	cmp    %edi,-0x2c(%ebp)
    42be:	0f 87 8e 01 00 00    	ja     4452 <wstr_to_astr+0x252>
    42c4:	8b 45 d4             	mov    -0x2c(%ebp),%eax
    42c7:	c6 04 01 00          	movb   $0x0,(%ecx,%eax,1)
    42cb:	8d 65 f4             	lea    -0xc(%ebp),%esp
    42ce:	89 c8                	mov    %ecx,%eax
    42d0:	5b                   	pop    %ebx
    42d1:	5e                   	pop    %esi
    42d2:	5f                   	pop    %edi
    42d3:	5d                   	pop    %ebp
    42d4:	c3                   	ret    
    42d5:	83 ec 0c             	sub    $0xc,%esp
    42d8:	6a 01                	push   $0x1
    42da:	e8 11 de 00 00       	call   120f0 <malloc>
    42df:	83 c4 10             	add    $0x10,%esp
    42e2:	89 c1                	mov    %eax,%ecx
    42e4:	85 c0                	test   %eax,%eax
    42e6:	74 e3                	je     42cb <wstr_to_astr+0xcb>
    42e8:	c7 45 d4 00 00 00 00 	movl   $0x0,-0x2c(%ebp)
    42ef:	eb d3                	jmp    42c4 <wstr_to_astr+0xc4>
    42f1:	8d b4 26 00 00 00 00 	lea    0x0(%esi,%eiz,1),%esi
    42f8:	f7 c6 00 f8 ff ff    	test   $0xfffff800,%esi
    42fe:	0f 84 1c 01 00 00    	je     4420 <wstr_to_astr+0x220>
    4304:	89 f2                	mov    %esi,%edx
    4306:	81 e2 00 00 ff ff    	and    $0xffff0000,%edx
    430c:	83 fa 01             	cmp    $0x1,%edx
    430f:	19 c0                	sbb    %eax,%eax
    4311:	83 e0 f0             	and    $0xfffffff0,%eax
    4314:	83 e8 10             	sub    $0x10,%eax
    4317:	83 fa 01             	cmp    $0x1,%edx
    431a:	19 db                	sbb    %ebx,%ebx
    431c:	83 e3 08             	and    $0x8,%ebx
    431f:	83 c3 07             	add    $0x7,%ebx
    4322:	83 fa 01             	cmp    $0x1,%edx
    4325:	19 c9                	sbb    %ecx,%ecx
    4327:	83 c1 04             	add    $0x4,%ecx
    432a:	83 fa 01             	cmp    $0x1,%edx
    432d:	19 ff                	sbb    %edi,%edi
    432f:	89 fa                	mov    %edi,%edx
    4331:	89 7d c8             	mov    %edi,-0x38(%ebp)
    4334:	83 c2 03             	add    $0x3,%edx
    4337:	89 d7                	mov    %edx,%edi
    4339:	89 f2                	mov    %esi,%edx
    433b:	83 e2 3f             	and    $0x3f,%edx
    433e:	89 7d cc             	mov    %edi,-0x34(%ebp)
    4341:	83 ca 80             	or     $0xffffff80,%edx
    4344:	88 54 3d e4          	mov    %dl,-0x1c(%ebp,%edi,1)
    4348:	89 f2                	mov    %esi,%edx
    434a:	c1 ea 06             	shr    $0x6,%edx
    434d:	8b 7d c8             	mov    -0x38(%ebp),%edi
    4350:	83 e2 3f             	and    $0x3f,%edx
    4353:	83 ca 80             	or     $0xffffff80,%edx
    4356:	88 54 3d e6          	mov    %dl,-0x1a(%ebp,%edi,1)
    435a:	89 f2                	mov    %esi,%edx
    435c:	c1 ea 0c             	shr    $0xc,%edx
    435f:	83 7d cc 02          	cmpl   $0x2,-0x34(%ebp)
    4363:	0f 84 e6 fe ff ff    	je     424f <wstr_to_astr+0x4f>
    4369:	c1 ee 12             	shr    $0x12,%esi
    436c:	83 e2 3f             	and    $0x3f,%edx
    436f:	83 ca 80             	or     $0xffffff80,%edx
    4372:	88 55 e5             	mov    %dl,-0x1b(%ebp)
    4375:	89 f2                	mov    %esi,%edx
    4377:	e9 d3 fe ff ff       	jmp    424f <wstr_to_astr+0x4f>
    437c:	8d 74 26 00          	lea    0x0(%esi,%eiz,1),%esi
    4380:	a9 00 f8 ff ff       	test   $0xfffff800,%eax
    4385:	0f 84 b5 00 00 00    	je     4440 <wstr_to_astr+0x240>
    438b:	89 c2                	mov    %eax,%edx
    438d:	81 e2 00 00 ff ff    	and    $0xffff0000,%edx
    4393:	83 fa 01             	cmp    $0x1,%edx
    4396:	19 f6                	sbb    %esi,%esi
    4398:	89 f3                	mov    %esi,%ebx
    439a:	89 f2                	mov    %esi,%edx
    439c:	83 e3 f0             	and    $0xfffffff0,%ebx
    439f:	83 c2 03             	add    $0x3,%edx
    43a2:	83 eb 10             	sub    $0x10,%ebx
    43a5:	88 5d c8             	mov    %bl,-0x38(%ebp)
    43a8:	89 f3                	mov    %esi,%ebx
    43aa:	83 e3 08             	and    $0x8,%ebx
    43ad:	83 c3 07             	add    $0x7,%ebx
    43b0:	88 5d cc             	mov    %bl,-0x34(%ebp)
    43b3:	8d 34 3a             	lea    (%edx,%edi,1),%esi
    43b6:	89 75 c4             	mov    %esi,-0x3c(%ebp)
    43b9:	39 75 d4             	cmp    %esi,-0x2c(%ebp)
    43bc:	0f 86 02 ff ff ff    	jbe    42c4 <wstr_to_astr+0xc4>
    43c2:	8d 34 39             	lea    (%ecx,%edi,1),%esi
    43c5:	8d 76 00             	lea    0x0(%esi),%esi
    43c8:	88 c3                	mov    %al,%bl
    43ca:	c1 e8 06             	shr    $0x6,%eax
    43cd:	83 e3 3f             	and    $0x3f,%ebx
    43d0:	83 cb 80             	or     $0xffffff80,%ebx
    43d3:	88 1c 16             	mov    %bl,(%esi,%edx,1)
    43d6:	4a                   	dec    %edx
    43d7:	75 ef                	jne    43c8 <wstr_to_astr+0x1c8>
    43d9:	8b 55 cc             	mov    -0x34(%ebp),%edx
    43dc:	8b 5d c8             	mov    -0x38(%ebp),%ebx
    43df:	21 d0                	and    %edx,%eax
    43e1:	09 d8                	or     %ebx,%eax
    43e3:	88 04 39             	mov    %al,(%ecx,%edi,1)
    43e6:	8b 7d c4             	mov    -0x3c(%ebp),%edi
    43e9:	8b 45 d0             	mov    -0x30(%ebp),%eax
    43ec:	47                   	inc    %edi
    43ed:	39 7d d4             	cmp    %edi,-0x2c(%ebp)
    43f0:	8b 00                	mov    (%eax),%eax
    43f2:	0f 86 cc fe ff ff    	jbe    42c4 <wstr_to_astr+0xc4>
    43f8:	85 c0                	test   %eax,%eax
    43fa:	0f 84 c4 fe ff ff    	je     42c4 <wstr_to_astr+0xc4>
    4400:	8b 75 d0             	mov    -0x30(%ebp),%esi
    4403:	83 c6 04             	add    $0x4,%esi
    4406:	3d ff ff 10 00       	cmp    $0x10ffff,%eax
    440b:	89 75 d0             	mov    %esi,-0x30(%ebp)
    440e:	0f 86 9c fe ff ff    	jbe    42b0 <wstr_to_astr+0xb0>
    4414:	e9 ab fe ff ff       	jmp    42c4 <wstr_to_astr+0xc4>
    4419:	8d b4 26 00 00 00 00 	lea    0x0(%esi,%eiz,1),%esi
    4420:	89 f0                	mov    %esi,%eax
    4422:	b9 02 00 00 00       	mov    $0x2,%ecx
    4427:	83 e0 3f             	and    $0x3f,%eax
    442a:	b3 1f                	mov    $0x1f,%bl
    442c:	c1 ee 06             	shr    $0x6,%esi
    442f:	83 c8 80             	or     $0xffffff80,%eax
    4432:	88 45 e5             	mov    %al,-0x1b(%ebp)
    4435:	89 f2                	mov    %esi,%edx
    4437:	b0 c0                	mov    $0xc0,%al
    4439:	e9 11 fe ff ff       	jmp    424f <wstr_to_astr+0x4f>
    443e:	66 90                	xchg   %ax,%ax
    4440:	c6 45 c8 c0          	movb   $0xc0,-0x38(%ebp)
    4444:	c6 45 cc 1f          	movb   $0x1f,-0x34(%ebp)
    4448:	ba 01 00 00 00       	mov    $0x1,%edx
    444d:	e9 61 ff ff ff       	jmp    43b3 <wstr_to_astr+0x1b3>
    4452:	89 7d c4             	mov    %edi,-0x3c(%ebp)
    4455:	c6 45 c8 00          	movb   $0x0,-0x38(%ebp)
    4459:	c6 45 cc 7f          	movb   $0x7f,-0x34(%ebp)
    445d:	e9 77 ff ff ff       	jmp    43d9 <wstr_to_astr+0x1d9>
    4462:	8d b4 26 00 00 00 00 	lea    0x0(%esi,%eiz,1),%esi
    4469:	8d bc 27 00 00 00 00 	lea    0x0(%edi,%eiz,1),%edi

00004470 <str_to_wstr>:
    4470:	55                   	push   %ebp
    4471:	89 e5                	mov    %esp,%ebp
    4473:	57                   	push   %edi
    4474:	56                   	push   %esi
    4475:	53                   	push   %ebx
    4476:	83 ec 1c             	sub    $0x1c,%esp
    4479:	8b 45 0c             	mov    0xc(%ebp),%eax
    447c:	8b 7d 10             	mov    0x10(%ebp),%edi
    447f:	85 c0                	test   %eax,%eax
    4481:	0f 84 ef 00 00 00    	je     4576 <str_to_wstr+0x106>
    4487:	c7 45 e4 01 00 00 00 	movl   $0x1,-0x1c(%ebp)
    448e:	31 c9                	xor    %ecx,%ecx
    4490:	eb 20                	jmp    44b2 <str_to_wstr+0x42>
    4492:	8d b6 00 00 00 00    	lea    0x0(%esi),%esi
    4498:	83 e2 7f             	and    $0x7f,%edx
    449b:	89 f1                	mov    %esi,%ecx
    449d:	8b 45 08             	mov    0x8(%ebp),%eax
    44a0:	8b 75 e4             	mov    -0x1c(%ebp),%esi
    44a3:	85 d2                	test   %edx,%edx
    44a5:	89 54 b0 fc          	mov    %edx,-0x4(%eax,%esi,4)
    44a9:	74 55                	je     4500 <str_to_wstr+0x90>
    44ab:	8b 75 e4             	mov    -0x1c(%ebp),%esi
    44ae:	46                   	inc    %esi
    44af:	89 75 e4             	mov    %esi,-0x1c(%ebp)
    44b2:	8b 45 e4             	mov    -0x1c(%ebp),%eax
    44b5:	39 45 0c             	cmp    %eax,0xc(%ebp)
    44b8:	74 46                	je     4500 <str_to_wstr+0x90>
    44ba:	8a 14 0f             	mov    (%edi,%ecx,1),%dl
    44bd:	8d 71 01             	lea    0x1(%ecx),%esi
    44c0:	84 d2                	test   %dl,%dl
    44c2:	79 d4                	jns    4498 <str_to_wstr+0x28>
    44c4:	88 d0                	mov    %dl,%al
    44c6:	83 e0 e0             	and    $0xffffffe0,%eax
    44c9:	3c c0                	cmp    $0xc0,%al
    44cb:	74 49                	je     4516 <str_to_wstr+0xa6>
    44cd:	88 d0                	mov    %dl,%al
    44cf:	83 e0 f0             	and    $0xfffffff0,%eax
    44d2:	3c e0                	cmp    $0xe0,%al
    44d4:	0f 84 86 00 00 00    	je     4560 <str_to_wstr+0xf0>
    44da:	88 d0                	mov    %dl,%al
    44dc:	83 e0 f8             	and    $0xfffffff8,%eax
    44df:	3c f0                	cmp    $0xf0,%al
    44e1:	0f 84 84 00 00 00    	je     456b <str_to_wstr+0xfb>
    44e7:	89 f1                	mov    %esi,%ecx
    44e9:	8b 45 08             	mov    0x8(%ebp),%eax
    44ec:	8b 75 e4             	mov    -0x1c(%ebp),%esi
    44ef:	c7 44 b0 fc 3f 00 00 	movl   $0x3f,-0x4(%eax,%esi,4)
    44f6:	00 
    44f7:	eb b2                	jmp    44ab <str_to_wstr+0x3b>
    44f9:	8d b4 26 00 00 00 00 	lea    0x0(%esi,%eiz,1),%esi
    4500:	8b 7d 0c             	mov    0xc(%ebp),%edi
    4503:	8b 45 08             	mov    0x8(%ebp),%eax
    4506:	c7 44 b8 fc 00 00 00 	movl   $0x0,-0x4(%eax,%edi,4)
    450d:	00 
    450e:	8d 65 f4             	lea    -0xc(%ebp),%esp
    4511:	5b                   	pop    %ebx
    4512:	5e                   	pop    %esi
    4513:	5f                   	pop    %edi
    4514:	5d                   	pop    %ebp
    4515:	c3                   	ret    
    4516:	b0 1f                	mov    $0x1f,%al
    4518:	c7 45 e0 01 00 00 00 	movl   $0x1,-0x20(%ebp)
    451f:	21 c2                	and    %eax,%edx
    4521:	8a 04 37             	mov    (%edi,%esi,1),%al
    4524:	88 c3                	mov    %al,%bl
    4526:	81 e2 ff 00 00 00    	and    $0xff,%edx
    452c:	83 e3 c0             	and    $0xffffffc0,%ebx
    452f:	83 c1 02             	add    $0x2,%ecx
    4532:	80 fb 80             	cmp    $0x80,%bl
    4535:	75 b2                	jne    44e9 <str_to_wstr+0x79>
    4537:	8b 5d e0             	mov    -0x20(%ebp),%ebx
    453a:	01 de                	add    %ebx,%esi
    453c:	eb 11                	jmp    454f <str_to_wstr+0xdf>
    453e:	66 90                	xchg   %ax,%ax
    4540:	41                   	inc    %ecx
    4541:	8a 44 0f ff          	mov    -0x1(%edi,%ecx,1),%al
    4545:	88 c3                	mov    %al,%bl
    4547:	83 e3 c0             	and    $0xffffffc0,%ebx
    454a:	80 fb 80             	cmp    $0x80,%bl
    454d:	75 9a                	jne    44e9 <str_to_wstr+0x79>
    454f:	c1 e2 06             	shl    $0x6,%edx
    4552:	83 e0 3f             	and    $0x3f,%eax
    4555:	09 c2                	or     %eax,%edx
    4557:	39 ce                	cmp    %ecx,%esi
    4559:	75 e5                	jne    4540 <str_to_wstr+0xd0>
    455b:	e9 3d ff ff ff       	jmp    449d <str_to_wstr+0x2d>
    4560:	b0 0f                	mov    $0xf,%al
    4562:	c7 45 e0 02 00 00 00 	movl   $0x2,-0x20(%ebp)
    4569:	eb b4                	jmp    451f <str_to_wstr+0xaf>
    456b:	b0 07                	mov    $0x7,%al
    456d:	c7 45 e0 03 00 00 00 	movl   $0x3,-0x20(%ebp)
    4574:	eb a9                	jmp    451f <str_to_wstr+0xaf>
    4576:	57                   	push   %edi
    4577:	68 1c 04 00 00       	push   $0x41c
    457c:	68 77 45 02 00       	push   $0x24577
    4581:	68 85 45 02 00       	push   $0x24585
    4586:	e8 b5 9f 01 00       	call   1e540 <assert_abort>
    458b:	90                   	nop
    458c:	8d 74 26 00          	lea    0x0(%esi,%eiz,1),%esi

00004590 <str_to_awstr>:
    4590:	55                   	push   %ebp
    4591:	31 c9                	xor    %ecx,%ecx
    4593:	89 e5                	mov    %esp,%ebp
    4595:	57                   	push   %edi
    4596:	56                   	push   %esi
    4597:	53                   	push   %ebx
    4598:	83 ec 1c             	sub    $0x1c,%esp
    459b:	c7 45 e0 00 00 00 00 	movl   $0x0,-0x20(%ebp)
    45a2:	8b 7d 08             	mov    0x8(%ebp),%edi
    45a5:	eb 17                	jmp    45be <str_to_awstr+0x2e>
    45a7:	90                   	nop
    45a8:	83 e0 7f             	and    $0x7f,%eax
    45ab:	89 d9                	mov    %ebx,%ecx
    45ad:	89 45 e4             	mov    %eax,-0x1c(%ebp)
    45b0:	8b 45 e4             	mov    -0x1c(%ebp),%eax
    45b3:	85 c0                	test   %eax,%eax
    45b5:	74 3f                	je     45f6 <str_to_awstr+0x66>
    45b7:	8b 45 e0             	mov    -0x20(%ebp),%eax
    45ba:	40                   	inc    %eax
    45bb:	89 45 e0             	mov    %eax,-0x20(%ebp)
    45be:	8a 04 0f             	mov    (%edi,%ecx,1),%al
    45c1:	8d 59 01             	lea    0x1(%ecx),%ebx
    45c4:	84 c0                	test   %al,%al
    45c6:	79 e0                	jns    45a8 <str_to_awstr+0x18>
    45c8:	88 c2                	mov    %al,%dl
    45ca:	83 e2 e0             	and    $0xffffffe0,%edx
    45cd:	80 fa c0             	cmp    $0xc0,%dl
    45d0:	0f 84 df 00 00 00    	je     46b5 <str_to_awstr+0x125>
    45d6:	88 c2                	mov    %al,%dl
    45d8:	83 e2 f0             	and    $0xfffffff0,%edx
    45db:	80 fa e0             	cmp    $0xe0,%dl
    45de:	0f 84 70 01 00 00    	je     4754 <str_to_awstr+0x1c4>
    45e4:	88 c2                	mov    %al,%dl
    45e6:	83 e2 f8             	and    $0xfffffff8,%edx
    45e9:	80 fa f0             	cmp    $0xf0,%dl
    45ec:	0f 84 7e 01 00 00    	je     4770 <str_to_awstr+0x1e0>
    45f2:	89 d9                	mov    %ebx,%ecx
    45f4:	eb c1                	jmp    45b7 <str_to_awstr+0x27>
    45f6:	8b 75 e0             	mov    -0x20(%ebp),%esi
    45f9:	50                   	push   %eax
    45fa:	50                   	push   %eax
    45fb:	6a 04                	push   $0x4
    45fd:	8d 5e 01             	lea    0x1(%esi),%ebx
    4600:	53                   	push   %ebx
    4601:	e8 4a da 00 00       	call   12050 <calloc>
    4606:	83 c4 10             	add    $0x10,%esp
    4609:	89 45 dc             	mov    %eax,-0x24(%ebp)
    460c:	85 c0                	test   %eax,%eax
    460e:	0f 84 99 00 00 00    	je     46ad <str_to_awstr+0x11d>
    4614:	85 db                	test   %ebx,%ebx
    4616:	0f 84 70 01 00 00    	je     478c <str_to_awstr+0x1fc>
    461c:	31 c9                	xor    %ecx,%ecx
    461e:	c7 45 e4 01 00 00 00 	movl   $0x1,-0x1c(%ebp)
    4625:	85 f6                	test   %esi,%esi
    4627:	75 28                	jne    4651 <str_to_awstr+0xc1>
    4629:	eb 75                	jmp    46a0 <str_to_awstr+0x110>
    462b:	90                   	nop
    462c:	8d 74 26 00          	lea    0x0(%esi,%eiz,1),%esi
    4630:	83 e0 7f             	and    $0x7f,%eax
    4633:	89 f1                	mov    %esi,%ecx
    4635:	8b 75 dc             	mov    -0x24(%ebp),%esi
    4638:	8b 5d e4             	mov    -0x1c(%ebp),%ebx
    463b:	85 c0                	test   %eax,%eax
    463d:	89 44 9e fc          	mov    %eax,-0x4(%esi,%ebx,4)
    4641:	74 5d                	je     46a0 <str_to_awstr+0x110>
    4643:	8b 75 e4             	mov    -0x1c(%ebp),%esi
    4646:	89 f0                	mov    %esi,%eax
    4648:	40                   	inc    %eax
    4649:	39 75 e0             	cmp    %esi,-0x20(%ebp)
    464c:	76 52                	jbe    46a0 <str_to_awstr+0x110>
    464e:	89 45 e4             	mov    %eax,-0x1c(%ebp)
    4651:	8a 04 0f             	mov    (%edi,%ecx,1),%al
    4654:	8d 71 01             	lea    0x1(%ecx),%esi
    4657:	84 c0                	test   %al,%al
    4659:	79 d5                	jns    4630 <str_to_awstr+0xa0>
    465b:	88 c2                	mov    %al,%dl
    465d:	83 e2 e0             	and    $0xffffffe0,%edx
    4660:	80 fa c0             	cmp    $0xc0,%dl
    4663:	0f 84 9e 00 00 00    	je     4707 <str_to_awstr+0x177>
    4669:	88 c2                	mov    %al,%dl
    466b:	83 e2 f0             	and    $0xfffffff0,%edx
    466e:	80 fa e0             	cmp    $0xe0,%dl
    4671:	0f 84 ed 00 00 00    	je     4764 <str_to_awstr+0x1d4>
    4677:	88 c2                	mov    %al,%dl
    4679:	83 e2 f8             	and    $0xfffffff8,%edx
    467c:	80 fa f0             	cmp    $0xf0,%dl
    467f:	0f 84 fb 00 00 00    	je     4780 <str_to_awstr+0x1f0>
    4685:	89 f1                	mov    %esi,%ecx
    4687:	8b 45 dc             	mov    -0x24(%ebp),%eax
    468a:	8b 75 e4             	mov    -0x1c(%ebp),%esi
    468d:	c7 44 b0 fc 3f 00 00 	movl   $0x3f,-0x4(%eax,%esi,4)
    4694:	00 
    4695:	8b 75 e4             	mov    -0x1c(%ebp),%esi
    4698:	89 f0                	mov    %esi,%eax
    469a:	40                   	inc    %eax
    469b:	39 75 e0             	cmp    %esi,-0x20(%ebp)
    469e:	77 ae                	ja     464e <str_to_awstr+0xbe>
    46a0:	8b 45 dc             	mov    -0x24(%ebp),%eax
    46a3:	8b 7d e0             	mov    -0x20(%ebp),%edi
    46a6:	c7 04 b8 00 00 00 00 	movl   $0x0,(%eax,%edi,4)
    46ad:	8d 65 f4             	lea    -0xc(%ebp),%esp
    46b0:	5b                   	pop    %ebx
    46b1:	5e                   	pop    %esi
    46b2:	5f                   	pop    %edi
    46b3:	5d                   	pop    %ebp
    46b4:	c3                   	ret    
    46b5:	83 e0 1f             	and    $0x1f,%eax
    46b8:	be 01 00 00 00       	mov    $0x1,%esi
    46bd:	89 45 e4             	mov    %eax,-0x1c(%ebp)
    46c0:	8a 14 1f             	mov    (%edi,%ebx,1),%dl
    46c3:	83 c1 02             	add    $0x2,%ecx
    46c6:	88 d0                	mov    %dl,%al
