
vlaunch:     file format elf32-i386


Disassembly of section .init:

000010f4 <__entry>:
    10f4:	66 8c d0             	mov    %ss,%ax
    10f7:	8e d8                	mov    %eax,%ds
    10f9:	8e c0                	mov    %eax,%es
    10fb:	8e e0                	mov    %eax,%fs
    10fd:	b8 01 00 00 00       	mov    $0x1,%eax
    1102:	0f a2                	cpuid  
    1104:	0f ba e2 0b          	bt     $0xb,%edx
    1108:	73 0c                	jae    1116 <__entry+0x22>
    110a:	8d 05 d0 fa 01 00    	lea    0x1fad0,%eax
    1110:	c7 00 60 94 00 00    	movl   $0x9460,(%eax)
    1116:	6a 00                	push   $0x0
    1118:	6a 00                	push   $0x0
    111a:	89 e5                	mov    %esp,%ebp
    111c:	57                   	push   %edi
    111d:	e8 de 80 00 00       	call   9200 <__main@plt>

Disassembly of section .text:

00001130 <on_btn_click>:
    1130:	55                   	push   %ebp
    1131:	89 e5                	mov    %esp,%ebp
    1133:	56                   	push   %esi
    1134:	53                   	push   %ebx
    1135:	83 ec 4c             	sub    $0x4c,%esp
    1138:	8d 75 d0             	lea    -0x30(%ebp),%esi
    113b:	8b 45 08             	mov    0x8(%ebp),%eax
    113e:	50                   	push   %eax
    113f:	e8 0c 26 00 00       	call   3750 <widget_get_data>
    1144:	8b 15 d8 fa 01 00    	mov    0x1fad8,%edx
    114a:	89 c3                	mov    %eax,%ebx
    114c:	52                   	push   %edx
    114d:	50                   	push   %eax
    114e:	68 24 8f 00 00       	push   $0x8f24
    1153:	68 a3 8e 00 00       	push   $0x8ea3
    1158:	e8 f3 80 00 00       	call   9250 <printf@plt>
    115d:	83 c4 18             	add    $0x18,%esp
    1160:	8b 0d d8 fa 01 00    	mov    0x1fad8,%ecx
    1166:	8d 45 c8             	lea    -0x38(%ebp),%eax
    1169:	6a 00                	push   $0x0
    116b:	51                   	push   %ecx
    116c:	53                   	push   %ebx
    116d:	53                   	push   %ebx
    116e:	56                   	push   %esi
    116f:	50                   	push   %eax
    1170:	e8 0b 83 00 00       	call   9480 <task_spawnl@plt>
    1175:	83 c4 20             	add    $0x20,%esp
    1178:	85 c0                	test   %eax,%eax
    117a:	75 44                	jne    11c0 <on_btn_click+0x90>
    117c:	8d 45 c4             	lea    -0x3c(%ebp),%eax
    117f:	51                   	push   %ecx
    1180:	50                   	push   %eax
    1181:	8d 45 c0             	lea    -0x40(%ebp),%eax
    1184:	50                   	push   %eax
    1185:	56                   	push   %esi
    1186:	e8 f5 80 00 00       	call   9280 <task_wait@plt>
    118b:	83 c4 10             	add    $0x10,%esp
    118e:	85 c0                	test   %eax,%eax
    1190:	75 0e                	jne    11a0 <on_btn_click+0x70>
    1192:	8b 55 c0             	mov    -0x40(%ebp),%edx
    1195:	85 d2                	test   %edx,%edx
    1197:	75 07                	jne    11a0 <on_btn_click+0x70>
    1199:	8d 65 f8             	lea    -0x8(%ebp),%esp
    119c:	5b                   	pop    %ebx
    119d:	5e                   	pop    %esi
    119e:	5d                   	pop    %ebp
    119f:	c3                   	ret    
    11a0:	83 ec 0c             	sub    $0xc,%esp
    11a3:	50                   	push   %eax
    11a4:	e8 27 82 00 00       	call   93d0 <str_error@plt>
    11a9:	50                   	push   %eax
    11aa:	53                   	push   %ebx
    11ab:	68 24 8f 00 00       	push   $0x8f24
    11b0:	68 64 8f 00 00       	push   $0x8f64
    11b5:	e8 96 80 00 00       	call   9250 <printf@plt>
    11ba:	83 c4 20             	add    $0x20,%esp
    11bd:	eb da                	jmp    1199 <on_btn_click+0x69>
    11bf:	90                   	nop
    11c0:	83 ec 0c             	sub    $0xc,%esp
    11c3:	50                   	push   %eax
    11c4:	e8 07 82 00 00       	call   93d0 <str_error@plt>
    11c9:	8b 35 d8 fa 01 00    	mov    0x1fad8,%esi
    11cf:	89 04 24             	mov    %eax,(%esp)
    11d2:	56                   	push   %esi
    11d3:	53                   	push   %ebx
    11d4:	68 24 8f 00 00       	push   $0x8f24
    11d9:	68 44 8f 00 00       	push   $0x8f44
    11de:	e8 6d 80 00 00       	call   9250 <printf@plt>
    11e3:	83 c4 20             	add    $0x20,%esp
    11e6:	eb b1                	jmp    1199 <on_btn_click+0x69>
    11e8:	66 90                	xchg   %ax,%ax
    11ea:	66 90                	xchg   %ax,%ax
    11ec:	66 90                	xchg   %ax,%ax
    11ee:	66 90                	xchg   %ax,%ax

000011f0 <main>:
    11f0:	8d 4c 24 04          	lea    0x4(%esp),%ecx
    11f4:	83 e4 f0             	and    $0xfffffff0,%esp
    11f7:	ff 71 fc             	pushl  -0x4(%ecx)
    11fa:	55                   	push   %ebp
    11fb:	89 e5                	mov    %esp,%ebp
    11fd:	57                   	push   %edi
    11fe:	56                   	push   %esi
    11ff:	53                   	push   %ebx
    1200:	51                   	push   %ecx
    1201:	83 ec 28             	sub    $0x28,%esp
    1204:	8b 59 04             	mov    0x4(%ecx),%ebx
    1207:	83 39 01             	cmpl   $0x1,(%ecx)
    120a:	0f 8e ac 02 00 00    	jle    14bc <main+0x2cc>
    1210:	50                   	push   %eax
    1211:	a1 c0 ac 00 00       	mov    0xacc0,%eax
    1216:	6a 00                	push   $0x0
    1218:	50                   	push   %eax
    1219:	68 e0 ac 00 00       	push   $0xace0
    121e:	e8 5d 3e 00 00       	call   5080 <decode_tga>
    1223:	83 c4 10             	add    $0x10,%esp
    1226:	89 c6                	mov    %eax,%esi
    1228:	85 c0                	test   %eax,%eax
    122a:	0f 84 a3 02 00 00    	je     14d3 <main+0x2e3>
    1230:	8b 43 04             	mov    0x4(%ebx),%eax
    1233:	68 24 8f 00 00       	push   $0x8f24
    1238:	a3 d8 fa 01 00       	mov    %eax,0x1fad8
    123d:	6a 07                	push   $0x7
    123f:	6a 00                	push   $0x0
    1241:	50                   	push   %eax
    1242:	e8 49 36 00 00       	call   4890 <window_open>
    1247:	83 c4 10             	add    $0x10,%esp
    124a:	89 c3                	mov    %eax,%ebx
    124c:	85 c0                	test   %eax,%eax
    124e:	0f 84 96 02 00 00    	je     14ea <main+0x2fa>
    1254:	83 ec 0c             	sub    $0xc,%esp
    1257:	56                   	push   %esi
    1258:	6a 42                	push   $0x42
    125a:	68 c4 00 00 00       	push   $0xc4
    125f:	6a 00                	push   $0x0
    1261:	6a 00                	push   $0x0
    1263:	e8 f8 0d 00 00       	call   2060 <create_canvas>
    1268:	83 c4 18             	add    $0x18,%esp
    126b:	89 45 e0             	mov    %eax,-0x20(%ebp)
    126e:	68 00 00 00 ff       	push   $0xff000000
    1273:	6a ff                	push   $0xffffffff
    1275:	6a 10                	push   $0x10
    1277:	68 ea 8e 00 00       	push   $0x8eea
    127c:	6a 00                	push   $0x0
    127e:	6a 00                	push   $0x0
    1280:	e8 ab 22 00 00       	call   3530 <create_label>
    1285:	83 c4 1c             	add    $0x1c,%esp
    1288:	89 45 d4             	mov    %eax,-0x2c(%ebp)
    128b:	68 00 00 00 ff       	push   $0xff000000
    1290:	68 ba ba ba ff       	push   $0xffbababa
    1295:	6a ff                	push   $0xffffffff
    1297:	6a 10                	push   $0x10
    1299:	68 03 8f 00 00       	push   $0x8f03
    129e:	68 fe 8e 00 00       	push   $0x8efe
    12a3:	6a 00                	push   $0x0
    12a5:	e8 66 08 00 00       	call   1b10 <create_button>
    12aa:	83 c4 1c             	add    $0x1c,%esp
    12ad:	89 c7                	mov    %eax,%edi
    12af:	68 00 00 00 ff       	push   $0xff000000
    12b4:	68 ba ba ba ff       	push   $0xffbababa
    12b9:	6a ff                	push   $0xffffffff
    12bb:	6a 10                	push   $0x10
    12bd:	68 0e 8f 00 00       	push   $0x8f0e
    12c2:	68 09 8f 00 00       	push   $0x8f09
    12c7:	6a 00                	push   $0x0
    12c9:	e8 42 08 00 00       	call   1b10 <create_button>
    12ce:	83 c4 1c             	add    $0x1c,%esp
    12d1:	89 45 e4             	mov    %eax,-0x1c(%ebp)
    12d4:	68 00 00 00 ff       	push   $0xff000000
    12d9:	68 ba ba ba ff       	push   $0xffbababa
    12de:	6a ff                	push   $0xffffffff
    12e0:	6a 10                	push   $0x10
    12e2:	68 19 8f 00 00       	push   $0x8f19
    12e7:	68 14 8f 00 00       	push   $0x8f14
    12ec:	6a 00                	push   $0x0
    12ee:	e8 1d 08 00 00       	call   1b10 <create_button>
    12f3:	83 c4 1c             	add    $0x1c,%esp
    12f6:	89 45 dc             	mov    %eax,-0x24(%ebp)
    12f9:	68 00 00 00 ff       	push   $0xff000000
    12fe:	68 ba ba ba ff       	push   $0xffbababa
    1303:	6a ff                	push   $0xffffffff
    1305:	6a 10                	push   $0x10
    1307:	68 24 8f 00 00       	push   $0x8f24
    130c:	68 1f 8f 00 00       	push   $0x8f1f
    1311:	6a 00                	push   $0x0
    1313:	e8 f8 07 00 00       	call   1b10 <create_button>
    1318:	83 c4 14             	add    $0x14,%esp
    131b:	89 45 d8             	mov    %eax,-0x28(%ebp)
    131e:	53                   	push   %ebx
    131f:	e8 1c 38 00 00       	call   4b40 <window_root>
    1324:	c7 04 24 ff ff ff ff 	movl   $0xffffffff,(%esp)
    132b:	6a 06                	push   $0x6
    132d:	6a 01                	push   $0x1
    132f:	6a 00                	push   $0x0
    1331:	50                   	push   %eax
    1332:	e8 79 1c 00 00       	call   2fb0 <create_grid>
    1337:	83 c4 20             	add    $0x20,%esp
    133a:	89 c6                	mov    %eax,%esi
    133c:	83 7d e0 00          	cmpl   $0x0,-0x20(%ebp)
    1340:	0f 84 4d 01 00 00    	je     1493 <main+0x2a3>
    1346:	83 7d d4 00          	cmpl   $0x0,-0x2c(%ebp)
    134a:	0f 84 43 01 00 00    	je     1493 <main+0x2a3>
    1350:	85 ff                	test   %edi,%edi
    1352:	0f 84 3b 01 00 00    	je     1493 <main+0x2a3>
    1358:	83 7d e4 00          	cmpl   $0x0,-0x1c(%ebp)
    135c:	0f 84 31 01 00 00    	je     1493 <main+0x2a3>
    1362:	83 7d dc 00          	cmpl   $0x0,-0x24(%ebp)
    1366:	0f 94 c2             	sete   %dl
    1369:	83 7d d8 00          	cmpl   $0x0,-0x28(%ebp)
    136d:	0f 94 c0             	sete   %al
    1370:	08 c2                	or     %al,%dl
    1372:	0f 85 1b 01 00 00    	jne    1493 <main+0x2a3>
    1378:	85 f6                	test   %esi,%esi
    137a:	0f 84 13 01 00 00    	je     1493 <main+0x2a3>
    1380:	8d 87 90 01 00 00    	lea    0x190(%edi),%eax
    1386:	52                   	push   %edx
    1387:	68 30 11 00 00       	push   $0x1130
    138c:	57                   	push   %edi
    138d:	50                   	push   %eax
    138e:	e8 5d 0d 00 00       	call   20f0 <sig_connect>
    1393:	83 c4 0c             	add    $0xc,%esp
    1396:	8b 45 e4             	mov    -0x1c(%ebp),%eax
    1399:	68 30 11 00 00       	push   $0x1130
    139e:	50                   	push   %eax
    139f:	05 90 01 00 00       	add    $0x190,%eax
    13a4:	50                   	push   %eax
    13a5:	e8 46 0d 00 00       	call   20f0 <sig_connect>
    13aa:	8b 55 dc             	mov    -0x24(%ebp),%edx
    13ad:	83 c4 0c             	add    $0xc,%esp
    13b0:	8d 82 90 01 00 00    	lea    0x190(%edx),%eax
    13b6:	68 30 11 00 00       	push   $0x1130
    13bb:	52                   	push   %edx
    13bc:	50                   	push   %eax
    13bd:	e8 2e 0d 00 00       	call   20f0 <sig_connect>
    13c2:	8b 4d d8             	mov    -0x28(%ebp),%ecx
    13c5:	83 c4 0c             	add    $0xc,%esp
    13c8:	8d 81 90 01 00 00    	lea    0x190(%ecx),%eax
    13ce:	68 30 11 00 00       	push   $0x1130
    13d3:	51                   	push   %ecx
    13d4:	50                   	push   %eax
    13d5:	e8 16 0d 00 00       	call   20f0 <sig_connect>
    13da:	59                   	pop    %ecx
    13db:	58                   	pop    %eax
    13dc:	6a 01                	push   $0x1
    13de:	6a 01                	push   $0x1
    13e0:	6a 00                	push   $0x0
    13e2:	6a 00                	push   $0x0
    13e4:	ff 75 e0             	pushl  -0x20(%ebp)
    13e7:	56                   	push   %esi
    13e8:	ff 56 6c             	call   *0x6c(%esi)
    13eb:	83 c4 18             	add    $0x18,%esp
    13ee:	6a 01                	push   $0x1
    13f0:	6a 01                	push   $0x1
    13f2:	6a 01                	push   $0x1
    13f4:	6a 00                	push   $0x0
    13f6:	ff 75 d4             	pushl  -0x2c(%ebp)
    13f9:	56                   	push   %esi
    13fa:	ff 56 6c             	call   *0x6c(%esi)
    13fd:	83 c4 18             	add    $0x18,%esp
    1400:	6a 01                	push   $0x1
    1402:	6a 01                	push   $0x1
    1404:	6a 02                	push   $0x2
    1406:	6a 00                	push   $0x0
    1408:	57                   	push   %edi
    1409:	56                   	push   %esi
    140a:	ff 56 6c             	call   *0x6c(%esi)
    140d:	83 c4 18             	add    $0x18,%esp
    1410:	6a 01                	push   $0x1
    1412:	6a 01                	push   $0x1
    1414:	6a 03                	push   $0x3
    1416:	6a 00                	push   $0x0
    1418:	ff 75 e4             	pushl  -0x1c(%ebp)
    141b:	56                   	push   %esi
    141c:	ff 56 6c             	call   *0x6c(%esi)
    141f:	83 c4 18             	add    $0x18,%esp
    1422:	6a 01                	push   $0x1
    1424:	6a 01                	push   $0x1
    1426:	6a 04                	push   $0x4
    1428:	6a 00                	push   $0x0
    142a:	ff 75 dc             	pushl  -0x24(%ebp)
    142d:	56                   	push   %esi
    142e:	ff 56 6c             	call   *0x6c(%esi)
    1431:	83 c4 18             	add    $0x18,%esp
    1434:	6a 01                	push   $0x1
    1436:	6a 01                	push   $0x1
    1438:	6a 05                	push   $0x5
    143a:	6a 00                	push   $0x0
    143c:	ff 75 d8             	pushl  -0x28(%ebp)
    143f:	56                   	push   %esi
    1440:	ff 56 6c             	call   *0x6c(%esi)
    1443:	83 c4 18             	add    $0x18,%esp
    1446:	6a 18                	push   $0x18
    1448:	68 e6 00 00 00       	push   $0xe6
    144d:	68 d2 00 00 00       	push   $0xd2
    1452:	6a 00                	push   $0x0
    1454:	6a 00                	push   $0x0
    1456:	53                   	push   %ebx
    1457:	e8 e4 35 00 00       	call   4a40 <window_resize>
    145c:	83 c4 14             	add    $0x14,%esp
    145f:	53                   	push   %ebx
    1460:	e8 eb 36 00 00       	call   4b50 <window_exec>
    1465:	c7 04 24 00 00 00 00 	movl   $0x0,(%esp)
    146c:	e8 bf 7d 00 00       	call   9230 <task_retval@plt>
    1471:	83 c8 ff             	or     $0xffffffff,%eax
    1474:	f0 0f c1 05 d4 fa 01 	lock xadd %eax,0x1fad4
    147b:	00 
    147c:	83 c4 10             	add    $0x10,%esp
    147f:	48                   	dec    %eax
    1480:	78 7f                	js     1501 <main+0x311>
    1482:	83 ec 0c             	sub    $0xc,%esp
    1485:	6a 03                	push   $0x3
    1487:	e8 b4 7f 00 00       	call   9440 <fibril_switch@plt>
    148c:	83 c4 10             	add    $0x10,%esp
    148f:	31 c0                	xor    %eax,%eax
    1491:	eb 1d                	jmp    14b0 <main+0x2c0>
    1493:	83 ec 0c             	sub    $0xc,%esp
    1496:	53                   	push   %ebx
    1497:	e8 64 37 00 00       	call   4c00 <window_close>
    149c:	c7 04 24 2c 8f 00 00 	movl   $0x8f2c,(%esp)
    14a3:	e8 a8 7d 00 00       	call   9250 <printf@plt>
    14a8:	83 c4 10             	add    $0x10,%esp
    14ab:	b8 01 00 00 00       	mov    $0x1,%eax
    14b0:	8d 65 f0             	lea    -0x10(%ebp),%esp
    14b3:	59                   	pop    %ecx
    14b4:	5b                   	pop    %ebx
    14b5:	5e                   	pop    %esi
    14b6:	5f                   	pop    %edi
    14b7:	5d                   	pop    %ebp
    14b8:	8d 61 fc             	lea    -0x4(%ecx),%esp
    14bb:	c3                   	ret    
    14bc:	83 ec 0c             	sub    $0xc,%esp
    14bf:	68 90 8f 00 00       	push   $0x8f90
    14c4:	e8 87 7d 00 00       	call   9250 <printf@plt>
    14c9:	83 c4 10             	add    $0x10,%esp
    14cc:	b8 01 00 00 00       	mov    $0x1,%eax
    14d1:	eb dd                	jmp    14b0 <main+0x2c0>
    14d3:	83 ec 0c             	sub    $0xc,%esp
    14d6:	68 b8 8e 00 00       	push   $0x8eb8
    14db:	e8 70 7d 00 00       	call   9250 <printf@plt>
    14e0:	83 c4 10             	add    $0x10,%esp
    14e3:	b8 01 00 00 00       	mov    $0x1,%eax
    14e8:	eb c6                	jmp    14b0 <main+0x2c0>
    14ea:	83 ec 0c             	sub    $0xc,%esp
    14ed:	68 d0 8e 00 00       	push   $0x8ed0
    14f2:	e8 59 7d 00 00       	call   9250 <printf@plt>
    14f7:	83 c4 10             	add    $0x10,%esp
    14fa:	b8 01 00 00 00       	mov    $0x1,%eax
    14ff:	eb af                	jmp    14b0 <main+0x2c0>
    1501:	50                   	push   %eax
    1502:	6a 0b                	push   $0xb
    1504:	6a 00                	push   $0x0
    1506:	6a 00                	push   $0x0
    1508:	6a 00                	push   $0x0
    150a:	6a 00                	push   $0x0
    150c:	6a 00                	push   $0x0
    150e:	68 d4 fa 01 00       	push   $0x1fad4
    1513:	ff 15 d0 fa 01 00    	call   *0x1fad0
    1519:	83 c4 20             	add    $0x20,%esp
    151c:	e9 61 ff ff ff       	jmp    1482 <main+0x292>
    1521:	66 90                	xchg   %ax,%ax
    1523:	66 90                	xchg   %ax,%ax
    1525:	66 90                	xchg   %ax,%ax
    1527:	66 90                	xchg   %ax,%ax
    1529:	66 90                	xchg   %ax,%ax
    152b:	66 90                	xchg   %ax,%ax
    152d:	66 90                	xchg   %ax,%ax
    152f:	90                   	nop

00001530 <button_reconfigure>:
    1530:	55                   	push   %ebp
    1531:	89 e5                	mov    %esp,%ebp
    1533:	5d                   	pop    %ebp
    1534:	c3                   	ret    
    1535:	8d 74 26 00          	lea    0x0(%esi,%eiz,1),%esi
    1539:	8d bc 27 00 00 00 00 	lea    0x0(%edi,%eiz,1),%edi

00001540 <button_handle_position_event>:
    1540:	55                   	push   %ebp
    1541:	89 e5                	mov    %esp,%ebp
    1543:	8b 45 08             	mov    0x8(%ebp),%eax
    1546:	83 7d 14 01          	cmpl   $0x1,0x14(%ebp)
    154a:	8b 50 14             	mov    0x14(%eax),%edx
    154d:	89 82 90 00 00 00    	mov    %eax,0x90(%edx)
    1553:	74 03                	je     1558 <button_handle_position_event+0x18>
    1555:	5d                   	pop    %ebp
    1556:	c3                   	ret    
    1557:	90                   	nop
    1558:	83 7d 10 02          	cmpl   $0x2,0x10(%ebp)
    155c:	75 f7                	jne    1555 <button_handle_position_event+0x15>
    155e:	05 90 01 00 00       	add    $0x190,%eax
    1563:	c7 45 0c 00 00 00 00 	movl   $0x0,0xc(%ebp)
    156a:	89 45 08             	mov    %eax,0x8(%ebp)
    156d:	5d                   	pop    %ebp
    156e:	e9 8d 0d 00 00       	jmp    2300 <sig_send>
    1573:	8d b6 00 00 00 00    	lea    0x0(%esi),%esi
    1579:	8d bc 27 00 00 00 00 	lea    0x0(%edi,%eiz,1),%edi

00001580 <button_handle_keyboard_event>:
    1580:	55                   	push   %ebp
    1581:	89 e5                	mov    %esp,%ebp
    1583:	8b 45 08             	mov    0x8(%ebp),%eax
    1586:	83 7d 18 2a          	cmpl   $0x2a,0x18(%ebp)
    158a:	74 04                	je     1590 <button_handle_keyboard_event+0x10>
    158c:	5d                   	pop    %ebp
    158d:	c3                   	ret    
    158e:	66 90                	xchg   %ax,%ax
    1590:	8b 55 14             	mov    0x14(%ebp),%edx
    1593:	85 d2                	test   %edx,%edx
    1595:	75 f5                	jne    158c <button_handle_keyboard_event+0xc>
    1597:	05 90 01 00 00       	add    $0x190,%eax
    159c:	c7 45 0c 00 00 00 00 	movl   $0x0,0xc(%ebp)
    15a3:	89 45 08             	mov    %eax,0x8(%ebp)
    15a6:	5d                   	pop    %ebp
    15a7:	e9 54 0d 00 00       	jmp    2300 <sig_send>
    15ac:	8d 74 26 00          	lea    0x0(%esi,%eiz,1),%esi

000015b0 <button_rearrange>:
    15b0:	55                   	push   %ebp
    15b1:	89 e5                	mov    %esp,%ebp
    15b3:	57                   	push   %edi
    15b4:	56                   	push   %esi
    15b5:	53                   	push   %ebx
    15b6:	81 ec d8 00 00 00    	sub    $0xd8,%esp
    15bc:	8b 7d 08             	mov    0x8(%ebp),%edi
    15bf:	8b 4d 18             	mov    0x18(%ebp),%ecx
    15c2:	8b 5d 14             	mov    0x14(%ebp),%ebx
    15c5:	8b 45 0c             	mov    0xc(%ebp),%eax
    15c8:	8b 75 10             	mov    0x10(%ebp),%esi
    15cb:	51                   	push   %ecx
    15cc:	53                   	push   %ebx
    15cd:	56                   	push   %esi
    15ce:	50                   	push   %eax
    15cf:	57                   	push   %edi
    15d0:	e8 5b 21 00 00       	call   3730 <widget_modify>
    15d5:	83 c4 14             	add    $0x14,%esp
    15d8:	8b 47 14             	mov    0x14(%edi),%eax
    15db:	50                   	push   %eax
    15dc:	e8 cf 35 00 00       	call   4bb0 <window_claim>
    15e1:	83 c4 10             	add    $0x10,%esp
    15e4:	89 c3                	mov    %eax,%ebx
    15e6:	85 c0                	test   %eax,%eax
    15e8:	0f 84 7a 01 00 00    	je     1768 <button_rearrange+0x1b8>
    15ee:	83 ec 0c             	sub    $0xc,%esp
    15f1:	8d 75 84             	lea    -0x7c(%ebp),%esi
    15f4:	56                   	push   %esi
    15f5:	e8 96 56 00 00       	call   6c90 <source_init>
    15fa:	58                   	pop    %eax
    15fb:	5a                   	pop    %edx
    15fc:	53                   	push   %ebx
    15fd:	8d 9d 4c ff ff ff    	lea    -0xb4(%ebp),%ebx
    1603:	53                   	push   %ebx
    1604:	e8 f7 4e 00 00       	call   6500 <drawctx_init>
    1609:	59                   	pop    %ecx
    160a:	58                   	pop    %eax
    160b:	8d 47 5c             	lea    0x5c(%edi),%eax
    160e:	50                   	push   %eax
    160f:	53                   	push   %ebx
    1610:	e8 bb 50 00 00       	call   66d0 <drawctx_set_source>
    1615:	58                   	pop    %eax
    1616:	8b 47 28             	mov    0x28(%edi),%eax
    1619:	50                   	push   %eax
    161a:	8b 47 24             	mov    0x24(%edi),%eax
    161d:	50                   	push   %eax
    161e:	8b 47 20             	mov    0x20(%edi),%eax
    1621:	50                   	push   %eax
    1622:	8b 47 1c             	mov    0x1c(%edi),%eax
    1625:	50                   	push   %eax
    1626:	53                   	push   %ebx
    1627:	e8 c4 50 00 00       	call   66f0 <drawctx_transfer>
    162c:	83 c4 20             	add    $0x20,%esp
    162f:	83 7f 24 07          	cmpl   $0x7,0x24(%edi)
    1633:	76 0a                	jbe    163f <button_rearrange+0x8f>
    1635:	83 7f 28 07          	cmpl   $0x7,0x28(%edi)
    1639:	0f 87 b9 00 00 00    	ja     16f8 <button_rearrange+0x148>
    163f:	8d 85 48 ff ff ff    	lea    -0xb8(%ebp),%eax
    1645:	8b b7 88 01 00 00    	mov    0x188(%edi),%esi
    164b:	50                   	push   %eax
    164c:	8d 85 44 ff ff ff    	lea    -0xbc(%ebp),%eax
    1652:	50                   	push   %eax
    1653:	8b 87 8c 01 00 00    	mov    0x18c(%edi),%eax
    1659:	56                   	push   %esi
    165a:	50                   	push   %eax
    165b:	e8 00 54 00 00       	call   6a60 <font_get_box>
    1660:	8b 77 24             	mov    0x24(%edi),%esi
    1663:	8b 8d 44 ff ff ff    	mov    -0xbc(%ebp),%ecx
    1669:	83 c4 10             	add    $0x10,%esp
    166c:	39 ce                	cmp    %ecx,%esi
    166e:	72 0d                	jb     167d <button_rearrange+0xcd>
    1670:	8b 57 28             	mov    0x28(%edi),%edx
    1673:	8b 85 48 ff ff ff    	mov    -0xb8(%ebp),%eax
    1679:	39 c2                	cmp    %eax,%edx
    167b:	73 1b                	jae    1698 <button_rearrange+0xe8>
    167d:	83 ec 0c             	sub    $0xc,%esp
    1680:	8b 47 14             	mov    0x14(%edi),%eax
    1683:	50                   	push   %eax
    1684:	e8 57 35 00 00       	call   4be0 <window_yield>
    1689:	83 c4 10             	add    $0x10,%esp
    168c:	8d 65 f4             	lea    -0xc(%ebp),%esp
    168f:	5b                   	pop    %ebx
    1690:	5e                   	pop    %esi
    1691:	5f                   	pop    %edi
    1692:	5d                   	pop    %ebp
    1693:	c3                   	ret    
    1694:	8d 74 26 00          	lea    0x0(%esi,%eiz,1),%esi
    1698:	29 c2                	sub    %eax,%edx
    169a:	29 ce                	sub    %ecx,%esi
    169c:	89 d0                	mov    %edx,%eax
    169e:	8b 57 20             	mov    0x20(%edi),%edx
    16a1:	d1 e8                	shr    %eax
    16a3:	8b 4f 1c             	mov    0x1c(%edi),%ecx
    16a6:	d1 ee                	shr    %esi
    16a8:	01 d0                	add    %edx,%eax
    16aa:	89 85 34 ff ff ff    	mov    %eax,-0xcc(%ebp)
    16b0:	8d 87 24 01 00 00    	lea    0x124(%edi),%eax
    16b6:	01 ce                	add    %ecx,%esi
    16b8:	51                   	push   %ecx
    16b9:	51                   	push   %ecx
    16ba:	50                   	push   %eax
    16bb:	53                   	push   %ebx
    16bc:	e8 0f 50 00 00       	call   66d0 <drawctx_set_source>
    16c1:	8b 8f 8c 01 00 00    	mov    0x18c(%edi),%ecx
    16c7:	58                   	pop    %eax
    16c8:	5a                   	pop    %edx
    16c9:	51                   	push   %ecx
    16ca:	53                   	push   %ebx
    16cb:	e8 10 50 00 00       	call   66e0 <drawctx_set_font>
    16d0:	8b 87 88 01 00 00    	mov    0x188(%edi),%eax
    16d6:	83 c4 10             	add    $0x10,%esp
    16d9:	85 c0                	test   %eax,%eax
    16db:	74 a0                	je     167d <button_rearrange+0xcd>
    16dd:	8b 95 34 ff ff ff    	mov    -0xcc(%ebp),%edx
    16e3:	52                   	push   %edx
    16e4:	56                   	push   %esi
    16e5:	50                   	push   %eax
    16e6:	53                   	push   %ebx
    16e7:	e8 74 52 00 00       	call   6960 <drawctx_print>
    16ec:	83 c4 10             	add    $0x10,%esp
    16ef:	eb 8c                	jmp    167d <button_rearrange+0xcd>
    16f1:	8d b4 26 00 00 00 00 	lea    0x0(%esi,%eiz,1),%esi
    16f8:	50                   	push   %eax
    16f9:	50                   	push   %eax
    16fa:	56                   	push   %esi
    16fb:	53                   	push   %ebx
    16fc:	e8 cf 4f 00 00       	call   66d0 <drawctx_set_source>
    1701:	68 55 55 55 ff       	push   $0xff555555
    1706:	6a ff                	push   $0xffffffff
    1708:	8b 47 28             	mov    0x28(%edi),%eax
    170b:	83 e8 06             	sub    $0x6,%eax
    170e:	50                   	push   %eax
    170f:	8b 47 24             	mov    0x24(%edi),%eax
    1712:	83 e8 06             	sub    $0x6,%eax
    1715:	50                   	push   %eax
    1716:	8b 47 20             	mov    0x20(%edi),%eax
    1719:	83 c0 03             	add    $0x3,%eax
    171c:	50                   	push   %eax
    171d:	8b 47 1c             	mov    0x1c(%edi),%eax
    1720:	83 c0 03             	add    $0x3,%eax
    1723:	50                   	push   %eax
    1724:	56                   	push   %esi
    1725:	53                   	push   %ebx
    1726:	e8 95 38 00 00       	call   4fc0 <draw_bevel>
    172b:	83 c4 28             	add    $0x28,%esp
    172e:	8d 87 c0 00 00 00    	lea    0xc0(%edi),%eax
    1734:	50                   	push   %eax
    1735:	53                   	push   %ebx
    1736:	e8 95 4f 00 00       	call   66d0 <drawctx_set_source>
    173b:	8b 47 28             	mov    0x28(%edi),%eax
    173e:	83 e8 08             	sub    $0x8,%eax
    1741:	89 04 24             	mov    %eax,(%esp)
    1744:	8b 47 24             	mov    0x24(%edi),%eax
    1747:	83 e8 08             	sub    $0x8,%eax
    174a:	50                   	push   %eax
    174b:	8b 47 20             	mov    0x20(%edi),%eax
    174e:	83 c0 04             	add    $0x4,%eax
    1751:	50                   	push   %eax
    1752:	8b 47 1c             	mov    0x1c(%edi),%eax
    1755:	83 c0 04             	add    $0x4,%eax
    1758:	50                   	push   %eax
    1759:	53                   	push   %ebx
    175a:	e8 91 4f 00 00       	call   66f0 <drawctx_transfer>
    175f:	83 c4 20             	add    $0x20,%esp
    1762:	e9 d8 fe ff ff       	jmp    163f <button_rearrange+0x8f>
    1767:	90                   	nop
    1768:	83 ec 0c             	sub    $0xc,%esp
    176b:	8b 57 14             	mov    0x14(%edi),%edx
    176e:	52                   	push   %edx
    176f:	e8 6c 34 00 00       	call   4be0 <window_yield>
    1774:	83 c4 10             	add    $0x10,%esp
    1777:	e9 72 fe ff ff       	jmp    15ee <button_rearrange+0x3e>
    177c:	8d 74 26 00          	lea    0x0(%esi,%eiz,1),%esi

00001780 <button_destroy>:
    1780:	55                   	push   %ebp
    1781:	89 e5                	mov    %esp,%ebp
    1783:	53                   	push   %ebx
    1784:	83 ec 10             	sub    $0x10,%esp
    1787:	8b 5d 08             	mov    0x8(%ebp),%ebx
    178a:	53                   	push   %ebx
    178b:	e8 d0 1f 00 00       	call   3760 <widget_deinit>
    1790:	8b 93 88 01 00 00    	mov    0x188(%ebx),%edx
    1796:	58                   	pop    %eax
    1797:	52                   	push   %edx
    1798:	e8 03 7d 00 00       	call   94a0 <free@plt>
    179d:	8b 83 8c 01 00 00    	mov    0x18c(%ebx),%eax
    17a3:	59                   	pop    %ecx
    17a4:	50                   	push   %eax
    17a5:	e8 16 52 00 00       	call   69c0 <font_release>
    17aa:	89 5d 08             	mov    %ebx,0x8(%ebp)
    17ad:	83 c4 10             	add    $0x10,%esp
    17b0:	8b 5d fc             	mov    -0x4(%ebp),%ebx
    17b3:	c9                   	leave  
    17b4:	e9 e7 7c 00 00       	jmp    94a0 <free@plt>
    17b9:	8d b4 26 00 00 00 00 	lea    0x0(%esi,%eiz,1),%esi

000017c0 <button_repaint>:
    17c0:	55                   	push   %ebp
    17c1:	89 e5                	mov    %esp,%ebp
    17c3:	57                   	push   %edi
    17c4:	56                   	push   %esi
    17c5:	53                   	push   %ebx
    17c6:	81 ec d8 00 00 00    	sub    $0xd8,%esp
    17cc:	8b 7d 08             	mov    0x8(%ebp),%edi
    17cf:	8b 4f 14             	mov    0x14(%edi),%ecx
    17d2:	51                   	push   %ecx
    17d3:	e8 d8 33 00 00       	call   4bb0 <window_claim>
    17d8:	83 c4 10             	add    $0x10,%esp
    17db:	89 c3                	mov    %eax,%ebx
    17dd:	85 c0                	test   %eax,%eax
    17df:	0f 84 83 01 00 00    	je     1968 <button_repaint+0x1a8>
    17e5:	83 ec 0c             	sub    $0xc,%esp
    17e8:	8d 75 84             	lea    -0x7c(%ebp),%esi
    17eb:	56                   	push   %esi
    17ec:	e8 9f 54 00 00       	call   6c90 <source_init>
    17f1:	58                   	pop    %eax
    17f2:	5a                   	pop    %edx
    17f3:	53                   	push   %ebx
    17f4:	8d 9d 4c ff ff ff    	lea    -0xb4(%ebp),%ebx
    17fa:	53                   	push   %ebx
    17fb:	e8 00 4d 00 00       	call   6500 <drawctx_init>
    1800:	59                   	pop    %ecx
    1801:	58                   	pop    %eax
    1802:	8d 47 5c             	lea    0x5c(%edi),%eax
    1805:	50                   	push   %eax
    1806:	53                   	push   %ebx
    1807:	e8 c4 4e 00 00       	call   66d0 <drawctx_set_source>
    180c:	58                   	pop    %eax
    180d:	8b 47 28             	mov    0x28(%edi),%eax
    1810:	50                   	push   %eax
    1811:	8b 47 24             	mov    0x24(%edi),%eax
    1814:	50                   	push   %eax
    1815:	8b 47 20             	mov    0x20(%edi),%eax
    1818:	50                   	push   %eax
    1819:	8b 47 1c             	mov    0x1c(%edi),%eax
    181c:	50                   	push   %eax
    181d:	53                   	push   %ebx
    181e:	e8 cd 4e 00 00       	call   66f0 <drawctx_transfer>
    1823:	83 c4 20             	add    $0x20,%esp
    1826:	83 7f 24 07          	cmpl   $0x7,0x24(%edi)
    182a:	76 0a                	jbe    1836 <button_repaint+0x76>
    182c:	83 7f 28 07          	cmpl   $0x7,0x28(%edi)
    1830:	0f 87 c2 00 00 00    	ja     18f8 <button_repaint+0x138>
    1836:	8d 85 48 ff ff ff    	lea    -0xb8(%ebp),%eax
    183c:	8b b7 88 01 00 00    	mov    0x188(%edi),%esi
    1842:	50                   	push   %eax
    1843:	8d 85 44 ff ff ff    	lea    -0xbc(%ebp),%eax
    1849:	50                   	push   %eax
    184a:	8b 87 8c 01 00 00    	mov    0x18c(%edi),%eax
    1850:	56                   	push   %esi
    1851:	50                   	push   %eax
    1852:	e8 09 52 00 00       	call   6a60 <font_get_box>
    1857:	8b 77 24             	mov    0x24(%edi),%esi
    185a:	8b 8d 44 ff ff ff    	mov    -0xbc(%ebp),%ecx
    1860:	83 c4 10             	add    $0x10,%esp
    1863:	39 ce                	cmp    %ecx,%esi
    1865:	72 0d                	jb     1874 <button_repaint+0xb4>
    1867:	8b 57 28             	mov    0x28(%edi),%edx
    186a:	8b 85 48 ff ff ff    	mov    -0xb8(%ebp),%eax
    1870:	39 c2                	cmp    %eax,%edx
    1872:	73 24                	jae    1898 <button_repaint+0xd8>
    1874:	83 ec 0c             	sub    $0xc,%esp
    1877:	8b 47 14             	mov    0x14(%edi),%eax
    187a:	50                   	push   %eax
    187b:	e8 60 33 00 00       	call   4be0 <window_yield>
    1880:	8b 4f 14             	mov    0x14(%edi),%ecx
    1883:	5a                   	pop    %edx
    1884:	51                   	push   %ecx
    1885:	e8 76 32 00 00       	call   4b00 <window_damage>
    188a:	83 c4 10             	add    $0x10,%esp
    188d:	8d 65 f4             	lea    -0xc(%ebp),%esp
    1890:	5b                   	pop    %ebx
    1891:	5e                   	pop    %esi
    1892:	5f                   	pop    %edi
    1893:	5d                   	pop    %ebp
    1894:	c3                   	ret    
    1895:	8d 76 00             	lea    0x0(%esi),%esi
    1898:	29 c2                	sub    %eax,%edx
    189a:	29 ce                	sub    %ecx,%esi
    189c:	89 d0                	mov    %edx,%eax
    189e:	8b 57 20             	mov    0x20(%edi),%edx
    18a1:	d1 e8                	shr    %eax
    18a3:	8b 4f 1c             	mov    0x1c(%edi),%ecx
    18a6:	d1 ee                	shr    %esi
    18a8:	01 d0                	add    %edx,%eax
    18aa:	89 85 34 ff ff ff    	mov    %eax,-0xcc(%ebp)
    18b0:	8d 87 24 01 00 00    	lea    0x124(%edi),%eax
    18b6:	01 ce                	add    %ecx,%esi
    18b8:	51                   	push   %ecx
    18b9:	51                   	push   %ecx
    18ba:	50                   	push   %eax
    18bb:	53                   	push   %ebx
    18bc:	e8 0f 4e 00 00       	call   66d0 <drawctx_set_source>
    18c1:	8b 8f 8c 01 00 00    	mov    0x18c(%edi),%ecx
    18c7:	58                   	pop    %eax
    18c8:	5a                   	pop    %edx
    18c9:	51                   	push   %ecx
    18ca:	53                   	push   %ebx
    18cb:	e8 10 4e 00 00       	call   66e0 <drawctx_set_font>
    18d0:	8b 87 88 01 00 00    	mov    0x188(%edi),%eax
    18d6:	83 c4 10             	add    $0x10,%esp
    18d9:	85 c0                	test   %eax,%eax
    18db:	74 97                	je     1874 <button_repaint+0xb4>
    18dd:	8b 95 34 ff ff ff    	mov    -0xcc(%ebp),%edx
    18e3:	52                   	push   %edx
    18e4:	56                   	push   %esi
    18e5:	50                   	push   %eax
    18e6:	53                   	push   %ebx
    18e7:	e8 74 50 00 00       	call   6960 <drawctx_print>
    18ec:	83 c4 10             	add    $0x10,%esp
    18ef:	eb 83                	jmp    1874 <button_repaint+0xb4>
    18f1:	8d b4 26 00 00 00 00 	lea    0x0(%esi,%eiz,1),%esi
    18f8:	50                   	push   %eax
    18f9:	50                   	push   %eax
    18fa:	56                   	push   %esi
    18fb:	53                   	push   %ebx
    18fc:	e8 cf 4d 00 00       	call   66d0 <drawctx_set_source>
    1901:	68 55 55 55 ff       	push   $0xff555555
    1906:	6a ff                	push   $0xffffffff
    1908:	8b 47 28             	mov    0x28(%edi),%eax
    190b:	83 e8 06             	sub    $0x6,%eax
    190e:	50                   	push   %eax
    190f:	8b 47 24             	mov    0x24(%edi),%eax
    1912:	83 e8 06             	sub    $0x6,%eax
    1915:	50                   	push   %eax
    1916:	8b 47 20             	mov    0x20(%edi),%eax
    1919:	83 c0 03             	add    $0x3,%eax
    191c:	50                   	push   %eax
    191d:	8b 47 1c             	mov    0x1c(%edi),%eax
    1920:	83 c0 03             	add    $0x3,%eax
    1923:	50                   	push   %eax
    1924:	56                   	push   %esi
    1925:	53                   	push   %ebx
    1926:	e8 95 36 00 00       	call   4fc0 <draw_bevel>
    192b:	83 c4 28             	add    $0x28,%esp
    192e:	8d 87 c0 00 00 00    	lea    0xc0(%edi),%eax
    1934:	50                   	push   %eax
    1935:	53                   	push   %ebx
    1936:	e8 95 4d 00 00       	call   66d0 <drawctx_set_source>
    193b:	8b 47 28             	mov    0x28(%edi),%eax
    193e:	83 e8 08             	sub    $0x8,%eax
    1941:	89 04 24             	mov    %eax,(%esp)
    1944:	8b 47 24             	mov    0x24(%edi),%eax
    1947:	83 e8 08             	sub    $0x8,%eax
    194a:	50                   	push   %eax
    194b:	8b 47 20             	mov    0x20(%edi),%eax
    194e:	83 c0 04             	add    $0x4,%eax
    1951:	50                   	push   %eax
    1952:	8b 47 1c             	mov    0x1c(%edi),%eax
    1955:	83 c0 04             	add    $0x4,%eax
    1958:	50                   	push   %eax
    1959:	53                   	push   %ebx
    195a:	e8 91 4d 00 00       	call   66f0 <drawctx_transfer>
    195f:	83 c4 20             	add    $0x20,%esp
    1962:	e9 cf fe ff ff       	jmp    1836 <button_repaint+0x76>
    1967:	90                   	nop
    1968:	83 ec 0c             	sub    $0xc,%esp
    196b:	8b 57 14             	mov    0x14(%edi),%edx
    196e:	52                   	push   %edx
    196f:	e8 6c 32 00 00       	call   4be0 <window_yield>
    1974:	83 c4 10             	add    $0x10,%esp
    1977:	e9 69 fe ff ff       	jmp    17e5 <button_repaint+0x25>
    197c:	8d 74 26 00          	lea    0x0(%esi,%eiz,1),%esi

00001980 <deinit_button>:
    1980:	55                   	push   %ebp
    1981:	89 e5                	mov    %esp,%ebp
    1983:	53                   	push   %ebx
    1984:	83 ec 10             	sub    $0x10,%esp
    1987:	8b 5d 08             	mov    0x8(%ebp),%ebx
    198a:	53                   	push   %ebx
    198b:	e8 d0 1d 00 00       	call   3760 <widget_deinit>
    1990:	8b 93 88 01 00 00    	mov    0x188(%ebx),%edx
    1996:	58                   	pop    %eax
    1997:	52                   	push   %edx
    1998:	e8 03 7b 00 00       	call   94a0 <free@plt>
    199d:	8b 83 8c 01 00 00    	mov    0x18c(%ebx),%eax
    19a3:	83 c4 10             	add    $0x10,%esp
    19a6:	8b 5d fc             	mov    -0x4(%ebp),%ebx
    19a9:	89 45 08             	mov    %eax,0x8(%ebp)
    19ac:	c9                   	leave  
    19ad:	e9 0e 50 00 00       	jmp    69c0 <font_release>
    19b2:	8d b4 26 00 00 00 00 	lea    0x0(%esi,%eiz,1),%esi
    19b9:	8d bc 27 00 00 00 00 	lea    0x0(%edi,%eiz,1),%edi

000019c0 <init_button>:
    19c0:	55                   	push   %ebp
    19c1:	89 e5                	mov    %esp,%ebp
    19c3:	57                   	push   %edi
    19c4:	56                   	push   %esi
    19c5:	53                   	push   %ebx
    19c6:	83 ec 20             	sub    $0x20,%esp
    19c9:	8b 5d 08             	mov    0x8(%ebp),%ebx
    19cc:	8b 45 10             	mov    0x10(%ebp),%eax
    19cf:	50                   	push   %eax
    19d0:	8b 45 0c             	mov    0xc(%ebp),%eax
    19d3:	50                   	push   %eax
    19d4:	8d 7b 5c             	lea    0x5c(%ebx),%edi
    19d7:	53                   	push   %ebx
    19d8:	8b 75 18             	mov    0x18(%ebp),%esi
    19db:	e8 b0 1c 00 00       	call   3690 <widget_init>
    19e0:	c7 43 44 80 17 00 00 	movl   $0x1780,0x44(%ebx)
    19e7:	c7 43 48 30 15 00 00 	movl   $0x1530,0x48(%ebx)
    19ee:	c7 43 4c b0 15 00 00 	movl   $0x15b0,0x4c(%ebx)
    19f5:	c7 43 50 c0 17 00 00 	movl   $0x17c0,0x50(%ebx)
    19fc:	c7 43 54 80 15 00 00 	movl   $0x1580,0x54(%ebx)
    1a03:	c7 43 58 40 15 00 00 	movl   $0x1540,0x58(%ebx)
    1a0a:	89 3c 24             	mov    %edi,(%esp)
    1a0d:	e8 7e 52 00 00       	call   6c90 <source_init>
    1a12:	8b 4d 1c             	mov    0x1c(%ebp),%ecx
    1a15:	58                   	pop    %eax
    1a16:	5a                   	pop    %edx
    1a17:	51                   	push   %ecx
    1a18:	57                   	push   %edi
    1a19:	8d bb c0 00 00 00    	lea    0xc0(%ebx),%edi
    1a1f:	e8 fc 52 00 00       	call   6d20 <source_set_color>
    1a24:	89 3c 24             	mov    %edi,(%esp)
    1a27:	e8 64 52 00 00       	call   6c90 <source_init>
    1a2c:	8b 4d 20             	mov    0x20(%ebp),%ecx
    1a2f:	58                   	pop    %eax
    1a30:	5a                   	pop    %edx
    1a31:	51                   	push   %ecx
    1a32:	57                   	push   %edi
    1a33:	8d bb 24 01 00 00    	lea    0x124(%ebx),%edi
    1a39:	e8 e2 52 00 00       	call   6d20 <source_set_color>
    1a3e:	89 3c 24             	mov    %edi,(%esp)
    1a41:	e8 4a 52 00 00       	call   6c90 <source_init>
    1a46:	8b 4d 24             	mov    0x24(%ebp),%ecx
    1a49:	58                   	pop    %eax
    1a4a:	5a                   	pop    %edx
    1a4b:	51                   	push   %ecx
    1a4c:	57                   	push   %edi
    1a4d:	e8 ce 52 00 00       	call   6d20 <source_set_color>
    1a52:	8b 7d 14             	mov    0x14(%ebp),%edi
    1a55:	83 c4 10             	add    $0x10,%esp
    1a58:	85 ff                	test   %edi,%edi
    1a5a:	0f 84 a0 00 00 00    	je     1b00 <init_button+0x140>
    1a60:	83 ec 0c             	sub    $0xc,%esp
    1a63:	8b 45 14             	mov    0x14(%ebp),%eax
    1a66:	50                   	push   %eax
    1a67:	e8 c4 78 00 00       	call   9330 <str_dup@plt>
    1a6c:	83 c4 10             	add    $0x10,%esp
    1a6f:	89 83 88 01 00 00    	mov    %eax,0x188(%ebx)
    1a75:	81 e6 ff ff 00 00    	and    $0xffff,%esi
    1a7b:	8d 83 8c 01 00 00    	lea    0x18c(%ebx),%eax
    1a81:	57                   	push   %edi
    1a82:	57                   	push   %edi
    1a83:	56                   	push   %esi
    1a84:	50                   	push   %eax
    1a85:	e8 56 39 00 00       	call   53e0 <embedded_font_create>
    1a8a:	83 c4 10             	add    $0x10,%esp
    1a8d:	85 c0                	test   %eax,%eax
    1a8f:	75 47                	jne    1ad8 <init_button+0x118>
    1a91:	8d 45 e4             	lea    -0x1c(%ebp),%eax
    1a94:	8b 93 8c 01 00 00    	mov    0x18c(%ebx),%edx
    1a9a:	50                   	push   %eax
    1a9b:	8d 45 e0             	lea    -0x20(%ebp),%eax
    1a9e:	50                   	push   %eax
    1a9f:	8b 83 88 01 00 00    	mov    0x188(%ebx),%eax
    1aa5:	50                   	push   %eax
    1aa6:	52                   	push   %edx
    1aa7:	e8 b4 4f 00 00       	call   6a60 <font_get_box>
    1aac:	8b 55 e0             	mov    -0x20(%ebp),%edx
    1aaf:	8d 42 0a             	lea    0xa(%edx),%eax
    1ab2:	83 c2 1e             	add    $0x1e,%edx
    1ab5:	89 43 2c             	mov    %eax,0x2c(%ebx)
    1ab8:	8b 45 e4             	mov    -0x1c(%ebp),%eax
    1abb:	83 c0 0a             	add    $0xa,%eax
    1abe:	89 53 34             	mov    %edx,0x34(%ebx)
    1ac1:	89 43 30             	mov    %eax,0x30(%ebx)
    1ac4:	89 43 38             	mov    %eax,0x38(%ebx)
    1ac7:	83 c4 10             	add    $0x10,%esp
    1aca:	8d 65 f4             	lea    -0xc(%ebp),%esp
    1acd:	b0 01                	mov    $0x1,%al
    1acf:	5b                   	pop    %ebx
    1ad0:	5e                   	pop    %esi
    1ad1:	5f                   	pop    %edi
    1ad2:	5d                   	pop    %ebp
    1ad3:	c3                   	ret    
    1ad4:	8d 74 26 00          	lea    0x0(%esi,%eiz,1),%esi
    1ad8:	83 ec 0c             	sub    $0xc,%esp
    1adb:	8b 8b 88 01 00 00    	mov    0x188(%ebx),%ecx
    1ae1:	51                   	push   %ecx
    1ae2:	e8 b9 79 00 00       	call   94a0 <free@plt>
    1ae7:	c7 83 88 01 00 00 00 	movl   $0x0,0x188(%ebx)
    1aee:	00 00 00 
    1af1:	83 c4 10             	add    $0x10,%esp
    1af4:	8d 65 f4             	lea    -0xc(%ebp),%esp
    1af7:	31 c0                	xor    %eax,%eax
    1af9:	5b                   	pop    %ebx
    1afa:	5e                   	pop    %esi
    1afb:	5f                   	pop    %edi
    1afc:	5d                   	pop    %ebp
    1afd:	c3                   	ret    
    1afe:	66 90                	xchg   %ax,%ax
    1b00:	c7 83 88 01 00 00 00 	movl   $0x0,0x188(%ebx)
    1b07:	00 00 00 
    1b0a:	e9 66 ff ff ff       	jmp    1a75 <init_button+0xb5>
    1b0f:	90                   	nop

00001b10 <create_button>:
    1b10:	55                   	push   %ebp
    1b11:	89 e5                	mov    %esp,%ebp
    1b13:	57                   	push   %edi
    1b14:	56                   	push   %esi
    1b15:	53                   	push   %ebx
    1b16:	83 ec 28             	sub    $0x28,%esp
    1b19:	8b 75 14             	mov    0x14(%ebp),%esi
    1b1c:	68 94 01 00 00       	push   $0x194
    1b21:	e8 8a 77 00 00       	call   92b0 <malloc@plt>
    1b26:	83 c4 10             	add    $0x10,%esp
    1b29:	89 c3                	mov    %eax,%ebx
    1b2b:	85 c0                	test   %eax,%eax
    1b2d:	0f 84 fc 00 00 00    	je     1c2f <create_button+0x11f>
    1b33:	50                   	push   %eax
    1b34:	8b 45 0c             	mov    0xc(%ebp),%eax
    1b37:	50                   	push   %eax
    1b38:	8b 45 08             	mov    0x8(%ebp),%eax
    1b3b:	50                   	push   %eax
    1b3c:	8d 7b 5c             	lea    0x5c(%ebx),%edi
    1b3f:	53                   	push   %ebx
    1b40:	e8 4b 1b 00 00       	call   3690 <widget_init>
    1b45:	c7 43 44 80 17 00 00 	movl   $0x1780,0x44(%ebx)
    1b4c:	c7 43 48 30 15 00 00 	movl   $0x1530,0x48(%ebx)
    1b53:	c7 43 4c b0 15 00 00 	movl   $0x15b0,0x4c(%ebx)
    1b5a:	c7 43 50 c0 17 00 00 	movl   $0x17c0,0x50(%ebx)
    1b61:	c7 43 54 80 15 00 00 	movl   $0x1580,0x54(%ebx)
    1b68:	c7 43 58 40 15 00 00 	movl   $0x1540,0x58(%ebx)
    1b6f:	89 3c 24             	mov    %edi,(%esp)
    1b72:	e8 19 51 00 00       	call   6c90 <source_init>
    1b77:	8b 4d 18             	mov    0x18(%ebp),%ecx
    1b7a:	58                   	pop    %eax
    1b7b:	5a                   	pop    %edx
    1b7c:	51                   	push   %ecx
    1b7d:	57                   	push   %edi
    1b7e:	8d bb c0 00 00 00    	lea    0xc0(%ebx),%edi
    1b84:	e8 97 51 00 00       	call   6d20 <source_set_color>
    1b89:	89 3c 24             	mov    %edi,(%esp)
    1b8c:	e8 ff 50 00 00       	call   6c90 <source_init>
    1b91:	8b 4d 1c             	mov    0x1c(%ebp),%ecx
    1b94:	58                   	pop    %eax
    1b95:	5a                   	pop    %edx
    1b96:	51                   	push   %ecx
    1b97:	57                   	push   %edi
    1b98:	8d bb 24 01 00 00    	lea    0x124(%ebx),%edi
    1b9e:	e8 7d 51 00 00       	call   6d20 <source_set_color>
    1ba3:	89 3c 24             	mov    %edi,(%esp)
    1ba6:	e8 e5 50 00 00       	call   6c90 <source_init>
    1bab:	8b 4d 20             	mov    0x20(%ebp),%ecx
    1bae:	58                   	pop    %eax
    1baf:	5a                   	pop    %edx
    1bb0:	51                   	push   %ecx
    1bb1:	57                   	push   %edi
    1bb2:	e8 69 51 00 00       	call   6d20 <source_set_color>
    1bb7:	8b 7d 10             	mov    0x10(%ebp),%edi
    1bba:	81 e6 ff ff 00 00    	and    $0xffff,%esi
    1bc0:	83 c4 10             	add    $0x10,%esp
    1bc3:	85 ff                	test   %edi,%edi
    1bc5:	0f 84 a5 00 00 00    	je     1c70 <create_button+0x160>
    1bcb:	83 ec 0c             	sub    $0xc,%esp
    1bce:	8b 45 10             	mov    0x10(%ebp),%eax
    1bd1:	50                   	push   %eax
    1bd2:	e8 59 77 00 00       	call   9330 <str_dup@plt>
    1bd7:	83 c4 10             	add    $0x10,%esp
    1bda:	89 83 88 01 00 00    	mov    %eax,0x188(%ebx)
    1be0:	8d 83 8c 01 00 00    	lea    0x18c(%ebx),%eax
    1be6:	57                   	push   %edi
    1be7:	57                   	push   %edi
    1be8:	56                   	push   %esi
    1be9:	50                   	push   %eax
    1bea:	e8 f1 37 00 00       	call   53e0 <embedded_font_create>
    1bef:	83 c4 10             	add    $0x10,%esp
    1bf2:	85 c0                	test   %eax,%eax
    1bf4:	75 4a                	jne    1c40 <create_button+0x130>
    1bf6:	8d 45 e4             	lea    -0x1c(%ebp),%eax
    1bf9:	8b 93 8c 01 00 00    	mov    0x18c(%ebx),%edx
    1bff:	50                   	push   %eax
    1c00:	8d 45 e0             	lea    -0x20(%ebp),%eax
    1c03:	50                   	push   %eax
    1c04:	8b 83 88 01 00 00    	mov    0x188(%ebx),%eax
    1c0a:	50                   	push   %eax
    1c0b:	52                   	push   %edx
    1c0c:	e8 4f 4e 00 00       	call   6a60 <font_get_box>
    1c11:	8b 55 e0             	mov    -0x20(%ebp),%edx
    1c14:	8d 42 0a             	lea    0xa(%edx),%eax
    1c17:	83 c2 1e             	add    $0x1e,%edx
    1c1a:	89 43 2c             	mov    %eax,0x2c(%ebx)
    1c1d:	8b 45 e4             	mov    -0x1c(%ebp),%eax
    1c20:	83 c0 0a             	add    $0xa,%eax
    1c23:	89 53 34             	mov    %edx,0x34(%ebx)
    1c26:	89 43 30             	mov    %eax,0x30(%ebx)
    1c29:	89 43 38             	mov    %eax,0x38(%ebx)
    1c2c:	83 c4 10             	add    $0x10,%esp
    1c2f:	8d 65 f4             	lea    -0xc(%ebp),%esp
    1c32:	89 d8                	mov    %ebx,%eax
    1c34:	5b                   	pop    %ebx
    1c35:	5e                   	pop    %esi
    1c36:	5f                   	pop    %edi
    1c37:	5d                   	pop    %ebp
    1c38:	c3                   	ret    
    1c39:	8d b4 26 00 00 00 00 	lea    0x0(%esi,%eiz,1),%esi
    1c40:	83 ec 0c             	sub    $0xc,%esp
    1c43:	8b 8b 88 01 00 00    	mov    0x188(%ebx),%ecx
    1c49:	51                   	push   %ecx
    1c4a:	e8 51 78 00 00       	call   94a0 <free@plt>
    1c4f:	c7 83 88 01 00 00 00 	movl   $0x0,0x188(%ebx)
    1c56:	00 00 00 
    1c59:	89 1c 24             	mov    %ebx,(%esp)
    1c5c:	e8 3f 78 00 00       	call   94a0 <free@plt>
    1c61:	83 c4 10             	add    $0x10,%esp
    1c64:	8d 65 f4             	lea    -0xc(%ebp),%esp
    1c67:	31 db                	xor    %ebx,%ebx
    1c69:	89 d8                	mov    %ebx,%eax
    1c6b:	5b                   	pop    %ebx
    1c6c:	5e                   	pop    %esi
    1c6d:	5f                   	pop    %edi
    1c6e:	5d                   	pop    %ebp
    1c6f:	c3                   	ret    
    1c70:	c7 83 88 01 00 00 00 	movl   $0x0,0x188(%ebx)
    1c77:	00 00 00 
    1c7a:	e9 61 ff ff ff       	jmp    1be0 <create_button+0xd0>
    1c7f:	90                   	nop

00001c80 <canvas_reconfigure>:
    1c80:	55                   	push   %ebp
    1c81:	89 e5                	mov    %esp,%ebp
    1c83:	5d                   	pop    %ebp
    1c84:	c3                   	ret    
    1c85:	8d 74 26 00          	lea    0x0(%esi,%eiz,1),%esi
    1c89:	8d bc 27 00 00 00 00 	lea    0x0(%edi,%eiz,1),%edi

00001c90 <canvas_handle_position_event>:
    1c90:	55                   	push   %ebp
    1c91:	89 e5                	mov    %esp,%ebp
    1c93:	83 ec 30             	sub    $0x30,%esp
    1c96:	8b 55 0c             	mov    0xc(%ebp),%edx
    1c99:	8b 45 08             	mov    0x8(%ebp),%eax
    1c9c:	89 55 e4             	mov    %edx,-0x1c(%ebp)
    1c9f:	8b 55 10             	mov    0x10(%ebp),%edx
    1ca2:	89 55 e8             	mov    %edx,-0x18(%ebp)
    1ca5:	8b 55 14             	mov    0x14(%ebp),%edx
    1ca8:	89 55 ec             	mov    %edx,-0x14(%ebp)
    1cab:	8b 55 18             	mov    0x18(%ebp),%edx
    1cae:	89 55 f0             	mov    %edx,-0x10(%ebp)
    1cb1:	8b 55 1c             	mov    0x1c(%ebp),%edx
    1cb4:	89 55 f4             	mov    %edx,-0xc(%ebp)
    1cb7:	8b 4d f0             	mov    -0x10(%ebp),%ecx
    1cba:	8b 50 1c             	mov    0x1c(%eax),%edx
    1cbd:	83 c0 6c             	add    $0x6c,%eax
    1cc0:	29 d1                	sub    %edx,%ecx
    1cc2:	8b 50 b4             	mov    -0x4c(%eax),%edx
    1cc5:	89 4d f0             	mov    %ecx,-0x10(%ebp)
    1cc8:	8b 4d f4             	mov    -0xc(%ebp),%ecx
    1ccb:	29 d1                	sub    %edx,%ecx
    1ccd:	8d 55 e4             	lea    -0x1c(%ebp),%edx
    1cd0:	52                   	push   %edx
    1cd1:	50                   	push   %eax
    1cd2:	89 4d f4             	mov    %ecx,-0xc(%ebp)
    1cd5:	e8 26 06 00 00       	call   2300 <sig_send>
    1cda:	83 c4 10             	add    $0x10,%esp
    1cdd:	c9                   	leave  
    1cde:	c3                   	ret    
    1cdf:	90                   	nop

00001ce0 <canvas_handle_keyboard_event>:
    1ce0:	55                   	push   %ebp
    1ce1:	89 e5                	mov    %esp,%ebp
    1ce3:	83 ec 10             	sub    $0x10,%esp
    1ce6:	8d 45 0c             	lea    0xc(%ebp),%eax
    1ce9:	50                   	push   %eax
    1cea:	8b 45 08             	mov    0x8(%ebp),%eax
    1ced:	83 c0 68             	add    $0x68,%eax
    1cf0:	50                   	push   %eax
    1cf1:	e8 0a 06 00 00       	call   2300 <sig_send>
    1cf6:	83 c4 10             	add    $0x10,%esp
    1cf9:	c9                   	leave  
    1cfa:	c3                   	ret    
    1cfb:	90                   	nop
    1cfc:	8d 74 26 00          	lea    0x0(%esi,%eiz,1),%esi

00001d00 <paint_internal>:
    1d00:	55                   	push   %ebp
    1d01:	89 e5                	mov    %esp,%ebp
    1d03:	57                   	push   %edi
    1d04:	56                   	push   %esi
    1d05:	53                   	push   %ebx
    1d06:	81 ec 28 01 00 00    	sub    $0x128,%esp
    1d0c:	89 c3                	mov    %eax,%ebx
    1d0e:	8b 70 14             	mov    0x14(%eax),%esi
    1d11:	56                   	push   %esi
    1d12:	e8 99 2e 00 00       	call   4bb0 <window_claim>
    1d17:	83 c4 10             	add    $0x10,%esp
    1d1a:	85 c0                	test   %eax,%eax
    1d1c:	0f 84 d6 00 00 00    	je     1df8 <paint_internal+0xf8>
    1d22:	83 ec 0c             	sub    $0xc,%esp
    1d25:	8d b5 3c ff ff ff    	lea    -0xc4(%ebp),%esi
    1d2b:	89 85 ec fe ff ff    	mov    %eax,-0x114(%ebp)
    1d31:	56                   	push   %esi
    1d32:	e8 39 6d 00 00       	call   8a70 <transform_identity>
    1d37:	8b 43 20             	mov    0x20(%ebx),%eax
    1d3a:	31 d2                	xor    %edx,%edx
    1d3c:	89 85 e0 fe ff ff    	mov    %eax,-0x120(%ebp)
    1d42:	89 95 e4 fe ff ff    	mov    %edx,-0x11c(%ebp)
    1d48:	83 ec 0c             	sub    $0xc,%esp
    1d4b:	31 d2                	xor    %edx,%edx
    1d4d:	df ad e0 fe ff ff    	fildll -0x120(%ebp)
    1d53:	8b 43 1c             	mov    0x1c(%ebx),%eax
    1d56:	89 95 e4 fe ff ff    	mov    %edx,-0x11c(%ebp)
    1d5c:	dd 5c 24 08          	fstpl  0x8(%esp)
    1d60:	89 85 e0 fe ff ff    	mov    %eax,-0x120(%ebp)
    1d66:	df ad e0 fe ff ff    	fildll -0x120(%ebp)
    1d6c:	dd 1c 24             	fstpl  (%esp)
    1d6f:	56                   	push   %esi
    1d70:	e8 2b 6d 00 00       	call   8aa0 <transform_translate>
    1d75:	83 c4 14             	add    $0x14,%esp
    1d78:	8d 45 84             	lea    -0x7c(%ebp),%eax
    1d7b:	50                   	push   %eax
    1d7c:	e8 0f 4f 00 00       	call   6c90 <source_init>
    1d81:	83 ec 3c             	sub    $0x3c,%esp
    1d84:	b9 12 00 00 00       	mov    $0x12,%ecx
    1d89:	89 e7                	mov    %esp,%edi
    1d8b:	8d 45 84             	lea    -0x7c(%ebp),%eax
    1d8e:	f3 a5                	rep movsl %ds:(%esi),%es:(%edi)
    1d90:	50                   	push   %eax
    1d91:	e8 4a 4f 00 00       	call   6ce0 <source_set_transform>
    1d96:	83 c4 4c             	add    $0x4c,%esp
    1d99:	8b 43 64             	mov    0x64(%ebx),%eax
    1d9c:	8d b5 04 ff ff ff    	lea    -0xfc(%ebp),%esi
    1da2:	6a 00                	push   $0x0
    1da4:	50                   	push   %eax
    1da5:	8d 45 84             	lea    -0x7c(%ebp),%eax
    1da8:	50                   	push   %eax
    1da9:	e8 82 4f 00 00       	call   6d30 <source_set_texture>
    1dae:	8b 85 ec fe ff ff    	mov    -0x114(%ebp),%eax
    1db4:	5a                   	pop    %edx
    1db5:	59                   	pop    %ecx
    1db6:	50                   	push   %eax
    1db7:	56                   	push   %esi
    1db8:	e8 43 47 00 00       	call   6500 <drawctx_init>
    1dbd:	5f                   	pop    %edi
    1dbe:	58                   	pop    %eax
    1dbf:	8d 45 84             	lea    -0x7c(%ebp),%eax
    1dc2:	50                   	push   %eax
    1dc3:	56                   	push   %esi
    1dc4:	e8 07 49 00 00       	call   66d0 <drawctx_set_source>
    1dc9:	58                   	pop    %eax
    1dca:	8b 43 28             	mov    0x28(%ebx),%eax
    1dcd:	50                   	push   %eax
    1dce:	8b 43 24             	mov    0x24(%ebx),%eax
    1dd1:	50                   	push   %eax
    1dd2:	8b 43 20             	mov    0x20(%ebx),%eax
    1dd5:	50                   	push   %eax
    1dd6:	8b 43 1c             	mov    0x1c(%ebx),%eax
    1dd9:	50                   	push   %eax
    1dda:	56                   	push   %esi
    1ddb:	e8 10 49 00 00       	call   66f0 <drawctx_transfer>
    1de0:	83 c4 14             	add    $0x14,%esp
    1de3:	8b 53 14             	mov    0x14(%ebx),%edx
    1de6:	52                   	push   %edx
    1de7:	e8 f4 2d 00 00       	call   4be0 <window_yield>
    1dec:	83 c4 10             	add    $0x10,%esp
    1def:	8d 65 f4             	lea    -0xc(%ebp),%esp
    1df2:	5b                   	pop    %ebx
    1df3:	5e                   	pop    %esi
    1df4:	5f                   	pop    %edi
    1df5:	5d                   	pop    %ebp
    1df6:	c3                   	ret    
    1df7:	90                   	nop
    1df8:	83 ec 0c             	sub    $0xc,%esp
    1dfb:	8b 4b 14             	mov    0x14(%ebx),%ecx
    1dfe:	89 85 ec fe ff ff    	mov    %eax,-0x114(%ebp)
    1e04:	51                   	push   %ecx
    1e05:	e8 d6 2d 00 00       	call   4be0 <window_yield>
    1e0a:	83 c4 10             	add    $0x10,%esp
    1e0d:	8b 85 ec fe ff ff    	mov    -0x114(%ebp),%eax
    1e13:	e9 0a ff ff ff       	jmp    1d22 <paint_internal+0x22>
    1e18:	90                   	nop
    1e19:	8d b4 26 00 00 00 00 	lea    0x0(%esi,%eiz,1),%esi

00001e20 <canvas_rearrange>:
    1e20:	55                   	push   %ebp
    1e21:	89 e5                	mov    %esp,%ebp
    1e23:	53                   	push   %ebx
    1e24:	83 ec 10             	sub    $0x10,%esp
    1e27:	8b 5d 08             	mov    0x8(%ebp),%ebx
    1e2a:	8b 4d 10             	mov    0x10(%ebp),%ecx
    1e2d:	8b 43 60             	mov    0x60(%ebx),%eax
    1e30:	50                   	push   %eax
    1e31:	8b 45 0c             	mov    0xc(%ebp),%eax
    1e34:	8b 53 5c             	mov    0x5c(%ebx),%edx
    1e37:	52                   	push   %edx
    1e38:	51                   	push   %ecx
    1e39:	50                   	push   %eax
    1e3a:	53                   	push   %ebx
    1e3b:	e8 f0 18 00 00       	call   3730 <widget_modify>
    1e40:	83 c4 20             	add    $0x20,%esp
    1e43:	89 d8                	mov    %ebx,%eax
    1e45:	8b 5d fc             	mov    -0x4(%ebp),%ebx
    1e48:	c9                   	leave  
    1e49:	e9 b2 fe ff ff       	jmp    1d00 <paint_internal>
    1e4e:	66 90                	xchg   %ax,%ax

00001e50 <canvas_destroy>:
    1e50:	55                   	push   %ebp
    1e51:	89 e5                	mov    %esp,%ebp
    1e53:	53                   	push   %ebx
    1e54:	83 ec 10             	sub    $0x10,%esp
    1e57:	8b 5d 08             	mov    0x8(%ebp),%ebx
    1e5a:	53                   	push   %ebx
    1e5b:	e8 00 19 00 00       	call   3760 <widget_deinit>
    1e60:	89 5d 08             	mov    %ebx,0x8(%ebp)
    1e63:	83 c4 10             	add    $0x10,%esp
    1e66:	8b 5d fc             	mov    -0x4(%ebp),%ebx
    1e69:	c9                   	leave  
    1e6a:	e9 31 76 00 00       	jmp    94a0 <free@plt>
    1e6f:	90                   	nop

00001e70 <canvas_repaint>:
    1e70:	55                   	push   %ebp
    1e71:	89 e5                	mov    %esp,%ebp
    1e73:	57                   	push   %edi
    1e74:	56                   	push   %esi
    1e75:	53                   	push   %ebx
    1e76:	81 ec 28 01 00 00    	sub    $0x128,%esp
    1e7c:	8b 5d 08             	mov    0x8(%ebp),%ebx
    1e7f:	8b 7b 14             	mov    0x14(%ebx),%edi
    1e82:	57                   	push   %edi
    1e83:	e8 28 2d 00 00       	call   4bb0 <window_claim>
    1e88:	83 c4 10             	add    $0x10,%esp
    1e8b:	85 c0                	test   %eax,%eax
    1e8d:	0f 84 e5 00 00 00    	je     1f78 <canvas_repaint+0x108>
    1e93:	83 ec 0c             	sub    $0xc,%esp
    1e96:	8d b5 3c ff ff ff    	lea    -0xc4(%ebp),%esi
    1e9c:	89 85 ec fe ff ff    	mov    %eax,-0x114(%ebp)
    1ea2:	56                   	push   %esi
    1ea3:	e8 c8 6b 00 00       	call   8a70 <transform_identity>
    1ea8:	8b 43 20             	mov    0x20(%ebx),%eax
    1eab:	31 d2                	xor    %edx,%edx
    1ead:	89 85 e0 fe ff ff    	mov    %eax,-0x120(%ebp)
    1eb3:	89 95 e4 fe ff ff    	mov    %edx,-0x11c(%ebp)
    1eb9:	83 ec 0c             	sub    $0xc,%esp
    1ebc:	8b 43 1c             	mov    0x1c(%ebx),%eax
    1ebf:	df ad e0 fe ff ff    	fildll -0x120(%ebp)
    1ec5:	31 d2                	xor    %edx,%edx
    1ec7:	89 85 e0 fe ff ff    	mov    %eax,-0x120(%ebp)
    1ecd:	dd 5c 24 08          	fstpl  0x8(%esp)
    1ed1:	89 95 e4 fe ff ff    	mov    %edx,-0x11c(%ebp)
    1ed7:	df ad e0 fe ff ff    	fildll -0x120(%ebp)
    1edd:	dd 1c 24             	fstpl  (%esp)
    1ee0:	56                   	push   %esi
    1ee1:	e8 ba 6b 00 00       	call   8aa0 <transform_translate>
    1ee6:	83 c4 14             	add    $0x14,%esp
    1ee9:	8d 45 84             	lea    -0x7c(%ebp),%eax
    1eec:	50                   	push   %eax
    1eed:	e8 9e 4d 00 00       	call   6c90 <source_init>
    1ef2:	83 ec 3c             	sub    $0x3c,%esp
    1ef5:	b9 12 00 00 00       	mov    $0x12,%ecx
    1efa:	89 e7                	mov    %esp,%edi
    1efc:	8d 45 84             	lea    -0x7c(%ebp),%eax
    1eff:	f3 a5                	rep movsl %ds:(%esi),%es:(%edi)
    1f01:	50                   	push   %eax
    1f02:	e8 d9 4d 00 00       	call   6ce0 <source_set_transform>
    1f07:	83 c4 4c             	add    $0x4c,%esp
    1f0a:	8b 43 64             	mov    0x64(%ebx),%eax
    1f0d:	8d b5 04 ff ff ff    	lea    -0xfc(%ebp),%esi
    1f13:	6a 00                	push   $0x0
    1f15:	50                   	push   %eax
    1f16:	8d 45 84             	lea    -0x7c(%ebp),%eax
    1f19:	50                   	push   %eax
    1f1a:	e8 11 4e 00 00       	call   6d30 <source_set_texture>
    1f1f:	8b 85 ec fe ff ff    	mov    -0x114(%ebp),%eax
    1f25:	5a                   	pop    %edx
    1f26:	59                   	pop    %ecx
    1f27:	50                   	push   %eax
    1f28:	56                   	push   %esi
    1f29:	e8 d2 45 00 00       	call   6500 <drawctx_init>
    1f2e:	5f                   	pop    %edi
    1f2f:	58                   	pop    %eax
    1f30:	8d 45 84             	lea    -0x7c(%ebp),%eax
    1f33:	50                   	push   %eax
    1f34:	56                   	push   %esi
    1f35:	e8 96 47 00 00       	call   66d0 <drawctx_set_source>
    1f3a:	58                   	pop    %eax
    1f3b:	8b 43 28             	mov    0x28(%ebx),%eax
    1f3e:	50                   	push   %eax
    1f3f:	8b 43 24             	mov    0x24(%ebx),%eax
    1f42:	50                   	push   %eax
    1f43:	8b 43 20             	mov    0x20(%ebx),%eax
    1f46:	50                   	push   %eax
    1f47:	8b 43 1c             	mov    0x1c(%ebx),%eax
    1f4a:	50                   	push   %eax
    1f4b:	56                   	push   %esi
    1f4c:	e8 9f 47 00 00       	call   66f0 <drawctx_transfer>
    1f51:	83 c4 14             	add    $0x14,%esp
    1f54:	8b 53 14             	mov    0x14(%ebx),%edx
    1f57:	52                   	push   %edx
    1f58:	e8 83 2c 00 00       	call   4be0 <window_yield>
    1f5d:	8b 5b 14             	mov    0x14(%ebx),%ebx
    1f60:	59                   	pop    %ecx
    1f61:	53                   	push   %ebx
    1f62:	e8 99 2b 00 00       	call   4b00 <window_damage>
    1f67:	83 c4 10             	add    $0x10,%esp
    1f6a:	8d 65 f4             	lea    -0xc(%ebp),%esp
    1f6d:	5b                   	pop    %ebx
    1f6e:	5e                   	pop    %esi
    1f6f:	5f                   	pop    %edi
    1f70:	5d                   	pop    %ebp
    1f71:	c3                   	ret    
    1f72:	8d b6 00 00 00 00    	lea    0x0(%esi),%esi
    1f78:	83 ec 0c             	sub    $0xc,%esp
    1f7b:	8b 73 14             	mov    0x14(%ebx),%esi
    1f7e:	89 85 ec fe ff ff    	mov    %eax,-0x114(%ebp)
    1f84:	56                   	push   %esi
    1f85:	e8 56 2c 00 00       	call   4be0 <window_yield>
    1f8a:	83 c4 10             	add    $0x10,%esp
    1f8d:	8b 85 ec fe ff ff    	mov    -0x114(%ebp),%eax
    1f93:	e9 fb fe ff ff       	jmp    1e93 <canvas_repaint+0x23>
    1f98:	90                   	nop
    1f99:	8d b4 26 00 00 00 00 	lea    0x0(%esi,%eiz,1),%esi

00001fa0 <deinit_canvas>:
    1fa0:	55                   	push   %ebp
    1fa1:	89 e5                	mov    %esp,%ebp
    1fa3:	5d                   	pop    %ebp
    1fa4:	e9 b7 17 00 00       	jmp    3760 <widget_deinit>
    1fa9:	8d b4 26 00 00 00 00 	lea    0x0(%esi,%eiz,1),%esi

00001fb0 <init_canvas>:
    1fb0:	55                   	push   %ebp
    1fb1:	89 e5                	mov    %esp,%ebp
    1fb3:	57                   	push   %edi
    1fb4:	56                   	push   %esi
    1fb5:	53                   	push   %ebx
    1fb6:	83 ec 10             	sub    $0x10,%esp
    1fb9:	8b 5d 08             	mov    0x8(%ebp),%ebx
    1fbc:	8b 45 10             	mov    0x10(%ebp),%eax
    1fbf:	8b 55 0c             	mov    0xc(%ebp),%edx
    1fc2:	8b 7d 14             	mov    0x14(%ebp),%edi
    1fc5:	8b 75 18             	mov    0x18(%ebp),%esi
    1fc8:	50                   	push   %eax
    1fc9:	52                   	push   %edx
    1fca:	53                   	push   %ebx
    1fcb:	e8 c0 16 00 00       	call   3690 <widget_init>
    1fd0:	8b 45 1c             	mov    0x1c(%ebp),%eax
    1fd3:	89 43 64             	mov    %eax,0x64(%ebx)
    1fd6:	89 7b 24             	mov    %edi,0x24(%ebx)
    1fd9:	89 73 28             	mov    %esi,0x28(%ebx)
    1fdc:	89 7b 2c             	mov    %edi,0x2c(%ebx)
    1fdf:	89 73 30             	mov    %esi,0x30(%ebx)
    1fe2:	89 7b 34             	mov    %edi,0x34(%ebx)
    1fe5:	89 73 38             	mov    %esi,0x38(%ebx)
    1fe8:	89 7b 3c             	mov    %edi,0x3c(%ebx)
    1feb:	89 73 40             	mov    %esi,0x40(%ebx)
    1fee:	c7 43 44 50 1e 00 00 	movl   $0x1e50,0x44(%ebx)
    1ff5:	c7 43 48 80 1c 00 00 	movl   $0x1c80,0x48(%ebx)
    1ffc:	c7 43 4c 20 1e 00 00 	movl   $0x1e20,0x4c(%ebx)
    2003:	c7 43 50 70 1e 00 00 	movl   $0x1e70,0x50(%ebx)
    200a:	c7 43 54 e0 1c 00 00 	movl   $0x1ce0,0x54(%ebx)
    2011:	c7 43 58 90 1c 00 00 	movl   $0x1c90,0x58(%ebx)
    2018:	89 7b 5c             	mov    %edi,0x5c(%ebx)
    201b:	89 73 60             	mov    %esi,0x60(%ebx)
    201e:	8d 65 f4             	lea    -0xc(%ebp),%esp
    2021:	b0 01                	mov    $0x1,%al
    2023:	5b                   	pop    %ebx
    2024:	5e                   	pop    %esi
    2025:	5f                   	pop    %edi
    2026:	5d                   	pop    %ebp
    2027:	c3                   	ret    
    2028:	90                   	nop
    2029:	8d b4 26 00 00 00 00 	lea    0x0(%esi,%eiz,1),%esi

00002030 <update_canvas>:
    2030:	55                   	push   %ebp
    2031:	89 e5                	mov    %esp,%ebp
    2033:	53                   	push   %ebx
    2034:	52                   	push   %edx
    2035:	8b 45 0c             	mov    0xc(%ebp),%eax
    2038:	8b 5d 08             	mov    0x8(%ebp),%ebx
    203b:	85 c0                	test   %eax,%eax
    203d:	74 03                	je     2042 <update_canvas+0x12>
    203f:	89 43 64             	mov    %eax,0x64(%ebx)
    2042:	89 d8                	mov    %ebx,%eax
    2044:	e8 b7 fc ff ff       	call   1d00 <paint_internal>
    2049:	83 ec 0c             	sub    $0xc,%esp
    204c:	8b 43 14             	mov    0x14(%ebx),%eax
    204f:	50                   	push   %eax
    2050:	e8 ab 2a 00 00       	call   4b00 <window_damage>
    2055:	b0 01                	mov    $0x1,%al
    2057:	8b 5d fc             	mov    -0x4(%ebp),%ebx
    205a:	c9                   	leave  
    205b:	c3                   	ret    
    205c:	8d 74 26 00          	lea    0x0(%esi,%eiz,1),%esi

00002060 <create_canvas>:
    2060:	55                   	push   %ebp
    2061:	89 e5                	mov    %esp,%ebp
    2063:	56                   	push   %esi
    2064:	53                   	push   %ebx
    2065:	83 ec 1c             	sub    $0x1c,%esp
    2068:	8b 75 10             	mov    0x10(%ebp),%esi
    206b:	8b 5d 14             	mov    0x14(%ebp),%ebx
    206e:	6a 70                	push   $0x70
    2070:	e8 3b 72 00 00       	call   92b0 <malloc@plt>
    2075:	83 c4 10             	add    $0x10,%esp
    2078:	85 c0                	test   %eax,%eax
    207a:	74 66                	je     20e2 <create_canvas+0x82>
    207c:	8b 4d 0c             	mov    0xc(%ebp),%ecx
    207f:	52                   	push   %edx
    2080:	8b 55 08             	mov    0x8(%ebp),%edx
    2083:	51                   	push   %ecx
    2084:	89 45 f4             	mov    %eax,-0xc(%ebp)
    2087:	52                   	push   %edx
    2088:	50                   	push   %eax
    2089:	e8 02 16 00 00       	call   3690 <widget_init>
    208e:	8b 45 f4             	mov    -0xc(%ebp),%eax
    2091:	8b 55 18             	mov    0x18(%ebp),%edx
    2094:	83 c4 10             	add    $0x10,%esp
    2097:	89 70 24             	mov    %esi,0x24(%eax)
    209a:	89 58 28             	mov    %ebx,0x28(%eax)
    209d:	89 70 2c             	mov    %esi,0x2c(%eax)
    20a0:	89 58 30             	mov    %ebx,0x30(%eax)
    20a3:	89 70 34             	mov    %esi,0x34(%eax)
    20a6:	89 58 38             	mov    %ebx,0x38(%eax)
    20a9:	89 70 3c             	mov    %esi,0x3c(%eax)
    20ac:	89 58 40             	mov    %ebx,0x40(%eax)
    20af:	c7 40 44 50 1e 00 00 	movl   $0x1e50,0x44(%eax)
    20b6:	c7 40 48 80 1c 00 00 	movl   $0x1c80,0x48(%eax)
    20bd:	c7 40 4c 20 1e 00 00 	movl   $0x1e20,0x4c(%eax)
    20c4:	c7 40 50 70 1e 00 00 	movl   $0x1e70,0x50(%eax)
    20cb:	c7 40 54 e0 1c 00 00 	movl   $0x1ce0,0x54(%eax)
    20d2:	c7 40 58 90 1c 00 00 	movl   $0x1c90,0x58(%eax)
    20d9:	89 70 5c             	mov    %esi,0x5c(%eax)
    20dc:	89 58 60             	mov    %ebx,0x60(%eax)
    20df:	89 50 64             	mov    %edx,0x64(%eax)
    20e2:	8d 65 f8             	lea    -0x8(%ebp),%esp
    20e5:	5b                   	pop    %ebx
    20e6:	5e                   	pop    %esi
    20e7:	5d                   	pop    %ebp
    20e8:	c3                   	ret    
    20e9:	66 90                	xchg   %ax,%ax
    20eb:	66 90                	xchg   %ax,%ax
    20ed:	66 90                	xchg   %ax,%ax
    20ef:	90                   	nop

000020f0 <sig_connect>:
    20f0:	55                   	push   %ebp
    20f1:	89 e5                	mov    %esp,%ebp
    20f3:	57                   	push   %edi
    20f4:	56                   	push   %esi
    20f5:	53                   	push   %ebx
    20f6:	83 ec 28             	sub    $0x28,%esp
    20f9:	8b 5d 08             	mov    0x8(%ebp),%ebx
    20fc:	8b 75 0c             	mov    0xc(%ebp),%esi
    20ff:	68 94 44 01 00       	push   $0x14494
    2104:	8b 7d 10             	mov    0x10(%ebp),%edi
    2107:	e8 d4 72 00 00       	call   93e0 <fibril_rwlock_write_lock@plt>
    210c:	a1 90 44 01 00       	mov    0x14490,%eax
    2111:	83 c4 10             	add    $0x10,%esp
    2114:	3d 8c 44 01 00       	cmp    $0x1448c,%eax
    2119:	74 20                	je     213b <sig_connect+0x4b>
    211b:	3b 58 08             	cmp    0x8(%eax),%ebx
    211e:	75 11                	jne    2131 <sig_connect+0x41>
    2120:	e9 9b 00 00 00       	jmp    21c0 <sig_connect+0xd0>
    2125:	8d 76 00             	lea    0x0(%esi),%esi
    2128:	39 58 08             	cmp    %ebx,0x8(%eax)
    212b:	0f 84 8f 00 00 00    	je     21c0 <sig_connect+0xd0>
    2131:	8b 40 04             	mov    0x4(%eax),%eax
    2134:	3d 8c 44 01 00       	cmp    $0x1448c,%eax
    2139:	75 ed                	jne    2128 <sig_connect+0x38>
    213b:	83 ec 0c             	sub    $0xc,%esp
    213e:	6a 14                	push   $0x14
    2140:	e8 6b 71 00 00       	call   92b0 <malloc@plt>
    2145:	83 c4 10             	add    $0x10,%esp
    2148:	89 45 e4             	mov    %eax,-0x1c(%ebp)
    214b:	85 c0                	test   %eax,%eax
    214d:	0f 84 a6 00 00 00    	je     21f9 <sig_connect+0x109>
    2153:	89 58 08             	mov    %ebx,0x8(%eax)
    2156:	8d 58 0c             	lea    0xc(%eax),%ebx
    2159:	89 c1                	mov    %eax,%ecx
    215b:	89 58 10             	mov    %ebx,0x10(%eax)
    215e:	c7 40 04 8c 44 01 00 	movl   $0x1448c,0x4(%eax)
    2165:	89 58 0c             	mov    %ebx,0xc(%eax)
    2168:	a1 8c 44 01 00       	mov    0x1448c,%eax
    216d:	89 0d 8c 44 01 00    	mov    %ecx,0x1448c
    2173:	89 01                	mov    %eax,(%ecx)
    2175:	89 48 04             	mov    %ecx,0x4(%eax)
    2178:	89 c8                	mov    %ecx,%eax
    217a:	8b 40 10             	mov    0x10(%eax),%eax
    217d:	39 c3                	cmp    %eax,%ebx
    217f:	75 5e                	jne    21df <sig_connect+0xef>
    2181:	8d b4 26 00 00 00 00 	lea    0x0(%esi,%eiz,1),%esi
    2188:	83 ec 0c             	sub    $0xc,%esp
    218b:	6a 10                	push   $0x10
    218d:	e8 1e 71 00 00       	call   92b0 <malloc@plt>
    2192:	83 c4 10             	add    $0x10,%esp
    2195:	85 c0                	test   %eax,%eax
    2197:	74 60                	je     21f9 <sig_connect+0x109>
    2199:	8b 4d e4             	mov    -0x1c(%ebp),%ecx
    219c:	c7 00 00 00 00 00    	movl   $0x0,(%eax)
    21a2:	89 70 08             	mov    %esi,0x8(%eax)
    21a5:	89 78 0c             	mov    %edi,0xc(%eax)
    21a8:	8b 51 0c             	mov    0xc(%ecx),%edx
    21ab:	89 58 04             	mov    %ebx,0x4(%eax)
    21ae:	89 10                	mov    %edx,(%eax)
    21b0:	8b 51 0c             	mov    0xc(%ecx),%edx
    21b3:	89 42 04             	mov    %eax,0x4(%edx)
    21b6:	89 41 0c             	mov    %eax,0xc(%ecx)
    21b9:	eb 3e                	jmp    21f9 <sig_connect+0x109>
    21bb:	90                   	nop
    21bc:	8d 74 26 00          	lea    0x0(%esi,%eiz,1),%esi
    21c0:	89 45 e4             	mov    %eax,-0x1c(%ebp)
    21c3:	8d 58 0c             	lea    0xc(%eax),%ebx
    21c6:	8b 45 e4             	mov    -0x1c(%ebp),%eax
    21c9:	8b 40 10             	mov    0x10(%eax),%eax
    21cc:	39 c3                	cmp    %eax,%ebx
    21ce:	75 0f                	jne    21df <sig_connect+0xef>
    21d0:	eb b6                	jmp    2188 <sig_connect+0x98>
    21d2:	8d b6 00 00 00 00    	lea    0x0(%esi),%esi
    21d8:	8b 40 04             	mov    0x4(%eax),%eax
    21db:	39 c3                	cmp    %eax,%ebx
    21dd:	74 a9                	je     2188 <sig_connect+0x98>
    21df:	39 70 08             	cmp    %esi,0x8(%eax)
    21e2:	75 f4                	jne    21d8 <sig_connect+0xe8>
    21e4:	39 78 0c             	cmp    %edi,0xc(%eax)
    21e7:	75 ef                	jne    21d8 <sig_connect+0xe8>
    21e9:	83 ec 0c             	sub    $0xc,%esp
    21ec:	68 94 44 01 00       	push   $0x14494
    21f1:	e8 8a 71 00 00       	call   9380 <fibril_rwlock_write_unlock@plt>
    21f6:	83 c4 10             	add    $0x10,%esp
    21f9:	c7 45 08 94 44 01 00 	movl   $0x14494,0x8(%ebp)
    2200:	8d 65 f4             	lea    -0xc(%ebp),%esp
    2203:	5b                   	pop    %ebx
    2204:	5e                   	pop    %esi
    2205:	5f                   	pop    %edi
    2206:	5d                   	pop    %ebp
    2207:	e9 74 71 00 00       	jmp    9380 <fibril_rwlock_write_unlock@plt>
    220c:	8d 74 26 00          	lea    0x0(%esi,%eiz,1),%esi

00002210 <sig_disconnect>:
    2210:	55                   	push   %ebp
    2211:	89 e5                	mov    %esp,%ebp
    2213:	57                   	push   %edi
    2214:	56                   	push   %esi
    2215:	53                   	push   %ebx
    2216:	83 ec 28             	sub    $0x28,%esp
    2219:	8b 55 10             	mov    0x10(%ebp),%edx
    221c:	8b 75 08             	mov    0x8(%ebp),%esi
    221f:	68 94 44 01 00       	push   $0x14494
    2224:	8b 7d 0c             	mov    0xc(%ebp),%edi
    2227:	89 55 e4             	mov    %edx,-0x1c(%ebp)
    222a:	e8 b1 71 00 00       	call   93e0 <fibril_rwlock_write_lock@plt>
    222f:	8b 1d 90 44 01 00    	mov    0x14490,%ebx
    2235:	83 c4 10             	add    $0x10,%esp
    2238:	81 fb 8c 44 01 00    	cmp    $0x1448c,%ebx
    223e:	74 20                	je     2260 <sig_disconnect+0x50>
    2240:	3b 73 08             	cmp    0x8(%ebx),%esi
    2243:	8b 55 e4             	mov    -0x1c(%ebp),%edx
    2246:	75 0d                	jne    2255 <sig_disconnect+0x45>
    2248:	eb 2e                	jmp    2278 <sig_disconnect+0x68>
    224a:	8d b6 00 00 00 00    	lea    0x0(%esi),%esi
    2250:	39 73 08             	cmp    %esi,0x8(%ebx)
    2253:	74 23                	je     2278 <sig_disconnect+0x68>
    2255:	8b 5b 04             	mov    0x4(%ebx),%ebx
    2258:	81 fb 8c 44 01 00    	cmp    $0x1448c,%ebx
    225e:	75 f0                	jne    2250 <sig_disconnect+0x40>
    2260:	c7 45 08 94 44 01 00 	movl   $0x14494,0x8(%ebp)
    2267:	8d 65 f4             	lea    -0xc(%ebp),%esp
    226a:	5b                   	pop    %ebx
    226b:	5e                   	pop    %esi
    226c:	5f                   	pop    %edi
    226d:	5d                   	pop    %ebp
    226e:	e9 0d 71 00 00       	jmp    9380 <fibril_rwlock_write_unlock@plt>
    2273:	90                   	nop
    2274:	8d 74 26 00          	lea    0x0(%esi,%eiz,1),%esi
    2278:	8b 43 10             	mov    0x10(%ebx),%eax
    227b:	8d 73 0c             	lea    0xc(%ebx),%esi
    227e:	39 f0                	cmp    %esi,%eax
    2280:	75 0d                	jne    228f <sig_disconnect+0x7f>
    2282:	eb dc                	jmp    2260 <sig_disconnect+0x50>
    2284:	8d 74 26 00          	lea    0x0(%esi,%eiz,1),%esi
    2288:	8b 40 04             	mov    0x4(%eax),%eax
    228b:	39 f0                	cmp    %esi,%eax
    228d:	74 d1                	je     2260 <sig_disconnect+0x50>
    228f:	39 78 08             	cmp    %edi,0x8(%eax)
    2292:	75 f4                	jne    2288 <sig_disconnect+0x78>
    2294:	39 50 0c             	cmp    %edx,0xc(%eax)
    2297:	75 ef                	jne    2288 <sig_disconnect+0x78>
    2299:	8b 10                	mov    (%eax),%edx
    229b:	85 d2                	test   %edx,%edx
    229d:	74 0e                	je     22ad <sig_disconnect+0x9d>
    229f:	8b 48 04             	mov    0x4(%eax),%ecx
    22a2:	85 c9                	test   %ecx,%ecx
    22a4:	74 07                	je     22ad <sig_disconnect+0x9d>
    22a6:	89 11                	mov    %edx,(%ecx)
    22a8:	8b 10                	mov    (%eax),%edx
    22aa:	89 4a 04             	mov    %ecx,0x4(%edx)
    22ad:	83 ec 0c             	sub    $0xc,%esp
    22b0:	c7 00 00 00 00 00    	movl   $0x0,(%eax)
    22b6:	c7 40 04 00 00 00 00 	movl   $0x0,0x4(%eax)
    22bd:	50                   	push   %eax
    22be:	e8 dd 71 00 00       	call   94a0 <free@plt>
    22c3:	83 c4 10             	add    $0x10,%esp
    22c6:	39 73 10             	cmp    %esi,0x10(%ebx)
    22c9:	75 95                	jne    2260 <sig_disconnect+0x50>
    22cb:	8b 13                	mov    (%ebx),%edx
    22cd:	85 d2                	test   %edx,%edx
    22cf:	74 0e                	je     22df <sig_disconnect+0xcf>
    22d1:	8b 43 04             	mov    0x4(%ebx),%eax
    22d4:	85 c0                	test   %eax,%eax
    22d6:	74 07                	je     22df <sig_disconnect+0xcf>
    22d8:	89 10                	mov    %edx,(%eax)
    22da:	8b 13                	mov    (%ebx),%edx
    22dc:	89 42 04             	mov    %eax,0x4(%edx)
    22df:	83 ec 0c             	sub    $0xc,%esp
    22e2:	c7 03 00 00 00 00    	movl   $0x0,(%ebx)
    22e8:	c7 43 04 00 00 00 00 	movl   $0x0,0x4(%ebx)
    22ef:	53                   	push   %ebx
    22f0:	e8 ab 71 00 00       	call   94a0 <free@plt>
    22f5:	83 c4 10             	add    $0x10,%esp
    22f8:	e9 63 ff ff ff       	jmp    2260 <sig_disconnect+0x50>
    22fd:	8d 76 00             	lea    0x0(%esi),%esi

00002300 <sig_send>:
    2300:	55                   	push   %ebp
    2301:	89 e5                	mov    %esp,%ebp
    2303:	57                   	push   %edi
    2304:	56                   	push   %esi
    2305:	53                   	push   %ebx
    2306:	83 ec 18             	sub    $0x18,%esp
    2309:	8b 5d 08             	mov    0x8(%ebp),%ebx
    230c:	8b 75 0c             	mov    0xc(%ebp),%esi
    230f:	68 94 44 01 00       	push   $0x14494
    2314:	e8 57 71 00 00       	call   9470 <fibril_rwlock_read_lock@plt>
    2319:	a1 90 44 01 00       	mov    0x14490,%eax
    231e:	83 c4 10             	add    $0x10,%esp
    2321:	3d 8c 44 01 00       	cmp    $0x1448c,%eax
    2326:	74 17                	je     233f <sig_send+0x3f>
    2328:	3b 58 08             	cmp    0x8(%eax),%ebx
    232b:	75 08                	jne    2335 <sig_send+0x35>
    232d:	eb 29                	jmp    2358 <sig_send+0x58>
    232f:	90                   	nop
    2330:	39 58 08             	cmp    %ebx,0x8(%eax)
    2333:	74 23                	je     2358 <sig_send+0x58>
    2335:	8b 40 04             	mov    0x4(%eax),%eax
    2338:	3d 8c 44 01 00       	cmp    $0x1448c,%eax
    233d:	75 f1                	jne    2330 <sig_send+0x30>
    233f:	c7 45 08 94 44 01 00 	movl   $0x14494,0x8(%ebp)
    2346:	8d 65 f4             	lea    -0xc(%ebp),%esp
    2349:	5b                   	pop    %ebx
    234a:	5e                   	pop    %esi
    234b:	5f                   	pop    %edi
    234c:	5d                   	pop    %ebp
    234d:	e9 1e 6f 00 00       	jmp    9270 <fibril_rwlock_read_unlock@plt>
    2352:	8d b6 00 00 00 00    	lea    0x0(%esi),%esi
    2358:	8b 78 10             	mov    0x10(%eax),%edi
    235b:	8d 58 0c             	lea    0xc(%eax),%ebx
    235e:	39 df                	cmp    %ebx,%edi
    2360:	74 dd                	je     233f <sig_send+0x3f>
    2362:	8d b6 00 00 00 00    	lea    0x0(%esi),%esi
    2368:	50                   	push   %eax
    2369:	50                   	push   %eax
    236a:	56                   	push   %esi
    236b:	8b 57 08             	mov    0x8(%edi),%edx
    236e:	52                   	push   %edx
    236f:	ff 57 0c             	call   *0xc(%edi)
    2372:	8b 7f 04             	mov    0x4(%edi),%edi
    2375:	83 c4 10             	add    $0x10,%esp
    2378:	39 df                	cmp    %ebx,%edi
    237a:	75 ec                	jne    2368 <sig_send+0x68>
    237c:	eb c1                	jmp    233f <sig_send+0x3f>
    237e:	66 90                	xchg   %ax,%ax

00002380 <sig_post>:
    2380:	55                   	push   %ebp
    2381:	89 e5                	mov    %esp,%ebp
    2383:	57                   	push   %edi
    2384:	56                   	push   %esi
    2385:	53                   	push   %ebx
    2386:	83 ec 28             	sub    $0x28,%esp
    2389:	8b 45 0c             	mov    0xc(%ebp),%eax
    238c:	8b 75 08             	mov    0x8(%ebp),%esi
    238f:	68 94 44 01 00       	push   $0x14494
    2394:	89 45 e0             	mov    %eax,-0x20(%ebp)
    2397:	8b 7d 10             	mov    0x10(%ebp),%edi
    239a:	e8 d1 70 00 00       	call   9470 <fibril_rwlock_read_lock@plt>
    239f:	8b 1d 90 44 01 00    	mov    0x14490,%ebx
    23a5:	83 c4 10             	add    $0x10,%esp
    23a8:	81 fb 8c 44 01 00    	cmp    $0x1448c,%ebx
    23ae:	74 18                	je     23c8 <sig_post+0x48>
    23b0:	3b 73 08             	cmp    0x8(%ebx),%esi
    23b3:	75 08                	jne    23bd <sig_post+0x3d>
    23b5:	eb 29                	jmp    23e0 <sig_post+0x60>
    23b7:	90                   	nop
    23b8:	39 73 08             	cmp    %esi,0x8(%ebx)
    23bb:	74 23                	je     23e0 <sig_post+0x60>
    23bd:	8b 5b 04             	mov    0x4(%ebx),%ebx
    23c0:	81 fb 8c 44 01 00    	cmp    $0x1448c,%ebx
    23c6:	75 f0                	jne    23b8 <sig_post+0x38>
    23c8:	c7 45 08 94 44 01 00 	movl   $0x14494,0x8(%ebp)
    23cf:	8d 65 f4             	lea    -0xc(%ebp),%esp
    23d2:	5b                   	pop    %ebx
    23d3:	5e                   	pop    %esi
    23d4:	5f                   	pop    %edi
    23d5:	5d                   	pop    %ebp
    23d6:	e9 95 6e 00 00       	jmp    9270 <fibril_rwlock_read_unlock@plt>
    23db:	90                   	nop
    23dc:	8d 74 26 00          	lea    0x0(%esi,%eiz,1),%esi
    23e0:	8b 73 10             	mov    0x10(%ebx),%esi
    23e3:	83 c3 0c             	add    $0xc,%ebx
    23e6:	39 de                	cmp    %ebx,%esi
    23e8:	74 de                	je     23c8 <sig_post+0x48>
    23ea:	8b 45 e0             	mov    -0x20(%ebp),%eax
    23ed:	85 c0                	test   %eax,%eax
    23ef:	0f 84 a3 00 00 00    	je     2498 <sig_post+0x118>
    23f5:	89 5d e4             	mov    %ebx,-0x1c(%ebp)
    23f8:	eb 3d                	jmp    2437 <sig_post+0xb7>
    23fa:	8d b6 00 00 00 00    	lea    0x0(%esi),%esi
    2400:	8b 45 e0             	mov    -0x20(%ebp),%eax
    2403:	51                   	push   %ecx
    2404:	57                   	push   %edi
    2405:	50                   	push   %eax
    2406:	53                   	push   %ebx
    2407:	e8 94 6e 00 00       	call   92a0 <memcpy@plt>
    240c:	c7 04 24 24 00 00 00 	movl   $0x24,(%esp)
    2413:	e8 98 6e 00 00       	call   92b0 <malloc@plt>
    2418:	83 c4 10             	add    $0x10,%esp
    241b:	85 c0                	test   %eax,%eax
    241d:	0f 85 cd 00 00 00    	jne    24f0 <sig_post+0x170>
    2423:	83 ec 0c             	sub    $0xc,%esp
    2426:	53                   	push   %ebx
    2427:	e8 74 70 00 00       	call   94a0 <free@plt>
    242c:	83 c4 10             	add    $0x10,%esp
    242f:	8b 76 04             	mov    0x4(%esi),%esi
    2432:	3b 75 e4             	cmp    -0x1c(%ebp),%esi
    2435:	74 91                	je     23c8 <sig_post+0x48>
    2437:	83 ec 0c             	sub    $0xc,%esp
    243a:	57                   	push   %edi
    243b:	e8 70 6e 00 00       	call   92b0 <malloc@plt>
    2440:	83 c4 10             	add    $0x10,%esp
    2443:	89 c3                	mov    %eax,%ebx
    2445:	85 c0                	test   %eax,%eax
    2447:	75 b7                	jne    2400 <sig_post+0x80>
    2449:	83 ec 0c             	sub    $0xc,%esp
    244c:	6a 24                	push   $0x24
    244e:	e8 5d 6e 00 00       	call   92b0 <malloc@plt>
    2453:	83 c4 10             	add    $0x10,%esp
    2456:	31 d2                	xor    %edx,%edx
    2458:	85 c0                	test   %eax,%eax
    245a:	74 d3                	je     242f <sig_post+0xaf>
    245c:	8b 4e 08             	mov    0x8(%esi),%ecx
    245f:	c7 00 00 00 00 00    	movl   $0x0,(%eax)
    2465:	89 48 0c             	mov    %ecx,0xc(%eax)
    2468:	c7 40 04 00 00 00 00 	movl   $0x0,0x4(%eax)
    246f:	8b 5e 0c             	mov    0xc(%esi),%ebx
    2472:	c7 40 08 02 00 00 00 	movl   $0x2,0x8(%eax)
    2479:	89 50 14             	mov    %edx,0x14(%eax)
    247c:	89 58 10             	mov    %ebx,0x10(%eax)
    247f:	52                   	push   %edx
    2480:	52                   	push   %edx
    2481:	50                   	push   %eax
    2482:	8b 41 14             	mov    0x14(%ecx),%eax
    2485:	83 c0 10             	add    $0x10,%eax
    2488:	50                   	push   %eax
    2489:	e8 72 6f 00 00       	call   9400 <prodcons_produce@plt>
    248e:	83 c4 10             	add    $0x10,%esp
    2491:	eb 9c                	jmp    242f <sig_post+0xaf>
    2493:	90                   	nop
    2494:	8d 74 26 00          	lea    0x0(%esi,%eiz,1),%esi
    2498:	83 ec 0c             	sub    $0xc,%esp
    249b:	6a 24                	push   $0x24
    249d:	e8 0e 6e 00 00       	call   92b0 <malloc@plt>
    24a2:	83 c4 10             	add    $0x10,%esp
    24a5:	85 c0                	test   %eax,%eax
    24a7:	74 39                	je     24e2 <sig_post+0x162>
    24a9:	8b 56 08             	mov    0x8(%esi),%edx
    24ac:	c7 00 00 00 00 00    	movl   $0x0,(%eax)
    24b2:	89 50 0c             	mov    %edx,0xc(%eax)
    24b5:	c7 40 04 00 00 00 00 	movl   $0x0,0x4(%eax)
    24bc:	8b 4e 0c             	mov    0xc(%esi),%ecx
    24bf:	c7 40 08 02 00 00 00 	movl   $0x2,0x8(%eax)
    24c6:	89 48 10             	mov    %ecx,0x10(%eax)
    24c9:	c7 40 14 00 00 00 00 	movl   $0x0,0x14(%eax)
    24d0:	51                   	push   %ecx
    24d1:	51                   	push   %ecx
    24d2:	50                   	push   %eax
    24d3:	8b 42 14             	mov    0x14(%edx),%eax
    24d6:	83 c0 10             	add    $0x10,%eax
    24d9:	50                   	push   %eax
    24da:	e8 21 6f 00 00       	call   9400 <prodcons_produce@plt>
    24df:	83 c4 10             	add    $0x10,%esp
    24e2:	8b 76 04             	mov    0x4(%esi),%esi
    24e5:	39 de                	cmp    %ebx,%esi
    24e7:	75 af                	jne    2498 <sig_post+0x118>
    24e9:	e9 da fe ff ff       	jmp    23c8 <sig_post+0x48>
    24ee:	66 90                	xchg   %ax,%ax
    24f0:	89 da                	mov    %ebx,%edx
    24f2:	e9 65 ff ff ff       	jmp    245c <sig_post+0xdc>
    24f7:	66 90                	xchg   %ax,%ax
    24f9:	66 90                	xchg   %ax,%ax
    24fb:	66 90                	xchg   %ax,%ax
    24fd:	66 90                	xchg   %ax,%ax
    24ff:	90                   	nop

00002500 <grid_reconfigure>:
    2500:	55                   	push   %ebp
    2501:	89 e5                	mov    %esp,%ebp
    2503:	5d                   	pop    %ebp
    2504:	c3                   	ret    
    2505:	8d 74 26 00          	lea    0x0(%esi,%eiz,1),%esi
    2509:	8d bc 27 00 00 00 00 	lea    0x0(%edi,%eiz,1),%edi

00002510 <grid_handle_keyboard_event>:
    2510:	55                   	push   %ebp
    2511:	89 e5                	mov    %esp,%ebp
    2513:	5d                   	pop    %ebp
    2514:	c3                   	ret    
    2515:	8d 74 26 00          	lea    0x0(%esi,%eiz,1),%esi
    2519:	8d bc 27 00 00 00 00 	lea    0x0(%edi,%eiz,1),%edi

00002520 <grid_handle_position_event>:
    2520:	55                   	push   %ebp
    2521:	89 e5                	mov    %esp,%ebp
    2523:	57                   	push   %edi
    2524:	56                   	push   %esi
    2525:	53                   	push   %ebx
    2526:	83 ec 2c             	sub    $0x2c,%esp
    2529:	8b 45 08             	mov    0x8(%ebp),%eax
    252c:	8b 75 1c             	mov    0x1c(%ebp),%esi
    252f:	89 75 dc             	mov    %esi,-0x24(%ebp)
    2532:	8b 75 18             	mov    0x18(%ebp),%esi
    2535:	89 75 e0             	mov    %esi,-0x20(%ebp)
    2538:	8b 70 60             	mov    0x60(%eax),%esi
    253b:	89 45 d4             	mov    %eax,-0x2c(%ebp)
    253e:	89 75 d0             	mov    %esi,-0x30(%ebp)
    2541:	85 f6                	test   %esi,%esi
    2543:	74 7c                	je     25c1 <grid_handle_position_event+0xa1>
    2545:	89 f1                	mov    %esi,%ecx
    2547:	8b 70 64             	mov    0x64(%eax),%esi
    254a:	c7 45 d8 00 00 00 00 	movl   $0x0,-0x28(%ebp)
    2551:	8d 04 49             	lea    (%ecx,%ecx,2),%eax
    2554:	c1 e0 02             	shl    $0x2,%eax
    2557:	89 45 e4             	mov    %eax,-0x1c(%ebp)
    255a:	8d b6 00 00 00 00    	lea    0x0(%esi),%esi
    2560:	85 f6                	test   %esi,%esi
    2562:	74 4e                	je     25b2 <grid_handle_position_event+0x92>
    2564:	8b 4d d4             	mov    -0x2c(%ebp),%ecx
    2567:	8b 45 d8             	mov    -0x28(%ebp),%eax
    256a:	8b 51 68             	mov    0x68(%ecx),%edx
    256d:	8d 04 40             	lea    (%eax,%eax,2),%eax
    2570:	31 c9                	xor    %ecx,%ecx
    2572:	8d 04 82             	lea    (%edx,%eax,4),%eax
    2575:	8d 76 00             	lea    0x0(%esi),%esi
    2578:	85 c0                	test   %eax,%eax
    257a:	74 2c                	je     25a8 <grid_handle_position_event+0x88>
    257c:	8b 10                	mov    (%eax),%edx
    257e:	85 d2                	test   %edx,%edx
    2580:	74 26                	je     25a8 <grid_handle_position_event+0x88>
    2582:	8b 5a 1c             	mov    0x1c(%edx),%ebx
    2585:	39 5d e0             	cmp    %ebx,-0x20(%ebp)
    2588:	72 1e                	jb     25a8 <grid_handle_position_event+0x88>
    258a:	8b 7a 20             	mov    0x20(%edx),%edi
    258d:	39 7d dc             	cmp    %edi,-0x24(%ebp)
    2590:	72 16                	jb     25a8 <grid_handle_position_event+0x88>
    2592:	03 5a 24             	add    0x24(%edx),%ebx
    2595:	39 5d e0             	cmp    %ebx,-0x20(%ebp)
    2598:	73 0e                	jae    25a8 <grid_handle_position_event+0x88>
    259a:	8b 5a 28             	mov    0x28(%edx),%ebx
    259d:	01 df                	add    %ebx,%edi
    259f:	39 7d dc             	cmp    %edi,-0x24(%ebp)
    25a2:	72 25                	jb     25c9 <grid_handle_position_event+0xa9>
    25a4:	8d 74 26 00          	lea    0x0(%esi,%eiz,1),%esi
    25a8:	41                   	inc    %ecx
    25a9:	8b 55 e4             	mov    -0x1c(%ebp),%edx
    25ac:	01 d0                	add    %edx,%eax
    25ae:	39 f1                	cmp    %esi,%ecx
    25b0:	75 c6                	jne    2578 <grid_handle_position_event+0x58>
    25b2:	8b 45 d8             	mov    -0x28(%ebp),%eax
    25b5:	40                   	inc    %eax
    25b6:	89 45 d8             	mov    %eax,-0x28(%ebp)
    25b9:	8b 45 d8             	mov    -0x28(%ebp),%eax
    25bc:	3b 45 d0             	cmp    -0x30(%ebp),%eax
    25bf:	75 9f                	jne    2560 <grid_handle_position_event+0x40>
    25c1:	83 c4 2c             	add    $0x2c,%esp
    25c4:	5b                   	pop    %ebx
    25c5:	5e                   	pop    %esi
    25c6:	5f                   	pop    %edi
    25c7:	5d                   	pop    %ebp
    25c8:	c3                   	ret    
    25c9:	89 55 08             	mov    %edx,0x8(%ebp)
    25cc:	8b 42 58             	mov    0x58(%edx),%eax
    25cf:	83 c4 2c             	add    $0x2c,%esp
    25d2:	5b                   	pop    %ebx
    25d3:	5e                   	pop    %esi
    25d4:	5f                   	pop    %edi
    25d5:	5d                   	pop    %ebp
    25d6:	ff e0                	jmp    *%eax
    25d8:	90                   	nop
    25d9:	8d b4 26 00 00 00 00 	lea    0x0(%esi,%eiz,1),%esi

000025e0 <grid_destroy>:
    25e0:	55                   	push   %ebp
    25e1:	89 e5                	mov    %esp,%ebp
    25e3:	53                   	push   %ebx
    25e4:	83 ec 10             	sub    $0x10,%esp
    25e7:	8b 5d 08             	mov    0x8(%ebp),%ebx
    25ea:	53                   	push   %ebx
    25eb:	e8 70 11 00 00       	call   3760 <widget_deinit>
    25f0:	8b 53 68             	mov    0x68(%ebx),%edx
    25f3:	58                   	pop    %eax
    25f4:	52                   	push   %edx
    25f5:	e8 a6 6e 00 00       	call   94a0 <free@plt>
    25fa:	89 5d 08             	mov    %ebx,0x8(%ebp)
    25fd:	83 c4 10             	add    $0x10,%esp
    2600:	8b 5d fc             	mov    -0x4(%ebp),%ebx
    2603:	c9                   	leave  
    2604:	e9 97 6e 00 00       	jmp    94a0 <free@plt>
    2609:	8d b4 26 00 00 00 00 	lea    0x0(%esi,%eiz,1),%esi

00002610 <grid_add>:
    2610:	55                   	push   %ebp
    2611:	89 e5                	mov    %esp,%ebp
    2613:	57                   	push   %edi
    2614:	56                   	push   %esi
    2615:	53                   	push   %ebx
    2616:	83 ec 20             	sub    $0x20,%esp
    2619:	c6 45 ee 00          	movb   $0x0,-0x12(%ebp)
    261d:	8b 4d 18             	mov    0x18(%ebp),%ecx
    2620:	8b 75 1c             	mov    0x1c(%ebp),%esi
    2623:	85 c9                	test   %ecx,%ecx
    2625:	8b 5d 08             	mov    0x8(%ebp),%ebx
    2628:	0f 94 c2             	sete   %dl
    262b:	85 f6                	test   %esi,%esi
    262d:	8b 7d 10             	mov    0x10(%ebp),%edi
    2630:	0f 94 c0             	sete   %al
    2633:	08 c2                	or     %al,%dl
    2635:	0f 85 48 01 00 00    	jne    2783 <grid_add+0x173>
    263b:	8b 75 18             	mov    0x18(%ebp),%esi
    263e:	8b 43 60             	mov    0x60(%ebx),%eax
    2641:	01 fe                	add    %edi,%esi
    2643:	39 c6                	cmp    %eax,%esi
    2645:	0f 87 38 01 00 00    	ja     2783 <grid_add+0x173>
    264b:	8b 55 14             	mov    0x14(%ebp),%edx
    264e:	8b 4d 1c             	mov    0x1c(%ebp),%ecx
    2651:	01 d1                	add    %edx,%ecx
    2653:	8b 53 64             	mov    0x64(%ebx),%edx
    2656:	89 4d d8             	mov    %ecx,-0x28(%ebp)
    2659:	89 d1                	mov    %edx,%ecx
    265b:	39 c7                	cmp    %eax,%edi
    265d:	89 55 dc             	mov    %edx,-0x24(%ebp)
    2660:	89 45 e4             	mov    %eax,-0x1c(%ebp)
    2663:	0f 92 c2             	setb   %dl
    2666:	39 4d 14             	cmp    %ecx,0x14(%ebp)
    2669:	0f 92 c0             	setb   %al
    266c:	21 c2                	and    %eax,%edx
    266e:	39 4d d8             	cmp    %ecx,-0x28(%ebp)
    2671:	0f 96 c0             	setbe  %al
    2674:	20 c2                	and    %al,%dl
    2676:	88 55 ee             	mov    %dl,-0x12(%ebp)
    2679:	0f 84 04 01 00 00    	je     2783 <grid_add+0x173>
    267f:	8b 55 14             	mov    0x14(%ebp),%edx
    2682:	8b 45 e4             	mov    -0x1c(%ebp),%eax
    2685:	0f af c2             	imul   %edx,%eax
    2688:	01 f8                	add    %edi,%eax
    268a:	8d 14 40             	lea    (%eax,%eax,2),%edx
    268d:	8b 43 68             	mov    0x68(%ebx),%eax
    2690:	8d 0c 90             	lea    (%eax,%edx,4),%ecx
    2693:	85 c9                	test   %ecx,%ecx
    2695:	0f 84 09 01 00 00    	je     27a4 <grid_add+0x194>
    269b:	8b 01                	mov    (%ecx),%eax
    269d:	85 c0                	test   %eax,%eax
    269f:	0f 84 e9 00 00 00    	je     278e <grid_add+0x17e>
    26a5:	8b 45 0c             	mov    0xc(%ebp),%eax
    26a8:	8b 55 0c             	mov    0xc(%ebp),%edx
    26ab:	89 58 08             	mov    %ebx,0x8(%eax)
    26ae:	8d 43 0c             	lea    0xc(%ebx),%eax
    26b1:	89 42 04             	mov    %eax,0x4(%edx)
    26b4:	8b 43 0c             	mov    0xc(%ebx),%eax
    26b7:	89 02                	mov    %eax,(%edx)
    26b9:	8b 43 0c             	mov    0xc(%ebx),%eax
    26bc:	89 50 04             	mov    %edx,0x4(%eax)
    26bf:	8b 43 14             	mov    0x14(%ebx),%eax
    26c2:	89 53 0c             	mov    %edx,0xc(%ebx)
    26c5:	89 42 14             	mov    %eax,0x14(%edx)
    26c8:	8b 45 d8             	mov    -0x28(%ebp),%eax
    26cb:	39 45 14             	cmp    %eax,0x14(%ebp)
    26ce:	0f 83 af 00 00 00    	jae    2783 <grid_add+0x173>
    26d4:	39 f7                	cmp    %esi,%edi
    26d6:	0f 83 a7 00 00 00    	jae    2783 <grid_add+0x173>
    26dc:	8b 45 e4             	mov    -0x1c(%ebp),%eax
    26df:	89 4d e0             	mov    %ecx,-0x20(%ebp)
    26e2:	8d 04 40             	lea    (%eax,%eax,2),%eax
    26e5:	c1 e0 02             	shl    $0x2,%eax
    26e8:	89 45 d4             	mov    %eax,-0x2c(%ebp)
    26eb:	8b 45 14             	mov    0x14(%ebp),%eax
    26ee:	89 45 e8             	mov    %eax,-0x18(%ebp)
    26f1:	8d b4 26 00 00 00 00 	lea    0x0(%esi,%eiz,1),%esi
    26f8:	39 45 14             	cmp    %eax,0x14(%ebp)
    26fb:	8b 55 e0             	mov    -0x20(%ebp),%edx
    26fe:	0f 94 c3             	sete   %bl
    2701:	89 f8                	mov    %edi,%eax
    2703:	89 75 f0             	mov    %esi,-0x10(%ebp)
    2706:	88 5d ef             	mov    %bl,-0x11(%ebp)
    2709:	eb 25                	jmp    2730 <grid_add+0x120>
    270b:	90                   	nop
    270c:	8d 74 26 00          	lea    0x0(%esi,%eiz,1),%esi
    2710:	80 7d ef 00          	cmpb   $0x0,-0x11(%ebp)
    2714:	74 1e                	je     2734 <grid_add+0x124>
    2716:	8b 5d 0c             	mov    0xc(%ebp),%ebx
    2719:	89 19                	mov    %ebx,(%ecx)
    271b:	8b 5d 18             	mov    0x18(%ebp),%ebx
    271e:	89 59 04             	mov    %ebx,0x4(%ecx)
    2721:	8b 5d 1c             	mov    0x1c(%ebp),%ebx
    2724:	89 59 08             	mov    %ebx,0x8(%ecx)
    2727:	40                   	inc    %eax
    2728:	83 c2 0c             	add    $0xc,%edx
    272b:	39 45 f0             	cmp    %eax,-0x10(%ebp)
    272e:	74 32                	je     2762 <grid_add+0x152>
    2730:	39 c7                	cmp    %eax,%edi
    2732:	74 dc                	je     2710 <grid_add+0x100>
    2734:	39 45 e4             	cmp    %eax,-0x1c(%ebp)
    2737:	76 ee                	jbe    2727 <grid_add+0x117>
    2739:	8b 75 e8             	mov    -0x18(%ebp),%esi
    273c:	39 75 dc             	cmp    %esi,-0x24(%ebp)
    273f:	76 e6                	jbe    2727 <grid_add+0x117>
    2741:	85 d2                	test   %edx,%edx
    2743:	74 e2                	je     2727 <grid_add+0x117>
    2745:	40                   	inc    %eax
    2746:	c7 02 00 00 00 00    	movl   $0x0,(%edx)
    274c:	c7 42 04 01 00 00 00 	movl   $0x1,0x4(%edx)
    2753:	c7 42 08 01 00 00 00 	movl   $0x1,0x8(%edx)
    275a:	83 c2 0c             	add    $0xc,%edx
    275d:	39 45 f0             	cmp    %eax,-0x10(%ebp)
    2760:	75 ce                	jne    2730 <grid_add+0x120>
    2762:	8b 45 e8             	mov    -0x18(%ebp),%eax
    2765:	8b 55 e0             	mov    -0x20(%ebp),%edx
    2768:	40                   	inc    %eax
    2769:	8b 5d d4             	mov    -0x2c(%ebp),%ebx
    276c:	89 45 e8             	mov    %eax,-0x18(%ebp)
    276f:	01 da                	add    %ebx,%edx
    2771:	8b 45 e8             	mov    -0x18(%ebp),%eax
    2774:	8b 75 f0             	mov    -0x10(%ebp),%esi
    2777:	89 55 e0             	mov    %edx,-0x20(%ebp)
    277a:	39 45 d8             	cmp    %eax,-0x28(%ebp)
    277d:	0f 85 75 ff ff ff    	jne    26f8 <grid_add+0xe8>
    2783:	8a 45 ee             	mov    -0x12(%ebp),%al
    2786:	83 c4 20             	add    $0x20,%esp
    2789:	5b                   	pop    %ebx
    278a:	5e                   	pop    %esi
    278b:	5f                   	pop    %edi
    278c:	5d                   	pop    %ebp
    278d:	c3                   	ret    
    278e:	8b 41 04             	mov    0x4(%ecx),%eax
    2791:	85 c0                	test   %eax,%eax
    2793:	0f 84 0c ff ff ff    	je     26a5 <grid_add+0x95>
    2799:	8b 41 08             	mov    0x8(%ecx),%eax
    279c:	85 c0                	test   %eax,%eax
    279e:	0f 84 01 ff ff ff    	je     26a5 <grid_add+0x95>
    27a4:	c6 45 ee 00          	movb   $0x0,-0x12(%ebp)
    27a8:	eb d9                	jmp    2783 <grid_add+0x173>
    27aa:	8d b6 00 00 00 00    	lea    0x0(%esi),%esi

000027b0 <grid_repaint>:
    27b0:	55                   	push   %ebp
    27b1:	89 e5                	mov    %esp,%ebp
    27b3:	57                   	push   %edi
    27b4:	56                   	push   %esi
    27b5:	53                   	push   %ebx
    27b6:	83 ec 28             	sub    $0x28,%esp
    27b9:	8b 75 08             	mov    0x8(%ebp),%esi
    27bc:	8b 46 14             	mov    0x14(%esi),%eax
    27bf:	50                   	push   %eax
    27c0:	e8 eb 23 00 00       	call   4bb0 <window_claim>
    27c5:	83 c4 10             	add    $0x10,%esp
    27c8:	89 45 e4             	mov    %eax,-0x1c(%ebp)
    27cb:	85 c0                	test   %eax,%eax
    27cd:	74 50                	je     281f <grid_repaint+0x6f>
    27cf:	8b 7e 20             	mov    0x20(%esi),%edi
    27d2:	8b 4e 28             	mov    0x28(%esi),%ecx
    27d5:	01 f9                	add    %edi,%ecx
    27d7:	39 cf                	cmp    %ecx,%edi
    27d9:	73 44                	jae    281f <grid_repaint+0x6f>
    27db:	8b 5e 1c             	mov    0x1c(%esi),%ebx
    27de:	8b 46 24             	mov    0x24(%esi),%eax
    27e1:	8d b4 26 00 00 00 00 	lea    0x0(%esi,%eiz,1),%esi
    27e8:	8d 14 03             	lea    (%ebx,%eax,1),%edx
    27eb:	39 da                	cmp    %ebx,%edx
    27ed:	76 2b                	jbe    281a <grid_repaint+0x6a>
    27ef:	90                   	nop
    27f0:	8b 4e 5c             	mov    0x5c(%esi),%ecx
    27f3:	8b 45 e4             	mov    -0x1c(%ebp),%eax
    27f6:	51                   	push   %ecx
    27f7:	57                   	push   %edi
    27f8:	53                   	push   %ebx
    27f9:	50                   	push   %eax
    27fa:	e8 c1 4a 00 00       	call   72c0 <surface_put_pixel>
    27ff:	8b 56 1c             	mov    0x1c(%esi),%edx
    2802:	8b 46 24             	mov    0x24(%esi),%eax
    2805:	43                   	inc    %ebx
    2806:	83 c4 10             	add    $0x10,%esp
    2809:	8d 0c 02             	lea    (%edx,%eax,1),%ecx
    280c:	39 cb                	cmp    %ecx,%ebx
    280e:	72 e0                	jb     27f0 <grid_repaint+0x40>
    2810:	8b 4e 28             	mov    0x28(%esi),%ecx
    2813:	89 d3                	mov    %edx,%ebx
    2815:	8b 56 20             	mov    0x20(%esi),%edx
    2818:	01 d1                	add    %edx,%ecx
    281a:	47                   	inc    %edi
    281b:	39 cf                	cmp    %ecx,%edi
    281d:	72 c9                	jb     27e8 <grid_repaint+0x38>
    281f:	83 ec 0c             	sub    $0xc,%esp
    2822:	8b 46 14             	mov    0x14(%esi),%eax
    2825:	8d 7e 0c             	lea    0xc(%esi),%edi
    2828:	50                   	push   %eax
    2829:	e8 b2 23 00 00       	call   4be0 <window_yield>
    282e:	8b 5e 10             	mov    0x10(%esi),%ebx
    2831:	83 c4 10             	add    $0x10,%esp
    2834:	39 fb                	cmp    %edi,%ebx
    2836:	74 11                	je     2849 <grid_repaint+0x99>
    2838:	83 ec 0c             	sub    $0xc,%esp
    283b:	53                   	push   %ebx
    283c:	ff 53 50             	call   *0x50(%ebx)
    283f:	8b 5b 04             	mov    0x4(%ebx),%ebx
    2842:	83 c4 10             	add    $0x10,%esp
    2845:	39 fb                	cmp    %edi,%ebx
    2847:	75 ef                	jne    2838 <grid_repaint+0x88>
    2849:	8b 46 14             	mov    0x14(%esi),%eax
    284c:	89 45 08             	mov    %eax,0x8(%ebp)
    284f:	8d 65 f4             	lea    -0xc(%ebp),%esp
    2852:	5b                   	pop    %ebx
    2853:	5e                   	pop    %esi
    2854:	5f                   	pop    %edi
    2855:	5d                   	pop    %ebp
    2856:	e9 a5 22 00 00       	jmp    4b00 <window_damage>
    285b:	90                   	nop
    285c:	8d 74 26 00          	lea    0x0(%esi,%eiz,1),%esi

00002860 <grid_rearrange>:
    2860:	55                   	push   %ebp
    2861:	89 e5                	mov    %esp,%ebp
    2863:	57                   	push   %edi
    2864:	56                   	push   %esi
    2865:	53                   	push   %ebx
    2866:	83 ec 68             	sub    $0x68,%esp
    2869:	8b 45 08             	mov    0x8(%ebp),%eax
    286c:	8b 7d 0c             	mov    0xc(%ebp),%edi
    286f:	8b 4d 18             	mov    0x18(%ebp),%ecx
    2872:	8b 75 10             	mov    0x10(%ebp),%esi
    2875:	8b 5d 14             	mov    0x14(%ebp),%ebx
    2878:	51                   	push   %ecx
    2879:	89 7d a0             	mov    %edi,-0x60(%ebp)
    287c:	53                   	push   %ebx
    287d:	56                   	push   %esi
    287e:	57                   	push   %edi
    287f:	89 c7                	mov    %eax,%edi
    2881:	50                   	push   %eax
    2882:	89 45 c0             	mov    %eax,-0x40(%ebp)
    2885:	89 4d ac             	mov    %ecx,-0x54(%ebp)
    2888:	89 75 b0             	mov    %esi,-0x50(%ebp)
    288b:	89 5d b4             	mov    %ebx,-0x4c(%ebp)
    288e:	e8 9d 0e 00 00       	call   3730 <widget_modify>
    2893:	83 c4 14             	add    $0x14,%esp
    2896:	8b 47 14             	mov    0x14(%edi),%eax
    2899:	50                   	push   %eax
    289a:	e8 11 23 00 00       	call   4bb0 <window_claim>
    289f:	83 c4 10             	add    $0x10,%esp
    28a2:	85 c0                	test   %eax,%eax
    28a4:	0f 84 da 05 00 00    	je     2e84 <grid_rearrange+0x624>
    28aa:	89 c6                	mov    %eax,%esi
    28ac:	8b 45 c0             	mov    -0x40(%ebp),%eax
    28af:	8b 58 20             	mov    0x20(%eax),%ebx
    28b2:	8b 48 28             	mov    0x28(%eax),%ecx
    28b5:	01 d9                	add    %ebx,%ecx
    28b7:	39 cb                	cmp    %ecx,%ebx
    28b9:	73 5a                	jae    2915 <grid_rearrange+0xb5>
    28bb:	89 c7                	mov    %eax,%edi
    28bd:	8b 40 1c             	mov    0x1c(%eax),%eax
    28c0:	89 75 e4             	mov    %esi,-0x1c(%ebp)
    28c3:	89 fe                	mov    %edi,%esi
    28c5:	8b 57 24             	mov    0x24(%edi),%edx
    28c8:	89 cf                	mov    %ecx,%edi
    28ca:	01 c2                	add    %eax,%edx
    28cc:	89 d1                	mov    %edx,%ecx
    28ce:	89 c2                	mov    %eax,%edx
    28d0:	39 d1                	cmp    %edx,%ecx
    28d2:	76 39                	jbe    290d <grid_rearrange+0xad>
    28d4:	89 f0                	mov    %esi,%eax
    28d6:	89 d7                	mov    %edx,%edi
    28d8:	89 de                	mov    %ebx,%esi
    28da:	89 c3                	mov    %eax,%ebx
    28dc:	8d 74 26 00          	lea    0x0(%esi,%eiz,1),%esi
    28e0:	8b 43 5c             	mov    0x5c(%ebx),%eax
    28e3:	50                   	push   %eax
    28e4:	8b 45 e4             	mov    -0x1c(%ebp),%eax
    28e7:	56                   	push   %esi
    28e8:	57                   	push   %edi
    28e9:	50                   	push   %eax
    28ea:	e8 d1 49 00 00       	call   72c0 <surface_put_pixel>
    28ef:	8b 53 1c             	mov    0x1c(%ebx),%edx
    28f2:	8b 4b 24             	mov    0x24(%ebx),%ecx
    28f5:	47                   	inc    %edi
    28f6:	01 d1                	add    %edx,%ecx
    28f8:	83 c4 10             	add    $0x10,%esp
    28fb:	39 cf                	cmp    %ecx,%edi
    28fd:	72 e1                	jb     28e0 <grid_rearrange+0x80>
    28ff:	89 d8                	mov    %ebx,%eax
    2901:	89 f3                	mov    %esi,%ebx
    2903:	89 c6                	mov    %eax,%esi
    2905:	8b 78 28             	mov    0x28(%eax),%edi
    2908:	8b 40 20             	mov    0x20(%eax),%eax
    290b:	01 c7                	add    %eax,%edi
    290d:	43                   	inc    %ebx
    290e:	39 fb                	cmp    %edi,%ebx
    2910:	72 be                	jb     28d0 <grid_rearrange+0x70>
    2912:	8b 45 c0             	mov    -0x40(%ebp),%eax
    2915:	83 ec 0c             	sub    $0xc,%esp
    2918:	8b 40 14             	mov    0x14(%eax),%eax
    291b:	50                   	push   %eax
    291c:	e8 bf 22 00 00       	call   4be0 <window_yield>
    2921:	83 c4 10             	add    $0x10,%esp
    2924:	8b 45 c0             	mov    -0x40(%ebp),%eax
    2927:	53                   	push   %ebx
    2928:	53                   	push   %ebx
    2929:	6a 0c                	push   $0xc
    292b:	8b 70 60             	mov    0x60(%eax),%esi
    292e:	56                   	push   %esi
    292f:	e8 dc 69 00 00       	call   9310 <calloc@plt>
    2934:	83 c4 10             	add    $0x10,%esp
    2937:	89 45 bc             	mov    %eax,-0x44(%ebp)
    293a:	85 c0                	test   %eax,%eax
    293c:	0f 84 20 05 00 00    	je     2e62 <grid_rearrange+0x602>
    2942:	8b 7d c0             	mov    -0x40(%ebp),%edi
    2945:	8b 47 60             	mov    0x60(%edi),%eax
    2948:	89 45 a8             	mov    %eax,-0x58(%ebp)
    294b:	85 c0                	test   %eax,%eax
    294d:	0f 84 1d 05 00 00    	je     2e70 <grid_rearrange+0x610>
    2953:	8b 7f 64             	mov    0x64(%edi),%edi
    2956:	8d 04 40             	lea    (%eax,%eax,2),%eax
    2959:	89 7d cc             	mov    %edi,-0x34(%ebp)
    295c:	8b 7d bc             	mov    -0x44(%ebp),%edi
    295f:	c1 e0 02             	shl    $0x2,%eax
    2962:	89 7d a4             	mov    %edi,-0x5c(%ebp)
    2965:	89 45 c8             	mov    %eax,-0x38(%ebp)
    2968:	89 7d c4             	mov    %edi,-0x3c(%ebp)
    296b:	c7 45 b8 00 00 00 00 	movl   $0x0,-0x48(%ebp)
    2972:	8d b6 00 00 00 00    	lea    0x0(%esi),%esi
    2978:	8b 45 c4             	mov    -0x3c(%ebp),%eax
    297b:	8b 4d cc             	mov    -0x34(%ebp),%ecx
    297e:	85 c9                	test   %ecx,%ecx
    2980:	c7 00 00 00 00 00    	movl   $0x0,(%eax)
    2986:	0f 84 b2 00 00 00    	je     2a3e <grid_rearrange+0x1de>
    298c:	8b 7d c0             	mov    -0x40(%ebp),%edi
    298f:	8b 5d bc             	mov    -0x44(%ebp),%ebx
    2992:	29 d8                	sub    %ebx,%eax
    2994:	c7 45 dc 00 00 00 00 	movl   $0x0,-0x24(%ebp)
    299b:	8b 77 68             	mov    0x68(%edi),%esi
    299e:	01 f0                	add    %esi,%eax
    29a0:	89 45 d8             	mov    %eax,-0x28(%ebp)
    29a3:	90                   	nop
    29a4:	8d 74 26 00          	lea    0x0(%esi,%eiz,1),%esi
    29a8:	8b 4d d8             	mov    -0x28(%ebp),%ecx
    29ab:	85 c9                	test   %ecx,%ecx
    29ad:	74 71                	je     2a20 <grid_rearrange+0x1c0>
    29af:	8b 7d d8             	mov    -0x28(%ebp),%edi
    29b2:	8b 07                	mov    (%edi),%eax
    29b4:	85 c0                	test   %eax,%eax
    29b6:	74 68                	je     2a20 <grid_rearrange+0x1c0>
    29b8:	8b 5f 04             	mov    0x4(%edi),%ebx
    29bb:	8b 48 3c             	mov    0x3c(%eax),%ecx
    29be:	85 db                	test   %ebx,%ebx
    29c0:	8b 40 2c             	mov    0x2c(%eax),%eax
    29c3:	0f 84 e0 04 00 00    	je     2ea9 <grid_rearrange+0x649>
    29c9:	31 d2                	xor    %edx,%edx
    29cb:	8d 7b ff             	lea    -0x1(%ebx),%edi
    29ce:	f7 f3                	div    %ebx
    29d0:	89 d6                	mov    %edx,%esi
    29d2:	89 45 e4             	mov    %eax,-0x1c(%ebp)
    29d5:	31 d2                	xor    %edx,%edx
    29d7:	89 c8                	mov    %ecx,%eax
    29d9:	f7 f3                	div    %ebx
    29db:	03 75 e4             	add    -0x1c(%ebp),%esi
    29de:	89 45 e0             	mov    %eax,-0x20(%ebp)
    29e1:	89 d1                	mov    %edx,%ecx
    29e3:	89 75 d4             	mov    %esi,-0x2c(%ebp)
    29e6:	8b 75 e0             	mov    -0x20(%ebp),%esi
    29e9:	8b 45 c4             	mov    -0x3c(%ebp),%eax
    29ec:	01 f1                	add    %esi,%ecx
    29ee:	31 d2                	xor    %edx,%edx
    29f0:	89 4d d0             	mov    %ecx,-0x30(%ebp)
    29f3:	eb 1f                	jmp    2a14 <grid_rearrange+0x1b4>
    29f5:	8d 76 00             	lea    0x0(%esi),%esi
    29f8:	8b 4d e0             	mov    -0x20(%ebp),%ecx
    29fb:	8b 75 e4             	mov    -0x1c(%ebp),%esi
    29fe:	39 30                	cmp    %esi,(%eax)
    2a00:	73 02                	jae    2a04 <grid_rearrange+0x1a4>
    2a02:	89 30                	mov    %esi,(%eax)
    2a04:	39 48 04             	cmp    %ecx,0x4(%eax)
    2a07:	73 03                	jae    2a0c <grid_rearrange+0x1ac>
    2a09:	89 48 04             	mov    %ecx,0x4(%eax)
    2a0c:	42                   	inc    %edx
    2a0d:	83 c0 0c             	add    $0xc,%eax
    2a10:	39 d3                	cmp    %edx,%ebx
    2a12:	74 0c                	je     2a20 <grid_rearrange+0x1c0>
    2a14:	39 fa                	cmp    %edi,%edx
    2a16:	75 e0                	jne    29f8 <grid_rearrange+0x198>
    2a18:	8b 75 d4             	mov    -0x2c(%ebp),%esi
    2a1b:	8b 4d d0             	mov    -0x30(%ebp),%ecx
    2a1e:	eb de                	jmp    29fe <grid_rearrange+0x19e>
    2a20:	8b 45 dc             	mov    -0x24(%ebp),%eax
    2a23:	8b 55 d8             	mov    -0x28(%ebp),%edx
    2a26:	40                   	inc    %eax
    2a27:	8b 75 c8             	mov    -0x38(%ebp),%esi
    2a2a:	89 45 dc             	mov    %eax,-0x24(%ebp)
    2a2d:	01 f2                	add    %esi,%edx
    2a2f:	8b 45 dc             	mov    -0x24(%ebp),%eax
    2a32:	89 55 d8             	mov    %edx,-0x28(%ebp)
    2a35:	3b 45 cc             	cmp    -0x34(%ebp),%eax
    2a38:	0f 85 6a ff ff ff    	jne    29a8 <grid_rearrange+0x148>
    2a3e:	8b 7d b8             	mov    -0x48(%ebp),%edi
    2a41:	8b 55 c4             	mov    -0x3c(%ebp),%edx
    2a44:	47                   	inc    %edi
    2a45:	83 c2 0c             	add    $0xc,%edx
    2a48:	89 7d b8             	mov    %edi,-0x48(%ebp)
    2a4b:	89 55 c4             	mov    %edx,-0x3c(%ebp)
    2a4e:	8b 45 b8             	mov    -0x48(%ebp),%eax
    2a51:	3b 45 a8             	cmp    -0x58(%ebp),%eax
    2a54:	0f 85 1e ff ff ff    	jne    2978 <grid_rearrange+0x118>
    2a5a:	8b 4d c8             	mov    -0x38(%ebp),%ecx
    2a5d:	8b 5d bc             	mov    -0x44(%ebp),%ebx
    2a60:	01 d9                	add    %ebx,%ecx
    2a62:	31 d2                	xor    %edx,%edx
    2a64:	8b 45 a4             	mov    -0x5c(%ebp),%eax
    2a67:	90                   	nop
    2a68:	8b 18                	mov    (%eax),%ebx
    2a6a:	83 c0 0c             	add    $0xc,%eax
    2a6d:	89 58 fc             	mov    %ebx,-0x4(%eax)
    2a70:	01 da                	add    %ebx,%edx
    2a72:	39 c1                	cmp    %eax,%ecx
    2a74:	75 f2                	jne    2a68 <grid_rearrange+0x208>
    2a76:	8b 45 b4             	mov    -0x4c(%ebp),%eax
    2a79:	39 d0                	cmp    %edx,%eax
    2a7b:	76 57                	jbe    2ad4 <grid_rearrange+0x274>
    2a7d:	29 d0                	sub    %edx,%eax
    2a7f:	31 d2                	xor    %edx,%edx
    2a81:	f7 75 b8             	divl   -0x48(%ebp)
    2a84:	85 c0                	test   %eax,%eax
    2a86:	74 4c                	je     2ad4 <grid_rearrange+0x274>
    2a88:	8b 7d b8             	mov    -0x48(%ebp),%edi
    2a8b:	8d 14 7f             	lea    (%edi,%edi,2),%edx
    2a8e:	8b 7d bc             	mov    -0x44(%ebp),%edi
    2a91:	8d 3c 97             	lea    (%edi,%edx,4),%edi
    2a94:	8d 74 26 00          	lea    0x0(%esi,%eiz,1),%esi
    2a98:	8b 55 b8             	mov    -0x48(%ebp),%edx
    2a9b:	85 d2                	test   %edx,%edx
    2a9d:	0f 84 93 03 00 00    	je     2e36 <grid_rearrange+0x5d6>
    2aa3:	8b 55 bc             	mov    -0x44(%ebp),%edx
    2aa6:	31 f6                	xor    %esi,%esi
    2aa8:	8b 4a 08             	mov    0x8(%edx),%ecx
    2aab:	8d 1c 01             	lea    (%ecx,%eax,1),%ebx
    2aae:	3b 5a 04             	cmp    0x4(%edx),%ebx
    2ab1:	73 05                	jae    2ab8 <grid_rearrange+0x258>
    2ab3:	89 5a 08             	mov    %ebx,0x8(%edx)
    2ab6:	89 d9                	mov    %ebx,%ecx
    2ab8:	83 c2 0c             	add    $0xc,%edx
    2abb:	01 ce                	add    %ecx,%esi
    2abd:	39 d7                	cmp    %edx,%edi
    2abf:	75 e7                	jne    2aa8 <grid_rearrange+0x248>
    2ac1:	39 75 b4             	cmp    %esi,-0x4c(%ebp)
    2ac4:	76 0e                	jbe    2ad4 <grid_rearrange+0x274>
    2ac6:	8b 45 b4             	mov    -0x4c(%ebp),%eax
    2ac9:	31 d2                	xor    %edx,%edx
    2acb:	29 f0                	sub    %esi,%eax
    2acd:	f7 75 b8             	divl   -0x48(%ebp)
    2ad0:	85 c0                	test   %eax,%eax
    2ad2:	75 c4                	jne    2a98 <grid_rearrange+0x238>
    2ad4:	8b 75 cc             	mov    -0x34(%ebp),%esi
    2ad7:	53                   	push   %ebx
    2ad8:	53                   	push   %ebx
    2ad9:	6a 0c                	push   $0xc
    2adb:	56                   	push   %esi
    2adc:	e8 2f 68 00 00       	call   9310 <calloc@plt>
    2ae1:	83 c4 10             	add    $0x10,%esp
    2ae4:	89 45 b4             	mov    %eax,-0x4c(%ebp)
    2ae7:	85 c0                	test   %eax,%eax
    2ae9:	0f 84 68 03 00 00    	je     2e57 <grid_rearrange+0x5f7>
    2aef:	8b 7d c0             	mov    -0x40(%ebp),%edi
    2af2:	8b 77 64             	mov    0x64(%edi),%esi
    2af5:	89 75 c8             	mov    %esi,-0x38(%ebp)
    2af8:	85 f6                	test   %esi,%esi
    2afa:	0f 84 9b 03 00 00    	je     2e9b <grid_rearrange+0x63b>
    2b00:	8b 7f 60             	mov    0x60(%edi),%edi
    2b03:	89 45 9c             	mov    %eax,-0x64(%ebp)
    2b06:	89 fb                	mov    %edi,%ebx
    2b08:	89 7d cc             	mov    %edi,-0x34(%ebp)
    2b0b:	89 c7                	mov    %eax,%edi
    2b0d:	c7 45 a8 00 00 00 00 	movl   $0x0,-0x58(%ebp)
    2b14:	8d 04 5b             	lea    (%ebx,%ebx,2),%eax
    2b17:	89 7d c4             	mov    %edi,-0x3c(%ebp)
    2b1a:	c1 e0 02             	shl    $0x2,%eax
    2b1d:	c7 45 b8 00 00 00 00 	movl   $0x0,-0x48(%ebp)
    2b24:	89 45 a4             	mov    %eax,-0x5c(%ebp)
    2b27:	90                   	nop
    2b28:	8b 45 c4             	mov    -0x3c(%ebp),%eax
    2b2b:	8b 4d cc             	mov    -0x34(%ebp),%ecx
    2b2e:	85 c9                	test   %ecx,%ecx
    2b30:	c7 00 00 00 00 00    	movl   $0x0,(%eax)
    2b36:	0f 84 b0 00 00 00    	je     2bec <grid_rearrange+0x38c>
    2b3c:	8b 7d c0             	mov    -0x40(%ebp),%edi
    2b3f:	8b 45 a8             	mov    -0x58(%ebp),%eax
    2b42:	c7 45 dc 00 00 00 00 	movl   $0x0,-0x24(%ebp)
    2b49:	8b 5f 68             	mov    0x68(%edi),%ebx
    2b4c:	01 d8                	add    %ebx,%eax
    2b4e:	89 45 d8             	mov    %eax,-0x28(%ebp)
    2b51:	8d b4 26 00 00 00 00 	lea    0x0(%esi,%eiz,1),%esi
    2b58:	8b 4d d8             	mov    -0x28(%ebp),%ecx
    2b5b:	85 c9                	test   %ecx,%ecx
    2b5d:	74 71                	je     2bd0 <grid_rearrange+0x370>
    2b5f:	8b 7d d8             	mov    -0x28(%ebp),%edi
    2b62:	8b 07                	mov    (%edi),%eax
    2b64:	85 c0                	test   %eax,%eax
    2b66:	74 68                	je     2bd0 <grid_rearrange+0x370>
    2b68:	8b 5f 08             	mov    0x8(%edi),%ebx
    2b6b:	8b 48 40             	mov    0x40(%eax),%ecx
    2b6e:	85 db                	test   %ebx,%ebx
    2b70:	8b 40 30             	mov    0x30(%eax),%eax
    2b73:	0f 84 30 03 00 00    	je     2ea9 <grid_rearrange+0x649>
    2b79:	31 d2                	xor    %edx,%edx
    2b7b:	8d 7b ff             	lea    -0x1(%ebx),%edi
    2b7e:	f7 f3                	div    %ebx
    2b80:	89 d6                	mov    %edx,%esi
    2b82:	89 45 e4             	mov    %eax,-0x1c(%ebp)
    2b85:	31 d2                	xor    %edx,%edx
    2b87:	89 c8                	mov    %ecx,%eax
    2b89:	f7 f3                	div    %ebx
    2b8b:	03 75 e4             	add    -0x1c(%ebp),%esi
    2b8e:	89 45 e0             	mov    %eax,-0x20(%ebp)
    2b91:	89 d1                	mov    %edx,%ecx
    2b93:	89 75 d4             	mov    %esi,-0x2c(%ebp)
    2b96:	8b 75 e0             	mov    -0x20(%ebp),%esi
    2b99:	8b 45 c4             	mov    -0x3c(%ebp),%eax
    2b9c:	01 f1                	add    %esi,%ecx
    2b9e:	31 d2                	xor    %edx,%edx
    2ba0:	89 4d d0             	mov    %ecx,-0x30(%ebp)
    2ba3:	eb 1f                	jmp    2bc4 <grid_rearrange+0x364>
    2ba5:	8d 76 00             	lea    0x0(%esi),%esi
    2ba8:	8b 4d e0             	mov    -0x20(%ebp),%ecx
    2bab:	8b 75 e4             	mov    -0x1c(%ebp),%esi
    2bae:	39 30                	cmp    %esi,(%eax)
    2bb0:	73 02                	jae    2bb4 <grid_rearrange+0x354>
    2bb2:	89 30                	mov    %esi,(%eax)
    2bb4:	39 48 04             	cmp    %ecx,0x4(%eax)
    2bb7:	73 03                	jae    2bbc <grid_rearrange+0x35c>
    2bb9:	89 48 04             	mov    %ecx,0x4(%eax)
    2bbc:	42                   	inc    %edx
    2bbd:	83 c0 0c             	add    $0xc,%eax
    2bc0:	39 d3                	cmp    %edx,%ebx
    2bc2:	74 0c                	je     2bd0 <grid_rearrange+0x370>
    2bc4:	39 d7                	cmp    %edx,%edi
    2bc6:	75 e0                	jne    2ba8 <grid_rearrange+0x348>
    2bc8:	8b 75 d4             	mov    -0x2c(%ebp),%esi
    2bcb:	8b 4d d0             	mov    -0x30(%ebp),%ecx
    2bce:	eb de                	jmp    2bae <grid_rearrange+0x34e>
    2bd0:	8b 7d dc             	mov    -0x24(%ebp),%edi
    2bd3:	8b 55 d8             	mov    -0x28(%ebp),%edx
    2bd6:	47                   	inc    %edi
    2bd7:	83 c2 0c             	add    $0xc,%edx
    2bda:	89 7d dc             	mov    %edi,-0x24(%ebp)
    2bdd:	89 55 d8             	mov    %edx,-0x28(%ebp)
    2be0:	8b 45 dc             	mov    -0x24(%ebp),%eax
    2be3:	3b 45 cc             	cmp    -0x34(%ebp),%eax
    2be6:	0f 85 6c ff ff ff    	jne    2b58 <grid_rearrange+0x2f8>
    2bec:	8b 75 b8             	mov    -0x48(%ebp),%esi
    2bef:	8b 7d c4             	mov    -0x3c(%ebp),%edi
    2bf2:	46                   	inc    %esi
    2bf3:	8b 55 a8             	mov    -0x58(%ebp),%edx
    2bf6:	89 75 b8             	mov    %esi,-0x48(%ebp)
    2bf9:	8b 75 a4             	mov    -0x5c(%ebp),%esi
    2bfc:	83 c7 0c             	add    $0xc,%edi
    2bff:	01 f2                	add    %esi,%edx
    2c01:	8b 45 b8             	mov    -0x48(%ebp),%eax
    2c04:	89 7d c4             	mov    %edi,-0x3c(%ebp)
    2c07:	89 55 a8             	mov    %edx,-0x58(%ebp)
    2c0a:	3b 45 c8             	cmp    -0x38(%ebp),%eax
    2c0d:	0f 85 15 ff ff ff    	jne    2b28 <grid_rearrange+0x2c8>
    2c13:	8d 04 40             	lea    (%eax,%eax,2),%eax
    2c16:	8b 7d b4             	mov    -0x4c(%ebp),%edi
    2c19:	31 d2                	xor    %edx,%edx
    2c1b:	8d 0c 87             	lea    (%edi,%eax,4),%ecx
    2c1e:	8b 45 9c             	mov    -0x64(%ebp),%eax
    2c21:	8d b4 26 00 00 00 00 	lea    0x0(%esi,%eiz,1),%esi
    2c28:	8b 18                	mov    (%eax),%ebx
    2c2a:	83 c0 0c             	add    $0xc,%eax
    2c2d:	89 58 fc             	mov    %ebx,-0x4(%eax)
    2c30:	01 da                	add    %ebx,%edx
    2c32:	39 c1                	cmp    %eax,%ecx
    2c34:	75 f2                	jne    2c28 <grid_rearrange+0x3c8>
    2c36:	8b 45 ac             	mov    -0x54(%ebp),%eax
    2c39:	39 d0                	cmp    %edx,%eax
    2c3b:	76 57                	jbe    2c94 <grid_rearrange+0x434>
    2c3d:	29 d0                	sub    %edx,%eax
    2c3f:	31 d2                	xor    %edx,%edx
    2c41:	f7 75 b8             	divl   -0x48(%ebp)
    2c44:	85 c0                	test   %eax,%eax
    2c46:	74 4c                	je     2c94 <grid_rearrange+0x434>
    2c48:	8b 7d b8             	mov    -0x48(%ebp),%edi
    2c4b:	8d 14 7f             	lea    (%edi,%edi,2),%edx
    2c4e:	8b 7d b4             	mov    -0x4c(%ebp),%edi
    2c51:	8d 3c 97             	lea    (%edi,%edx,4),%edi
    2c54:	8d 74 26 00          	lea    0x0(%esi,%eiz,1),%esi
    2c58:	8b 55 b8             	mov    -0x48(%ebp),%edx
    2c5b:	85 d2                	test   %edx,%edx
    2c5d:	0f 84 cc 01 00 00    	je     2e2f <grid_rearrange+0x5cf>
    2c63:	8b 55 b4             	mov    -0x4c(%ebp),%edx
    2c66:	31 f6                	xor    %esi,%esi
    2c68:	8b 4a 08             	mov    0x8(%edx),%ecx
    2c6b:	8d 1c 01             	lea    (%ecx,%eax,1),%ebx
    2c6e:	3b 5a 04             	cmp    0x4(%edx),%ebx
    2c71:	73 05                	jae    2c78 <grid_rearrange+0x418>
    2c73:	89 5a 08             	mov    %ebx,0x8(%edx)
    2c76:	89 d9                	mov    %ebx,%ecx
    2c78:	83 c2 0c             	add    $0xc,%edx
    2c7b:	01 ce                	add    %ecx,%esi
    2c7d:	39 d7                	cmp    %edx,%edi
    2c7f:	75 e7                	jne    2c68 <grid_rearrange+0x408>
    2c81:	39 75 ac             	cmp    %esi,-0x54(%ebp)
    2c84:	76 0e                	jbe    2c94 <grid_rearrange+0x434>
    2c86:	8b 45 ac             	mov    -0x54(%ebp),%eax
    2c89:	31 d2                	xor    %edx,%edx
    2c8b:	29 f0                	sub    %esi,%eax
    2c8d:	f7 75 b8             	divl   -0x48(%ebp)
    2c90:	85 c0                	test   %eax,%eax
    2c92:	75 c4                	jne    2c58 <grid_rearrange+0x3f8>
    2c94:	8b 4d bc             	mov    -0x44(%ebp),%ecx
    2c97:	85 c9                	test   %ecx,%ecx
    2c99:	0f 84 7e 01 00 00    	je     2e1d <grid_rearrange+0x5bd>
    2c9f:	8b 7d c8             	mov    -0x38(%ebp),%edi
    2ca2:	85 ff                	test   %edi,%edi
    2ca4:	0f 84 5e 01 00 00    	je     2e08 <grid_rearrange+0x5a8>
    2caa:	8b 45 c0             	mov    -0x40(%ebp),%eax
    2cad:	c7 45 d8 00 00 00 00 	movl   $0x0,-0x28(%ebp)
    2cb4:	8b 40 60             	mov    0x60(%eax),%eax
    2cb7:	89 45 dc             	mov    %eax,-0x24(%ebp)
    2cba:	8b 45 b4             	mov    -0x4c(%ebp),%eax
    2cbd:	89 45 d0             	mov    %eax,-0x30(%ebp)
    2cc0:	8b 4d dc             	mov    -0x24(%ebp),%ecx
    2cc3:	85 c9                	test   %ecx,%ecx
    2cc5:	0f 84 16 01 00 00    	je     2de1 <grid_rearrange+0x581>
    2ccb:	8b 45 bc             	mov    -0x44(%ebp),%eax
    2cce:	c7 45 e4 00 00 00 00 	movl   $0x0,-0x1c(%ebp)
    2cd5:	89 45 e0             	mov    %eax,-0x20(%ebp)
    2cd8:	8b 45 a0             	mov    -0x60(%ebp),%eax
    2cdb:	89 45 d4             	mov    %eax,-0x2c(%ebp)
    2cde:	66 90                	xchg   %ax,%ax
    2ce0:	8b 45 d8             	mov    -0x28(%ebp),%eax
    2ce3:	39 45 c8             	cmp    %eax,-0x38(%ebp)
    2ce6:	0f 86 d9 00 00 00    	jbe    2dc5 <grid_rearrange+0x565>
    2cec:	8b 75 dc             	mov    -0x24(%ebp),%esi
    2cef:	0f af f0             	imul   %eax,%esi
    2cf2:	89 f0                	mov    %esi,%eax
    2cf4:	8b 75 e4             	mov    -0x1c(%ebp),%esi
    2cf7:	01 f0                	add    %esi,%eax
    2cf9:	8d 14 40             	lea    (%eax,%eax,2),%edx
    2cfc:	8b 45 c0             	mov    -0x40(%ebp),%eax
    2cff:	8b 40 68             	mov    0x68(%eax),%eax
    2d02:	8d 1c 90             	lea    (%eax,%edx,4),%ebx
    2d05:	85 db                	test   %ebx,%ebx
    2d07:	0f 84 b8 00 00 00    	je     2dc5 <grid_rearrange+0x565>
    2d0d:	8b 3b                	mov    (%ebx),%edi
    2d0f:	85 ff                	test   %edi,%edi
    2d11:	0f 84 a0 00 00 00    	je     2db7 <grid_rearrange+0x557>
    2d17:	8b 53 04             	mov    0x4(%ebx),%edx
    2d1a:	85 d2                	test   %edx,%edx
    2d1c:	74 1e                	je     2d3c <grid_rearrange+0x4dc>
    2d1e:	01 f2                	add    %esi,%edx
    2d20:	8b 75 bc             	mov    -0x44(%ebp),%esi
    2d23:	8d 04 52             	lea    (%edx,%edx,2),%eax
    2d26:	31 d2                	xor    %edx,%edx
    2d28:	8d 0c 86             	lea    (%esi,%eax,4),%ecx
    2d2b:	8b 45 e0             	mov    -0x20(%ebp),%eax
    2d2e:	66 90                	xchg   %ax,%ax
    2d30:	8b 70 08             	mov    0x8(%eax),%esi
    2d33:	83 c0 0c             	add    $0xc,%eax
    2d36:	01 f2                	add    %esi,%edx
    2d38:	39 c1                	cmp    %eax,%ecx
    2d3a:	75 f4                	jne    2d30 <grid_rearrange+0x4d0>
    2d3c:	8b 43 08             	mov    0x8(%ebx),%eax
    2d3f:	85 c0                	test   %eax,%eax
    2d41:	74 74                	je     2db7 <grid_rearrange+0x557>
    2d43:	8b 4d d8             	mov    -0x28(%ebp),%ecx
    2d46:	8b 75 b4             	mov    -0x4c(%ebp),%esi
    2d49:	01 c8                	add    %ecx,%eax
    2d4b:	31 c9                	xor    %ecx,%ecx
    2d4d:	8d 04 40             	lea    (%eax,%eax,2),%eax
    2d50:	8d 34 86             	lea    (%esi,%eax,4),%esi
    2d53:	8b 45 d0             	mov    -0x30(%ebp),%eax
    2d56:	66 90                	xchg   %ax,%ax
    2d58:	8b 58 08             	mov    0x8(%eax),%ebx
    2d5b:	83 c0 0c             	add    $0xc,%eax
    2d5e:	01 cb                	add    %ecx,%ebx
    2d60:	39 c6                	cmp    %eax,%esi
    2d62:	89 d9                	mov    %ebx,%ecx
    2d64:	75 f2                	jne    2d58 <grid_rearrange+0x4f8>
    2d66:	85 d2                	test   %edx,%edx
    2d68:	74 4d                	je     2db7 <grid_rearrange+0x557>
    2d6a:	85 db                	test   %ebx,%ebx
    2d6c:	74 49                	je     2db7 <grid_rearrange+0x557>
    2d6e:	8b 47 3c             	mov    0x3c(%edi),%eax
    2d71:	85 c0                	test   %eax,%eax
    2d73:	0f 84 d7 00 00 00    	je     2e50 <grid_rearrange+0x5f0>
    2d79:	39 d0                	cmp    %edx,%eax
    2d7b:	0f 83 cf 00 00 00    	jae    2e50 <grid_rearrange+0x5f0>
    2d81:	8b 57 40             	mov    0x40(%edi),%edx
    2d84:	85 d2                	test   %edx,%edx
    2d86:	0f 84 bc 00 00 00    	je     2e48 <grid_rearrange+0x5e8>
    2d8c:	39 d3                	cmp    %edx,%ebx
    2d8e:	0f 86 b4 00 00 00    	jbe    2e48 <grid_rearrange+0x5e8>
    2d94:	83 ec 0c             	sub    $0xc,%esp
    2d97:	8b 5d b0             	mov    -0x50(%ebp),%ebx
    2d9a:	8b 75 d4             	mov    -0x2c(%ebp),%esi
    2d9d:	52                   	push   %edx
    2d9e:	50                   	push   %eax
    2d9f:	53                   	push   %ebx
    2da0:	56                   	push   %esi
    2da1:	57                   	push   %edi
    2da2:	ff 57 4c             	call   *0x4c(%edi)
    2da5:	8b 45 c0             	mov    -0x40(%ebp),%eax
    2da8:	83 c4 20             	add    $0x20,%esp
    2dab:	8b 78 60             	mov    0x60(%eax),%edi
    2dae:	8b 40 64             	mov    0x64(%eax),%eax
    2db1:	89 7d dc             	mov    %edi,-0x24(%ebp)
    2db4:	89 45 c8             	mov    %eax,-0x38(%ebp)
    2db7:	8b 7d e0             	mov    -0x20(%ebp),%edi
    2dba:	8b 4d d4             	mov    -0x2c(%ebp),%ecx
    2dbd:	8b 7f 08             	mov    0x8(%edi),%edi
    2dc0:	01 f9                	add    %edi,%ecx
    2dc2:	89 4d d4             	mov    %ecx,-0x2c(%ebp)
    2dc5:	8b 7d e4             	mov    -0x1c(%ebp),%edi
    2dc8:	8b 55 e0             	mov    -0x20(%ebp),%edx
    2dcb:	47                   	inc    %edi
    2dcc:	83 c2 0c             	add    $0xc,%edx
    2dcf:	89 7d e4             	mov    %edi,-0x1c(%ebp)
    2dd2:	89 55 e0             	mov    %edx,-0x20(%ebp)
    2dd5:	8b 45 e4             	mov    -0x1c(%ebp),%eax
    2dd8:	3b 45 dc             	cmp    -0x24(%ebp),%eax
    2ddb:	0f 82 ff fe ff ff    	jb     2ce0 <grid_rearrange+0x480>
    2de1:	8b 45 d0             	mov    -0x30(%ebp),%eax
    2de4:	8b 5d b0             	mov    -0x50(%ebp),%ebx
    2de7:	83 c0 0c             	add    $0xc,%eax
    2dea:	8b 70 fc             	mov    -0x4(%eax),%esi
    2ded:	89 45 d0             	mov    %eax,-0x30(%ebp)
    2df0:	01 f3                	add    %esi,%ebx
    2df2:	8b 75 d8             	mov    -0x28(%ebp),%esi
    2df5:	46                   	inc    %esi
    2df6:	89 5d b0             	mov    %ebx,-0x50(%ebp)
    2df9:	89 75 d8             	mov    %esi,-0x28(%ebp)
    2dfc:	8b 7d d8             	mov    -0x28(%ebp),%edi
    2dff:	3b 7d c8             	cmp    -0x38(%ebp),%edi
    2e02:	0f 82 b8 fe ff ff    	jb     2cc0 <grid_rearrange+0x460>
    2e08:	b3 01                	mov    $0x1,%bl
    2e0a:	83 ec 0c             	sub    $0xc,%esp
    2e0d:	8b 55 bc             	mov    -0x44(%ebp),%edx
    2e10:	52                   	push   %edx
    2e11:	e8 8a 66 00 00       	call   94a0 <free@plt>
    2e16:	83 c4 10             	add    $0x10,%esp
    2e19:	84 db                	test   %bl,%bl
    2e1b:	74 20                	je     2e3d <grid_rearrange+0x5dd>
    2e1d:	8b 45 b4             	mov    -0x4c(%ebp),%eax
    2e20:	89 45 08             	mov    %eax,0x8(%ebp)
    2e23:	8d 65 f4             	lea    -0xc(%ebp),%esp
    2e26:	5b                   	pop    %ebx
    2e27:	5e                   	pop    %esi
    2e28:	5f                   	pop    %edi
    2e29:	5d                   	pop    %ebp
    2e2a:	e9 71 66 00 00       	jmp    94a0 <free@plt>
    2e2f:	31 f6                	xor    %esi,%esi
    2e31:	e9 50 fe ff ff       	jmp    2c86 <grid_rearrange+0x426>
    2e36:	31 f6                	xor    %esi,%esi
    2e38:	e9 89 fc ff ff       	jmp    2ac6 <grid_rearrange+0x266>
    2e3d:	8d 65 f4             	lea    -0xc(%ebp),%esp
    2e40:	5b                   	pop    %ebx
    2e41:	5e                   	pop    %esi
    2e42:	5f                   	pop    %edi
    2e43:	5d                   	pop    %ebp
    2e44:	c3                   	ret    
    2e45:	8d 76 00             	lea    0x0(%esi),%esi
    2e48:	89 da                	mov    %ebx,%edx
    2e4a:	e9 45 ff ff ff       	jmp    2d94 <grid_rearrange+0x534>
    2e4f:	90                   	nop
    2e50:	89 d0                	mov    %edx,%eax
    2e52:	e9 2a ff ff ff       	jmp    2d81 <grid_rearrange+0x521>
    2e57:	8b 45 bc             	mov    -0x44(%ebp),%eax
    2e5a:	85 c0                	test   %eax,%eax
    2e5c:	74 df                	je     2e3d <grid_rearrange+0x5dd>
    2e5e:	31 db                	xor    %ebx,%ebx
    2e60:	eb a8                	jmp    2e0a <grid_rearrange+0x5aa>
    2e62:	8b 45 c0             	mov    -0x40(%ebp),%eax
    2e65:	8b 40 64             	mov    0x64(%eax),%eax
    2e68:	89 45 cc             	mov    %eax,-0x34(%ebp)
    2e6b:	e9 64 fc ff ff       	jmp    2ad4 <grid_rearrange+0x274>
    2e70:	8b 47 64             	mov    0x64(%edi),%eax
    2e73:	c7 45 b8 00 00 00 00 	movl   $0x0,-0x48(%ebp)
    2e7a:	89 45 cc             	mov    %eax,-0x34(%ebp)
    2e7d:	31 d2                	xor    %edx,%edx
    2e7f:	e9 f2 fb ff ff       	jmp    2a76 <grid_rearrange+0x216>
    2e84:	8b 45 c0             	mov    -0x40(%ebp),%eax
    2e87:	83 ec 0c             	sub    $0xc,%esp
    2e8a:	8b 40 14             	mov    0x14(%eax),%eax
    2e8d:	50                   	push   %eax
    2e8e:	e8 4d 1d 00 00       	call   4be0 <window_yield>
    2e93:	83 c4 10             	add    $0x10,%esp
    2e96:	e9 89 fa ff ff       	jmp    2924 <grid_rearrange+0xc4>
    2e9b:	c7 45 b8 00 00 00 00 	movl   $0x0,-0x48(%ebp)
    2ea2:	31 d2                	xor    %edx,%edx
    2ea4:	e9 8d fd ff ff       	jmp    2c36 <grid_rearrange+0x3d6>
    2ea9:	57                   	push   %edi
    2eaa:	6a 77                	push   $0x77
    2eac:	68 b4 8f 00 00       	push   $0x8fb4
    2eb1:	68 bb 8f 00 00       	push   $0x8fbb
    2eb6:	e8 45 64 00 00       	call   9300 <assert_abort@plt>
    2ebb:	90                   	nop
    2ebc:	8d 74 26 00          	lea    0x0(%esi,%eiz,1),%esi

00002ec0 <deinit_grid>:
    2ec0:	55                   	push   %ebp
    2ec1:	89 e5                	mov    %esp,%ebp
    2ec3:	53                   	push   %ebx
    2ec4:	83 ec 10             	sub    $0x10,%esp
    2ec7:	8b 5d 08             	mov    0x8(%ebp),%ebx
    2eca:	53                   	push   %ebx
    2ecb:	e8 90 08 00 00       	call   3760 <widget_deinit>
    2ed0:	8b 43 68             	mov    0x68(%ebx),%eax
    2ed3:	83 c4 10             	add    $0x10,%esp
    2ed6:	8b 5d fc             	mov    -0x4(%ebp),%ebx
    2ed9:	89 45 08             	mov    %eax,0x8(%ebp)
    2edc:	c9                   	leave  
    2edd:	e9 be 65 00 00       	jmp    94a0 <free@plt>
    2ee2:	8d b4 26 00 00 00 00 	lea    0x0(%esi,%eiz,1),%esi
    2ee9:	8d bc 27 00 00 00 00 	lea    0x0(%edi,%eiz,1),%edi

00002ef0 <init_grid>:
    2ef0:	55                   	push   %ebp
    2ef1:	89 e5                	mov    %esp,%ebp
    2ef3:	57                   	push   %edi
    2ef4:	56                   	push   %esi
    2ef5:	53                   	push   %ebx
    2ef6:	83 ec 0c             	sub    $0xc,%esp
    2ef9:	8b 75 14             	mov    0x14(%ebp),%esi
    2efc:	8b 5d 08             	mov    0x8(%ebp),%ebx
    2eff:	85 f6                	test   %esi,%esi
    2f01:	0f 84 99 00 00 00    	je     2fa0 <init_grid+0xb0>
    2f07:	8b 45 18             	mov    0x18(%ebp),%eax
    2f0a:	85 c0                	test   %eax,%eax
    2f0c:	0f 84 8e 00 00 00    	je     2fa0 <init_grid+0xb0>
    2f12:	8b 7d 18             	mov    0x18(%ebp),%edi
    2f15:	50                   	push   %eax
    2f16:	0f af fe             	imul   %esi,%edi
    2f19:	50                   	push   %eax
    2f1a:	6a 0c                	push   $0xc
    2f1c:	57                   	push   %edi
    2f1d:	e8 ee 63 00 00       	call   9310 <calloc@plt>
    2f22:	83 c4 10             	add    $0x10,%esp
    2f25:	89 43 68             	mov    %eax,0x68(%ebx)
    2f28:	85 c0                	test   %eax,%eax
    2f2a:	74 74                	je     2fa0 <init_grid+0xb0>
    2f2c:	52                   	push   %edx
    2f2d:	8d 14 7f             	lea    (%edi,%edi,2),%edx
    2f30:	c1 e2 02             	shl    $0x2,%edx
    2f33:	52                   	push   %edx
    2f34:	6a 00                	push   $0x0
    2f36:	50                   	push   %eax
    2f37:	e8 64 64 00 00       	call   93a0 <memset@plt>
    2f3c:	83 c4 0c             	add    $0xc,%esp
    2f3f:	8b 7d 0c             	mov    0xc(%ebp),%edi
    2f42:	8b 4d 10             	mov    0x10(%ebp),%ecx
    2f45:	51                   	push   %ecx
    2f46:	57                   	push   %edi
    2f47:	53                   	push   %ebx
    2f48:	e8 43 07 00 00       	call   3690 <widget_init>
    2f4d:	8b 45 1c             	mov    0x1c(%ebp),%eax
    2f50:	c7 43 44 e0 25 00 00 	movl   $0x25e0,0x44(%ebx)
    2f57:	89 43 5c             	mov    %eax,0x5c(%ebx)
    2f5a:	8b 45 18             	mov    0x18(%ebp),%eax
    2f5d:	89 43 64             	mov    %eax,0x64(%ebx)
    2f60:	c7 43 48 00 25 00 00 	movl   $0x2500,0x48(%ebx)
    2f67:	c7 43 4c 60 28 00 00 	movl   $0x2860,0x4c(%ebx)
    2f6e:	c7 43 50 b0 27 00 00 	movl   $0x27b0,0x50(%ebx)
    2f75:	c7 43 54 10 25 00 00 	movl   $0x2510,0x54(%ebx)
    2f7c:	c7 43 58 20 25 00 00 	movl   $0x2520,0x58(%ebx)
    2f83:	c7 43 6c 10 26 00 00 	movl   $0x2610,0x6c(%ebx)
    2f8a:	89 73 60             	mov    %esi,0x60(%ebx)
    2f8d:	83 c4 10             	add    $0x10,%esp
    2f90:	8d 65 f4             	lea    -0xc(%ebp),%esp
    2f93:	b0 01                	mov    $0x1,%al
    2f95:	5b                   	pop    %ebx
    2f96:	5e                   	pop    %esi
    2f97:	5f                   	pop    %edi
    2f98:	5d                   	pop    %ebp
    2f99:	c3                   	ret    
    2f9a:	8d b6 00 00 00 00    	lea    0x0(%esi),%esi
    2fa0:	8d 65 f4             	lea    -0xc(%ebp),%esp
    2fa3:	31 c0                	xor    %eax,%eax
    2fa5:	5b                   	pop    %ebx
    2fa6:	5e                   	pop    %esi
    2fa7:	5f                   	pop    %edi
    2fa8:	5d                   	pop    %ebp
    2fa9:	c3                   	ret    
    2faa:	8d b6 00 00 00 00    	lea    0x0(%esi),%esi

00002fb0 <create_grid>:
    2fb0:	55                   	push   %ebp
    2fb1:	89 e5                	mov    %esp,%ebp
    2fb3:	57                   	push   %edi
    2fb4:	56                   	push   %esi
    2fb5:	53                   	push   %ebx
    2fb6:	83 ec 18             	sub    $0x18,%esp
    2fb9:	8b 75 10             	mov    0x10(%ebp),%esi
    2fbc:	6a 70                	push   $0x70
    2fbe:	e8 ed 62 00 00       	call   92b0 <malloc@plt>
    2fc3:	83 c4 10             	add    $0x10,%esp
    2fc6:	89 c3                	mov    %eax,%ebx
    2fc8:	85 c0                	test   %eax,%eax
    2fca:	74 19                	je     2fe5 <create_grid+0x35>
    2fcc:	85 f6                	test   %esi,%esi
    2fce:	74 07                	je     2fd7 <create_grid+0x27>
    2fd0:	8b 45 14             	mov    0x14(%ebp),%eax
    2fd3:	85 c0                	test   %eax,%eax
    2fd5:	75 19                	jne    2ff0 <create_grid+0x40>
    2fd7:	83 ec 0c             	sub    $0xc,%esp
    2fda:	53                   	push   %ebx
    2fdb:	31 db                	xor    %ebx,%ebx
    2fdd:	e8 be 64 00 00       	call   94a0 <free@plt>
    2fe2:	83 c4 10             	add    $0x10,%esp
    2fe5:	8d 65 f4             	lea    -0xc(%ebp),%esp
    2fe8:	89 d8                	mov    %ebx,%eax
    2fea:	5b                   	pop    %ebx
    2feb:	5e                   	pop    %esi
    2fec:	5f                   	pop    %edi
    2fed:	5d                   	pop    %ebp
    2fee:	c3                   	ret    
    2fef:	90                   	nop
    2ff0:	8b 7d 14             	mov    0x14(%ebp),%edi
    2ff3:	50                   	push   %eax
    2ff4:	0f af fe             	imul   %esi,%edi
    2ff7:	50                   	push   %eax
    2ff8:	6a 0c                	push   $0xc
    2ffa:	57                   	push   %edi
    2ffb:	e8 10 63 00 00       	call   9310 <calloc@plt>
    3000:	83 c4 10             	add    $0x10,%esp
    3003:	89 43 68             	mov    %eax,0x68(%ebx)
    3006:	85 c0                	test   %eax,%eax
    3008:	74 cd                	je     2fd7 <create_grid+0x27>
    300a:	52                   	push   %edx
    300b:	8d 14 7f             	lea    (%edi,%edi,2),%edx
    300e:	c1 e2 02             	shl    $0x2,%edx
    3011:	52                   	push   %edx
    3012:	6a 00                	push   $0x0
    3014:	50                   	push   %eax
    3015:	e8 86 63 00 00       	call   93a0 <memset@plt>
    301a:	83 c4 0c             	add    $0xc,%esp
    301d:	8b 7d 08             	mov    0x8(%ebp),%edi
    3020:	8b 4d 0c             	mov    0xc(%ebp),%ecx
    3023:	51                   	push   %ecx
    3024:	57                   	push   %edi
    3025:	53                   	push   %ebx
    3026:	e8 65 06 00 00       	call   3690 <widget_init>
    302b:	8b 45 18             	mov    0x18(%ebp),%eax
    302e:	c7 43 44 e0 25 00 00 	movl   $0x25e0,0x44(%ebx)
    3035:	89 43 5c             	mov    %eax,0x5c(%ebx)
    3038:	8b 45 14             	mov    0x14(%ebp),%eax
    303b:	89 43 64             	mov    %eax,0x64(%ebx)
    303e:	c7 43 48 00 25 00 00 	movl   $0x2500,0x48(%ebx)
    3045:	c7 43 4c 60 28 00 00 	movl   $0x2860,0x4c(%ebx)
    304c:	c7 43 50 b0 27 00 00 	movl   $0x27b0,0x50(%ebx)
    3053:	c7 43 54 10 25 00 00 	movl   $0x2510,0x54(%ebx)
    305a:	c7 43 58 20 25 00 00 	movl   $0x2520,0x58(%ebx)
    3061:	c7 43 6c 10 26 00 00 	movl   $0x2610,0x6c(%ebx)
    3068:	89 73 60             	mov    %esi,0x60(%ebx)
    306b:	83 c4 10             	add    $0x10,%esp
    306e:	8d 65 f4             	lea    -0xc(%ebp),%esp
    3071:	89 d8                	mov    %ebx,%eax
    3073:	5b                   	pop    %ebx
    3074:	5e                   	pop    %esi
    3075:	5f                   	pop    %edi
    3076:	5d                   	pop    %ebp
    3077:	c3                   	ret    
    3078:	66 90                	xchg   %ax,%ax
    307a:	66 90                	xchg   %ax,%ax
    307c:	66 90                	xchg   %ax,%ax
    307e:	66 90                	xchg   %ax,%ax

00003080 <label_reconfigure>:
    3080:	55                   	push   %ebp
    3081:	89 e5                	mov    %esp,%ebp
    3083:	5d                   	pop    %ebp
    3084:	c3                   	ret    
    3085:	8d 74 26 00          	lea    0x0(%esi,%eiz,1),%esi
    3089:	8d bc 27 00 00 00 00 	lea    0x0(%edi,%eiz,1),%edi

00003090 <label_handle_keyboard_event>:
    3090:	55                   	push   %ebp
    3091:	89 e5                	mov    %esp,%ebp
    3093:	5d                   	pop    %ebp
    3094:	c3                   	ret    
    3095:	8d 74 26 00          	lea    0x0(%esi,%eiz,1),%esi
    3099:	8d bc 27 00 00 00 00 	lea    0x0(%edi,%eiz,1),%edi

000030a0 <label_handle_position_event>:
    30a0:	55                   	push   %ebp
    30a1:	89 e5                	mov    %esp,%ebp
    30a3:	5d                   	pop    %ebp
    30a4:	c3                   	ret    
    30a5:	8d 74 26 00          	lea    0x0(%esi,%eiz,1),%esi
    30a9:	8d bc 27 00 00 00 00 	lea    0x0(%edi,%eiz,1),%edi

000030b0 <on_rewrite>:
    30b0:	55                   	push   %ebp
    30b1:	89 e5                	mov    %esp,%ebp
    30b3:	53                   	push   %ebx
    30b4:	83 ec 14             	sub    $0x14,%esp
    30b7:	8b 45 0c             	mov    0xc(%ebp),%eax
    30ba:	8b 5d 08             	mov    0x8(%ebp),%ebx
    30bd:	85 c0                	test   %eax,%eax
    30bf:	74 4b                	je     310c <on_rewrite+0x5c>
    30c1:	83 ec 0c             	sub    $0xc,%esp
    30c4:	50                   	push   %eax
    30c5:	e8 66 62 00 00       	call   9330 <str_dup@plt>
    30ca:	8d 55 f4             	lea    -0xc(%ebp),%edx
    30cd:	89 83 24 01 00 00    	mov    %eax,0x124(%ebx)
    30d3:	52                   	push   %edx
    30d4:	8d 55 f0             	lea    -0x10(%ebp),%edx
    30d7:	52                   	push   %edx
    30d8:	50                   	push   %eax
    30d9:	8b 83 28 01 00 00    	mov    0x128(%ebx),%eax
    30df:	50                   	push   %eax
    30e0:	e8 7b 39 00 00       	call   6a60 <font_get_box>
    30e5:	8b 45 f0             	mov    -0x10(%ebp),%eax
    30e8:	83 c4 14             	add    $0x14,%esp
    30eb:	8d 50 04             	lea    0x4(%eax),%edx
    30ee:	8b 45 f4             	mov    -0xc(%ebp),%eax
    30f1:	89 53 2c             	mov    %edx,0x2c(%ebx)
    30f4:	83 c0 04             	add    $0x4,%eax
    30f7:	89 53 34             	mov    %edx,0x34(%ebx)
    30fa:	8b 53 14             	mov    0x14(%ebx),%edx
    30fd:	89 43 30             	mov    %eax,0x30(%ebx)
    3100:	89 43 38             	mov    %eax,0x38(%ebx)
    3103:	52                   	push   %edx
    3104:	e8 b7 19 00 00       	call   4ac0 <window_refresh>
    3109:	83 c4 10             	add    $0x10,%esp
    310c:	8b 5d fc             	mov    -0x4(%ebp),%ebx
    310f:	c9                   	leave  
    3110:	c3                   	ret    
    3111:	eb 0d                	jmp    3120 <label_rearrange>
    3113:	90                   	nop
    3114:	90                   	nop
    3115:	90                   	nop
    3116:	90                   	nop
    3117:	90                   	nop
    3118:	90                   	nop
    3119:	90                   	nop
    311a:	90                   	nop
    311b:	90                   	nop
    311c:	90                   	nop
    311d:	90                   	nop
    311e:	90                   	nop
    311f:	90                   	nop

00003120 <label_rearrange>:
    3120:	55                   	push   %ebp
    3121:	89 e5                	mov    %esp,%ebp
    3123:	57                   	push   %edi
    3124:	56                   	push   %esi
    3125:	53                   	push   %ebx
    3126:	83 ec 68             	sub    $0x68,%esp
    3129:	8b 45 14             	mov    0x14(%ebp),%eax
    312c:	8b 7d 18             	mov    0x18(%ebp),%edi
    312f:	57                   	push   %edi
    3130:	50                   	push   %eax
    3131:	8b 45 10             	mov    0x10(%ebp),%eax
    3134:	8b 5d 08             	mov    0x8(%ebp),%ebx
    3137:	50                   	push   %eax
    3138:	8b 45 0c             	mov    0xc(%ebp),%eax
    313b:	50                   	push   %eax
    313c:	53                   	push   %ebx
    313d:	e8 ee 05 00 00       	call   3730 <widget_modify>
    3142:	83 c4 14             	add    $0x14,%esp
    3145:	8b 43 14             	mov    0x14(%ebx),%eax
    3148:	50                   	push   %eax
    3149:	e8 62 1a 00 00       	call   4bb0 <window_claim>
    314e:	83 c4 10             	add    $0x10,%esp
    3151:	85 c0                	test   %eax,%eax
    3153:	0f 84 d7 00 00 00    	je     3230 <label_rearrange+0x110>
    3159:	56                   	push   %esi
    315a:	56                   	push   %esi
    315b:	8d 75 b0             	lea    -0x50(%ebp),%esi
    315e:	50                   	push   %eax
    315f:	56                   	push   %esi
    3160:	e8 9b 33 00 00       	call   6500 <drawctx_init>
    3165:	5f                   	pop    %edi
    3166:	58                   	pop    %eax
    3167:	8d 43 5c             	lea    0x5c(%ebx),%eax
    316a:	50                   	push   %eax
    316b:	56                   	push   %esi
    316c:	e8 5f 35 00 00       	call   66d0 <drawctx_set_source>
    3171:	58                   	pop    %eax
    3172:	8b 43 28             	mov    0x28(%ebx),%eax
    3175:	50                   	push   %eax
    3176:	8b 43 24             	mov    0x24(%ebx),%eax
    3179:	50                   	push   %eax
    317a:	8b 43 20             	mov    0x20(%ebx),%eax
    317d:	50                   	push   %eax
    317e:	8b 43 1c             	mov    0x1c(%ebx),%eax
    3181:	50                   	push   %eax
    3182:	56                   	push   %esi
    3183:	e8 68 35 00 00       	call   66f0 <drawctx_transfer>
    3188:	83 c4 20             	add    $0x20,%esp
    318b:	8d 45 ac             	lea    -0x54(%ebp),%eax
    318e:	8b 93 24 01 00 00    	mov    0x124(%ebx),%edx
    3194:	50                   	push   %eax
    3195:	8b 8b 28 01 00 00    	mov    0x128(%ebx),%ecx
    319b:	8d 45 a8             	lea    -0x58(%ebp),%eax
    319e:	50                   	push   %eax
    319f:	52                   	push   %edx
    31a0:	51                   	push   %ecx
    31a1:	e8 ba 38 00 00       	call   6a60 <font_get_box>
    31a6:	8b 43 24             	mov    0x24(%ebx),%eax
    31a9:	8b 4d a8             	mov    -0x58(%ebp),%ecx
    31ac:	83 c4 10             	add    $0x10,%esp
    31af:	39 c8                	cmp    %ecx,%eax
    31b1:	72 0a                	jb     31bd <label_rearrange+0x9d>
    31b3:	8b 7b 28             	mov    0x28(%ebx),%edi
    31b6:	8b 55 ac             	mov    -0x54(%ebp),%edx
    31b9:	39 d7                	cmp    %edx,%edi
    31bb:	73 1b                	jae    31d8 <label_rearrange+0xb8>
    31bd:	83 ec 0c             	sub    $0xc,%esp
    31c0:	8b 43 14             	mov    0x14(%ebx),%eax
    31c3:	50                   	push   %eax
    31c4:	e8 17 1a 00 00       	call   4be0 <window_yield>
    31c9:	83 c4 10             	add    $0x10,%esp
    31cc:	8d 65 f4             	lea    -0xc(%ebp),%esp
    31cf:	5b                   	pop    %ebx
    31d0:	5e                   	pop    %esi
    31d1:	5f                   	pop    %edi
    31d2:	5d                   	pop    %ebp
    31d3:	c3                   	ret    
    31d4:	8d 74 26 00          	lea    0x0(%esi,%eiz,1),%esi
    31d8:	29 c8                	sub    %ecx,%eax
    31da:	8b 4b 1c             	mov    0x1c(%ebx),%ecx
    31dd:	d1 e8                	shr    %eax
    31df:	29 d7                	sub    %edx,%edi
    31e1:	d1 ef                	shr    %edi
    31e3:	01 c8                	add    %ecx,%eax
    31e5:	89 45 a4             	mov    %eax,-0x5c(%ebp)
    31e8:	8b 43 20             	mov    0x20(%ebx),%eax
    31eb:	01 c7                	add    %eax,%edi
    31ed:	50                   	push   %eax
    31ee:	50                   	push   %eax
    31ef:	8d 83 c0 00 00 00    	lea    0xc0(%ebx),%eax
    31f5:	50                   	push   %eax
    31f6:	56                   	push   %esi
    31f7:	e8 d4 34 00 00       	call   66d0 <drawctx_set_source>
    31fc:	8b 8b 28 01 00 00    	mov    0x128(%ebx),%ecx
    3202:	58                   	pop    %eax
    3203:	5a                   	pop    %edx
    3204:	51                   	push   %ecx
    3205:	56                   	push   %esi
    3206:	e8 d5 34 00 00       	call   66e0 <drawctx_set_font>
    320b:	8b 83 24 01 00 00    	mov    0x124(%ebx),%eax
    3211:	83 c4 10             	add    $0x10,%esp
    3214:	85 c0                	test   %eax,%eax
    3216:	74 a5                	je     31bd <label_rearrange+0x9d>
    3218:	8b 55 a4             	mov    -0x5c(%ebp),%edx
    321b:	57                   	push   %edi
    321c:	52                   	push   %edx
    321d:	50                   	push   %eax
    321e:	56                   	push   %esi
    321f:	e8 3c 37 00 00       	call   6960 <drawctx_print>
    3224:	83 c4 10             	add    $0x10,%esp
    3227:	eb 94                	jmp    31bd <label_rearrange+0x9d>
    3229:	8d b4 26 00 00 00 00 	lea    0x0(%esi,%eiz,1),%esi
    3230:	83 ec 0c             	sub    $0xc,%esp
    3233:	8b 73 14             	mov    0x14(%ebx),%esi
    3236:	89 45 a4             	mov    %eax,-0x5c(%ebp)
    3239:	56                   	push   %esi
    323a:	e8 a1 19 00 00       	call   4be0 <window_yield>
    323f:	83 c4 10             	add    $0x10,%esp
    3242:	8b 45 a4             	mov    -0x5c(%ebp),%eax
    3245:	e9 0f ff ff ff       	jmp    3159 <label_rearrange+0x39>
    324a:	8d b6 00 00 00 00    	lea    0x0(%esi),%esi

00003250 <label_destroy>:
    3250:	55                   	push   %ebp
    3251:	89 e5                	mov    %esp,%ebp
    3253:	53                   	push   %ebx
    3254:	83 ec 10             	sub    $0x10,%esp
    3257:	8b 5d 08             	mov    0x8(%ebp),%ebx
    325a:	53                   	push   %ebx
    325b:	e8 00 05 00 00       	call   3760 <widget_deinit>
    3260:	8b 93 24 01 00 00    	mov    0x124(%ebx),%edx
    3266:	58                   	pop    %eax
    3267:	52                   	push   %edx
    3268:	e8 33 62 00 00       	call   94a0 <free@plt>
    326d:	8b 83 28 01 00 00    	mov    0x128(%ebx),%eax
    3273:	59                   	pop    %ecx
    3274:	50                   	push   %eax
    3275:	e8 46 37 00 00       	call   69c0 <font_release>
    327a:	89 5d 08             	mov    %ebx,0x8(%ebp)
    327d:	83 c4 10             	add    $0x10,%esp
    3280:	8b 5d fc             	mov    -0x4(%ebp),%ebx
    3283:	c9                   	leave  
    3284:	e9 17 62 00 00       	jmp    94a0 <free@plt>
    3289:	8d b4 26 00 00 00 00 	lea    0x0(%esi,%eiz,1),%esi

00003290 <label_repaint>:
    3290:	55                   	push   %ebp
    3291:	89 e5                	mov    %esp,%ebp
    3293:	57                   	push   %edi
    3294:	56                   	push   %esi
    3295:	53                   	push   %ebx
    3296:	83 ec 68             	sub    $0x68,%esp
    3299:	8b 5d 08             	mov    0x8(%ebp),%ebx
    329c:	8b 7b 14             	mov    0x14(%ebx),%edi
    329f:	57                   	push   %edi
    32a0:	e8 0b 19 00 00       	call   4bb0 <window_claim>
    32a5:	83 c4 10             	add    $0x10,%esp
    32a8:	85 c0                	test   %eax,%eax
    32aa:	0f 84 e0 00 00 00    	je     3390 <label_repaint+0x100>
    32b0:	56                   	push   %esi
    32b1:	56                   	push   %esi
    32b2:	8d 75 b0             	lea    -0x50(%ebp),%esi
    32b5:	50                   	push   %eax
    32b6:	56                   	push   %esi
    32b7:	e8 44 32 00 00       	call   6500 <drawctx_init>
    32bc:	5f                   	pop    %edi
    32bd:	58                   	pop    %eax
    32be:	8d 43 5c             	lea    0x5c(%ebx),%eax
    32c1:	50                   	push   %eax
    32c2:	56                   	push   %esi
    32c3:	e8 08 34 00 00       	call   66d0 <drawctx_set_source>
    32c8:	58                   	pop    %eax
    32c9:	8b 43 28             	mov    0x28(%ebx),%eax
    32cc:	50                   	push   %eax
    32cd:	8b 43 24             	mov    0x24(%ebx),%eax
    32d0:	50                   	push   %eax
    32d1:	8b 43 20             	mov    0x20(%ebx),%eax
    32d4:	50                   	push   %eax
    32d5:	8b 43 1c             	mov    0x1c(%ebx),%eax
    32d8:	50                   	push   %eax
    32d9:	56                   	push   %esi
    32da:	e8 11 34 00 00       	call   66f0 <drawctx_transfer>
    32df:	83 c4 20             	add    $0x20,%esp
    32e2:	8d 45 ac             	lea    -0x54(%ebp),%eax
    32e5:	8b 93 24 01 00 00    	mov    0x124(%ebx),%edx
    32eb:	50                   	push   %eax
    32ec:	8b 8b 28 01 00 00    	mov    0x128(%ebx),%ecx
    32f2:	8d 45 a8             	lea    -0x58(%ebp),%eax
    32f5:	50                   	push   %eax
    32f6:	52                   	push   %edx
    32f7:	51                   	push   %ecx
    32f8:	e8 63 37 00 00       	call   6a60 <font_get_box>
    32fd:	8b 43 24             	mov    0x24(%ebx),%eax
    3300:	8b 4d a8             	mov    -0x58(%ebp),%ecx
    3303:	83 c4 10             	add    $0x10,%esp
    3306:	39 c8                	cmp    %ecx,%eax
    3308:	72 0a                	jb     3314 <label_repaint+0x84>
    330a:	8b 7b 28             	mov    0x28(%ebx),%edi
    330d:	8b 55 ac             	mov    -0x54(%ebp),%edx
    3310:	39 d7                	cmp    %edx,%edi
    3312:	73 24                	jae    3338 <label_repaint+0xa8>
    3314:	83 ec 0c             	sub    $0xc,%esp
    3317:	8b 43 14             	mov    0x14(%ebx),%eax
    331a:	50                   	push   %eax
    331b:	e8 c0 18 00 00       	call   4be0 <window_yield>
    3320:	8b 4b 14             	mov    0x14(%ebx),%ecx
    3323:	5a                   	pop    %edx
    3324:	51                   	push   %ecx
    3325:	e8 d6 17 00 00       	call   4b00 <window_damage>
    332a:	83 c4 10             	add    $0x10,%esp
    332d:	8d 65 f4             	lea    -0xc(%ebp),%esp
    3330:	5b                   	pop    %ebx
    3331:	5e                   	pop    %esi
    3332:	5f                   	pop    %edi
    3333:	5d                   	pop    %ebp
    3334:	c3                   	ret    
    3335:	8d 76 00             	lea    0x0(%esi),%esi
    3338:	29 c8                	sub    %ecx,%eax
    333a:	8b 4b 1c             	mov    0x1c(%ebx),%ecx
    333d:	d1 e8                	shr    %eax
    333f:	29 d7                	sub    %edx,%edi
    3341:	d1 ef                	shr    %edi
    3343:	01 c8                	add    %ecx,%eax
    3345:	89 45 a4             	mov    %eax,-0x5c(%ebp)
    3348:	8b 43 20             	mov    0x20(%ebx),%eax
    334b:	01 c7                	add    %eax,%edi
    334d:	50                   	push   %eax
    334e:	50                   	push   %eax
    334f:	8d 83 c0 00 00 00    	lea    0xc0(%ebx),%eax
    3355:	50                   	push   %eax
    3356:	56                   	push   %esi
    3357:	e8 74 33 00 00       	call   66d0 <drawctx_set_source>
    335c:	8b 8b 28 01 00 00    	mov    0x128(%ebx),%ecx
    3362:	58                   	pop    %eax
    3363:	5a                   	pop    %edx
    3364:	51                   	push   %ecx
    3365:	56                   	push   %esi
    3366:	e8 75 33 00 00       	call   66e0 <drawctx_set_font>
    336b:	8b 83 24 01 00 00    	mov    0x124(%ebx),%eax
    3371:	83 c4 10             	add    $0x10,%esp
    3374:	85 c0                	test   %eax,%eax
    3376:	74 9c                	je     3314 <label_repaint+0x84>
    3378:	57                   	push   %edi
    3379:	8b 7d a4             	mov    -0x5c(%ebp),%edi
    337c:	57                   	push   %edi
    337d:	50                   	push   %eax
    337e:	56                   	push   %esi
    337f:	e8 dc 35 00 00       	call   6960 <drawctx_print>
    3384:	83 c4 10             	add    $0x10,%esp
    3387:	eb 8b                	jmp    3314 <label_repaint+0x84>
    3389:	8d b4 26 00 00 00 00 	lea    0x0(%esi,%eiz,1),%esi
    3390:	83 ec 0c             	sub    $0xc,%esp
    3393:	8b 73 14             	mov    0x14(%ebx),%esi
    3396:	89 45 a4             	mov    %eax,-0x5c(%ebp)
    3399:	56                   	push   %esi
    339a:	e8 41 18 00 00       	call   4be0 <window_yield>
    339f:	83 c4 10             	add    $0x10,%esp
    33a2:	8b 45 a4             	mov    -0x5c(%ebp),%eax
    33a5:	e9 06 ff ff ff       	jmp    32b0 <label_repaint+0x20>
    33aa:	8d b6 00 00 00 00    	lea    0x0(%esi),%esi

000033b0 <deinit_label>:
    33b0:	55                   	push   %ebp
    33b1:	89 e5                	mov    %esp,%ebp
    33b3:	53                   	push   %ebx
    33b4:	83 ec 10             	sub    $0x10,%esp
    33b7:	8b 5d 08             	mov    0x8(%ebp),%ebx
    33ba:	53                   	push   %ebx
    33bb:	e8 a0 03 00 00       	call   3760 <widget_deinit>
    33c0:	8b 93 24 01 00 00    	mov    0x124(%ebx),%edx
    33c6:	58                   	pop    %eax
    33c7:	52                   	push   %edx
    33c8:	e8 d3 60 00 00       	call   94a0 <free@plt>
    33cd:	8b 83 28 01 00 00    	mov    0x128(%ebx),%eax
    33d3:	83 c4 10             	add    $0x10,%esp
    33d6:	8b 5d fc             	mov    -0x4(%ebp),%ebx
    33d9:	89 45 08             	mov    %eax,0x8(%ebp)
    33dc:	c9                   	leave  
    33dd:	e9 de 35 00 00       	jmp    69c0 <font_release>
    33e2:	8d b4 26 00 00 00 00 	lea    0x0(%esi,%eiz,1),%esi
    33e9:	8d bc 27 00 00 00 00 	lea    0x0(%edi,%eiz,1),%edi

000033f0 <init_label>:
    33f0:	55                   	push   %ebp
    33f1:	89 e5                	mov    %esp,%ebp
    33f3:	57                   	push   %edi
    33f4:	56                   	push   %esi
    33f5:	53                   	push   %ebx
    33f6:	83 ec 20             	sub    $0x20,%esp
    33f9:	8b 5d 08             	mov    0x8(%ebp),%ebx
    33fc:	8b 45 10             	mov    0x10(%ebp),%eax
    33ff:	50                   	push   %eax
    3400:	8b 45 0c             	mov    0xc(%ebp),%eax
    3403:	50                   	push   %eax
    3404:	8d 7b 5c             	lea    0x5c(%ebx),%edi
    3407:	53                   	push   %ebx
    3408:	8b 75 18             	mov    0x18(%ebp),%esi
    340b:	e8 80 02 00 00       	call   3690 <widget_init>
    3410:	c7 43 44 50 32 00 00 	movl   $0x3250,0x44(%ebx)
    3417:	c7 43 48 80 30 00 00 	movl   $0x3080,0x48(%ebx)
    341e:	c7 43 4c 20 31 00 00 	movl   $0x3120,0x4c(%ebx)
    3425:	c7 43 50 90 32 00 00 	movl   $0x3290,0x50(%ebx)
    342c:	c7 43 54 90 30 00 00 	movl   $0x3090,0x54(%ebx)
    3433:	c7 43 58 a0 30 00 00 	movl   $0x30a0,0x58(%ebx)
    343a:	89 3c 24             	mov    %edi,(%esp)
    343d:	e8 4e 38 00 00       	call   6c90 <source_init>
    3442:	8b 4d 1c             	mov    0x1c(%ebp),%ecx
    3445:	58                   	pop    %eax
    3446:	5a                   	pop    %edx
    3447:	51                   	push   %ecx
    3448:	57                   	push   %edi
    3449:	8d bb c0 00 00 00    	lea    0xc0(%ebx),%edi
    344f:	e8 cc 38 00 00       	call   6d20 <source_set_color>
    3454:	89 3c 24             	mov    %edi,(%esp)
    3457:	e8 34 38 00 00       	call   6c90 <source_init>
    345c:	8b 4d 20             	mov    0x20(%ebp),%ecx
    345f:	58                   	pop    %eax
    3460:	5a                   	pop    %edx
    3461:	51                   	push   %ecx
    3462:	57                   	push   %edi
    3463:	e8 b8 38 00 00       	call   6d20 <source_set_color>
    3468:	8b 7d 14             	mov    0x14(%ebp),%edi
    346b:	83 c4 10             	add    $0x10,%esp
    346e:	85 ff                	test   %edi,%edi
    3470:	0f 84 aa 00 00 00    	je     3520 <init_label+0x130>
    3476:	83 ec 0c             	sub    $0xc,%esp
    3479:	8b 45 14             	mov    0x14(%ebp),%eax
    347c:	50                   	push   %eax
    347d:	e8 ae 5e 00 00       	call   9330 <str_dup@plt>
    3482:	83 c4 10             	add    $0x10,%esp
    3485:	89 83 24 01 00 00    	mov    %eax,0x124(%ebx)
    348b:	81 e6 ff ff 00 00    	and    $0xffff,%esi
    3491:	8d 83 28 01 00 00    	lea    0x128(%ebx),%eax
    3497:	57                   	push   %edi
    3498:	57                   	push   %edi
    3499:	56                   	push   %esi
    349a:	50                   	push   %eax
    349b:	e8 40 1f 00 00       	call   53e0 <embedded_font_create>
    34a0:	83 c4 10             	add    $0x10,%esp
    34a3:	85 c0                	test   %eax,%eax
    34a5:	75 51                	jne    34f8 <init_label+0x108>
    34a7:	8d 45 e4             	lea    -0x1c(%ebp),%eax
    34aa:	8b 93 28 01 00 00    	mov    0x128(%ebx),%edx
    34b0:	50                   	push   %eax
    34b1:	8d 45 e0             	lea    -0x20(%ebp),%eax
    34b4:	50                   	push   %eax
    34b5:	8b 83 24 01 00 00    	mov    0x124(%ebx),%eax
    34bb:	50                   	push   %eax
    34bc:	52                   	push   %edx
    34bd:	e8 9e 35 00 00       	call   6a60 <font_get_box>
    34c2:	8b 45 e0             	mov    -0x20(%ebp),%eax
    34c5:	8d 50 04             	lea    0x4(%eax),%edx
    34c8:	8b 45 e4             	mov    -0x1c(%ebp),%eax
    34cb:	83 c0 04             	add    $0x4,%eax
    34ce:	89 53 2c             	mov    %edx,0x2c(%ebx)
    34d1:	89 43 30             	mov    %eax,0x30(%ebx)
    34d4:	89 43 38             	mov    %eax,0x38(%ebx)
    34d7:	89 53 34             	mov    %edx,0x34(%ebx)
    34da:	c7 83 2c 01 00 00 b0 	movl   $0x30b0,0x12c(%ebx)
    34e1:	30 00 00 
    34e4:	83 c4 10             	add    $0x10,%esp
    34e7:	8d 65 f4             	lea    -0xc(%ebp),%esp
    34ea:	b0 01                	mov    $0x1,%al
    34ec:	5b                   	pop    %ebx
    34ed:	5e                   	pop    %esi
    34ee:	5f                   	pop    %edi
    34ef:	5d                   	pop    %ebp
    34f0:	c3                   	ret    
    34f1:	8d b4 26 00 00 00 00 	lea    0x0(%esi,%eiz,1),%esi
    34f8:	83 ec 0c             	sub    $0xc,%esp
    34fb:	8b 8b 24 01 00 00    	mov    0x124(%ebx),%ecx
    3501:	51                   	push   %ecx
    3502:	e8 99 5f 00 00       	call   94a0 <free@plt>
    3507:	c7 83 24 01 00 00 00 	movl   $0x0,0x124(%ebx)
    350e:	00 00 00 
    3511:	83 c4 10             	add    $0x10,%esp
    3514:	8d 65 f4             	lea    -0xc(%ebp),%esp
    3517:	31 c0                	xor    %eax,%eax
    3519:	5b                   	pop    %ebx
    351a:	5e                   	pop    %esi
    351b:	5f                   	pop    %edi
    351c:	5d                   	pop    %ebp
    351d:	c3                   	ret    
    351e:	66 90                	xchg   %ax,%ax
    3520:	c7 83 24 01 00 00 00 	movl   $0x0,0x124(%ebx)
    3527:	00 00 00 
    352a:	e9 5c ff ff ff       	jmp    348b <init_label+0x9b>
    352f:	90                   	nop

00003530 <create_label>:
    3530:	55                   	push   %ebp
    3531:	89 e5                	mov    %esp,%ebp
    3533:	57                   	push   %edi
    3534:	56                   	push   %esi
    3535:	53                   	push   %ebx
    3536:	83 ec 28             	sub    $0x28,%esp
    3539:	8b 75 14             	mov    0x14(%ebp),%esi
    353c:	68 30 01 00 00       	push   $0x130
    3541:	e8 6a 5d 00 00       	call   92b0 <malloc@plt>
    3546:	83 c4 10             	add    $0x10,%esp
    3549:	89 c3                	mov    %eax,%ebx
    354b:	85 c0                	test   %eax,%eax
    354d:	0f 84 e9 00 00 00    	je     363c <create_label+0x10c>
    3553:	50                   	push   %eax
    3554:	8b 45 0c             	mov    0xc(%ebp),%eax
    3557:	50                   	push   %eax
    3558:	8b 45 08             	mov    0x8(%ebp),%eax
    355b:	50                   	push   %eax
    355c:	8d 7b 5c             	lea    0x5c(%ebx),%edi
    355f:	53                   	push   %ebx
    3560:	e8 2b 01 00 00       	call   3690 <widget_init>
    3565:	c7 43 44 50 32 00 00 	movl   $0x3250,0x44(%ebx)
    356c:	c7 43 48 80 30 00 00 	movl   $0x3080,0x48(%ebx)
    3573:	c7 43 4c 20 31 00 00 	movl   $0x3120,0x4c(%ebx)
    357a:	c7 43 50 90 32 00 00 	movl   $0x3290,0x50(%ebx)
    3581:	c7 43 54 90 30 00 00 	movl   $0x3090,0x54(%ebx)
    3588:	c7 43 58 a0 30 00 00 	movl   $0x30a0,0x58(%ebx)
    358f:	89 3c 24             	mov    %edi,(%esp)
    3592:	e8 f9 36 00 00       	call   6c90 <source_init>
    3597:	8b 4d 18             	mov    0x18(%ebp),%ecx
    359a:	58                   	pop    %eax
    359b:	5a                   	pop    %edx
    359c:	51                   	push   %ecx
    359d:	57                   	push   %edi
    359e:	8d bb c0 00 00 00    	lea    0xc0(%ebx),%edi
    35a4:	e8 77 37 00 00       	call   6d20 <source_set_color>
    35a9:	89 3c 24             	mov    %edi,(%esp)
    35ac:	e8 df 36 00 00       	call   6c90 <source_init>
    35b1:	8b 4d 1c             	mov    0x1c(%ebp),%ecx
    35b4:	58                   	pop    %eax
    35b5:	5a                   	pop    %edx
    35b6:	51                   	push   %ecx
    35b7:	57                   	push   %edi
    35b8:	e8 63 37 00 00       	call   6d20 <source_set_color>
    35bd:	8b 7d 10             	mov    0x10(%ebp),%edi
    35c0:	81 e6 ff ff 00 00    	and    $0xffff,%esi
    35c6:	83 c4 10             	add    $0x10,%esp
    35c9:	85 ff                	test   %edi,%edi
    35cb:	0f 84 a7 00 00 00    	je     3678 <create_label+0x148>
    35d1:	83 ec 0c             	sub    $0xc,%esp
    35d4:	8b 45 10             	mov    0x10(%ebp),%eax
    35d7:	50                   	push   %eax
    35d8:	e8 53 5d 00 00       	call   9330 <str_dup@plt>
    35dd:	83 c4 10             	add    $0x10,%esp
    35e0:	89 83 24 01 00 00    	mov    %eax,0x124(%ebx)
    35e6:	8d 83 28 01 00 00    	lea    0x128(%ebx),%eax
    35ec:	57                   	push   %edi
    35ed:	57                   	push   %edi
    35ee:	56                   	push   %esi
    35ef:	50                   	push   %eax
    35f0:	e8 eb 1d 00 00       	call   53e0 <embedded_font_create>
    35f5:	83 c4 10             	add    $0x10,%esp
    35f8:	85 c0                	test   %eax,%eax
    35fa:	75 4c                	jne    3648 <create_label+0x118>
    35fc:	8d 45 e4             	lea    -0x1c(%ebp),%eax
    35ff:	8b 93 28 01 00 00    	mov    0x128(%ebx),%edx
    3605:	50                   	push   %eax
    3606:	8d 45 e0             	lea    -0x20(%ebp),%eax
    3609:	50                   	push   %eax
    360a:	8b 83 24 01 00 00    	mov    0x124(%ebx),%eax
    3610:	50                   	push   %eax
    3611:	52                   	push   %edx
    3612:	e8 49 34 00 00       	call   6a60 <font_get_box>
    3617:	8b 45 e0             	mov    -0x20(%ebp),%eax
    361a:	8d 50 04             	lea    0x4(%eax),%edx
    361d:	8b 45 e4             	mov    -0x1c(%ebp),%eax
    3620:	83 c0 04             	add    $0x4,%eax
    3623:	89 53 2c             	mov    %edx,0x2c(%ebx)
    3626:	89 43 30             	mov    %eax,0x30(%ebx)
    3629:	89 53 34             	mov    %edx,0x34(%ebx)
    362c:	89 43 38             	mov    %eax,0x38(%ebx)
    362f:	c7 83 2c 01 00 00 b0 	movl   $0x30b0,0x12c(%ebx)
    3636:	30 00 00 
    3639:	83 c4 10             	add    $0x10,%esp
    363c:	8d 65 f4             	lea    -0xc(%ebp),%esp
    363f:	89 d8                	mov    %ebx,%eax
    3641:	5b                   	pop    %ebx
    3642:	5e                   	pop    %esi
    3643:	5f                   	pop    %edi
    3644:	5d                   	pop    %ebp
    3645:	c3                   	ret    
    3646:	66 90                	xchg   %ax,%ax
    3648:	83 ec 0c             	sub    $0xc,%esp
    364b:	8b 8b 24 01 00 00    	mov    0x124(%ebx),%ecx
    3651:	51                   	push   %ecx
    3652:	e8 49 5e 00 00       	call   94a0 <free@plt>
    3657:	c7 83 24 01 00 00 00 	movl   $0x0,0x124(%ebx)
    365e:	00 00 00 
    3661:	89 1c 24             	mov    %ebx,(%esp)
    3664:	e8 37 5e 00 00       	call   94a0 <free@plt>
    3669:	83 c4 10             	add    $0x10,%esp
    366c:	8d 65 f4             	lea    -0xc(%ebp),%esp
    366f:	31 db                	xor    %ebx,%ebx
    3671:	89 d8                	mov    %ebx,%eax
    3673:	5b                   	pop    %ebx
    3674:	5e                   	pop    %esi
    3675:	5f                   	pop    %edi
    3676:	5d                   	pop    %ebp
    3677:	c3                   	ret    
    3678:	c7 83 24 01 00 00 00 	movl   $0x0,0x124(%ebx)
    367f:	00 00 00 
    3682:	e9 5f ff ff ff       	jmp    35e6 <create_label+0xb6>
    3687:	66 90                	xchg   %ax,%ax
    3689:	66 90                	xchg   %ax,%ax
    368b:	66 90                	xchg   %ax,%ax
    368d:	66 90                	xchg   %ax,%ax
    368f:	90                   	nop

00003690 <widget_init>:
    3690:	55                   	push   %ebp
    3691:	89 e5                	mov    %esp,%ebp
    3693:	8b 45 08             	mov    0x8(%ebp),%eax
    3696:	8b 55 0c             	mov    0xc(%ebp),%edx
    3699:	85 d2                	test   %edx,%edx
    369b:	8d 48 0c             	lea    0xc(%eax),%ecx
    369e:	c7 00 00 00 00 00    	movl   $0x0,(%eax)
    36a4:	c7 40 04 00 00 00 00 	movl   $0x0,0x4(%eax)
    36ab:	89 48 0c             	mov    %ecx,0xc(%eax)
    36ae:	89 48 10             	mov    %ecx,0x10(%eax)
    36b1:	74 6d                	je     3720 <widget_init+0x90>
    36b3:	8d 4a 0c             	lea    0xc(%edx),%ecx
    36b6:	89 50 08             	mov    %edx,0x8(%eax)
    36b9:	89 48 04             	mov    %ecx,0x4(%eax)
    36bc:	8b 4a 0c             	mov    0xc(%edx),%ecx
    36bf:	89 08                	mov    %ecx,(%eax)
    36c1:	8b 4a 0c             	mov    0xc(%edx),%ecx
    36c4:	89 41 04             	mov    %eax,0x4(%ecx)
    36c7:	89 42 0c             	mov    %eax,0xc(%edx)
    36ca:	8b 52 14             	mov    0x14(%edx),%edx
    36cd:	89 50 14             	mov    %edx,0x14(%eax)
    36d0:	8b 55 10             	mov    0x10(%ebp),%edx
    36d3:	c7 40 1c 00 00 00 00 	movl   $0x0,0x1c(%eax)
    36da:	89 50 18             	mov    %edx,0x18(%eax)
    36dd:	c7 40 20 00 00 00 00 	movl   $0x0,0x20(%eax)
    36e4:	c7 40 24 00 00 00 00 	movl   $0x0,0x24(%eax)
    36eb:	c7 40 28 00 00 00 00 	movl   $0x0,0x28(%eax)
    36f2:	c7 40 2c 00 00 00 00 	movl   $0x0,0x2c(%eax)
    36f9:	c7 40 30 00 00 00 00 	movl   $0x0,0x30(%eax)
    3700:	c7 40 34 00 00 00 00 	movl   $0x0,0x34(%eax)
    3707:	c7 40 38 00 00 00 00 	movl   $0x0,0x38(%eax)
    370e:	c7 40 3c ff ff ff ff 	movl   $0xffffffff,0x3c(%eax)
    3715:	c7 40 40 ff ff ff ff 	movl   $0xffffffff,0x40(%eax)
    371c:	5d                   	pop    %ebp
    371d:	c3                   	ret    
    371e:	66 90                	xchg   %ax,%ax
    3720:	c7 40 08 00 00 00 00 	movl   $0x0,0x8(%eax)
    3727:	c7 40 14 00 00 00 00 	movl   $0x0,0x14(%eax)
    372e:	eb a0                	jmp    36d0 <widget_init+0x40>

00003730 <widget_modify>:
    3730:	55                   	push   %ebp
    3731:	89 e5                	mov    %esp,%ebp
    3733:	8b 45 08             	mov    0x8(%ebp),%eax
    3736:	8b 55 0c             	mov    0xc(%ebp),%edx
    3739:	89 50 1c             	mov    %edx,0x1c(%eax)
    373c:	8b 55 10             	mov    0x10(%ebp),%edx
    373f:	89 50 20             	mov    %edx,0x20(%eax)
    3742:	8b 55 14             	mov    0x14(%ebp),%edx
    3745:	89 50 24             	mov    %edx,0x24(%eax)
    3748:	8b 55 18             	mov    0x18(%ebp),%edx
    374b:	89 50 28             	mov    %edx,0x28(%eax)
    374e:	5d                   	pop    %ebp
    374f:	c3                   	ret    

00003750 <widget_get_data>:
    3750:	55                   	push   %ebp
    3751:	89 e5                	mov    %esp,%ebp
    3753:	8b 45 08             	mov    0x8(%ebp),%eax
    3756:	5d                   	pop    %ebp
    3757:	8b 40 18             	mov    0x18(%eax),%eax
    375a:	c3                   	ret    
    375b:	90                   	nop
    375c:	8d 74 26 00          	lea    0x0(%esi,%eiz,1),%esi

00003760 <widget_deinit>:
    3760:	55                   	push   %ebp
    3761:	89 e5                	mov    %esp,%ebp
    3763:	8b 45 08             	mov    0x8(%ebp),%eax
    3766:	8b 50 08             	mov    0x8(%eax),%edx
    3769:	85 d2                	test   %edx,%edx
    376b:	74 21                	je     378e <widget_deinit+0x2e>
    376d:	8b 08                	mov    (%eax),%ecx
    376f:	85 c9                	test   %ecx,%ecx
    3771:	74 0e                	je     3781 <widget_deinit+0x21>
    3773:	8b 50 04             	mov    0x4(%eax),%edx
    3776:	85 d2                	test   %edx,%edx
    3778:	74 07                	je     3781 <widget_deinit+0x21>
    377a:	89 0a                	mov    %ecx,(%edx)
    377c:	8b 08                	mov    (%eax),%ecx
    377e:	89 51 04             	mov    %edx,0x4(%ecx)
    3781:	c7 00 00 00 00 00    	movl   $0x0,(%eax)
    3787:	c7 40 04 00 00 00 00 	movl   $0x0,0x4(%eax)
    378e:	5d                   	pop    %ebp
    378f:	c3                   	ret    

00003790 <root_handle_keyboard_event>:
    3790:	55                   	push   %ebp
    3791:	89 e5                	mov    %esp,%ebp
    3793:	57                   	push   %edi
    3794:	56                   	push   %esi
    3795:	8b 45 08             	mov    0x8(%ebp),%eax
    3798:	83 c0 0c             	add    $0xc,%eax
    379b:	8b 50 04             	mov    0x4(%eax),%edx
    379e:	39 c2                	cmp    %eax,%edx
    37a0:	74 1e                	je     37c0 <root_handle_keyboard_event+0x30>
    37a2:	8d 7d 0c             	lea    0xc(%ebp),%edi
    37a5:	b9 06 00 00 00       	mov    $0x6,%ecx
    37aa:	89 fe                	mov    %edi,%esi
    37ac:	f3 a5                	rep movsl %ds:(%esi),%es:(%edi)
    37ae:	89 55 08             	mov    %edx,0x8(%ebp)
    37b1:	5e                   	pop    %esi
    37b2:	8b 42 54             	mov    0x54(%edx),%eax
    37b5:	5f                   	pop    %edi
    37b6:	5d                   	pop    %ebp
    37b7:	ff e0                	jmp    *%eax
    37b9:	8d b4 26 00 00 00 00 	lea    0x0(%esi,%eiz,1),%esi
    37c0:	5e                   	pop    %esi
    37c1:	5f                   	pop    %edi
    37c2:	5d                   	pop    %ebp
    37c3:	c3                   	ret    
    37c4:	8d b6 00 00 00 00    	lea    0x0(%esi),%esi
    37ca:	8d bf 00 00 00 00    	lea    0x0(%edi),%edi

000037d0 <root_handle_position_event>:
    37d0:	55                   	push   %ebp
    37d1:	89 e5                	mov    %esp,%ebp
    37d3:	57                   	push   %edi
    37d4:	56                   	push   %esi
    37d5:	53                   	push   %ebx
    37d6:	83 ec 3c             	sub    $0x3c,%esp
    37d9:	8b 55 08             	mov    0x8(%ebp),%edx
    37dc:	8b 45 0c             	mov    0xc(%ebp),%eax
    37df:	89 45 e4             	mov    %eax,-0x1c(%ebp)
    37e2:	8b 45 10             	mov    0x10(%ebp),%eax
    37e5:	8b 7a 14             	mov    0x14(%edx),%edi
    37e8:	89 c1                	mov    %eax,%ecx
    37ea:	89 45 d8             	mov    %eax,-0x28(%ebp)
    37ed:	8b 45 14             	mov    0x14(%ebp),%eax
    37f0:	89 45 d4             	mov    %eax,-0x2c(%ebp)
    37f3:	8b 5d 18             	mov    0x18(%ebp),%ebx
    37f6:	8b 75 1c             	mov    0x1c(%ebp),%esi
    37f9:	89 7d dc             	mov    %edi,-0x24(%ebp)
    37fc:	80 7f 01 00          	cmpb   $0x0,0x1(%edi)
    3800:	0f 84 e2 00 00 00    	je     38e8 <root_handle_position_event+0x118>
    3806:	49                   	dec    %ecx
    3807:	0f 94 45 d3          	sete   -0x2d(%ebp)
    380b:	83 f8 01             	cmp    $0x1,%eax
    380e:	0f 94 45 e0          	sete   -0x20(%ebp)
    3812:	8a 4d e0             	mov    -0x20(%ebp),%cl
    3815:	8b 7a 24             	mov    0x24(%edx),%edi
    3818:	22 4d d3             	and    -0x2d(%ebp),%cl
    381b:	89 7d cc             	mov    %edi,-0x34(%ebp)
    381e:	8b 7a 28             	mov    0x28(%edx),%edi
    3821:	88 4d e0             	mov    %cl,-0x20(%ebp)
    3824:	89 7d c8             	mov    %edi,-0x38(%ebp)
    3827:	0f 85 15 01 00 00    	jne    3942 <root_handle_position_event+0x172>
    382d:	83 f8 02             	cmp    $0x2,%eax
    3830:	0f 94 45 e0          	sete   -0x20(%ebp)
    3834:	8a 45 e0             	mov    -0x20(%ebp),%al
    3837:	c7 45 c0 00 00 00 00 	movl   $0x0,-0x40(%ebp)
    383e:	22 45 d3             	and    -0x2d(%ebp),%al
    3841:	88 45 e0             	mov    %al,-0x20(%ebp)
    3844:	8b 45 cc             	mov    -0x34(%ebp),%eax
    3847:	83 fb 03             	cmp    $0x3,%ebx
    384a:	0f 96 45 d3          	setbe  -0x2d(%ebp)
    384e:	83 e8 04             	sub    $0x4,%eax
    3851:	89 c7                	mov    %eax,%edi
    3853:	89 45 bc             	mov    %eax,-0x44(%ebp)
    3856:	8b 45 c8             	mov    -0x38(%ebp),%eax
    3859:	83 fe 03             	cmp    $0x3,%esi
    385c:	0f 96 45 d2          	setbe  -0x2e(%ebp)
    3860:	83 e8 04             	sub    $0x4,%eax
    3863:	39 c6                	cmp    %eax,%esi
    3865:	8d 46 fc             	lea    -0x4(%esi),%eax
    3868:	0f 93 45 c8          	setae  -0x38(%ebp)
    386c:	83 f8 13             	cmp    $0x13,%eax
    386f:	0f 96 45 c4          	setbe  -0x3c(%ebp)
    3873:	83 fb 03             	cmp    $0x3,%ebx
    3876:	8a 4d c4             	mov    -0x3c(%ebp),%cl
    3879:	0f 97 c0             	seta   %al
    387c:	84 c1                	test   %al,%cl
    387e:	0f 84 15 01 00 00    	je     3999 <root_handle_position_event+0x1c9>
    3884:	39 fb                	cmp    %edi,%ebx
    3886:	0f 83 0d 01 00 00    	jae    3999 <root_handle_position_event+0x1c9>
    388c:	8b 45 cc             	mov    -0x34(%ebp),%eax
    388f:	c7 45 c4 01 00 00 00 	movl   $0x1,-0x3c(%ebp)
    3896:	83 e8 18             	sub    $0x18,%eax
    3899:	39 c3                	cmp    %eax,%ebx
    389b:	0f 93 c0             	setae  %al
    389e:	25 ff 00 00 00       	and    $0xff,%eax
    38a3:	89 c7                	mov    %eax,%edi
    38a5:	8a 45 d2             	mov    -0x2e(%ebp),%al
    38a8:	84 45 d3             	test   %al,-0x2d(%ebp)
    38ab:	0f 84 9d 00 00 00    	je     394e <root_handle_position_event+0x17e>
    38b1:	80 7d e0 00          	cmpb   $0x0,-0x20(%ebp)
    38b5:	0f 84 93 00 00 00    	je     394e <root_handle_position_event+0x17e>
    38bb:	83 7d c0 01          	cmpl   $0x1,-0x40(%ebp)
    38bf:	19 c0                	sbb    %eax,%eax
    38c1:	83 e0 24             	and    $0x24,%eax
    38c4:	83 c0 0f             	add    $0xf,%eax
    38c7:	89 45 10             	mov    %eax,0x10(%ebp)
    38ca:	8b 45 e4             	mov    -0x1c(%ebp),%eax
    38cd:	89 45 0c             	mov    %eax,0xc(%ebp)
    38d0:	8b 45 dc             	mov    -0x24(%ebp),%eax
    38d3:	8b 40 0c             	mov    0xc(%eax),%eax
    38d6:	89 45 08             	mov    %eax,0x8(%ebp)
    38d9:	8d 65 f4             	lea    -0xc(%ebp),%esp
    38dc:	5b                   	pop    %ebx
    38dd:	5e                   	pop    %esi
    38de:	5f                   	pop    %edi
    38df:	5d                   	pop    %ebp
    38e0:	e9 3b 59 00 00       	jmp    9220 <win_grab@plt>
    38e5:	8d 76 00             	lea    0x0(%esi),%esi
    38e8:	8d 42 0c             	lea    0xc(%edx),%eax
    38eb:	8b 7a 10             	mov    0x10(%edx),%edi
    38ee:	89 45 dc             	mov    %eax,-0x24(%ebp)
    38f1:	39 c7                	cmp    %eax,%edi
    38f3:	74 45                	je     393a <root_handle_position_event+0x16a>
    38f5:	89 f0                	mov    %esi,%eax
    38f7:	8b 4d e4             	mov    -0x1c(%ebp),%ecx
    38fa:	89 de                	mov    %ebx,%esi
    38fc:	89 c3                	mov    %eax,%ebx
    38fe:	66 90                	xchg   %ax,%ax
    3900:	8b 47 58             	mov    0x58(%edi),%eax
    3903:	83 ec 08             	sub    $0x8,%esp
    3906:	89 45 e4             	mov    %eax,-0x1c(%ebp)
    3909:	8b 55 d4             	mov    -0x2c(%ebp),%edx
    390c:	8b 45 d8             	mov    -0x28(%ebp),%eax
    390f:	53                   	push   %ebx
    3910:	89 45 10             	mov    %eax,0x10(%ebp)
    3913:	56                   	push   %esi
    3914:	52                   	push   %edx
    3915:	50                   	push   %eax
    3916:	8b 45 e4             	mov    -0x1c(%ebp),%eax
    3919:	51                   	push   %ecx
    391a:	89 4d 0c             	mov    %ecx,0xc(%ebp)
    391d:	57                   	push   %edi
    391e:	89 4d e0             	mov    %ecx,-0x20(%ebp)
    3921:	89 55 14             	mov    %edx,0x14(%ebp)
    3924:	89 75 18             	mov    %esi,0x18(%ebp)
    3927:	89 5d 1c             	mov    %ebx,0x1c(%ebp)
    392a:	ff d0                	call   *%eax
    392c:	8b 7f 04             	mov    0x4(%edi),%edi
    392f:	83 c4 20             	add    $0x20,%esp
    3932:	8b 4d e0             	mov    -0x20(%ebp),%ecx
    3935:	3b 7d dc             	cmp    -0x24(%ebp),%edi
    3938:	75 c6                	jne    3900 <root_handle_position_event+0x130>
    393a:	8d 65 f4             	lea    -0xc(%ebp),%esp
    393d:	5b                   	pop    %ebx
    393e:	5e                   	pop    %esi
    393f:	5f                   	pop    %edi
    3940:	5d                   	pop    %ebp
    3941:	c3                   	ret    
    3942:	c7 45 c0 01 00 00 00 	movl   $0x1,-0x40(%ebp)
    3949:	e9 f6 fe ff ff       	jmp    3844 <root_handle_position_event+0x74>
    394e:	8a 4d c8             	mov    -0x38(%ebp),%cl
    3951:	84 4d d3             	test   %cl,-0x2d(%ebp)
    3954:	74 1a                	je     3970 <root_handle_position_event+0x1a0>
    3956:	80 7d e0 00          	cmpb   $0x0,-0x20(%ebp)
    395a:	74 14                	je     3970 <root_handle_position_event+0x1a0>
    395c:	83 7d c0 01          	cmpl   $0x1,-0x40(%ebp)
    3960:	19 c0                	sbb    %eax,%eax
    3962:	83 e0 24             	and    $0x24,%eax
    3965:	83 c0 0d             	add    $0xd,%eax
    3968:	89 45 10             	mov    %eax,0x10(%ebp)
    396b:	e9 5a ff ff ff       	jmp    38ca <root_handle_position_event+0xfa>
    3970:	3b 5d bc             	cmp    -0x44(%ebp),%ebx
    3973:	0f 93 45 cc          	setae  -0x34(%ebp)
    3977:	8a 45 cc             	mov    -0x34(%ebp),%al
    397a:	84 45 c8             	test   %al,-0x38(%ebp)
    397d:	74 28                	je     39a7 <root_handle_position_event+0x1d7>
    397f:	80 7d e0 00          	cmpb   $0x0,-0x20(%ebp)
    3983:	74 22                	je     39a7 <root_handle_position_event+0x1d7>
    3985:	83 7d c0 01          	cmpl   $0x1,-0x40(%ebp)
    3989:	19 c0                	sbb    %eax,%eax
    398b:	83 e0 24             	and    $0x24,%eax
    398e:	83 c0 0c             	add    $0xc,%eax
    3991:	89 45 10             	mov    %eax,0x10(%ebp)
    3994:	e9 31 ff ff ff       	jmp    38ca <root_handle_position_event+0xfa>
    3999:	c7 45 c4 00 00 00 00 	movl   $0x0,-0x3c(%ebp)
    39a0:	31 ff                	xor    %edi,%edi
    39a2:	e9 fe fe ff ff       	jmp    38a5 <root_handle_position_event+0xd5>
    39a7:	8a 4d d2             	mov    -0x2e(%ebp),%cl
    39aa:	84 4d cc             	test   %cl,-0x34(%ebp)
    39ad:	74 1a                	je     39c9 <root_handle_position_event+0x1f9>
    39af:	80 7d e0 00          	cmpb   $0x0,-0x20(%ebp)
    39b3:	74 14                	je     39c9 <root_handle_position_event+0x1f9>
    39b5:	83 7d c0 01          	cmpl   $0x1,-0x40(%ebp)
    39b9:	19 c0                	sbb    %eax,%eax
    39bb:	83 e0 24             	and    $0x24,%eax
    39be:	83 c0 0e             	add    $0xe,%eax
    39c1:	89 45 10             	mov    %eax,0x10(%ebp)
    39c4:	e9 01 ff ff ff       	jmp    38ca <root_handle_position_event+0xfa>
    39c9:	80 7d d2 00          	cmpb   $0x0,-0x2e(%ebp)
    39cd:	74 1a                	je     39e9 <root_handle_position_event+0x219>
    39cf:	80 7d e0 00          	cmpb   $0x0,-0x20(%ebp)
    39d3:	74 14                	je     39e9 <root_handle_position_event+0x219>
    39d5:	83 7d c0 01          	cmpl   $0x1,-0x40(%ebp)
    39d9:	19 c0                	sbb    %eax,%eax
    39db:	83 e0 18             	and    $0x18,%eax
    39de:	83 c0 0a             	add    $0xa,%eax
    39e1:	89 45 10             	mov    %eax,0x10(%ebp)
    39e4:	e9 e1 fe ff ff       	jmp    38ca <root_handle_position_event+0xfa>
    39e9:	80 7d d3 00          	cmpb   $0x0,-0x2d(%ebp)
    39ed:	74 1a                	je     3a09 <root_handle_position_event+0x239>
    39ef:	80 7d e0 00          	cmpb   $0x0,-0x20(%ebp)
    39f3:	74 14                	je     3a09 <root_handle_position_event+0x239>
    39f5:	83 7d c0 01          	cmpl   $0x1,-0x40(%ebp)
    39f9:	19 c0                	sbb    %eax,%eax
    39fb:	83 e0 0c             	and    $0xc,%eax
    39fe:	83 c0 05             	add    $0x5,%eax
    3a01:	89 45 10             	mov    %eax,0x10(%ebp)
    3a04:	e9 c1 fe ff ff       	jmp    38ca <root_handle_position_event+0xfa>
    3a09:	80 7d c8 00          	cmpb   $0x0,-0x38(%ebp)
    3a0d:	74 1a                	je     3a29 <root_handle_position_event+0x259>
    3a0f:	80 7d e0 00          	cmpb   $0x0,-0x20(%ebp)
    3a13:	74 14                	je     3a29 <root_handle_position_event+0x259>
    3a15:	83 7d c0 01          	cmpl   $0x1,-0x40(%ebp)
    3a19:	19 c0                	sbb    %eax,%eax
    3a1b:	83 e0 18             	and    $0x18,%eax
    3a1e:	83 c0 08             	add    $0x8,%eax
    3a21:	89 45 10             	mov    %eax,0x10(%ebp)
    3a24:	e9 a1 fe ff ff       	jmp    38ca <root_handle_position_event+0xfa>
    3a29:	80 7d cc 00          	cmpb   $0x0,-0x34(%ebp)
    3a2d:	74 1a                	je     3a49 <root_handle_position_event+0x279>
    3a2f:	80 7d e0 00          	cmpb   $0x0,-0x20(%ebp)
    3a33:	74 14                	je     3a49 <root_handle_position_event+0x279>
    3a35:	83 7d c0 01          	cmpl   $0x1,-0x40(%ebp)
    3a39:	19 c0                	sbb    %eax,%eax
    3a3b:	83 e0 0c             	and    $0xc,%eax
    3a3e:	83 c0 04             	add    $0x4,%eax
    3a41:	89 45 10             	mov    %eax,0x10(%ebp)
    3a44:	e9 81 fe ff ff       	jmp    38ca <root_handle_position_event+0xfa>
    3a49:	85 7d c0             	test   %edi,-0x40(%ebp)
    3a4c:	75 61                	jne    3aaf <root_handle_position_event+0x2df>
    3a4e:	8b 4d c4             	mov    -0x3c(%ebp),%ecx
    3a51:	85 4d c0             	test   %ecx,-0x40(%ebp)
    3a54:	75 6e                	jne    3ac4 <root_handle_position_event+0x2f4>
    3a56:	8d 42 0c             	lea    0xc(%edx),%eax
    3a59:	8b 7a 10             	mov    0x10(%edx),%edi
    3a5c:	89 45 dc             	mov    %eax,-0x24(%ebp)
    3a5f:	39 f8                	cmp    %edi,%eax
    3a61:	0f 84 d3 fe ff ff    	je     393a <root_handle_position_event+0x16a>
    3a67:	89 f0                	mov    %esi,%eax
    3a69:	8b 4d e4             	mov    -0x1c(%ebp),%ecx
    3a6c:	89 de                	mov    %ebx,%esi
    3a6e:	89 c3                	mov    %eax,%ebx
    3a70:	8b 47 58             	mov    0x58(%edi),%eax
    3a73:	83 ec 08             	sub    $0x8,%esp
    3a76:	89 45 e4             	mov    %eax,-0x1c(%ebp)
    3a79:	8b 55 d4             	mov    -0x2c(%ebp),%edx
    3a7c:	8b 45 d8             	mov    -0x28(%ebp),%eax
    3a7f:	53                   	push   %ebx
    3a80:	89 45 10             	mov    %eax,0x10(%ebp)
    3a83:	56                   	push   %esi
    3a84:	52                   	push   %edx
    3a85:	50                   	push   %eax
    3a86:	8b 45 e4             	mov    -0x1c(%ebp),%eax
    3a89:	51                   	push   %ecx
    3a8a:	89 4d 0c             	mov    %ecx,0xc(%ebp)
    3a8d:	57                   	push   %edi
    3a8e:	89 4d e0             	mov    %ecx,-0x20(%ebp)
    3a91:	89 55 14             	mov    %edx,0x14(%ebp)
    3a94:	89 75 18             	mov    %esi,0x18(%ebp)
    3a97:	89 5d 1c             	mov    %ebx,0x1c(%ebp)
    3a9a:	ff d0                	call   *%eax
    3a9c:	8b 7f 04             	mov    0x4(%edi),%edi
    3a9f:	83 c4 20             	add    $0x20,%esp
    3aa2:	8b 4d e0             	mov    -0x20(%ebp),%ecx
    3aa5:	39 7d dc             	cmp    %edi,-0x24(%ebp)
    3aa8:	75 c6                	jne    3a70 <root_handle_position_event+0x2a0>
    3aaa:	e9 8b fe ff ff       	jmp    393a <root_handle_position_event+0x16a>
    3aaf:	8b 45 dc             	mov    -0x24(%ebp),%eax
    3ab2:	8b 40 0c             	mov    0xc(%eax),%eax
    3ab5:	89 45 08             	mov    %eax,0x8(%ebp)
    3ab8:	8d 65 f4             	lea    -0xc(%ebp),%esp
    3abb:	5b                   	pop    %ebx
    3abc:	5e                   	pop    %esi
    3abd:	5f                   	pop    %edi
    3abe:	5d                   	pop    %ebp
    3abf:	e9 cc 59 00 00       	jmp    9490 <win_close_request@plt>
    3ac4:	c7 45 10 03 00 00 00 	movl   $0x3,0x10(%ebp)
    3acb:	e9 fa fd ff ff       	jmp    38ca <root_handle_position_event+0xfa>

00003ad0 <root_destroy>:
    3ad0:	55                   	push   %ebp
    3ad1:	89 e5                	mov    %esp,%ebp
    3ad3:	5d                   	pop    %ebp
    3ad4:	e9 87 fc ff ff       	jmp    3760 <widget_deinit>
    3ad9:	8d b4 26 00 00 00 00 	lea    0x0(%esi,%eiz,1),%esi

00003ae0 <fetch_input>:
    3ae0:	55                   	push   %ebp
    3ae1:	89 e5                	mov    %esp,%ebp
    3ae3:	57                   	push   %edi
    3ae4:	56                   	push   %esi
    3ae5:	53                   	push   %ebx
    3ae6:	83 ec 0c             	sub    $0xc,%esp
    3ae9:	8b 45 08             	mov    0x8(%ebp),%eax
    3aec:	8d 78 10             	lea    0x10(%eax),%edi
    3aef:	90                   	nop
    3af0:	83 ec 0c             	sub    $0xc,%esp
    3af3:	6a 24                	push   $0x24
    3af5:	e8 b6 57 00 00       	call   92b0 <malloc@plt>
    3afa:	83 c4 10             	add    $0x10,%esp
    3afd:	89 c6                	mov    %eax,%esi
    3aff:	85 c0                	test   %eax,%eax
    3b01:	74 37                	je     3b3a <fetch_input+0x5a>
    3b03:	52                   	push   %edx
    3b04:	52                   	push   %edx
    3b05:	50                   	push   %eax
    3b06:	8b 45 08             	mov    0x8(%ebp),%eax
    3b09:	8b 48 08             	mov    0x8(%eax),%ecx
    3b0c:	51                   	push   %ecx
    3b0d:	e8 3e 58 00 00       	call   9350 <win_get_event@plt>
    3b12:	83 c4 10             	add    $0x10,%esp
    3b15:	85 c0                	test   %eax,%eax
    3b17:	75 2f                	jne    3b48 <fetch_input+0x68>
    3b19:	8b 5e 08             	mov    0x8(%esi),%ebx
    3b1c:	50                   	push   %eax
    3b1d:	50                   	push   %eax
    3b1e:	56                   	push   %esi
    3b1f:	57                   	push   %edi
    3b20:	c7 06 00 00 00 00    	movl   $0x0,(%esi)
    3b26:	c7 46 04 00 00 00 00 	movl   $0x0,0x4(%esi)
    3b2d:	e8 ce 58 00 00       	call   9400 <prodcons_produce@plt>
    3b32:	83 c4 10             	add    $0x10,%esp
    3b35:	83 fb 08             	cmp    $0x8,%ebx
    3b38:	75 b6                	jne    3af0 <fetch_input+0x10>
    3b3a:	8d 65 f4             	lea    -0xc(%ebp),%esp
    3b3d:	31 c0                	xor    %eax,%eax
    3b3f:	5b                   	pop    %ebx
    3b40:	5e                   	pop    %esi
    3b41:	5f                   	pop    %edi
    3b42:	5d                   	pop    %ebp
    3b43:	c3                   	ret    
    3b44:	8d 74 26 00          	lea    0x0(%esi,%eiz,1),%esi
    3b48:	83 ec 0c             	sub    $0xc,%esp
    3b4b:	56                   	push   %esi
    3b4c:	e8 4f 59 00 00       	call   94a0 <free@plt>
    3b51:	83 c4 10             	add    $0x10,%esp
    3b54:	8d 65 f4             	lea    -0xc(%ebp),%esp
    3b57:	31 c0                	xor    %eax,%eax
    3b59:	5b                   	pop    %ebx
    3b5a:	5e                   	pop    %esi
    3b5b:	5f                   	pop    %edi
    3b5c:	5d                   	pop    %ebp
    3b5d:	c3                   	ret    
    3b5e:	66 90                	xchg   %ax,%ax

00003b60 <paint_internal>:
    3b60:	55                   	push   %ebp
    3b61:	89 e5                	mov    %esp,%ebp
    3b63:	57                   	push   %edi
    3b64:	56                   	push   %esi
    3b65:	53                   	push   %ebx
    3b66:	81 ec e8 00 00 00    	sub    $0xe8,%esp
    3b6c:	89 c3                	mov    %eax,%ebx
    3b6e:	8b 70 14             	mov    0x14(%eax),%esi
    3b71:	8d 86 94 00 00 00    	lea    0x94(%esi),%eax
    3b77:	50                   	push   %eax
    3b78:	e8 33 59 00 00       	call   94b0 <fibril_mutex_lock@plt>
    3b7d:	8b 86 a4 00 00 00    	mov    0xa4(%esi),%eax
    3b83:	83 c4 10             	add    $0x10,%esp
    3b86:	89 85 2c ff ff ff    	mov    %eax,-0xd4(%ebp)
    3b8c:	85 c0                	test   %eax,%eax
    3b8e:	0f 84 5c 03 00 00    	je     3ef0 <paint_internal+0x390>
    3b94:	83 ec 0c             	sub    $0xc,%esp
    3b97:	8d 75 84             	lea    -0x7c(%ebp),%esi
    3b9a:	8d bd 4c ff ff ff    	lea    -0xb4(%ebp),%edi
    3ba0:	56                   	push   %esi
    3ba1:	e8 ea 30 00 00       	call   6c90 <source_init>
    3ba6:	8b 8d 2c ff ff ff    	mov    -0xd4(%ebp),%ecx
    3bac:	58                   	pop    %eax
    3bad:	5a                   	pop    %edx
    3bae:	51                   	push   %ecx
    3baf:	57                   	push   %edi
    3bb0:	e8 4b 29 00 00       	call   6500 <drawctx_init>
    3bb5:	58                   	pop    %eax
    3bb6:	5a                   	pop    %edx
    3bb7:	56                   	push   %esi
    3bb8:	57                   	push   %edi
    3bb9:	e8 12 2b 00 00       	call   66d0 <drawctx_set_source>
    3bbe:	8b 4b 28             	mov    0x28(%ebx),%ecx
    3bc1:	8b 43 24             	mov    0x24(%ebx),%eax
    3bc4:	68 55 55 55 ff       	push   $0xff555555
    3bc9:	6a ff                	push   $0xffffffff
    3bcb:	51                   	push   %ecx
    3bcc:	50                   	push   %eax
    3bcd:	8b 43 1c             	mov    0x1c(%ebx),%eax
    3bd0:	50                   	push   %eax
    3bd1:	8b 43 20             	mov    0x20(%ebx),%eax
    3bd4:	50                   	push   %eax
    3bd5:	56                   	push   %esi
    3bd6:	57                   	push   %edi
    3bd7:	e8 e4 13 00 00       	call   4fc0 <draw_bevel>
    3bdc:	83 c4 28             	add    $0x28,%esp
    3bdf:	68 ba ba ba ff       	push   $0xffbababa
    3be4:	56                   	push   %esi
    3be5:	e8 36 31 00 00       	call   6d20 <source_set_color>
    3bea:	8b 43 24             	mov    0x24(%ebx),%eax
    3bed:	83 e8 02             	sub    $0x2,%eax
    3bf0:	c7 04 24 02 00 00 00 	movl   $0x2,(%esp)
    3bf7:	50                   	push   %eax
    3bf8:	8b 43 20             	mov    0x20(%ebx),%eax
    3bfb:	40                   	inc    %eax
    3bfc:	50                   	push   %eax
    3bfd:	8b 43 1c             	mov    0x1c(%ebx),%eax
    3c00:	40                   	inc    %eax
    3c01:	50                   	push   %eax
    3c02:	57                   	push   %edi
    3c03:	e8 e8 2a 00 00       	call   66f0 <drawctx_transfer>
    3c08:	83 c4 14             	add    $0x14,%esp
    3c0b:	8b 43 28             	mov    0x28(%ebx),%eax
    3c0e:	83 e8 02             	sub    $0x2,%eax
    3c11:	50                   	push   %eax
    3c12:	8b 43 20             	mov    0x20(%ebx),%eax
    3c15:	40                   	inc    %eax
    3c16:	6a 02                	push   $0x2
    3c18:	50                   	push   %eax
    3c19:	8b 43 1c             	mov    0x1c(%ebx),%eax
    3c1c:	40                   	inc    %eax
    3c1d:	50                   	push   %eax
    3c1e:	57                   	push   %edi
    3c1f:	e8 cc 2a 00 00       	call   66f0 <drawctx_transfer>
    3c24:	83 c4 14             	add    $0x14,%esp
    3c27:	8b 43 24             	mov    0x24(%ebx),%eax
    3c2a:	6a 02                	push   $0x2
    3c2c:	83 e8 02             	sub    $0x2,%eax
    3c2f:	8b 53 20             	mov    0x20(%ebx),%edx
    3c32:	50                   	push   %eax
    3c33:	8b 43 28             	mov    0x28(%ebx),%eax
    3c36:	01 d0                	add    %edx,%eax
    3c38:	83 e8 03             	sub    $0x3,%eax
    3c3b:	50                   	push   %eax
    3c3c:	8b 43 1c             	mov    0x1c(%ebx),%eax
    3c3f:	40                   	inc    %eax
    3c40:	50                   	push   %eax
    3c41:	57                   	push   %edi
    3c42:	e8 a9 2a 00 00       	call   66f0 <drawctx_transfer>
    3c47:	83 c4 14             	add    $0x14,%esp
    3c4a:	8b 43 28             	mov    0x28(%ebx),%eax
    3c4d:	8b 4b 1c             	mov    0x1c(%ebx),%ecx
    3c50:	83 e8 04             	sub    $0x4,%eax
    3c53:	50                   	push   %eax
    3c54:	8b 43 20             	mov    0x20(%ebx),%eax
    3c57:	40                   	inc    %eax
    3c58:	6a 02                	push   $0x2
    3c5a:	50                   	push   %eax
    3c5b:	8b 43 24             	mov    0x24(%ebx),%eax
    3c5e:	01 c8                	add    %ecx,%eax
    3c60:	83 e8 03             	sub    $0x3,%eax
    3c63:	50                   	push   %eax
    3c64:	57                   	push   %edi
    3c65:	e8 86 2a 00 00       	call   66f0 <drawctx_transfer>
    3c6a:	83 c4 20             	add    $0x20,%esp
    3c6d:	8b 43 28             	mov    0x28(%ebx),%eax
    3c70:	6a ff                	push   $0xffffffff
    3c72:	83 e8 06             	sub    $0x6,%eax
    3c75:	68 55 55 55 ff       	push   $0xff555555
    3c7a:	50                   	push   %eax
    3c7b:	8b 43 24             	mov    0x24(%ebx),%eax
    3c7e:	83 e8 06             	sub    $0x6,%eax
    3c81:	50                   	push   %eax
    3c82:	8b 43 20             	mov    0x20(%ebx),%eax
    3c85:	83 c0 03             	add    $0x3,%eax
    3c88:	50                   	push   %eax
    3c89:	8b 43 1c             	mov    0x1c(%ebx),%eax
    3c8c:	83 c0 03             	add    $0x3,%eax
    3c8f:	50                   	push   %eax
    3c90:	56                   	push   %esi
    3c91:	57                   	push   %edi
    3c92:	e8 29 13 00 00       	call   4fc0 <draw_bevel>
    3c97:	8b 43 1c             	mov    0x1c(%ebx),%eax
    3c9a:	83 c4 20             	add    $0x20,%esp
    3c9d:	89 85 34 ff ff ff    	mov    %eax,-0xcc(%ebp)
    3ca3:	8d 50 04             	lea    0x4(%eax),%edx
    3ca6:	8b 43 14             	mov    0x14(%ebx),%eax
    3ca9:	89 95 30 ff ff ff    	mov    %edx,-0xd0(%ebp)
    3caf:	8b 53 20             	mov    0x20(%ebx),%edx
    3cb2:	89 95 28 ff ff ff    	mov    %edx,-0xd8(%ebp)
    3cb8:	8d 4a 04             	lea    0x4(%edx),%ecx
    3cbb:	89 8d 24 ff ff ff    	mov    %ecx,-0xdc(%ebp)
    3cc1:	8b 4b 24             	mov    0x24(%ebx),%ecx
    3cc4:	89 8d 20 ff ff ff    	mov    %ecx,-0xe0(%ebp)
    3cca:	83 e9 1c             	sub    $0x1c,%ecx
    3ccd:	80 78 02 01          	cmpb   $0x1,0x2(%eax)
    3cd1:	19 d2                	sbb    %edx,%edx
    3cd3:	81 e2 d1 e9 dc ff    	and    $0xffdce9d1,%edx
    3cd9:	81 ea a7 cf d7 00    	sub    $0xd7cfa7,%edx
    3cdf:	80 78 02 01          	cmpb   $0x1,0x2(%eax)
    3ce3:	19 c0                	sbb    %eax,%eax
    3ce5:	52                   	push   %edx
    3ce6:	25 7f bc 97 ff       	and    $0xff97bc7f,%eax
    3ceb:	2d 01 6e 87 00       	sub    $0x876e01,%eax
    3cf0:	50                   	push   %eax
    3cf1:	8b 85 24 ff ff ff    	mov    -0xdc(%ebp),%eax
    3cf7:	6a 14                	push   $0x14
    3cf9:	51                   	push   %ecx
    3cfa:	50                   	push   %eax
    3cfb:	8b 85 30 ff ff ff    	mov    -0xd0(%ebp),%eax
    3d01:	50                   	push   %eax
    3d02:	56                   	push   %esi
    3d03:	57                   	push   %edi
    3d04:	e8 b7 12 00 00       	call   4fc0 <draw_bevel>
    3d09:	8b 43 14             	mov    0x14(%ebx),%eax
    3d0c:	83 c4 18             	add    $0x18,%esp
    3d0f:	80 78 02 01          	cmpb   $0x1,0x2(%eax)
    3d13:	19 c0                	sbb    %eax,%eax
    3d15:	25 98 ce b3 ff       	and    $0xffb3ce98,%eax
    3d1a:	2d 3c 95 a7 00       	sub    $0xa7953c,%eax
    3d1f:	50                   	push   %eax
    3d20:	56                   	push   %esi
    3d21:	e8 fa 2f 00 00       	call   6d20 <source_set_color>
    3d26:	8b 8d 20 ff ff ff    	mov    -0xe0(%ebp),%ecx
    3d2c:	8b 95 28 ff ff ff    	mov    -0xd8(%ebp),%edx
    3d32:	8d 41 e2             	lea    -0x1e(%ecx),%eax
    3d35:	c7 04 24 12 00 00 00 	movl   $0x12,(%esp)
    3d3c:	50                   	push   %eax
    3d3d:	8d 42 05             	lea    0x5(%edx),%eax
    3d40:	50                   	push   %eax
    3d41:	8b 85 34 ff ff ff    	mov    -0xcc(%ebp),%eax
    3d47:	83 c0 05             	add    $0x5,%eax
    3d4a:	50                   	push   %eax
    3d4b:	57                   	push   %edi
    3d4c:	e8 9f 29 00 00       	call   66f0 <drawctx_transfer>
    3d51:	8b 53 1c             	mov    0x1c(%ebx),%edx
    3d54:	8b 43 24             	mov    0x24(%ebx),%eax
    3d57:	83 c4 20             	add    $0x20,%esp
    3d5a:	01 d0                	add    %edx,%eax
    3d5c:	89 c2                	mov    %eax,%edx
    3d5e:	8b 43 20             	mov    0x20(%ebx),%eax
    3d61:	89 85 30 ff ff ff    	mov    %eax,-0xd0(%ebp)
    3d67:	83 c0 04             	add    $0x4,%eax
    3d6a:	68 55 55 55 ff       	push   $0xff555555
    3d6f:	6a ff                	push   $0xffffffff
    3d71:	6a 14                	push   $0x14
    3d73:	6a 14                	push   $0x14
    3d75:	50                   	push   %eax
    3d76:	89 d0                	mov    %edx,%eax
    3d78:	83 e8 18             	sub    $0x18,%eax
    3d7b:	89 95 34 ff ff ff    	mov    %edx,-0xcc(%ebp)
    3d81:	50                   	push   %eax
    3d82:	56                   	push   %esi
    3d83:	57                   	push   %edi
    3d84:	e8 37 12 00 00       	call   4fc0 <draw_bevel>
    3d89:	83 c4 18             	add    $0x18,%esp
    3d8c:	68 ba ba ba ff       	push   $0xffbababa
    3d91:	56                   	push   %esi
    3d92:	e8 89 2f 00 00       	call   6d20 <source_set_color>
    3d97:	8b 8d 30 ff ff ff    	mov    -0xd0(%ebp),%ecx
    3d9d:	8d 41 05             	lea    0x5(%ecx),%eax
    3da0:	c7 04 24 12 00 00 00 	movl   $0x12,(%esp)
    3da7:	6a 12                	push   $0x12
    3da9:	50                   	push   %eax
    3daa:	8b 85 34 ff ff ff    	mov    -0xcc(%ebp),%eax
    3db0:	83 e8 17             	sub    $0x17,%eax
    3db3:	50                   	push   %eax
    3db4:	57                   	push   %edi
    3db5:	e8 36 29 00 00       	call   66f0 <drawctx_transfer>
    3dba:	8b 8d 30 ff ff ff    	mov    -0xd0(%ebp),%ecx
    3dc0:	83 c4 14             	add    $0x14,%esp
    3dc3:	8d 41 07             	lea    0x7(%ecx),%eax
    3dc6:	8b 8d 2c ff ff ff    	mov    -0xd4(%ebp),%ecx
    3dcc:	68 55 55 55 ff       	push   $0xff555555
    3dd1:	6a ff                	push   $0xffffffff
    3dd3:	50                   	push   %eax
    3dd4:	8b 85 34 ff ff ff    	mov    -0xcc(%ebp),%eax
    3dda:	83 e8 15             	sub    $0x15,%eax
    3ddd:	50                   	push   %eax
    3dde:	51                   	push   %ecx
    3ddf:	e8 3c 0e 00 00       	call   4c20 <draw_icon_cross>
    3de4:	83 c4 18             	add    $0x18,%esp
    3de7:	8d 85 40 ff ff ff    	lea    -0xc0(%ebp),%eax
    3ded:	6a 10                	push   $0x10
    3def:	50                   	push   %eax
    3df0:	e8 eb 15 00 00       	call   53e0 <embedded_font_create>
    3df5:	83 c4 10             	add    $0x10,%esp
    3df8:	85 c0                	test   %eax,%eax
    3dfa:	0f 85 d0 00 00 00    	jne    3ed0 <paint_internal+0x370>
    3e00:	50                   	push   %eax
    3e01:	50                   	push   %eax
    3e02:	8b 85 40 ff ff ff    	mov    -0xc0(%ebp),%eax
    3e08:	50                   	push   %eax
    3e09:	57                   	push   %edi
    3e0a:	e8 d1 28 00 00       	call   66e0 <drawctx_set_font>
    3e0f:	8b 43 14             	mov    0x14(%ebx),%eax
    3e12:	80 78 02 00          	cmpb   $0x0,0x2(%eax)
    3e16:	0f 95 c0             	setne  %al
    3e19:	25 ff 00 00 00       	and    $0xff,%eax
    3e1e:	5a                   	pop    %edx
    3e1f:	f7 d8                	neg    %eax
    3e21:	0d cf cf cf ff       	or     $0xffcfcfcf,%eax
    3e26:	59                   	pop    %ecx
    3e27:	50                   	push   %eax
    3e28:	56                   	push   %esi
    3e29:	e8 f2 2e 00 00       	call   6d20 <source_set_color>
    3e2e:	8d 85 48 ff ff ff    	lea    -0xb8(%ebp),%eax
    3e34:	50                   	push   %eax
    3e35:	8d 85 44 ff ff ff    	lea    -0xbc(%ebp),%eax
    3e3b:	50                   	push   %eax
    3e3c:	8b 43 14             	mov    0x14(%ebx),%eax
    3e3f:	8b 70 04             	mov    0x4(%eax),%esi
    3e42:	8b 85 40 ff ff ff    	mov    -0xc0(%ebp),%eax
    3e48:	56                   	push   %esi
    3e49:	50                   	push   %eax
    3e4a:	e8 11 2c 00 00       	call   6a60 <font_get_box>
    3e4f:	8b 95 44 ff ff ff    	mov    -0xbc(%ebp),%edx
    3e55:	8b 43 24             	mov    0x24(%ebx),%eax
    3e58:	8d 4a 1e             	lea    0x1e(%edx),%ecx
    3e5b:	83 c4 20             	add    $0x20,%esp
    3e5e:	39 c8                	cmp    %ecx,%eax
    3e60:	72 41                	jb     3ea3 <paint_internal+0x343>
    3e62:	8b 4b 14             	mov    0x14(%ebx),%ecx
    3e65:	8b 71 04             	mov    0x4(%ecx),%esi
    3e68:	89 b5 34 ff ff ff    	mov    %esi,-0xcc(%ebp)
    3e6e:	85 f6                	test   %esi,%esi
    3e70:	74 31                	je     3ea3 <paint_internal+0x343>
    3e72:	8b b5 48 ff ff ff    	mov    -0xb8(%ebp),%esi
    3e78:	b9 14 00 00 00       	mov    $0x14,%ecx
    3e7d:	29 f1                	sub    %esi,%ecx
    3e7f:	8b 73 20             	mov    0x20(%ebx),%esi
    3e82:	d1 e9                	shr    %ecx
    3e84:	29 d0                	sub    %edx,%eax
    3e86:	d1 e8                	shr    %eax
    3e88:	8b 53 1c             	mov    0x1c(%ebx),%edx
    3e8b:	8d 4c 31 04          	lea    0x4(%ecx,%esi,1),%ecx
    3e8f:	01 d0                	add    %edx,%eax
    3e91:	51                   	push   %ecx
    3e92:	8b 8d 34 ff ff ff    	mov    -0xcc(%ebp),%ecx
    3e98:	50                   	push   %eax
    3e99:	51                   	push   %ecx
    3e9a:	57                   	push   %edi
    3e9b:	e8 c0 2a 00 00       	call   6960 <drawctx_print>
    3ea0:	83 c4 10             	add    $0x10,%esp
    3ea3:	83 ec 0c             	sub    $0xc,%esp
    3ea6:	8b 85 40 ff ff ff    	mov    -0xc0(%ebp),%eax
    3eac:	50                   	push   %eax
    3ead:	e8 0e 2b 00 00       	call   69c0 <font_release>
    3eb2:	8b 43 14             	mov    0x14(%ebx),%eax
    3eb5:	05 94 00 00 00       	add    $0x94,%eax
    3eba:	89 04 24             	mov    %eax,(%esp)
    3ebd:	e8 5e 54 00 00       	call   9320 <fibril_mutex_unlock@plt>
    3ec2:	83 c4 10             	add    $0x10,%esp
    3ec5:	8d 65 f4             	lea    -0xc(%ebp),%esp
    3ec8:	5b                   	pop    %ebx
    3ec9:	5e                   	pop    %esi
    3eca:	5f                   	pop    %edi
    3ecb:	5d                   	pop    %ebp
    3ecc:	c3                   	ret    
    3ecd:	8d 76 00             	lea    0x0(%esi),%esi
    3ed0:	83 ec 0c             	sub    $0xc,%esp
    3ed3:	8b 43 14             	mov    0x14(%ebx),%eax
    3ed6:	05 94 00 00 00       	add    $0x94,%eax
    3edb:	50                   	push   %eax
    3edc:	e8 3f 54 00 00       	call   9320 <fibril_mutex_unlock@plt>
    3ee1:	83 c4 10             	add    $0x10,%esp
    3ee4:	8d 65 f4             	lea    -0xc(%ebp),%esp
    3ee7:	5b                   	pop    %ebx
    3ee8:	5e                   	pop    %esi
    3ee9:	5f                   	pop    %edi
    3eea:	5d                   	pop    %ebp
    3eeb:	c3                   	ret    
    3eec:	8d 74 26 00          	lea    0x0(%esi,%eiz,1),%esi
    3ef0:	83 ec 0c             	sub    $0xc,%esp
    3ef3:	8b 43 14             	mov    0x14(%ebx),%eax
    3ef6:	05 94 00 00 00       	add    $0x94,%eax
    3efb:	50                   	push   %eax
    3efc:	e8 1f 54 00 00       	call   9320 <fibril_mutex_unlock@plt>
    3f01:	83 c4 10             	add    $0x10,%esp
    3f04:	e9 8b fc ff ff       	jmp    3b94 <paint_internal+0x34>
    3f09:	8d b4 26 00 00 00 00 	lea    0x0(%esi,%eiz,1),%esi

00003f10 <root_reconfigure>:
    3f10:	55                   	push   %ebp
    3f11:	89 e5                	mov    %esp,%ebp
    3f13:	57                   	push   %edi
    3f14:	56                   	push   %esi
    3f15:	53                   	push   %ebx
    3f16:	83 ec 0c             	sub    $0xc,%esp
    3f19:	8b 5d 08             	mov    0x8(%ebp),%ebx
    3f1c:	8b 43 14             	mov    0x14(%ebx),%eax
    3f1f:	80 78 01 00          	cmpb   $0x0,0x1(%eax)
    3f23:	74 43                	je     3f68 <root_reconfigure+0x58>
    3f25:	8b 73 10             	mov    0x10(%ebx),%esi
    3f28:	8d 7b 0c             	lea    0xc(%ebx),%edi
    3f2b:	39 fe                	cmp    %edi,%esi
    3f2d:	74 2e                	je     3f5d <root_reconfigure+0x4d>
    3f2f:	90                   	nop
    3f30:	83 ec 0c             	sub    $0xc,%esp
    3f33:	8b 43 28             	mov    0x28(%ebx),%eax
    3f36:	83 e8 1c             	sub    $0x1c,%eax
    3f39:	50                   	push   %eax
    3f3a:	8b 43 24             	mov    0x24(%ebx),%eax
    3f3d:	83 e8 08             	sub    $0x8,%eax
    3f40:	50                   	push   %eax
    3f41:	8b 43 20             	mov    0x20(%ebx),%eax
    3f44:	83 c0 18             	add    $0x18,%eax
    3f47:	50                   	push   %eax
    3f48:	8b 43 1c             	mov    0x1c(%ebx),%eax
    3f4b:	83 c0 04             	add    $0x4,%eax
    3f4e:	50                   	push   %eax
    3f4f:	56                   	push   %esi
    3f50:	ff 56 4c             	call   *0x4c(%esi)
    3f53:	8b 76 04             	mov    0x4(%esi),%esi
    3f56:	83 c4 20             	add    $0x20,%esp
    3f59:	39 fe                	cmp    %edi,%esi
    3f5b:	75 d3                	jne    3f30 <root_reconfigure+0x20>
    3f5d:	8d 65 f4             	lea    -0xc(%ebp),%esp
    3f60:	5b                   	pop    %ebx
    3f61:	5e                   	pop    %esi
    3f62:	5f                   	pop    %edi
    3f63:	5d                   	pop    %ebp
    3f64:	c3                   	ret    
    3f65:	8d 76 00             	lea    0x0(%esi),%esi
    3f68:	8b 73 10             	mov    0x10(%ebx),%esi
    3f6b:	8d 7b 0c             	lea    0xc(%ebx),%edi
    3f6e:	39 f7                	cmp    %esi,%edi
    3f70:	74 eb                	je     3f5d <root_reconfigure+0x4d>
    3f72:	8d b6 00 00 00 00    	lea    0x0(%esi),%esi
    3f78:	83 ec 0c             	sub    $0xc,%esp
    3f7b:	8b 43 28             	mov    0x28(%ebx),%eax
    3f7e:	50                   	push   %eax
    3f7f:	8b 53 24             	mov    0x24(%ebx),%edx
    3f82:	52                   	push   %edx
    3f83:	8b 4b 20             	mov    0x20(%ebx),%ecx
    3f86:	51                   	push   %ecx
    3f87:	8b 43 1c             	mov    0x1c(%ebx),%eax
    3f8a:	50                   	push   %eax
    3f8b:	56                   	push   %esi
    3f8c:	ff 56 4c             	call   *0x4c(%esi)
    3f8f:	8b 76 04             	mov    0x4(%esi),%esi
    3f92:	83 c4 20             	add    $0x20,%esp
    3f95:	39 f7                	cmp    %esi,%edi
    3f97:	75 df                	jne    3f78 <root_reconfigure+0x68>
    3f99:	8d 65 f4             	lea    -0xc(%ebp),%esp
    3f9c:	5b                   	pop    %ebx
    3f9d:	5e                   	pop    %esi
    3f9e:	5f                   	pop    %edi
    3f9f:	5d                   	pop    %ebp
    3fa0:	c3                   	ret    
    3fa1:	eb 0d                	jmp    3fb0 <root_rearrange>
    3fa3:	90                   	nop
    3fa4:	90                   	nop
    3fa5:	90                   	nop
    3fa6:	90                   	nop
    3fa7:	90                   	nop
    3fa8:	90                   	nop
    3fa9:	90                   	nop
    3faa:	90                   	nop
    3fab:	90                   	nop
    3fac:	90                   	nop
    3fad:	90                   	nop
    3fae:	90                   	nop
    3faf:	90                   	nop

00003fb0 <root_rearrange>:
    3fb0:	55                   	push   %ebp
    3fb1:	89 e5                	mov    %esp,%ebp
    3fb3:	57                   	push   %edi
    3fb4:	56                   	push   %esi
    3fb5:	53                   	push   %ebx
    3fb6:	83 ec 28             	sub    $0x28,%esp
    3fb9:	8b 45 10             	mov    0x10(%ebp),%eax
    3fbc:	8b 75 14             	mov    0x14(%ebp),%esi
    3fbf:	8b 7d 18             	mov    0x18(%ebp),%edi
    3fc2:	8b 55 08             	mov    0x8(%ebp),%edx
    3fc5:	57                   	push   %edi
    3fc6:	56                   	push   %esi
    3fc7:	50                   	push   %eax
    3fc8:	8b 45 0c             	mov    0xc(%ebp),%eax
    3fcb:	50                   	push   %eax
    3fcc:	89 55 e4             	mov    %edx,-0x1c(%ebp)
    3fcf:	52                   	push   %edx
    3fd0:	e8 5b f7 ff ff       	call   3730 <widget_modify>
    3fd5:	8b 55 e4             	mov    -0x1c(%ebp),%edx
    3fd8:	83 c4 20             	add    $0x20,%esp
    3fdb:	8b 42 14             	mov    0x14(%edx),%eax
    3fde:	80 78 01 00          	cmpb   $0x0,0x1(%eax)
    3fe2:	75 3c                	jne    4020 <root_rearrange+0x70>
    3fe4:	8d 42 0c             	lea    0xc(%edx),%eax
    3fe7:	8b 5a 10             	mov    0x10(%edx),%ebx
    3fea:	89 45 e4             	mov    %eax,-0x1c(%ebp)
    3fed:	39 c3                	cmp    %eax,%ebx
    3fef:	74 23                	je     4014 <root_rearrange+0x64>
    3ff1:	8d b4 26 00 00 00 00 	lea    0x0(%esi,%eiz,1),%esi
    3ff8:	83 ec 0c             	sub    $0xc,%esp
    3ffb:	8b 45 10             	mov    0x10(%ebp),%eax
    3ffe:	8b 55 0c             	mov    0xc(%ebp),%edx
    4001:	57                   	push   %edi
    4002:	56                   	push   %esi
    4003:	50                   	push   %eax
    4004:	52                   	push   %edx
    4005:	53                   	push   %ebx
    4006:	ff 53 4c             	call   *0x4c(%ebx)
    4009:	8b 5b 04             	mov    0x4(%ebx),%ebx
    400c:	83 c4 20             	add    $0x20,%esp
    400f:	3b 5d e4             	cmp    -0x1c(%ebp),%ebx
    4012:	75 e4                	jne    3ff8 <root_rearrange+0x48>
    4014:	8d 65 f4             	lea    -0xc(%ebp),%esp
    4017:	5b                   	pop    %ebx
    4018:	5e                   	pop    %esi
    4019:	5f                   	pop    %edi
    401a:	5d                   	pop    %ebp
    401b:	c3                   	ret    
    401c:	8d 74 26 00          	lea    0x0(%esi,%eiz,1),%esi
    4020:	89 d0                	mov    %edx,%eax
    4022:	e8 39 fb ff ff       	call   3b60 <paint_internal>
    4027:	8b 55 e4             	mov    -0x1c(%ebp),%edx
    402a:	8d 42 0c             	lea    0xc(%edx),%eax
    402d:	8b 5a 10             	mov    0x10(%edx),%ebx
    4030:	89 45 e4             	mov    %eax,-0x1c(%ebp)
    4033:	39 c3                	cmp    %eax,%ebx
    4035:	74 dd                	je     4014 <root_rearrange+0x64>
    4037:	8b 45 10             	mov    0x10(%ebp),%eax
    403a:	83 ef 1c             	sub    $0x1c,%edi
    403d:	83 c0 18             	add    $0x18,%eax
    4040:	83 ee 08             	sub    $0x8,%esi
    4043:	89 45 dc             	mov    %eax,-0x24(%ebp)
    4046:	8b 45 0c             	mov    0xc(%ebp),%eax
    4049:	83 c0 04             	add    $0x4,%eax
    404c:	89 45 e0             	mov    %eax,-0x20(%ebp)
    404f:	90                   	nop
    4050:	83 ec 0c             	sub    $0xc,%esp
    4053:	8b 4d dc             	mov    -0x24(%ebp),%ecx
    4056:	8b 45 e0             	mov    -0x20(%ebp),%eax
    4059:	57                   	push   %edi
    405a:	56                   	push   %esi
    405b:	51                   	push   %ecx
    405c:	50                   	push   %eax
    405d:	53                   	push   %ebx
    405e:	ff 53 4c             	call   *0x4c(%ebx)
    4061:	8b 5b 04             	mov    0x4(%ebx),%ebx
    4064:	83 c4 20             	add    $0x20,%esp
    4067:	3b 5d e4             	cmp    -0x1c(%ebp),%ebx
    406a:	75 e4                	jne    4050 <root_rearrange+0xa0>
    406c:	8d 65 f4             	lea    -0xc(%ebp),%esp
    406f:	5b                   	pop    %ebx
    4070:	5e                   	pop    %esi
    4071:	5f                   	pop    %edi
    4072:	5d                   	pop    %ebp
    4073:	c3                   	ret    
    4074:	8d b6 00 00 00 00    	lea    0x0(%esi),%esi
    407a:	8d bf 00 00 00 00    	lea    0x0(%edi),%edi

00004080 <destroy_children>:
    4080:	55                   	push   %ebp
    4081:	89 e5                	mov    %esp,%ebp
    4083:	57                   	push   %edi
    4084:	56                   	push   %esi
    4085:	53                   	push   %ebx
    4086:	83 ec 4c             	sub    $0x4c,%esp
    4089:	89 45 a8             	mov    %eax,-0x58(%ebp)
    408c:	8b 48 10             	mov    0x10(%eax),%ecx
    408f:	83 c0 0c             	add    $0xc,%eax
    4092:	89 4d d4             	mov    %ecx,-0x2c(%ebp)
    4095:	89 45 bc             	mov    %eax,-0x44(%ebp)
    4098:	39 c1                	cmp    %eax,%ecx
    409a:	0f 84 af 01 00 00    	je     424f <destroy_children+0x1cf>
    40a0:	8b 45 d4             	mov    -0x2c(%ebp),%eax
    40a3:	83 c0 0c             	add    $0xc,%eax
    40a6:	8b 48 04             	mov    0x4(%eax),%ecx
    40a9:	89 45 c0             	mov    %eax,-0x40(%ebp)
    40ac:	89 4d d0             	mov    %ecx,-0x30(%ebp)
    40af:	39 c8                	cmp    %ecx,%eax
    40b1:	0f 84 79 01 00 00    	je     4230 <destroy_children+0x1b0>
    40b7:	8b 45 d0             	mov    -0x30(%ebp),%eax
    40ba:	83 c0 0c             	add    $0xc,%eax
    40bd:	8b 50 04             	mov    0x4(%eax),%edx
    40c0:	89 45 b4             	mov    %eax,-0x4c(%ebp)
    40c3:	89 55 cc             	mov    %edx,-0x34(%ebp)
    40c6:	39 c2                	cmp    %eax,%edx
    40c8:	0f 84 43 01 00 00    	je     4211 <destroy_children+0x191>
    40ce:	8b 45 cc             	mov    -0x34(%ebp),%eax
    40d1:	83 c0 0c             	add    $0xc,%eax
    40d4:	8b 48 04             	mov    0x4(%eax),%ecx
    40d7:	89 45 b8             	mov    %eax,-0x48(%ebp)
    40da:	89 4d c8             	mov    %ecx,-0x38(%ebp)
    40dd:	39 c8                	cmp    %ecx,%eax
    40df:	0f 84 0d 01 00 00    	je     41f2 <destroy_children+0x172>
    40e5:	8b 45 c8             	mov    -0x38(%ebp),%eax
    40e8:	83 c0 0c             	add    $0xc,%eax
    40eb:	8b 50 04             	mov    0x4(%eax),%edx
    40ee:	89 45 b0             	mov    %eax,-0x50(%ebp)
    40f1:	89 55 c4             	mov    %edx,-0x3c(%ebp)
    40f4:	39 c2                	cmp    %eax,%edx
    40f6:	0f 84 d7 00 00 00    	je     41d3 <destroy_children+0x153>
    40fc:	8b 45 c4             	mov    -0x3c(%ebp),%eax
    40ff:	83 c0 0c             	add    $0xc,%eax
    4102:	8b 48 04             	mov    0x4(%eax),%ecx
    4105:	89 45 ac             	mov    %eax,-0x54(%ebp)
    4108:	89 4d dc             	mov    %ecx,-0x24(%ebp)
    410b:	39 c1                	cmp    %eax,%ecx
    410d:	0f 84 a1 00 00 00    	je     41b4 <destroy_children+0x134>
    4113:	8b 45 dc             	mov    -0x24(%ebp),%eax
    4116:	83 c0 0c             	add    $0xc,%eax
    4119:	8b 48 04             	mov    0x4(%eax),%ecx
    411c:	89 45 d8             	mov    %eax,-0x28(%ebp)
    411f:	89 4d e4             	mov    %ecx,-0x1c(%ebp)
    4122:	39 c1                	cmp    %eax,%ecx
    4124:	74 6f                	je     4195 <destroy_children+0x115>
    4126:	8b 45 e4             	mov    -0x1c(%ebp),%eax
    4129:	83 c0 0c             	add    $0xc,%eax
    412c:	8b 58 04             	mov    0x4(%eax),%ebx
    412f:	89 45 e0             	mov    %eax,-0x20(%ebp)
    4132:	39 c3                	cmp    %eax,%ebx
    4134:	0f 84 1e 01 00 00    	je     4258 <destroy_children+0x1d8>
    413a:	8d b6 00 00 00 00    	lea    0x0(%esi),%esi
    4140:	8b 7b 10             	mov    0x10(%ebx),%edi
    4143:	8d 73 0c             	lea    0xc(%ebx),%esi
    4146:	39 f7                	cmp    %esi,%edi
    4148:	74 1e                	je     4168 <destroy_children+0xe8>
    414a:	8d b6 00 00 00 00    	lea    0x0(%esi),%esi
    4150:	89 f8                	mov    %edi,%eax
    4152:	e8 29 ff ff ff       	call   4080 <destroy_children>
    4157:	83 ec 0c             	sub    $0xc,%esp
    415a:	57                   	push   %edi
    415b:	ff 57 44             	call   *0x44(%edi)
    415e:	8b 7b 10             	mov    0x10(%ebx),%edi
    4161:	83 c4 10             	add    $0x10,%esp
    4164:	39 f7                	cmp    %esi,%edi
    4166:	75 e8                	jne    4150 <destroy_children+0xd0>
    4168:	83 ec 0c             	sub    $0xc,%esp
    416b:	53                   	push   %ebx
    416c:	ff 53 44             	call   *0x44(%ebx)
    416f:	8b 45 e4             	mov    -0x1c(%ebp),%eax
    4172:	83 c4 10             	add    $0x10,%esp
    4175:	8b 58 10             	mov    0x10(%eax),%ebx
    4178:	3b 5d e0             	cmp    -0x20(%ebp),%ebx
    417b:	75 c3                	jne    4140 <destroy_children+0xc0>
    417d:	83 ec 0c             	sub    $0xc,%esp
    4180:	50                   	push   %eax
    4181:	ff 50 44             	call   *0x44(%eax)
    4184:	8b 45 dc             	mov    -0x24(%ebp),%eax
    4187:	83 c4 10             	add    $0x10,%esp
    418a:	8b 40 10             	mov    0x10(%eax),%eax
    418d:	89 45 e4             	mov    %eax,-0x1c(%ebp)
    4190:	3b 45 d8             	cmp    -0x28(%ebp),%eax
    4193:	75 91                	jne    4126 <destroy_children+0xa6>
    4195:	83 ec 0c             	sub    $0xc,%esp
    4198:	8b 45 dc             	mov    -0x24(%ebp),%eax
    419b:	50                   	push   %eax
    419c:	ff 50 44             	call   *0x44(%eax)
    419f:	8b 45 c4             	mov    -0x3c(%ebp),%eax
    41a2:	83 c4 10             	add    $0x10,%esp
    41a5:	8b 40 10             	mov    0x10(%eax),%eax
    41a8:	89 45 dc             	mov    %eax,-0x24(%ebp)
    41ab:	3b 45 ac             	cmp    -0x54(%ebp),%eax
    41ae:	0f 85 5f ff ff ff    	jne    4113 <destroy_children+0x93>
    41b4:	83 ec 0c             	sub    $0xc,%esp
    41b7:	8b 45 c4             	mov    -0x3c(%ebp),%eax
    41ba:	50                   	push   %eax
    41bb:	ff 50 44             	call   *0x44(%eax)
    41be:	8b 45 c8             	mov    -0x38(%ebp),%eax
    41c1:	83 c4 10             	add    $0x10,%esp
    41c4:	8b 40 10             	mov    0x10(%eax),%eax
    41c7:	89 45 c4             	mov    %eax,-0x3c(%ebp)
    41ca:	3b 45 b0             	cmp    -0x50(%ebp),%eax
    41cd:	0f 85 29 ff ff ff    	jne    40fc <destroy_children+0x7c>
    41d3:	83 ec 0c             	sub    $0xc,%esp
    41d6:	8b 45 c8             	mov    -0x38(%ebp),%eax
    41d9:	50                   	push   %eax
    41da:	ff 50 44             	call   *0x44(%eax)
    41dd:	8b 45 cc             	mov    -0x34(%ebp),%eax
    41e0:	83 c4 10             	add    $0x10,%esp
    41e3:	8b 40 10             	mov    0x10(%eax),%eax
    41e6:	89 45 c8             	mov    %eax,-0x38(%ebp)
    41e9:	3b 45 b8             	cmp    -0x48(%ebp),%eax
    41ec:	0f 85 f3 fe ff ff    	jne    40e5 <destroy_children+0x65>
    41f2:	83 ec 0c             	sub    $0xc,%esp
    41f5:	8b 45 cc             	mov    -0x34(%ebp),%eax
    41f8:	50                   	push   %eax
    41f9:	ff 50 44             	call   *0x44(%eax)
    41fc:	8b 45 d0             	mov    -0x30(%ebp),%eax
    41ff:	83 c4 10             	add    $0x10,%esp
    4202:	8b 40 10             	mov    0x10(%eax),%eax
    4205:	89 45 cc             	mov    %eax,-0x34(%ebp)
    4208:	3b 45 b4             	cmp    -0x4c(%ebp),%eax
    420b:	0f 85 bd fe ff ff    	jne    40ce <destroy_children+0x4e>
    4211:	83 ec 0c             	sub    $0xc,%esp
    4214:	8b 45 d0             	mov    -0x30(%ebp),%eax
    4217:	50                   	push   %eax
    4218:	ff 50 44             	call   *0x44(%eax)
    421b:	8b 45 d4             	mov    -0x2c(%ebp),%eax
    421e:	83 c4 10             	add    $0x10,%esp
    4221:	8b 40 10             	mov    0x10(%eax),%eax
    4224:	89 45 d0             	mov    %eax,-0x30(%ebp)
    4227:	3b 45 c0             	cmp    -0x40(%ebp),%eax
    422a:	0f 85 87 fe ff ff    	jne    40b7 <destroy_children+0x37>
    4230:	83 ec 0c             	sub    $0xc,%esp
    4233:	8b 45 d4             	mov    -0x2c(%ebp),%eax
    4236:	50                   	push   %eax
    4237:	ff 50 44             	call   *0x44(%eax)
    423a:	8b 45 a8             	mov    -0x58(%ebp),%eax
    423d:	83 c4 10             	add    $0x10,%esp
    4240:	8b 40 10             	mov    0x10(%eax),%eax
    4243:	89 45 d4             	mov    %eax,-0x2c(%ebp)
    4246:	3b 45 bc             	cmp    -0x44(%ebp),%eax
    4249:	0f 85 51 fe ff ff    	jne    40a0 <destroy_children+0x20>
    424f:	8d 65 f4             	lea    -0xc(%ebp),%esp
    4252:	5b                   	pop    %ebx
    4253:	5e                   	pop    %esi
    4254:	5f                   	pop    %edi
    4255:	5d                   	pop    %ebp
    4256:	c3                   	ret    
    4257:	90                   	nop
    4258:	8b 45 e4             	mov    -0x1c(%ebp),%eax
    425b:	e9 1d ff ff ff       	jmp    417d <destroy_children+0xfd>

00004260 <event_loop>:
    4260:	55                   	push   %ebp
    4261:	89 e5                	mov    %esp,%ebp
    4263:	57                   	push   %edi
    4264:	56                   	push   %esi
    4265:	53                   	push   %ebx
    4266:	83 ec 6c             	sub    $0x6c,%esp
    4269:	8b 45 08             	mov    0x8(%ebp),%eax
    426c:	83 c0 10             	add    $0x10,%eax
    426f:	89 45 a4             	mov    %eax,-0x5c(%ebp)
    4272:	8b 45 08             	mov    0x8(%ebp),%eax
    4275:	83 c0 30             	add    $0x30,%eax
    4278:	89 45 a0             	mov    %eax,-0x60(%ebp)
    427b:	8b 45 08             	mov    0x8(%ebp),%eax
    427e:	05 94 00 00 00       	add    $0x94,%eax
    4283:	89 45 9c             	mov    %eax,-0x64(%ebp)
    4286:	66 90                	xchg   %ax,%ax
    4288:	83 ec 0c             	sub    $0xc,%esp
    428b:	8b 45 a4             	mov    -0x5c(%ebp),%eax
    428e:	50                   	push   %eax
    428f:	e8 fc 50 00 00       	call   9390 <prodcons_consume@plt>
    4294:	83 c4 10             	add    $0x10,%esp
    4297:	89 c3                	mov    %eax,%ebx
    4299:	83 78 08 08          	cmpl   $0x8,0x8(%eax)
    429d:	0f 87 55 02 00 00    	ja     44f8 <event_loop+0x298>
    42a3:	8b 40 08             	mov    0x8(%eax),%eax
    42a6:	ff 24 85 c4 8f 00 00 	jmp    *0x8fc4(,%eax,4)
    42ad:	8d 76 00             	lea    0x0(%esi),%esi
    42b0:	83 ec 0c             	sub    $0xc,%esp
    42b3:	8b 7d 9c             	mov    -0x64(%ebp),%edi
    42b6:	57                   	push   %edi
    42b7:	e8 f4 51 00 00       	call   94b0 <fibril_mutex_lock@plt>
    42bc:	8d 45 b8             	lea    -0x48(%ebp),%eax
    42bf:	89 04 24             	mov    %eax,(%esp)
    42c2:	8d 45 b4             	lea    -0x4c(%ebp),%eax
    42c5:	50                   	push   %eax
    42c6:	8d 45 b0             	lea    -0x50(%ebp),%eax
    42c9:	50                   	push   %eax
    42ca:	8d 45 ac             	lea    -0x54(%ebp),%eax
    42cd:	50                   	push   %eax
    42ce:	8b 45 08             	mov    0x8(%ebp),%eax
    42d1:	8b b0 a4 00 00 00    	mov    0xa4(%eax),%esi
    42d7:	56                   	push   %esi
    42d8:	e8 a3 2e 00 00       	call   7180 <surface_get_damaged_region>
    42dd:	8b 45 08             	mov    0x8(%ebp),%eax
    42e0:	83 c4 14             	add    $0x14,%esp
    42e3:	8b 80 a4 00 00 00    	mov    0xa4(%eax),%eax
    42e9:	50                   	push   %eax
    42ea:	e8 a1 2f 00 00       	call   7290 <surface_reset_damaged_region>
    42ef:	89 3c 24             	mov    %edi,(%esp)
    42f2:	e8 29 50 00 00       	call   9320 <fibril_mutex_unlock@plt>
    42f7:	8b 45 b4             	mov    -0x4c(%ebp),%eax
    42fa:	83 c4 10             	add    $0x10,%esp
    42fd:	85 c0                	test   %eax,%eax
    42ff:	0f 84 f3 01 00 00    	je     44f8 <event_loop+0x298>
    4305:	8b 55 b8             	mov    -0x48(%ebp),%edx
    4308:	85 d2                	test   %edx,%edx
    430a:	0f 84 e8 01 00 00    	je     44f8 <event_loop+0x298>
    4310:	83 ec 0c             	sub    $0xc,%esp
    4313:	52                   	push   %edx
    4314:	50                   	push   %eax
    4315:	8b 45 b0             	mov    -0x50(%ebp),%eax
    4318:	8b 55 ac             	mov    -0x54(%ebp),%edx
    431b:	50                   	push   %eax
    431c:	8b 45 08             	mov    0x8(%ebp),%eax
    431f:	52                   	push   %edx
    4320:	8b 48 0c             	mov    0xc(%eax),%ecx
    4323:	51                   	push   %ecx
    4324:	e8 97 50 00 00       	call   93c0 <win_damage@plt>
    4329:	83 c4 20             	add    $0x20,%esp
    432c:	e9 c7 01 00 00       	jmp    44f8 <event_loop+0x298>
    4331:	8d b4 26 00 00 00 00 	lea    0x0(%esi,%eiz,1),%esi
    4338:	83 ec 0c             	sub    $0xc,%esp
    433b:	8b 45 a0             	mov    -0x60(%ebp),%eax
    433e:	50                   	push   %eax
    433f:	8b 45 08             	mov    0x8(%ebp),%eax
    4342:	ff 90 80 00 00 00    	call   *0x80(%eax)
    4348:	89 1c 24             	mov    %ebx,(%esp)
    434b:	e8 50 51 00 00       	call   94a0 <free@plt>
    4350:	83 c4 10             	add    $0x10,%esp
    4353:	e9 30 ff ff ff       	jmp    4288 <event_loop+0x28>
    4358:	8b 7b 14             	mov    0x14(%ebx),%edi
    435b:	83 ff 2f             	cmp    $0x2f,%edi
    435e:	0f 86 a4 03 00 00    	jbe    4708 <event_loop+0x4a8>
    4364:	8b 73 18             	mov    0x18(%ebx),%esi
    4367:	83 fe 1b             	cmp    $0x1b,%esi
    436a:	0f 86 98 03 00 00    	jbe    4708 <event_loop+0x4a8>
    4370:	8b 43 1c             	mov    0x1c(%ebx),%eax
    4373:	8b 53 10             	mov    0x10(%ebx),%edx
    4376:	8b 4b 0c             	mov    0xc(%ebx),%ecx
    4379:	89 45 94             	mov    %eax,-0x6c(%ebp)
    437c:	6a 01                	push   $0x1
    437e:	89 55 90             	mov    %edx,-0x70(%ebp)
    4381:	6a 00                	push   $0x0
    4383:	89 4d 8c             	mov    %ecx,-0x74(%ebp)
    4386:	56                   	push   %esi
    4387:	57                   	push   %edi
    4388:	e8 63 2c 00 00       	call   6ff0 <surface_create>
    438d:	83 c4 10             	add    $0x10,%esp
    4390:	89 45 88             	mov    %eax,-0x78(%ebp)
    4393:	85 c0                	test   %eax,%eax
    4395:	0f 84 5d 01 00 00    	je     44f8 <event_loop+0x298>
    439b:	83 ec 0c             	sub    $0xc,%esp
    439e:	8b 4d 9c             	mov    -0x64(%ebp),%ecx
    43a1:	51                   	push   %ecx
    43a2:	e8 09 51 00 00       	call   94b0 <fibril_mutex_lock@plt>
    43a7:	8b 45 08             	mov    0x8(%ebp),%eax
    43aa:	8b 55 08             	mov    0x8(%ebp),%edx
    43ad:	8b 80 a4 00 00 00    	mov    0xa4(%eax),%eax
    43b3:	89 45 98             	mov    %eax,-0x68(%ebp)
    43b6:	8b 45 88             	mov    -0x78(%ebp),%eax
    43b9:	89 82 a4 00 00 00    	mov    %eax,0xa4(%edx)
    43bf:	58                   	pop    %eax
    43c0:	8b 45 9c             	mov    -0x64(%ebp),%eax
    43c3:	50                   	push   %eax
    43c4:	e8 57 4f 00 00       	call   9320 <fibril_mutex_unlock@plt>
    43c9:	8b 45 a0             	mov    -0x60(%ebp),%eax
    43cc:	8b 55 08             	mov    0x8(%ebp),%edx
    43cf:	89 34 24             	mov    %esi,(%esp)
    43d2:	57                   	push   %edi
    43d3:	6a 00                	push   $0x0
    43d5:	6a 00                	push   $0x0
    43d7:	50                   	push   %eax
    43d8:	ff 52 7c             	call   *0x7c(%edx)
    43db:	83 c4 14             	add    $0x14,%esp
    43de:	8b 45 9c             	mov    -0x64(%ebp),%eax
    43e1:	50                   	push   %eax
    43e2:	e8 c9 50 00 00       	call   94b0 <fibril_mutex_lock@plt>
    43e7:	8b 55 08             	mov    0x8(%ebp),%edx
    43ea:	58                   	pop    %eax
    43eb:	8b 82 a4 00 00 00    	mov    0xa4(%edx),%eax
    43f1:	50                   	push   %eax
    43f2:	e8 99 2e 00 00       	call   7290 <surface_reset_damaged_region>
    43f7:	8b 4d 9c             	mov    -0x64(%ebp),%ecx
    43fa:	5a                   	pop    %edx
    43fb:	51                   	push   %ecx
    43fc:	e8 1f 4f 00 00       	call   9320 <fibril_mutex_unlock@plt>
    4401:	8b 45 88             	mov    -0x78(%ebp),%eax
    4404:	89 04 24             	mov    %eax,(%esp)
    4407:	e8 04 2d 00 00       	call   7110 <surface_direct_access>
    440c:	83 c4 0c             	add    $0xc,%esp
    440f:	50                   	push   %eax
    4410:	8b 45 94             	mov    -0x6c(%ebp),%eax
    4413:	50                   	push   %eax
    4414:	8b 45 90             	mov    -0x70(%ebp),%eax
    4417:	56                   	push   %esi
    4418:	8b 75 08             	mov    0x8(%ebp),%esi
    441b:	57                   	push   %edi
    441c:	50                   	push   %eax
    441d:	8b 45 8c             	mov    -0x74(%ebp),%eax
    4420:	50                   	push   %eax
    4421:	8b 46 0c             	mov    0xc(%esi),%eax
    4424:	50                   	push   %eax
    4425:	e8 c6 4e 00 00       	call   92f0 <win_resize@plt>
    442a:	83 c4 20             	add    $0x20,%esp
    442d:	85 c0                	test   %eax,%eax
    442f:	0f 84 2b 03 00 00    	je     4760 <event_loop+0x500>
    4435:	8b 7d 98             	mov    -0x68(%ebp),%edi
    4438:	c7 45 b4 00 00 00 00 	movl   $0x0,-0x4c(%ebp)
    443f:	c7 45 b8 00 00 00 00 	movl   $0x0,-0x48(%ebp)
    4446:	85 ff                	test   %edi,%edi
    4448:	74 12                	je     445c <event_loop+0x1fc>
    444a:	8d 45 b8             	lea    -0x48(%ebp),%eax
    444d:	52                   	push   %edx
    444e:	50                   	push   %eax
    444f:	8d 45 b4             	lea    -0x4c(%ebp),%eax
    4452:	50                   	push   %eax
    4453:	57                   	push   %edi
    4454:	e8 d7 2c 00 00       	call   7130 <surface_get_resolution>
    4459:	83 c4 10             	add    $0x10,%esp
    445c:	83 ec 0c             	sub    $0xc,%esp
    445f:	8b 7d 9c             	mov    -0x64(%ebp),%edi
    4462:	57                   	push   %edi
    4463:	e8 48 50 00 00       	call   94b0 <fibril_mutex_lock@plt>
    4468:	8b 45 08             	mov    0x8(%ebp),%eax
    446b:	8b 55 98             	mov    -0x68(%ebp),%edx
    446e:	8b b0 a4 00 00 00    	mov    0xa4(%eax),%esi
    4474:	89 90 a4 00 00 00    	mov    %edx,0xa4(%eax)
    447a:	89 3c 24             	mov    %edi,(%esp)
    447d:	e8 9e 4e 00 00       	call   9320 <fibril_mutex_unlock@plt>
    4482:	58                   	pop    %eax
    4483:	8b 45 b8             	mov    -0x48(%ebp),%eax
    4486:	50                   	push   %eax
    4487:	8b 45 b4             	mov    -0x4c(%ebp),%eax
    448a:	50                   	push   %eax
    448b:	8b 45 a0             	mov    -0x60(%ebp),%eax
    448e:	6a 00                	push   $0x0
    4490:	6a 00                	push   $0x0
    4492:	50                   	push   %eax
    4493:	8b 45 08             	mov    0x8(%ebp),%eax
    4496:	ff 50 7c             	call   *0x7c(%eax)
    4499:	8b 45 08             	mov    0x8(%ebp),%eax
    449c:	8b 80 a4 00 00 00    	mov    0xa4(%eax),%eax
    44a2:	83 c4 20             	add    $0x20,%esp
    44a5:	85 c0                	test   %eax,%eax
    44a7:	74 24                	je     44cd <event_loop+0x26d>
    44a9:	83 ec 0c             	sub    $0xc,%esp
    44ac:	57                   	push   %edi
    44ad:	e8 fe 4f 00 00       	call   94b0 <fibril_mutex_lock@plt>
    44b2:	8b 45 08             	mov    0x8(%ebp),%eax
    44b5:	59                   	pop    %ecx
    44b6:	8b 80 a4 00 00 00    	mov    0xa4(%eax),%eax
    44bc:	50                   	push   %eax
    44bd:	e8 ce 2d 00 00       	call   7290 <surface_reset_damaged_region>
    44c2:	89 3c 24             	mov    %edi,(%esp)
    44c5:	e8 56 4e 00 00       	call   9320 <fibril_mutex_unlock@plt>
    44ca:	83 c4 10             	add    $0x10,%esp
    44cd:	83 ec 0c             	sub    $0xc,%esp
    44d0:	56                   	push   %esi
    44d1:	e8 ea 2b 00 00       	call   70c0 <surface_destroy>
    44d6:	89 1c 24             	mov    %ebx,(%esp)
    44d9:	e8 c2 4f 00 00       	call   94a0 <free@plt>
    44de:	83 c4 10             	add    $0x10,%esp
    44e1:	e9 a2 fd ff ff       	jmp    4288 <event_loop+0x28>
    44e6:	66 90                	xchg   %ax,%ax
    44e8:	8b 45 08             	mov    0x8(%ebp),%eax
    44eb:	80 78 02 00          	cmpb   $0x0,0x2(%eax)
    44ef:	0f 85 3b 02 00 00    	jne    4730 <event_loop+0x4d0>
    44f5:	8d 76 00             	lea    0x0(%esi),%esi
    44f8:	83 ec 0c             	sub    $0xc,%esp
    44fb:	53                   	push   %ebx
    44fc:	e8 9f 4f 00 00       	call   94a0 <free@plt>
    4501:	83 c4 10             	add    $0x10,%esp
    4504:	e9 7f fd ff ff       	jmp    4288 <event_loop+0x28>
    4509:	8d b4 26 00 00 00 00 	lea    0x0(%esi,%eiz,1),%esi
    4510:	8b 45 08             	mov    0x8(%ebp),%eax
    4513:	80 78 02 00          	cmpb   $0x0,0x2(%eax)
    4517:	75 df                	jne    44f8 <event_loop+0x298>
    4519:	c6 40 02 01          	movb   $0x1,0x2(%eax)
    451d:	83 ec 0c             	sub    $0xc,%esp
    4520:	8b 55 a0             	mov    -0x60(%ebp),%edx
    4523:	52                   	push   %edx
    4524:	ff 90 80 00 00 00    	call   *0x80(%eax)
    452a:	89 1c 24             	mov    %ebx,(%esp)
    452d:	e8 6e 4f 00 00       	call   94a0 <free@plt>
    4532:	83 c4 10             	add    $0x10,%esp
    4535:	e9 4e fd ff ff       	jmp    4288 <event_loop+0x28>
    453a:	8d b6 00 00 00 00    	lea    0x0(%esi),%esi
    4540:	8b 73 14             	mov    0x14(%ebx),%esi
    4543:	50                   	push   %eax
    4544:	50                   	push   %eax
    4545:	56                   	push   %esi
    4546:	8b 53 0c             	mov    0xc(%ebx),%edx
    4549:	52                   	push   %edx
    454a:	ff 53 10             	call   *0x10(%ebx)
    454d:	89 34 24             	mov    %esi,(%esp)
    4550:	e8 4b 4f 00 00       	call   94a0 <free@plt>
    4555:	89 1c 24             	mov    %ebx,(%esp)
    4558:	e8 43 4f 00 00       	call   94a0 <free@plt>
    455d:	83 c4 10             	add    $0x10,%esp
    4560:	e9 23 fd ff ff       	jmp    4288 <event_loop+0x28>
    4565:	8d 76 00             	lea    0x0(%esi),%esi
    4568:	8b 45 08             	mov    0x8(%ebp),%eax
    456b:	80 78 02 00          	cmpb   $0x0,0x2(%eax)
    456f:	0f 84 cb 01 00 00    	je     4740 <event_loop+0x4e0>
    4575:	8b 43 14             	mov    0x14(%ebx),%eax
    4578:	8b 53 0c             	mov    0xc(%ebx),%edx
    457b:	89 45 98             	mov    %eax,-0x68(%ebp)
    457e:	89 45 c4             	mov    %eax,-0x3c(%ebp)
    4581:	8b 45 08             	mov    0x8(%ebp),%eax
    4584:	8b 4b 10             	mov    0x10(%ebx),%ecx
    4587:	8b 73 18             	mov    0x18(%ebx),%esi
    458a:	8b 7b 1c             	mov    0x1c(%ebx),%edi
    458d:	8b 80 8c 00 00 00    	mov    0x8c(%eax),%eax
    4593:	89 55 bc             	mov    %edx,-0x44(%ebp)
    4596:	89 4d c0             	mov    %ecx,-0x40(%ebp)
    4599:	89 75 c8             	mov    %esi,-0x38(%ebp)
    459c:	89 7d cc             	mov    %edi,-0x34(%ebp)
    459f:	85 c0                	test   %eax,%eax
    45a1:	0f 84 11 02 00 00    	je     47b8 <event_loop+0x558>
    45a7:	83 ec 08             	sub    $0x8,%esp
    45aa:	57                   	push   %edi
    45ab:	56                   	push   %esi
    45ac:	8b 75 98             	mov    -0x68(%ebp),%esi
    45af:	56                   	push   %esi
    45b0:	51                   	push   %ecx
    45b1:	52                   	push   %edx
    45b2:	50                   	push   %eax
    45b3:	ff 50 58             	call   *0x58(%eax)
    45b6:	83 c4 14             	add    $0x14,%esp
    45b9:	53                   	push   %ebx
    45ba:	e8 e1 4e 00 00       	call   94a0 <free@plt>
    45bf:	83 c4 10             	add    $0x10,%esp
    45c2:	e9 c1 fc ff ff       	jmp    4288 <event_loop+0x28>
    45c7:	90                   	nop
    45c8:	8b 45 08             	mov    0x8(%ebp),%eax
    45cb:	8b 75 a0             	mov    -0x60(%ebp),%esi
    45ce:	0f b6 38             	movzbl (%eax),%edi
    45d1:	89 f0                	mov    %esi,%eax
    45d3:	e8 a8 fa ff ff       	call   4080 <destroy_children>
    45d8:	83 ec 0c             	sub    $0xc,%esp
    45db:	8b 45 08             	mov    0x8(%ebp),%eax
    45de:	56                   	push   %esi
    45df:	ff 50 74             	call   *0x74(%eax)
    45e2:	8b 45 08             	mov    0x8(%ebp),%eax
    45e5:	c7 80 8c 00 00 00 00 	movl   $0x0,0x8c(%eax)
    45ec:	00 00 00 
    45ef:	c7 80 90 00 00 00 00 	movl   $0x0,0x90(%eax)
    45f6:	00 00 00 
    45f9:	8b 40 0c             	mov    0xc(%eax),%eax
    45fc:	5e                   	pop    %esi
    45fd:	50                   	push   %eax
    45fe:	e8 ed 4d 00 00       	call   93f0 <win_close@plt>
    4603:	58                   	pop    %eax
    4604:	8b 45 08             	mov    0x8(%ebp),%eax
    4607:	8b 40 08             	mov    0x8(%eax),%eax
    460a:	50                   	push   %eax
    460b:	e8 50 4c 00 00       	call   9260 <async_hangup@plt>
    4610:	58                   	pop    %eax
    4611:	8b 45 08             	mov    0x8(%ebp),%eax
    4614:	8b 40 0c             	mov    0xc(%eax),%eax
    4617:	50                   	push   %eax
    4618:	e8 43 4c 00 00       	call   9260 <async_hangup@plt>
    461d:	8b 45 08             	mov    0x8(%ebp),%eax
    4620:	8b 75 08             	mov    0x8(%ebp),%esi
    4623:	83 c6 28             	add    $0x28,%esi
    4626:	83 c4 10             	add    $0x10,%esp
    4629:	8b 40 2c             	mov    0x2c(%eax),%eax
    462c:	39 c6                	cmp    %eax,%esi
