Archive member included to satisfy reference by file (symbol)

../../lib/gui/libgui.a(button.o)
                              vlaunch.o (create_button)
../../lib/gui/libgui.a(canvas.o)
                              vlaunch.o (create_canvas)
../../lib/gui/libgui.a(connection.o)
                              vlaunch.o (sig_connect)
../../lib/gui/libgui.a(grid.o)
                              vlaunch.o (create_grid)
../../lib/gui/libgui.a(label.o)
                              vlaunch.o (create_label)
../../lib/gui/libgui.a(widget.o)
                              ../../lib/gui/libgui.a(button.o) (widget_init)
../../lib/gui/libgui.a(window.o)
                              vlaunch.o (window_open)
../../lib/gui/libgui.a(common.o)
                              ../../lib/gui/libgui.a(window.o) (draw_icon_cross)
../../lib/draw/libdraw.a(tga.o)
                              vlaunch.o (decode_tga)
../../lib/draw/libdraw.a(embedded.o)
                              ../../lib/gui/libgui.a(button.o) (embedded_font_create)
../../lib/draw/libdraw.a(bitmap_backend.o)
                              ../../lib/draw/libdraw.a(embedded.o) (bitmap_font_create)
../../lib/draw/libdraw.a(font-8x16.o)
                              ../../lib/draw/libdraw.a(embedded.o) (fb_font_glyph)
../../lib/draw/libdraw.a(drawctx.o)
                              ../../lib/gui/libgui.a(button.o) (drawctx_init)
../../lib/draw/libdraw.a(font.o)
                              ../../lib/draw/libdraw.a(bitmap_backend.o) (font_create)
../../lib/draw/libdraw.a(source.o)
                              ../../lib/gui/libgui.a(button.o) (source_init)
../../lib/draw/libdraw.a(surface.o)
                              ../../lib/gui/libgui.a(window.o) (surface_create)
../../lib/softrend/libsoftrend.a(compose.o)
                              ../../lib/draw/libdraw.a(drawctx.o) (compose_src)
../../lib/softrend/libsoftrend.a(filter.o)
                              ../../lib/draw/libdraw.a(source.o) (filter_nearest)
../../lib/softrend/libsoftrend.a(pixconv.o)
                              ../../lib/draw/libdraw.a(tga.o) (bgr_888_2pixel)
../../lib/softrend/libsoftrend.a(transform.o)
                              ../../lib/draw/libdraw.a(source.o) (transform_invert)

Discarded input sections

 .debug_line    0x0000000000000000       0x53 /home/ayyuce/Desktop/HlnOS/HelenOS/uspace/lib/c/arch/ia32/src/entry.o
 .debug_info    0x0000000000000000       0x6c /home/ayyuce/Desktop/HlnOS/HelenOS/uspace/lib/c/arch/ia32/src/entry.o
 .debug_abbrev  0x0000000000000000       0x14 /home/ayyuce/Desktop/HlnOS/HelenOS/uspace/lib/c/arch/ia32/src/entry.o
 .debug_aranges
                0x0000000000000000       0x20 /home/ayyuce/Desktop/HlnOS/HelenOS/uspace/lib/c/arch/ia32/src/entry.o
 .debug_info    0x0000000000000000     0x1862 vlaunch.o
 .debug_abbrev  0x0000000000000000      0x255 vlaunch.o
 .debug_loc     0x0000000000000000      0x234 vlaunch.o
 .debug_aranges
                0x0000000000000000       0x28 vlaunch.o
 .debug_ranges  0x0000000000000000       0x60 vlaunch.o
 .debug_line    0x0000000000000000      0x449 vlaunch.o
 .debug_str     0x0000000000000000     0x1431 vlaunch.o
 .comment       0x0000000000000000       0x12 vlaunch.o
 .note.GNU-stack
                0x0000000000000000        0x0 vlaunch.o
 .eh_frame      0x0000000000000000       0x8c vlaunch.o
 .debug_info    0x0000000000000000       0xba images.o
 .debug_abbrev  0x0000000000000000       0x6c images.o
 .debug_aranges
                0x0000000000000000       0x18 images.o
 .debug_line    0x0000000000000000       0x73 images.o
 .debug_str     0x0000000000000000      0x1ad images.o
 .comment       0x0000000000000000       0x12 images.o
 .note.GNU-stack
                0x0000000000000000        0x0 images.o
 .debug_info    0x0000000000000000     0x1829 ../../lib/gui/libgui.a(button.o)
 .debug_abbrev  0x0000000000000000      0x2a9 ../../lib/gui/libgui.a(button.o)
 .debug_loc     0x0000000000000000      0x30c ../../lib/gui/libgui.a(button.o)
 .debug_aranges
                0x0000000000000000       0x20 ../../lib/gui/libgui.a(button.o)
 .debug_ranges  0x0000000000000000       0x58 ../../lib/gui/libgui.a(button.o)
 .debug_line    0x0000000000000000      0x3f1 ../../lib/gui/libgui.a(button.o)
 .debug_str     0x0000000000000000     0x10f4 ../../lib/gui/libgui.a(button.o)
 .comment       0x0000000000000000       0x12 ../../lib/gui/libgui.a(button.o)
 .note.GNU-stack
                0x0000000000000000        0x0 ../../lib/gui/libgui.a(button.o)
 .eh_frame      0x0000000000000000      0x1b0 ../../lib/gui/libgui.a(button.o)
 .debug_info    0x0000000000000000     0x161f ../../lib/gui/libgui.a(canvas.o)
 .debug_abbrev  0x0000000000000000      0x285 ../../lib/gui/libgui.a(canvas.o)
 .debug_loc     0x0000000000000000      0x1f9 ../../lib/gui/libgui.a(canvas.o)
 .debug_aranges
                0x0000000000000000       0x20 ../../lib/gui/libgui.a(canvas.o)
 .debug_ranges  0x0000000000000000       0x30 ../../lib/gui/libgui.a(canvas.o)
 .debug_line    0x0000000000000000      0x341 ../../lib/gui/libgui.a(canvas.o)
 .debug_str     0x0000000000000000     0x109f ../../lib/gui/libgui.a(canvas.o)
 .comment       0x0000000000000000       0x12 ../../lib/gui/libgui.a(canvas.o)
 .note.GNU-stack
                0x0000000000000000        0x0 ../../lib/gui/libgui.a(canvas.o)
 .eh_frame      0x0000000000000000      0x1b8 ../../lib/gui/libgui.a(canvas.o)
 .debug_info    0x0000000000000000     0x14db ../../lib/gui/libgui.a(connection.o)
 .debug_abbrev  0x0000000000000000      0x290 ../../lib/gui/libgui.a(connection.o)
 .debug_loc     0x0000000000000000      0x654 ../../lib/gui/libgui.a(connection.o)
 .debug_aranges
                0x0000000000000000       0x20 ../../lib/gui/libgui.a(connection.o)
 .debug_ranges  0x0000000000000000       0xe8 ../../lib/gui/libgui.a(connection.o)
 .debug_line    0x0000000000000000      0x39f ../../lib/gui/libgui.a(connection.o)
 .debug_str     0x0000000000000000     0x113f ../../lib/gui/libgui.a(connection.o)
 .comment       0x0000000000000000       0x12 ../../lib/gui/libgui.a(connection.o)
 .note.GNU-stack
                0x0000000000000000        0x0 ../../lib/gui/libgui.a(connection.o)
 .eh_frame      0x0000000000000000       0xd8 ../../lib/gui/libgui.a(connection.o)
 .debug_info    0x0000000000000000     0x1afc ../../lib/gui/libgui.a(grid.o)
 .debug_abbrev  0x0000000000000000      0x3b8 ../../lib/gui/libgui.a(grid.o)
 .debug_loc     0x0000000000000000      0xf29 ../../lib/gui/libgui.a(grid.o)
 .debug_aranges
                0x0000000000000000       0x20 ../../lib/gui/libgui.a(grid.o)
 .debug_ranges  0x0000000000000000      0x3f0 ../../lib/gui/libgui.a(grid.o)
 .debug_line    0x0000000000000000      0x4fc ../../lib/gui/libgui.a(grid.o)
 .debug_str     0x0000000000000000      0xf31 ../../lib/gui/libgui.a(grid.o)
 .comment       0x0000000000000000       0x12 ../../lib/gui/libgui.a(grid.o)
 .note.GNU-stack
                0x0000000000000000        0x0 ../../lib/gui/libgui.a(grid.o)
 .eh_frame      0x0000000000000000      0x1f0 ../../lib/gui/libgui.a(grid.o)
 .debug_info    0x0000000000000000     0x17a1 ../../lib/gui/libgui.a(label.o)
 .debug_abbrev  0x0000000000000000      0x2b6 ../../lib/gui/libgui.a(label.o)
 .debug_loc     0x0000000000000000      0x2a4 ../../lib/gui/libgui.a(label.o)
 .debug_aranges
                0x0000000000000000       0x20 ../../lib/gui/libgui.a(label.o)
 .debug_ranges  0x0000000000000000       0x58 ../../lib/gui/libgui.a(label.o)
 .debug_line    0x0000000000000000      0x3b5 ../../lib/gui/libgui.a(label.o)
 .debug_str     0x0000000000000000     0x10d0 ../../lib/gui/libgui.a(label.o)
 .comment       0x0000000000000000       0x12 ../../lib/gui/libgui.a(label.o)
 .note.GNU-stack
                0x0000000000000000        0x0 ../../lib/gui/libgui.a(label.o)
 .eh_frame      0x0000000000000000      0x1c4 ../../lib/gui/libgui.a(label.o)
 .debug_info    0x0000000000000000      0xa8e ../../lib/gui/libgui.a(widget.o)
 .debug_abbrev  0x0000000000000000      0x1ad ../../lib/gui/libgui.a(widget.o)
 .debug_loc     0x0000000000000000       0xf2 ../../lib/gui/libgui.a(widget.o)
 .debug_aranges
                0x0000000000000000       0x20 ../../lib/gui/libgui.a(widget.o)
 .debug_ranges  0x0000000000000000       0x30 ../../lib/gui/libgui.a(widget.o)
 .debug_line    0x0000000000000000      0x1dd ../../lib/gui/libgui.a(widget.o)
 .debug_str     0x0000000000000000      0xba1 ../../lib/gui/libgui.a(widget.o)
 .comment       0x0000000000000000       0x12 ../../lib/gui/libgui.a(widget.o)
 .note.GNU-stack
                0x0000000000000000        0x0 ../../lib/gui/libgui.a(widget.o)
 .eh_frame      0x0000000000000000       0x9c ../../lib/gui/libgui.a(widget.o)
 .debug_info    0x0000000000000000     0x2cea ../../lib/gui/libgui.a(window.o)
 .debug_abbrev  0x0000000000000000      0x4e4 ../../lib/gui/libgui.a(window.o)
 .debug_loc     0x0000000000000000     0x16d8 ../../lib/gui/libgui.a(window.o)
 .debug_aranges
                0x0000000000000000       0x20 ../../lib/gui/libgui.a(window.o)
 .debug_ranges  0x0000000000000000      0x2d8 ../../lib/gui/libgui.a(window.o)
 .debug_line    0x0000000000000000      0x832 ../../lib/gui/libgui.a(window.o)
 .debug_str     0x0000000000000000     0x1ca3 ../../lib/gui/libgui.a(window.o)
 .comment       0x0000000000000000       0x12 ../../lib/gui/libgui.a(window.o)
 .note.GNU-stack
                0x0000000000000000        0x0 ../../lib/gui/libgui.a(window.o)
 .eh_frame      0x0000000000000000      0x3cc ../../lib/gui/libgui.a(window.o)
 .debug_info    0x0000000000000000      0x764 ../../lib/gui/libgui.a(common.o)
 .debug_abbrev  0x0000000000000000      0x156 ../../lib/gui/libgui.a(common.o)
 .debug_loc     0x0000000000000000      0x6a8 ../../lib/gui/libgui.a(common.o)
 .debug_aranges
                0x0000000000000000       0x20 ../../lib/gui/libgui.a(common.o)
 .debug_ranges  0x0000000000000000       0x58 ../../lib/gui/libgui.a(common.o)
 .debug_line    0x0000000000000000      0x19c ../../lib/gui/libgui.a(common.o)
 .debug_str     0x0000000000000000      0x4d0 ../../lib/gui/libgui.a(common.o)
 .comment       0x0000000000000000       0x12 ../../lib/gui/libgui.a(common.o)
 .note.GNU-stack
                0x0000000000000000        0x0 ../../lib/gui/libgui.a(common.o)
 .eh_frame      0x0000000000000000       0x74 ../../lib/gui/libgui.a(common.o)
 .debug_info    0x0000000000000000      0x544 ../../lib/draw/libdraw.a(tga.o)
 .debug_abbrev  0x0000000000000000      0x18a ../../lib/draw/libdraw.a(tga.o)
 .debug_loc     0x0000000000000000      0x302 ../../lib/draw/libdraw.a(tga.o)
 .debug_aranges
                0x0000000000000000       0x20 ../../lib/draw/libdraw.a(tga.o)
 .debug_ranges  0x0000000000000000       0x60 ../../lib/draw/libdraw.a(tga.o)
 .debug_line    0x0000000000000000      0x188 ../../lib/draw/libdraw.a(tga.o)
 .debug_str     0x0000000000000000      0x415 ../../lib/draw/libdraw.a(tga.o)
 .comment       0x0000000000000000       0x12 ../../lib/draw/libdraw.a(tga.o)
 .note.GNU-stack
                0x0000000000000000        0x0 ../../lib/draw/libdraw.a(tga.o)
 .eh_frame      0x0000000000000000       0x68 ../../lib/draw/libdraw.a(tga.o)
 .debug_info    0x0000000000000000      0x7d9 ../../lib/draw/libdraw.a(embedded.o)
 .debug_abbrev  0x0000000000000000      0x1c2 ../../lib/draw/libdraw.a(embedded.o)
 .debug_loc     0x0000000000000000       0xdd ../../lib/draw/libdraw.a(embedded.o)
 .debug_aranges
                0x0000000000000000       0x20 ../../lib/draw/libdraw.a(embedded.o)
 .debug_ranges  0x0000000000000000       0x18 ../../lib/draw/libdraw.a(embedded.o)
 .debug_line    0x0000000000000000      0x1a8 ../../lib/draw/libdraw.a(embedded.o)
 .debug_str     0x0000000000000000      0x571 ../../lib/draw/libdraw.a(embedded.o)
 .comment       0x0000000000000000       0x12 ../../lib/draw/libdraw.a(embedded.o)
 .note.GNU-stack
                0x0000000000000000        0x0 ../../lib/draw/libdraw.a(embedded.o)
 .eh_frame      0x0000000000000000       0xd0 ../../lib/draw/libdraw.a(embedded.o)
 .debug_info    0x0000000000000000      0xcc6 ../../lib/draw/libdraw.a(bitmap_backend.o)
 .debug_abbrev  0x0000000000000000      0x283 ../../lib/draw/libdraw.a(bitmap_backend.o)
 .debug_loc     0x0000000000000000      0x4e4 ../../lib/draw/libdraw.a(bitmap_backend.o)
 .debug_aranges
                0x0000000000000000       0x20 ../../lib/draw/libdraw.a(bitmap_backend.o)
 .debug_ranges  0x0000000000000000       0x50 ../../lib/draw/libdraw.a(bitmap_backend.o)
 .debug_line    0x0000000000000000      0x2bd ../../lib/draw/libdraw.a(bitmap_backend.o)
 .debug_str     0x0000000000000000      0x740 ../../lib/draw/libdraw.a(bitmap_backend.o)
 .comment       0x0000000000000000       0x12 ../../lib/draw/libdraw.a(bitmap_backend.o)
 .note.GNU-stack
                0x0000000000000000        0x0 ../../lib/draw/libdraw.a(bitmap_backend.o)
 .eh_frame      0x0000000000000000      0x120 ../../lib/draw/libdraw.a(bitmap_backend.o)
 .debug_info    0x0000000000000000       0xfb ../../lib/draw/libdraw.a(font-8x16.o)
 .debug_abbrev  0x0000000000000000       0xba ../../lib/draw/libdraw.a(font-8x16.o)
 .debug_loc     0x0000000000000000       0x3e ../../lib/draw/libdraw.a(font-8x16.o)
 .debug_aranges
                0x0000000000000000       0x20 ../../lib/draw/libdraw.a(font-8x16.o)
 .debug_line    0x0000000000000000      0x34e ../../lib/draw/libdraw.a(font-8x16.o)
 .debug_str     0x0000000000000000      0x1b8 ../../lib/draw/libdraw.a(font-8x16.o)
 .comment       0x0000000000000000       0x12 ../../lib/draw/libdraw.a(font-8x16.o)
 .note.GNU-stack
                0x0000000000000000        0x0 ../../lib/draw/libdraw.a(font-8x16.o)
 .eh_frame      0x0000000000000000      0x298 ../../lib/draw/libdraw.a(font-8x16.o)
 .debug_info    0x0000000000000000      0xcd2 ../../lib/draw/libdraw.a(drawctx.o)
 .debug_abbrev  0x0000000000000000      0x271 ../../lib/draw/libdraw.a(drawctx.o)
 .debug_loc     0x0000000000000000      0x3f1 ../../lib/draw/libdraw.a(drawctx.o)
 .debug_aranges
                0x0000000000000000       0x20 ../../lib/draw/libdraw.a(drawctx.o)
 .debug_ranges  0x0000000000000000      0x120 ../../lib/draw/libdraw.a(drawctx.o)
 .debug_line    0x0000000000000000      0x2f6 ../../lib/draw/libdraw.a(drawctx.o)
 .debug_str     0x0000000000000000      0x715 ../../lib/draw/libdraw.a(drawctx.o)
 .comment       0x0000000000000000       0x12 ../../lib/draw/libdraw.a(drawctx.o)
 .note.GNU-stack
                0x0000000000000000        0x0 ../../lib/draw/libdraw.a(drawctx.o)
 .eh_frame      0x0000000000000000      0x1d8 ../../lib/draw/libdraw.a(drawctx.o)
 .debug_info    0x0000000000000000      0xbf0 ../../lib/draw/libdraw.a(font.o)
 .debug_abbrev  0x0000000000000000      0x281 ../../lib/draw/libdraw.a(font.o)
 .debug_loc     0x0000000000000000      0x46a ../../lib/draw/libdraw.a(font.o)
 .debug_aranges
                0x0000000000000000       0x20 ../../lib/draw/libdraw.a(font.o)
 .debug_ranges  0x0000000000000000       0xd0 ../../lib/draw/libdraw.a(font.o)
 .debug_line    0x0000000000000000      0x243 ../../lib/draw/libdraw.a(font.o)
 .debug_str     0x0000000000000000      0x56d ../../lib/draw/libdraw.a(font.o)
 .comment       0x0000000000000000       0x12 ../../lib/draw/libdraw.a(font.o)
 .note.GNU-stack
                0x0000000000000000        0x0 ../../lib/draw/libdraw.a(font.o)
 .eh_frame      0x0000000000000000      0x154 ../../lib/draw/libdraw.a(font.o)
 .debug_info    0x0000000000000000      0x62b ../../lib/draw/libdraw.a(source.o)
 .debug_abbrev  0x0000000000000000      0x217 ../../lib/draw/libdraw.a(source.o)
 .debug_loc     0x0000000000000000      0x22f ../../lib/draw/libdraw.a(source.o)
 .debug_aranges
                0x0000000000000000       0x20 ../../lib/draw/libdraw.a(source.o)
 .debug_ranges  0x0000000000000000       0x58 ../../lib/draw/libdraw.a(source.o)
 .debug_line    0x0000000000000000      0x1b7 ../../lib/draw/libdraw.a(source.o)
 .debug_str     0x0000000000000000      0x457 ../../lib/draw/libdraw.a(source.o)
 .comment       0x0000000000000000       0x12 ../../lib/draw/libdraw.a(source.o)
 .note.GNU-stack
                0x0000000000000000        0x0 ../../lib/draw/libdraw.a(source.o)
 .eh_frame      0x0000000000000000      0x1c8 ../../lib/draw/libdraw.a(source.o)
 .debug_info    0x0000000000000000      0x712 ../../lib/draw/libdraw.a(surface.o)
 .debug_abbrev  0x0000000000000000      0x21c ../../lib/draw/libdraw.a(surface.o)
 .debug_loc     0x0000000000000000      0x32f ../../lib/draw/libdraw.a(surface.o)
 .debug_aranges
                0x0000000000000000       0x20 ../../lib/draw/libdraw.a(surface.o)
 .debug_ranges  0x0000000000000000       0x30 ../../lib/draw/libdraw.a(surface.o)
 .debug_line    0x0000000000000000      0x1eb ../../lib/draw/libdraw.a(surface.o)
 .debug_str     0x0000000000000000      0x3ee ../../lib/draw/libdraw.a(surface.o)
 .comment       0x0000000000000000       0x12 ../../lib/draw/libdraw.a(surface.o)
 .note.GNU-stack
                0x0000000000000000        0x0 ../../lib/draw/libdraw.a(surface.o)
 .eh_frame      0x0000000000000000      0x1bc ../../lib/draw/libdraw.a(surface.o)
 .debug_info    0x0000000000000000      0x277 ../../lib/softrend/libsoftrend.a(compose.o)
 .debug_abbrev  0x0000000000000000       0xce ../../lib/softrend/libsoftrend.a(compose.o)
 .debug_loc     0x0000000000000000      0x3d6 ../../lib/softrend/libsoftrend.a(compose.o)
 .debug_aranges
                0x0000000000000000       0x20 ../../lib/softrend/libsoftrend.a(compose.o)
 .debug_line    0x0000000000000000       0xc0 ../../lib/softrend/libsoftrend.a(compose.o)
 .debug_str     0x0000000000000000      0x218 ../../lib/softrend/libsoftrend.a(compose.o)
 .comment       0x0000000000000000       0x12 ../../lib/softrend/libsoftrend.a(compose.o)
 .note.GNU-stack
                0x0000000000000000        0x0 ../../lib/softrend/libsoftrend.a(compose.o)
 .eh_frame      0x0000000000000000      0x144 ../../lib/softrend/libsoftrend.a(compose.o)
 .debug_info    0x0000000000000000      0xabb ../../lib/softrend/libsoftrend.a(filter.o)
 .debug_abbrev  0x0000000000000000      0x1b4 ../../lib/softrend/libsoftrend.a(filter.o)
 .debug_loc     0x0000000000000000     0x164e ../../lib/softrend/libsoftrend.a(filter.o)
 .debug_aranges
                0x0000000000000000       0x20 ../../lib/softrend/libsoftrend.a(filter.o)
 .debug_ranges  0x0000000000000000      0x460 ../../lib/softrend/libsoftrend.a(filter.o)
 .debug_line    0x0000000000000000      0x396 ../../lib/softrend/libsoftrend.a(filter.o)
 .debug_str     0x0000000000000000      0x386 ../../lib/softrend/libsoftrend.a(filter.o)
 .comment       0x0000000000000000       0x12 ../../lib/softrend/libsoftrend.a(filter.o)
 .note.GNU-stack
                0x0000000000000000        0x0 ../../lib/softrend/libsoftrend.a(filter.o)
 .eh_frame      0x0000000000000000       0xb8 ../../lib/softrend/libsoftrend.a(filter.o)
 .debug_info    0x0000000000000000      0xc08 ../../lib/softrend/libsoftrend.a(pixconv.o)
 .debug_abbrev  0x0000000000000000      0x1c5 ../../lib/softrend/libsoftrend.a(pixconv.o)
 .debug_loc     0x0000000000000000      0x159 ../../lib/softrend/libsoftrend.a(pixconv.o)
 .debug_aranges
                0x0000000000000000       0x20 ../../lib/softrend/libsoftrend.a(pixconv.o)
 .debug_ranges  0x0000000000000000       0x20 ../../lib/softrend/libsoftrend.a(pixconv.o)
 .debug_line    0x0000000000000000      0x295 ../../lib/softrend/libsoftrend.a(pixconv.o)
 .debug_str     0x0000000000000000      0x458 ../../lib/softrend/libsoftrend.a(pixconv.o)
 .comment       0x0000000000000000       0x12 ../../lib/softrend/libsoftrend.a(pixconv.o)
 .note.GNU-stack
                0x0000000000000000        0x0 ../../lib/softrend/libsoftrend.a(pixconv.o)
 .eh_frame      0x0000000000000000      0x520 ../../lib/softrend/libsoftrend.a(pixconv.o)
 .debug_info    0x0000000000000000      0x6b7 ../../lib/softrend/libsoftrend.a(transform.o)
 .debug_abbrev  0x0000000000000000      0x1ea ../../lib/softrend/libsoftrend.a(transform.o)
 .debug_loc     0x0000000000000000      0xb81 ../../lib/softrend/libsoftrend.a(transform.o)
 .debug_aranges
                0x0000000000000000       0x20 ../../lib/softrend/libsoftrend.a(transform.o)
 .debug_ranges  0x0000000000000000      0x1c8 ../../lib/softrend/libsoftrend.a(transform.o)
 .debug_line    0x0000000000000000      0x207 ../../lib/softrend/libsoftrend.a(transform.o)
 .debug_str     0x0000000000000000      0x296 ../../lib/softrend/libsoftrend.a(transform.o)
 .comment       0x0000000000000000       0x12 ../../lib/softrend/libsoftrend.a(transform.o)
 .note.GNU-stack
                0x0000000000000000        0x0 ../../lib/softrend/libsoftrend.a(transform.o)
 .eh_frame      0x0000000000000000      0x144 ../../lib/softrend/libsoftrend.a(transform.o)

Memory Configuration

Name             Origin             Length             Attributes
*default*        0x0000000000000000 0xffffffffffffffff

Linker script and memory map

LOAD /home/ayyuce/Desktop/HlnOS/HelenOS/uspace/lib/c/arch/ia32/src/entry.o
                0x00000000000010f4                . = (0x1000 + SIZEOF_HEADERS)

.init           0x00000000000010f4       0x2e
 *(.init)
 .init          0x00000000000010f4       0x2e /home/ayyuce/Desktop/HlnOS/HelenOS/uspace/lib/c/arch/ia32/src/entry.o
                0x00000000000010f4                __entry

.text           0x0000000000001130     0x7f4c
 *(.text .text.*)
 .text          0x0000000000001130        0x0 /home/ayyuce/Desktop/HlnOS/HelenOS/uspace/lib/c/arch/ia32/src/entry.o
 .text          0x0000000000001130       0xb8 vlaunch.o
 *fill*         0x00000000000011e8        0x8 
 .text.startup  0x00000000000011f0      0x331 vlaunch.o
                0x00000000000011f0                main
 .text          0x0000000000001521        0x0 images.o
 *fill*         0x0000000000001521        0xf 
 .text          0x0000000000001530      0x74f ../../lib/gui/libgui.a(button.o)
                0x0000000000001980                deinit_button
                0x00000000000019c0                init_button
                0x0000000000001b10                create_button
 *fill*         0x0000000000001c7f        0x1 
 .text          0x0000000000001c80      0x469 ../../lib/gui/libgui.a(canvas.o)
                0x0000000000001fa0                deinit_canvas
                0x0000000000001fb0                init_canvas
                0x0000000000002030                update_canvas
                0x0000000000002060                create_canvas
 *fill*         0x00000000000020e9        0x7 
 .text          0x00000000000020f0      0x407 ../../lib/gui/libgui.a(connection.o)
                0x00000000000020f0                sig_connect
                0x0000000000002210                sig_disconnect
                0x0000000000002300                sig_send
                0x0000000000002380                sig_post
 *fill*         0x00000000000024f7        0x9 
 .text          0x0000000000002500      0xb78 ../../lib/gui/libgui.a(grid.o)
                0x0000000000002ec0                deinit_grid
                0x0000000000002ef0                init_grid
                0x0000000000002fb0                create_grid
 *fill*         0x0000000000003078        0x8 
 .text          0x0000000000003080      0x607 ../../lib/gui/libgui.a(label.o)
                0x00000000000033b0                deinit_label
                0x00000000000033f0                init_label
                0x0000000000003530                create_label
 *fill*         0x0000000000003687        0x9 
 .text          0x0000000000003690      0x100 ../../lib/gui/libgui.a(widget.o)
                0x0000000000003690                widget_init
                0x0000000000003730                widget_modify
                0x0000000000003750                widget_get_data
                0x0000000000003760                widget_deinit
 .text          0x0000000000003790     0x1482 ../../lib/gui/libgui.a(window.o)
                0x0000000000004890                window_open
                0x0000000000004a40                window_resize
                0x0000000000004ac0                window_refresh
                0x0000000000004b00                window_damage
                0x0000000000004b40                window_root
                0x0000000000004b50                window_exec
                0x0000000000004bb0                window_claim
                0x0000000000004be0                window_yield
                0x0000000000004c00                window_close
 *fill*         0x0000000000004c12        0xe 
 .text          0x0000000000004c20      0x457 ../../lib/gui/libgui.a(common.o)
                0x0000000000004c20                draw_icon_cross
                0x0000000000004fc0                draw_bevel
 *fill*         0x0000000000005077        0x9 
 .text          0x0000000000005080      0x247 ../../lib/draw/libdraw.a(tga.o)
                0x0000000000005080                decode_tga
                0x00000000000052c0                encode_tga
 *fill*         0x00000000000052c7        0x9 
 .text          0x00000000000052d0      0x147 ../../lib/draw/libdraw.a(embedded.o)
                0x00000000000053e0                embedded_font_create
 *fill*         0x0000000000005417        0x9 
 .text          0x0000000000005420      0x7f7 ../../lib/draw/libdraw.a(bitmap_backend.o)
                0x0000000000005aa0                bitmap_font_create
 *fill*         0x0000000000005c17        0x9 
 .text          0x0000000000005c20      0x8d4 ../../lib/draw/libdraw.a(font-8x16.o)
                0x0000000000005c20                fb_font_glyph
 *fill*         0x00000000000064f4        0xc 
 .text          0x0000000000006500      0x490 ../../lib/draw/libdraw.a(drawctx.o)
                0x0000000000006500                drawctx_init
                0x0000000000006570                drawctx_save
                0x00000000000065d0                drawctx_restore
                0x0000000000006650                drawctx_set_compose
                0x0000000000006660                drawctx_set_clip
                0x00000000000066c0                drawctx_set_mask
                0x00000000000066d0                drawctx_set_source
                0x00000000000066e0                drawctx_set_font
                0x00000000000066f0                drawctx_transfer
                0x0000000000006920                drawctx_stroke
                0x0000000000006950                drawctx_fill
                0x0000000000006960                drawctx_print
 .text          0x0000000000006990      0x2ff ../../lib/draw/libdraw.a(font.o)
                0x0000000000006990                font_create
                0x00000000000069c0                font_release
                0x00000000000069e0                font_get_metrics
                0x0000000000006a00                font_resolve_glyph
                0x0000000000006a20                font_get_glyph_metrics
                0x0000000000006a40                font_render_glyph
                0x0000000000006a60                font_get_box
                0x0000000000006b50                font_draw_text
 *fill*         0x0000000000006c8f        0x1 
 .text          0x0000000000006c90      0x360 ../../lib/draw/libdraw.a(source.o)
                0x0000000000006c90                source_init
                0x0000000000006ce0                source_set_transform
                0x0000000000006d00                source_reset_transform
                0x0000000000006d10                source_set_filter
                0x0000000000006d20                source_set_color
                0x0000000000006d30                source_set_texture
                0x0000000000006d50                source_set_alpha
                0x0000000000006d60                source_set_mask
                0x0000000000006d80                source_is_fast
                0x0000000000006dc0                source_direct_access
                0x0000000000006ea0                source_determine_pixel
 .text          0x0000000000006ff0      0x363 ../../lib/draw/libdraw.a(surface.o)
                0x0000000000006ff0                surface_create
                0x00000000000070c0                surface_destroy
                0x0000000000007100                surface_is_shared
                0x0000000000007110                surface_direct_access
                0x0000000000007120                surface_pixmap_access
                0x0000000000007130                surface_get_resolution
                0x0000000000007180                surface_get_damaged_region
                0x0000000000007240                surface_add_damaged_region
                0x0000000000007290                surface_reset_damaged_region
                0x00000000000072c0                surface_put_pixel
                0x0000000000007320                surface_get_pixel
 *fill*         0x0000000000007353        0xd 
 .text          0x0000000000007360      0x147 ../../lib/softrend/libsoftrend.a(compose.o)
                0x0000000000007360                compose_clr
                0x0000000000007370                compose_src
                0x0000000000007380                compose_dst
                0x0000000000007390                compose_over
                0x0000000000007460                compose_in
                0x0000000000007470                compose_out
                0x0000000000007480                compose_atop
                0x0000000000007490                compose_xor
                0x00000000000074a0                compose_add
 *fill*         0x00000000000074a7        0x9 
 .text          0x00000000000074b0      0xb17 ../../lib/softrend/libsoftrend.a(filter.o)
                0x00000000000074b0                filter_nearest
                0x0000000000007640                filter_bilinear
                0x0000000000007fc0                filter_bicubic
 *fill*         0x0000000000007fc7        0x9 
 .text          0x0000000000007fd0      0x8b0 ../../lib/softrend/libsoftrend.a(pixconv.o)
                0x0000000000007fd0                pixel2argb_8888
                0x0000000000007fe0                pixel2abgr_8888
                0x0000000000008030                pixel2rgba_8888
                0x0000000000008070                pixel2bgra_8888
                0x0000000000008080                pixel2rgb_0888
                0x00000000000080b0                pixel2bgr_0888
                0x0000000000008100                pixel2rgb_8880
                0x0000000000008150                pixel2bgr_8880
                0x00000000000081a0                pixel2rgb_888
                0x00000000000081c0                pixel2bgr_888
                0x00000000000081e0                pixel2rgb_555_be
                0x0000000000008220                pixel2rgb_555_le
                0x0000000000008260                pixel2rgb_565_be
                0x00000000000082a0                pixel2rgb_565_le
                0x00000000000082d0                pixel2bgr_323
                0x0000000000008300                pixel2gray_8
                0x0000000000008380                visual_mask_8888
                0x00000000000083d0                visual_mask_0888
                0x0000000000008410                visual_mask_8880
                0x0000000000008460                visual_mask_888
                0x0000000000008480                visual_mask_555
                0x00000000000084b0                visual_mask_565
                0x00000000000084e0                visual_mask_323
                0x0000000000008520                visual_mask_8
                0x00000000000085a0                argb_8888_2pixel
                0x00000000000085b0                abgr_8888_2pixel
                0x00000000000085e0                rgba_8888_2pixel
                0x00000000000085f0                bgra_8888_2pixel
                0x0000000000008600                rgb_0888_2pixel
                0x0000000000008630                bgr_0888_2pixel
                0x0000000000008670                rgb_8880_2pixel
                0x0000000000008690                bgr_8880_2pixel
                0x00000000000086c0                rgb_888_2pixel
                0x00000000000086f0                bgr_888_2pixel
                0x0000000000008720                rgb_555_be_2pixel
                0x0000000000008760                rgb_555_le_2pixel
                0x00000000000087a0                rgb_565_be_2pixel
                0x00000000000087e0                rgb_565_le_2pixel
                0x0000000000008820                bgr_323_2pixel
                0x0000000000008860                gray_8_2pixel
 .text          0x0000000000008880      0x623 ../../lib/softrend/libsoftrend.a(transform.o)
                0x0000000000008880                transform_product
                0x0000000000008990                transform_invert
                0x0000000000008a70                transform_identity
                0x0000000000008aa0                transform_translate
                0x0000000000008b60                transform_scale
                0x0000000000008c30                transform_rotate
                0x0000000000008d70                transform_is_fast
                0x0000000000008e40                transform_apply_linear
                0x0000000000008e70                transform_apply_affine
 *(.rodata .rodata.*)
 .rodata.str1.1
                0x0000000000008ea3       0xa1 vlaunch.o
                                         0xbb (size before relaxing)
 .rodata.str1.4
                0x0000000000008f44       0x70 vlaunch.o
                                         0x6e (size before relaxing)
 .rodata.str1.1
                0x0000000000008fb4        0xf ../../lib/gui/libgui.a(grid.o)
 *fill*         0x0000000000008fc3        0x1 
 .rodata        0x0000000000008fc4       0x24 ../../lib/gui/libgui.a(window.o)
 .rodata        0x0000000000008fe8       0x38 ../../lib/gui/libgui.a(common.o)
 .rodata.cst4   0x0000000000009020        0x4 ../../lib/draw/libdraw.a(bitmap_backend.o)
 .rodata.str1.1
                0x0000000000009024       0x12 ../../lib/draw/libdraw.a(drawctx.o)
 .rodata.str1.1
                0x0000000000009036       0x20 ../../lib/draw/libdraw.a(source.o)
 *fill*         0x0000000000009056        0x2 
 .rodata.cst4   0x0000000000009058        0x4 ../../lib/draw/libdraw.a(source.o)
 .rodata.str1.1
                0x000000000000905c       0x1b ../../lib/draw/libdraw.a(surface.o)
 .rodata.cst4   0x0000000000009077        0x4 ../../lib/softrend/libsoftrend.a(filter.o)
 *fill*         0x0000000000009077        0x1 
 .rodata.cst4   0x0000000000009078        0x4 ../../lib/softrend/libsoftrend.a(transform.o)

.rel.plt        0x000000000000907c      0x160
 *(.rel.plt)
 .rel.plt       0x000000000000907c      0x160 /home/ayyuce/Desktop/HlnOS/HelenOS/uspace/lib/c/arch/ia32/src/entry.o

.rel.dyn        0x00000000000091dc       0x10
 *(.rel.*)
 .rel.got       0x00000000000091dc        0x0 /home/ayyuce/Desktop/HlnOS/HelenOS/uspace/lib/c/arch/ia32/src/entry.o
 .rel.bss       0x00000000000091dc       0x10 /home/ayyuce/Desktop/HlnOS/HelenOS/uspace/lib/c/arch/ia32/src/entry.o
 .rel.init      0x00000000000091ec        0x0 /home/ayyuce/Desktop/HlnOS/HelenOS/uspace/lib/c/arch/ia32/src/entry.o
 .rel.text      0x00000000000091ec        0x0 /home/ayyuce/Desktop/HlnOS/HelenOS/uspace/lib/c/arch/ia32/src/entry.o
 .rel.text.startup
                0x00000000000091ec        0x0 /home/ayyuce/Desktop/HlnOS/HelenOS/uspace/lib/c/arch/ia32/src/entry.o

.plt            0x00000000000091f0      0x2d0
 *(.plt)
 .plt           0x00000000000091f0      0x2d0 /home/ayyuce/Desktop/HlnOS/HelenOS/uspace/lib/c/arch/ia32/src/entry.o
                0x0000000000009200                __main
                0x0000000000009210                cos_f64
                0x0000000000009220                win_grab
                0x0000000000009230                task_retval
                0x0000000000009240                loc_service_connect
                0x0000000000009250                printf
                0x0000000000009260                async_hangup
                0x0000000000009270                fibril_rwlock_read_unlock
                0x0000000000009280                task_wait
                0x0000000000009290                str_decode
                0x00000000000092a0                memcpy
                0x00000000000092b0                malloc
                0x00000000000092c0                trunc_f64
                0x00000000000092d0                loc_service_get_id
                0x00000000000092e0                as_area_destroy
                0x00000000000092f0                win_resize
                0x0000000000009300                assert_abort
                0x0000000000009310                calloc
                0x0000000000009320                fibril_mutex_unlock
                0x0000000000009330                str_dup
                0x0000000000009340                fibril_mutex_initialize
                0x0000000000009350                win_get_event
                0x0000000000009360                prodcons_initialize
                0x0000000000009370                win_register
                0x0000000000009380                fibril_rwlock_write_unlock
                0x0000000000009390                prodcons_consume
                0x00000000000093a0                memset
                0x00000000000093b0                sin_f64
                0x00000000000093c0                win_damage
                0x00000000000093d0                str_error
                0x00000000000093e0                fibril_rwlock_write_lock
                0x00000000000093f0                win_close
                0x0000000000009400                prodcons_produce
                0x0000000000009410                exit
                0x0000000000009420                fibril_create_generic
                0x0000000000009430                fibril_add_ready
                0x0000000000009440                fibril_switch
                0x0000000000009450                as_area_create
                0x0000000000009460                __syscall_fast
                0x0000000000009470                fibril_rwlock_read_lock
                0x0000000000009480                task_spawnl
                0x0000000000009490                win_close_request
                0x00000000000094a0                free
                0x00000000000094b0                fibril_mutex_lock

.dynsym         0x00000000000094c0      0x310
 *(.dynsym)
 .dynsym        0x00000000000094c0      0x310 /home/ayyuce/Desktop/HlnOS/HelenOS/uspace/lib/c/arch/ia32/src/entry.o

.dynstr         0x00000000000097d0      0x2b1
 *(.dynstr)
 .dynstr        0x00000000000097d0      0x2b1 /home/ayyuce/Desktop/HlnOS/HelenOS/uspace/lib/c/arch/ia32/src/entry.o

.hash           0x0000000000009a84      0x160
 *(.hash)
 .hash          0x0000000000009a84      0x160 /home/ayyuce/Desktop/HlnOS/HelenOS/uspace/lib/c/arch/ia32/src/entry.o

.interp         0x0000000000009be4       0x13
 *(.interp)
 .interp        0x0000000000009be4       0x13 /home/ayyuce/Desktop/HlnOS/HelenOS/uspace/lib/c/arch/ia32/src/entry.o
                0x000000000000abf7                . = (. + 0x1000)

.dynamic        0x000000000000abf8       0xb0
 *(.dynamic)
 .dynamic       0x000000000000abf8       0xb0 /home/ayyuce/Desktop/HlnOS/HelenOS/uspace/lib/c/arch/ia32/src/entry.o
                0x000000000000abf8                _DYNAMIC

.data           0x000000000000acc0    0x14d50
 *(.data)
 .data          0x000000000000acc0        0x0 /home/ayyuce/Desktop/HlnOS/HelenOS/uspace/lib/c/arch/ia32/src/entry.o
 .data          0x000000000000acc0        0x0 vlaunch.o
 .data          0x000000000000acc0     0x97ca images.o
                0x000000000000acc0                helenos_tga_size
                0x000000000000ace0                helenos_tga
 .data          0x000000000001448a        0x0 ../../lib/gui/libgui.a(button.o)
 .data          0x000000000001448a        0x0 ../../lib/gui/libgui.a(canvas.o)
 *fill*         0x000000000001448a        0x2 
 .data          0x000000000001448c       0x1c ../../lib/gui/libgui.a(connection.o)
 .data          0x00000000000144a8        0x0 ../../lib/gui/libgui.a(grid.o)
 .data          0x00000000000144a8        0x0 ../../lib/gui/libgui.a(label.o)
 .data          0x00000000000144a8        0x0 ../../lib/gui/libgui.a(widget.o)
 .data          0x00000000000144a8        0x0 ../../lib/gui/libgui.a(window.o)
 .data          0x00000000000144a8        0x0 ../../lib/gui/libgui.a(common.o)
 .data          0x00000000000144a8        0x0 ../../lib/draw/libdraw.a(tga.o)
 .data          0x00000000000144a8       0x1c ../../lib/draw/libdraw.a(embedded.o)
                0x00000000000144a8                font_metrics
                0x00000000000144b4                fd_embedded
 .data          0x00000000000144c4       0x14 ../../lib/draw/libdraw.a(bitmap_backend.o)
                0x00000000000144c4                bitmap_backend
 *fill*         0x00000000000144d8        0x8 
 .data          0x00000000000144e0     0xb530 ../../lib/draw/libdraw.a(font-8x16.o)
                0x00000000000144e0                fb_font
 .data          0x000000000001fa10        0x0 ../../lib/draw/libdraw.a(drawctx.o)
 .data          0x000000000001fa10        0x0 ../../lib/draw/libdraw.a(font.o)
 .data          0x000000000001fa10        0x0 ../../lib/draw/libdraw.a(source.o)
 .data          0x000000000001fa10        0x0 ../../lib/draw/libdraw.a(surface.o)
 .data          0x000000000001fa10        0x0 ../../lib/softrend/libsoftrend.a(compose.o)
 .data          0x000000000001fa10        0x0 ../../lib/softrend/libsoftrend.a(filter.o)
 .data          0x000000000001fa10        0x0 ../../lib/softrend/libsoftrend.a(pixconv.o)
 .data          0x000000000001fa10        0x0 ../../lib/softrend/libsoftrend.a(transform.o)

.data.rel
 *(.data.rel .data.rel.*)

.got            0x000000000001fa10        0x0
 *(.got)
 .got           0x000000000001fa10        0x0 /home/ayyuce/Desktop/HlnOS/HelenOS/uspace/lib/c/arch/ia32/src/entry.o

.got.plt        0x000000000001fa10       0xbc
 *(.got.plt)
 .got.plt       0x000000000001fa10       0xbc /home/ayyuce/Desktop/HlnOS/HelenOS/uspace/lib/c/arch/ia32/src/entry.o
                0x000000000001fa10                _GLOBAL_OFFSET_TABLE_

.tdata
 *(.tdata)
 *(.gnu.linkonce.tb.*)

.tbss
 *(.tbss)

.bss            0x000000000001fad0        0xc
 *(.dynbss)
 *fill*         0x000000000001fad0        0x0 
 .dynbss        0x000000000001fad0        0x8 /home/ayyuce/Desktop/HlnOS/HelenOS/uspace/lib/c/arch/ia32/src/entry.o
                0x000000000001fad0                __syscall_fast_func
                0x000000000001fad4                async_futex
 *(COMMON)
 *(.bss)
 .bss           0x000000000001fad8        0x0 /home/ayyuce/Desktop/HlnOS/HelenOS/uspace/lib/c/arch/ia32/src/entry.o
 .bss           0x000000000001fad8        0x4 vlaunch.o
 .bss           0x000000000001fadc        0x0 images.o
 .bss           0x000000000001fadc        0x0 ../../lib/gui/libgui.a(button.o)
 .bss           0x000000000001fadc        0x0 ../../lib/gui/libgui.a(canvas.o)
 .bss           0x000000000001fadc        0x0 ../../lib/gui/libgui.a(connection.o)
 .bss           0x000000000001fadc        0x0 ../../lib/gui/libgui.a(grid.o)
 .bss           0x000000000001fadc        0x0 ../../lib/gui/libgui.a(label.o)
 .bss           0x000000000001fadc        0x0 ../../lib/gui/libgui.a(widget.o)
 .bss           0x000000000001fadc        0x0 ../../lib/gui/libgui.a(window.o)
 .bss           0x000000000001fadc        0x0 ../../lib/gui/libgui.a(common.o)
 .bss           0x000000000001fadc        0x0 ../../lib/draw/libdraw.a(tga.o)
 .bss           0x000000000001fadc        0x0 ../../lib/draw/libdraw.a(embedded.o)
 .bss           0x000000000001fadc        0x0 ../../lib/draw/libdraw.a(bitmap_backend.o)
 .bss           0x000000000001fadc        0x0 ../../lib/draw/libdraw.a(font-8x16.o)
 .bss           0x000000000001fadc        0x0 ../../lib/draw/libdraw.a(drawctx.o)
 .bss           0x000000000001fadc        0x0 ../../lib/draw/libdraw.a(font.o)
 .bss           0x000000000001fadc        0x0 ../../lib/draw/libdraw.a(source.o)
 .bss           0x000000000001fadc        0x0 ../../lib/draw/libdraw.a(surface.o)
 .bss           0x000000000001fadc        0x0 ../../lib/softrend/libsoftrend.a(compose.o)
 .bss           0x000000000001fadc        0x0 ../../lib/softrend/libsoftrend.a(filter.o)
 .bss           0x000000000001fadc        0x0 ../../lib/softrend/libsoftrend.a(pixconv.o)
 .bss           0x000000000001fadc        0x0 ../../lib/softrend/libsoftrend.a(transform.o)

/DISCARD/
 *(*)
LOAD vlaunch.o
LOAD images.o
LOAD ../../lib/gui/libgui.a
LOAD ../../lib/draw/libdraw.a
LOAD ../../lib/softrend/libsoftrend.a
LOAD ../../lib/softfloat/libsoftfloat.a
LOAD ../../lib/c/libc.so.0
LOAD ../../lib/softint/libsoftint.so.0
LOAD ../../lib/math/libmath.so.0
OUTPUT(vlaunch elf32-i386)
