
ethip:     file format elf32-i386


Disassembly of section .init:

000010f4 <__entry>:
    10f4:	66 8c d0             	mov    %ss,%ax
    10f7:	8e d8                	mov    %eax,%ds
    10f9:	8e c0                	mov    %eax,%es
    10fb:	8e e0                	mov    %eax,%fs
    10fd:	b8 01 00 00 00       	mov    $0x1,%eax
    1102:	0f a2                	cpuid  
    1104:	0f ba e2 0b          	bt     $0xb,%edx
    1108:	73 0c                	jae    1116 <__entry+0x22>
    110a:	8d 05 08 8f 00 00    	lea    0x8f08,%eax
    1110:	c7 00 70 71 00 00    	movl   $0x7170,(%eax)
    1116:	6a 00                	push   $0x0
    1118:	6a 00                	push   $0x0
    111a:	89 e5                	mov    %esp,%ebp
    111c:	57                   	push   %edi
    111d:	e8 ce 5c 00 00       	call   6df0 <__main@plt>

Disassembly of section .text:

00001140 <arp_send_packet>:
    1140:	55                   	push   %ebp
    1141:	89 e5                	mov    %esp,%ebp
    1143:	57                   	push   %edi
    1144:	56                   	push   %esi
    1145:	53                   	push   %ebx
    1146:	83 ec 50             	sub    $0x50,%esp
    1149:	89 d3                	mov    %edx,%ebx
    114b:	89 c6                	mov    %eax,%esi
    114d:	68 36 61 00 00       	push   $0x6136
    1152:	6a 04                	push   $0x4
    1154:	6a ff                	push   $0xffffffff
    1156:	e8 e5 5d 00 00       	call   6f40 <log_msg@plt>
    115b:	83 c4 0c             	add    $0xc,%esp
    115e:	8d 45 c4             	lea    -0x3c(%ebp),%eax
    1161:	50                   	push   %eax
    1162:	8d 45 c0             	lea    -0x40(%ebp),%eax
    1165:	50                   	push   %eax
    1166:	53                   	push   %ebx
    1167:	e8 d4 17 00 00       	call   2940 <arp_pdu_encode>
    116c:	83 c4 10             	add    $0x10,%esp
    116f:	85 c0                	test   %eax,%eax
    1171:	74 0d                	je     1180 <arp_send_packet+0x40>
    1173:	8d 65 f4             	lea    -0xc(%ebp),%esp
    1176:	5b                   	pop    %ebx
    1177:	5e                   	pop    %esi
    1178:	5f                   	pop    %edi
    1179:	5d                   	pop    %ebp
    117a:	c3                   	ret    
    117b:	90                   	nop
    117c:	8d 74 26 00          	lea    0x0(%esi,%eiz,1),%esi
    1180:	8d 7d d0             	lea    -0x30(%ebp),%edi
    1183:	50                   	push   %eax
    1184:	50                   	push   %eax
    1185:	8d 43 10             	lea    0x10(%ebx),%eax
    1188:	57                   	push   %edi
    1189:	83 c3 04             	add    $0x4,%ebx
    118c:	50                   	push   %eax
    118d:	e8 7e 5f 00 00       	call   7110 <addr48@plt>
    1192:	58                   	pop    %eax
    1193:	8d 45 d6             	lea    -0x2a(%ebp),%eax
    1196:	5a                   	pop    %edx
    1197:	50                   	push   %eax
    1198:	53                   	push   %ebx
    1199:	e8 72 5f 00 00       	call   7110 <addr48@plt>
    119e:	8b 45 c0             	mov    -0x40(%ebp),%eax
    11a1:	83 c4 0c             	add    $0xc,%esp
    11a4:	89 45 e0             	mov    %eax,-0x20(%ebp)
    11a7:	8b 45 c4             	mov    -0x3c(%ebp),%eax
    11aa:	89 45 e4             	mov    %eax,-0x1c(%ebp)
    11ad:	8d 45 cc             	lea    -0x34(%ebp),%eax
    11b0:	50                   	push   %eax
    11b1:	8d 45 c8             	lea    -0x38(%ebp),%eax
    11b4:	50                   	push   %eax
    11b5:	66 c7 45 dc 06 08    	movw   $0x806,-0x24(%ebp)
    11bb:	57                   	push   %edi
    11bc:	e8 0f 16 00 00       	call   27d0 <eth_pdu_encode>
    11c1:	83 c4 10             	add    $0x10,%esp
    11c4:	85 c0                	test   %eax,%eax
    11c6:	75 38                	jne    1200 <arp_send_packet+0xc0>
    11c8:	8b 55 cc             	mov    -0x34(%ebp),%edx
    11cb:	8b 4d c8             	mov    -0x38(%ebp),%ecx
    11ce:	50                   	push   %eax
    11cf:	52                   	push   %edx
    11d0:	51                   	push   %ecx
    11d1:	56                   	push   %esi
    11d2:	e8 e9 13 00 00       	call   25c0 <ethip_nic_send>
    11d7:	8b 75 c8             	mov    -0x38(%ebp),%esi
    11da:	5b                   	pop    %ebx
    11db:	89 45 b4             	mov    %eax,-0x4c(%ebp)
    11de:	56                   	push   %esi
    11df:	e8 cc 5f 00 00       	call   71b0 <free@plt>
    11e4:	8b 45 c0             	mov    -0x40(%ebp),%eax
    11e7:	5f                   	pop    %edi
    11e8:	50                   	push   %eax
    11e9:	e8 c2 5f 00 00       	call   71b0 <free@plt>
    11ee:	8b 45 b4             	mov    -0x4c(%ebp),%eax
    11f1:	83 c4 10             	add    $0x10,%esp
    11f4:	8d 65 f4             	lea    -0xc(%ebp),%esp
    11f7:	5b                   	pop    %ebx
    11f8:	5e                   	pop    %esi
    11f9:	5f                   	pop    %edi
    11fa:	5d                   	pop    %ebp
    11fb:	c3                   	ret    
    11fc:	8d 74 26 00          	lea    0x0(%esi,%eiz,1),%esi
    1200:	83 ec 0c             	sub    $0xc,%esp
    1203:	89 45 b4             	mov    %eax,-0x4c(%ebp)
    1206:	8b 45 c0             	mov    -0x40(%ebp),%eax
    1209:	50                   	push   %eax
    120a:	e8 a1 5f 00 00       	call   71b0 <free@plt>
    120f:	8b 45 b4             	mov    -0x4c(%ebp),%eax
    1212:	83 c4 10             	add    $0x10,%esp
    1215:	8d 65 f4             	lea    -0xc(%ebp),%esp
    1218:	5b                   	pop    %ebx
    1219:	5e                   	pop    %esi
    121a:	5f                   	pop    %edi
    121b:	5d                   	pop    %ebp
    121c:	c3                   	ret    
    121d:	8d 76 00             	lea    0x0(%esi),%esi

00001220 <arp_received>:
    1220:	55                   	push   %ebp
    1221:	89 e5                	mov    %esp,%ebp
    1223:	53                   	push   %ebx
    1224:	83 ec 58             	sub    $0x58,%esp
    1227:	8b 5d 0c             	mov    0xc(%ebp),%ebx
    122a:	68 48 61 00 00       	push   $0x6148
    122f:	6a 04                	push   $0x4
    1231:	6a ff                	push   $0xffffffff
    1233:	e8 08 5d 00 00       	call   6f40 <log_msg@plt>
    1238:	83 c4 0c             	add    $0xc,%esp
    123b:	8d 45 c0             	lea    -0x40(%ebp),%eax
    123e:	50                   	push   %eax
    123f:	8b 43 14             	mov    0x14(%ebx),%eax
    1242:	50                   	push   %eax
    1243:	8b 43 10             	mov    0x10(%ebx),%eax
    1246:	50                   	push   %eax
    1247:	e8 c4 17 00 00       	call   2a10 <arp_pdu_decode>
    124c:	83 c4 10             	add    $0x10,%esp
    124f:	85 c0                	test   %eax,%eax
    1251:	74 05                	je     1258 <arp_received+0x38>
    1253:	8b 5d fc             	mov    -0x4(%ebp),%ebx
    1256:	c9                   	leave  
    1257:	c3                   	ret    
    1258:	83 ec 0c             	sub    $0xc,%esp
    125b:	8b 4d d8             	mov    -0x28(%ebp),%ecx
    125e:	8b 5d c0             	mov    -0x40(%ebp),%ebx
    1261:	51                   	push   %ecx
    1262:	53                   	push   %ebx
    1263:	68 74 61 00 00       	push   $0x6174
    1268:	6a 04                	push   $0x4
    126a:	6a ff                	push   $0xffffffff
    126c:	e8 cf 5c 00 00       	call   6f40 <log_msg@plt>
    1271:	83 c4 18             	add    $0x18,%esp
    1274:	8b 45 d8             	mov    -0x28(%ebp),%eax
    1277:	8d 5d ac             	lea    -0x54(%ebp),%ebx
    127a:	53                   	push   %ebx
    127b:	50                   	push   %eax
    127c:	e8 5f 5d 00 00       	call   6fe0 <inet_addr_set@plt>
    1281:	8b 4d 08             	mov    0x8(%ebp),%ecx
    1284:	58                   	pop    %eax
    1285:	5a                   	pop    %edx
    1286:	53                   	push   %ebx
    1287:	51                   	push   %ecx
    1288:	e8 d3 14 00 00       	call   2760 <ethip_nic_addr_find>
    128d:	83 c4 10             	add    $0x10,%esp
    1290:	85 c0                	test   %eax,%eax
    1292:	74 bf                	je     1253 <arp_received+0x33>
    1294:	83 c0 08             	add    $0x8,%eax
    1297:	52                   	push   %edx
    1298:	8d 55 a8             	lea    -0x58(%ebp),%edx
    129b:	6a 00                	push   $0x0
    129d:	52                   	push   %edx
    129e:	50                   	push   %eax
    129f:	e8 ac 5d 00 00       	call   7050 <inet_addr_get@plt>
    12a4:	83 c4 10             	add    $0x10,%esp
    12a7:	48                   	dec    %eax
    12a8:	75 a9                	jne    1253 <arp_received+0x33>
    12aa:	53                   	push   %ebx
    12ab:	8d 5d c4             	lea    -0x3c(%ebp),%ebx
    12ae:	68 57 61 00 00       	push   $0x6157
    12b3:	6a 04                	push   $0x4
    12b5:	6a ff                	push   $0xffffffff
    12b7:	e8 84 5c 00 00       	call   6f40 <log_msg@plt>
    12bc:	8b 4d cc             	mov    -0x34(%ebp),%ecx
    12bf:	58                   	pop    %eax
    12c0:	5a                   	pop    %edx
    12c1:	53                   	push   %ebx
    12c2:	51                   	push   %ecx
    12c3:	e8 48 01 00 00       	call   1410 <atrans_add>
    12c8:	8b 45 c0             	mov    -0x40(%ebp),%eax
    12cb:	83 c4 10             	add    $0x10,%esp
    12ce:	85 c0                	test   %eax,%eax
    12d0:	75 81                	jne    1253 <arp_received+0x33>
    12d2:	50                   	push   %eax
    12d3:	50                   	push   %eax
    12d4:	8d 45 e0             	lea    -0x20(%ebp),%eax
    12d7:	c7 45 dc 01 00 00 00 	movl   $0x1,-0x24(%ebp)
    12de:	50                   	push   %eax
    12df:	8b 45 08             	mov    0x8(%ebp),%eax
    12e2:	83 c0 38             	add    $0x38,%eax
    12e5:	50                   	push   %eax
    12e6:	e8 25 5e 00 00       	call   7110 <addr48@plt>
    12eb:	8b 45 a8             	mov    -0x58(%ebp),%eax
    12ee:	5a                   	pop    %edx
    12ef:	89 45 e8             	mov    %eax,-0x18(%ebp)
    12f2:	8d 45 ec             	lea    -0x14(%ebp),%eax
    12f5:	59                   	pop    %ecx
    12f6:	50                   	push   %eax
    12f7:	53                   	push   %ebx
    12f8:	e8 13 5e 00 00       	call   7110 <addr48@plt>
    12fd:	8b 45 cc             	mov    -0x34(%ebp),%eax
    1300:	8d 55 dc             	lea    -0x24(%ebp),%edx
    1303:	89 45 f4             	mov    %eax,-0xc(%ebp)
    1306:	8b 45 08             	mov    0x8(%ebp),%eax
    1309:	e8 32 fe ff ff       	call   1140 <arp_send_packet>
    130e:	83 c4 10             	add    $0x10,%esp
    1311:	e9 3d ff ff ff       	jmp    1253 <arp_received+0x33>
    1316:	8d 76 00             	lea    0x0(%esi),%esi
    1319:	8d bc 27 00 00 00 00 	lea    0x0(%edi,%eiz,1),%edi

00001320 <arp_translate>:
    1320:	55                   	push   %ebp
    1321:	89 e5                	mov    %esp,%ebp
    1323:	56                   	push   %esi
    1324:	53                   	push   %ebx
    1325:	83 ec 20             	sub    $0x20,%esp
    1328:	8b 5d 10             	mov    0x10(%ebp),%ebx
    132b:	8b 75 14             	mov    0x14(%ebp),%esi
    132e:	39 1d 10 8f 00 00    	cmp    %ebx,0x8f10
    1334:	74 7a                	je     13b0 <arp_translate+0x90>
    1336:	50                   	push   %eax
    1337:	50                   	push   %eax
    1338:	56                   	push   %esi
    1339:	53                   	push   %ebx
    133a:	e8 51 02 00 00       	call   1590 <atrans_lookup>
    133f:	83 c4 10             	add    $0x10,%esp
    1342:	85 c0                	test   %eax,%eax
    1344:	75 0a                	jne    1350 <arp_translate+0x30>
    1346:	8d 65 f8             	lea    -0x8(%ebp),%esp
    1349:	5b                   	pop    %ebx
    134a:	5e                   	pop    %esi
    134b:	5d                   	pop    %ebp
    134c:	c3                   	ret    
    134d:	8d 76 00             	lea    0x0(%esi),%esi
    1350:	8d 45 e0             	lea    -0x20(%ebp),%eax
    1353:	52                   	push   %edx
    1354:	52                   	push   %edx
    1355:	50                   	push   %eax
    1356:	8b 45 08             	mov    0x8(%ebp),%eax
    1359:	c7 45 dc 00 00 00 00 	movl   $0x0,-0x24(%ebp)
    1360:	83 c0 38             	add    $0x38,%eax
    1363:	50                   	push   %eax
    1364:	e8 a7 5d 00 00       	call   7110 <addr48@plt>
    1369:	8b 45 0c             	mov    0xc(%ebp),%eax
    136c:	59                   	pop    %ecx
    136d:	89 45 e8             	mov    %eax,-0x18(%ebp)
    1370:	58                   	pop    %eax
    1371:	8d 45 ec             	lea    -0x14(%ebp),%eax
    1374:	50                   	push   %eax
    1375:	68 00 8f 00 00       	push   $0x8f00
    137a:	e8 91 5d 00 00       	call   7110 <addr48@plt>
    137f:	8d 55 dc             	lea    -0x24(%ebp),%edx
    1382:	8b 45 08             	mov    0x8(%ebp),%eax
    1385:	89 5d f4             	mov    %ebx,-0xc(%ebp)
    1388:	e8 b3 fd ff ff       	call   1140 <arp_send_packet>
    138d:	83 c4 10             	add    $0x10,%esp
    1390:	85 c0                	test   %eax,%eax
    1392:	75 b2                	jne    1346 <arp_translate+0x26>
    1394:	50                   	push   %eax
    1395:	56                   	push   %esi
    1396:	68 c0 c6 2d 00       	push   $0x2dc6c0
    139b:	53                   	push   %ebx
    139c:	e8 5f 02 00 00       	call   1600 <atrans_lookup_timeout>
    13a1:	83 c4 10             	add    $0x10,%esp
    13a4:	8d 65 f8             	lea    -0x8(%ebp),%esp
    13a7:	5b                   	pop    %ebx
    13a8:	5e                   	pop    %esi
    13a9:	5d                   	pop    %ebp
    13aa:	c3                   	ret    
    13ab:	90                   	nop
    13ac:	8d 74 26 00          	lea    0x0(%esi,%eiz,1),%esi
    13b0:	50                   	push   %eax
    13b1:	50                   	push   %eax
    13b2:	56                   	push   %esi
    13b3:	68 00 8f 00 00       	push   $0x8f00
    13b8:	e8 53 5d 00 00       	call   7110 <addr48@plt>
    13bd:	83 c4 10             	add    $0x10,%esp
    13c0:	8d 65 f8             	lea    -0x8(%ebp),%esp
    13c3:	31 c0                	xor    %eax,%eax
    13c5:	5b                   	pop    %ebx
    13c6:	5e                   	pop    %esi
    13c7:	5d                   	pop    %ebp
    13c8:	c3                   	ret    
    13c9:	66 90                	xchg   %ax,%ax
    13cb:	66 90                	xchg   %ax,%ax
    13cd:	66 90                	xchg   %ax,%ax
    13cf:	90                   	nop

000013d0 <atrans_lookup_timeout_handler>:
    13d0:	55                   	push   %ebp
    13d1:	89 e5                	mov    %esp,%ebp
    13d3:	53                   	push   %ebx
    13d4:	83 ec 10             	sub    $0x10,%esp
    13d7:	8b 5d 08             	mov    0x8(%ebp),%ebx
    13da:	68 b0 8d 00 00       	push   $0x8db0
    13df:	e8 dc 5d 00 00       	call   71c0 <fibril_mutex_lock@plt>
    13e4:	c6 03 01             	movb   $0x1,(%ebx)
    13e7:	c7 04 24 b0 8d 00 00 	movl   $0x8db0,(%esp)
    13ee:	e8 0d 5c 00 00       	call   7000 <fibril_mutex_unlock@plt>
    13f3:	83 c4 10             	add    $0x10,%esp
    13f6:	8b 5d fc             	mov    -0x4(%ebp),%ebx
    13f9:	c7 45 08 a0 8d 00 00 	movl   $0x8da0,0x8(%ebp)
    1400:	c9                   	leave  
    1401:	e9 ba 5b 00 00       	jmp    6fc0 <fibril_condvar_broadcast@plt>
    1406:	8d 76 00             	lea    0x0(%esi),%esi
    1409:	8d bc 27 00 00 00 00 	lea    0x0(%edi,%eiz,1),%edi

00001410 <atrans_add>:
    1410:	55                   	push   %ebp
    1411:	89 e5                	mov    %esp,%ebp
    1413:	56                   	push   %esi
    1414:	53                   	push   %ebx
    1415:	51                   	push   %ecx
    1416:	8b 5d 08             	mov    0x8(%ebp),%ebx
    1419:	51                   	push   %ecx
    141a:	6a 14                	push   $0x14
    141c:	6a 01                	push   $0x1
    141e:	e8 6d 5b 00 00       	call   6f90 <calloc@plt>
    1423:	83 c4 10             	add    $0x10,%esp
    1426:	85 c0                	test   %eax,%eax
    1428:	0f 84 b3 00 00 00    	je     14e1 <atrans_add+0xd1>
    142e:	89 c6                	mov    %eax,%esi
    1430:	89 58 08             	mov    %ebx,0x8(%eax)
    1433:	8b 55 0c             	mov    0xc(%ebp),%edx
    1436:	50                   	push   %eax
    1437:	50                   	push   %eax
    1438:	8d 46 0c             	lea    0xc(%esi),%eax
    143b:	50                   	push   %eax
    143c:	52                   	push   %edx
    143d:	e8 ce 5c 00 00       	call   7110 <addr48@plt>
    1442:	c7 04 24 b0 8d 00 00 	movl   $0x8db0,(%esp)
    1449:	e8 72 5d 00 00       	call   71c0 <fibril_mutex_lock@plt>
    144e:	8b 15 ac 8d 00 00    	mov    0x8dac,%edx
    1454:	83 c4 10             	add    $0x10,%esp
    1457:	81 fa a8 8d 00 00    	cmp    $0x8da8,%edx
    145d:	75 14                	jne    1473 <atrans_add+0x63>
    145f:	eb 44                	jmp    14a5 <atrans_add+0x95>
    1461:	8d b4 26 00 00 00 00 	lea    0x0(%esi,%eiz,1),%esi
    1468:	8b 52 04             	mov    0x4(%edx),%edx
    146b:	81 fa a8 8d 00 00    	cmp    $0x8da8,%edx
    1471:	74 32                	je     14a5 <atrans_add+0x95>
    1473:	3b 5a 08             	cmp    0x8(%edx),%ebx
    1476:	75 f0                	jne    1468 <atrans_add+0x58>
    1478:	8b 0a                	mov    (%edx),%ecx
    147a:	85 c9                	test   %ecx,%ecx
    147c:	74 0e                	je     148c <atrans_add+0x7c>
    147e:	8b 42 04             	mov    0x4(%edx),%eax
    1481:	85 c0                	test   %eax,%eax
    1483:	74 07                	je     148c <atrans_add+0x7c>
    1485:	89 08                	mov    %ecx,(%eax)
    1487:	8b 0a                	mov    (%edx),%ecx
    1489:	89 41 04             	mov    %eax,0x4(%ecx)
    148c:	83 ec 0c             	sub    $0xc,%esp
    148f:	c7 02 00 00 00 00    	movl   $0x0,(%edx)
    1495:	c7 42 04 00 00 00 00 	movl   $0x0,0x4(%edx)
    149c:	52                   	push   %edx
    149d:	e8 0e 5d 00 00       	call   71b0 <free@plt>
    14a2:	83 c4 10             	add    $0x10,%esp
    14a5:	a1 a8 8d 00 00       	mov    0x8da8,%eax
    14aa:	83 ec 0c             	sub    $0xc,%esp
    14ad:	89 06                	mov    %eax,(%esi)
    14af:	c7 46 04 a8 8d 00 00 	movl   $0x8da8,0x4(%esi)
    14b6:	89 70 04             	mov    %esi,0x4(%eax)
    14b9:	68 b0 8d 00 00       	push   $0x8db0
    14be:	89 35 a8 8d 00 00    	mov    %esi,0x8da8
    14c4:	e8 37 5b 00 00       	call   7000 <fibril_mutex_unlock@plt>
    14c9:	c7 04 24 a0 8d 00 00 	movl   $0x8da0,(%esp)
    14d0:	e8 eb 5a 00 00       	call   6fc0 <fibril_condvar_broadcast@plt>
    14d5:	83 c4 10             	add    $0x10,%esp
    14d8:	31 c0                	xor    %eax,%eax
    14da:	8d 65 f8             	lea    -0x8(%ebp),%esp
    14dd:	5b                   	pop    %ebx
    14de:	5e                   	pop    %esi
    14df:	5d                   	pop    %ebp
    14e0:	c3                   	ret    
    14e1:	b8 fe ff ff ff       	mov    $0xfffffffe,%eax
    14e6:	eb f2                	jmp    14da <atrans_add+0xca>
    14e8:	90                   	nop
    14e9:	8d b4 26 00 00 00 00 	lea    0x0(%esi,%eiz,1),%esi

000014f0 <atrans_remove>:
    14f0:	55                   	push   %ebp
    14f1:	89 e5                	mov    %esp,%ebp
    14f3:	56                   	push   %esi
    14f4:	53                   	push   %ebx
    14f5:	83 ec 0c             	sub    $0xc,%esp
    14f8:	8b 75 08             	mov    0x8(%ebp),%esi
    14fb:	68 b0 8d 00 00       	push   $0x8db0
    1500:	e8 bb 5c 00 00       	call   71c0 <fibril_mutex_lock@plt>
    1505:	8b 1d ac 8d 00 00    	mov    0x8dac,%ebx
    150b:	83 c4 10             	add    $0x10,%esp
    150e:	81 fb a8 8d 00 00    	cmp    $0x8da8,%ebx
    1514:	75 0d                	jne    1523 <atrans_remove+0x33>
    1516:	eb 58                	jmp    1570 <atrans_remove+0x80>
    1518:	8b 5b 04             	mov    0x4(%ebx),%ebx
    151b:	81 fb a8 8d 00 00    	cmp    $0x8da8,%ebx
    1521:	74 4d                	je     1570 <atrans_remove+0x80>
    1523:	3b 73 08             	cmp    0x8(%ebx),%esi
    1526:	75 f0                	jne    1518 <atrans_remove+0x28>
    1528:	8b 13                	mov    (%ebx),%edx
    152a:	85 d2                	test   %edx,%edx
    152c:	74 0e                	je     153c <atrans_remove+0x4c>
    152e:	8b 43 04             	mov    0x4(%ebx),%eax
    1531:	85 c0                	test   %eax,%eax
    1533:	74 07                	je     153c <atrans_remove+0x4c>
    1535:	89 10                	mov    %edx,(%eax)
    1537:	8b 13                	mov    (%ebx),%edx
    1539:	89 42 04             	mov    %eax,0x4(%edx)
    153c:	83 ec 0c             	sub    $0xc,%esp
    153f:	c7 03 00 00 00 00    	movl   $0x0,(%ebx)
    1545:	c7 43 04 00 00 00 00 	movl   $0x0,0x4(%ebx)
    154c:	68 b0 8d 00 00       	push   $0x8db0
    1551:	e8 aa 5a 00 00       	call   7000 <fibril_mutex_unlock@plt>
    1556:	89 1c 24             	mov    %ebx,(%esp)
    1559:	e8 52 5c 00 00       	call   71b0 <free@plt>
    155e:	83 c4 10             	add    $0x10,%esp
    1561:	31 c0                	xor    %eax,%eax
    1563:	8d 65 f8             	lea    -0x8(%ebp),%esp
    1566:	5b                   	pop    %ebx
    1567:	5e                   	pop    %esi
    1568:	5d                   	pop    %ebp
    1569:	c3                   	ret    
    156a:	8d b6 00 00 00 00    	lea    0x0(%esi),%esi
    1570:	83 ec 0c             	sub    $0xc,%esp
    1573:	68 b0 8d 00 00       	push   $0x8db0
    1578:	e8 83 5a 00 00       	call   7000 <fibril_mutex_unlock@plt>
    157d:	83 c4 10             	add    $0x10,%esp
    1580:	83 c8 ff             	or     $0xffffffff,%eax
    1583:	eb de                	jmp    1563 <atrans_remove+0x73>
    1585:	8d 74 26 00          	lea    0x0(%esi,%eiz,1),%esi
    1589:	8d bc 27 00 00 00 00 	lea    0x0(%edi,%eiz,1),%edi

00001590 <atrans_lookup>:
    1590:	55                   	push   %ebp
    1591:	89 e5                	mov    %esp,%ebp
    1593:	53                   	push   %ebx
    1594:	83 ec 10             	sub    $0x10,%esp
    1597:	8b 5d 08             	mov    0x8(%ebp),%ebx
    159a:	68 b0 8d 00 00       	push   $0x8db0
    159f:	e8 1c 5c 00 00       	call   71c0 <fibril_mutex_lock@plt>
    15a4:	a1 ac 8d 00 00       	mov    0x8dac,%eax
    15a9:	83 c4 10             	add    $0x10,%esp
    15ac:	3d a8 8d 00 00       	cmp    $0x8da8,%eax
    15b1:	75 0f                	jne    15c2 <atrans_lookup+0x32>
    15b3:	eb 3b                	jmp    15f0 <atrans_lookup+0x60>
    15b5:	8d 76 00             	lea    0x0(%esi),%esi
    15b8:	8b 40 04             	mov    0x4(%eax),%eax
    15bb:	3d a8 8d 00 00       	cmp    $0x8da8,%eax
    15c0:	74 2e                	je     15f0 <atrans_lookup+0x60>
    15c2:	3b 58 08             	cmp    0x8(%eax),%ebx
    15c5:	75 f1                	jne    15b8 <atrans_lookup+0x28>
    15c7:	8b 4d 0c             	mov    0xc(%ebp),%ecx
    15ca:	83 c0 0c             	add    $0xc,%eax
    15cd:	52                   	push   %edx
    15ce:	52                   	push   %edx
    15cf:	51                   	push   %ecx
    15d0:	50                   	push   %eax
    15d1:	31 db                	xor    %ebx,%ebx
    15d3:	e8 38 5b 00 00       	call   7110 <addr48@plt>
    15d8:	83 c4 10             	add    $0x10,%esp
    15db:	83 ec 0c             	sub    $0xc,%esp
    15de:	68 b0 8d 00 00       	push   $0x8db0
    15e3:	e8 18 5a 00 00       	call   7000 <fibril_mutex_unlock@plt>
    15e8:	89 d8                	mov    %ebx,%eax
    15ea:	8b 5d fc             	mov    -0x4(%ebp),%ebx
    15ed:	c9                   	leave  
    15ee:	c3                   	ret    
    15ef:	90                   	nop
    15f0:	83 cb ff             	or     $0xffffffff,%ebx
    15f3:	eb e6                	jmp    15db <atrans_lookup+0x4b>
    15f5:	8d 74 26 00          	lea    0x0(%esi,%eiz,1),%esi
    15f9:	8d bc 27 00 00 00 00 	lea    0x0(%edi,%eiz,1),%edi

00001600 <atrans_lookup_timeout>:
    1600:	55                   	push   %ebp
    1601:	89 e5                	mov    %esp,%ebp
    1603:	56                   	push   %esi
    1604:	53                   	push   %ebx
    1605:	83 ec 1c             	sub    $0x1c,%esp
    1608:	8b 75 08             	mov    0x8(%ebp),%esi
    160b:	6a 00                	push   $0x0
    160d:	e8 6e 5b 00 00       	call   7180 <fibril_timer_create@plt>
    1612:	83 c4 10             	add    $0x10,%esp
    1615:	85 c0                	test   %eax,%eax
    1617:	0f 84 ac 00 00 00    	je     16c9 <atrans_lookup_timeout+0xc9>
    161d:	89 c3                	mov    %eax,%ebx
    161f:	8d 45 f7             	lea    -0x9(%ebp),%eax
    1622:	50                   	push   %eax
    1623:	8b 45 0c             	mov    0xc(%ebp),%eax
    1626:	68 d0 13 00 00       	push   $0x13d0
    162b:	50                   	push   %eax
    162c:	53                   	push   %ebx
    162d:	c6 45 f7 00          	movb   $0x0,-0x9(%ebp)
    1631:	e8 6a 59 00 00       	call   6fa0 <fibril_timer_set@plt>
    1636:	c7 04 24 b0 8d 00 00 	movl   $0x8db0,(%esp)
    163d:	e8 7e 5b 00 00       	call   71c0 <fibril_mutex_lock@plt>
    1642:	83 c4 10             	add    $0x10,%esp
    1645:	8d 76 00             	lea    0x0(%esi),%esi
    1648:	a1 ac 8d 00 00       	mov    0x8dac,%eax
    164d:	3d a8 8d 00 00       	cmp    $0x8da8,%eax
    1652:	75 0e                	jne    1662 <atrans_lookup_timeout+0x62>
    1654:	eb 52                	jmp    16a8 <atrans_lookup_timeout+0xa8>
    1656:	66 90                	xchg   %ax,%ax
    1658:	8b 40 04             	mov    0x4(%eax),%eax
    165b:	3d a8 8d 00 00       	cmp    $0x8da8,%eax
    1660:	74 46                	je     16a8 <atrans_lookup_timeout+0xa8>
    1662:	3b 70 08             	cmp    0x8(%eax),%esi
    1665:	75 f1                	jne    1658 <atrans_lookup_timeout+0x58>
    1667:	8b 4d 10             	mov    0x10(%ebp),%ecx
    166a:	83 c0 0c             	add    $0xc,%eax
    166d:	52                   	push   %edx
    166e:	52                   	push   %edx
    166f:	51                   	push   %ecx
    1670:	50                   	push   %eax
    1671:	31 f6                	xor    %esi,%esi
    1673:	e8 98 5a 00 00       	call   7110 <addr48@plt>
    1678:	83 c4 10             	add    $0x10,%esp
    167b:	83 ec 0c             	sub    $0xc,%esp
    167e:	68 b0 8d 00 00       	push   $0x8db0
    1683:	e8 78 59 00 00       	call   7000 <fibril_mutex_unlock@plt>
    1688:	89 1c 24             	mov    %ebx,(%esp)
    168b:	e8 20 58 00 00       	call   6eb0 <fibril_timer_clear@plt>
    1690:	89 1c 24             	mov    %ebx,(%esp)
    1693:	e8 b8 58 00 00       	call   6f50 <fibril_timer_destroy@plt>
    1698:	83 c4 10             	add    $0x10,%esp
    169b:	8d 65 f8             	lea    -0x8(%ebp),%esp
    169e:	89 f0                	mov    %esi,%eax
    16a0:	5b                   	pop    %ebx
    16a1:	5e                   	pop    %esi
    16a2:	5d                   	pop    %ebp
    16a3:	c3                   	ret    
    16a4:	8d 74 26 00          	lea    0x0(%esi,%eiz,1),%esi
    16a8:	80 7d f7 00          	cmpb   $0x0,-0x9(%ebp)
    16ac:	75 16                	jne    16c4 <atrans_lookup_timeout+0xc4>
    16ae:	50                   	push   %eax
    16af:	50                   	push   %eax
    16b0:	68 b0 8d 00 00       	push   $0x8db0
    16b5:	68 a0 8d 00 00       	push   $0x8da0
    16ba:	e8 61 58 00 00       	call   6f20 <fibril_condvar_wait@plt>
    16bf:	83 c4 10             	add    $0x10,%esp
    16c2:	eb 84                	jmp    1648 <atrans_lookup_timeout+0x48>
    16c4:	83 ce ff             	or     $0xffffffff,%esi
    16c7:	eb b2                	jmp    167b <atrans_lookup_timeout+0x7b>
    16c9:	be fe ff ff ff       	mov    $0xfffffffe,%esi
    16ce:	eb cb                	jmp    169b <atrans_lookup_timeout+0x9b>

000016d0 <ethip_get_mtu>:
    16d0:	55                   	push   %ebp
    16d1:	89 e5                	mov    %esp,%ebp
    16d3:	83 ec 0c             	sub    $0xc,%esp
    16d6:	68 97 61 00 00       	push   $0x6197
    16db:	6a 04                	push   $0x4
    16dd:	6a ff                	push   $0xffffffff
    16df:	e8 5c 58 00 00       	call   6f40 <log_msg@plt>
    16e4:	8b 45 0c             	mov    0xc(%ebp),%eax
    16e7:	c7 00 dc 05 00 00    	movl   $0x5dc,(%eax)
    16ed:	31 c0                	xor    %eax,%eax
    16ef:	c9                   	leave  
    16f0:	c3                   	ret    
    16f1:	eb 0d                	jmp    1700 <ethip_close>
    16f3:	90                   	nop
    16f4:	90                   	nop
    16f5:	90                   	nop
    16f6:	90                   	nop
    16f7:	90                   	nop
    16f8:	90                   	nop
    16f9:	90                   	nop
    16fa:	90                   	nop
    16fb:	90                   	nop
    16fc:	90                   	nop
    16fd:	90                   	nop
    16fe:	90                   	nop
    16ff:	90                   	nop

00001700 <ethip_close>:
    1700:	55                   	push   %ebp
    1701:	89 e5                	mov    %esp,%ebp
    1703:	83 ec 0c             	sub    $0xc,%esp
    1706:	68 a7 61 00 00       	push   $0x61a7
    170b:	6a 04                	push   $0x4
    170d:	6a ff                	push   $0xffffffff
    170f:	e8 2c 58 00 00       	call   6f40 <log_msg@plt>
    1714:	31 c0                	xor    %eax,%eax
    1716:	c9                   	leave  
    1717:	c3                   	ret    
    1718:	90                   	nop
    1719:	8d b4 26 00 00 00 00 	lea    0x0(%esi,%eiz,1),%esi

00001720 <ethip_open>:
    1720:	55                   	push   %ebp
    1721:	89 e5                	mov    %esp,%ebp
    1723:	83 ec 0c             	sub    $0xc,%esp
    1726:	68 b5 61 00 00       	push   $0x61b5
    172b:	6a 04                	push   $0x4
    172d:	6a ff                	push   $0xffffffff
    172f:	e8 0c 58 00 00       	call   6f40 <log_msg@plt>
    1734:	31 c0                	xor    %eax,%eax
    1736:	c9                   	leave  
    1737:	c3                   	ret    
    1738:	90                   	nop
    1739:	8d b4 26 00 00 00 00 	lea    0x0(%esi,%eiz,1),%esi

00001740 <ethip_addr_remove>:
    1740:	55                   	push   %ebp
    1741:	89 e5                	mov    %esp,%ebp
    1743:	8b 45 08             	mov    0x8(%ebp),%eax
    1746:	8b 40 18             	mov    0x18(%eax),%eax
    1749:	89 45 08             	mov    %eax,0x8(%ebp)
    174c:	5d                   	pop    %ebp
    174d:	e9 4e 0f 00 00       	jmp    26a0 <ethip_nic_addr_remove>
    1752:	8d b4 26 00 00 00 00 	lea    0x0(%esi,%eiz,1),%esi
    1759:	8d bc 27 00 00 00 00 	lea    0x0(%edi,%eiz,1),%edi

00001760 <ethip_addr_add>:
    1760:	55                   	push   %ebp
    1761:	89 e5                	mov    %esp,%ebp
    1763:	8b 45 08             	mov    0x8(%ebp),%eax
    1766:	8b 40 18             	mov    0x18(%eax),%eax
    1769:	89 45 08             	mov    %eax,0x8(%ebp)
    176c:	5d                   	pop    %ebp
    176d:	e9 9e 0e 00 00       	jmp    2610 <ethip_nic_addr_add>
    1772:	8d b4 26 00 00 00 00 	lea    0x0(%esi,%eiz,1),%esi
    1779:	8d bc 27 00 00 00 00 	lea    0x0(%edi,%eiz,1),%edi

00001780 <ethip_set_mac48>:
    1780:	55                   	push   %ebp
    1781:	89 e5                	mov    %esp,%ebp
    1783:	83 ec 0c             	sub    $0xc,%esp
    1786:	68 c2 61 00 00       	push   $0x61c2
    178b:	6a 04                	push   $0x4
    178d:	6a ff                	push   $0xffffffff
    178f:	e8 ac 57 00 00       	call   6f40 <log_msg@plt>
    1794:	58                   	pop    %eax
    1795:	8b 45 08             	mov    0x8(%ebp),%eax
    1798:	8b 4d 0c             	mov    0xc(%ebp),%ecx
    179b:	5a                   	pop    %edx
    179c:	8b 40 18             	mov    0x18(%eax),%eax
    179f:	83 c0 38             	add    $0x38,%eax
    17a2:	50                   	push   %eax
    17a3:	51                   	push   %ecx
    17a4:	e8 67 59 00 00       	call   7110 <addr48@plt>
    17a9:	31 c0                	xor    %eax,%eax
    17ab:	c9                   	leave  
    17ac:	c3                   	ret    
    17ad:	8d 76 00             	lea    0x0(%esi),%esi

000017b0 <ethip_get_mac48>:
    17b0:	55                   	push   %ebp
    17b1:	89 e5                	mov    %esp,%ebp
    17b3:	83 ec 0c             	sub    $0xc,%esp
    17b6:	68 d4 61 00 00       	push   $0x61d4
    17bb:	6a 04                	push   $0x4
    17bd:	6a ff                	push   $0xffffffff
    17bf:	e8 7c 57 00 00       	call   6f40 <log_msg@plt>
    17c4:	58                   	pop    %eax
    17c5:	8b 4d 0c             	mov    0xc(%ebp),%ecx
    17c8:	8b 45 08             	mov    0x8(%ebp),%eax
    17cb:	5a                   	pop    %edx
    17cc:	51                   	push   %ecx
    17cd:	8b 40 18             	mov    0x18(%eax),%eax
    17d0:	83 c0 38             	add    $0x38,%eax
    17d3:	50                   	push   %eax
    17d4:	e8 37 59 00 00       	call   7110 <addr48@plt>
    17d9:	31 c0                	xor    %eax,%eax
    17db:	c9                   	leave  
    17dc:	c3                   	ret    
    17dd:	8d 76 00             	lea    0x0(%esi),%esi

000017e0 <ethip_send6>:
    17e0:	55                   	push   %ebp
    17e1:	89 e5                	mov    %esp,%ebp
    17e3:	57                   	push   %edi
    17e4:	56                   	push   %esi
    17e5:	53                   	push   %ebx
    17e6:	83 ec 40             	sub    $0x40,%esp
    17e9:	8b 5d 0c             	mov    0xc(%ebp),%ebx
    17ec:	68 e6 61 00 00       	push   $0x61e6
    17f1:	6a 04                	push   $0x4
    17f3:	6a ff                	push   $0xffffffff
    17f5:	e8 46 57 00 00       	call   6f40 <log_msg@plt>
    17fa:	8b 45 08             	mov    0x8(%ebp),%eax
    17fd:	5f                   	pop    %edi
    17fe:	8d 7d d0             	lea    -0x30(%ebp),%edi
    1801:	8b 70 18             	mov    0x18(%eax),%esi
    1804:	58                   	pop    %eax
    1805:	57                   	push   %edi
    1806:	53                   	push   %ebx
    1807:	e8 04 59 00 00       	call   7110 <addr48@plt>
    180c:	58                   	pop    %eax
    180d:	8d 45 d6             	lea    -0x2a(%ebp),%eax
    1810:	5a                   	pop    %edx
    1811:	50                   	push   %eax
    1812:	8d 46 38             	lea    0x38(%esi),%eax
    1815:	50                   	push   %eax
    1816:	e8 f5 58 00 00       	call   7110 <addr48@plt>
    181b:	8b 43 08             	mov    0x8(%ebx),%eax
    181e:	83 c4 0c             	add    $0xc,%esp
    1821:	89 45 e0             	mov    %eax,-0x20(%ebp)
    1824:	8b 43 0c             	mov    0xc(%ebx),%eax
    1827:	89 45 e4             	mov    %eax,-0x1c(%ebp)
    182a:	8d 45 cc             	lea    -0x34(%ebp),%eax
    182d:	50                   	push   %eax
    182e:	8d 45 c8             	lea    -0x38(%ebp),%eax
    1831:	50                   	push   %eax
    1832:	66 c7 45 dc dd 86    	movw   $0x86dd,-0x24(%ebp)
    1838:	57                   	push   %edi
    1839:	e8 92 0f 00 00       	call   27d0 <eth_pdu_encode>
    183e:	83 c4 10             	add    $0x10,%esp
    1841:	85 c0                	test   %eax,%eax
    1843:	75 22                	jne    1867 <ethip_send6+0x87>
    1845:	8b 55 cc             	mov    -0x34(%ebp),%edx
    1848:	8b 4d c8             	mov    -0x38(%ebp),%ecx
    184b:	50                   	push   %eax
    184c:	52                   	push   %edx
    184d:	51                   	push   %ecx
    184e:	56                   	push   %esi
    184f:	e8 6c 0d 00 00       	call   25c0 <ethip_nic_send>
    1854:	8b 75 c8             	mov    -0x38(%ebp),%esi
    1857:	5b                   	pop    %ebx
    1858:	56                   	push   %esi
    1859:	89 45 c4             	mov    %eax,-0x3c(%ebp)
    185c:	e8 4f 59 00 00       	call   71b0 <free@plt>
    1861:	83 c4 10             	add    $0x10,%esp
    1864:	8b 45 c4             	mov    -0x3c(%ebp),%eax
    1867:	8d 65 f4             	lea    -0xc(%ebp),%esp
    186a:	5b                   	pop    %ebx
    186b:	5e                   	pop    %esi
    186c:	5f                   	pop    %edi
    186d:	5d                   	pop    %ebp
    186e:	c3                   	ret    
    186f:	90                   	nop

00001870 <ethip_send>:
    1870:	55                   	push   %ebp
    1871:	89 e5                	mov    %esp,%ebp
    1873:	57                   	push   %edi
    1874:	56                   	push   %esi
    1875:	53                   	push   %ebx
    1876:	83 ec 40             	sub    $0x40,%esp
    1879:	8d 7d d0             	lea    -0x30(%ebp),%edi
    187c:	8b 5d 0c             	mov    0xc(%ebp),%ebx
    187f:	68 f4 61 00 00       	push   $0x61f4
    1884:	6a 04                	push   $0x4
    1886:	6a ff                	push   $0xffffffff
    1888:	e8 b3 56 00 00       	call   6f40 <log_msg@plt>
    188d:	8b 45 08             	mov    0x8(%ebp),%eax
    1890:	8b 70 18             	mov    0x18(%eax),%esi
    1893:	8b 43 04             	mov    0x4(%ebx),%eax
    1896:	57                   	push   %edi
    1897:	50                   	push   %eax
    1898:	8b 03                	mov    (%ebx),%eax
    189a:	50                   	push   %eax
    189b:	56                   	push   %esi
    189c:	e8 7f fa ff ff       	call   1320 <arp_translate>
    18a1:	83 c4 20             	add    $0x20,%esp
    18a4:	85 c0                	test   %eax,%eax
    18a6:	75 78                	jne    1920 <ethip_send+0xb0>
    18a8:	50                   	push   %eax
    18a9:	50                   	push   %eax
    18aa:	8d 45 d6             	lea    -0x2a(%ebp),%eax
    18ad:	50                   	push   %eax
    18ae:	8d 46 38             	lea    0x38(%esi),%eax
    18b1:	50                   	push   %eax
    18b2:	e8 59 58 00 00       	call   7110 <addr48@plt>
    18b7:	8b 43 08             	mov    0x8(%ebx),%eax
    18ba:	83 c4 0c             	add    $0xc,%esp
    18bd:	89 45 e0             	mov    %eax,-0x20(%ebp)
    18c0:	8b 43 0c             	mov    0xc(%ebx),%eax
    18c3:	89 45 e4             	mov    %eax,-0x1c(%ebp)
    18c6:	8d 45 cc             	lea    -0x34(%ebp),%eax
    18c9:	50                   	push   %eax
    18ca:	8d 45 c8             	lea    -0x38(%ebp),%eax
    18cd:	50                   	push   %eax
    18ce:	66 c7 45 dc 00 08    	movw   $0x800,-0x24(%ebp)
    18d4:	57                   	push   %edi
    18d5:	e8 f6 0e 00 00       	call   27d0 <eth_pdu_encode>
    18da:	83 c4 10             	add    $0x10,%esp
    18dd:	85 c0                	test   %eax,%eax
    18df:	74 0f                	je     18f0 <ethip_send+0x80>
    18e1:	8d 65 f4             	lea    -0xc(%ebp),%esp
    18e4:	5b                   	pop    %ebx
    18e5:	5e                   	pop    %esi
    18e6:	5f                   	pop    %edi
    18e7:	5d                   	pop    %ebp
    18e8:	c3                   	ret    
    18e9:	8d b4 26 00 00 00 00 	lea    0x0(%esi,%eiz,1),%esi
    18f0:	8b 55 cc             	mov    -0x34(%ebp),%edx
    18f3:	8b 4d c8             	mov    -0x38(%ebp),%ecx
    18f6:	50                   	push   %eax
    18f7:	52                   	push   %edx
    18f8:	51                   	push   %ecx
    18f9:	56                   	push   %esi
    18fa:	e8 c1 0c 00 00       	call   25c0 <ethip_nic_send>
    18ff:	8b 75 c8             	mov    -0x38(%ebp),%esi
    1902:	5b                   	pop    %ebx
    1903:	56                   	push   %esi
    1904:	89 45 c4             	mov    %eax,-0x3c(%ebp)
    1907:	e8 a4 58 00 00       	call   71b0 <free@plt>
    190c:	8b 45 c4             	mov    -0x3c(%ebp),%eax
    190f:	83 c4 10             	add    $0x10,%esp
    1912:	8d 65 f4             	lea    -0xc(%ebp),%esp
    1915:	5b                   	pop    %ebx
    1916:	5e                   	pop    %esi
    1917:	5f                   	pop    %edi
    1918:	5d                   	pop    %ebp
    1919:	c3                   	ret    
    191a:	8d b6 00 00 00 00    	lea    0x0(%esi),%esi
    1920:	89 45 c4             	mov    %eax,-0x3c(%ebp)
    1923:	8b 43 04             	mov    0x4(%ebx),%eax
    1926:	50                   	push   %eax
    1927:	68 38 63 00 00       	push   $0x6338
    192c:	6a 02                	push   $0x2
    192e:	6a ff                	push   $0xffffffff
    1930:	e8 0b 56 00 00       	call   6f40 <log_msg@plt>
    1935:	8b 45 c4             	mov    -0x3c(%ebp),%eax
    1938:	83 c4 10             	add    $0x10,%esp
    193b:	8d 65 f4             	lea    -0xc(%ebp),%esp
    193e:	5b                   	pop    %ebx
    193f:	5e                   	pop    %esi
    1940:	5f                   	pop    %edi
    1941:	5d                   	pop    %ebp
    1942:	c3                   	ret    
    1943:	8d b6 00 00 00 00    	lea    0x0(%esi),%esi
    1949:	8d bc 27 00 00 00 00 	lea    0x0(%edi,%eiz,1),%edi

00001950 <ethip_client_conn>:
    1950:	55                   	push   %ebp
    1951:	89 e5                	mov    %esp,%ebp
    1953:	57                   	push   %edi
    1954:	56                   	push   %esi
    1955:	53                   	push   %ebx
    1956:	83 ec 0c             	sub    $0xc,%esp
    1959:	8b 7d 0c             	mov    0xc(%ebp),%edi
    195c:	8b 5d 08             	mov    0x8(%ebp),%ebx
    195f:	8b 77 08             	mov    0x8(%edi),%esi
    1962:	56                   	push   %esi
    1963:	68 01 62 00 00       	push   $0x6201
    1968:	6a 04                	push   $0x4
    196a:	6a ff                	push   $0xffffffff
    196c:	e8 cf 55 00 00       	call   6f40 <log_msg@plt>
    1971:	89 34 24             	mov    %esi,(%esp)
    1974:	e8 b7 0b 00 00       	call   2530 <ethip_nic_find_by_iplink_sid>
    1979:	83 c4 10             	add    $0x10,%esp
    197c:	85 c0                	test   %eax,%eax
    197e:	74 18                	je     1998 <ethip_client_conn+0x48>
    1980:	83 c0 14             	add    $0x14,%eax
    1983:	89 7d 0c             	mov    %edi,0xc(%ebp)
    1986:	89 5d 08             	mov    %ebx,0x8(%ebp)
    1989:	89 45 10             	mov    %eax,0x10(%ebp)
    198c:	8d 65 f4             	lea    -0xc(%ebp),%esp
    198f:	5b                   	pop    %ebx
    1990:	5e                   	pop    %esi
    1991:	5f                   	pop    %edi
    1992:	5d                   	pop    %ebp
    1993:	e9 88 56 00 00       	jmp    7020 <iplink_conn@plt>
    1998:	c7 45 10 17 62 00 00 	movl   $0x6217,0x10(%ebp)
    199f:	c7 45 0c 02 00 00 00 	movl   $0x2,0xc(%ebp)
    19a6:	c7 45 08 ff ff ff ff 	movl   $0xffffffff,0x8(%ebp)
    19ad:	8d 65 f4             	lea    -0xc(%ebp),%esp
    19b0:	5b                   	pop    %ebx
    19b1:	5e                   	pop    %esi
    19b2:	5f                   	pop    %edi
    19b3:	5d                   	pop    %ebp
    19b4:	e9 87 55 00 00       	jmp    6f40 <log_msg@plt>
    19b9:	8d b4 26 00 00 00 00 	lea    0x0(%esi,%eiz,1),%esi

000019c0 <ethip_iplink_init>:
    19c0:	55                   	push   %ebp
    19c1:	89 e5                	mov    %esp,%ebp
    19c3:	53                   	push   %ebx
    19c4:	83 ec 28             	sub    $0x28,%esp
    19c7:	8b 5d 08             	mov    0x8(%ebp),%ebx
    19ca:	c7 45 f4 00 00 00 00 	movl   $0x0,-0xc(%ebp)
    19d1:	68 2a 62 00 00       	push   $0x622a
    19d6:	6a 04                	push   $0x4
    19d8:	6a ff                	push   $0xffffffff
    19da:	e8 61 55 00 00       	call   6f40 <log_msg@plt>
    19df:	8d 43 14             	lea    0x14(%ebx),%eax
    19e2:	89 04 24             	mov    %eax,(%esp)
    19e5:	e8 76 56 00 00       	call   7060 <iplink_srv_init@plt>
    19ea:	83 c4 0c             	add    $0xc,%esp
    19ed:	a1 14 8f 00 00       	mov    0x8f14,%eax
    19f2:	40                   	inc    %eax
    19f3:	c7 43 28 c0 8d 00 00 	movl   $0x8dc0,0x28(%ebx)
    19fa:	89 5b 2c             	mov    %ebx,0x2c(%ebx)
    19fd:	a3 14 8f 00 00       	mov    %eax,0x8f14
    1a02:	50                   	push   %eax
    1a03:	8d 45 f4             	lea    -0xc(%ebp),%eax
    1a06:	68 3e 62 00 00       	push   $0x623e
    1a0b:	50                   	push   %eax
    1a0c:	e8 8f 56 00 00       	call   70a0 <asprintf@plt>
    1a11:	83 c4 10             	add    $0x10,%esp
    1a14:	85 c0                	test   %eax,%eax
    1a16:	0f 88 9c 00 00 00    	js     1ab8 <ethip_iplink_init+0xf8>
    1a1c:	50                   	push   %eax
    1a1d:	50                   	push   %eax
    1a1e:	8d 45 ec             	lea    -0x14(%ebp),%eax
    1a21:	50                   	push   %eax
    1a22:	8b 45 f4             	mov    -0xc(%ebp),%eax
    1a25:	50                   	push   %eax
    1a26:	e8 65 54 00 00       	call   6e90 <loc_service_register@plt>
    1a2b:	83 c4 10             	add    $0x10,%esp
    1a2e:	89 45 e4             	mov    %eax,-0x1c(%ebp)
    1a31:	85 c0                	test   %eax,%eax
    1a33:	74 3b                	je     1a70 <ethip_iplink_init+0xb0>
    1a35:	8b 45 f4             	mov    -0xc(%ebp),%eax
    1a38:	50                   	push   %eax
    1a39:	68 5c 63 00 00       	push   $0x635c
    1a3e:	6a 01                	push   $0x1
    1a40:	6a ff                	push   $0xffffffff
    1a42:	e8 f9 54 00 00       	call   6f40 <log_msg@plt>
    1a47:	8b 55 f4             	mov    -0xc(%ebp),%edx
    1a4a:	83 c4 10             	add    $0x10,%esp
    1a4d:	8b 45 e4             	mov    -0x1c(%ebp),%eax
    1a50:	85 d2                	test   %edx,%edx
    1a52:	74 12                	je     1a66 <ethip_iplink_init+0xa6>
    1a54:	83 ec 0c             	sub    $0xc,%esp
    1a57:	89 45 e4             	mov    %eax,-0x1c(%ebp)
    1a5a:	52                   	push   %edx
    1a5b:	e8 50 57 00 00       	call   71b0 <free@plt>
    1a60:	83 c4 10             	add    $0x10,%esp
    1a63:	8b 45 e4             	mov    -0x1c(%ebp),%eax
    1a66:	8b 5d fc             	mov    -0x4(%ebp),%ebx
    1a69:	c9                   	leave  
    1a6a:	c3                   	ret    
    1a6b:	90                   	nop
    1a6c:	8d 74 26 00          	lea    0x0(%esi,%eiz,1),%esi
    1a70:	8b 45 ec             	mov    -0x14(%ebp),%eax
    1a73:	89 43 34             	mov    %eax,0x34(%ebx)
    1a76:	50                   	push   %eax
    1a77:	8d 45 f0             	lea    -0x10(%ebp),%eax
    1a7a:	6a 01                	push   $0x1
    1a7c:	50                   	push   %eax
    1a7d:	68 57 62 00 00       	push   $0x6257
    1a82:	e8 79 53 00 00       	call   6e00 <loc_category_get_id@plt>
    1a87:	83 c4 10             	add    $0x10,%esp
    1a8a:	89 45 e4             	mov    %eax,-0x1c(%ebp)
    1a8d:	85 c0                	test   %eax,%eax
    1a8f:	75 37                	jne    1ac8 <ethip_iplink_init+0x108>
    1a91:	8b 4d f0             	mov    -0x10(%ebp),%ecx
    1a94:	8b 5d ec             	mov    -0x14(%ebp),%ebx
    1a97:	52                   	push   %edx
    1a98:	52                   	push   %edx
    1a99:	51                   	push   %ecx
    1a9a:	53                   	push   %ebx
    1a9b:	e8 90 55 00 00       	call   7030 <loc_service_add_to_cat@plt>
    1aa0:	83 c4 10             	add    $0x10,%esp
    1aa3:	85 c0                	test   %eax,%eax
    1aa5:	74 bf                	je     1a66 <ethip_iplink_init+0xa6>
    1aa7:	89 45 e4             	mov    %eax,-0x1c(%ebp)
    1aaa:	8b 45 f4             	mov    -0xc(%ebp),%eax
    1aad:	50                   	push   %eax
    1aae:	68 5e 62 00 00       	push   $0x625e
    1ab3:	eb 89                	jmp    1a3e <ethip_iplink_init+0x7e>
    1ab5:	8d 76 00             	lea    0x0(%esi),%esi
    1ab8:	89 45 e4             	mov    %eax,-0x1c(%ebp)
    1abb:	50                   	push   %eax
    1abc:	68 48 62 00 00       	push   $0x6248
    1ac1:	e9 78 ff ff ff       	jmp    1a3e <ethip_iplink_init+0x7e>
    1ac6:	66 90                	xchg   %ax,%ax
    1ac8:	50                   	push   %eax
    1ac9:	68 7c 63 00 00       	push   $0x637c
    1ace:	e9 6b ff ff ff       	jmp    1a3e <ethip_iplink_init+0x7e>
    1ad3:	8d b6 00 00 00 00    	lea    0x0(%esi),%esi
    1ad9:	8d bc 27 00 00 00 00 	lea    0x0(%edi,%eiz,1),%edi

00001ae0 <ethip_received>:
    1ae0:	55                   	push   %ebp
    1ae1:	89 e5                	mov    %esp,%ebp
    1ae3:	56                   	push   %esi
    1ae4:	53                   	push   %ebx
    1ae5:	83 ec 30             	sub    $0x30,%esp
    1ae8:	8d 75 e0             	lea    -0x20(%ebp),%esi
    1aeb:	8b 5d 08             	mov    0x8(%ebp),%ebx
    1aee:	53                   	push   %ebx
    1aef:	68 7c 62 00 00       	push   $0x627c
    1af4:	6a 04                	push   $0x4
    1af6:	6a ff                	push   $0xffffffff
    1af8:	e8 43 54 00 00       	call   6f40 <log_msg@plt>
    1afd:	83 c4 0c             	add    $0xc,%esp
    1b00:	8b 5b 18             	mov    0x18(%ebx),%ebx
    1b03:	68 95 62 00 00       	push   $0x6295
    1b08:	6a 04                	push   $0x4
    1b0a:	6a ff                	push   $0xffffffff
    1b0c:	e8 2f 54 00 00       	call   6f40 <log_msg@plt>
    1b11:	83 c4 0c             	add    $0xc,%esp
    1b14:	8b 45 10             	mov    0x10(%ebp),%eax
    1b17:	56                   	push   %esi
    1b18:	50                   	push   %eax
    1b19:	8b 45 0c             	mov    0xc(%ebp),%eax
    1b1c:	50                   	push   %eax
    1b1d:	e8 4e 0d 00 00       	call   2870 <eth_pdu_decode>
    1b22:	83 c4 10             	add    $0x10,%esp
    1b25:	85 c0                	test   %eax,%eax
    1b27:	75 5f                	jne    1b88 <ethip_received+0xa8>
    1b29:	8b 55 ec             	mov    -0x14(%ebp),%edx
    1b2c:	66 81 fa 06 08       	cmp    $0x806,%dx
    1b31:	0f 84 f1 00 00 00    	je     1c28 <ethip_received+0x148>
    1b37:	66 81 fa dd 86       	cmp    $0x86dd,%dx
    1b3c:	74 6a                	je     1ba8 <ethip_received+0xc8>
    1b3e:	66 81 fa 00 08       	cmp    $0x800,%dx
    1b43:	0f 84 a7 00 00 00    	je     1bf0 <ethip_received+0x110>
    1b49:	81 e2 ff ff 00 00    	and    $0xffff,%edx
    1b4f:	89 45 d4             	mov    %eax,-0x2c(%ebp)
    1b52:	52                   	push   %edx
    1b53:	68 fe 62 00 00       	push   $0x62fe
    1b58:	6a 04                	push   $0x4
    1b5a:	6a ff                	push   $0xffffffff
    1b5c:	e8 df 53 00 00       	call   6f40 <log_msg@plt>
    1b61:	83 c4 10             	add    $0x10,%esp
    1b64:	8b 45 d4             	mov    -0x2c(%ebp),%eax
    1b67:	83 ec 0c             	sub    $0xc,%esp
    1b6a:	89 45 d4             	mov    %eax,-0x2c(%ebp)
    1b6d:	8b 45 f0             	mov    -0x10(%ebp),%eax
    1b70:	50                   	push   %eax
    1b71:	e8 3a 56 00 00       	call   71b0 <free@plt>
    1b76:	8b 45 d4             	mov    -0x2c(%ebp),%eax
    1b79:	83 c4 10             	add    $0x10,%esp
    1b7c:	8d 65 f8             	lea    -0x8(%ebp),%esp
    1b7f:	5b                   	pop    %ebx
    1b80:	5e                   	pop    %esi
    1b81:	5d                   	pop    %ebp
    1b82:	c3                   	ret    
    1b83:	90                   	nop
    1b84:	8d 74 26 00          	lea    0x0(%esi,%eiz,1),%esi
    1b88:	89 45 d4             	mov    %eax,-0x2c(%ebp)
    1b8b:	50                   	push   %eax
    1b8c:	68 a7 62 00 00       	push   $0x62a7
    1b91:	6a 04                	push   $0x4
    1b93:	6a ff                	push   $0xffffffff
    1b95:	e8 a6 53 00 00       	call   6f40 <log_msg@plt>
    1b9a:	8b 45 d4             	mov    -0x2c(%ebp),%eax
    1b9d:	83 c4 10             	add    $0x10,%esp
    1ba0:	8d 65 f8             	lea    -0x8(%ebp),%esp
    1ba3:	5b                   	pop    %ebx
    1ba4:	5e                   	pop    %esi
    1ba5:	5d                   	pop    %ebp
    1ba6:	c3                   	ret    
    1ba7:	90                   	nop
    1ba8:	52                   	push   %edx
    1ba9:	68 e8 62 00 00       	push   $0x62e8
    1bae:	6a 04                	push   $0x4
    1bb0:	6a ff                	push   $0xffffffff
    1bb2:	e8 89 53 00 00       	call   6f40 <log_msg@plt>
    1bb7:	83 c4 0c             	add    $0xc,%esp
    1bba:	8b 45 f0             	mov    -0x10(%ebp),%eax
    1bbd:	68 d1 62 00 00       	push   $0x62d1
    1bc2:	89 45 d8             	mov    %eax,-0x28(%ebp)
    1bc5:	6a 04                	push   $0x4
    1bc7:	8b 45 f4             	mov    -0xc(%ebp),%eax
    1bca:	6a ff                	push   $0xffffffff
    1bcc:	89 45 dc             	mov    %eax,-0x24(%ebp)
    1bcf:	e8 6c 53 00 00       	call   6f40 <log_msg@plt>
    1bd4:	83 c4 0c             	add    $0xc,%esp
    1bd7:	6a 02                	push   $0x2
    1bd9:	8d 45 d8             	lea    -0x28(%ebp),%eax
    1bdc:	83 c3 14             	add    $0x14,%ebx
    1bdf:	50                   	push   %eax
    1be0:	53                   	push   %ebx
    1be1:	e8 ea 52 00 00       	call   6ed0 <iplink_ev_recv@plt>
    1be6:	83 c4 10             	add    $0x10,%esp
    1be9:	e9 79 ff ff ff       	jmp    1b67 <ethip_received+0x87>
    1bee:	66 90                	xchg   %ax,%ax
    1bf0:	51                   	push   %ecx
    1bf1:	68 c0 62 00 00       	push   $0x62c0
    1bf6:	6a 04                	push   $0x4
    1bf8:	6a ff                	push   $0xffffffff
    1bfa:	e8 41 53 00 00       	call   6f40 <log_msg@plt>
    1bff:	83 c4 0c             	add    $0xc,%esp
    1c02:	8b 45 f0             	mov    -0x10(%ebp),%eax
    1c05:	68 d1 62 00 00       	push   $0x62d1
    1c0a:	89 45 d8             	mov    %eax,-0x28(%ebp)
    1c0d:	6a 04                	push   $0x4
    1c0f:	8b 45 f4             	mov    -0xc(%ebp),%eax
    1c12:	6a ff                	push   $0xffffffff
    1c14:	89 45 dc             	mov    %eax,-0x24(%ebp)
    1c17:	e8 24 53 00 00       	call   6f40 <log_msg@plt>
    1c1c:	83 c4 0c             	add    $0xc,%esp
    1c1f:	6a 01                	push   $0x1
    1c21:	eb b6                	jmp    1bd9 <ethip_received+0xf9>
    1c23:	90                   	nop
    1c24:	8d 74 26 00          	lea    0x0(%esi,%eiz,1),%esi
    1c28:	89 45 d4             	mov    %eax,-0x2c(%ebp)
    1c2b:	50                   	push   %eax
    1c2c:	50                   	push   %eax
    1c2d:	56                   	push   %esi
    1c2e:	53                   	push   %ebx
    1c2f:	e8 ec f5 ff ff       	call   1220 <arp_received>
    1c34:	83 c4 10             	add    $0x10,%esp
    1c37:	8b 45 d4             	mov    -0x2c(%ebp),%eax
    1c3a:	e9 28 ff ff ff       	jmp    1b67 <ethip_received+0x87>
    1c3f:	90                   	nop

00001c40 <main>:
    1c40:	8d 4c 24 04          	lea    0x4(%esp),%ecx
    1c44:	83 e4 f0             	and    $0xfffffff0,%esp
    1c47:	ff 71 fc             	pushl  -0x4(%ecx)
    1c4a:	55                   	push   %ebp
    1c4b:	89 e5                	mov    %esp,%ebp
    1c4d:	53                   	push   %ebx
    1c4e:	51                   	push   %ecx
    1c4f:	83 ec 0c             	sub    $0xc,%esp
    1c52:	68 a0 63 00 00       	push   $0x63a0
    1c57:	e8 d4 51 00 00       	call   6e30 <printf@plt>
    1c5c:	c7 04 24 16 63 00 00 	movl   $0x6316,(%esp)
    1c63:	e8 08 52 00 00       	call   6e70 <log_init@plt>
    1c68:	83 c4 10             	add    $0x10,%esp
    1c6b:	85 c0                	test   %eax,%eax
    1c6d:	0f 85 88 00 00 00    	jne    1cfb <main+0xbb>
    1c73:	51                   	push   %ecx
    1c74:	51                   	push   %ecx
    1c75:	6a 00                	push   $0x0
    1c77:	68 50 19 00 00       	push   $0x1950
    1c7c:	e8 0f 55 00 00       	call   7190 <async_set_fallback_port_handler@plt>
    1c81:	c7 04 24 16 63 00 00 	movl   $0x6316,(%esp)
    1c88:	e8 23 54 00 00       	call   70b0 <loc_server_register@plt>
    1c8d:	83 c4 10             	add    $0x10,%esp
    1c90:	85 c0                	test   %eax,%eax
    1c92:	75 44                	jne    1cd8 <main+0x98>
    1c94:	e8 57 08 00 00       	call   24f0 <ethip_nic_discovery_start>
    1c99:	89 c3                	mov    %eax,%ebx
    1c9b:	85 c0                	test   %eax,%eax
    1c9d:	75 73                	jne    1d12 <main+0xd2>
    1c9f:	83 ec 0c             	sub    $0xc,%esp
    1ca2:	68 f4 63 00 00       	push   $0x63f4
    1ca7:	e8 84 51 00 00       	call   6e30 <printf@plt>
    1cac:	c7 04 24 00 00 00 00 	movl   $0x0,(%esp)
    1cb3:	e8 58 51 00 00       	call   6e10 <task_retval@plt>
    1cb8:	83 c8 ff             	or     $0xffffffff,%eax
    1cbb:	f0 0f c1 05 0c 8f 00 	lock xadd %eax,0x8f0c
    1cc2:	00 
    1cc3:	83 c4 10             	add    $0x10,%esp
    1cc6:	48                   	dec    %eax
    1cc7:	78 50                	js     1d19 <main+0xd9>
    1cc9:	83 ec 0c             	sub    $0xc,%esp
    1ccc:	6a 03                	push   $0x3
    1cce:	e8 8d 54 00 00       	call   7160 <fibril_switch@plt>
    1cd3:	83 c4 10             	add    $0x10,%esp
    1cd6:	eb 17                	jmp    1cef <main+0xaf>
    1cd8:	52                   	push   %edx
    1cd9:	68 1c 63 00 00       	push   $0x631c
    1cde:	6a 01                	push   $0x1
    1ce0:	6a ff                	push   $0xffffffff
    1ce2:	bb 01 00 00 00       	mov    $0x1,%ebx
    1ce7:	e8 54 52 00 00       	call   6f40 <log_msg@plt>
    1cec:	83 c4 10             	add    $0x10,%esp
    1cef:	8d 65 f8             	lea    -0x8(%ebp),%esp
    1cf2:	89 d8                	mov    %ebx,%eax
    1cf4:	59                   	pop    %ecx
    1cf5:	5b                   	pop    %ebx
    1cf6:	5d                   	pop    %ebp
    1cf7:	8d 61 fc             	lea    -0x4(%ecx),%esp
    1cfa:	c3                   	ret    
    1cfb:	83 ec 0c             	sub    $0xc,%esp
    1cfe:	bb 01 00 00 00       	mov    $0x1,%ebx
    1d03:	68 cc 63 00 00       	push   $0x63cc
    1d08:	e8 23 51 00 00       	call   6e30 <printf@plt>
    1d0d:	83 c4 10             	add    $0x10,%esp
    1d10:	eb dd                	jmp    1cef <main+0xaf>
    1d12:	bb 01 00 00 00       	mov    $0x1,%ebx
    1d17:	eb d6                	jmp    1cef <main+0xaf>
    1d19:	50                   	push   %eax
    1d1a:	6a 0b                	push   $0xb
    1d1c:	6a 00                	push   $0x0
    1d1e:	6a 00                	push   $0x0
    1d20:	6a 00                	push   $0x0
    1d22:	6a 00                	push   $0x0
    1d24:	6a 00                	push   $0x0
    1d26:	68 0c 8f 00 00       	push   $0x8f0c
    1d2b:	ff 15 08 8f 00 00    	call   *0x8f08
    1d31:	83 c4 20             	add    $0x20,%esp
    1d34:	eb 93                	jmp    1cc9 <main+0x89>
    1d36:	66 90                	xchg   %ax,%ax
    1d38:	66 90                	xchg   %ax,%ax
    1d3a:	66 90                	xchg   %ax,%ax
    1d3c:	66 90                	xchg   %ax,%ax
    1d3e:	66 90                	xchg   %ax,%ax

00001d40 <ethip_nic_check_new>:
    1d40:	55                   	push   %ebp
    1d41:	89 e5                	mov    %esp,%ebp
    1d43:	57                   	push   %edi
    1d44:	56                   	push   %esi
    1d45:	53                   	push   %ebx
    1d46:	83 ec 48             	sub    $0x48,%esp
    1d49:	68 e4 8d 00 00       	push   $0x8de4
    1d4e:	e8 6d 54 00 00       	call   71c0 <fibril_mutex_lock@plt>
    1d53:	83 c4 0c             	add    $0xc,%esp
    1d56:	8d 45 d4             	lea    -0x2c(%ebp),%eax
    1d59:	6a 01                	push   $0x1
    1d5b:	50                   	push   %eax
    1d5c:	68 13 64 00 00       	push   $0x6413
    1d61:	e8 9a 50 00 00       	call   6e00 <loc_category_get_id@plt>
    1d66:	83 c4 10             	add    $0x10,%esp
    1d69:	85 c0                	test   %eax,%eax
    1d6b:	0f 85 c7 02 00 00    	jne    2038 <ethip_nic_check_new+0x2f8>
    1d71:	8d 45 dc             	lea    -0x24(%ebp),%eax
    1d74:	8b 7d d4             	mov    -0x2c(%ebp),%edi
    1d77:	56                   	push   %esi
    1d78:	50                   	push   %eax
    1d79:	8d 45 d8             	lea    -0x28(%ebp),%eax
    1d7c:	50                   	push   %eax
    1d7d:	57                   	push   %edi
    1d7e:	e8 4d 53 00 00       	call   70d0 <loc_category_get_svcs@plt>
    1d83:	83 c4 10             	add    $0x10,%esp
    1d86:	89 45 c0             	mov    %eax,-0x40(%ebp)
    1d89:	85 c0                	test   %eax,%eax
    1d8b:	0f 85 d7 02 00 00    	jne    2068 <ethip_nic_check_new+0x328>
    1d91:	8b 7d dc             	mov    -0x24(%ebp),%edi
    1d94:	31 f6                	xor    %esi,%esi
    1d96:	85 ff                	test   %edi,%edi
    1d98:	0f 84 0b 01 00 00    	je     1ea9 <ethip_nic_check_new+0x169>
    1d9e:	a1 f8 8d 00 00       	mov    0x8df8,%eax
    1da3:	8d 1c b5 00 00 00 00 	lea    0x0(,%esi,4),%ebx
    1daa:	3d f4 8d 00 00       	cmp    $0x8df4,%eax
    1daf:	0f 84 0f 01 00 00    	je     1ec4 <ethip_nic_check_new+0x184>
    1db5:	8b 55 d8             	mov    -0x28(%ebp),%edx
    1db8:	8b 14 1a             	mov    (%edx,%ebx,1),%edx
    1dbb:	3b 50 08             	cmp    0x8(%eax),%edx
    1dbe:	75 11                	jne    1dd1 <ethip_nic_check_new+0x91>
    1dc0:	e9 db 00 00 00       	jmp    1ea0 <ethip_nic_check_new+0x160>
    1dc5:	8d 76 00             	lea    0x0(%esi),%esi
    1dc8:	39 50 08             	cmp    %edx,0x8(%eax)
    1dcb:	0f 84 cf 00 00 00    	je     1ea0 <ethip_nic_check_new+0x160>
    1dd1:	8b 40 04             	mov    0x4(%eax),%eax
    1dd4:	3d f4 8d 00 00       	cmp    $0x8df4,%eax
    1dd9:	75 ed                	jne    1dc8 <ethip_nic_check_new+0x88>
    1ddb:	52                   	push   %edx
    1ddc:	68 17 64 00 00       	push   $0x6417
    1de1:	6a 04                	push   $0x4
    1de3:	6a ff                	push   $0xffffffff
    1de5:	e8 56 51 00 00       	call   6f40 <log_msg@plt>
    1dea:	8b 45 d8             	mov    -0x28(%ebp),%eax
    1ded:	83 c4 0c             	add    $0xc,%esp
    1df0:	8b 04 18             	mov    (%eax,%ebx,1),%eax
    1df3:	89 45 c4             	mov    %eax,-0x3c(%ebp)
    1df6:	68 27 64 00 00       	push   $0x6427
    1dfb:	6a 04                	push   $0x4
    1dfd:	6a ff                	push   $0xffffffff
    1dff:	e8 3c 51 00 00       	call   6f40 <log_msg@plt>
    1e04:	5a                   	pop    %edx
    1e05:	59                   	pop    %ecx
    1e06:	6a 48                	push   $0x48
    1e08:	6a 01                	push   $0x1
    1e0a:	e8 81 51 00 00       	call   6f90 <calloc@plt>
    1e0f:	83 c4 10             	add    $0x10,%esp
    1e12:	89 c7                	mov    %eax,%edi
    1e14:	85 c0                	test   %eax,%eax
    1e16:	0f 84 08 01 00 00    	je     1f24 <ethip_nic_check_new+0x1e4>
    1e1c:	c7 00 00 00 00 00    	movl   $0x0,(%eax)
    1e22:	c7 40 04 00 00 00 00 	movl   $0x0,0x4(%eax)
    1e29:	8d 40 40             	lea    0x40(%eax),%eax
    1e2c:	89 47 40             	mov    %eax,0x40(%edi)
    1e2f:	89 47 44             	mov    %eax,0x44(%edi)
    1e32:	50                   	push   %eax
    1e33:	50                   	push   %eax
    1e34:	8d 47 0c             	lea    0xc(%edi),%eax
    1e37:	50                   	push   %eax
    1e38:	8b 45 c4             	mov    -0x3c(%ebp),%eax
    1e3b:	50                   	push   %eax
    1e3c:	e8 2f 51 00 00       	call   6f70 <loc_service_get_name@plt>
    1e41:	83 c4 10             	add    $0x10,%esp
    1e44:	89 c3                	mov    %eax,%ebx
    1e46:	85 c0                	test   %eax,%eax
    1e48:	0f 84 81 00 00 00    	je     1ecf <ethip_nic_check_new+0x18f>
    1e4e:	50                   	push   %eax
    1e4f:	68 38 64 00 00       	push   $0x6438
    1e54:	6a 01                	push   $0x1
    1e56:	6a ff                	push   $0xffffffff
    1e58:	e8 e3 50 00 00       	call   6f40 <log_msg@plt>
    1e5d:	83 c4 10             	add    $0x10,%esp
    1e60:	8b 47 10             	mov    0x10(%edi),%eax
    1e63:	85 c0                	test   %eax,%eax
    1e65:	74 0c                	je     1e73 <ethip_nic_check_new+0x133>
    1e67:	83 ec 0c             	sub    $0xc,%esp
    1e6a:	50                   	push   %eax
    1e6b:	e8 d0 4f 00 00       	call   6e40 <async_hangup@plt>
    1e70:	83 c4 10             	add    $0x10,%esp
    1e73:	8b 47 0c             	mov    0xc(%edi),%eax
    1e76:	85 c0                	test   %eax,%eax
    1e78:	74 0c                	je     1e86 <ethip_nic_check_new+0x146>
    1e7a:	83 ec 0c             	sub    $0xc,%esp
    1e7d:	50                   	push   %eax
    1e7e:	e8 2d 53 00 00       	call   71b0 <free@plt>
    1e83:	83 c4 10             	add    $0x10,%esp
    1e86:	83 ec 0c             	sub    $0xc,%esp
    1e89:	57                   	push   %edi
    1e8a:	e8 21 53 00 00       	call   71b0 <free@plt>
    1e8f:	83 c4 10             	add    $0x10,%esp
    1e92:	85 db                	test   %ebx,%ebx
    1e94:	0f 85 9c 00 00 00    	jne    1f36 <ethip_nic_check_new+0x1f6>
    1e9a:	8b 7d dc             	mov    -0x24(%ebp),%edi
    1e9d:	8d 76 00             	lea    0x0(%esi),%esi
    1ea0:	46                   	inc    %esi
    1ea1:	39 fe                	cmp    %edi,%esi
    1ea3:	0f 82 f5 fe ff ff    	jb     1d9e <ethip_nic_check_new+0x5e>
    1ea9:	83 ec 0c             	sub    $0xc,%esp
    1eac:	68 e4 8d 00 00       	push   $0x8de4
    1eb1:	e8 4a 51 00 00       	call   7000 <fibril_mutex_unlock@plt>
    1eb6:	8b 45 c0             	mov    -0x40(%ebp),%eax
    1eb9:	83 c4 10             	add    $0x10,%esp
    1ebc:	8d 65 f4             	lea    -0xc(%ebp),%esp
    1ebf:	5b                   	pop    %ebx
    1ec0:	5e                   	pop    %esi
    1ec1:	5f                   	pop    %edi
    1ec2:	5d                   	pop    %ebp
    1ec3:	c3                   	ret    
    1ec4:	8b 45 d8             	mov    -0x28(%ebp),%eax
    1ec7:	8b 14 18             	mov    (%eax,%ebx,1),%edx
    1eca:	e9 0c ff ff ff       	jmp    1ddb <ethip_nic_check_new+0x9b>
    1ecf:	50                   	push   %eax
    1ed0:	8b 45 c4             	mov    -0x3c(%ebp),%eax
    1ed3:	6a 00                	push   $0x0
    1ed5:	68 41 26 9b 41       	push   $0x419b2641
    1eda:	50                   	push   %eax
    1edb:	e8 40 4f 00 00       	call   6e20 <loc_service_connect@plt>
    1ee0:	83 c4 10             	add    $0x10,%esp
    1ee3:	89 47 10             	mov    %eax,0x10(%edi)
    1ee6:	85 c0                	test   %eax,%eax
    1ee8:	0f 84 c2 00 00 00    	je     1fb0 <ethip_nic_check_new+0x270>
    1eee:	8b 4d c4             	mov    -0x3c(%ebp),%ecx
    1ef1:	89 4f 08             	mov    %ecx,0x8(%edi)
    1ef4:	52                   	push   %edx
    1ef5:	57                   	push   %edi
    1ef6:	68 d0 22 00 00       	push   $0x22d0
    1efb:	50                   	push   %eax
    1efc:	e8 ff 2b 00 00       	call   4b00 <nic_callback_create>
    1f01:	83 c4 10             	add    $0x10,%esp
    1f04:	89 c3                	mov    %eax,%ebx
    1f06:	85 c0                	test   %eax,%eax
    1f08:	74 46                	je     1f50 <ethip_nic_check_new+0x210>
    1f0a:	8b 47 0c             	mov    0xc(%edi),%eax
    1f0d:	50                   	push   %eax
    1f0e:	68 80 66 00 00       	push   $0x6680
    1f13:	6a 01                	push   $0x1
    1f15:	6a ff                	push   $0xffffffff
    1f17:	e8 24 50 00 00       	call   6f40 <log_msg@plt>
    1f1c:	83 c4 10             	add    $0x10,%esp
    1f1f:	e9 3c ff ff ff       	jmp    1e60 <ethip_nic_check_new+0x120>
    1f24:	50                   	push   %eax
    1f25:	68 50 66 00 00       	push   $0x6650
    1f2a:	6a 01                	push   $0x1
    1f2c:	6a ff                	push   $0xffffffff
    1f2e:	e8 0d 50 00 00       	call   6f40 <log_msg@plt>
    1f33:	83 c4 10             	add    $0x10,%esp
    1f36:	50                   	push   %eax
    1f37:	68 b4 64 00 00       	push   $0x64b4
    1f3c:	6a 01                	push   $0x1
    1f3e:	6a ff                	push   $0xffffffff
    1f40:	e8 fb 4f 00 00       	call   6f40 <log_msg@plt>
    1f45:	8b 7d dc             	mov    -0x24(%ebp),%edi
    1f48:	83 c4 10             	add    $0x10,%esp
    1f4b:	e9 50 ff ff ff       	jmp    1ea0 <ethip_nic_check_new+0x160>
    1f50:	8b 47 0c             	mov    0xc(%edi),%eax
    1f53:	50                   	push   %eax
    1f54:	68 6c 64 00 00       	push   $0x646c
    1f59:	6a 04                	push   $0x4
    1f5b:	6a ff                	push   $0xffffffff
    1f5d:	e8 de 4f 00 00       	call   6f40 <log_msg@plt>
    1f62:	a1 f4 8d 00 00       	mov    0x8df4,%eax
    1f67:	c7 47 04 f4 8d 00 00 	movl   $0x8df4,0x4(%edi)
    1f6e:	89 07                	mov    %eax,(%edi)
    1f70:	89 78 04             	mov    %edi,0x4(%eax)
    1f73:	89 3d f4 8d 00 00    	mov    %edi,0x8df4
    1f79:	89 3c 24             	mov    %edi,(%esp)
    1f7c:	e8 3f fa ff ff       	call   19c0 <ethip_iplink_init>
    1f81:	83 c4 10             	add    $0x10,%esp
    1f84:	89 c3                	mov    %eax,%ebx
    1f86:	85 c0                	test   %eax,%eax
    1f88:	74 40                	je     1fca <ethip_nic_check_new+0x28a>
    1f8a:	8b 0f                	mov    (%edi),%ecx
    1f8c:	85 c9                	test   %ecx,%ecx
    1f8e:	74 0e                	je     1f9e <ethip_nic_check_new+0x25e>
    1f90:	8b 47 04             	mov    0x4(%edi),%eax
    1f93:	85 c0                	test   %eax,%eax
    1f95:	74 07                	je     1f9e <ethip_nic_check_new+0x25e>
    1f97:	89 08                	mov    %ecx,(%eax)
    1f99:	8b 0f                	mov    (%edi),%ecx
    1f9b:	89 41 04             	mov    %eax,0x4(%ecx)
    1f9e:	c7 07 00 00 00 00    	movl   $0x0,(%edi)
    1fa4:	c7 47 04 00 00 00 00 	movl   $0x0,0x4(%edi)
    1fab:	e9 b0 fe ff ff       	jmp    1e60 <ethip_nic_check_new+0x120>
    1fb0:	8b 4f 0c             	mov    0xc(%edi),%ecx
    1fb3:	51                   	push   %ecx
    1fb4:	68 55 64 00 00       	push   $0x6455
    1fb9:	6a 01                	push   $0x1
    1fbb:	6a ff                	push   $0xffffffff
    1fbd:	e8 7e 4f 00 00       	call   6f40 <log_msg@plt>
    1fc2:	83 c4 10             	add    $0x10,%esp
    1fc5:	e9 96 fe ff ff       	jmp    1e60 <ethip_nic_check_new+0x120>
    1fca:	50                   	push   %eax
    1fcb:	50                   	push   %eax
    1fcc:	8d 45 e2             	lea    -0x1e(%ebp),%eax
    1fcf:	50                   	push   %eax
    1fd0:	8b 47 10             	mov    0x10(%edi),%eax
    1fd3:	50                   	push   %eax
    1fd4:	e8 87 2c 00 00       	call   4c60 <nic_get_address>
    1fd9:	83 c4 10             	add    $0x10,%esp
    1fdc:	89 c3                	mov    %eax,%ebx
    1fde:	85 c0                	test   %eax,%eax
    1fe0:	74 17                	je     1ff9 <ethip_nic_check_new+0x2b9>
    1fe2:	8b 47 0c             	mov    0xc(%edi),%eax
    1fe5:	50                   	push   %eax
    1fe6:	68 b0 66 00 00       	push   $0x66b0
    1feb:	6a 01                	push   $0x1
    1fed:	6a ff                	push   $0xffffffff
    1fef:	e8 4c 4f 00 00       	call   6f40 <log_msg@plt>
    1ff4:	83 c4 10             	add    $0x10,%esp
    1ff7:	eb 91                	jmp    1f8a <ethip_nic_check_new+0x24a>
    1ff9:	50                   	push   %eax
    1ffa:	50                   	push   %eax
    1ffb:	8d 47 38             	lea    0x38(%edi),%eax
    1ffe:	50                   	push   %eax
    1fff:	8d 45 e2             	lea    -0x1e(%ebp),%eax
    2002:	50                   	push   %eax
    2003:	e8 08 51 00 00       	call   7110 <addr48@plt>
    2008:	8b 4f 10             	mov    0x10(%edi),%ecx
    200b:	58                   	pop    %eax
    200c:	5a                   	pop    %edx
    200d:	6a 02                	push   $0x2
    200f:	51                   	push   %ecx
    2010:	e8 fb 2b 00 00       	call   4c10 <nic_set_state>
    2015:	83 c4 10             	add    $0x10,%esp
    2018:	89 c3                	mov    %eax,%ebx
    201a:	85 c0                	test   %eax,%eax
    201c:	74 7a                	je     2098 <ethip_nic_check_new+0x358>
    201e:	8b 47 0c             	mov    0xc(%edi),%eax
    2021:	50                   	push   %eax
    2022:	68 7c 64 00 00       	push   $0x647c
    2027:	6a 01                	push   $0x1
    2029:	6a ff                	push   $0xffffffff
    202b:	e8 10 4f 00 00       	call   6f40 <log_msg@plt>
    2030:	83 c4 10             	add    $0x10,%esp
    2033:	e9 52 ff ff ff       	jmp    1f8a <ethip_nic_check_new+0x24a>
    2038:	50                   	push   %eax
    2039:	68 08 66 00 00       	push   $0x6608
    203e:	6a 01                	push   $0x1
    2040:	6a ff                	push   $0xffffffff
    2042:	e8 f9 4e 00 00       	call   6f40 <log_msg@plt>
    2047:	c7 04 24 e4 8d 00 00 	movl   $0x8de4,(%esp)
    204e:	e8 ad 4f 00 00       	call   7000 <fibril_mutex_unlock@plt>
    2053:	c7 45 c0 ff ff ff ff 	movl   $0xffffffff,-0x40(%ebp)
    205a:	8b 45 c0             	mov    -0x40(%ebp),%eax
    205d:	83 c4 10             	add    $0x10,%esp
    2060:	8d 65 f4             	lea    -0xc(%ebp),%esp
    2063:	5b                   	pop    %ebx
    2064:	5e                   	pop    %esi
    2065:	5f                   	pop    %edi
    2066:	5d                   	pop    %ebp
    2067:	c3                   	ret    
    2068:	53                   	push   %ebx
    2069:	68 2c 66 00 00       	push   $0x662c
    206e:	6a 01                	push   $0x1
    2070:	6a ff                	push   $0xffffffff
    2072:	e8 c9 4e 00 00       	call   6f40 <log_msg@plt>
    2077:	c7 04 24 e4 8d 00 00 	movl   $0x8de4,(%esp)
    207e:	e8 7d 4f 00 00       	call   7000 <fibril_mutex_unlock@plt>
    2083:	c7 45 c0 f6 fe ff ff 	movl   $0xfffffef6,-0x40(%ebp)
    208a:	8b 45 c0             	mov    -0x40(%ebp),%eax
    208d:	83 c4 10             	add    $0x10,%esp
    2090:	8d 65 f4             	lea    -0xc(%ebp),%esp
    2093:	5b                   	pop    %ebx
    2094:	5e                   	pop    %esi
    2095:	5f                   	pop    %edi
    2096:	5d                   	pop    %ebp
    2097:	c3                   	ret    
    2098:	53                   	push   %ebx
    2099:	53                   	push   %ebx
    209a:	8b 47 10             	mov    0x10(%edi),%eax
    209d:	6a 02                	push   $0x2
    209f:	50                   	push   %eax
    20a0:	e8 7b 35 00 00       	call   5620 <nic_broadcast_set_mode>
    20a5:	83 c4 10             	add    $0x10,%esp
    20a8:	89 c3                	mov    %eax,%ebx
    20aa:	85 c0                	test   %eax,%eax
    20ac:	74 1a                	je     20c8 <ethip_nic_check_new+0x388>
    20ae:	8b 4f 0c             	mov    0xc(%edi),%ecx
    20b1:	51                   	push   %ecx
    20b2:	68 d8 66 00 00       	push   $0x66d8
    20b7:	6a 01                	push   $0x1
    20b9:	6a ff                	push   $0xffffffff
    20bb:	e8 80 4e 00 00       	call   6f40 <log_msg@plt>
    20c0:	83 c4 10             	add    $0x10,%esp
    20c3:	e9 c2 fe ff ff       	jmp    1f8a <ethip_nic_check_new+0x24a>
    20c8:	52                   	push   %edx
    20c9:	68 97 64 00 00       	push   $0x6497
    20ce:	6a 04                	push   $0x4
    20d0:	6a ff                	push   $0xffffffff
    20d2:	e8 69 4e 00 00       	call   6f40 <log_msg@plt>
    20d7:	8b 7d dc             	mov    -0x24(%ebp),%edi
    20da:	83 c4 10             	add    $0x10,%esp
    20dd:	e9 be fd ff ff       	jmp    1ea0 <ethip_nic_check_new+0x160>
    20e2:	8d b4 26 00 00 00 00 	lea    0x0(%esi,%eiz,1),%esi
    20e9:	8d bc 27 00 00 00 00 	lea    0x0(%edi,%eiz,1),%edi

000020f0 <ethip_nic_cat_change_cb>:
    20f0:	55                   	push   %ebp
    20f1:	89 e5                	mov    %esp,%ebp
    20f3:	5d                   	pop    %ebp
    20f4:	e9 47 fc ff ff       	jmp    1d40 <ethip_nic_check_new>
    20f9:	8d b4 26 00 00 00 00 	lea    0x0(%esi,%eiz,1),%esi

00002100 <ethip_nic_setup_multicast>:
    2100:	55                   	push   %ebp
    2101:	89 e5                	mov    %esp,%ebp
    2103:	57                   	push   %edi
    2104:	56                   	push   %esi
    2105:	53                   	push   %ebx
    2106:	83 ec 50             	sub    $0x50,%esp
    2109:	89 c7                	mov    %eax,%edi
    210b:	89 45 b0             	mov    %eax,-0x50(%ebp)
    210e:	68 c8 64 00 00       	push   $0x64c8
    2113:	8d 5f 40             	lea    0x40(%edi),%ebx
    2116:	6a 04                	push   $0x4
    2118:	6a ff                	push   $0xffffffff
    211a:	e8 21 4e 00 00       	call   6f40 <log_msg@plt>
    211f:	8b 4f 44             	mov    0x44(%edi),%ecx
    2122:	83 c4 10             	add    $0x10,%esp
    2125:	31 ff                	xor    %edi,%edi
    2127:	89 4d c4             	mov    %ecx,-0x3c(%ebp)
    212a:	c7 45 b8 00 00 00 00 	movl   $0x0,-0x48(%ebp)
    2131:	89 ce                	mov    %ecx,%esi
    2133:	39 d9                	cmp    %ebx,%ecx
    2135:	0f 84 4e 01 00 00    	je     2289 <ethip_nic_setup_multicast+0x189>
    213b:	90                   	nop
    213c:	8d 74 26 00          	lea    0x0(%esi,%eiz,1),%esi
    2140:	8d 46 08             	lea    0x8(%esi),%eax
    2143:	51                   	push   %ecx
    2144:	6a 00                	push   $0x0
    2146:	6a 00                	push   $0x0
    2148:	50                   	push   %eax
    2149:	e8 02 4f 00 00       	call   7050 <inet_addr_get@plt>
    214e:	83 c4 10             	add    $0x10,%esp
    2151:	83 f8 02             	cmp    $0x2,%eax
    2154:	0f 94 c0             	sete   %al
    2157:	25 ff 00 00 00       	and    $0xff,%eax
    215c:	8b 76 04             	mov    0x4(%esi),%esi
    215f:	01 c7                	add    %eax,%edi
    2161:	39 de                	cmp    %ebx,%esi
    2163:	75 db                	jne    2140 <ethip_nic_setup_multicast+0x40>
    2165:	89 7d b8             	mov    %edi,-0x48(%ebp)
    2168:	89 75 c4             	mov    %esi,-0x3c(%ebp)
    216b:	85 ff                	test   %edi,%edi
    216d:	0f 84 16 01 00 00    	je     2289 <ethip_nic_setup_multicast+0x189>
    2173:	52                   	push   %edx
    2174:	52                   	push   %edx
    2175:	6a 06                	push   $0x6
    2177:	57                   	push   %edi
    2178:	e8 13 4e 00 00       	call   6f90 <calloc@plt>
    217d:	83 c4 10             	add    $0x10,%esp
    2180:	89 45 b4             	mov    %eax,-0x4c(%ebp)
    2183:	85 c0                	test   %eax,%eax
    2185:	0f 84 1b 01 00 00    	je     22a6 <ethip_nic_setup_multicast+0x1a6>
    218b:	8b 45 b0             	mov    -0x50(%ebp),%eax
    218e:	c7 45 c0 00 00 00 00 	movl   $0x0,-0x40(%ebp)
    2195:	8b 70 44             	mov    0x44(%eax),%esi
    2198:	39 75 c4             	cmp    %esi,-0x3c(%ebp)
    219b:	75 17                	jne    21b4 <ethip_nic_setup_multicast+0xb4>
    219d:	e9 8e 00 00 00       	jmp    2230 <ethip_nic_setup_multicast+0x130>
    21a2:	8d b6 00 00 00 00    	lea    0x0(%esi),%esi
    21a8:	8b 76 04             	mov    0x4(%esi),%esi
    21ab:	39 75 c4             	cmp    %esi,-0x3c(%ebp)
    21ae:	0f 84 7c 00 00 00    	je     2230 <ethip_nic_setup_multicast+0x130>
    21b4:	50                   	push   %eax
    21b5:	8d 45 d8             	lea    -0x28(%ebp),%eax
    21b8:	50                   	push   %eax
    21b9:	8d 46 08             	lea    0x8(%esi),%eax
    21bc:	6a 00                	push   $0x0
    21be:	50                   	push   %eax
    21bf:	e8 8c 4e 00 00       	call   7050 <inet_addr_get@plt>
    21c4:	83 c4 10             	add    $0x10,%esp
    21c7:	83 f8 02             	cmp    $0x2,%eax
    21ca:	75 dc                	jne    21a8 <ethip_nic_setup_multicast+0xa8>
    21cc:	8b 55 b8             	mov    -0x48(%ebp),%edx
    21cf:	39 55 c0             	cmp    %edx,-0x40(%ebp)
    21d2:	0f 83 d5 00 00 00    	jae    22ad <ethip_nic_setup_multicast+0x1ad>
    21d8:	50                   	push   %eax
    21d9:	50                   	push   %eax
    21da:	8d 45 d2             	lea    -0x2e(%ebp),%eax
    21dd:	50                   	push   %eax
    21de:	8d 45 d8             	lea    -0x28(%ebp),%eax
    21e1:	50                   	push   %eax
    21e2:	e8 69 4c 00 00       	call   6e50 <addr48_solicited_node@plt>
    21e7:	8b 45 c0             	mov    -0x40(%ebp),%eax
    21ea:	83 c4 10             	add    $0x10,%esp
    21ed:	85 c0                	test   %eax,%eax
    21ef:	74 72                	je     2263 <ethip_nic_setup_multicast+0x163>
    21f1:	8b 7d b4             	mov    -0x4c(%ebp),%edi
    21f4:	89 75 bc             	mov    %esi,-0x44(%ebp)
    21f7:	31 db                	xor    %ebx,%ebx
    21f9:	89 fe                	mov    %edi,%esi
    21fb:	89 c7                	mov    %eax,%edi
    21fd:	eb 09                	jmp    2208 <ethip_nic_setup_multicast+0x108>
    21ff:	90                   	nop
    2200:	43                   	inc    %ebx
    2201:	83 c6 06             	add    $0x6,%esi
    2204:	39 df                	cmp    %ebx,%edi
    2206:	74 58                	je     2260 <ethip_nic_setup_multicast+0x160>
    2208:	50                   	push   %eax
    2209:	50                   	push   %eax
    220a:	8d 45 d2             	lea    -0x2e(%ebp),%eax
    220d:	50                   	push   %eax
    220e:	56                   	push   %esi
    220f:	e8 fc 4c 00 00       	call   6f10 <addr48_compare@plt>
    2214:	83 c4 10             	add    $0x10,%esp
    2217:	85 c0                	test   %eax,%eax
    2219:	74 e5                	je     2200 <ethip_nic_setup_multicast+0x100>
    221b:	8b 75 bc             	mov    -0x44(%ebp),%esi
    221e:	8b 45 b8             	mov    -0x48(%ebp),%eax
    2221:	48                   	dec    %eax
    2222:	8b 76 04             	mov    0x4(%esi),%esi
    2225:	89 45 b8             	mov    %eax,-0x48(%ebp)
    2228:	39 75 c4             	cmp    %esi,-0x3c(%ebp)
    222b:	75 87                	jne    21b4 <ethip_nic_setup_multicast+0xb4>
    222d:	8d 76 00             	lea    0x0(%esi),%esi
    2230:	8b 45 b0             	mov    -0x50(%ebp),%eax
    2233:	8b 4d b8             	mov    -0x48(%ebp),%ecx
    2236:	8b 7d b4             	mov    -0x4c(%ebp),%edi
    2239:	51                   	push   %ecx
    223a:	8b 58 10             	mov    0x10(%eax),%ebx
    223d:	57                   	push   %edi
    223e:	6a 02                	push   $0x2
    2240:	53                   	push   %ebx
    2241:	e8 8a 32 00 00       	call   54d0 <nic_multicast_set_mode>
    2246:	89 3c 24             	mov    %edi,(%esp)
    2249:	89 45 c4             	mov    %eax,-0x3c(%ebp)
    224c:	e8 5f 4f 00 00       	call   71b0 <free@plt>
    2251:	83 c4 10             	add    $0x10,%esp
    2254:	8b 45 c4             	mov    -0x3c(%ebp),%eax
    2257:	8d 65 f4             	lea    -0xc(%ebp),%esp
    225a:	5b                   	pop    %ebx
    225b:	5e                   	pop    %esi
    225c:	5f                   	pop    %edi
    225d:	5d                   	pop    %ebp
    225e:	c3                   	ret    
    225f:	90                   	nop
    2260:	8b 75 bc             	mov    -0x44(%ebp),%esi
    2263:	8b 7d c0             	mov    -0x40(%ebp),%edi
    2266:	8b 4d b4             	mov    -0x4c(%ebp),%ecx
    2269:	52                   	push   %edx
    226a:	52                   	push   %edx
    226b:	8d 04 7f             	lea    (%edi,%edi,2),%eax
    226e:	8d 04 41             	lea    (%ecx,%eax,2),%eax
    2271:	50                   	push   %eax
    2272:	8d 45 d2             	lea    -0x2e(%ebp),%eax
    2275:	50                   	push   %eax
    2276:	e8 95 4e 00 00       	call   7110 <addr48@plt>
    227b:	89 f8                	mov    %edi,%eax
    227d:	83 c4 10             	add    $0x10,%esp
    2280:	40                   	inc    %eax
    2281:	89 45 c0             	mov    %eax,-0x40(%ebp)
    2284:	e9 1f ff ff ff       	jmp    21a8 <ethip_nic_setup_multicast+0xa8>
    2289:	8b 45 b0             	mov    -0x50(%ebp),%eax
    228c:	6a 00                	push   $0x0
    228e:	6a 00                	push   $0x0
    2290:	6a 01                	push   $0x1
    2292:	8b 58 10             	mov    0x10(%eax),%ebx
    2295:	53                   	push   %ebx
    2296:	e8 35 32 00 00       	call   54d0 <nic_multicast_set_mode>
    229b:	83 c4 10             	add    $0x10,%esp
    229e:	8d 65 f4             	lea    -0xc(%ebp),%esp
    22a1:	5b                   	pop    %ebx
    22a2:	5e                   	pop    %esi
    22a3:	5f                   	pop    %edi
    22a4:	5d                   	pop    %ebp
    22a5:	c3                   	ret    
    22a6:	b8 fe ff ff ff       	mov    $0xfffffffe,%eax
    22ab:	eb aa                	jmp    2257 <ethip_nic_setup_multicast+0x157>
    22ad:	50                   	push   %eax
    22ae:	68 91 01 00 00       	push   $0x191
    22b3:	68 e4 64 00 00       	push   $0x64e4
    22b8:	68 f0 64 00 00       	push   $0x64f0
    22bd:	e8 be 4c 00 00       	call   6f80 <assert_abort@plt>
    22c2:	8d b4 26 00 00 00 00 	lea    0x0(%esi,%eiz,1),%esi
    22c9:	8d bc 27 00 00 00 00 	lea    0x0(%edi,%eiz,1),%edi

000022d0 <ethip_nic_cb_conn>:
    22d0:	55                   	push   %ebp
    22d1:	89 e5                	mov    %esp,%ebp
    22d3:	57                   	push   %edi
    22d4:	56                   	push   %esi
    22d5:	53                   	push   %ebx
    22d6:	83 ec 50             	sub    $0x50,%esp
    22d9:	8d 75 c4             	lea    -0x3c(%ebp),%esi
    22dc:	8d 7d c0             	lea    -0x40(%ebp),%edi
    22df:	68 fa 64 00 00       	push   $0x64fa
    22e4:	6a 04                	push   $0x4
    22e6:	6a ff                	push   $0xffffffff
    22e8:	e8 53 4c 00 00       	call   6f40 <log_msg@plt>
    22ed:	83 c4 10             	add    $0x10,%esp
    22f0:	53                   	push   %ebx
    22f1:	53                   	push   %ebx
    22f2:	6a 00                	push   $0x0
    22f4:	56                   	push   %esi
    22f5:	e8 e6 4d 00 00       	call   70e0 <async_get_call_timeout@plt>
    22fa:	83 c4 10             	add    $0x10,%esp
    22fd:	89 c3                	mov    %eax,%ebx
    22ff:	8b 45 c4             	mov    -0x3c(%ebp),%eax
    2302:	85 c0                	test   %eax,%eax
    2304:	0f 84 be 01 00 00    	je     24c8 <ethip_nic_cb_conn+0x1f8>
    230a:	3d 01 04 00 00       	cmp    $0x401,%eax
    230f:	74 37                	je     2348 <ethip_nic_cb_conn+0x78>
    2311:	3d 02 04 00 00       	cmp    $0x402,%eax
    2316:	0f 84 84 01 00 00    	je     24a0 <ethip_nic_cb_conn+0x1d0>
    231c:	3d 00 04 00 00       	cmp    $0x400,%eax
    2321:	0f 84 d1 00 00 00    	je     23f8 <ethip_nic_cb_conn+0x128>
    2327:	50                   	push   %eax
    2328:	68 7d 65 00 00       	push   $0x657d
    232d:	6a 04                	push   $0x4
    232f:	6a ff                	push   $0xffffffff
    2331:	e8 0a 4c 00 00       	call   6f40 <log_msg@plt>
    2336:	58                   	pop    %eax
    2337:	5a                   	pop    %edx
    2338:	6a f5                	push   $0xfffffff5
    233a:	53                   	push   %ebx
    233b:	e8 c0 4b 00 00       	call   6f00 <async_answer_0@plt>
    2340:	83 c4 10             	add    $0x10,%esp
    2343:	eb ab                	jmp    22f0 <ethip_nic_cb_conn+0x20>
    2345:	8d 76 00             	lea    0x0(%esi),%esi
    2348:	8b 55 10             	mov    0x10(%ebp),%edx
    234b:	52                   	push   %edx
    234c:	68 2a 65 00 00       	push   $0x652a
    2351:	6a 04                	push   $0x4
    2353:	6a ff                	push   $0xffffffff
    2355:	e8 e6 4b 00 00       	call   6f40 <log_msg@plt>
    235a:	59                   	pop    %ecx
    235b:	58                   	pop    %eax
    235c:	8d 45 bc             	lea    -0x44(%ebp),%eax
    235f:	57                   	push   %edi
    2360:	6a 00                	push   $0x0
    2362:	6a 00                	push   $0x0
    2364:	6a 00                	push   $0x0
    2366:	6a 00                	push   $0x0
    2368:	50                   	push   %eax
    2369:	e8 d2 4d 00 00       	call   7140 <async_data_write_accept@plt>
    236e:	83 c4 20             	add    $0x20,%esp
    2371:	85 c0                	test   %eax,%eax
    2373:	0f 85 37 01 00 00    	jne    24b0 <ethip_nic_cb_conn+0x1e0>
    2379:	8b 45 c0             	mov    -0x40(%ebp),%eax
    237c:	50                   	push   %eax
    237d:	68 74 67 00 00       	push   $0x6774
    2382:	6a 04                	push   $0x4
    2384:	6a ff                	push   $0xffffffff
    2386:	e8 b5 4b 00 00       	call   6f40 <log_msg@plt>
    238b:	83 c4 0c             	add    $0xc,%esp
    238e:	68 46 65 00 00       	push   $0x6546
    2393:	6a 04                	push   $0x4
    2395:	6a ff                	push   $0xffffffff
    2397:	e8 a4 4b 00 00       	call   6f40 <log_msg@plt>
    239c:	83 c4 0c             	add    $0xc,%esp
    239f:	8b 45 c0             	mov    -0x40(%ebp),%eax
    23a2:	50                   	push   %eax
    23a3:	8b 45 bc             	mov    -0x44(%ebp),%eax
    23a6:	50                   	push   %eax
    23a7:	8b 45 10             	mov    0x10(%ebp),%eax
    23aa:	83 c0 14             	add    $0x14,%eax
    23ad:	50                   	push   %eax
    23ae:	e8 2d f7 ff ff       	call   1ae0 <ethip_received>
    23b3:	83 c4 0c             	add    $0xc,%esp
    23b6:	89 45 b4             	mov    %eax,-0x4c(%ebp)
    23b9:	68 5a 65 00 00       	push   $0x655a
    23be:	6a 04                	push   $0x4
    23c0:	6a ff                	push   $0xffffffff
    23c2:	e8 79 4b 00 00       	call   6f40 <log_msg@plt>
    23c7:	58                   	pop    %eax
    23c8:	8b 45 bc             	mov    -0x44(%ebp),%eax
    23cb:	50                   	push   %eax
    23cc:	e8 df 4d 00 00       	call   71b0 <free@plt>
    23d1:	8b 45 b4             	mov    -0x4c(%ebp),%eax
    23d4:	50                   	push   %eax
    23d5:	68 98 67 00 00       	push   $0x6798
    23da:	6a 04                	push   $0x4
    23dc:	6a ff                	push   $0xffffffff
    23de:	e8 5d 4b 00 00       	call   6f40 <log_msg@plt>
    23e3:	83 c4 18             	add    $0x18,%esp
    23e6:	8b 45 b4             	mov    -0x4c(%ebp),%eax
    23e9:	50                   	push   %eax
    23ea:	53                   	push   %ebx
    23eb:	e8 10 4b 00 00       	call   6f00 <async_answer_0@plt>
    23f0:	83 c4 10             	add    $0x10,%esp
    23f3:	e9 f8 fe ff ff       	jmp    22f0 <ethip_nic_cb_conn+0x20>
    23f8:	8d 45 bc             	lea    -0x44(%ebp),%eax
    23fb:	51                   	push   %ecx
    23fc:	51                   	push   %ecx
    23fd:	57                   	push   %edi
    23fe:	6a 00                	push   $0x0
    2400:	6a 00                	push   $0x0
    2402:	6a 00                	push   $0x0
    2404:	6a 00                	push   $0x0
    2406:	50                   	push   %eax
    2407:	e8 34 4d 00 00       	call   7140 <async_data_write_accept@plt>
    240c:	83 c4 20             	add    $0x20,%esp
    240f:	85 c0                	test   %eax,%eax
    2411:	0f 85 99 00 00 00    	jne    24b0 <ethip_nic_cb_conn+0x1e0>
    2417:	8b 45 bc             	mov    -0x44(%ebp),%eax
    241a:	83 ec 0c             	sub    $0xc,%esp
    241d:	31 d2                	xor    %edx,%edx
    241f:	8a 50 05             	mov    0x5(%eax),%dl
    2422:	52                   	push   %edx
    2423:	31 d2                	xor    %edx,%edx
    2425:	8a 50 04             	mov    0x4(%eax),%dl
    2428:	52                   	push   %edx
    2429:	31 d2                	xor    %edx,%edx
    242b:	8a 50 03             	mov    0x3(%eax),%dl
    242e:	52                   	push   %edx
    242f:	31 d2                	xor    %edx,%edx
    2431:	8a 50 02             	mov    0x2(%eax),%dl
    2434:	52                   	push   %edx
    2435:	31 d2                	xor    %edx,%edx
    2437:	8a 50 01             	mov    0x1(%eax),%dl
    243a:	52                   	push   %edx
    243b:	8a 08                	mov    (%eax),%cl
    243d:	81 e1 ff 00 00 00    	and    $0xff,%ecx
    2443:	51                   	push   %ecx
    2444:	68 10 67 00 00       	push   $0x6710
    2449:	6a 04                	push   $0x4
    244b:	6a ff                	push   $0xffffffff
    244d:	e8 ee 4a 00 00       	call   6f40 <log_msg@plt>
    2452:	8b 45 10             	mov    0x10(%ebp),%eax
    2455:	83 c4 2c             	add    $0x2c,%esp
    2458:	8d 50 38             	lea    0x38(%eax),%edx
    245b:	8b 45 bc             	mov    -0x44(%ebp),%eax
    245e:	89 55 b4             	mov    %edx,-0x4c(%ebp)
    2461:	6a 06                	push   $0x6
    2463:	50                   	push   %eax
    2464:	52                   	push   %edx
    2465:	e8 56 4a 00 00       	call   6ec0 <memcpy@plt>
    246a:	58                   	pop    %eax
    246b:	8b 45 10             	mov    0x10(%ebp),%eax
    246e:	5a                   	pop    %edx
    246f:	83 c0 14             	add    $0x14,%eax
    2472:	8b 55 b4             	mov    -0x4c(%ebp),%edx
    2475:	52                   	push   %edx
    2476:	50                   	push   %eax
    2477:	e8 54 4b 00 00       	call   6fd0 <iplink_ev_change_addr@plt>
    247c:	83 c4 10             	add    $0x10,%esp
    247f:	85 c0                	test   %eax,%eax
    2481:	74 4d                	je     24d0 <ethip_nic_cb_conn+0x200>
    2483:	51                   	push   %ecx
    2484:	68 54 67 00 00       	push   $0x6754
    2489:	6a 04                	push   $0x4
    248b:	6a ff                	push   $0xffffffff
    248d:	e8 ae 4a 00 00       	call   6f40 <log_msg@plt>
    2492:	83 c4 10             	add    $0x10,%esp
    2495:	e9 56 fe ff ff       	jmp    22f0 <ethip_nic_cb_conn+0x20>
    249a:	8d b6 00 00 00 00    	lea    0x0(%esi),%esi
    24a0:	51                   	push   %ecx
    24a1:	68 64 65 00 00       	push   $0x6564
    24a6:	e9 82 fe ff ff       	jmp    232d <ethip_nic_cb_conn+0x5d>
    24ab:	90                   	nop
    24ac:	8d 74 26 00          	lea    0x0(%esi,%eiz,1),%esi
    24b0:	50                   	push   %eax
    24b1:	68 0f 65 00 00       	push   $0x650f
    24b6:	6a 04                	push   $0x4
    24b8:	6a ff                	push   $0xffffffff
    24ba:	e8 81 4a 00 00       	call   6f40 <log_msg@plt>
    24bf:	83 c4 10             	add    $0x10,%esp
    24c2:	e9 29 fe ff ff       	jmp    22f0 <ethip_nic_cb_conn+0x20>
    24c7:	90                   	nop
    24c8:	8d 65 f4             	lea    -0xc(%ebp),%esp
    24cb:	5b                   	pop    %ebx
    24cc:	5e                   	pop    %esi
    24cd:	5f                   	pop    %edi
    24ce:	5d                   	pop    %ebp
    24cf:	c3                   	ret    
    24d0:	83 ec 0c             	sub    $0xc,%esp
    24d3:	8b 45 bc             	mov    -0x44(%ebp),%eax
    24d6:	50                   	push   %eax
    24d7:	e8 d4 4c 00 00       	call   71b0 <free@plt>
    24dc:	58                   	pop    %eax
    24dd:	5a                   	pop    %edx
    24de:	6a 00                	push   $0x0
    24e0:	53                   	push   %ebx
    24e1:	e8 1a 4a 00 00       	call   6f00 <async_answer_0@plt>
    24e6:	83 c4 10             	add    $0x10,%esp
    24e9:	e9 02 fe ff ff       	jmp    22f0 <ethip_nic_cb_conn+0x20>
    24ee:	66 90                	xchg   %ax,%ax

000024f0 <ethip_nic_discovery_start>:
    24f0:	55                   	push   %ebp
    24f1:	89 e5                	mov    %esp,%ebp
    24f3:	83 ec 24             	sub    $0x24,%esp
    24f6:	68 f0 20 00 00       	push   $0x20f0
    24fb:	e8 b0 4a 00 00       	call   6fb0 <loc_register_cat_change_cb@plt>
    2500:	83 c4 10             	add    $0x10,%esp
    2503:	85 c0                	test   %eax,%eax
    2505:	75 09                	jne    2510 <ethip_nic_discovery_start+0x20>
    2507:	c9                   	leave  
    2508:	e9 33 f8 ff ff       	jmp    1d40 <ethip_nic_check_new>
    250d:	8d 76 00             	lea    0x0(%esi),%esi
    2510:	50                   	push   %eax
    2511:	68 bc 67 00 00       	push   $0x67bc
    2516:	6a 01                	push   $0x1
    2518:	6a ff                	push   $0xffffffff
    251a:	89 45 f4             	mov    %eax,-0xc(%ebp)
    251d:	e8 1e 4a 00 00       	call   6f40 <log_msg@plt>
    2522:	8b 45 f4             	mov    -0xc(%ebp),%eax
    2525:	83 c4 10             	add    $0x10,%esp
    2528:	c9                   	leave  
    2529:	c3                   	ret    
    252a:	8d b6 00 00 00 00    	lea    0x0(%esi),%esi

00002530 <ethip_nic_find_by_iplink_sid>:
    2530:	55                   	push   %ebp
    2531:	89 e5                	mov    %esp,%ebp
    2533:	56                   	push   %esi
    2534:	53                   	push   %ebx
    2535:	8b 75 08             	mov    0x8(%ebp),%esi
    2538:	56                   	push   %esi
    2539:	68 f0 67 00 00       	push   $0x67f0
    253e:	6a 04                	push   $0x4
    2540:	6a ff                	push   $0xffffffff
    2542:	e8 f9 49 00 00       	call   6f40 <log_msg@plt>
    2547:	8b 1d f8 8d 00 00    	mov    0x8df8,%ebx
    254d:	83 c4 10             	add    $0x10,%esp
    2550:	81 fb f4 8d 00 00    	cmp    $0x8df4,%ebx
    2556:	75 13                	jne    256b <ethip_nic_find_by_iplink_sid+0x3b>
    2558:	eb 46                	jmp    25a0 <ethip_nic_find_by_iplink_sid+0x70>
    255a:	8d b6 00 00 00 00    	lea    0x0(%esi),%esi
    2560:	8b 5b 04             	mov    0x4(%ebx),%ebx
    2563:	81 fb f4 8d 00 00    	cmp    $0x8df4,%ebx
    2569:	74 35                	je     25a0 <ethip_nic_find_by_iplink_sid+0x70>
    256b:	50                   	push   %eax
    256c:	68 40 68 00 00       	push   $0x6840
    2571:	6a 04                	push   $0x4
    2573:	6a ff                	push   $0xffffffff
    2575:	e8 c6 49 00 00       	call   6f40 <log_msg@plt>
    257a:	83 c4 10             	add    $0x10,%esp
    257d:	3b 73 34             	cmp    0x34(%ebx),%esi
    2580:	75 de                	jne    2560 <ethip_nic_find_by_iplink_sid+0x30>
    2582:	53                   	push   %ebx
    2583:	68 68 68 00 00       	push   $0x6868
    2588:	6a 04                	push   $0x4
    258a:	6a ff                	push   $0xffffffff
    258c:	e8 af 49 00 00       	call   6f40 <log_msg@plt>
    2591:	83 c4 10             	add    $0x10,%esp
    2594:	8d 65 f8             	lea    -0x8(%ebp),%esp
    2597:	89 d8                	mov    %ebx,%eax
    2599:	5b                   	pop    %ebx
    259a:	5e                   	pop    %esi
    259b:	5d                   	pop    %ebp
    259c:	c3                   	ret    
    259d:	8d 76 00             	lea    0x0(%esi),%esi
    25a0:	52                   	push   %edx
    25a1:	68 14 68 00 00       	push   $0x6814
    25a6:	6a 04                	push   $0x4
    25a8:	6a ff                	push   $0xffffffff
    25aa:	e8 91 49 00 00       	call   6f40 <log_msg@plt>
    25af:	83 c4 10             	add    $0x10,%esp
    25b2:	8d 65 f8             	lea    -0x8(%ebp),%esp
    25b5:	31 c0                	xor    %eax,%eax
    25b7:	5b                   	pop    %ebx
    25b8:	5e                   	pop    %esi
    25b9:	5d                   	pop    %ebp
    25ba:	c3                   	ret    
    25bb:	90                   	nop
    25bc:	8d 74 26 00          	lea    0x0(%esi,%eiz,1),%esi

000025c0 <ethip_nic_send>:
    25c0:	55                   	push   %ebp
    25c1:	89 e5                	mov    %esp,%ebp
    25c3:	53                   	push   %ebx
    25c4:	83 ec 14             	sub    $0x14,%esp
    25c7:	8b 5d 10             	mov    0x10(%ebp),%ebx
    25ca:	53                   	push   %ebx
    25cb:	68 94 65 00 00       	push   $0x6594
    25d0:	6a 04                	push   $0x4
    25d2:	6a ff                	push   $0xffffffff
    25d4:	e8 67 49 00 00       	call   6f40 <log_msg@plt>
    25d9:	83 c4 0c             	add    $0xc,%esp
    25dc:	8b 45 0c             	mov    0xc(%ebp),%eax
    25df:	53                   	push   %ebx
    25e0:	50                   	push   %eax
    25e1:	8b 45 08             	mov    0x8(%ebp),%eax
    25e4:	8b 50 10             	mov    0x10(%eax),%edx
    25e7:	52                   	push   %edx
    25e8:	e8 83 24 00 00       	call   4a70 <nic_send_frame>
    25ed:	50                   	push   %eax
    25ee:	89 45 f4             	mov    %eax,-0xc(%ebp)
    25f1:	68 ad 65 00 00       	push   $0x65ad
    25f6:	6a 04                	push   $0x4
    25f8:	6a ff                	push   $0xffffffff
    25fa:	e8 41 49 00 00       	call   6f40 <log_msg@plt>
    25ff:	8b 45 f4             	mov    -0xc(%ebp),%eax
    2602:	8b 5d fc             	mov    -0x4(%ebp),%ebx
    2605:	c9                   	leave  
    2606:	c3                   	ret    
    2607:	89 f6                	mov    %esi,%esi
    2609:	8d bc 27 00 00 00 00 	lea    0x0(%edi,%eiz,1),%edi

00002610 <ethip_nic_addr_add>:
    2610:	55                   	push   %ebp
    2611:	89 e5                	mov    %esp,%ebp
    2613:	56                   	push   %esi
    2614:	53                   	push   %ebx
    2615:	52                   	push   %edx
    2616:	8b 75 08             	mov    0x8(%ebp),%esi
    2619:	68 c2 65 00 00       	push   $0x65c2
    261e:	8b 5d 0c             	mov    0xc(%ebp),%ebx
    2621:	6a 04                	push   $0x4
    2623:	6a ff                	push   $0xffffffff
    2625:	e8 16 49 00 00       	call   6f40 <log_msg@plt>
    262a:	59                   	pop    %ecx
    262b:	58                   	pop    %eax
    262c:	6a 1c                	push   $0x1c
    262e:	6a 01                	push   $0x1
    2630:	e8 5b 49 00 00       	call   6f90 <calloc@plt>
    2635:	83 c4 10             	add    $0x10,%esp
    2638:	85 c0                	test   %eax,%eax
    263a:	74 3b                	je     2677 <ethip_nic_addr_add+0x67>
    263c:	8b 13                	mov    (%ebx),%edx
    263e:	89 50 08             	mov    %edx,0x8(%eax)
    2641:	8b 53 04             	mov    0x4(%ebx),%edx
    2644:	89 50 0c             	mov    %edx,0xc(%eax)
    2647:	8b 53 08             	mov    0x8(%ebx),%edx
    264a:	89 50 10             	mov    %edx,0x10(%eax)
    264d:	8b 53 0c             	mov    0xc(%ebx),%edx
    2650:	89 50 14             	mov    %edx,0x14(%eax)
    2653:	8b 53 10             	mov    0x10(%ebx),%edx
    2656:	89 50 18             	mov    %edx,0x18(%eax)
    2659:	8d 56 40             	lea    0x40(%esi),%edx
    265c:	89 50 04             	mov    %edx,0x4(%eax)
    265f:	8b 56 40             	mov    0x40(%esi),%edx
    2662:	89 10                	mov    %edx,(%eax)
    2664:	89 42 04             	mov    %eax,0x4(%edx)
    2667:	89 46 40             	mov    %eax,0x40(%esi)
    266a:	8d 65 f8             	lea    -0x8(%ebp),%esp
    266d:	89 f0                	mov    %esi,%eax
    266f:	5b                   	pop    %ebx
    2670:	5e                   	pop    %esi
    2671:	5d                   	pop    %ebp
    2672:	e9 89 fa ff ff       	jmp    2100 <ethip_nic_setup_multicast>
    2677:	50                   	push   %eax
    2678:	68 90 68 00 00       	push   $0x6890
    267d:	6a 01                	push   $0x1
    267f:	6a ff                	push   $0xffffffff
    2681:	e8 ba 48 00 00       	call   6f40 <log_msg@plt>
    2686:	83 c4 10             	add    $0x10,%esp
    2689:	8d 65 f8             	lea    -0x8(%ebp),%esp
    268c:	b8 fe ff ff ff       	mov    $0xfffffffe,%eax
    2691:	5b                   	pop    %ebx
    2692:	5e                   	pop    %esi
    2693:	5d                   	pop    %ebp
    2694:	c3                   	ret    
    2695:	8d 74 26 00          	lea    0x0(%esi,%eiz,1),%esi
    2699:	8d bc 27 00 00 00 00 	lea    0x0(%edi,%eiz,1),%edi

000026a0 <ethip_nic_addr_remove>:
    26a0:	55                   	push   %ebp
    26a1:	89 e5                	mov    %esp,%ebp
    26a3:	57                   	push   %edi
    26a4:	56                   	push   %esi
    26a5:	53                   	push   %ebx
    26a6:	83 ec 20             	sub    $0x20,%esp
    26a9:	8b 45 08             	mov    0x8(%ebp),%eax
    26ac:	8b 75 0c             	mov    0xc(%ebp),%esi
    26af:	68 d7 65 00 00       	push   $0x65d7
    26b4:	6a 04                	push   $0x4
    26b6:	6a ff                	push   $0xffffffff
    26b8:	89 c3                	mov    %eax,%ebx
    26ba:	89 45 e4             	mov    %eax,-0x1c(%ebp)
    26bd:	e8 7e 48 00 00       	call   6f40 <log_msg@plt>
    26c2:	83 c4 0c             	add    $0xc,%esp
    26c5:	83 c3 40             	add    $0x40,%ebx
    26c8:	68 ef 65 00 00       	push   $0x65ef
    26cd:	6a 04                	push   $0x4
    26cf:	6a ff                	push   $0xffffffff
    26d1:	e8 6a 48 00 00       	call   6f40 <log_msg@plt>
    26d6:	8b 7b 04             	mov    0x4(%ebx),%edi
    26d9:	83 c4 10             	add    $0x10,%esp
    26dc:	39 df                	cmp    %ebx,%edi
    26de:	75 0f                	jne    26ef <ethip_nic_addr_remove+0x4f>
    26e0:	eb 66                	jmp    2748 <ethip_nic_addr_remove+0xa8>
    26e2:	8d b6 00 00 00 00    	lea    0x0(%esi),%esi
    26e8:	8b 7f 04             	mov    0x4(%edi),%edi
    26eb:	39 df                	cmp    %ebx,%edi
    26ed:	74 59                	je     2748 <ethip_nic_addr_remove+0xa8>
    26ef:	50                   	push   %eax
    26f0:	50                   	push   %eax
    26f1:	8d 47 08             	lea    0x8(%edi),%eax
    26f4:	50                   	push   %eax
    26f5:	56                   	push   %esi
    26f6:	e8 c5 49 00 00       	call   70c0 <inet_addr_compare@plt>
    26fb:	83 c4 10             	add    $0x10,%esp
    26fe:	85 c0                	test   %eax,%eax
    2700:	74 e6                	je     26e8 <ethip_nic_addr_remove+0x48>
    2702:	85 ff                	test   %edi,%edi
    2704:	74 42                	je     2748 <ethip_nic_addr_remove+0xa8>
    2706:	8b 0f                	mov    (%edi),%ecx
    2708:	85 c9                	test   %ecx,%ecx
    270a:	74 0e                	je     271a <ethip_nic_addr_remove+0x7a>
    270c:	8b 47 04             	mov    0x4(%edi),%eax
    270f:	85 c0                	test   %eax,%eax
    2711:	74 07                	je     271a <ethip_nic_addr_remove+0x7a>
    2713:	89 08                	mov    %ecx,(%eax)
    2715:	8b 0f                	mov    (%edi),%ecx
    2717:	89 41 04             	mov    %eax,0x4(%ecx)
    271a:	83 ec 0c             	sub    $0xc,%esp
    271d:	c7 07 00 00 00 00    	movl   $0x0,(%edi)
    2723:	c7 47 04 00 00 00 00 	movl   $0x0,0x4(%edi)
    272a:	57                   	push   %edi
    272b:	e8 80 4a 00 00       	call   71b0 <free@plt>
    2730:	8b 45 e4             	mov    -0x1c(%ebp),%eax
    2733:	83 c4 10             	add    $0x10,%esp
    2736:	8d 65 f4             	lea    -0xc(%ebp),%esp
    2739:	5b                   	pop    %ebx
    273a:	5e                   	pop    %esi
    273b:	5f                   	pop    %edi
    273c:	5d                   	pop    %ebp
    273d:	e9 be f9 ff ff       	jmp    2100 <ethip_nic_setup_multicast>
    2742:	8d b6 00 00 00 00    	lea    0x0(%esi),%esi
    2748:	8d 65 f4             	lea    -0xc(%ebp),%esp
    274b:	83 c8 ff             	or     $0xffffffff,%eax
    274e:	5b                   	pop    %ebx
    274f:	5e                   	pop    %esi
    2750:	5f                   	pop    %edi
    2751:	5d                   	pop    %ebp
    2752:	c3                   	ret    
    2753:	8d b6 00 00 00 00    	lea    0x0(%esi),%esi
    2759:	8d bc 27 00 00 00 00 	lea    0x0(%edi,%eiz,1),%edi

00002760 <ethip_nic_addr_find>:
    2760:	55                   	push   %ebp
    2761:	89 e5                	mov    %esp,%ebp
    2763:	57                   	push   %edi
    2764:	56                   	push   %esi
    2765:	53                   	push   %ebx
    2766:	83 ec 10             	sub    $0x10,%esp
    2769:	8b 75 08             	mov    0x8(%ebp),%esi
    276c:	8b 7d 0c             	mov    0xc(%ebp),%edi
    276f:	68 ef 65 00 00       	push   $0x65ef
    2774:	83 c6 40             	add    $0x40,%esi
    2777:	6a 04                	push   $0x4
    2779:	6a ff                	push   $0xffffffff
    277b:	e8 c0 47 00 00       	call   6f40 <log_msg@plt>
    2780:	8b 5e 04             	mov    0x4(%esi),%ebx
    2783:	83 c4 10             	add    $0x10,%esp
    2786:	39 f3                	cmp    %esi,%ebx
    2788:	75 0d                	jne    2797 <ethip_nic_addr_find+0x37>
    278a:	eb 2c                	jmp    27b8 <ethip_nic_addr_find+0x58>
    278c:	8d 74 26 00          	lea    0x0(%esi,%eiz,1),%esi
    2790:	8b 5b 04             	mov    0x4(%ebx),%ebx
    2793:	39 f3                	cmp    %esi,%ebx
    2795:	74 21                	je     27b8 <ethip_nic_addr_find+0x58>
    2797:	50                   	push   %eax
    2798:	50                   	push   %eax
    2799:	8d 43 08             	lea    0x8(%ebx),%eax
    279c:	50                   	push   %eax
    279d:	57                   	push   %edi
    279e:	e8 1d 49 00 00       	call   70c0 <inet_addr_compare@plt>
    27a3:	83 c4 10             	add    $0x10,%esp
    27a6:	85 c0                	test   %eax,%eax
    27a8:	74 e6                	je     2790 <ethip_nic_addr_find+0x30>
    27aa:	8d 65 f4             	lea    -0xc(%ebp),%esp
    27ad:	89 d8                	mov    %ebx,%eax
    27af:	5b                   	pop    %ebx
    27b0:	5e                   	pop    %esi
    27b1:	5f                   	pop    %edi
    27b2:	5d                   	pop    %ebp
    27b3:	c3                   	ret    
    27b4:	8d 74 26 00          	lea    0x0(%esi,%eiz,1),%esi
    27b8:	8d 65 f4             	lea    -0xc(%ebp),%esp
    27bb:	31 c0                	xor    %eax,%eax
    27bd:	5b                   	pop    %ebx
    27be:	5e                   	pop    %esi
    27bf:	5f                   	pop    %edi
    27c0:	5d                   	pop    %ebp
    27c1:	c3                   	ret    
    27c2:	66 90                	xchg   %ax,%ax
    27c4:	66 90                	xchg   %ax,%ax
    27c6:	66 90                	xchg   %ax,%ax
    27c8:	66 90                	xchg   %ax,%ax
    27ca:	66 90                	xchg   %ax,%ax
    27cc:	66 90                	xchg   %ax,%ax
    27ce:	66 90                	xchg   %ax,%ax

000027d0 <eth_pdu_encode>:
    27d0:	55                   	push   %ebp
    27d1:	89 e5                	mov    %esp,%ebp
    27d3:	57                   	push   %edi
    27d4:	56                   	push   %esi
    27d5:	53                   	push   %ebx
    27d6:	83 ec 0c             	sub    $0xc,%esp
    27d9:	8b 7d 08             	mov    0x8(%ebp),%edi
    27dc:	8b 47 14             	mov    0x14(%edi),%eax
    27df:	8d 58 0e             	lea    0xe(%eax),%ebx
    27e2:	83 fb 3c             	cmp    $0x3c,%ebx
    27e5:	73 05                	jae    27ec <eth_pdu_encode+0x1c>
    27e7:	bb 3c 00 00 00       	mov    $0x3c,%ebx
    27ec:	50                   	push   %eax
    27ed:	50                   	push   %eax
    27ee:	6a 01                	push   $0x1
    27f0:	53                   	push   %ebx
    27f1:	e8 9a 47 00 00       	call   6f90 <calloc@plt>
    27f6:	83 c4 10             	add    $0x10,%esp
    27f9:	89 c6                	mov    %eax,%esi
    27fb:	85 c0                	test   %eax,%eax
    27fd:	74 61                	je     2860 <eth_pdu_encode+0x90>
    27ff:	50                   	push   %eax
    2800:	50                   	push   %eax
    2801:	8d 46 06             	lea    0x6(%esi),%eax
    2804:	50                   	push   %eax
    2805:	8d 47 06             	lea    0x6(%edi),%eax
    2808:	50                   	push   %eax
    2809:	e8 02 49 00 00       	call   7110 <addr48@plt>
    280e:	5a                   	pop    %edx
    280f:	59                   	pop    %ecx
    2810:	56                   	push   %esi
    2811:	57                   	push   %edi
    2812:	e8 f9 48 00 00       	call   7110 <addr48@plt>
    2817:	8b 47 0c             	mov    0xc(%edi),%eax
    281a:	83 c4 0c             	add    $0xc,%esp
    281d:	66 c1 c0 08          	rol    $0x8,%ax
    2821:	66 89 46 0c          	mov    %ax,0xc(%esi)
    2825:	8b 47 14             	mov    0x14(%edi),%eax
    2828:	50                   	push   %eax
    2829:	8b 47 10             	mov    0x10(%edi),%eax
    282c:	50                   	push   %eax
    282d:	8d 46 0e             	lea    0xe(%esi),%eax
    2830:	50                   	push   %eax
    2831:	e8 8a 46 00 00       	call   6ec0 <memcpy@plt>
    2836:	53                   	push   %ebx
    2837:	68 c8 68 00 00       	push   $0x68c8
    283c:	6a 04                	push   $0x4
    283e:	6a ff                	push   $0xffffffff
    2840:	e8 fb 46 00 00       	call   6f40 <log_msg@plt>
    2845:	8b 45 0c             	mov    0xc(%ebp),%eax
    2848:	89 30                	mov    %esi,(%eax)
    284a:	8b 45 10             	mov    0x10(%ebp),%eax
    284d:	83 c4 20             	add    $0x20,%esp
    2850:	89 18                	mov    %ebx,(%eax)
    2852:	31 c0                	xor    %eax,%eax
    2854:	8d 65 f4             	lea    -0xc(%ebp),%esp
    2857:	5b                   	pop    %ebx
    2858:	5e                   	pop    %esi
    2859:	5f                   	pop    %edi
    285a:	5d                   	pop    %ebp
    285b:	c3                   	ret    
    285c:	8d 74 26 00          	lea    0x0(%esi,%eiz,1),%esi
    2860:	b8 fe ff ff ff       	mov    $0xfffffffe,%eax
    2865:	eb ed                	jmp    2854 <eth_pdu_encode+0x84>
    2867:	89 f6                	mov    %esi,%esi
    2869:	8d bc 27 00 00 00 00 	lea    0x0(%edi,%eiz,1),%edi

00002870 <eth_pdu_decode>:
    2870:	55                   	push   %ebp
    2871:	89 e5                	mov    %esp,%ebp
    2873:	57                   	push   %edi
    2874:	56                   	push   %esi
    2875:	53                   	push   %ebx
    2876:	83 ec 10             	sub    $0x10,%esp
    2879:	8b 7d 0c             	mov    0xc(%ebp),%edi
    287c:	8b 75 08             	mov    0x8(%ebp),%esi
    287f:	68 58 69 00 00       	push   $0x6958
    2884:	6a 04                	push   $0x4
    2886:	6a ff                	push   $0xffffffff
    2888:	8b 5d 10             	mov    0x10(%ebp),%ebx
    288b:	e8 b0 46 00 00       	call   6f40 <log_msg@plt>
    2890:	83 c4 10             	add    $0x10,%esp
    2893:	83 ff 0d             	cmp    $0xd,%edi
    2896:	76 78                	jbe    2910 <eth_pdu_decode+0xa0>
    2898:	83 ef 0e             	sub    $0xe,%edi
    289b:	89 7b 14             	mov    %edi,0x14(%ebx)
    289e:	50                   	push   %eax
    289f:	50                   	push   %eax
    28a0:	6a 01                	push   $0x1
    28a2:	57                   	push   %edi
    28a3:	e8 e8 46 00 00       	call   6f90 <calloc@plt>
    28a8:	83 c4 10             	add    $0x10,%esp
    28ab:	89 43 10             	mov    %eax,0x10(%ebx)
    28ae:	85 c0                	test   %eax,%eax
    28b0:	74 7e                	je     2930 <eth_pdu_decode+0xc0>
    28b2:	50                   	push   %eax
    28b3:	50                   	push   %eax
    28b4:	8d 43 06             	lea    0x6(%ebx),%eax
    28b7:	50                   	push   %eax
    28b8:	8d 46 06             	lea    0x6(%esi),%eax
    28bb:	50                   	push   %eax
    28bc:	e8 4f 48 00 00       	call   7110 <addr48@plt>
    28c1:	5a                   	pop    %edx
    28c2:	59                   	pop    %ecx
    28c3:	53                   	push   %ebx
    28c4:	56                   	push   %esi
    28c5:	e8 46 48 00 00       	call   7110 <addr48@plt>
    28ca:	83 c4 0c             	add    $0xc,%esp
    28cd:	66 8b 46 0c          	mov    0xc(%esi),%ax
    28d1:	8b 7b 14             	mov    0x14(%ebx),%edi
    28d4:	66 c1 c0 08          	rol    $0x8,%ax
    28d8:	83 c6 0e             	add    $0xe,%esi
    28db:	66 89 43 0c          	mov    %ax,0xc(%ebx)
    28df:	57                   	push   %edi
    28e0:	56                   	push   %esi
    28e1:	8b 43 10             	mov    0x10(%ebx),%eax
    28e4:	50                   	push   %eax
    28e5:	e8 d6 45 00 00       	call   6ec0 <memcpy@plt>
    28ea:	8b 43 14             	mov    0x14(%ebx),%eax
    28ed:	50                   	push   %eax
    28ee:	68 ec 68 00 00       	push   $0x68ec
    28f3:	6a 04                	push   $0x4
    28f5:	6a ff                	push   $0xffffffff
    28f7:	e8 44 46 00 00       	call   6f40 <log_msg@plt>
    28fc:	83 c4 20             	add    $0x20,%esp
    28ff:	31 c0                	xor    %eax,%eax
    2901:	8d 65 f4             	lea    -0xc(%ebp),%esp
    2904:	5b                   	pop    %ebx
    2905:	5e                   	pop    %esi
    2906:	5f                   	pop    %edi
    2907:	5d                   	pop    %ebp
    2908:	c3                   	ret    
    2909:	8d b4 26 00 00 00 00 	lea    0x0(%esi,%eiz,1),%esi
    2910:	57                   	push   %edi
    2911:	68 9b 69 00 00       	push   $0x699b
    2916:	6a 04                	push   $0x4
    2918:	6a ff                	push   $0xffffffff
    291a:	e8 21 46 00 00       	call   6f40 <log_msg@plt>
    291f:	83 c4 10             	add    $0x10,%esp
    2922:	b8 f2 ff ff ff       	mov    $0xfffffff2,%eax
    2927:	eb d8                	jmp    2901 <eth_pdu_decode+0x91>
    2929:	8d b4 26 00 00 00 00 	lea    0x0(%esi,%eiz,1),%esi
    2930:	b8 fe ff ff ff       	mov    $0xfffffffe,%eax
    2935:	eb ca                	jmp    2901 <eth_pdu_decode+0x91>
    2937:	89 f6                	mov    %esi,%esi
    2939:	8d bc 27 00 00 00 00 	lea    0x0(%edi,%eiz,1),%edi

00002940 <arp_pdu_encode>:
    2940:	55                   	push   %ebp
    2941:	89 e5                	mov    %esp,%ebp
    2943:	56                   	push   %esi
    2944:	53                   	push   %ebx
    2945:	50                   	push   %eax
    2946:	8b 75 08             	mov    0x8(%ebp),%esi
    2949:	68 69 69 00 00       	push   $0x6969
    294e:	6a 04                	push   $0x4
    2950:	6a ff                	push   $0xffffffff
    2952:	e8 e9 45 00 00       	call   6f40 <log_msg@plt>
    2957:	58                   	pop    %eax
    2958:	5a                   	pop    %edx
    2959:	6a 01                	push   $0x1
    295b:	6a 1c                	push   $0x1c
    295d:	e8 2e 46 00 00       	call   6f90 <calloc@plt>
    2962:	83 c4 10             	add    $0x10,%esp
    2965:	85 c0                	test   %eax,%eax
    2967:	0f 84 95 00 00 00    	je     2a02 <arp_pdu_encode+0xc2>
    296d:	89 c3                	mov    %eax,%ebx
    296f:	8b 06                	mov    (%esi),%eax
    2971:	85 c0                	test   %eax,%eax
    2973:	0f 84 7f 00 00 00    	je     29f8 <arp_pdu_encode+0xb8>
    2979:	48                   	dec    %eax
    297a:	75 64                	jne    29e0 <arp_pdu_encode+0xa0>
    297c:	b8 00 02 00 00       	mov    $0x200,%eax
    2981:	66 89 43 06          	mov    %ax,0x6(%ebx)
    2985:	66 c7 03 00 01       	movw   $0x100,(%ebx)
    298a:	66 c7 43 02 08 00    	movw   $0x8,0x2(%ebx)
    2990:	c6 43 04 06          	movb   $0x6,0x4(%ebx)
    2994:	c6 43 05 04          	movb   $0x4,0x5(%ebx)
    2998:	50                   	push   %eax
    2999:	50                   	push   %eax
    299a:	8d 43 08             	lea    0x8(%ebx),%eax
    299d:	50                   	push   %eax
    299e:	8d 46 04             	lea    0x4(%esi),%eax
    29a1:	50                   	push   %eax
    29a2:	e8 69 47 00 00       	call   7110 <addr48@plt>
    29a7:	8b 46 0c             	mov    0xc(%esi),%eax
    29aa:	0f c8                	bswap  %eax
    29ac:	89 43 0e             	mov    %eax,0xe(%ebx)
    29af:	8d 43 12             	lea    0x12(%ebx),%eax
    29b2:	5a                   	pop    %edx
    29b3:	59                   	pop    %ecx
    29b4:	50                   	push   %eax
    29b5:	8d 46 10             	lea    0x10(%esi),%eax
    29b8:	50                   	push   %eax
    29b9:	e8 52 47 00 00       	call   7110 <addr48@plt>
    29be:	8b 46 18             	mov    0x18(%esi),%eax
    29c1:	83 c4 10             	add    $0x10,%esp
    29c4:	0f c8                	bswap  %eax
    29c6:	89 43 18             	mov    %eax,0x18(%ebx)
    29c9:	8b 45 0c             	mov    0xc(%ebp),%eax
    29cc:	89 18                	mov    %ebx,(%eax)
    29ce:	8b 45 10             	mov    0x10(%ebp),%eax
    29d1:	c7 00 1c 00 00 00    	movl   $0x1c,(%eax)
    29d7:	31 c0                	xor    %eax,%eax
    29d9:	8d 65 f8             	lea    -0x8(%ebp),%esp
    29dc:	5b                   	pop    %ebx
    29dd:	5e                   	pop    %esi
    29de:	5d                   	pop    %ebp
    29df:	c3                   	ret    
    29e0:	53                   	push   %ebx
    29e1:	68 81 00 00 00       	push   $0x81
    29e6:	68 7a 69 00 00       	push   $0x697a
    29eb:	68 80 69 00 00       	push   $0x6980
    29f0:	e8 8b 45 00 00       	call   6f80 <assert_abort@plt>
    29f5:	8d 76 00             	lea    0x0(%esi),%esi
    29f8:	b8 00 01 00 00       	mov    $0x100,%eax
    29fd:	e9 7f ff ff ff       	jmp    2981 <arp_pdu_encode+0x41>
    2a02:	b8 fe ff ff ff       	mov    $0xfffffffe,%eax
    2a07:	eb d0                	jmp    29d9 <arp_pdu_encode+0x99>
    2a09:	8d b4 26 00 00 00 00 	lea    0x0(%esi,%eiz,1),%esi

00002a10 <arp_pdu_decode>:
    2a10:	55                   	push   %ebp
    2a11:	89 e5                	mov    %esp,%ebp
    2a13:	56                   	push   %esi
    2a14:	53                   	push   %ebx
    2a15:	50                   	push   %eax
    2a16:	68 86 69 00 00       	push   $0x6986
    2a1b:	6a 04                	push   $0x4
    2a1d:	6a ff                	push   $0xffffffff
    2a1f:	8b 5d 08             	mov    0x8(%ebp),%ebx
    2a22:	8b 75 10             	mov    0x10(%ebp),%esi
    2a25:	e8 16 45 00 00       	call   6f40 <log_msg@plt>
    2a2a:	83 c4 10             	add    $0x10,%esp
    2a2d:	83 7d 0c 1b          	cmpl   $0x1b,0xc(%ebp)
    2a31:	0f 86 51 01 00 00    	jbe    2b88 <arp_pdu_decode+0x178>
    2a37:	66 8b 03             	mov    (%ebx),%ax
    2a3a:	66 c1 c0 08          	rol    $0x8,%ax
    2a3e:	66 83 f8 01          	cmp    $0x1,%ax
    2a42:	89 c1                	mov    %eax,%ecx
    2a44:	0f 85 ce 00 00 00    	jne    2b18 <arp_pdu_decode+0x108>
    2a4a:	66 8b 43 02          	mov    0x2(%ebx),%ax
    2a4e:	66 c1 c0 08          	rol    $0x8,%ax
    2a52:	66 3d 00 08          	cmp    $0x800,%ax
    2a56:	89 c2                	mov    %eax,%edx
    2a58:	0f 85 e2 00 00 00    	jne    2b40 <arp_pdu_decode+0x130>
    2a5e:	8a 4b 04             	mov    0x4(%ebx),%cl
    2a61:	80 f9 06             	cmp    $0x6,%cl
    2a64:	0f 85 ee 00 00 00    	jne    2b58 <arp_pdu_decode+0x148>
    2a6a:	8a 53 05             	mov    0x5(%ebx),%dl
    2a6d:	80 fa 04             	cmp    $0x4,%dl
    2a70:	0f 85 fa 00 00 00    	jne    2b70 <arp_pdu_decode+0x160>
    2a76:	66 8b 43 06          	mov    0x6(%ebx),%ax
    2a7a:	66 c1 c0 08          	rol    $0x8,%ax
    2a7e:	66 83 f8 01          	cmp    $0x1,%ax
    2a82:	89 c1                	mov    %eax,%ecx
    2a84:	0f 84 86 00 00 00    	je     2b10 <arp_pdu_decode+0x100>
    2a8a:	66 83 f8 02          	cmp    $0x2,%ax
    2a8e:	74 28                	je     2ab8 <arp_pdu_decode+0xa8>
    2a90:	31 c0                	xor    %eax,%eax
    2a92:	66 89 c8             	mov    %cx,%ax
    2a95:	50                   	push   %eax
    2a96:	68 e9 69 00 00       	push   $0x69e9
    2a9b:	6a 04                	push   $0x4
    2a9d:	6a ff                	push   $0xffffffff
    2a9f:	e8 9c 44 00 00       	call   6f40 <log_msg@plt>
    2aa4:	83 c4 10             	add    $0x10,%esp
    2aa7:	8d 65 f8             	lea    -0x8(%ebp),%esp
    2aaa:	b8 f2 ff ff ff       	mov    $0xfffffff2,%eax
    2aaf:	5b                   	pop    %ebx
    2ab0:	5e                   	pop    %esi
    2ab1:	5d                   	pop    %ebp
    2ab2:	c3                   	ret    
    2ab3:	90                   	nop
    2ab4:	8d 74 26 00          	lea    0x0(%esi,%eiz,1),%esi
    2ab8:	c7 06 01 00 00 00    	movl   $0x1,(%esi)
    2abe:	50                   	push   %eax
    2abf:	50                   	push   %eax
    2ac0:	8d 46 04             	lea    0x4(%esi),%eax
    2ac3:	50                   	push   %eax
    2ac4:	8d 43 08             	lea    0x8(%ebx),%eax
    2ac7:	50                   	push   %eax
    2ac8:	e8 43 46 00 00       	call   7110 <addr48@plt>
    2acd:	8b 43 0e             	mov    0xe(%ebx),%eax
    2ad0:	0f c8                	bswap  %eax
    2ad2:	89 46 0c             	mov    %eax,0xc(%esi)
    2ad5:	8d 46 10             	lea    0x10(%esi),%eax
    2ad8:	5a                   	pop    %edx
    2ad9:	59                   	pop    %ecx
    2ada:	50                   	push   %eax
    2adb:	8d 43 12             	lea    0x12(%ebx),%eax
    2ade:	50                   	push   %eax
    2adf:	e8 2c 46 00 00       	call   7110 <addr48@plt>
    2ae4:	8b 43 18             	mov    0x18(%ebx),%eax
    2ae7:	89 c2                	mov    %eax,%edx
    2ae9:	0f ca                	bswap  %edx
    2aeb:	89 56 18             	mov    %edx,0x18(%esi)
    2aee:	50                   	push   %eax
    2aef:	68 02 6a 00 00       	push   $0x6a02
    2af4:	6a 04                	push   $0x4
    2af6:	6a ff                	push   $0xffffffff
    2af8:	e8 43 44 00 00       	call   6f40 <log_msg@plt>
    2afd:	83 c4 20             	add    $0x20,%esp
    2b00:	8d 65 f8             	lea    -0x8(%ebp),%esp
    2b03:	31 c0                	xor    %eax,%eax
    2b05:	5b                   	pop    %ebx
    2b06:	5e                   	pop    %esi
    2b07:	5d                   	pop    %ebp
    2b08:	c3                   	ret    
    2b09:	8d b4 26 00 00 00 00 	lea    0x0(%esi,%eiz,1),%esi
    2b10:	c7 06 00 00 00 00    	movl   $0x0,(%esi)
    2b16:	eb a6                	jmp    2abe <arp_pdu_decode+0xae>
    2b18:	83 ec 0c             	sub    $0xc,%esp
    2b1b:	31 c0                	xor    %eax,%eax
    2b1d:	66 89 c8             	mov    %cx,%ax
    2b20:	50                   	push   %eax
    2b21:	6a 01                	push   $0x1
    2b23:	68 af 69 00 00       	push   $0x69af
    2b28:	6a 04                	push   $0x4
    2b2a:	6a ff                	push   $0xffffffff
    2b2c:	e8 0f 44 00 00       	call   6f40 <log_msg@plt>
    2b31:	83 c4 20             	add    $0x20,%esp
    2b34:	8d 65 f8             	lea    -0x8(%ebp),%esp
    2b37:	b8 f2 ff ff ff       	mov    $0xfffffff2,%eax
    2b3c:	5b                   	pop    %ebx
    2b3d:	5e                   	pop    %esi
    2b3e:	5d                   	pop    %ebp
    2b3f:	c3                   	ret    
    2b40:	83 ec 0c             	sub    $0xc,%esp
    2b43:	31 c0                	xor    %eax,%eax
    2b45:	66 89 d0             	mov    %dx,%ax
    2b48:	50                   	push   %eax
    2b49:	68 00 08 00 00       	push   $0x800
    2b4e:	68 18 69 00 00       	push   $0x6918
    2b53:	eb d3                	jmp    2b28 <arp_pdu_decode+0x118>
    2b55:	8d 76 00             	lea    0x0(%esi),%esi
    2b58:	83 ec 0c             	sub    $0xc,%esp
    2b5b:	31 c0                	xor    %eax,%eax
    2b5d:	88 c8                	mov    %cl,%al
    2b5f:	50                   	push   %eax
    2b60:	6a 06                	push   $0x6
    2b62:	68 cc 69 00 00       	push   $0x69cc
    2b67:	eb bf                	jmp    2b28 <arp_pdu_decode+0x118>
    2b69:	8d b4 26 00 00 00 00 	lea    0x0(%esi,%eiz,1),%esi
    2b70:	83 ec 0c             	sub    $0xc,%esp
    2b73:	31 c0                	xor    %eax,%eax
    2b75:	88 d0                	mov    %dl,%al
    2b77:	50                   	push   %eax
    2b78:	6a 04                	push   $0x4
    2b7a:	68 38 69 00 00       	push   $0x6938
    2b7f:	eb a7                	jmp    2b28 <arp_pdu_decode+0x118>
    2b81:	8d b4 26 00 00 00 00 	lea    0x0(%esi,%eiz,1),%esi
    2b88:	8b 5d 0c             	mov    0xc(%ebp),%ebx
    2b8b:	53                   	push   %ebx
    2b8c:	68 97 69 00 00       	push   $0x6997
    2b91:	e9 05 ff ff ff       	jmp    2a9b <arp_pdu_decode+0x8b>
    2b96:	66 90                	xchg   %ax,%ax
    2b98:	66 90                	xchg   %ax,%ax
    2b9a:	66 90                	xchg   %ax,%ax
    2b9c:	66 90                	xchg   %ax,%ax
    2b9e:	66 90                	xchg   %ax,%ax

00002ba0 <remote_nic_poll_now>:
    2ba0:	55                   	push   %ebp
    2ba1:	89 e5                	mov    %esp,%ebp
    2ba3:	53                   	push   %ebx
    2ba4:	50                   	push   %eax
    2ba5:	8b 45 0c             	mov    0xc(%ebp),%eax
    2ba8:	8b 55 08             	mov    0x8(%ebp),%edx
    2bab:	8b 5d 10             	mov    0x10(%ebp),%ebx
    2bae:	8b 80 a0 00 00 00    	mov    0xa0(%eax),%eax
    2bb4:	85 c0                	test   %eax,%eax
    2bb6:	74 18                	je     2bd0 <remote_nic_poll_now+0x30>
    2bb8:	83 ec 0c             	sub    $0xc,%esp
    2bbb:	52                   	push   %edx
    2bbc:	ff d0                	call   *%eax
    2bbe:	89 5d 08             	mov    %ebx,0x8(%ebp)
    2bc1:	83 c4 10             	add    $0x10,%esp
    2bc4:	8b 5d fc             	mov    -0x4(%ebp),%ebx
    2bc7:	89 45 0c             	mov    %eax,0xc(%ebp)
    2bca:	c9                   	leave  
    2bcb:	e9 30 43 00 00       	jmp    6f00 <async_answer_0@plt>
    2bd0:	89 5d 08             	mov    %ebx,0x8(%ebp)
    2bd3:	8b 5d fc             	mov    -0x4(%ebp),%ebx
    2bd6:	c7 45 0c f5 ff ff ff 	movl   $0xfffffff5,0xc(%ebp)
    2bdd:	c9                   	leave  
    2bde:	e9 1d 43 00 00       	jmp    6f00 <async_answer_0@plt>
    2be3:	8d b6 00 00 00 00    	lea    0x0(%esi),%esi
    2be9:	8d bc 27 00 00 00 00 	lea    0x0(%edi,%eiz,1),%edi

00002bf0 <remote_nic_offload_set>:
    2bf0:	55                   	push   %ebp
    2bf1:	89 e5                	mov    %esp,%ebp
    2bf3:	53                   	push   %ebx
    2bf4:	51                   	push   %ecx
    2bf5:	8b 45 0c             	mov    0xc(%ebp),%eax
    2bf8:	8b 4d 08             	mov    0x8(%ebp),%ecx
    2bfb:	8b 5d 10             	mov    0x10(%ebp),%ebx
    2bfe:	8b 55 14             	mov    0x14(%ebp),%edx
    2c01:	8b 80 94 00 00 00    	mov    0x94(%eax),%eax
    2c07:	85 c0                	test   %eax,%eax
    2c09:	74 25                	je     2c30 <remote_nic_offload_set+0x40>
    2c0b:	83 ec 04             	sub    $0x4,%esp
    2c0e:	ff 72 0c             	pushl  0xc(%edx)
    2c11:	8b 52 08             	mov    0x8(%edx),%edx
    2c14:	52                   	push   %edx
    2c15:	51                   	push   %ecx
    2c16:	ff d0                	call   *%eax
    2c18:	89 5d 08             	mov    %ebx,0x8(%ebp)
    2c1b:	83 c4 10             	add    $0x10,%esp
    2c1e:	8b 5d fc             	mov    -0x4(%ebp),%ebx
    2c21:	89 45 0c             	mov    %eax,0xc(%ebp)
    2c24:	c9                   	leave  
    2c25:	e9 d6 42 00 00       	jmp    6f00 <async_answer_0@plt>
    2c2a:	8d b6 00 00 00 00    	lea    0x0(%esi),%esi
    2c30:	89 5d 08             	mov    %ebx,0x8(%ebp)
    2c33:	8b 5d fc             	mov    -0x4(%ebp),%ebx
    2c36:	c7 45 0c f5 ff ff ff 	movl   $0xfffffff5,0xc(%ebp)
    2c3d:	c9                   	leave  
    2c3e:	e9 bd 42 00 00       	jmp    6f00 <async_answer_0@plt>
    2c43:	8d b6 00 00 00 00    	lea    0x0(%esi),%esi
    2c49:	8d bc 27 00 00 00 00 	lea    0x0(%edi,%eiz,1),%edi

00002c50 <remote_nic_wol_virtue_remove>:
    2c50:	55                   	push   %ebp
    2c51:	89 e5                	mov    %esp,%ebp
    2c53:	53                   	push   %ebx
    2c54:	53                   	push   %ebx
    2c55:	8b 45 0c             	mov    0xc(%ebp),%eax
    2c58:	8b 55 08             	mov    0x8(%ebp),%edx
    2c5b:	8b 5d 10             	mov    0x10(%ebp),%ebx
    2c5e:	8b 4d 14             	mov    0x14(%ebp),%ecx
    2c61:	8b 40 7c             	mov    0x7c(%eax),%eax
    2c64:	85 c0                	test   %eax,%eax
    2c66:	74 20                	je     2c88 <remote_nic_wol_virtue_remove+0x38>
    2c68:	83 ec 08             	sub    $0x8,%esp
    2c6b:	8b 49 08             	mov    0x8(%ecx),%ecx
    2c6e:	51                   	push   %ecx
    2c6f:	52                   	push   %edx
    2c70:	ff d0                	call   *%eax
    2c72:	89 5d 08             	mov    %ebx,0x8(%ebp)
    2c75:	83 c4 10             	add    $0x10,%esp
    2c78:	8b 5d fc             	mov    -0x4(%ebp),%ebx
    2c7b:	89 45 0c             	mov    %eax,0xc(%ebp)
    2c7e:	c9                   	leave  
    2c7f:	e9 7c 42 00 00       	jmp    6f00 <async_answer_0@plt>
    2c84:	8d 74 26 00          	lea    0x0(%esi,%eiz,1),%esi
    2c88:	89 5d 08             	mov    %ebx,0x8(%ebp)
    2c8b:	8b 5d fc             	mov    -0x4(%ebp),%ebx
    2c8e:	c7 45 0c f5 ff ff ff 	movl   $0xfffffff5,0xc(%ebp)
    2c95:	c9                   	leave  
    2c96:	e9 65 42 00 00       	jmp    6f00 <async_answer_0@plt>
    2c9b:	90                   	nop
    2c9c:	8d 74 26 00          	lea    0x0(%esi,%eiz,1),%esi

00002ca0 <remote_nic_vlan_set_tag>:
    2ca0:	55                   	push   %ebp
    2ca1:	89 e5                	mov    %esp,%ebp
    2ca3:	57                   	push   %edi
    2ca4:	56                   	push   %esi
    2ca5:	53                   	push   %ebx
    2ca6:	83 ec 0c             	sub    $0xc,%esp
    2ca9:	8b 55 0c             	mov    0xc(%ebp),%edx
    2cac:	8b 7d 08             	mov    0x8(%ebp),%edi
    2caf:	8b 5d 10             	mov    0x10(%ebp),%ebx
    2cb2:	8b 45 14             	mov    0x14(%ebp),%eax
    2cb5:	8b 52 74             	mov    0x74(%edx),%edx
    2cb8:	85 d2                	test   %edx,%edx
    2cba:	74 3c                	je     2cf8 <remote_nic_vlan_set_tag+0x58>
    2cbc:	8b 70 10             	mov    0x10(%eax),%esi
    2cbf:	31 c9                	xor    %ecx,%ecx
    2cc1:	85 f6                	test   %esi,%esi
    2cc3:	0f 95 c1             	setne  %cl
    2cc6:	89 ce                	mov    %ecx,%esi
    2cc8:	31 c9                	xor    %ecx,%ecx
    2cca:	56                   	push   %esi
    2ccb:	8b 70 0c             	mov    0xc(%eax),%esi
    2cce:	85 f6                	test   %esi,%esi
    2cd0:	0f 95 c1             	setne  %cl
    2cd3:	89 ce                	mov    %ecx,%esi
    2cd5:	56                   	push   %esi
    2cd6:	8b 48 08             	mov    0x8(%eax),%ecx
    2cd9:	81 e1 ff ff 00 00    	and    $0xffff,%ecx
    2cdf:	51                   	push   %ecx
    2ce0:	57                   	push   %edi
    2ce1:	ff d2                	call   *%edx
    2ce3:	89 5d 08             	mov    %ebx,0x8(%ebp)
    2ce6:	89 45 0c             	mov    %eax,0xc(%ebp)
    2ce9:	83 c4 10             	add    $0x10,%esp
    2cec:	8d 65 f4             	lea    -0xc(%ebp),%esp
    2cef:	5b                   	pop    %ebx
    2cf0:	5e                   	pop    %esi
    2cf1:	5f                   	pop    %edi
    2cf2:	5d                   	pop    %ebp
    2cf3:	e9 08 42 00 00       	jmp    6f00 <async_answer_0@plt>
    2cf8:	89 5d 08             	mov    %ebx,0x8(%ebp)
    2cfb:	c7 45 0c f5 ff ff ff 	movl   $0xfffffff5,0xc(%ebp)
    2d02:	8d 65 f4             	lea    -0xc(%ebp),%esp
    2d05:	5b                   	pop    %ebx
    2d06:	5e                   	pop    %esi
    2d07:	5f                   	pop    %edi
    2d08:	5d                   	pop    %ebp
    2d09:	e9 f2 41 00 00       	jmp    6f00 <async_answer_0@plt>
    2d0e:	66 90                	xchg   %ax,%ax

00002d10 <remote_nic_defective_set_mode>:
    2d10:	55                   	push   %ebp
    2d11:	89 e5                	mov    %esp,%ebp
    2d13:	53                   	push   %ebx
    2d14:	53                   	push   %ebx
    2d15:	8b 45 0c             	mov    0xc(%ebp),%eax
    2d18:	8b 55 08             	mov    0x8(%ebp),%edx
    2d1b:	8b 5d 10             	mov    0x10(%ebp),%ebx
    2d1e:	8b 4d 14             	mov    0x14(%ebp),%ecx
    2d21:	8b 40 60             	mov    0x60(%eax),%eax
    2d24:	85 c0                	test   %eax,%eax
    2d26:	74 20                	je     2d48 <remote_nic_defective_set_mode+0x38>
    2d28:	83 ec 08             	sub    $0x8,%esp
    2d2b:	8b 49 08             	mov    0x8(%ecx),%ecx
    2d2e:	51                   	push   %ecx
    2d2f:	52                   	push   %edx
    2d30:	ff d0                	call   *%eax
    2d32:	89 5d 08             	mov    %ebx,0x8(%ebp)
    2d35:	83 c4 10             	add    $0x10,%esp
    2d38:	8b 5d fc             	mov    -0x4(%ebp),%ebx
    2d3b:	89 45 0c             	mov    %eax,0xc(%ebp)
    2d3e:	c9                   	leave  
    2d3f:	e9 bc 41 00 00       	jmp    6f00 <async_answer_0@plt>
    2d44:	8d 74 26 00          	lea    0x0(%esi,%eiz,1),%esi
    2d48:	89 5d 08             	mov    %ebx,0x8(%ebp)
    2d4b:	8b 5d fc             	mov    -0x4(%ebp),%ebx
    2d4e:	c7 45 0c f5 ff ff ff 	movl   $0xfffffff5,0xc(%ebp)
    2d55:	c9                   	leave  
    2d56:	e9 a5 41 00 00       	jmp    6f00 <async_answer_0@plt>
    2d5b:	90                   	nop
    2d5c:	8d 74 26 00          	lea    0x0(%esi,%eiz,1),%esi

00002d60 <remote_nic_broadcast_set_mode>:
    2d60:	55                   	push   %ebp
    2d61:	89 e5                	mov    %esp,%ebp
    2d63:	53                   	push   %ebx
    2d64:	53                   	push   %ebx
    2d65:	8b 45 0c             	mov    0xc(%ebp),%eax
    2d68:	8b 55 08             	mov    0x8(%ebp),%edx
    2d6b:	8b 5d 10             	mov    0x10(%ebp),%ebx
    2d6e:	8b 4d 14             	mov    0x14(%ebp),%ecx
    2d71:	8b 40 58             	mov    0x58(%eax),%eax
    2d74:	85 c0                	test   %eax,%eax
    2d76:	74 20                	je     2d98 <remote_nic_broadcast_set_mode+0x38>
    2d78:	83 ec 08             	sub    $0x8,%esp
    2d7b:	8b 49 08             	mov    0x8(%ecx),%ecx
    2d7e:	51                   	push   %ecx
    2d7f:	52                   	push   %edx
    2d80:	ff d0                	call   *%eax
    2d82:	89 5d 08             	mov    %ebx,0x8(%ebp)
    2d85:	83 c4 10             	add    $0x10,%esp
    2d88:	8b 5d fc             	mov    -0x4(%ebp),%ebx
    2d8b:	89 45 0c             	mov    %eax,0xc(%ebp)
    2d8e:	c9                   	leave  
    2d8f:	e9 6c 41 00 00       	jmp    6f00 <async_answer_0@plt>
    2d94:	8d 74 26 00          	lea    0x0(%esi,%eiz,1),%esi
    2d98:	89 5d 08             	mov    %ebx,0x8(%ebp)
    2d9b:	8b 5d fc             	mov    -0x4(%ebp),%ebx
    2d9e:	c7 45 0c f5 ff ff ff 	movl   $0xfffffff5,0xc(%ebp)
    2da5:	c9                   	leave  
    2da6:	e9 55 41 00 00       	jmp    6f00 <async_answer_0@plt>
    2dab:	90                   	nop
    2dac:	8d 74 26 00          	lea    0x0(%esi,%eiz,1),%esi

00002db0 <remote_nic_set_pause>:
    2db0:	55                   	push   %ebp
    2db1:	89 e5                	mov    %esp,%ebp
    2db3:	56                   	push   %esi
    2db4:	53                   	push   %ebx
    2db5:	8b 55 0c             	mov    0xc(%ebp),%edx
    2db8:	8b 4d 08             	mov    0x8(%ebp),%ecx
    2dbb:	8b 5d 10             	mov    0x10(%ebp),%ebx
    2dbe:	8b 45 14             	mov    0x14(%ebp),%eax
    2dc1:	8b 52 40             	mov    0x40(%edx),%edx
    2dc4:	85 d2                	test   %edx,%edx
    2dc6:	74 28                	je     2df0 <remote_nic_set_pause+0x40>
    2dc8:	31 f6                	xor    %esi,%esi
    2dca:	66 8b 70 10          	mov    0x10(%eax),%si
    2dce:	56                   	push   %esi
    2dcf:	8b 70 0c             	mov    0xc(%eax),%esi
    2dd2:	56                   	push   %esi
    2dd3:	8b 40 08             	mov    0x8(%eax),%eax
    2dd6:	50                   	push   %eax
    2dd7:	51                   	push   %ecx
    2dd8:	ff d2                	call   *%edx
    2dda:	89 5d 08             	mov    %ebx,0x8(%ebp)
    2ddd:	89 45 0c             	mov    %eax,0xc(%ebp)
    2de0:	83 c4 10             	add    $0x10,%esp
    2de3:	8d 65 f8             	lea    -0x8(%ebp),%esp
    2de6:	5b                   	pop    %ebx
    2de7:	5e                   	pop    %esi
    2de8:	5d                   	pop    %ebp
    2de9:	e9 12 41 00 00       	jmp    6f00 <async_answer_0@plt>
    2dee:	66 90                	xchg   %ax,%ax
    2df0:	89 5d 08             	mov    %ebx,0x8(%ebp)
    2df3:	c7 45 0c f5 ff ff ff 	movl   $0xfffffff5,0xc(%ebp)
    2dfa:	8d 65 f8             	lea    -0x8(%ebp),%esp
    2dfd:	5b                   	pop    %ebx
    2dfe:	5e                   	pop    %esi
    2dff:	5d                   	pop    %ebp
    2e00:	e9 fb 40 00 00       	jmp    6f00 <async_answer_0@plt>
    2e05:	8d 74 26 00          	lea    0x0(%esi,%eiz,1),%esi
    2e09:	8d bc 27 00 00 00 00 	lea    0x0(%edi,%eiz,1),%edi

00002e10 <remote_nic_autoneg_restart>:
    2e10:	55                   	push   %ebp
    2e11:	89 e5                	mov    %esp,%ebp
    2e13:	53                   	push   %ebx
    2e14:	50                   	push   %eax
    2e15:	8b 45 0c             	mov    0xc(%ebp),%eax
    2e18:	8b 55 08             	mov    0x8(%ebp),%edx
    2e1b:	8b 5d 10             	mov    0x10(%ebp),%ebx
    2e1e:	8b 40 38             	mov    0x38(%eax),%eax
    2e21:	85 c0                	test   %eax,%eax
    2e23:	74 1b                	je     2e40 <remote_nic_autoneg_restart+0x30>
    2e25:	83 ec 0c             	sub    $0xc,%esp
    2e28:	52                   	push   %edx
    2e29:	ff d0                	call   *%eax
    2e2b:	89 5d 08             	mov    %ebx,0x8(%ebp)
    2e2e:	83 c4 10             	add    $0x10,%esp
    2e31:	8b 5d fc             	mov    -0x4(%ebp),%ebx
    2e34:	89 45 0c             	mov    %eax,0xc(%ebp)
    2e37:	c9                   	leave  
    2e38:	e9 c3 40 00 00       	jmp    6f00 <async_answer_0@plt>
    2e3d:	8d 76 00             	lea    0x0(%esi),%esi
    2e40:	89 5d 08             	mov    %ebx,0x8(%ebp)
    2e43:	8b 5d fc             	mov    -0x4(%ebp),%ebx
    2e46:	c7 45 0c f5 ff ff ff 	movl   $0xfffffff5,0xc(%ebp)
    2e4d:	c9                   	leave  
    2e4e:	e9 ad 40 00 00       	jmp    6f00 <async_answer_0@plt>
    2e53:	8d b6 00 00 00 00    	lea    0x0(%esi),%esi
    2e59:	8d bc 27 00 00 00 00 	lea    0x0(%edi,%eiz,1),%edi

00002e60 <remote_nic_autoneg_disable>:
    2e60:	55                   	push   %ebp
    2e61:	89 e5                	mov    %esp,%ebp
    2e63:	53                   	push   %ebx
    2e64:	50                   	push   %eax
    2e65:	8b 45 0c             	mov    0xc(%ebp),%eax
    2e68:	8b 55 08             	mov    0x8(%ebp),%edx
    2e6b:	8b 5d 10             	mov    0x10(%ebp),%ebx
    2e6e:	8b 40 30             	mov    0x30(%eax),%eax
    2e71:	85 c0                	test   %eax,%eax
    2e73:	74 1b                	je     2e90 <remote_nic_autoneg_disable+0x30>
    2e75:	83 ec 0c             	sub    $0xc,%esp
    2e78:	52                   	push   %edx
    2e79:	ff d0                	call   *%eax
    2e7b:	89 5d 08             	mov    %ebx,0x8(%ebp)
    2e7e:	83 c4 10             	add    $0x10,%esp
    2e81:	8b 5d fc             	mov    -0x4(%ebp),%ebx
    2e84:	89 45 0c             	mov    %eax,0xc(%ebp)
    2e87:	c9                   	leave  
    2e88:	e9 73 40 00 00       	jmp    6f00 <async_answer_0@plt>
    2e8d:	8d 76 00             	lea    0x0(%esi),%esi
    2e90:	89 5d 08             	mov    %ebx,0x8(%ebp)
    2e93:	8b 5d fc             	mov    -0x4(%ebp),%ebx
    2e96:	c7 45 0c f5 ff ff ff 	movl   $0xfffffff5,0xc(%ebp)
    2e9d:	c9                   	leave  
    2e9e:	e9 5d 40 00 00       	jmp    6f00 <async_answer_0@plt>
    2ea3:	8d b6 00 00 00 00    	lea    0x0(%esi),%esi
    2ea9:	8d bc 27 00 00 00 00 	lea    0x0(%edi,%eiz,1),%edi

00002eb0 <remote_nic_autoneg_enable>:
    2eb0:	55                   	push   %ebp
    2eb1:	89 e5                	mov    %esp,%ebp
    2eb3:	53                   	push   %ebx
    2eb4:	53                   	push   %ebx
    2eb5:	8b 45 0c             	mov    0xc(%ebp),%eax
    2eb8:	8b 55 08             	mov    0x8(%ebp),%edx
    2ebb:	8b 5d 10             	mov    0x10(%ebp),%ebx
    2ebe:	8b 4d 14             	mov    0x14(%ebp),%ecx
    2ec1:	8b 40 2c             	mov    0x2c(%eax),%eax
    2ec4:	85 c0                	test   %eax,%eax
    2ec6:	74 20                	je     2ee8 <remote_nic_autoneg_enable+0x38>
    2ec8:	83 ec 08             	sub    $0x8,%esp
    2ecb:	8b 49 08             	mov    0x8(%ecx),%ecx
    2ece:	51                   	push   %ecx
    2ecf:	52                   	push   %edx
    2ed0:	ff d0                	call   *%eax
    2ed2:	89 5d 08             	mov    %ebx,0x8(%ebp)
    2ed5:	83 c4 10             	add    $0x10,%esp
    2ed8:	8b 5d fc             	mov    -0x4(%ebp),%ebx
    2edb:	89 45 0c             	mov    %eax,0xc(%ebp)
    2ede:	c9                   	leave  
    2edf:	e9 1c 40 00 00       	jmp    6f00 <async_answer_0@plt>
    2ee4:	8d 74 26 00          	lea    0x0(%esi,%eiz,1),%esi
    2ee8:	89 5d 08             	mov    %ebx,0x8(%ebp)
    2eeb:	8b 5d fc             	mov    -0x4(%ebp),%ebx
    2eee:	c7 45 0c f5 ff ff ff 	movl   $0xfffffff5,0xc(%ebp)
    2ef5:	c9                   	leave  
    2ef6:	e9 05 40 00 00       	jmp    6f00 <async_answer_0@plt>
    2efb:	90                   	nop
    2efc:	8d 74 26 00          	lea    0x0(%esi,%eiz,1),%esi

00002f00 <remote_nic_set_operation_mode>:
    2f00:	55                   	push   %ebp
    2f01:	89 e5                	mov    %esp,%ebp
    2f03:	53                   	push   %ebx
    2f04:	52                   	push   %edx
    2f05:	8b 55 0c             	mov    0xc(%ebp),%edx
    2f08:	8b 4d 08             	mov    0x8(%ebp),%ecx
    2f0b:	8b 5d 10             	mov    0x10(%ebp),%ebx
    2f0e:	8b 45 14             	mov    0x14(%ebp),%eax
    2f11:	8b 52 28             	mov    0x28(%edx),%edx
    2f14:	85 d2                	test   %edx,%edx
    2f16:	74 20                	je     2f38 <remote_nic_set_operation_mode+0x38>
    2f18:	ff 70 10             	pushl  0x10(%eax)
    2f1b:	ff 70 0c             	pushl  0xc(%eax)
    2f1e:	8b 40 08             	mov    0x8(%eax),%eax
    2f21:	50                   	push   %eax
    2f22:	51                   	push   %ecx
    2f23:	ff d2                	call   *%edx
    2f25:	89 5d 08             	mov    %ebx,0x8(%ebp)
    2f28:	83 c4 10             	add    $0x10,%esp
    2f2b:	8b 5d fc             	mov    -0x4(%ebp),%ebx
    2f2e:	89 45 0c             	mov    %eax,0xc(%ebp)
    2f31:	c9                   	leave  
    2f32:	e9 c9 3f 00 00       	jmp    6f00 <async_answer_0@plt>
    2f37:	90                   	nop
    2f38:	89 5d 08             	mov    %ebx,0x8(%ebp)
    2f3b:	8b 5d fc             	mov    -0x4(%ebp),%ebx
    2f3e:	c7 45 0c f5 ff ff ff 	movl   $0xfffffff5,0xc(%ebp)
    2f45:	c9                   	leave  
    2f46:	e9 b5 3f 00 00       	jmp    6f00 <async_answer_0@plt>
    2f4b:	90                   	nop
    2f4c:	8d 74 26 00          	lea    0x0(%esi,%eiz,1),%esi

00002f50 <remote_nic_poll_set_mode>:
    2f50:	55                   	push   %ebp
    2f51:	31 d2                	xor    %edx,%edx
    2f53:	89 e5                	mov    %esp,%ebp
    2f55:	56                   	push   %esi
    2f56:	53                   	push   %ebx
    2f57:	83 ec 10             	sub    $0x10,%esp
    2f5a:	8b 45 14             	mov    0x14(%ebp),%eax
    2f5d:	8b 70 08             	mov    0x8(%eax),%esi
    2f60:	8b 40 0c             	mov    0xc(%eax),%eax
    2f63:	85 c0                	test   %eax,%eax
    2f65:	75 31                	jne    2f98 <remote_nic_poll_set_mode+0x48>
    2f67:	8b 45 0c             	mov    0xc(%ebp),%eax
    2f6a:	8b 80 9c 00 00 00    	mov    0x9c(%eax),%eax
    2f70:	85 c0                	test   %eax,%eax
    2f72:	0f 84 90 00 00 00    	je     3008 <remote_nic_poll_set_mode+0xb8>
    2f78:	8b 5d 08             	mov    0x8(%ebp),%ebx
    2f7b:	51                   	push   %ecx
    2f7c:	52                   	push   %edx
    2f7d:	56                   	push   %esi
    2f7e:	53                   	push   %ebx
    2f7f:	ff d0                	call   *%eax
    2f81:	8b 4d 10             	mov    0x10(%ebp),%ecx
    2f84:	5e                   	pop    %esi
    2f85:	5a                   	pop    %edx
    2f86:	50                   	push   %eax
    2f87:	51                   	push   %ecx
    2f88:	e8 73 3f 00 00       	call   6f00 <async_answer_0@plt>
    2f8d:	83 c4 10             	add    $0x10,%esp
    2f90:	8d 65 f8             	lea    -0x8(%ebp),%esp
    2f93:	5b                   	pop    %ebx
    2f94:	5e                   	pop    %esi
    2f95:	5d                   	pop    %ebp
    2f96:	c3                   	ret    
    2f97:	90                   	nop
    2f98:	8d 45 e8             	lea    -0x18(%ebp),%eax
    2f9b:	53                   	push   %ebx
    2f9c:	53                   	push   %ebx
    2f9d:	50                   	push   %eax
    2f9e:	8d 45 ec             	lea    -0x14(%ebp),%eax
    2fa1:	50                   	push   %eax
    2fa2:	e8 f9 41 00 00       	call   71a0 <async_data_write_receive@plt>
    2fa7:	83 c4 10             	add    $0x10,%esp
    2faa:	84 c0                	test   %al,%al
    2fac:	74 72                	je     3020 <remote_nic_poll_set_mode+0xd0>
    2fae:	83 7d e8 08          	cmpl   $0x8,-0x18(%ebp)
    2fb2:	74 24                	je     2fd8 <remote_nic_poll_set_mode+0x88>
    2fb4:	50                   	push   %eax
    2fb5:	50                   	push   %eax
    2fb6:	8b 45 ec             	mov    -0x14(%ebp),%eax
    2fb9:	6a fd                	push   $0xfffffffd
    2fbb:	50                   	push   %eax
    2fbc:	e8 3f 3f 00 00       	call   6f00 <async_answer_0@plt>
    2fc1:	8b 4d 10             	mov    0x10(%ebp),%ecx
    2fc4:	58                   	pop    %eax
    2fc5:	5a                   	pop    %edx
    2fc6:	6a fd                	push   $0xfffffffd
    2fc8:	51                   	push   %ecx
    2fc9:	e8 32 3f 00 00       	call   6f00 <async_answer_0@plt>
    2fce:	83 c4 10             	add    $0x10,%esp
    2fd1:	8d 65 f8             	lea    -0x8(%ebp),%esp
    2fd4:	5b                   	pop    %ebx
    2fd5:	5e                   	pop    %esi
    2fd6:	5d                   	pop    %ebp
    2fd7:	c3                   	ret    
    2fd8:	8d 5d f0             	lea    -0x10(%ebp),%ebx
    2fdb:	50                   	push   %eax
    2fdc:	8b 45 ec             	mov    -0x14(%ebp),%eax
    2fdf:	6a 08                	push   $0x8
    2fe1:	53                   	push   %ebx
    2fe2:	50                   	push   %eax
    2fe3:	e8 48 41 00 00       	call   7130 <async_data_write_finalize@plt>
    2fe8:	83 c4 10             	add    $0x10,%esp
    2feb:	89 da                	mov    %ebx,%edx
    2fed:	85 c0                	test   %eax,%eax
    2fef:	0f 84 72 ff ff ff    	je     2f67 <remote_nic_poll_set_mode+0x17>
    2ff5:	8b 75 10             	mov    0x10(%ebp),%esi
    2ff8:	53                   	push   %ebx
    2ff9:	53                   	push   %ebx
    2ffa:	6a f2                	push   $0xfffffff2
    2ffc:	56                   	push   %esi
    2ffd:	e8 fe 3e 00 00       	call   6f00 <async_answer_0@plt>
    3002:	83 c4 10             	add    $0x10,%esp
    3005:	eb 89                	jmp    2f90 <remote_nic_poll_set_mode+0x40>
    3007:	90                   	nop
    3008:	8b 55 10             	mov    0x10(%ebp),%edx
    300b:	50                   	push   %eax
    300c:	50                   	push   %eax
    300d:	6a f5                	push   $0xfffffff5
    300f:	52                   	push   %edx
    3010:	e8 eb 3e 00 00       	call   6f00 <async_answer_0@plt>
    3015:	83 c4 10             	add    $0x10,%esp
    3018:	8d 65 f8             	lea    -0x8(%ebp),%esp
    301b:	5b                   	pop    %ebx
    301c:	5e                   	pop    %esi
    301d:	5d                   	pop    %ebp
    301e:	c3                   	ret    
    301f:	90                   	nop
    3020:	8b 75 ec             	mov    -0x14(%ebp),%esi
    3023:	53                   	push   %ebx
    3024:	53                   	push   %ebx
    3025:	6a f2                	push   $0xfffffff2
    3027:	56                   	push   %esi
    3028:	e8 d3 3e 00 00       	call   6f00 <async_answer_0@plt>
    302d:	8b 4d 10             	mov    0x10(%ebp),%ecx
    3030:	58                   	pop    %eax
    3031:	5a                   	pop    %edx
    3032:	6a f2                	push   $0xfffffff2
    3034:	51                   	push   %ecx
    3035:	e8 c6 3e 00 00       	call   6f00 <async_answer_0@plt>
    303a:	83 c4 10             	add    $0x10,%esp
    303d:	e9 4e ff ff ff       	jmp    2f90 <remote_nic_poll_set_mode+0x40>
    3042:	8d b4 26 00 00 00 00 	lea    0x0(%esi,%eiz,1),%esi
    3049:	8d bc 27 00 00 00 00 	lea    0x0(%edi,%eiz,1),%edi

00003050 <remote_nic_vlan_set_mask>:
    3050:	55                   	push   %ebp
    3051:	31 d2                	xor    %edx,%edx
    3053:	89 e5                	mov    %esp,%ebp
    3055:	53                   	push   %ebx
    3056:	81 ec 14 02 00 00    	sub    $0x214,%esp
    305c:	8b 45 14             	mov    0x14(%ebp),%eax
    305f:	8b 40 08             	mov    0x8(%eax),%eax
    3062:	85 c0                	test   %eax,%eax
    3064:	75 32                	jne    3098 <remote_nic_vlan_set_mask+0x48>
    3066:	8b 45 0c             	mov    0xc(%ebp),%eax
    3069:	8b 40 70             	mov    0x70(%eax),%eax
    306c:	85 c0                	test   %eax,%eax
    306e:	0f 84 bc 00 00 00    	je     3130 <remote_nic_vlan_set_mask+0xe0>
    3074:	8b 5d 08             	mov    0x8(%ebp),%ebx
    3077:	51                   	push   %ecx
    3078:	51                   	push   %ecx
    3079:	52                   	push   %edx
    307a:	53                   	push   %ebx
    307b:	ff d0                	call   *%eax
    307d:	8b 5d 10             	mov    0x10(%ebp),%ebx
    3080:	5a                   	pop    %edx
    3081:	59                   	pop    %ecx
    3082:	50                   	push   %eax
    3083:	53                   	push   %ebx
    3084:	e8 77 3e 00 00       	call   6f00 <async_answer_0@plt>
    3089:	83 c4 10             	add    $0x10,%esp
    308c:	8b 5d fc             	mov    -0x4(%ebp),%ebx
    308f:	c9                   	leave  
    3090:	c3                   	ret    
    3091:	8d b4 26 00 00 00 00 	lea    0x0(%esi,%eiz,1),%esi
    3098:	8d 85 f4 fd ff ff    	lea    -0x20c(%ebp),%eax
    309e:	53                   	push   %ebx
    309f:	53                   	push   %ebx
    30a0:	50                   	push   %eax
    30a1:	8d 85 f0 fd ff ff    	lea    -0x210(%ebp),%eax
    30a7:	50                   	push   %eax
    30a8:	e8 f3 40 00 00       	call   71a0 <async_data_write_receive@plt>
    30ad:	83 c4 10             	add    $0x10,%esp
    30b0:	84 c0                	test   %al,%al
    30b2:	0f 84 90 00 00 00    	je     3148 <remote_nic_vlan_set_mask+0xf8>
    30b8:	81 bd f4 fd ff ff 00 	cmpl   $0x200,-0x20c(%ebp)
    30bf:	02 00 00 
    30c2:	74 2c                	je     30f0 <remote_nic_vlan_set_mask+0xa0>
    30c4:	50                   	push   %eax
    30c5:	50                   	push   %eax
    30c6:	8b 85 f0 fd ff ff    	mov    -0x210(%ebp),%eax
    30cc:	6a fd                	push   $0xfffffffd
    30ce:	50                   	push   %eax
    30cf:	e8 2c 3e 00 00       	call   6f00 <async_answer_0@plt>
    30d4:	8b 5d 10             	mov    0x10(%ebp),%ebx
    30d7:	5a                   	pop    %edx
    30d8:	59                   	pop    %ecx
    30d9:	6a fd                	push   $0xfffffffd
    30db:	53                   	push   %ebx
    30dc:	e8 1f 3e 00 00       	call   6f00 <async_answer_0@plt>
    30e1:	83 c4 10             	add    $0x10,%esp
    30e4:	8b 5d fc             	mov    -0x4(%ebp),%ebx
    30e7:	c9                   	leave  
    30e8:	c3                   	ret    
    30e9:	8d b4 26 00 00 00 00 	lea    0x0(%esi,%eiz,1),%esi
    30f0:	8d 9d f8 fd ff ff    	lea    -0x208(%ebp),%ebx
    30f6:	50                   	push   %eax
    30f7:	8b 85 f0 fd ff ff    	mov    -0x210(%ebp),%eax
    30fd:	68 00 02 00 00       	push   $0x200
    3102:	53                   	push   %ebx
    3103:	50                   	push   %eax
    3104:	e8 27 40 00 00       	call   7130 <async_data_write_finalize@plt>
    3109:	83 c4 10             	add    $0x10,%esp
    310c:	89 da                	mov    %ebx,%edx
    310e:	85 c0                	test   %eax,%eax
    3110:	0f 84 50 ff ff ff    	je     3066 <remote_nic_vlan_set_mask+0x16>
    3116:	50                   	push   %eax
    3117:	50                   	push   %eax
    3118:	8b 45 10             	mov    0x10(%ebp),%eax
    311b:	6a f2                	push   $0xfffffff2
    311d:	50                   	push   %eax
    311e:	e8 dd 3d 00 00       	call   6f00 <async_answer_0@plt>
    3123:	83 c4 10             	add    $0x10,%esp
    3126:	e9 61 ff ff ff       	jmp    308c <remote_nic_vlan_set_mask+0x3c>
    312b:	90                   	nop
    312c:	8d 74 26 00          	lea    0x0(%esi,%eiz,1),%esi
    3130:	8b 55 10             	mov    0x10(%ebp),%edx
    3133:	50                   	push   %eax
    3134:	50                   	push   %eax
    3135:	6a f5                	push   $0xfffffff5
    3137:	52                   	push   %edx
    3138:	e8 c3 3d 00 00       	call   6f00 <async_answer_0@plt>
    313d:	83 c4 10             	add    $0x10,%esp
    3140:	8b 5d fc             	mov    -0x4(%ebp),%ebx
    3143:	c9                   	leave  
    3144:	c3                   	ret    
    3145:	8d 76 00             	lea    0x0(%esi),%esi
    3148:	50                   	push   %eax
    3149:	50                   	push   %eax
    314a:	8b 85 f0 fd ff ff    	mov    -0x210(%ebp),%eax
    3150:	6a f2                	push   $0xfffffff2
    3152:	50                   	push   %eax
    3153:	e8 a8 3d 00 00       	call   6f00 <async_answer_0@plt>
    3158:	8b 4d 10             	mov    0x10(%ebp),%ecx
    315b:	58                   	pop    %eax
    315c:	5a                   	pop    %edx
    315d:	6a f2                	push   $0xfffffff2
    315f:	51                   	push   %ecx
    3160:	e8 9b 3d 00 00       	call   6f00 <async_answer_0@plt>
    3165:	83 c4 10             	add    $0x10,%esp
    3168:	e9 1f ff ff ff       	jmp    308c <remote_nic_vlan_set_mask+0x3c>
    316d:	8d 76 00             	lea    0x0(%esi),%esi

00003170 <remote_nic_set_address>:
    3170:	55                   	push   %ebp
    3171:	89 e5                	mov    %esp,%ebp
    3173:	53                   	push   %ebx
    3174:	83 ec 1c             	sub    $0x1c,%esp
    3177:	8d 45 e8             	lea    -0x18(%ebp),%eax
    317a:	50                   	push   %eax
    317b:	8d 45 ec             	lea    -0x14(%ebp),%eax
    317e:	50                   	push   %eax
    317f:	e8 1c 40 00 00       	call   71a0 <async_data_write_receive@plt>
    3184:	83 c4 10             	add    $0x10,%esp
    3187:	84 c0                	test   %al,%al
    3189:	74 75                	je     3200 <remote_nic_set_address+0x90>
    318b:	8b 45 e8             	mov    -0x18(%ebp),%eax
    318e:	83 f8 06             	cmp    $0x6,%eax
    3191:	77 45                	ja     31d8 <remote_nic_set_address+0x68>
    3193:	8b 4d ec             	mov    -0x14(%ebp),%ecx
    3196:	8d 5d f2             	lea    -0xe(%ebp),%ebx
    3199:	52                   	push   %edx
    319a:	50                   	push   %eax
    319b:	53                   	push   %ebx
    319c:	51                   	push   %ecx
    319d:	e8 8e 3f 00 00       	call   7130 <async_data_write_finalize@plt>
    31a2:	83 c4 10             	add    $0x10,%esp
    31a5:	85 c0                	test   %eax,%eax
    31a7:	75 7f                	jne    3228 <remote_nic_set_address+0xb8>
    31a9:	8b 45 0c             	mov    0xc(%ebp),%eax
    31ac:	8b 40 14             	mov    0x14(%eax),%eax
    31af:	85 c0                	test   %eax,%eax
    31b1:	0f 84 89 00 00 00    	je     3240 <remote_nic_set_address+0xd0>
    31b7:	51                   	push   %ecx
    31b8:	51                   	push   %ecx
    31b9:	53                   	push   %ebx
    31ba:	8b 5d 08             	mov    0x8(%ebp),%ebx
    31bd:	53                   	push   %ebx
    31be:	ff d0                	call   *%eax
    31c0:	8b 5d 10             	mov    0x10(%ebp),%ebx
    31c3:	5a                   	pop    %edx
    31c4:	59                   	pop    %ecx
    31c5:	50                   	push   %eax
    31c6:	53                   	push   %ebx
    31c7:	e8 34 3d 00 00       	call   6f00 <async_answer_0@plt>
    31cc:	83 c4 10             	add    $0x10,%esp
    31cf:	8b 5d fc             	mov    -0x4(%ebp),%ebx
    31d2:	c9                   	leave  
    31d3:	c3                   	ret    
    31d4:	8d 74 26 00          	lea    0x0(%esi,%eiz,1),%esi
    31d8:	8b 45 ec             	mov    -0x14(%ebp),%eax
    31db:	53                   	push   %ebx
    31dc:	53                   	push   %ebx
    31dd:	6a fd                	push   $0xfffffffd
    31df:	50                   	push   %eax
    31e0:	e8 1b 3d 00 00       	call   6f00 <async_answer_0@plt>
    31e5:	8b 4d 10             	mov    0x10(%ebp),%ecx
    31e8:	58                   	pop    %eax
    31e9:	5a                   	pop    %edx
    31ea:	6a fd                	push   $0xfffffffd
    31ec:	51                   	push   %ecx
    31ed:	e8 0e 3d 00 00       	call   6f00 <async_answer_0@plt>
    31f2:	83 c4 10             	add    $0x10,%esp
    31f5:	8b 5d fc             	mov    -0x4(%ebp),%ebx
    31f8:	c9                   	leave  
    31f9:	c3                   	ret    
    31fa:	8d b6 00 00 00 00    	lea    0x0(%esi),%esi
    3200:	8b 45 ec             	mov    -0x14(%ebp),%eax
    3203:	53                   	push   %ebx
    3204:	53                   	push   %ebx
    3205:	6a f2                	push   $0xfffffff2
    3207:	50                   	push   %eax
    3208:	e8 f3 3c 00 00       	call   6f00 <async_answer_0@plt>
    320d:	8b 4d 10             	mov    0x10(%ebp),%ecx
    3210:	58                   	pop    %eax
    3211:	5a                   	pop    %edx
    3212:	6a f2                	push   $0xfffffff2
    3214:	51                   	push   %ecx
    3215:	e8 e6 3c 00 00       	call   6f00 <async_answer_0@plt>
    321a:	83 c4 10             	add    $0x10,%esp
    321d:	8b 5d fc             	mov    -0x4(%ebp),%ebx
    3220:	c9                   	leave  
    3221:	c3                   	ret    
    3222:	8d b6 00 00 00 00    	lea    0x0(%esi),%esi
    3228:	50                   	push   %eax
    3229:	50                   	push   %eax
    322a:	8b 45 10             	mov    0x10(%ebp),%eax
    322d:	6a f2                	push   $0xfffffff2
    322f:	50                   	push   %eax
    3230:	e8 cb 3c 00 00       	call   6f00 <async_answer_0@plt>
    3235:	83 c4 10             	add    $0x10,%esp
    3238:	8b 5d fc             	mov    -0x4(%ebp),%ebx
    323b:	c9                   	leave  
    323c:	c3                   	ret    
    323d:	8d 76 00             	lea    0x0(%esi),%esi
    3240:	8b 55 10             	mov    0x10(%ebp),%edx
    3243:	50                   	push   %eax
    3244:	50                   	push   %eax
    3245:	6a f5                	push   $0xfffffff5
    3247:	52                   	push   %edx
    3248:	e8 b3 3c 00 00       	call   6f00 <async_answer_0@plt>
    324d:	83 c4 10             	add    $0x10,%esp
    3250:	e9 7a ff ff ff       	jmp    31cf <remote_nic_set_address+0x5f>
    3255:	8d 74 26 00          	lea    0x0(%esi,%eiz,1),%esi
    3259:	8d bc 27 00 00 00 00 	lea    0x0(%edi,%eiz,1),%edi

00003260 <remote_nic_poll_get_mode>:
    3260:	55                   	push   %ebp
    3261:	89 e5                	mov    %esp,%ebp
    3263:	57                   	push   %edi
    3264:	56                   	push   %esi
    3265:	53                   	push   %ebx
    3266:	83 ec 2c             	sub    $0x2c,%esp
    3269:	8b 45 0c             	mov    0xc(%ebp),%eax
    326c:	8b 80 98 00 00 00    	mov    0x98(%eax),%eax
    3272:	85 c0                	test   %eax,%eax
    3274:	0f 84 d6 00 00 00    	je     3350 <remote_nic_poll_get_mode+0xf0>
    327a:	8b 55 14             	mov    0x14(%ebp),%edx
    327d:	8b 4d 08             	mov    0x8(%ebp),%ecx
    3280:	c7 45 d4 00 00 00 00 	movl   $0x0,-0x2c(%ebp)
    3287:	c7 45 e0 00 00 00 00 	movl   $0x0,-0x20(%ebp)
    328e:	8b 72 08             	mov    0x8(%edx),%esi
    3291:	c7 45 e4 00 00 00 00 	movl   $0x0,-0x1c(%ebp)
    3298:	8d 5d e0             	lea    -0x20(%ebp),%ebx
    329b:	52                   	push   %edx
    329c:	8d 55 d4             	lea    -0x2c(%ebp),%edx
    329f:	53                   	push   %ebx
    32a0:	52                   	push   %edx
    32a1:	51                   	push   %ecx
    32a2:	ff d0                	call   *%eax
    32a4:	83 c4 10             	add    $0x10,%esp
    32a7:	89 c7                	mov    %eax,%edi
    32a9:	85 c0                	test   %eax,%eax
    32ab:	75 5b                	jne    3308 <remote_nic_poll_get_mode+0xa8>
    32ad:	85 f6                	test   %esi,%esi
    32af:	74 57                	je     3308 <remote_nic_poll_get_mode+0xa8>
    32b1:	50                   	push   %eax
    32b2:	50                   	push   %eax
    32b3:	8d 45 d8             	lea    -0x28(%ebp),%eax
    32b6:	50                   	push   %eax
    32b7:	8d 45 dc             	lea    -0x24(%ebp),%eax
    32ba:	50                   	push   %eax
    32bb:	e8 c0 3d 00 00       	call   7080 <async_data_read_receive@plt>
    32c0:	83 c4 10             	add    $0x10,%esp
    32c3:	84 c0                	test   %al,%al
    32c5:	74 61                	je     3328 <remote_nic_poll_get_mode+0xc8>
    32c7:	83 7d d8 08          	cmpl   $0x8,-0x28(%ebp)
    32cb:	74 2b                	je     32f8 <remote_nic_poll_get_mode+0x98>
    32cd:	50                   	push   %eax
    32ce:	50                   	push   %eax
    32cf:	8b 45 dc             	mov    -0x24(%ebp),%eax
    32d2:	6a fd                	push   $0xfffffffd
    32d4:	50                   	push   %eax
    32d5:	e8 26 3c 00 00       	call   6f00 <async_answer_0@plt>
    32da:	8b 4d 10             	mov    0x10(%ebp),%ecx
    32dd:	58                   	pop    %eax
    32de:	5a                   	pop    %edx
    32df:	6a fd                	push   $0xfffffffd
    32e1:	51                   	push   %ecx
    32e2:	e8 19 3c 00 00       	call   6f00 <async_answer_0@plt>
    32e7:	83 c4 10             	add    $0x10,%esp
    32ea:	8d 65 f4             	lea    -0xc(%ebp),%esp
    32ed:	5b                   	pop    %ebx
    32ee:	5e                   	pop    %esi
    32ef:	5f                   	pop    %edi
    32f0:	5d                   	pop    %ebp
    32f1:	c3                   	ret    
    32f2:	8d b6 00 00 00 00    	lea    0x0(%esi),%esi
    32f8:	8b 45 dc             	mov    -0x24(%ebp),%eax
    32fb:	56                   	push   %esi
    32fc:	6a 08                	push   $0x8
    32fe:	53                   	push   %ebx
    32ff:	50                   	push   %eax
    3300:	e8 9b 3b 00 00       	call   6ea0 <async_data_read_finalize@plt>
    3305:	83 c4 10             	add    $0x10,%esp
    3308:	8b 55 d4             	mov    -0x2c(%ebp),%edx
    330b:	8b 4d 10             	mov    0x10(%ebp),%ecx
    330e:	50                   	push   %eax
    330f:	52                   	push   %edx
    3310:	57                   	push   %edi
    3311:	51                   	push   %ecx
    3312:	e8 d9 3d 00 00       	call   70f0 <async_answer_1@plt>
    3317:	83 c4 10             	add    $0x10,%esp
    331a:	8d 65 f4             	lea    -0xc(%ebp),%esp
    331d:	5b                   	pop    %ebx
    331e:	5e                   	pop    %esi
    331f:	5f                   	pop    %edi
    3320:	5d                   	pop    %ebp
    3321:	c3                   	ret    
    3322:	8d b6 00 00 00 00    	lea    0x0(%esi),%esi
    3328:	8b 75 dc             	mov    -0x24(%ebp),%esi
    332b:	53                   	push   %ebx
    332c:	53                   	push   %ebx
    332d:	6a f2                	push   $0xfffffff2
    332f:	56                   	push   %esi
    3330:	e8 cb 3b 00 00       	call   6f00 <async_answer_0@plt>
    3335:	5f                   	pop    %edi
    3336:	58                   	pop    %eax
    3337:	8b 45 10             	mov    0x10(%ebp),%eax
    333a:	6a f2                	push   $0xfffffff2
    333c:	50                   	push   %eax
    333d:	e8 be 3b 00 00       	call   6f00 <async_answer_0@plt>
    3342:	83 c4 10             	add    $0x10,%esp
    3345:	8d 65 f4             	lea    -0xc(%ebp),%esp
    3348:	5b                   	pop    %ebx
    3349:	5e                   	pop    %esi
    334a:	5f                   	pop    %edi
    334b:	5d                   	pop    %ebp
    334c:	c3                   	ret    
    334d:	8d 76 00             	lea    0x0(%esi),%esi
    3350:	8b 75 10             	mov    0x10(%ebp),%esi
    3353:	53                   	push   %ebx
    3354:	53                   	push   %ebx
    3355:	6a f5                	push   $0xfffffff5
    3357:	56                   	push   %esi
    3358:	e8 a3 3b 00 00       	call   6f00 <async_answer_0@plt>
    335d:	83 c4 10             	add    $0x10,%esp
    3360:	8d 65 f4             	lea    -0xc(%ebp),%esp
    3363:	5b                   	pop    %ebx
    3364:	5e                   	pop    %esi
    3365:	5f                   	pop    %edi
    3366:	5d                   	pop    %ebp
    3367:	c3                   	ret    
    3368:	90                   	nop
    3369:	8d b4 26 00 00 00 00 	lea    0x0(%esi,%eiz,1),%esi

00003370 <remote_nic_wol_virtue_get_caps>:
    3370:	55                   	push   %ebp
    3371:	89 e5                	mov    %esp,%ebp
    3373:	83 ec 18             	sub    $0x18,%esp
    3376:	8b 45 0c             	mov    0xc(%ebp),%eax
    3379:	8b 80 88 00 00 00    	mov    0x88(%eax),%eax
    337f:	85 c0                	test   %eax,%eax
    3381:	74 35                	je     33b8 <remote_nic_wol_virtue_get_caps+0x48>
    3383:	52                   	push   %edx
    3384:	8d 55 f4             	lea    -0xc(%ebp),%edx
    3387:	52                   	push   %edx
    3388:	8b 55 14             	mov    0x14(%ebp),%edx
    338b:	c7 45 f4 ff ff ff ff 	movl   $0xffffffff,-0xc(%ebp)
    3392:	8b 4a 08             	mov    0x8(%edx),%ecx
    3395:	8b 55 08             	mov    0x8(%ebp),%edx
    3398:	51                   	push   %ecx
    3399:	52                   	push   %edx
    339a:	ff d0                	call   *%eax
    339c:	83 c4 0c             	add    $0xc,%esp
    339f:	8b 4d f4             	mov    -0xc(%ebp),%ecx
    33a2:	51                   	push   %ecx
    33a3:	50                   	push   %eax
    33a4:	8b 45 10             	mov    0x10(%ebp),%eax
    33a7:	50                   	push   %eax
    33a8:	e8 43 3d 00 00       	call   70f0 <async_answer_1@plt>
    33ad:	83 c4 10             	add    $0x10,%esp
    33b0:	c9                   	leave  
    33b1:	c3                   	ret    
    33b2:	8d b6 00 00 00 00    	lea    0x0(%esi),%esi
    33b8:	50                   	push   %eax
    33b9:	50                   	push   %eax
    33ba:	8b 45 10             	mov    0x10(%ebp),%eax
    33bd:	6a f5                	push   $0xfffffff5
    33bf:	50                   	push   %eax
    33c0:	e8 3b 3b 00 00       	call   6f00 <async_answer_0@plt>
    33c5:	83 c4 10             	add    $0x10,%esp
    33c8:	c9                   	leave  
    33c9:	c3                   	ret    
    33ca:	8d b6 00 00 00 00    	lea    0x0(%esi),%esi

000033d0 <remote_nic_defective_get_mode>:
    33d0:	55                   	push   %ebp
    33d1:	89 e5                	mov    %esp,%ebp
    33d3:	83 ec 18             	sub    $0x18,%esp
    33d6:	8b 45 0c             	mov    0xc(%ebp),%eax
    33d9:	8b 40 5c             	mov    0x5c(%eax),%eax
    33dc:	85 c0                	test   %eax,%eax
    33de:	74 30                	je     3410 <remote_nic_defective_get_mode+0x40>
    33e0:	8b 4d 08             	mov    0x8(%ebp),%ecx
    33e3:	c7 45 f4 00 00 00 00 	movl   $0x0,-0xc(%ebp)
    33ea:	52                   	push   %edx
    33eb:	52                   	push   %edx
    33ec:	8d 55 f4             	lea    -0xc(%ebp),%edx
    33ef:	52                   	push   %edx
    33f0:	51                   	push   %ecx
    33f1:	ff d0                	call   *%eax
    33f3:	83 c4 0c             	add    $0xc,%esp
    33f6:	8b 55 f4             	mov    -0xc(%ebp),%edx
    33f9:	8b 4d 10             	mov    0x10(%ebp),%ecx
    33fc:	52                   	push   %edx
    33fd:	50                   	push   %eax
    33fe:	51                   	push   %ecx
    33ff:	e8 ec 3c 00 00       	call   70f0 <async_answer_1@plt>
    3404:	83 c4 10             	add    $0x10,%esp
    3407:	c9                   	leave  
    3408:	c3                   	ret    
    3409:	8d b4 26 00 00 00 00 	lea    0x0(%esi,%eiz,1),%esi
    3410:	50                   	push   %eax
    3411:	50                   	push   %eax
    3412:	8b 45 10             	mov    0x10(%ebp),%eax
    3415:	6a f5                	push   $0xfffffff5
    3417:	50                   	push   %eax
    3418:	e8 e3 3a 00 00       	call   6f00 <async_answer_0@plt>
    341d:	83 c4 10             	add    $0x10,%esp
    3420:	c9                   	leave  
    3421:	c3                   	ret    
    3422:	8d b4 26 00 00 00 00 	lea    0x0(%esi,%eiz,1),%esi
    3429:	8d bc 27 00 00 00 00 	lea    0x0(%edi,%eiz,1),%edi

00003430 <remote_nic_broadcast_get_mode>:
    3430:	55                   	push   %ebp
    3431:	89 e5                	mov    %esp,%ebp
    3433:	83 ec 18             	sub    $0x18,%esp
    3436:	8b 45 0c             	mov    0xc(%ebp),%eax
    3439:	8b 40 54             	mov    0x54(%eax),%eax
    343c:	85 c0                	test   %eax,%eax
    343e:	74 30                	je     3470 <remote_nic_broadcast_get_mode+0x40>
    3440:	8b 4d 08             	mov    0x8(%ebp),%ecx
    3443:	c7 45 f4 02 00 00 00 	movl   $0x2,-0xc(%ebp)
    344a:	52                   	push   %edx
    344b:	52                   	push   %edx
    344c:	8d 55 f4             	lea    -0xc(%ebp),%edx
    344f:	52                   	push   %edx
    3450:	51                   	push   %ecx
    3451:	ff d0                	call   *%eax
    3453:	83 c4 0c             	add    $0xc,%esp
    3456:	8b 55 f4             	mov    -0xc(%ebp),%edx
    3459:	8b 4d 10             	mov    0x10(%ebp),%ecx
    345c:	52                   	push   %edx
    345d:	50                   	push   %eax
    345e:	51                   	push   %ecx
    345f:	e8 8c 3c 00 00       	call   70f0 <async_answer_1@plt>
    3464:	83 c4 10             	add    $0x10,%esp
    3467:	c9                   	leave  
    3468:	c3                   	ret    
    3469:	8d b4 26 00 00 00 00 	lea    0x0(%esi,%eiz,1),%esi
    3470:	50                   	push   %eax
    3471:	50                   	push   %eax
    3472:	8b 45 10             	mov    0x10(%ebp),%eax
    3475:	6a f5                	push   $0xfffffff5
    3477:	50                   	push   %eax
    3478:	e8 83 3a 00 00       	call   6f00 <async_answer_0@plt>
    347d:	83 c4 10             	add    $0x10,%esp
    3480:	c9                   	leave  
    3481:	c3                   	ret    
    3482:	8d b4 26 00 00 00 00 	lea    0x0(%esi,%eiz,1),%esi
    3489:	8d bc 27 00 00 00 00 	lea    0x0(%edi,%eiz,1),%edi

00003490 <remote_nic_get_cable_state>:
    3490:	55                   	push   %ebp
    3491:	89 e5                	mov    %esp,%ebp
    3493:	83 ec 18             	sub    $0x18,%esp
    3496:	8b 45 0c             	mov    0xc(%ebp),%eax
    3499:	8b 40 20             	mov    0x20(%eax),%eax
    349c:	85 c0                	test   %eax,%eax
    349e:	74 30                	je     34d0 <remote_nic_get_cable_state+0x40>
    34a0:	8b 4d 08             	mov    0x8(%ebp),%ecx
    34a3:	c7 45 f4 00 00 00 00 	movl   $0x0,-0xc(%ebp)
    34aa:	52                   	push   %edx
    34ab:	52                   	push   %edx
    34ac:	8d 55 f4             	lea    -0xc(%ebp),%edx
    34af:	52                   	push   %edx
    34b0:	51                   	push   %ecx
    34b1:	ff d0                	call   *%eax
    34b3:	83 c4 0c             	add    $0xc,%esp
    34b6:	8b 55 f4             	mov    -0xc(%ebp),%edx
    34b9:	8b 4d 10             	mov    0x10(%ebp),%ecx
    34bc:	52                   	push   %edx
    34bd:	50                   	push   %eax
    34be:	51                   	push   %ecx
    34bf:	e8 2c 3c 00 00       	call   70f0 <async_answer_1@plt>
    34c4:	83 c4 10             	add    $0x10,%esp
    34c7:	c9                   	leave  
    34c8:	c3                   	ret    
    34c9:	8d b4 26 00 00 00 00 	lea    0x0(%esi,%eiz,1),%esi
    34d0:	50                   	push   %eax
    34d1:	50                   	push   %eax
    34d2:	8b 45 10             	mov    0x10(%ebp),%eax
    34d5:	6a f5                	push   $0xfffffff5
    34d7:	50                   	push   %eax
    34d8:	e8 23 3a 00 00       	call   6f00 <async_answer_0@plt>
    34dd:	83 c4 10             	add    $0x10,%esp
    34e0:	c9                   	leave  
    34e1:	c3                   	ret    
    34e2:	8d b4 26 00 00 00 00 	lea    0x0(%esi,%eiz,1),%esi
    34e9:	8d bc 27 00 00 00 00 	lea    0x0(%edi,%eiz,1),%edi

000034f0 <remote_nic_offload_probe>:
    34f0:	55                   	push   %ebp
    34f1:	89 e5                	mov    %esp,%ebp
    34f3:	83 ec 18             	sub    $0x18,%esp
    34f6:	8b 45 0c             	mov    0xc(%ebp),%eax
    34f9:	8b 80 90 00 00 00    	mov    0x90(%eax),%eax
    34ff:	85 c0                	test   %eax,%eax
    3501:	74 35                	je     3538 <remote_nic_offload_probe+0x48>
    3503:	52                   	push   %edx
    3504:	8d 55 f4             	lea    -0xc(%ebp),%edx
    3507:	52                   	push   %edx
    3508:	8b 4d 08             	mov    0x8(%ebp),%ecx
    350b:	8d 55 f0             	lea    -0x10(%ebp),%edx
    350e:	c7 45 f0 00 00 00 00 	movl   $0x0,-0x10(%ebp)
    3515:	c7 45 f4 00 00 00 00 	movl   $0x0,-0xc(%ebp)
    351c:	52                   	push   %edx
    351d:	51                   	push   %ecx
    351e:	ff d0                	call   *%eax
    3520:	8b 55 f4             	mov    -0xc(%ebp),%edx
    3523:	8b 4d f0             	mov    -0x10(%ebp),%ecx
    3526:	52                   	push   %edx
    3527:	51                   	push   %ecx
    3528:	50                   	push   %eax
    3529:	8b 45 10             	mov    0x10(%ebp),%eax
    352c:	50                   	push   %eax
    352d:	e8 be 3a 00 00       	call   6ff0 <async_answer_2@plt>
    3532:	83 c4 20             	add    $0x20,%esp
    3535:	c9                   	leave  
    3536:	c3                   	ret    
    3537:	90                   	nop
    3538:	50                   	push   %eax
    3539:	50                   	push   %eax
    353a:	8b 45 10             	mov    0x10(%ebp),%eax
    353d:	6a f5                	push   $0xfffffff5
    353f:	50                   	push   %eax
    3540:	e8 bb 39 00 00       	call   6f00 <async_answer_0@plt>
    3545:	83 c4 10             	add    $0x10,%esp
    3548:	c9                   	leave  
    3549:	c3                   	ret    
    354a:	8d b6 00 00 00 00    	lea    0x0(%esi),%esi

00003550 <remote_nic_vlan_get_mask>:
    3550:	55                   	push   %ebp
    3551:	89 e5                	mov    %esp,%ebp
    3553:	56                   	push   %esi
    3554:	53                   	push   %ebx
    3555:	81 ec 10 02 00 00    	sub    $0x210,%esp
    355b:	8b 5d 0c             	mov    0xc(%ebp),%ebx
    355e:	8b 43 6c             	mov    0x6c(%ebx),%eax
    3561:	85 c0                	test   %eax,%eax
    3563:	0f 84 a7 00 00 00    	je     3610 <remote_nic_vlan_get_mask+0xc0>
    3569:	8d b5 f8 fd ff ff    	lea    -0x208(%ebp),%esi
    356f:	50                   	push   %eax
    3570:	68 00 02 00 00       	push   $0x200
    3575:	6a 00                	push   $0x0
    3577:	56                   	push   %esi
    3578:	e8 f3 3a 00 00       	call   7070 <memset@plt>
    357d:	8b 4d 08             	mov    0x8(%ebp),%ecx
    3580:	58                   	pop    %eax
    3581:	5a                   	pop    %edx
    3582:	56                   	push   %esi
    3583:	51                   	push   %ecx
    3584:	ff 53 6c             	call   *0x6c(%ebx)
    3587:	83 c4 10             	add    $0x10,%esp
    358a:	89 c3                	mov    %eax,%ebx
    358c:	85 c0                	test   %eax,%eax
    358e:	75 66                	jne    35f6 <remote_nic_vlan_get_mask+0xa6>
    3590:	50                   	push   %eax
    3591:	50                   	push   %eax
    3592:	8d 85 f4 fd ff ff    	lea    -0x20c(%ebp),%eax
    3598:	50                   	push   %eax
    3599:	8d 85 f0 fd ff ff    	lea    -0x210(%ebp),%eax
    359f:	50                   	push   %eax
    35a0:	e8 db 3a 00 00       	call   7080 <async_data_read_receive@plt>
    35a5:	83 c4 10             	add    $0x10,%esp
    35a8:	84 c0                	test   %al,%al
    35aa:	74 0c                	je     35b8 <remote_nic_vlan_get_mask+0x68>
    35ac:	81 bd f4 fd ff ff 00 	cmpl   $0x200,-0x20c(%ebp)
    35b3:	02 00 00 
    35b6:	74 28                	je     35e0 <remote_nic_vlan_get_mask+0x90>
    35b8:	50                   	push   %eax
    35b9:	50                   	push   %eax
    35ba:	8b 85 f0 fd ff ff    	mov    -0x210(%ebp),%eax
    35c0:	6a f2                	push   $0xfffffff2
    35c2:	50                   	push   %eax
    35c3:	e8 38 39 00 00       	call   6f00 <async_answer_0@plt>
    35c8:	8b 4d 10             	mov    0x10(%ebp),%ecx
    35cb:	58                   	pop    %eax
    35cc:	5a                   	pop    %edx
    35cd:	6a f2                	push   $0xfffffff2
    35cf:	51                   	push   %ecx
    35d0:	e8 2b 39 00 00       	call   6f00 <async_answer_0@plt>
    35d5:	83 c4 10             	add    $0x10,%esp
    35d8:	8d 65 f8             	lea    -0x8(%ebp),%esp
    35db:	5b                   	pop    %ebx
    35dc:	5e                   	pop    %esi
    35dd:	5d                   	pop    %ebp
    35de:	c3                   	ret    
    35df:	90                   	nop
    35e0:	51                   	push   %ecx
    35e1:	68 00 02 00 00       	push   $0x200
    35e6:	56                   	push   %esi
    35e7:	8b b5 f0 fd ff ff    	mov    -0x210(%ebp),%esi
    35ed:	56                   	push   %esi
    35ee:	e8 ad 38 00 00       	call   6ea0 <async_data_read_finalize@plt>
    35f3:	83 c4 10             	add    $0x10,%esp
    35f6:	8b 55 10             	mov    0x10(%ebp),%edx
    35f9:	50                   	push   %eax
    35fa:	50                   	push   %eax
    35fb:	53                   	push   %ebx
    35fc:	52                   	push   %edx
    35fd:	e8 fe 38 00 00       	call   6f00 <async_answer_0@plt>
    3602:	83 c4 10             	add    $0x10,%esp
    3605:	8d 65 f8             	lea    -0x8(%ebp),%esp
    3608:	5b                   	pop    %ebx
    3609:	5e                   	pop    %esi
    360a:	5d                   	pop    %ebp
    360b:	c3                   	ret    
    360c:	8d 74 26 00          	lea    0x0(%esi,%eiz,1),%esi
    3610:	8b 75 10             	mov    0x10(%ebp),%esi
    3613:	53                   	push   %ebx
    3614:	53                   	push   %ebx
    3615:	6a f5                	push   $0xfffffff5
    3617:	56                   	push   %esi
    3618:	e8 e3 38 00 00       	call   6f00 <async_answer_0@plt>
    361d:	83 c4 10             	add    $0x10,%esp
    3620:	8d 65 f8             	lea    -0x8(%ebp),%esp
    3623:	5b                   	pop    %ebx
    3624:	5e                   	pop    %esi
    3625:	5d                   	pop    %ebp
    3626:	c3                   	ret    
    3627:	89 f6                	mov    %esi,%esi
    3629:	8d bc 27 00 00 00 00 	lea    0x0(%edi,%eiz,1),%edi

00003630 <remote_nic_get_device_info>:
    3630:	55                   	push   %ebp
    3631:	89 e5                	mov    %esp,%ebp
    3633:	56                   	push   %esi
    3634:	53                   	push   %ebx
    3635:	81 ec 30 01 00 00    	sub    $0x130,%esp
    363b:	8b 5d 0c             	mov    0xc(%ebp),%ebx
    363e:	8b 43 1c             	mov    0x1c(%ebx),%eax
    3641:	85 c0                	test   %eax,%eax
    3643:	0f 84 cf 00 00 00    	je     3718 <remote_nic_get_device_info+0xe8>
    3649:	8d b5 dc fe ff ff    	lea    -0x124(%ebp),%esi
    364f:	50                   	push   %eax
    3650:	68 1c 01 00 00       	push   $0x11c
    3655:	6a 00                	push   $0x0
    3657:	56                   	push   %esi
    3658:	e8 13 3a 00 00       	call   7070 <memset@plt>
    365d:	8b 4d 08             	mov    0x8(%ebp),%ecx
    3660:	58                   	pop    %eax
    3661:	5a                   	pop    %edx
    3662:	56                   	push   %esi
    3663:	51                   	push   %ecx
    3664:	ff 53 1c             	call   *0x1c(%ebx)
    3667:	83 c4 10             	add    $0x10,%esp
    366a:	89 c3                	mov    %eax,%ebx
    366c:	85 c0                	test   %eax,%eax
    366e:	75 66                	jne    36d6 <remote_nic_get_device_info+0xa6>
    3670:	50                   	push   %eax
    3671:	50                   	push   %eax
    3672:	8d 85 d8 fe ff ff    	lea    -0x128(%ebp),%eax
    3678:	50                   	push   %eax
    3679:	8d 85 d4 fe ff ff    	lea    -0x12c(%ebp),%eax
    367f:	50                   	push   %eax
    3680:	e8 fb 39 00 00       	call   7080 <async_data_read_receive@plt>
    3685:	83 c4 10             	add    $0x10,%esp
    3688:	84 c0                	test   %al,%al
    368a:	74 64                	je     36f0 <remote_nic_get_device_info+0xc0>
    368c:	81 bd d8 fe ff ff 1b 	cmpl   $0x11b,-0x128(%ebp)
    3693:	01 00 00 
    3696:	77 28                	ja     36c0 <remote_nic_get_device_info+0x90>
    3698:	50                   	push   %eax
    3699:	50                   	push   %eax
    369a:	8b 85 d4 fe ff ff    	mov    -0x12c(%ebp),%eax
    36a0:	6a fd                	push   $0xfffffffd
    36a2:	50                   	push   %eax
    36a3:	e8 58 38 00 00       	call   6f00 <async_answer_0@plt>
    36a8:	8b 4d 10             	mov    0x10(%ebp),%ecx
    36ab:	58                   	pop    %eax
    36ac:	5a                   	pop    %edx
    36ad:	6a fd                	push   $0xfffffffd
    36af:	51                   	push   %ecx
    36b0:	e8 4b 38 00 00       	call   6f00 <async_answer_0@plt>
    36b5:	83 c4 10             	add    $0x10,%esp
    36b8:	8d 65 f8             	lea    -0x8(%ebp),%esp
    36bb:	5b                   	pop    %ebx
    36bc:	5e                   	pop    %esi
    36bd:	5d                   	pop    %ebp
    36be:	c3                   	ret    
    36bf:	90                   	nop
    36c0:	51                   	push   %ecx
    36c1:	68 1c 01 00 00       	push   $0x11c
    36c6:	56                   	push   %esi
    36c7:	8b b5 d4 fe ff ff    	mov    -0x12c(%ebp),%esi
    36cd:	56                   	push   %esi
    36ce:	e8 cd 37 00 00       	call   6ea0 <async_data_read_finalize@plt>
    36d3:	83 c4 10             	add    $0x10,%esp
    36d6:	8b 55 10             	mov    0x10(%ebp),%edx
    36d9:	50                   	push   %eax
    36da:	50                   	push   %eax
    36db:	53                   	push   %ebx
    36dc:	52                   	push   %edx
    36dd:	e8 1e 38 00 00       	call   6f00 <async_answer_0@plt>
    36e2:	83 c4 10             	add    $0x10,%esp
    36e5:	8d 65 f8             	lea    -0x8(%ebp),%esp
    36e8:	5b                   	pop    %ebx
    36e9:	5e                   	pop    %esi
    36ea:	5d                   	pop    %ebp
    36eb:	c3                   	ret    
    36ec:	8d 74 26 00          	lea    0x0(%esi,%eiz,1),%esi
    36f0:	8b b5 d4 fe ff ff    	mov    -0x12c(%ebp),%esi
    36f6:	53                   	push   %ebx
    36f7:	53                   	push   %ebx
    36f8:	6a f2                	push   $0xfffffff2
    36fa:	56                   	push   %esi
    36fb:	e8 00 38 00 00       	call   6f00 <async_answer_0@plt>
    3700:	8b 4d 10             	mov    0x10(%ebp),%ecx
    3703:	58                   	pop    %eax
    3704:	5a                   	pop    %edx
    3705:	6a f2                	push   $0xfffffff2
    3707:	51                   	push   %ecx
    3708:	e8 f3 37 00 00       	call   6f00 <async_answer_0@plt>
    370d:	83 c4 10             	add    $0x10,%esp
    3710:	8d 65 f8             	lea    -0x8(%ebp),%esp
    3713:	5b                   	pop    %ebx
    3714:	5e                   	pop    %esi
    3715:	5d                   	pop    %ebp
    3716:	c3                   	ret    
    3717:	90                   	nop
    3718:	8b 75 10             	mov    0x10(%ebp),%esi
    371b:	53                   	push   %ebx
    371c:	53                   	push   %ebx
    371d:	6a f5                	push   $0xfffffff5
    371f:	56                   	push   %esi
    3720:	e8 db 37 00 00       	call   6f00 <async_answer_0@plt>
    3725:	83 c4 10             	add    $0x10,%esp
    3728:	8d 65 f8             	lea    -0x8(%ebp),%esp
    372b:	5b                   	pop    %ebx
    372c:	5e                   	pop    %esi
    372d:	5d                   	pop    %ebp
    372e:	c3                   	ret    
    372f:	90                   	nop

00003730 <remote_nic_get_stats>:
    3730:	55                   	push   %ebp
    3731:	89 e5                	mov    %esp,%ebp
    3733:	56                   	push   %esi
    3734:	53                   	push   %ebx
    3735:	83 c4 80             	add    $0xffffff80,%esp
    3738:	8b 5d 0c             	mov    0xc(%ebp),%ebx
    373b:	8b 43 18             	mov    0x18(%ebx),%eax
    373e:	85 c0                	test   %eax,%eax
    3740:	0f 84 b2 00 00 00    	je     37f8 <remote_nic_get_stats+0xc8>
    3746:	8d 75 8c             	lea    -0x74(%ebp),%esi
    3749:	50                   	push   %eax
    374a:	6a 6c                	push   $0x6c
    374c:	6a 00                	push   $0x0
    374e:	56                   	push   %esi
    374f:	e8 1c 39 00 00       	call   7070 <memset@plt>
    3754:	8b 4d 08             	mov    0x8(%ebp),%ecx
    3757:	58                   	pop    %eax
    3758:	5a                   	pop    %edx
    3759:	56                   	push   %esi
    375a:	51                   	push   %ecx
    375b:	ff 53 18             	call   *0x18(%ebx)
    375e:	83 c4 10             	add    $0x10,%esp
    3761:	89 c3                	mov    %eax,%ebx
    3763:	85 c0                	test   %eax,%eax
    3765:	75 51                	jne    37b8 <remote_nic_get_stats+0x88>
    3767:	50                   	push   %eax
    3768:	50                   	push   %eax
    3769:	8d 45 88             	lea    -0x78(%ebp),%eax
    376c:	50                   	push   %eax
    376d:	8d 45 84             	lea    -0x7c(%ebp),%eax
    3770:	50                   	push   %eax
    3771:	e8 0a 39 00 00       	call   7080 <async_data_read_receive@plt>
    3776:	83 c4 10             	add    $0x10,%esp
    3779:	84 c0                	test   %al,%al
    377b:	74 53                	je     37d0 <remote_nic_get_stats+0xa0>
    377d:	83 7d 88 6b          	cmpl   $0x6b,-0x78(%ebp)
    3781:	77 25                	ja     37a8 <remote_nic_get_stats+0x78>
    3783:	50                   	push   %eax
    3784:	50                   	push   %eax
    3785:	8b 45 84             	mov    -0x7c(%ebp),%eax
    3788:	6a fd                	push   $0xfffffffd
    378a:	50                   	push   %eax
    378b:	e8 70 37 00 00       	call   6f00 <async_answer_0@plt>
    3790:	8b 4d 10             	mov    0x10(%ebp),%ecx
    3793:	58                   	pop    %eax
    3794:	5a                   	pop    %edx
    3795:	6a fd                	push   $0xfffffffd
    3797:	51                   	push   %ecx
    3798:	e8 63 37 00 00       	call   6f00 <async_answer_0@plt>
    379d:	83 c4 10             	add    $0x10,%esp
    37a0:	8d 65 f8             	lea    -0x8(%ebp),%esp
    37a3:	5b                   	pop    %ebx
    37a4:	5e                   	pop    %esi
    37a5:	5d                   	pop    %ebp
    37a6:	c3                   	ret    
    37a7:	90                   	nop
    37a8:	51                   	push   %ecx
    37a9:	6a 6c                	push   $0x6c
    37ab:	56                   	push   %esi
    37ac:	8b 75 84             	mov    -0x7c(%ebp),%esi
    37af:	56                   	push   %esi
    37b0:	e8 eb 36 00 00       	call   6ea0 <async_data_read_finalize@plt>
    37b5:	83 c4 10             	add    $0x10,%esp
    37b8:	8b 55 10             	mov    0x10(%ebp),%edx
    37bb:	50                   	push   %eax
    37bc:	50                   	push   %eax
    37bd:	53                   	push   %ebx
    37be:	52                   	push   %edx
    37bf:	e8 3c 37 00 00       	call   6f00 <async_answer_0@plt>
    37c4:	83 c4 10             	add    $0x10,%esp
    37c7:	8d 65 f8             	lea    -0x8(%ebp),%esp
    37ca:	5b                   	pop    %ebx
    37cb:	5e                   	pop    %esi
    37cc:	5d                   	pop    %ebp
    37cd:	c3                   	ret    
    37ce:	66 90                	xchg   %ax,%ax
    37d0:	8b 75 84             	mov    -0x7c(%ebp),%esi
    37d3:	53                   	push   %ebx
    37d4:	53                   	push   %ebx
    37d5:	6a f2                	push   $0xfffffff2
    37d7:	56                   	push   %esi
    37d8:	e8 23 37 00 00       	call   6f00 <async_answer_0@plt>
    37dd:	8b 4d 10             	mov    0x10(%ebp),%ecx
    37e0:	58                   	pop    %eax
    37e1:	5a                   	pop    %edx
    37e2:	6a f2                	push   $0xfffffff2
    37e4:	51                   	push   %ecx
    37e5:	e8 16 37 00 00       	call   6f00 <async_answer_0@plt>
    37ea:	83 c4 10             	add    $0x10,%esp
    37ed:	8d 65 f8             	lea    -0x8(%ebp),%esp
    37f0:	5b                   	pop    %ebx
    37f1:	5e                   	pop    %esi
    37f2:	5d                   	pop    %ebp
    37f3:	c3                   	ret    
    37f4:	8d 74 26 00          	lea    0x0(%esi,%eiz,1),%esi
    37f8:	8b 75 10             	mov    0x10(%ebp),%esi
    37fb:	53                   	push   %ebx
    37fc:	53                   	push   %ebx
    37fd:	6a f5                	push   $0xfffffff5
    37ff:	56                   	push   %esi
    3800:	e8 fb 36 00 00       	call   6f00 <async_answer_0@plt>
    3805:	83 c4 10             	add    $0x10,%esp
    3808:	8d 65 f8             	lea    -0x8(%ebp),%esp
    380b:	5b                   	pop    %ebx
    380c:	5e                   	pop    %esi
    380d:	5d                   	pop    %ebp
    380e:	c3                   	ret    
    380f:	90                   	nop

00003810 <remote_nic_get_address>:
    3810:	55                   	push   %ebp
    3811:	89 e5                	mov    %esp,%ebp
    3813:	56                   	push   %esi
    3814:	53                   	push   %ebx
    3815:	83 ec 10             	sub    $0x10,%esp
    3818:	8b 75 0c             	mov    0xc(%ebp),%esi
    381b:	8b 46 10             	mov    0x10(%esi),%eax
    381e:	85 c0                	test   %eax,%eax
    3820:	0f 84 ae 00 00 00    	je     38d4 <remote_nic_get_address+0xc4>
    3826:	8d 5d f2             	lea    -0xe(%ebp),%ebx
    3829:	50                   	push   %eax
    382a:	6a 06                	push   $0x6
    382c:	6a 00                	push   $0x0
    382e:	53                   	push   %ebx
    382f:	e8 3c 38 00 00       	call   7070 <memset@plt>
    3834:	8b 4d 08             	mov    0x8(%ebp),%ecx
    3837:	58                   	pop    %eax
    3838:	5a                   	pop    %edx
    3839:	53                   	push   %ebx
    383a:	51                   	push   %ecx
    383b:	ff 56 10             	call   *0x10(%esi)
    383e:	83 c4 10             	add    $0x10,%esp
    3841:	89 c6                	mov    %eax,%esi
    3843:	85 c0                	test   %eax,%eax
    3845:	75 51                	jne    3898 <remote_nic_get_address+0x88>
    3847:	50                   	push   %eax
    3848:	50                   	push   %eax
    3849:	8d 45 e8             	lea    -0x18(%ebp),%eax
    384c:	50                   	push   %eax
    384d:	8d 45 ec             	lea    -0x14(%ebp),%eax
    3850:	50                   	push   %eax
    3851:	e8 2a 38 00 00       	call   7080 <async_data_read_receive@plt>
    3856:	83 c4 10             	add    $0x10,%esp
    3859:	84 c0                	test   %al,%al
    385b:	74 53                	je     38b0 <remote_nic_get_address+0xa0>
    385d:	83 7d e8 06          	cmpl   $0x6,-0x18(%ebp)
    3861:	74 25                	je     3888 <remote_nic_get_address+0x78>
    3863:	8b 45 ec             	mov    -0x14(%ebp),%eax
    3866:	56                   	push   %esi
    3867:	56                   	push   %esi
    3868:	6a fd                	push   $0xfffffffd
    386a:	50                   	push   %eax
    386b:	e8 90 36 00 00       	call   6f00 <async_answer_0@plt>
    3870:	8b 4d 10             	mov    0x10(%ebp),%ecx
    3873:	58                   	pop    %eax
    3874:	5a                   	pop    %edx
    3875:	6a fd                	push   $0xfffffffd
    3877:	51                   	push   %ecx
    3878:	e8 83 36 00 00       	call   6f00 <async_answer_0@plt>
    387d:	83 c4 10             	add    $0x10,%esp
    3880:	8d 65 f8             	lea    -0x8(%ebp),%esp
    3883:	5b                   	pop    %ebx
    3884:	5e                   	pop    %esi
    3885:	5d                   	pop    %ebp
    3886:	c3                   	ret    
    3887:	90                   	nop
    3888:	51                   	push   %ecx
    3889:	6a 06                	push   $0x6
    388b:	53                   	push   %ebx
    388c:	8b 5d ec             	mov    -0x14(%ebp),%ebx
    388f:	53                   	push   %ebx
    3890:	e8 0b 36 00 00       	call   6ea0 <async_data_read_finalize@plt>
    3895:	83 c4 10             	add    $0x10,%esp
    3898:	8b 55 10             	mov    0x10(%ebp),%edx
    389b:	50                   	push   %eax
    389c:	50                   	push   %eax
    389d:	56                   	push   %esi
    389e:	52                   	push   %edx
    389f:	e8 5c 36 00 00       	call   6f00 <async_answer_0@plt>
    38a4:	83 c4 10             	add    $0x10,%esp
    38a7:	8d 65 f8             	lea    -0x8(%ebp),%esp
    38aa:	5b                   	pop    %ebx
    38ab:	5e                   	pop    %esi
    38ac:	5d                   	pop    %ebp
    38ad:	c3                   	ret    
    38ae:	66 90                	xchg   %ax,%ax
    38b0:	8b 75 ec             	mov    -0x14(%ebp),%esi
    38b3:	53                   	push   %ebx
    38b4:	53                   	push   %ebx
    38b5:	6a f2                	push   $0xfffffff2
    38b7:	56                   	push   %esi
    38b8:	e8 43 36 00 00       	call   6f00 <async_answer_0@plt>
    38bd:	8b 4d 10             	mov    0x10(%ebp),%ecx
    38c0:	58                   	pop    %eax
    38c1:	5a                   	pop    %edx
    38c2:	6a f2                	push   $0xfffffff2
    38c4:	51                   	push   %ecx
    38c5:	e8 36 36 00 00       	call   6f00 <async_answer_0@plt>
    38ca:	83 c4 10             	add    $0x10,%esp
    38cd:	8d 65 f8             	lea    -0x8(%ebp),%esp
    38d0:	5b                   	pop    %ebx
    38d1:	5e                   	pop    %esi
    38d2:	5d                   	pop    %ebp
    38d3:	c3                   	ret    
    38d4:	53                   	push   %ebx
    38d5:	68 75 05 00 00       	push   $0x575
    38da:	68 14 6a 00 00       	push   $0x6a14
    38df:	68 29 6a 00 00       	push   $0x6a29
    38e4:	e8 97 36 00 00       	call   6f80 <assert_abort@plt>
    38e9:	8d b4 26 00 00 00 00 	lea    0x0(%esi,%eiz,1),%esi

000038f0 <remote_nic_wol_load_info>:
    38f0:	55                   	push   %ebp
    38f1:	89 e5                	mov    %esp,%ebp
    38f3:	57                   	push   %edi
    38f4:	56                   	push   %esi
    38f5:	53                   	push   %ebx
    38f6:	83 ec 1c             	sub    $0x1c,%esp
    38f9:	8b 7d 0c             	mov    0xc(%ebp),%edi
    38fc:	8b 8f 8c 00 00 00    	mov    0x8c(%edi),%ecx
    3902:	85 c9                	test   %ecx,%ecx
    3904:	0f 84 06 01 00 00    	je     3a10 <remote_nic_wol_load_info+0x120>
    390a:	8b 45 14             	mov    0x14(%ebp),%eax
    390d:	c7 45 d8 00 00 00 00 	movl   $0x0,-0x28(%ebp)
    3914:	c7 45 dc 00 00 00 00 	movl   $0x0,-0x24(%ebp)
    391b:	8b 70 08             	mov    0x8(%eax),%esi
    391e:	85 f6                	test   %esi,%esi
    3920:	75 76                	jne    3998 <remote_nic_wol_load_info+0xa8>
    3922:	31 db                	xor    %ebx,%ebx
    3924:	50                   	push   %eax
    3925:	56                   	push   %esi
    3926:	6a 00                	push   $0x0
    3928:	53                   	push   %ebx
    3929:	e8 42 37 00 00       	call   7070 <memset@plt>
    392e:	8d 45 d8             	lea    -0x28(%ebp),%eax
    3931:	89 04 24             	mov    %eax,(%esp)
    3934:	8d 45 dc             	lea    -0x24(%ebp),%eax
    3937:	53                   	push   %ebx
    3938:	56                   	push   %esi
    3939:	50                   	push   %eax
    393a:	8b 45 08             	mov    0x8(%ebp),%eax
    393d:	50                   	push   %eax
    393e:	ff 97 8c 00 00 00    	call   *0x8c(%edi)
    3944:	83 c4 20             	add    $0x20,%esp
    3947:	89 c7                	mov    %eax,%edi
    3949:	85 c0                	test   %eax,%eax
    394b:	0f 85 93 00 00 00    	jne    39e4 <remote_nic_wol_load_info+0xf4>
    3951:	50                   	push   %eax
    3952:	50                   	push   %eax
    3953:	8d 45 e4             	lea    -0x1c(%ebp),%eax
    3956:	50                   	push   %eax
    3957:	8d 45 e0             	lea    -0x20(%ebp),%eax
    395a:	50                   	push   %eax
    395b:	e8 20 37 00 00       	call   7080 <async_data_read_receive@plt>
    3960:	83 c4 10             	add    $0x10,%esp
    3963:	84 c0                	test   %al,%al
    3965:	75 59                	jne    39c0 <remote_nic_wol_load_info+0xd0>
    3967:	50                   	push   %eax
    3968:	50                   	push   %eax
    3969:	8b 45 e0             	mov    -0x20(%ebp),%eax
    396c:	6a f2                	push   $0xfffffff2
    396e:	50                   	push   %eax
    396f:	e8 8c 35 00 00       	call   6f00 <async_answer_0@plt>
    3974:	8b 4d 10             	mov    0x10(%ebp),%ecx
    3977:	58                   	pop    %eax
    3978:	5a                   	pop    %edx
    3979:	6a f2                	push   $0xfffffff2
    397b:	51                   	push   %ecx
    397c:	e8 7f 35 00 00       	call   6f00 <async_answer_0@plt>
    3981:	89 1c 24             	mov    %ebx,(%esp)
    3984:	e8 27 38 00 00       	call   71b0 <free@plt>
    3989:	83 c4 10             	add    $0x10,%esp
    398c:	8d 65 f4             	lea    -0xc(%ebp),%esp
    398f:	5b                   	pop    %ebx
    3990:	5e                   	pop    %esi
    3991:	5f                   	pop    %edi
    3992:	5d                   	pop    %ebp
    3993:	c3                   	ret    
    3994:	8d 74 26 00          	lea    0x0(%esi,%eiz,1),%esi
    3998:	83 ec 0c             	sub    $0xc,%esp
    399b:	56                   	push   %esi
    399c:	e8 3f 35 00 00       	call   6ee0 <malloc@plt>
    39a1:	83 c4 10             	add    $0x10,%esp
    39a4:	89 c3                	mov    %eax,%ebx
    39a6:	85 c0                	test   %eax,%eax
    39a8:	0f 85 76 ff ff ff    	jne    3924 <remote_nic_wol_load_info+0x34>
    39ae:	50                   	push   %eax
    39af:	50                   	push   %eax
    39b0:	8b 45 10             	mov    0x10(%ebp),%eax
    39b3:	6a fe                	push   $0xfffffffe
    39b5:	50                   	push   %eax
    39b6:	e8 45 35 00 00       	call   6f00 <async_answer_0@plt>
    39bb:	83 c4 10             	add    $0x10,%esp
    39be:	eb cc                	jmp    398c <remote_nic_wol_load_info+0x9c>
    39c0:	8b 55 d8             	mov    -0x28(%ebp),%edx
    39c3:	8b 45 e4             	mov    -0x1c(%ebp),%eax
    39c6:	39 d0                	cmp    %edx,%eax
    39c8:	76 02                	jbe    39cc <remote_nic_wol_load_info+0xdc>
    39ca:	89 d0                	mov    %edx,%eax
    39cc:	39 f0                	cmp    %esi,%eax
    39ce:	76 02                	jbe    39d2 <remote_nic_wol_load_info+0xe2>
    39d0:	89 f0                	mov    %esi,%eax
    39d2:	89 45 e4             	mov    %eax,-0x1c(%ebp)
    39d5:	56                   	push   %esi
    39d6:	50                   	push   %eax
    39d7:	8b 45 e0             	mov    -0x20(%ebp),%eax
    39da:	53                   	push   %ebx
    39db:	50                   	push   %eax
    39dc:	e8 bf 34 00 00       	call   6ea0 <async_data_read_finalize@plt>
    39e1:	83 c4 10             	add    $0x10,%esp
    39e4:	8b 55 dc             	mov    -0x24(%ebp),%edx
    39e7:	8b 4d 10             	mov    0x10(%ebp),%ecx
    39ea:	8b 45 d8             	mov    -0x28(%ebp),%eax
    39ed:	50                   	push   %eax
    39ee:	52                   	push   %edx
    39ef:	57                   	push   %edi
    39f0:	51                   	push   %ecx
    39f1:	e8 fa 35 00 00       	call   6ff0 <async_answer_2@plt>
    39f6:	89 1c 24             	mov    %ebx,(%esp)
    39f9:	e8 b2 37 00 00       	call   71b0 <free@plt>
    39fe:	83 c4 10             	add    $0x10,%esp
    3a01:	8d 65 f4             	lea    -0xc(%ebp),%esp
    3a04:	5b                   	pop    %ebx
    3a05:	5e                   	pop    %esi
    3a06:	5f                   	pop    %edi
    3a07:	5d                   	pop    %ebp
    3a08:	c3                   	ret    
    3a09:	8d b4 26 00 00 00 00 	lea    0x0(%esi,%eiz,1),%esi
    3a10:	8b 55 10             	mov    0x10(%ebp),%edx
    3a13:	50                   	push   %eax
    3a14:	50                   	push   %eax
    3a15:	6a f5                	push   $0xfffffff5
    3a17:	52                   	push   %edx
    3a18:	e8 e3 34 00 00       	call   6f00 <async_answer_0@plt>
    3a1d:	83 c4 10             	add    $0x10,%esp
    3a20:	e9 67 ff ff ff       	jmp    398c <remote_nic_wol_load_info+0x9c>
    3a25:	8d 74 26 00          	lea    0x0(%esi,%eiz,1),%esi
    3a29:	8d bc 27 00 00 00 00 	lea    0x0(%edi,%eiz,1),%edi

00003a30 <remote_nic_wol_virtue_list>:
    3a30:	55                   	push   %ebp
    3a31:	89 e5                	mov    %esp,%ebp
    3a33:	57                   	push   %edi
    3a34:	56                   	push   %esi
    3a35:	53                   	push   %ebx
    3a36:	83 ec 2c             	sub    $0x2c,%esp
    3a39:	8b 4d 0c             	mov    0xc(%ebp),%ecx
    3a3c:	8b 45 14             	mov    0x14(%ebp),%eax
    3a3f:	8b 91 84 00 00 00    	mov    0x84(%ecx),%edx
    3a45:	85 d2                	test   %edx,%edx
    3a47:	0f 84 2b 01 00 00    	je     3b78 <remote_nic_wol_virtue_list+0x148>
    3a4d:	8b 78 0c             	mov    0xc(%eax),%edi
    3a50:	8b 70 08             	mov    0x8(%eax),%esi
    3a53:	c7 45 dc 00 00 00 00 	movl   $0x0,-0x24(%ebp)
    3a5a:	85 ff                	test   %edi,%edi
    3a5c:	0f 84 9e 00 00 00    	je     3b00 <remote_nic_wol_virtue_list+0xd0>
    3a62:	83 ec 0c             	sub    $0xc,%esp
    3a65:	8d 04 bd 00 00 00 00 	lea    0x0(,%edi,4),%eax
    3a6c:	89 45 d4             	mov    %eax,-0x2c(%ebp)
    3a6f:	50                   	push   %eax
    3a70:	e8 6b 34 00 00       	call   6ee0 <malloc@plt>
    3a75:	83 c4 10             	add    $0x10,%esp
    3a78:	89 c3                	mov    %eax,%ebx
    3a7a:	85 c0                	test   %eax,%eax
    3a7c:	0f 84 0e 01 00 00    	je     3b90 <remote_nic_wol_virtue_list+0x160>
    3a82:	8b 45 d4             	mov    -0x2c(%ebp),%eax
    3a85:	51                   	push   %ecx
    3a86:	50                   	push   %eax
    3a87:	6a 00                	push   $0x0
    3a89:	53                   	push   %ebx
    3a8a:	e8 e1 35 00 00       	call   7070 <memset@plt>
    3a8f:	8d 45 dc             	lea    -0x24(%ebp),%eax
    3a92:	89 04 24             	mov    %eax,(%esp)
    3a95:	8b 45 08             	mov    0x8(%ebp),%eax
    3a98:	53                   	push   %ebx
    3a99:	57                   	push   %edi
    3a9a:	56                   	push   %esi
    3a9b:	50                   	push   %eax
    3a9c:	8b 45 0c             	mov    0xc(%ebp),%eax
    3a9f:	ff 90 84 00 00 00    	call   *0x84(%eax)
    3aa5:	8b 55 dc             	mov    -0x24(%ebp),%edx
    3aa8:	83 c4 20             	add    $0x20,%esp
    3aab:	85 d2                	test   %edx,%edx
    3aad:	74 7d                	je     3b2c <remote_nic_wol_virtue_list+0xfc>
    3aaf:	8d 45 e4             	lea    -0x1c(%ebp),%eax
    3ab2:	56                   	push   %esi
    3ab3:	56                   	push   %esi
    3ab4:	50                   	push   %eax
    3ab5:	8d 45 e0             	lea    -0x20(%ebp),%eax
    3ab8:	50                   	push   %eax
    3ab9:	e8 c2 35 00 00       	call   7080 <async_data_read_receive@plt>
    3abe:	83 c4 10             	add    $0x10,%esp
    3ac1:	84 c0                	test   %al,%al
    3ac3:	0f 84 87 00 00 00    	je     3b50 <remote_nic_wol_virtue_list+0x120>
    3ac9:	8b 45 dc             	mov    -0x24(%ebp),%eax
    3acc:	8d 14 85 00 00 00 00 	lea    0x0(,%eax,4),%edx
    3ad3:	8b 45 e4             	mov    -0x1c(%ebp),%eax
    3ad6:	39 c2                	cmp    %eax,%edx
    3ad8:	73 05                	jae    3adf <remote_nic_wol_virtue_list+0xaf>
    3ada:	89 55 e4             	mov    %edx,-0x1c(%ebp)
    3add:	89 d0                	mov    %edx,%eax
    3adf:	8b 4d d4             	mov    -0x2c(%ebp),%ecx
    3ae2:	39 c1                	cmp    %eax,%ecx
    3ae4:	73 05                	jae    3aeb <remote_nic_wol_virtue_list+0xbb>
    3ae6:	89 4d e4             	mov    %ecx,-0x1c(%ebp)
    3ae9:	89 c8                	mov    %ecx,%eax
    3aeb:	57                   	push   %edi
    3aec:	50                   	push   %eax
    3aed:	8b 45 e0             	mov    -0x20(%ebp),%eax
    3af0:	53                   	push   %ebx
    3af1:	50                   	push   %eax
    3af2:	e8 a9 33 00 00       	call   6ea0 <async_data_read_finalize@plt>
    3af7:	8b 55 dc             	mov    -0x24(%ebp),%edx
    3afa:	83 c4 10             	add    $0x10,%esp
    3afd:	eb 2d                	jmp    3b2c <remote_nic_wol_virtue_list+0xfc>
    3aff:	90                   	nop
    3b00:	50                   	push   %eax
    3b01:	6a 00                	push   $0x0
    3b03:	6a 00                	push   $0x0
    3b05:	6a 00                	push   $0x0
    3b07:	e8 64 35 00 00       	call   7070 <memset@plt>
    3b0c:	8d 45 dc             	lea    -0x24(%ebp),%eax
    3b0f:	89 04 24             	mov    %eax,(%esp)
    3b12:	8b 55 08             	mov    0x8(%ebp),%edx
    3b15:	8b 45 0c             	mov    0xc(%ebp),%eax
    3b18:	6a 00                	push   $0x0
    3b1a:	6a 00                	push   $0x0
    3b1c:	56                   	push   %esi
    3b1d:	52                   	push   %edx
    3b1e:	31 db                	xor    %ebx,%ebx
    3b20:	ff 90 84 00 00 00    	call   *0x84(%eax)
    3b26:	8b 55 dc             	mov    -0x24(%ebp),%edx
    3b29:	83 c4 20             	add    $0x20,%esp
    3b2c:	8b 75 10             	mov    0x10(%ebp),%esi
    3b2f:	51                   	push   %ecx
    3b30:	52                   	push   %edx
    3b31:	50                   	push   %eax
    3b32:	56                   	push   %esi
    3b33:	e8 b8 35 00 00       	call   70f0 <async_answer_1@plt>
    3b38:	89 1c 24             	mov    %ebx,(%esp)
    3b3b:	e8 70 36 00 00       	call   71b0 <free@plt>
    3b40:	83 c4 10             	add    $0x10,%esp
    3b43:	8d 65 f4             	lea    -0xc(%ebp),%esp
    3b46:	5b                   	pop    %ebx
    3b47:	5e                   	pop    %esi
    3b48:	5f                   	pop    %edi
    3b49:	5d                   	pop    %ebp
    3b4a:	c3                   	ret    
    3b4b:	90                   	nop
    3b4c:	8d 74 26 00          	lea    0x0(%esi,%eiz,1),%esi
    3b50:	50                   	push   %eax
    3b51:	50                   	push   %eax
    3b52:	8b 45 e0             	mov    -0x20(%ebp),%eax
    3b55:	6a f2                	push   $0xfffffff2
    3b57:	50                   	push   %eax
    3b58:	e8 a3 33 00 00       	call   6f00 <async_answer_0@plt>
    3b5d:	8b 4d 10             	mov    0x10(%ebp),%ecx
    3b60:	58                   	pop    %eax
    3b61:	5a                   	pop    %edx
    3b62:	6a f2                	push   $0xfffffff2
    3b64:	51                   	push   %ecx
    3b65:	e8 96 33 00 00       	call   6f00 <async_answer_0@plt>
    3b6a:	89 1c 24             	mov    %ebx,(%esp)
    3b6d:	e8 3e 36 00 00       	call   71b0 <free@plt>
    3b72:	83 c4 10             	add    $0x10,%esp
    3b75:	eb cc                	jmp    3b43 <remote_nic_wol_virtue_list+0x113>
    3b77:	90                   	nop
    3b78:	50                   	push   %eax
    3b79:	50                   	push   %eax
    3b7a:	8b 45 10             	mov    0x10(%ebp),%eax
    3b7d:	6a f5                	push   $0xfffffff5
    3b7f:	50                   	push   %eax
    3b80:	e8 7b 33 00 00       	call   6f00 <async_answer_0@plt>
    3b85:	83 c4 10             	add    $0x10,%esp
    3b88:	eb b9                	jmp    3b43 <remote_nic_wol_virtue_list+0x113>
    3b8a:	8d b6 00 00 00 00    	lea    0x0(%esi),%esi
    3b90:	8b 45 10             	mov    0x10(%ebp),%eax
    3b93:	57                   	push   %edi
    3b94:	57                   	push   %edi
    3b95:	6a fe                	push   $0xfffffffe
    3b97:	50                   	push   %eax
    3b98:	e8 63 33 00 00       	call   6f00 <async_answer_0@plt>
    3b9d:	83 c4 10             	add    $0x10,%esp
    3ba0:	eb a1                	jmp    3b43 <remote_nic_wol_virtue_list+0x113>
    3ba2:	8d b4 26 00 00 00 00 	lea    0x0(%esi,%eiz,1),%esi
    3ba9:	8d bc 27 00 00 00 00 	lea    0x0(%edi,%eiz,1),%edi

00003bb0 <remote_nic_wol_virtue_probe>:
    3bb0:	55                   	push   %ebp
    3bb1:	89 e5                	mov    %esp,%ebp
    3bb3:	57                   	push   %edi
    3bb4:	56                   	push   %esi
    3bb5:	53                   	push   %ebx
    3bb6:	83 ec 1c             	sub    $0x1c,%esp
    3bb9:	8b 4d 0c             	mov    0xc(%ebp),%ecx
    3bbc:	8b 45 14             	mov    0x14(%ebp),%eax
    3bbf:	8b 91 80 00 00 00    	mov    0x80(%ecx),%edx
    3bc5:	85 d2                	test   %edx,%edx
    3bc7:	0f 84 2b 01 00 00    	je     3cf8 <remote_nic_wol_virtue_probe+0x148>
    3bcd:	8b 58 0c             	mov    0xc(%eax),%ebx
    3bd0:	8b 78 08             	mov    0x8(%eax),%edi
    3bd3:	c7 45 d8 00 00 00 00 	movl   $0x0,-0x28(%ebp)
    3bda:	c7 45 dc 00 00 00 00 	movl   $0x0,-0x24(%ebp)
    3be1:	85 db                	test   %ebx,%ebx
    3be3:	0f 84 8f 00 00 00    	je     3c78 <remote_nic_wol_virtue_probe+0xc8>
    3be9:	83 ec 0c             	sub    $0xc,%esp
    3bec:	53                   	push   %ebx
    3bed:	e8 ee 32 00 00       	call   6ee0 <malloc@plt>
    3bf2:	83 c4 10             	add    $0x10,%esp
    3bf5:	89 c6                	mov    %eax,%esi
    3bf7:	85 c0                	test   %eax,%eax
    3bf9:	0f 84 11 01 00 00    	je     3d10 <remote_nic_wol_virtue_probe+0x160>
    3bff:	50                   	push   %eax
    3c00:	53                   	push   %ebx
    3c01:	6a 00                	push   $0x0
    3c03:	56                   	push   %esi
    3c04:	e8 67 34 00 00       	call   7070 <memset@plt>
    3c09:	58                   	pop    %eax
    3c0a:	8d 45 dc             	lea    -0x24(%ebp),%eax
    3c0d:	5a                   	pop    %edx
    3c0e:	50                   	push   %eax
    3c0f:	8d 45 d8             	lea    -0x28(%ebp),%eax
    3c12:	56                   	push   %esi
    3c13:	53                   	push   %ebx
    3c14:	50                   	push   %eax
    3c15:	8b 45 0c             	mov    0xc(%ebp),%eax
    3c18:	8b 4d 08             	mov    0x8(%ebp),%ecx
    3c1b:	57                   	push   %edi
    3c1c:	51                   	push   %ecx
    3c1d:	ff 90 80 00 00 00    	call   *0x80(%eax)
    3c23:	89 c7                	mov    %eax,%edi
    3c25:	8b 45 dc             	mov    -0x24(%ebp),%eax
    3c28:	83 c4 20             	add    $0x20,%esp
    3c2b:	85 c0                	test   %eax,%eax
    3c2d:	74 7b                	je     3caa <remote_nic_wol_virtue_probe+0xfa>
    3c2f:	50                   	push   %eax
    3c30:	50                   	push   %eax
    3c31:	8d 45 e4             	lea    -0x1c(%ebp),%eax
    3c34:	50                   	push   %eax
    3c35:	8d 45 e0             	lea    -0x20(%ebp),%eax
    3c38:	50                   	push   %eax
    3c39:	e8 42 34 00 00       	call   7080 <async_data_read_receive@plt>
    3c3e:	83 c4 10             	add    $0x10,%esp
    3c41:	84 c0                	test   %al,%al
    3c43:	0f 84 87 00 00 00    	je     3cd0 <remote_nic_wol_virtue_probe+0x120>
    3c49:	8b 45 e4             	mov    -0x1c(%ebp),%eax
    3c4c:	8b 55 dc             	mov    -0x24(%ebp),%edx
    3c4f:	39 d0                	cmp    %edx,%eax
    3c51:	76 05                	jbe    3c58 <remote_nic_wol_virtue_probe+0xa8>
    3c53:	89 55 e4             	mov    %edx,-0x1c(%ebp)
    3c56:	89 d0                	mov    %edx,%eax
    3c58:	39 c3                	cmp    %eax,%ebx
    3c5a:	73 05                	jae    3c61 <remote_nic_wol_virtue_probe+0xb1>
    3c5c:	89 5d e4             	mov    %ebx,-0x1c(%ebp)
    3c5f:	89 d8                	mov    %ebx,%eax
    3c61:	8b 4d e0             	mov    -0x20(%ebp),%ecx
    3c64:	52                   	push   %edx
    3c65:	50                   	push   %eax
    3c66:	56                   	push   %esi
    3c67:	51                   	push   %ecx
    3c68:	e8 33 32 00 00       	call   6ea0 <async_data_read_finalize@plt>
    3c6d:	8b 45 dc             	mov    -0x24(%ebp),%eax
    3c70:	83 c4 10             	add    $0x10,%esp
    3c73:	eb 35                	jmp    3caa <remote_nic_wol_virtue_probe+0xfa>
    3c75:	8d 76 00             	lea    0x0(%esi),%esi
    3c78:	50                   	push   %eax
    3c79:	6a 00                	push   $0x0
    3c7b:	6a 00                	push   $0x0
    3c7d:	6a 00                	push   $0x0
    3c7f:	e8 ec 33 00 00       	call   7070 <memset@plt>
    3c84:	8d 45 dc             	lea    -0x24(%ebp),%eax
    3c87:	5a                   	pop    %edx
    3c88:	59                   	pop    %ecx
    3c89:	50                   	push   %eax
    3c8a:	8d 45 d8             	lea    -0x28(%ebp),%eax
    3c8d:	6a 00                	push   $0x0
    3c8f:	6a 00                	push   $0x0
    3c91:	50                   	push   %eax
    3c92:	8b 45 0c             	mov    0xc(%ebp),%eax
    3c95:	8b 5d 08             	mov    0x8(%ebp),%ebx
    3c98:	57                   	push   %edi
    3c99:	53                   	push   %ebx
    3c9a:	ff 90 80 00 00 00    	call   *0x80(%eax)
    3ca0:	31 f6                	xor    %esi,%esi
    3ca2:	89 c7                	mov    %eax,%edi
    3ca4:	83 c4 20             	add    $0x20,%esp
    3ca7:	8b 45 dc             	mov    -0x24(%ebp),%eax
    3caa:	8b 5d d8             	mov    -0x28(%ebp),%ebx
    3cad:	50                   	push   %eax
    3cae:	53                   	push   %ebx
    3caf:	57                   	push   %edi
    3cb0:	8b 7d 10             	mov    0x10(%ebp),%edi
    3cb3:	57                   	push   %edi
    3cb4:	e8 37 33 00 00       	call   6ff0 <async_answer_2@plt>
    3cb9:	89 34 24             	mov    %esi,(%esp)
    3cbc:	e8 ef 34 00 00       	call   71b0 <free@plt>
    3cc1:	83 c4 10             	add    $0x10,%esp
    3cc4:	8d 65 f4             	lea    -0xc(%ebp),%esp
    3cc7:	5b                   	pop    %ebx
    3cc8:	5e                   	pop    %esi
    3cc9:	5f                   	pop    %edi
    3cca:	5d                   	pop    %ebp
    3ccb:	c3                   	ret    
    3ccc:	8d 74 26 00          	lea    0x0(%esi,%eiz,1),%esi
    3cd0:	8b 7d e0             	mov    -0x20(%ebp),%edi
    3cd3:	53                   	push   %ebx
    3cd4:	53                   	push   %ebx
    3cd5:	6a f2                	push   $0xfffffff2
    3cd7:	57                   	push   %edi
    3cd8:	e8 23 32 00 00       	call   6f00 <async_answer_0@plt>
    3cdd:	8b 4d 10             	mov    0x10(%ebp),%ecx
    3ce0:	58                   	pop    %eax
    3ce1:	5a                   	pop    %edx
    3ce2:	6a f2                	push   $0xfffffff2
    3ce4:	51                   	push   %ecx
    3ce5:	e8 16 32 00 00       	call   6f00 <async_answer_0@plt>
    3cea:	89 34 24             	mov    %esi,(%esp)
    3ced:	e8 be 34 00 00       	call   71b0 <free@plt>
    3cf2:	83 c4 10             	add    $0x10,%esp
    3cf5:	eb cd                	jmp    3cc4 <remote_nic_wol_virtue_probe+0x114>
    3cf7:	90                   	nop
    3cf8:	50                   	push   %eax
    3cf9:	50                   	push   %eax
    3cfa:	8b 45 10             	mov    0x10(%ebp),%eax
    3cfd:	6a f5                	push   $0xfffffff5
    3cff:	50                   	push   %eax
    3d00:	e8 fb 31 00 00       	call   6f00 <async_answer_0@plt>
    3d05:	83 c4 10             	add    $0x10,%esp
    3d08:	eb ba                	jmp    3cc4 <remote_nic_wol_virtue_probe+0x114>
    3d0a:	8d b6 00 00 00 00    	lea    0x0(%esi),%esi
    3d10:	50                   	push   %eax
    3d11:	50                   	push   %eax
    3d12:	8b 45 10             	mov    0x10(%ebp),%eax
    3d15:	6a fe                	push   $0xfffffffe
    3d17:	50                   	push   %eax
    3d18:	e8 e3 31 00 00       	call   6f00 <async_answer_0@plt>
    3d1d:	83 c4 10             	add    $0x10,%esp
    3d20:	eb a2                	jmp    3cc4 <remote_nic_wol_virtue_probe+0x114>
    3d22:	8d b4 26 00 00 00 00 	lea    0x0(%esi,%eiz,1),%esi
    3d29:	8d bc 27 00 00 00 00 	lea    0x0(%edi,%eiz,1),%edi

00003d30 <remote_nic_wol_virtue_add>:
    3d30:	55                   	push   %ebp
    3d31:	89 e5                	mov    %esp,%ebp
    3d33:	57                   	push   %edi
    3d34:	56                   	push   %esi
    3d35:	53                   	push   %ebx
    3d36:	83 ec 1c             	sub    $0x1c,%esp
    3d39:	8b 5d 0c             	mov    0xc(%ebp),%ebx
    3d3c:	8b 75 14             	mov    0x14(%ebp),%esi
    3d3f:	8b 43 78             	mov    0x78(%ebx),%eax
    3d42:	8b 7e 0c             	mov    0xc(%esi),%edi
    3d45:	85 c0                	test   %eax,%eax
    3d47:	0f 84 eb 00 00 00    	je     3e38 <remote_nic_wol_virtue_add+0x108>
    3d4d:	c7 45 e0 00 00 00 00 	movl   $0x0,-0x20(%ebp)
    3d54:	85 ff                	test   %edi,%edi
    3d56:	74 78                	je     3dd0 <remote_nic_wol_virtue_add+0xa0>
    3d58:	8d 45 e0             	lea    -0x20(%ebp),%eax
    3d5b:	57                   	push   %edi
    3d5c:	57                   	push   %edi
    3d5d:	50                   	push   %eax
    3d5e:	8d 45 dc             	lea    -0x24(%ebp),%eax
    3d61:	50                   	push   %eax
    3d62:	e8 39 34 00 00       	call   71a0 <async_data_write_receive@plt>
    3d67:	83 c4 10             	add    $0x10,%esp
    3d6a:	84 c0                	test   %al,%al
    3d6c:	75 2a                	jne    3d98 <remote_nic_wol_virtue_add+0x68>
    3d6e:	50                   	push   %eax
    3d6f:	50                   	push   %eax
    3d70:	8b 45 dc             	mov    -0x24(%ebp),%eax
    3d73:	6a f2                	push   $0xfffffff2
    3d75:	50                   	push   %eax
    3d76:	e8 85 31 00 00       	call   6f00 <async_answer_0@plt>
    3d7b:	8b 4d 10             	mov    0x10(%ebp),%ecx
    3d7e:	58                   	pop    %eax
    3d7f:	5a                   	pop    %edx
    3d80:	6a f2                	push   $0xfffffff2
    3d82:	51                   	push   %ecx
    3d83:	e8 78 31 00 00       	call   6f00 <async_answer_0@plt>
    3d88:	83 c4 10             	add    $0x10,%esp
    3d8b:	8d 65 f4             	lea    -0xc(%ebp),%esp
    3d8e:	5b                   	pop    %ebx
    3d8f:	5e                   	pop    %esi
    3d90:	5f                   	pop    %edi
    3d91:	5d                   	pop    %ebp
    3d92:	c3                   	ret    
    3d93:	90                   	nop
    3d94:	8d 74 26 00          	lea    0x0(%esi,%eiz,1),%esi
    3d98:	83 ec 0c             	sub    $0xc,%esp
    3d9b:	8b 7d e0             	mov    -0x20(%ebp),%edi
    3d9e:	57                   	push   %edi
    3d9f:	e8 3c 31 00 00       	call   6ee0 <malloc@plt>
    3da4:	83 c4 10             	add    $0x10,%esp
    3da7:	89 c7                	mov    %eax,%edi
    3da9:	85 c0                	test   %eax,%eax
    3dab:	0f 84 a7 00 00 00    	je     3e58 <remote_nic_wol_virtue_add+0x128>
    3db1:	50                   	push   %eax
    3db2:	8b 45 e0             	mov    -0x20(%ebp),%eax
    3db5:	50                   	push   %eax
    3db6:	8b 45 dc             	mov    -0x24(%ebp),%eax
    3db9:	57                   	push   %edi
    3dba:	50                   	push   %eax
    3dbb:	e8 70 33 00 00       	call   7130 <async_data_write_finalize@plt>
    3dc0:	83 c4 10             	add    $0x10,%esp
    3dc3:	85 c0                	test   %eax,%eax
    3dc5:	75 51                	jne    3e18 <remote_nic_wol_virtue_add+0xe8>
    3dc7:	8b 45 e0             	mov    -0x20(%ebp),%eax
    3dca:	eb 08                	jmp    3dd4 <remote_nic_wol_virtue_add+0xa4>
    3dcc:	8d 74 26 00          	lea    0x0(%esi,%eiz,1),%esi
    3dd0:	31 c0                	xor    %eax,%eax
    3dd2:	31 ff                	xor    %edi,%edi
    3dd4:	83 ec 0c             	sub    $0xc,%esp
    3dd7:	8d 4d e4             	lea    -0x1c(%ebp),%ecx
    3dda:	8b 55 08             	mov    0x8(%ebp),%edx
    3ddd:	c7 45 e4 00 00 00 00 	movl   $0x0,-0x1c(%ebp)
    3de4:	51                   	push   %ecx
    3de5:	50                   	push   %eax
    3de6:	8b 46 08             	mov    0x8(%esi),%eax
    3de9:	57                   	push   %edi
    3dea:	50                   	push   %eax
    3deb:	52                   	push   %edx
    3dec:	ff 53 78             	call   *0x78(%ebx)
    3def:	83 c4 1c             	add    $0x1c,%esp
    3df2:	8b 4d e4             	mov    -0x1c(%ebp),%ecx
    3df5:	8b 5d 10             	mov    0x10(%ebp),%ebx
    3df8:	51                   	push   %ecx
    3df9:	50                   	push   %eax
    3dfa:	53                   	push   %ebx
    3dfb:	e8 f0 32 00 00       	call   70f0 <async_answer_1@plt>
    3e00:	89 3c 24             	mov    %edi,(%esp)
    3e03:	e8 a8 33 00 00       	call   71b0 <free@plt>
    3e08:	83 c4 10             	add    $0x10,%esp
    3e0b:	8d 65 f4             	lea    -0xc(%ebp),%esp
    3e0e:	5b                   	pop    %ebx
    3e0f:	5e                   	pop    %esi
    3e10:	5f                   	pop    %edi
    3e11:	5d                   	pop    %ebp
    3e12:	c3                   	ret    
    3e13:	90                   	nop
    3e14:	8d 74 26 00          	lea    0x0(%esi,%eiz,1),%esi
    3e18:	8b 45 10             	mov    0x10(%ebp),%eax
    3e1b:	56                   	push   %esi
    3e1c:	56                   	push   %esi
    3e1d:	6a f2                	push   $0xfffffff2
    3e1f:	50                   	push   %eax
    3e20:	e8 db 30 00 00       	call   6f00 <async_answer_0@plt>
    3e25:	89 3c 24             	mov    %edi,(%esp)
    3e28:	e8 83 33 00 00       	call   71b0 <free@plt>
    3e2d:	83 c4 10             	add    $0x10,%esp
    3e30:	8d 65 f4             	lea    -0xc(%ebp),%esp
    3e33:	5b                   	pop    %ebx
    3e34:	5e                   	pop    %esi
    3e35:	5f                   	pop    %edi
    3e36:	5d                   	pop    %ebp
    3e37:	c3                   	ret    
    3e38:	85 ff                	test   %edi,%edi
    3e3a:	75 44                	jne    3e80 <remote_nic_wol_virtue_add+0x150>
    3e3c:	50                   	push   %eax
    3e3d:	50                   	push   %eax
    3e3e:	8b 45 10             	mov    0x10(%ebp),%eax
    3e41:	6a f5                	push   $0xfffffff5
    3e43:	50                   	push   %eax
    3e44:	e8 b7 30 00 00       	call   6f00 <async_answer_0@plt>
    3e49:	83 c4 10             	add    $0x10,%esp
    3e4c:	e9 fc fe ff ff       	jmp    3d4d <remote_nic_wol_virtue_add+0x1d>
    3e51:	8d b4 26 00 00 00 00 	lea    0x0(%esi,%eiz,1),%esi
    3e58:	50                   	push   %eax
    3e59:	50                   	push   %eax
    3e5a:	8b 45 dc             	mov    -0x24(%ebp),%eax
    3e5d:	6a fe                	push   $0xfffffffe
    3e5f:	50                   	push   %eax
    3e60:	e8 9b 30 00 00       	call   6f00 <async_answer_0@plt>
    3e65:	8b 5d 10             	mov    0x10(%ebp),%ebx
    3e68:	5a                   	pop    %edx
    3e69:	59                   	pop    %ecx
    3e6a:	6a fe                	push   $0xfffffffe
    3e6c:	53                   	push   %ebx
    3e6d:	e8 8e 30 00 00       	call   6f00 <async_answer_0@plt>
    3e72:	83 c4 10             	add    $0x10,%esp
    3e75:	e9 11 ff ff ff       	jmp    3d8b <remote_nic_wol_virtue_add+0x5b>
    3e7a:	8d b6 00 00 00 00    	lea    0x0(%esi),%esi
    3e80:	50                   	push   %eax
    3e81:	50                   	push   %eax
    3e82:	8d 45 dc             	lea    -0x24(%ebp),%eax
    3e85:	6a 00                	push   $0x0
    3e87:	50                   	push   %eax
    3e88:	e8 13 33 00 00       	call   71a0 <async_data_write_receive@plt>
    3e8d:	8b 4d dc             	mov    -0x24(%ebp),%ecx
    3e90:	58                   	pop    %eax
    3e91:	5a                   	pop    %edx
    3e92:	6a f5                	push   $0xfffffff5
    3e94:	51                   	push   %ecx
    3e95:	e8 66 30 00 00       	call   6f00 <async_answer_0@plt>
    3e9a:	83 c4 10             	add    $0x10,%esp
    3e9d:	eb 9d                	jmp    3e3c <remote_nic_wol_virtue_add+0x10c>
    3e9f:	90                   	nop

00003ea0 <remote_nic_blocked_sources_set>:
    3ea0:	55                   	push   %ebp
    3ea1:	89 e5                	mov    %esp,%ebp
    3ea3:	57                   	push   %edi
    3ea4:	56                   	push   %esi
    3ea5:	53                   	push   %ebx
    3ea6:	83 ec 1c             	sub    $0x1c,%esp
    3ea9:	31 f6                	xor    %esi,%esi
    3eab:	8b 45 14             	mov    0x14(%ebp),%eax
    3eae:	8b 58 08             	mov    0x8(%eax),%ebx
    3eb1:	85 db                	test   %ebx,%ebx
    3eb3:	75 3b                	jne    3ef0 <remote_nic_blocked_sources_set+0x50>
    3eb5:	8b 45 0c             	mov    0xc(%ebp),%eax
    3eb8:	8b 40 68             	mov    0x68(%eax),%eax
    3ebb:	85 c0                	test   %eax,%eax
    3ebd:	0f 84 cd 00 00 00    	je     3f90 <remote_nic_blocked_sources_set+0xf0>
    3ec3:	51                   	push   %ecx
    3ec4:	53                   	push   %ebx
    3ec5:	8b 5d 08             	mov    0x8(%ebp),%ebx
    3ec8:	56                   	push   %esi
    3ec9:	53                   	push   %ebx
    3eca:	ff d0                	call   *%eax
    3ecc:	8b 4d 10             	mov    0x10(%ebp),%ecx
    3ecf:	5f                   	pop    %edi
    3ed0:	5a                   	pop    %edx
    3ed1:	50                   	push   %eax
    3ed2:	51                   	push   %ecx
    3ed3:	e8 28 30 00 00       	call   6f00 <async_answer_0@plt>
    3ed8:	83 c4 10             	add    $0x10,%esp
    3edb:	83 ec 0c             	sub    $0xc,%esp
    3ede:	56                   	push   %esi
    3edf:	e8 cc 32 00 00       	call   71b0 <free@plt>
    3ee4:	83 c4 10             	add    $0x10,%esp
    3ee7:	8d 65 f4             	lea    -0xc(%ebp),%esp
    3eea:	5b                   	pop    %ebx
    3eeb:	5e                   	pop    %esi
    3eec:	5f                   	pop    %edi
    3eed:	5d                   	pop    %ebp
    3eee:	c3                   	ret    
    3eef:	90                   	nop
    3ef0:	8d 45 e0             	lea    -0x20(%ebp),%eax
    3ef3:	56                   	push   %esi
    3ef4:	56                   	push   %esi
    3ef5:	50                   	push   %eax
    3ef6:	8d 45 e4             	lea    -0x1c(%ebp),%eax
    3ef9:	50                   	push   %eax
    3efa:	e8 a1 32 00 00       	call   71a0 <async_data_write_receive@plt>
    3eff:	83 c4 10             	add    $0x10,%esp
    3f02:	84 c0                	test   %al,%al
    3f04:	0f 84 9e 00 00 00    	je     3fa8 <remote_nic_blocked_sources_set+0x108>
    3f0a:	8d 04 5b             	lea    (%ebx,%ebx,2),%eax
    3f0d:	01 c0                	add    %eax,%eax
    3f0f:	3b 45 e0             	cmp    -0x20(%ebp),%eax
    3f12:	74 2c                	je     3f40 <remote_nic_blocked_sources_set+0xa0>
    3f14:	8b 75 e4             	mov    -0x1c(%ebp),%esi
    3f17:	53                   	push   %ebx
    3f18:	53                   	push   %ebx
    3f19:	6a fd                	push   $0xfffffffd
    3f1b:	56                   	push   %esi
    3f1c:	e8 df 2f 00 00       	call   6f00 <async_answer_0@plt>
    3f21:	5f                   	pop    %edi
    3f22:	58                   	pop    %eax
    3f23:	8b 45 10             	mov    0x10(%ebp),%eax
    3f26:	6a fd                	push   $0xfffffffd
    3f28:	50                   	push   %eax
    3f29:	e8 d2 2f 00 00       	call   6f00 <async_answer_0@plt>
    3f2e:	83 c4 10             	add    $0x10,%esp
    3f31:	8d 65 f4             	lea    -0xc(%ebp),%esp
    3f34:	5b                   	pop    %ebx
    3f35:	5e                   	pop    %esi
    3f36:	5f                   	pop    %edi
    3f37:	5d                   	pop    %ebp
    3f38:	c3                   	ret    
    3f39:	8d b4 26 00 00 00 00 	lea    0x0(%esi,%eiz,1),%esi
    3f40:	83 ec 0c             	sub    $0xc,%esp
    3f43:	50                   	push   %eax
    3f44:	e8 97 2f 00 00       	call   6ee0 <malloc@plt>
    3f49:	83 c4 10             	add    $0x10,%esp
    3f4c:	89 c7                	mov    %eax,%edi
    3f4e:	89 c6                	mov    %eax,%esi
    3f50:	85 c0                	test   %eax,%eax
    3f52:	74 76                	je     3fca <remote_nic_blocked_sources_set+0x12a>
    3f54:	50                   	push   %eax
    3f55:	8b 45 e0             	mov    -0x20(%ebp),%eax
    3f58:	50                   	push   %eax
    3f59:	8b 45 e4             	mov    -0x1c(%ebp),%eax
    3f5c:	57                   	push   %edi
    3f5d:	50                   	push   %eax
    3f5e:	e8 cd 31 00 00       	call   7130 <async_data_write_finalize@plt>
    3f63:	83 c4 10             	add    $0x10,%esp
    3f66:	85 c0                	test   %eax,%eax
    3f68:	0f 84 47 ff ff ff    	je     3eb5 <remote_nic_blocked_sources_set+0x15>
    3f6e:	8b 75 10             	mov    0x10(%ebp),%esi
    3f71:	53                   	push   %ebx
    3f72:	53                   	push   %ebx
    3f73:	6a f2                	push   $0xfffffff2
    3f75:	56                   	push   %esi
    3f76:	e8 85 2f 00 00       	call   6f00 <async_answer_0@plt>
    3f7b:	89 3c 24             	mov    %edi,(%esp)
    3f7e:	e8 2d 32 00 00       	call   71b0 <free@plt>
    3f83:	83 c4 10             	add    $0x10,%esp
    3f86:	e9 5c ff ff ff       	jmp    3ee7 <remote_nic_blocked_sources_set+0x47>
    3f8b:	90                   	nop
    3f8c:	8d 74 26 00          	lea    0x0(%esi,%eiz,1),%esi
    3f90:	8b 55 10             	mov    0x10(%ebp),%edx
    3f93:	50                   	push   %eax
    3f94:	50                   	push   %eax
    3f95:	6a f5                	push   $0xfffffff5
    3f97:	52                   	push   %edx
    3f98:	e8 63 2f 00 00       	call   6f00 <async_answer_0@plt>
    3f9d:	83 c4 10             	add    $0x10,%esp
    3fa0:	e9 36 ff ff ff       	jmp    3edb <remote_nic_blocked_sources_set+0x3b>
    3fa5:	8d 76 00             	lea    0x0(%esi),%esi
    3fa8:	50                   	push   %eax
    3fa9:	50                   	push   %eax
    3faa:	8b 45 e4             	mov    -0x1c(%ebp),%eax
    3fad:	6a f2                	push   $0xfffffff2
    3faf:	50                   	push   %eax
    3fb0:	e8 4b 2f 00 00       	call   6f00 <async_answer_0@plt>
    3fb5:	8b 4d 10             	mov    0x10(%ebp),%ecx
    3fb8:	58                   	pop    %eax
    3fb9:	5a                   	pop    %edx
    3fba:	6a f2                	push   $0xfffffff2
    3fbc:	51                   	push   %ecx
    3fbd:	e8 3e 2f 00 00       	call   6f00 <async_answer_0@plt>
    3fc2:	83 c4 10             	add    $0x10,%esp
    3fc5:	e9 1d ff ff ff       	jmp    3ee7 <remote_nic_blocked_sources_set+0x47>
    3fca:	50                   	push   %eax
    3fcb:	50                   	push   %eax
    3fcc:	8b 45 e4             	mov    -0x1c(%ebp),%eax
    3fcf:	6a fe                	push   $0xfffffffe
    3fd1:	50                   	push   %eax
    3fd2:	e8 29 2f 00 00       	call   6f00 <async_answer_0@plt>
    3fd7:	8b 4d 10             	mov    0x10(%ebp),%ecx
    3fda:	58                   	pop    %eax
    3fdb:	5a                   	pop    %edx
    3fdc:	6a fe                	push   $0xfffffffe
    3fde:	51                   	push   %ecx
    3fdf:	e8 1c 2f 00 00       	call   6f00 <async_answer_0@plt>
    3fe4:	83 c4 10             	add    $0x10,%esp
    3fe7:	e9 fb fe ff ff       	jmp    3ee7 <remote_nic_blocked_sources_set+0x47>
    3fec:	8d 74 26 00          	lea    0x0(%esi,%eiz,1),%esi

00003ff0 <remote_nic_blocked_sources_get>:
    3ff0:	55                   	push   %ebp
    3ff1:	89 e5                	mov    %esp,%ebp
    3ff3:	57                   	push   %edi
    3ff4:	56                   	push   %esi
    3ff5:	53                   	push   %ebx
    3ff6:	83 ec 1c             	sub    $0x1c,%esp
    3ff9:	8b 45 0c             	mov    0xc(%ebp),%eax
    3ffc:	8b 50 64             	mov    0x64(%eax),%edx
    3fff:	85 d2                	test   %edx,%edx
    4001:	0f 84 19 01 00 00    	je     4120 <remote_nic_blocked_sources_get+0x130>
    4007:	8b 45 14             	mov    0x14(%ebp),%eax
    400a:	8b 70 08             	mov    0x8(%eax),%esi
    400d:	85 f6                	test   %esi,%esi
    400f:	75 4f                	jne    4060 <remote_nic_blocked_sources_get+0x70>
    4011:	50                   	push   %eax
    4012:	6a 00                	push   $0x0
    4014:	6a 00                	push   $0x0
    4016:	6a 00                	push   $0x0
    4018:	e8 53 30 00 00       	call   7070 <memset@plt>
    401d:	8d 45 dc             	lea    -0x24(%ebp),%eax
    4020:	50                   	push   %eax
    4021:	8b 55 08             	mov    0x8(%ebp),%edx
    4024:	8b 45 0c             	mov    0xc(%ebp),%eax
    4027:	6a 00                	push   $0x0
    4029:	c7 45 dc 00 00 00 00 	movl   $0x0,-0x24(%ebp)
    4030:	6a 00                	push   $0x0
    4032:	52                   	push   %edx
    4033:	31 db                	xor    %ebx,%ebx
    4035:	ff 50 64             	call   *0x64(%eax)
    4038:	8b 55 dc             	mov    -0x24(%ebp),%edx
    403b:	83 c4 20             	add    $0x20,%esp
    403e:	57                   	push   %edi
    403f:	52                   	push   %edx
    4040:	50                   	push   %eax
    4041:	8b 45 10             	mov    0x10(%ebp),%eax
    4044:	50                   	push   %eax
    4045:	e8 a6 30 00 00       	call   70f0 <async_answer_1@plt>
    404a:	89 1c 24             	mov    %ebx,(%esp)
    404d:	e8 5e 31 00 00       	call   71b0 <free@plt>
    4052:	83 c4 10             	add    $0x10,%esp
    4055:	8d 65 f4             	lea    -0xc(%ebp),%esp
    4058:	5b                   	pop    %ebx
    4059:	5e                   	pop    %esi
    405a:	5f                   	pop    %edi
    405b:	5d                   	pop    %ebp
    405c:	c3                   	ret    
    405d:	8d 76 00             	lea    0x0(%esi),%esi
    4060:	83 ec 0c             	sub    $0xc,%esp
    4063:	8d 3c 76             	lea    (%esi,%esi,2),%edi
    4066:	01 ff                	add    %edi,%edi
    4068:	57                   	push   %edi
    4069:	e8 72 2e 00 00       	call   6ee0 <malloc@plt>
    406e:	83 c4 10             	add    $0x10,%esp
    4071:	89 c3                	mov    %eax,%ebx
    4073:	85 c0                	test   %eax,%eax
    4075:	0f 84 dd 00 00 00    	je     4158 <remote_nic_blocked_sources_get+0x168>
    407b:	50                   	push   %eax
    407c:	57                   	push   %edi
    407d:	6a 00                	push   $0x0
    407f:	53                   	push   %ebx
    4080:	e8 eb 2f 00 00       	call   7070 <memset@plt>
    4085:	8d 45 dc             	lea    -0x24(%ebp),%eax
    4088:	50                   	push   %eax
    4089:	8b 45 08             	mov    0x8(%ebp),%eax
    408c:	53                   	push   %ebx
    408d:	56                   	push   %esi
    408e:	50                   	push   %eax
    408f:	8b 45 0c             	mov    0xc(%ebp),%eax
    4092:	c7 45 dc 00 00 00 00 	movl   $0x0,-0x24(%ebp)
    4099:	ff 50 64             	call   *0x64(%eax)
    409c:	83 c4 20             	add    $0x20,%esp
    409f:	8b 55 dc             	mov    -0x24(%ebp),%edx
    40a2:	85 c0                	test   %eax,%eax
    40a4:	75 98                	jne    403e <remote_nic_blocked_sources_get+0x4e>
    40a6:	85 d2                	test   %edx,%edx
    40a8:	74 94                	je     403e <remote_nic_blocked_sources_get+0x4e>
    40aa:	8d 45 e4             	lea    -0x1c(%ebp),%eax
    40ad:	56                   	push   %esi
    40ae:	56                   	push   %esi
    40af:	50                   	push   %eax
    40b0:	8d 45 e0             	lea    -0x20(%ebp),%eax
    40b3:	50                   	push   %eax
    40b4:	e8 c7 2f 00 00       	call   7080 <async_data_read_receive@plt>
    40b9:	83 c4 10             	add    $0x10,%esp
    40bc:	84 c0                	test   %al,%al
    40be:	74 78                	je     4138 <remote_nic_blocked_sources_get+0x148>
    40c0:	8b 45 dc             	mov    -0x24(%ebp),%eax
    40c3:	8d 14 40             	lea    (%eax,%eax,2),%edx
    40c6:	8b 45 e4             	mov    -0x1c(%ebp),%eax
    40c9:	01 d2                	add    %edx,%edx
    40cb:	39 c2                	cmp    %eax,%edx
    40cd:	73 05                	jae    40d4 <remote_nic_blocked_sources_get+0xe4>
    40cf:	89 55 e4             	mov    %edx,-0x1c(%ebp)
    40d2:	89 d0                	mov    %edx,%eax
    40d4:	39 f8                	cmp    %edi,%eax
    40d6:	76 05                	jbe    40dd <remote_nic_blocked_sources_get+0xed>
    40d8:	89 7d e4             	mov    %edi,-0x1c(%ebp)
    40db:	89 f8                	mov    %edi,%eax
    40dd:	8b 75 e0             	mov    -0x20(%ebp),%esi
    40e0:	51                   	push   %ecx
    40e1:	50                   	push   %eax
    40e2:	53                   	push   %ebx
    40e3:	56                   	push   %esi
    40e4:	e8 b7 2d 00 00       	call   6ea0 <async_data_read_finalize@plt>
    40e9:	5f                   	pop    %edi
    40ea:	58                   	pop    %eax
    40eb:	8b 45 e0             	mov    -0x20(%ebp),%eax
    40ee:	6a f2                	push   $0xfffffff2
    40f0:	50                   	push   %eax
    40f1:	e8 0a 2e 00 00       	call   6f00 <async_answer_0@plt>
    40f6:	89 1c 24             	mov    %ebx,(%esp)
    40f9:	e8 b2 30 00 00       	call   71b0 <free@plt>
    40fe:	83 c4 0c             	add    $0xc,%esp
    4101:	8b 45 dc             	mov    -0x24(%ebp),%eax
    4104:	50                   	push   %eax
    4105:	8b 45 10             	mov    0x10(%ebp),%eax
    4108:	6a 00                	push   $0x0
    410a:	50                   	push   %eax
    410b:	e8 e0 2f 00 00       	call   70f0 <async_answer_1@plt>
    4110:	83 c4 10             	add    $0x10,%esp
    4113:	8d 65 f4             	lea    -0xc(%ebp),%esp
    4116:	5b                   	pop    %ebx
    4117:	5e                   	pop    %esi
    4118:	5f                   	pop    %edi
    4119:	5d                   	pop    %ebp
    411a:	c3                   	ret    
    411b:	90                   	nop
    411c:	8d 74 26 00          	lea    0x0(%esi,%eiz,1),%esi
    4120:	50                   	push   %eax
    4121:	50                   	push   %eax
    4122:	8b 45 10             	mov    0x10(%ebp),%eax
    4125:	6a f5                	push   $0xfffffff5
    4127:	50                   	push   %eax
    4128:	e8 d3 2d 00 00       	call   6f00 <async_answer_0@plt>
    412d:	83 c4 10             	add    $0x10,%esp
    4130:	e9 20 ff ff ff       	jmp    4055 <remote_nic_blocked_sources_get+0x65>
    4135:	8d 76 00             	lea    0x0(%esi),%esi
    4138:	8b 55 e0             	mov    -0x20(%ebp),%edx
    413b:	50                   	push   %eax
    413c:	50                   	push   %eax
    413d:	6a f2                	push   $0xfffffff2
    413f:	52                   	push   %edx
    4140:	e8 bb 2d 00 00       	call   6f00 <async_answer_0@plt>
    4145:	83 c4 0c             	add    $0xc,%esp
    4148:	8b 4d dc             	mov    -0x24(%ebp),%ecx
    414b:	51                   	push   %ecx
    414c:	6a 00                	push   $0x0
    414e:	e9 ee fe ff ff       	jmp    4041 <remote_nic_blocked_sources_get+0x51>
    4153:	90                   	nop
    4154:	8d 74 26 00          	lea    0x0(%esi,%eiz,1),%esi
    4158:	50                   	push   %eax
    4159:	50                   	push   %eax
    415a:	8b 45 10             	mov    0x10(%ebp),%eax
    415d:	6a fe                	push   $0xfffffffe
    415f:	50                   	push   %eax
    4160:	e8 9b 2d 00 00       	call   6f00 <async_answer_0@plt>
    4165:	83 c4 10             	add    $0x10,%esp
    4168:	e9 e8 fe ff ff       	jmp    4055 <remote_nic_blocked_sources_get+0x65>
    416d:	8d 76 00             	lea    0x0(%esi),%esi

00004170 <remote_nic_multicast_set_mode>:
    4170:	55                   	push   %ebp
    4171:	89 e5                	mov    %esp,%ebp
    4173:	57                   	push   %edi
    4174:	56                   	push   %esi
    4175:	53                   	push   %ebx
    4176:	83 ec 2c             	sub    $0x2c,%esp
    4179:	31 f6                	xor    %esi,%esi
    417b:	8b 45 14             	mov    0x14(%ebp),%eax
    417e:	8b 58 0c             	mov    0xc(%eax),%ebx
    4181:	8b 78 08             	mov    0x8(%eax),%edi
    4184:	85 db                	test   %ebx,%ebx
    4186:	75 40                	jne    41c8 <remote_nic_multicast_set_mode+0x58>
    4188:	8b 45 0c             	mov    0xc(%ebp),%eax
    418b:	8b 40 50             	mov    0x50(%eax),%eax
    418e:	85 c0                	test   %eax,%eax
    4190:	0f 84 da 00 00 00    	je     4270 <remote_nic_multicast_set_mode+0x100>
    4196:	8b 4d 08             	mov    0x8(%ebp),%ecx
    4199:	53                   	push   %ebx
    419a:	56                   	push   %esi
    419b:	57                   	push   %edi
    419c:	51                   	push   %ecx
    419d:	ff d0                	call   *%eax
    419f:	5b                   	pop    %ebx
    41a0:	5f                   	pop    %edi
    41a1:	50                   	push   %eax
    41a2:	8b 45 10             	mov    0x10(%ebp),%eax
    41a5:	50                   	push   %eax
    41a6:	e8 55 2d 00 00       	call   6f00 <async_answer_0@plt>
    41ab:	83 c4 10             	add    $0x10,%esp
    41ae:	83 ec 0c             	sub    $0xc,%esp
    41b1:	56                   	push   %esi
    41b2:	e8 f9 2f 00 00       	call   71b0 <free@plt>
    41b7:	83 c4 10             	add    $0x10,%esp
    41ba:	8d 65 f4             	lea    -0xc(%ebp),%esp
    41bd:	5b                   	pop    %ebx
    41be:	5e                   	pop    %esi
    41bf:	5f                   	pop    %edi
    41c0:	5d                   	pop    %ebp
    41c1:	c3                   	ret    
    41c2:	8d b6 00 00 00 00    	lea    0x0(%esi),%esi
    41c8:	50                   	push   %eax
    41c9:	50                   	push   %eax
    41ca:	8d 45 e4             	lea    -0x1c(%ebp),%eax
    41cd:	50                   	push   %eax
    41ce:	8d 45 e0             	lea    -0x20(%ebp),%eax
    41d1:	50                   	push   %eax
    41d2:	e8 c9 2f 00 00       	call   71a0 <async_data_write_receive@plt>
    41d7:	83 c4 10             	add    $0x10,%esp
    41da:	84 c0                	test   %al,%al
    41dc:	0f 84 a6 00 00 00    	je     4288 <remote_nic_multicast_set_mode+0x118>
    41e2:	8d 04 5b             	lea    (%ebx,%ebx,2),%eax
    41e5:	01 c0                	add    %eax,%eax
    41e7:	3b 45 e4             	cmp    -0x1c(%ebp),%eax
    41ea:	74 2c                	je     4218 <remote_nic_multicast_set_mode+0xa8>
    41ec:	50                   	push   %eax
    41ed:	50                   	push   %eax
    41ee:	8b 45 e0             	mov    -0x20(%ebp),%eax
    41f1:	6a fd                	push   $0xfffffffd
    41f3:	50                   	push   %eax
    41f4:	e8 07 2d 00 00       	call   6f00 <async_answer_0@plt>
    41f9:	8b 4d 10             	mov    0x10(%ebp),%ecx
    41fc:	58                   	pop    %eax
    41fd:	5a                   	pop    %edx
    41fe:	6a fd                	push   $0xfffffffd
    4200:	51                   	push   %ecx
    4201:	e8 fa 2c 00 00       	call   6f00 <async_answer_0@plt>
    4206:	83 c4 10             	add    $0x10,%esp
    4209:	8d 65 f4             	lea    -0xc(%ebp),%esp
    420c:	5b                   	pop    %ebx
    420d:	5e                   	pop    %esi
    420e:	5f                   	pop    %edi
    420f:	5d                   	pop    %ebp
    4210:	c3                   	ret    
    4211:	8d b4 26 00 00 00 00 	lea    0x0(%esi,%eiz,1),%esi
    4218:	83 ec 0c             	sub    $0xc,%esp
    421b:	50                   	push   %eax
    421c:	e8 bf 2c 00 00       	call   6ee0 <malloc@plt>
    4221:	83 c4 10             	add    $0x10,%esp
    4224:	89 c2                	mov    %eax,%edx
    4226:	89 c6                	mov    %eax,%esi
    4228:	85 c0                	test   %eax,%eax
    422a:	74 7e                	je     42aa <remote_nic_multicast_set_mode+0x13a>
    422c:	50                   	push   %eax
    422d:	8b 45 e4             	mov    -0x1c(%ebp),%eax
    4230:	50                   	push   %eax
    4231:	8b 45 e0             	mov    -0x20(%ebp),%eax
    4234:	52                   	push   %edx
    4235:	89 55 d4             	mov    %edx,-0x2c(%ebp)
    4238:	50                   	push   %eax
    4239:	e8 f2 2e 00 00       	call   7130 <async_data_write_finalize@plt>
    423e:	83 c4 10             	add    $0x10,%esp
    4241:	85 c0                	test   %eax,%eax
    4243:	0f 84 3f ff ff ff    	je     4188 <remote_nic_multicast_set_mode+0x18>
    4249:	50                   	push   %eax
    424a:	50                   	push   %eax
    424b:	8b 45 10             	mov    0x10(%ebp),%eax
    424e:	6a f2                	push   $0xfffffff2
