
cmos-rtc:     file format elf32-i386


Disassembly of section .init:

000010f4 <__entry>:
    10f4:	66 8c d0             	mov    %ss,%ax
    10f7:	8e d8                	mov    %eax,%ds
    10f9:	8e c0                	mov    %eax,%es
    10fb:	8e e0                	mov    %eax,%fs
    10fd:	b8 01 00 00 00       	mov    $0x1,%eax
    1102:	0f a2                	cpuid  
    1104:	0f ba e2 0b          	bt     $0xb,%edx
    1108:	73 0c                	jae    1116 <__entry+0x22>
    110a:	8d 05 20 f6 00 00    	lea    0xf620,%eax
    1110:	c7 00 d0 d4 00 00    	movl   $0xd4d0,(%eax)
    1116:	6a 00                	push   $0x0
    1118:	6a 00                	push   $0x0
    111a:	89 e5                	mov    %esp,%ebp
    111c:	57                   	push   %edi
    111d:	e8 ce be 00 00       	call   cff0 <__main@plt>

Disassembly of section .text:

00001140 <rtc_fun_offline>:
    1140:	55                   	push   %ebp
    1141:	89 e5                	mov    %esp,%ebp
    1143:	53                   	push   %ebx
    1144:	83 ec 0c             	sub    $0xc,%esp
    1147:	8b 5d 08             	mov    0x8(%ebp),%ebx
    114a:	68 7f b0 00 00       	push   $0xb07f
    114f:	6a 04                	push   $0x4
    1151:	e8 1a 20 00 00       	call   3170 <ddf_msg>
    1156:	89 5d 08             	mov    %ebx,0x8(%ebp)
    1159:	83 c4 10             	add    $0x10,%esp
    115c:	8b 5d fc             	mov    -0x4(%ebp),%ebx
    115f:	c9                   	leave  
    1160:	e9 fb 1c 00 00       	jmp    2e60 <ddf_fun_offline>
    1165:	8d 74 26 00          	lea    0x0(%esi,%eiz,1),%esi
    1169:	8d bc 27 00 00 00 00 	lea    0x0(%edi,%eiz,1),%edi

00001170 <rtc_fun_online>:
    1170:	55                   	push   %ebp
    1171:	89 e5                	mov    %esp,%ebp
    1173:	56                   	push   %esi
    1174:	53                   	push   %ebx
    1175:	52                   	push   %edx
    1176:	8b 75 08             	mov    0x8(%ebp),%esi
    1179:	52                   	push   %edx
    117a:	68 91 b0 00 00       	push   $0xb091
    117f:	6a 04                	push   $0x4
    1181:	e8 ea 1f 00 00       	call   3170 <ddf_msg>
    1186:	89 34 24             	mov    %esi,(%esp)
    1189:	e8 a2 1c 00 00       	call   2e30 <ddf_fun_online>
    118e:	83 c4 10             	add    $0x10,%esp
    1191:	89 c3                	mov    %eax,%ebx
    1193:	85 c0                	test   %eax,%eax
    1195:	75 10                	jne    11a7 <rtc_fun_online+0x37>
    1197:	50                   	push   %eax
    1198:	50                   	push   %eax
    1199:	68 a2 b0 00 00       	push   $0xb0a2
    119e:	56                   	push   %esi
    119f:	e8 0c 1e 00 00       	call   2fb0 <ddf_fun_add_to_category>
    11a4:	83 c4 10             	add    $0x10,%esp
    11a7:	8d 65 f8             	lea    -0x8(%ebp),%esp
    11aa:	89 d8                	mov    %ebx,%eax
    11ac:	5b                   	pop    %ebx
    11ad:	5e                   	pop    %esi
    11ae:	5d                   	pop    %ebp
    11af:	c3                   	ret    

000011b0 <rtc_dev_remove>:
    11b0:	55                   	push   %ebp
    11b1:	89 e5                	mov    %esp,%ebp
    11b3:	56                   	push   %esi
    11b4:	53                   	push   %ebx
    11b5:	83 ec 1c             	sub    $0x1c,%esp
    11b8:	8b 4d 08             	mov    0x8(%ebp),%ecx
    11bb:	51                   	push   %ecx
    11bc:	e8 ef 16 00 00       	call   28b0 <ddf_dev_data_get>
    11c1:	89 c3                	mov    %eax,%ebx
    11c3:	8d 70 08             	lea    0x8(%eax),%esi
    11c6:	89 34 24             	mov    %esi,(%esp)
    11c9:	e8 62 c3 00 00       	call   d530 <fibril_mutex_lock@plt>
    11ce:	8b 43 24             	mov    0x24(%ebx),%eax
    11d1:	83 c4 10             	add    $0x10,%esp
    11d4:	85 c0                	test   %eax,%eax
    11d6:	0f 8f 9c 00 00 00    	jg     1278 <rtc_dev_remove+0xc8>
    11dc:	83 ec 0c             	sub    $0xc,%esp
    11df:	c6 43 20 01          	movb   $0x1,0x20(%ebx)
    11e3:	56                   	push   %esi
    11e4:	e8 97 c0 00 00       	call   d280 <fibril_mutex_unlock@plt>
    11e9:	58                   	pop    %eax
    11ea:	8b 73 04             	mov    0x4(%ebx),%esi
    11ed:	5a                   	pop    %edx
    11ee:	68 7f b0 00 00       	push   $0xb07f
    11f3:	6a 04                	push   $0x4
    11f5:	e8 76 1f 00 00       	call   3170 <ddf_msg>
    11fa:	89 34 24             	mov    %esi,(%esp)
    11fd:	e8 5e 1c 00 00       	call   2e60 <ddf_fun_offline>
    1202:	83 c4 10             	add    $0x10,%esp
    1205:	85 c0                	test   %eax,%eax
    1207:	75 4f                	jne    1258 <rtc_dev_remove+0xa8>
    1209:	83 ec 0c             	sub    $0xc,%esp
    120c:	8b 4b 04             	mov    0x4(%ebx),%ecx
    120f:	51                   	push   %ecx
    1210:	e8 7b 1b 00 00       	call   2d90 <ddf_fun_unbind>
    1215:	83 c4 10             	add    $0x10,%esp
    1218:	89 45 f4             	mov    %eax,-0xc(%ebp)
    121b:	85 c0                	test   %eax,%eax
    121d:	75 19                	jne    1238 <rtc_dev_remove+0x88>
    121f:	83 ec 0c             	sub    $0xc,%esp
    1222:	8b 43 04             	mov    0x4(%ebx),%eax
    1225:	50                   	push   %eax
    1226:	e8 05 19 00 00       	call   2b30 <ddf_fun_destroy>
    122b:	8b 45 f4             	mov    -0xc(%ebp),%eax
    122e:	83 c4 10             	add    $0x10,%esp
    1231:	8d 65 f8             	lea    -0x8(%ebp),%esp
    1234:	5b                   	pop    %ebx
    1235:	5e                   	pop    %esi
    1236:	5d                   	pop    %ebp
    1237:	c3                   	ret    
    1238:	52                   	push   %edx
    1239:	52                   	push   %edx
    123a:	68 c3 b0 00 00       	push   $0xb0c3
    123f:	6a 01                	push   $0x1
    1241:	e8 2a 1f 00 00       	call   3170 <ddf_msg>
    1246:	8b 45 f4             	mov    -0xc(%ebp),%eax
    1249:	83 c4 10             	add    $0x10,%esp
    124c:	8d 65 f8             	lea    -0x8(%ebp),%esp
    124f:	5b                   	pop    %ebx
    1250:	5e                   	pop    %esi
    1251:	5d                   	pop    %ebp
    1252:	c3                   	ret    
    1253:	90                   	nop
    1254:	8d 74 26 00          	lea    0x0(%esi,%eiz,1),%esi
    1258:	53                   	push   %ebx
    1259:	53                   	push   %ebx
    125a:	68 a8 b0 00 00       	push   $0xb0a8
    125f:	6a 01                	push   $0x1
    1261:	89 45 f4             	mov    %eax,-0xc(%ebp)
    1264:	e8 07 1f 00 00       	call   3170 <ddf_msg>
    1269:	8b 45 f4             	mov    -0xc(%ebp),%eax
    126c:	83 c4 10             	add    $0x10,%esp
    126f:	8d 65 f8             	lea    -0x8(%ebp),%esp
    1272:	5b                   	pop    %ebx
    1273:	5e                   	pop    %esi
    1274:	5d                   	pop    %ebp
    1275:	c3                   	ret    
    1276:	66 90                	xchg   %ax,%ax
    1278:	83 ec 0c             	sub    $0xc,%esp
    127b:	56                   	push   %esi
    127c:	e8 ff bf 00 00       	call   d280 <fibril_mutex_unlock@plt>
    1281:	83 c4 10             	add    $0x10,%esp
    1284:	8d 65 f8             	lea    -0x8(%ebp),%esp
    1287:	b8 f1 ff ff ff       	mov    $0xfffffff1,%eax
    128c:	5b                   	pop    %ebx
    128d:	5e                   	pop    %esi
    128e:	5d                   	pop    %ebp
    128f:	c3                   	ret    

00001290 <rtc_dev_add>:
    1290:	55                   	push   %ebp
    1291:	89 e5                	mov    %esp,%ebp
    1293:	57                   	push   %edi
    1294:	56                   	push   %esi
    1295:	53                   	push   %ebx
    1296:	83 ec 38             	sub    $0x38,%esp
    1299:	8b 75 08             	mov    0x8(%ebp),%esi
    129c:	56                   	push   %esi
    129d:	e8 1e 16 00 00       	call   28c0 <ddf_dev_get_handle>
    12a2:	89 34 24             	mov    %esi,(%esp)
    12a5:	89 c3                	mov    %eax,%ebx
    12a7:	e8 24 16 00 00       	call   28d0 <ddf_dev_get_name>
    12ac:	53                   	push   %ebx
    12ad:	50                   	push   %eax
    12ae:	68 dd b0 00 00       	push   $0xb0dd
    12b3:	6a 04                	push   $0x4
    12b5:	e8 b6 1e 00 00       	call   3170 <ddf_msg>
    12ba:	83 c4 18             	add    $0x18,%esp
    12bd:	6a 30                	push   $0x30
    12bf:	56                   	push   %esi
    12c0:	e8 ab 15 00 00       	call   2870 <ddf_dev_data_alloc>
    12c5:	83 c4 10             	add    $0x10,%esp
    12c8:	85 c0                	test   %eax,%eax
    12ca:	0f 84 80 02 00 00    	je     1550 <rtc_dev_add+0x2c0>
    12d0:	83 ec 0c             	sub    $0xc,%esp
    12d3:	89 c3                	mov    %eax,%ebx
    12d5:	89 30                	mov    %esi,(%eax)
    12d7:	8d 40 08             	lea    0x8(%eax),%eax
    12da:	50                   	push   %eax
    12db:	e8 d0 bf 00 00       	call   d2b0 <fibril_mutex_initialize@plt>
    12e0:	8b 03                	mov    (%ebx),%eax
    12e2:	5f                   	pop    %edi
    12e3:	50                   	push   %eax
    12e4:	e8 e7 15 00 00       	call   28d0 <ddf_dev_get_name>
    12e9:	83 c4 0c             	add    $0xc,%esp
    12ec:	8d 7d e0             	lea    -0x20(%ebp),%edi
    12ef:	50                   	push   %eax
    12f0:	68 fa b0 00 00       	push   $0xb0fa
    12f5:	6a 04                	push   $0x4
    12f7:	e8 74 1e 00 00       	call   3170 <ddf_msg>
    12fc:	83 c4 0c             	add    $0xc,%esp
    12ff:	c7 43 28 00 00 00 00 	movl   $0x0,0x28(%ebx)
    1306:	c7 43 2c 00 00 00 00 	movl   $0x0,0x2c(%ebx)
    130d:	c7 43 24 00 00 00 00 	movl   $0x0,0x24(%ebx)
    1314:	6a 08                	push   $0x8
    1316:	6a 00                	push   $0x0
    1318:	57                   	push   %edi
    1319:	e8 42 c0 00 00       	call   d360 <memset@plt>
    131e:	58                   	pop    %eax
    131f:	8b 03                	mov    (%ebx),%eax
    1321:	50                   	push   %eax
    1322:	e8 b9 15 00 00       	call   28e0 <ddf_dev_parent_sess_create>
    1327:	83 c4 10             	add    $0x10,%esp
    132a:	85 c0                	test   %eax,%eax
    132c:	0f 84 96 01 00 00    	je     14c8 <rtc_dev_add+0x238>
    1332:	52                   	push   %edx
    1333:	52                   	push   %edx
    1334:	57                   	push   %edi
    1335:	50                   	push   %eax
    1336:	e8 05 bf 00 00       	call   d240 <hw_res_get_resource_list@plt>
    133b:	83 c4 10             	add    $0x10,%esp
    133e:	89 c7                	mov    %eax,%edi
    1340:	85 c0                	test   %eax,%eax
    1342:	0f 85 00 01 00 00    	jne    1448 <rtc_dev_add+0x1b8>
    1348:	8b 4d e0             	mov    -0x20(%ebp),%ecx
    134b:	85 c9                	test   %ecx,%ecx
    134d:	0f 84 9d 01 00 00    	je     14f0 <rtc_dev_add+0x260>
    1353:	8b 45 e4             	mov    -0x1c(%ebp),%eax
    1356:	83 78 0c 01          	cmpl   $0x1,0xc(%eax)
    135a:	0f 86 28 01 00 00    	jbe    1488 <rtc_dev_add+0x1f8>
    1360:	83 ec 0c             	sub    $0xc,%esp
    1363:	8b 78 04             	mov    0x4(%eax),%edi
    1366:	89 7b 18             	mov    %edi,0x18(%ebx)
    1369:	8b 03                	mov    (%ebx),%eax
    136b:	50                   	push   %eax
    136c:	e8 5f 15 00 00       	call   28d0 <ddf_dev_get_name>
    1371:	57                   	push   %edi
    1372:	50                   	push   %eax
    1373:	68 30 b2 00 00       	push   $0xb230
    1378:	6a 03                	push   $0x3
    137a:	e8 f1 1d 00 00       	call   3170 <ddf_msg>
    137f:	8b 45 e4             	mov    -0x1c(%ebp),%eax
    1382:	83 c4 20             	add    $0x20,%esp
    1385:	85 c0                	test   %eax,%eax
    1387:	74 0c                	je     1395 <rtc_dev_add+0x105>
    1389:	83 ec 0c             	sub    $0xc,%esp
    138c:	50                   	push   %eax
    138d:	e8 7e c1 00 00       	call   d510 <free@plt>
    1392:	83 c4 10             	add    $0x10,%esp
    1395:	51                   	push   %ecx
    1396:	8d 43 1c             	lea    0x1c(%ebx),%eax
    1399:	8b 7b 18             	mov    0x18(%ebx),%edi
    139c:	50                   	push   %eax
    139d:	6a 02                	push   $0x2
    139f:	57                   	push   %edi
    13a0:	e8 3b bc 00 00       	call   cfe0 <pio_enable@plt>
    13a5:	83 c4 10             	add    $0x10,%esp
    13a8:	85 c0                	test   %eax,%eax
    13aa:	75 6c                	jne    1418 <rtc_dev_add+0x188>
    13ac:	52                   	push   %edx
    13ad:	68 41 b1 00 00       	push   $0xb141
    13b2:	6a 02                	push   $0x2
    13b4:	56                   	push   %esi
    13b5:	e8 e6 15 00 00       	call   29a0 <ddf_fun_create>
    13ba:	83 c4 10             	add    $0x10,%esp
    13bd:	89 45 d4             	mov    %eax,-0x2c(%ebp)
    13c0:	85 c0                	test   %eax,%eax
    13c2:	0f 84 98 01 00 00    	je     1560 <rtc_dev_add+0x2d0>
    13c8:	89 c7                	mov    %eax,%edi
    13ca:	50                   	push   %eax
    13cb:	50                   	push   %eax
    13cc:	68 40 f6 00 00       	push   $0xf640
    13d1:	57                   	push   %edi
    13d2:	e8 79 1b 00 00       	call   2f50 <ddf_fun_set_ops>
    13d7:	89 3c 24             	mov    %edi,(%esp)
    13da:	89 7d d4             	mov    %edi,-0x2c(%ebp)
    13dd:	e8 7e 18 00 00       	call   2c60 <ddf_fun_bind>
    13e2:	83 c4 10             	add    $0x10,%esp
    13e5:	89 c7                	mov    %eax,%edi
    13e7:	85 c0                	test   %eax,%eax
    13e9:	0f 84 29 01 00 00    	je     1518 <rtc_dev_add+0x288>
    13ef:	51                   	push   %ecx
    13f0:	51                   	push   %ecx
    13f1:	68 29 b1 00 00       	push   $0xb129
    13f6:	6a 01                	push   $0x1
    13f8:	e8 73 1d 00 00       	call   3170 <ddf_msg>
    13fd:	8b 75 d4             	mov    -0x2c(%ebp),%esi
    1400:	5b                   	pop    %ebx
    1401:	56                   	push   %esi
    1402:	e8 29 17 00 00       	call   2b30 <ddf_fun_destroy>
    1407:	83 c4 10             	add    $0x10,%esp
    140a:	8d 65 f4             	lea    -0xc(%ebp),%esp
    140d:	89 f8                	mov    %edi,%eax
    140f:	5b                   	pop    %ebx
    1410:	5e                   	pop    %esi
    1411:	5f                   	pop    %edi
    1412:	5d                   	pop    %ebp
    1413:	c3                   	ret    
    1414:	8d 74 26 00          	lea    0x0(%esi,%eiz,1),%esi
    1418:	83 ec 0c             	sub    $0xc,%esp
    141b:	8b 03                	mov    (%ebx),%eax
    141d:	bf f4 ff ff ff       	mov    $0xfffffff4,%edi
    1422:	50                   	push   %eax
    1423:	e8 a8 14 00 00       	call   28d0 <ddf_dev_get_name>
    1428:	50                   	push   %eax
    1429:	8b 43 18             	mov    0x18(%ebx),%eax
    142c:	50                   	push   %eax
    142d:	68 5c b2 00 00       	push   $0xb25c
    1432:	6a 01                	push   $0x1
    1434:	e8 37 1d 00 00       	call   3170 <ddf_msg>
    1439:	83 c4 20             	add    $0x20,%esp
    143c:	8d 65 f4             	lea    -0xc(%ebp),%esp
    143f:	89 f8                	mov    %edi,%eax
    1441:	5b                   	pop    %ebx
    1442:	5e                   	pop    %esi
    1443:	5f                   	pop    %edi
    1444:	5d                   	pop    %ebp
    1445:	c3                   	ret    
    1446:	66 90                	xchg   %ax,%ax
    1448:	83 ec 0c             	sub    $0xc,%esp
    144b:	8b 13                	mov    (%ebx),%edx
    144d:	52                   	push   %edx
    144e:	e8 7d 14 00 00       	call   28d0 <ddf_dev_get_name>
    1453:	83 c4 0c             	add    $0xc,%esp
    1456:	50                   	push   %eax
    1457:	68 cc b1 00 00       	push   $0xb1cc
    145c:	6a 01                	push   $0x1
    145e:	e8 0d 1d 00 00       	call   3170 <ddf_msg>
    1463:	83 c4 10             	add    $0x10,%esp
    1466:	8b 45 e4             	mov    -0x1c(%ebp),%eax
    1469:	85 c0                	test   %eax,%eax
    146b:	74 cf                	je     143c <rtc_dev_add+0x1ac>
    146d:	83 ec 0c             	sub    $0xc,%esp
    1470:	50                   	push   %eax
    1471:	e8 9a c0 00 00       	call   d510 <free@plt>
    1476:	83 c4 10             	add    $0x10,%esp
    1479:	8d 65 f4             	lea    -0xc(%ebp),%esp
    147c:	89 f8                	mov    %edi,%eax
    147e:	5b                   	pop    %ebx
    147f:	5e                   	pop    %esi
    1480:	5f                   	pop    %edi
    1481:	5d                   	pop    %ebp
    1482:	c3                   	ret    
    1483:	90                   	nop
    1484:	8d 74 26 00          	lea    0x0(%esi,%eiz,1),%esi
    1488:	31 ff                	xor    %edi,%edi
    148a:	83 ec 0c             	sub    $0xc,%esp
    148d:	8b 03                	mov    (%ebx),%eax
    148f:	47                   	inc    %edi
    1490:	50                   	push   %eax
    1491:	e8 3a 14 00 00       	call   28d0 <ddf_dev_get_name>
    1496:	83 c4 0c             	add    $0xc,%esp
    1499:	50                   	push   %eax
    149a:	68 fc b1 00 00       	push   $0xb1fc
    149f:	6a 01                	push   $0x1
    14a1:	e8 ca 1c 00 00       	call   3170 <ddf_msg>
    14a6:	83 c4 10             	add    $0x10,%esp
    14a9:	3b 7d e0             	cmp    -0x20(%ebp),%edi
    14ac:	0f 83 c7 00 00 00    	jae    1579 <rtc_dev_add+0x2e9>
    14b2:	8d 04 7f             	lea    (%edi,%edi,2),%eax
    14b5:	8b 55 e4             	mov    -0x1c(%ebp),%edx
    14b8:	8d 04 c2             	lea    (%edx,%eax,8),%eax
    14bb:	83 78 0c 01          	cmpl   $0x1,0xc(%eax)
    14bf:	0f 87 9b fe ff ff    	ja     1360 <rtc_dev_add+0xd0>
    14c5:	eb c3                	jmp    148a <rtc_dev_add+0x1fa>
    14c7:	90                   	nop
    14c8:	83 ec 0c             	sub    $0xc,%esp
    14cb:	8b 0b                	mov    (%ebx),%ecx
    14cd:	83 cf ff             	or     $0xffffffff,%edi
    14d0:	51                   	push   %ecx
    14d1:	e8 fa 13 00 00       	call   28d0 <ddf_dev_get_name>
    14d6:	83 c4 0c             	add    $0xc,%esp
    14d9:	50                   	push   %eax
    14da:	68 94 b1 00 00       	push   $0xb194
    14df:	6a 01                	push   $0x1
    14e1:	e8 8a 1c 00 00       	call   3170 <ddf_msg>
    14e6:	83 c4 10             	add    $0x10,%esp
    14e9:	e9 78 ff ff ff       	jmp    1466 <rtc_dev_add+0x1d6>
    14ee:	66 90                	xchg   %ax,%ax
    14f0:	83 ec 0c             	sub    $0xc,%esp
    14f3:	8b 03                	mov    (%ebx),%eax
    14f5:	83 cf ff             	or     $0xffffffff,%edi
    14f8:	50                   	push   %eax
    14f9:	e8 d2 13 00 00       	call   28d0 <ddf_dev_get_name>
    14fe:	83 c4 0c             	add    $0xc,%esp
    1501:	50                   	push   %eax
    1502:	68 a8 b2 00 00       	push   $0xb2a8
    1507:	6a 01                	push   $0x1
    1509:	e8 62 1c 00 00       	call   3170 <ddf_msg>
    150e:	83 c4 10             	add    $0x10,%esp
    1511:	e9 50 ff ff ff       	jmp    1466 <rtc_dev_add+0x1d6>
    1516:	66 90                	xchg   %ax,%ax
    1518:	8b 45 d4             	mov    -0x2c(%ebp),%eax
    151b:	89 43 04             	mov    %eax,0x4(%ebx)
    151e:	52                   	push   %edx
    151f:	52                   	push   %edx
    1520:	68 a2 b0 00 00       	push   $0xb0a2
    1525:	50                   	push   %eax
    1526:	e8 85 1a 00 00       	call   2fb0 <ddf_fun_add_to_category>
    152b:	89 34 24             	mov    %esi,(%esp)
    152e:	e8 9d 13 00 00       	call   28d0 <ddf_dev_get_name>
    1533:	83 c4 0c             	add    $0xc,%esp
    1536:	50                   	push   %eax
    1537:	68 84 b2 00 00       	push   $0xb284
    153c:	6a 03                	push   $0x3
    153e:	e8 2d 1c 00 00       	call   3170 <ddf_msg>
    1543:	83 c4 10             	add    $0x10,%esp
    1546:	e9 f1 fe ff ff       	jmp    143c <rtc_dev_add+0x1ac>
    154b:	90                   	nop
    154c:	8d 74 26 00          	lea    0x0(%esi,%eiz,1),%esi
    1550:	bf fe ff ff ff       	mov    $0xfffffffe,%edi
    1555:	e9 e2 fe ff ff       	jmp    143c <rtc_dev_add+0x1ac>
    155a:	8d b6 00 00 00 00    	lea    0x0(%esi),%esi
    1560:	50                   	push   %eax
    1561:	50                   	push   %eax
    1562:	68 10 b1 00 00       	push   $0xb110
    1567:	6a 01                	push   $0x1
    1569:	83 cf ff             	or     $0xffffffff,%edi
    156c:	e8 ff 1b 00 00       	call   3170 <ddf_msg>
    1571:	83 c4 10             	add    $0x10,%esp
    1574:	e9 c3 fe ff ff       	jmp    143c <rtc_dev_add+0x1ac>
    1579:	bf fd ff ff ff       	mov    $0xfffffffd,%edi
    157e:	e9 e3 fe ff ff       	jmp    1466 <rtc_dev_add+0x1d6>
    1583:	8d b6 00 00 00 00    	lea    0x0(%esi),%esi
    1589:	8d bc 27 00 00 00 00 	lea    0x0(%edi,%eiz,1),%edi

00001590 <rtc_open>:
    1590:	55                   	push   %ebp
    1591:	89 e5                	mov    %esp,%ebp
    1593:	56                   	push   %esi
    1594:	53                   	push   %ebx
    1595:	83 ec 0c             	sub    $0xc,%esp
    1598:	8b 55 08             	mov    0x8(%ebp),%edx
    159b:	52                   	push   %edx
    159c:	e8 df 13 00 00       	call   2980 <ddf_fun_get_dev>
    15a1:	89 04 24             	mov    %eax,(%esp)
    15a4:	e8 07 13 00 00       	call   28b0 <ddf_dev_data_get>
    15a9:	89 c3                	mov    %eax,%ebx
    15ab:	8d 70 08             	lea    0x8(%eax),%esi
    15ae:	89 34 24             	mov    %esi,(%esp)
    15b1:	e8 7a bf 00 00       	call   d530 <fibril_mutex_lock@plt>
    15b6:	83 c4 10             	add    $0x10,%esp
    15b9:	80 7b 20 00          	cmpb   $0x0,0x20(%ebx)
    15bd:	75 21                	jne    15e0 <rtc_open+0x50>
    15bf:	8b 43 24             	mov    0x24(%ebx),%eax
    15c2:	40                   	inc    %eax
    15c3:	89 43 24             	mov    %eax,0x24(%ebx)
    15c6:	31 db                	xor    %ebx,%ebx
    15c8:	83 ec 0c             	sub    $0xc,%esp
    15cb:	56                   	push   %esi
    15cc:	e8 af bc 00 00       	call   d280 <fibril_mutex_unlock@plt>
    15d1:	8d 65 f8             	lea    -0x8(%ebp),%esp
    15d4:	89 d8                	mov    %ebx,%eax
    15d6:	5b                   	pop    %ebx
    15d7:	5e                   	pop    %esi
    15d8:	5d                   	pop    %ebp
    15d9:	c3                   	ret    
    15da:	8d b6 00 00 00 00    	lea    0x0(%esi),%esi
    15e0:	bb f4 fe ff ff       	mov    $0xfffffef4,%ebx
    15e5:	eb e1                	jmp    15c8 <rtc_open+0x38>
    15e7:	89 f6                	mov    %esi,%esi
    15e9:	8d bc 27 00 00 00 00 	lea    0x0(%edi,%eiz,1),%edi

000015f0 <rtc_time_get>:
    15f0:	55                   	push   %ebp
    15f1:	89 e5                	mov    %esp,%ebp
    15f3:	57                   	push   %edi
    15f4:	56                   	push   %esi
    15f5:	53                   	push   %ebx
    15f6:	83 ec 38             	sub    $0x38,%esp
    15f9:	8b 4d 08             	mov    0x8(%ebp),%ecx
    15fc:	8b 75 0c             	mov    0xc(%ebp),%esi
    15ff:	51                   	push   %ecx
    1600:	e8 7b 13 00 00       	call   2980 <ddf_fun_get_dev>
    1605:	89 04 24             	mov    %eax,(%esp)
    1608:	e8 a3 12 00 00       	call   28b0 <ddf_dev_data_get>
    160d:	89 c3                	mov    %eax,%ebx
    160f:	83 c0 08             	add    $0x8,%eax
    1612:	89 04 24             	mov    %eax,(%esp)
    1615:	89 45 d4             	mov    %eax,-0x2c(%ebp)
    1618:	e8 13 bf 00 00       	call   d530 <fibril_mutex_lock@plt>
    161d:	8b 7b 28             	mov    0x28(%ebx),%edi
    1620:	83 c4 10             	add    $0x10,%esp
    1623:	85 ff                	test   %edi,%edi
    1625:	0f 85 f8 02 00 00    	jne    1923 <rtc_time_get+0x333>
    162b:	50                   	push   %eax
    162c:	50                   	push   %eax
    162d:	8b 43 1c             	mov    0x1c(%ebx),%eax
    1630:	6a 0d                	push   $0xd
    1632:	50                   	push   %eax
    1633:	e8 f8 bb 00 00       	call   d230 <pio_write_8@plt>
    1638:	8b 43 1c             	mov    0x1c(%ebx),%eax
    163b:	40                   	inc    %eax
    163c:	89 04 24             	mov    %eax,(%esp)
    163f:	e8 7c bb 00 00       	call   d1c0 <pio_read_8@plt>
    1644:	83 c4 10             	add    $0x10,%esp
    1647:	84 c0                	test   %al,%al
    1649:	0f 89 b6 02 00 00    	jns    1905 <rtc_time_get+0x315>
    164f:	c7 06 00 00 00 00    	movl   $0x0,(%esi)
    1655:	8d 76 00             	lea    0x0(%esi),%esi
    1658:	57                   	push   %edi
    1659:	57                   	push   %edi
    165a:	8b 43 1c             	mov    0x1c(%ebx),%eax
    165d:	6a 0a                	push   $0xa
    165f:	50                   	push   %eax
    1660:	e8 cb bb 00 00       	call   d230 <pio_write_8@plt>
    1665:	8b 43 1c             	mov    0x1c(%ebx),%eax
    1668:	40                   	inc    %eax
    1669:	89 04 24             	mov    %eax,(%esp)
    166c:	e8 4f bb 00 00       	call   d1c0 <pio_read_8@plt>
    1671:	83 c4 10             	add    $0x10,%esp
    1674:	84 c0                	test   %al,%al
    1676:	78 e0                	js     1658 <rtc_time_get+0x68>
    1678:	57                   	push   %edi
    1679:	57                   	push   %edi
    167a:	8b 43 1c             	mov    0x1c(%ebx),%eax
    167d:	6a 00                	push   $0x0
    167f:	50                   	push   %eax
    1680:	e8 ab bb 00 00       	call   d230 <pio_write_8@plt>
    1685:	8b 43 1c             	mov    0x1c(%ebx),%eax
    1688:	40                   	inc    %eax
    1689:	89 04 24             	mov    %eax,(%esp)
    168c:	e8 2f bb 00 00       	call   d1c0 <pio_read_8@plt>
    1691:	88 c1                	mov    %al,%cl
    1693:	31 c0                	xor    %eax,%eax
    1695:	88 c8                	mov    %cl,%al
    1697:	8b 4b 1c             	mov    0x1c(%ebx),%ecx
    169a:	89 46 04             	mov    %eax,0x4(%esi)
    169d:	58                   	pop    %eax
    169e:	5a                   	pop    %edx
    169f:	6a 02                	push   $0x2
    16a1:	51                   	push   %ecx
    16a2:	e8 89 bb 00 00       	call   d230 <pio_write_8@plt>
    16a7:	8b 43 1c             	mov    0x1c(%ebx),%eax
    16aa:	40                   	inc    %eax
    16ab:	89 04 24             	mov    %eax,(%esp)
    16ae:	e8 0d bb 00 00       	call   d1c0 <pio_read_8@plt>
    16b3:	25 ff 00 00 00       	and    $0xff,%eax
    16b8:	89 46 08             	mov    %eax,0x8(%esi)
    16bb:	5f                   	pop    %edi
    16bc:	58                   	pop    %eax
    16bd:	8b 43 1c             	mov    0x1c(%ebx),%eax
    16c0:	6a 04                	push   $0x4
    16c2:	50                   	push   %eax
    16c3:	e8 68 bb 00 00       	call   d230 <pio_write_8@plt>
    16c8:	8b 43 1c             	mov    0x1c(%ebx),%eax
    16cb:	40                   	inc    %eax
    16cc:	89 04 24             	mov    %eax,(%esp)
    16cf:	e8 ec ba 00 00       	call   d1c0 <pio_read_8@plt>
    16d4:	88 c2                	mov    %al,%dl
    16d6:	31 c0                	xor    %eax,%eax
    16d8:	88 d0                	mov    %dl,%al
    16da:	8b 4b 1c             	mov    0x1c(%ebx),%ecx
    16dd:	89 46 0c             	mov    %eax,0xc(%esi)
    16e0:	58                   	pop    %eax
    16e1:	5a                   	pop    %edx
    16e2:	6a 07                	push   $0x7
    16e4:	51                   	push   %ecx
    16e5:	e8 46 bb 00 00       	call   d230 <pio_write_8@plt>
    16ea:	8b 43 1c             	mov    0x1c(%ebx),%eax
    16ed:	40                   	inc    %eax
    16ee:	89 04 24             	mov    %eax,(%esp)
    16f1:	e8 ca ba 00 00       	call   d1c0 <pio_read_8@plt>
    16f6:	88 c1                	mov    %al,%cl
    16f8:	31 c0                	xor    %eax,%eax
    16fa:	88 c8                	mov    %cl,%al
    16fc:	89 46 10             	mov    %eax,0x10(%esi)
    16ff:	5f                   	pop    %edi
    1700:	58                   	pop    %eax
    1701:	8b 43 1c             	mov    0x1c(%ebx),%eax
    1704:	6a 08                	push   $0x8
    1706:	50                   	push   %eax
    1707:	e8 24 bb 00 00       	call   d230 <pio_write_8@plt>
    170c:	8b 43 1c             	mov    0x1c(%ebx),%eax
    170f:	40                   	inc    %eax
    1710:	89 04 24             	mov    %eax,(%esp)
    1713:	e8 a8 ba 00 00       	call   d1c0 <pio_read_8@plt>
    1718:	25 ff 00 00 00       	and    $0xff,%eax
    171d:	8b 4b 1c             	mov    0x1c(%ebx),%ecx
    1720:	89 46 14             	mov    %eax,0x14(%esi)
    1723:	58                   	pop    %eax
    1724:	5a                   	pop    %edx
    1725:	6a 09                	push   $0x9
    1727:	51                   	push   %ecx
    1728:	e8 03 bb 00 00       	call   d230 <pio_write_8@plt>
    172d:	8b 43 1c             	mov    0x1c(%ebx),%eax
    1730:	40                   	inc    %eax
    1731:	89 04 24             	mov    %eax,(%esp)
    1734:	e8 87 ba 00 00       	call   d1c0 <pio_read_8@plt>
    1739:	88 c2                	mov    %al,%dl
    173b:	31 c0                	xor    %eax,%eax
    173d:	88 d0                	mov    %dl,%al
    173f:	8b 4b 1c             	mov    0x1c(%ebx),%ecx
    1742:	89 46 18             	mov    %eax,0x18(%esi)
    1745:	8b 7e 04             	mov    0x4(%esi),%edi
    1748:	58                   	pop    %eax
    1749:	5a                   	pop    %edx
    174a:	6a 00                	push   $0x0
    174c:	51                   	push   %ecx
    174d:	e8 de ba 00 00       	call   d230 <pio_write_8@plt>
    1752:	8b 43 1c             	mov    0x1c(%ebx),%eax
    1755:	40                   	inc    %eax
    1756:	89 04 24             	mov    %eax,(%esp)
    1759:	e8 62 ba 00 00       	call   d1c0 <pio_read_8@plt>
    175e:	88 c1                	mov    %al,%cl
    1760:	31 c0                	xor    %eax,%eax
    1762:	88 c8                	mov    %cl,%al
    1764:	83 c4 10             	add    $0x10,%esp
    1767:	39 c7                	cmp    %eax,%edi
    1769:	0f 85 e9 fe ff ff    	jne    1658 <rtc_time_get+0x68>
    176f:	8b 7e 08             	mov    0x8(%esi),%edi
    1772:	52                   	push   %edx
    1773:	52                   	push   %edx
    1774:	6a 02                	push   $0x2
    1776:	8b 4b 1c             	mov    0x1c(%ebx),%ecx
    1779:	51                   	push   %ecx
    177a:	e8 b1 ba 00 00       	call   d230 <pio_write_8@plt>
    177f:	8b 43 1c             	mov    0x1c(%ebx),%eax
    1782:	40                   	inc    %eax
    1783:	89 04 24             	mov    %eax,(%esp)
    1786:	e8 35 ba 00 00       	call   d1c0 <pio_read_8@plt>
    178b:	88 c2                	mov    %al,%dl
    178d:	31 c0                	xor    %eax,%eax
    178f:	88 d0                	mov    %dl,%al
    1791:	83 c4 10             	add    $0x10,%esp
    1794:	39 c7                	cmp    %eax,%edi
    1796:	0f 85 bc fe ff ff    	jne    1658 <rtc_time_get+0x68>
    179c:	8b 7e 10             	mov    0x10(%esi),%edi
    179f:	50                   	push   %eax
    17a0:	50                   	push   %eax
    17a1:	6a 07                	push   $0x7
    17a3:	8b 43 1c             	mov    0x1c(%ebx),%eax
    17a6:	50                   	push   %eax
    17a7:	e8 84 ba 00 00       	call   d230 <pio_write_8@plt>
    17ac:	8b 43 1c             	mov    0x1c(%ebx),%eax
    17af:	40                   	inc    %eax
    17b0:	89 04 24             	mov    %eax,(%esp)
    17b3:	e8 08 ba 00 00       	call   d1c0 <pio_read_8@plt>
    17b8:	88 c2                	mov    %al,%dl
    17ba:	31 c0                	xor    %eax,%eax
    17bc:	88 d0                	mov    %dl,%al
    17be:	83 c4 10             	add    $0x10,%esp
    17c1:	39 c7                	cmp    %eax,%edi
    17c3:	0f 85 8f fe ff ff    	jne    1658 <rtc_time_get+0x68>
    17c9:	8b 7e 14             	mov    0x14(%esi),%edi
    17cc:	50                   	push   %eax
    17cd:	50                   	push   %eax
    17ce:	6a 08                	push   $0x8
    17d0:	8b 43 1c             	mov    0x1c(%ebx),%eax
    17d3:	50                   	push   %eax
    17d4:	e8 57 ba 00 00       	call   d230 <pio_write_8@plt>
    17d9:	8b 43 1c             	mov    0x1c(%ebx),%eax
    17dc:	40                   	inc    %eax
    17dd:	89 04 24             	mov    %eax,(%esp)
    17e0:	e8 db b9 00 00       	call   d1c0 <pio_read_8@plt>
    17e5:	88 c2                	mov    %al,%dl
    17e7:	31 c0                	xor    %eax,%eax
    17e9:	88 d0                	mov    %dl,%al
    17eb:	83 c4 10             	add    $0x10,%esp
    17ee:	39 c7                	cmp    %eax,%edi
    17f0:	0f 85 62 fe ff ff    	jne    1658 <rtc_time_get+0x68>
    17f6:	8b 7e 18             	mov    0x18(%esi),%edi
    17f9:	50                   	push   %eax
    17fa:	50                   	push   %eax
    17fb:	6a 09                	push   $0x9
    17fd:	8b 43 1c             	mov    0x1c(%ebx),%eax
    1800:	50                   	push   %eax
    1801:	e8 2a ba 00 00       	call   d230 <pio_write_8@plt>
    1806:	8b 43 1c             	mov    0x1c(%ebx),%eax
    1809:	40                   	inc    %eax
    180a:	89 04 24             	mov    %eax,(%esp)
    180d:	e8 ae b9 00 00       	call   d1c0 <pio_read_8@plt>
    1812:	88 c2                	mov    %al,%dl
    1814:	31 c0                	xor    %eax,%eax
    1816:	88 d0                	mov    %dl,%al
    1818:	83 c4 10             	add    $0x10,%esp
    181b:	39 c7                	cmp    %eax,%edi
    181d:	0f 85 35 fe ff ff    	jne    1658 <rtc_time_get+0x68>
    1823:	51                   	push   %ecx
    1824:	51                   	push   %ecx
    1825:	8b 7b 1c             	mov    0x1c(%ebx),%edi
    1828:	6a 0b                	push   $0xb
    182a:	57                   	push   %edi
    182b:	e8 00 ba 00 00       	call   d230 <pio_write_8@plt>
    1830:	8b 43 1c             	mov    0x1c(%ebx),%eax
    1833:	31 ff                	xor    %edi,%edi
    1835:	40                   	inc    %eax
    1836:	89 04 24             	mov    %eax,(%esp)
    1839:	e8 82 b9 00 00       	call   d1c0 <pio_read_8@plt>
    183e:	83 c4 10             	add    $0x10,%esp
    1841:	83 e0 02             	and    $0x2,%eax
    1844:	88 c1                	mov    %al,%cl
    1846:	88 45 d0             	mov    %al,-0x30(%ebp)
    1849:	75 13                	jne    185e <rtc_time_get+0x26e>
    184b:	8b 46 0c             	mov    0xc(%esi),%eax
    184e:	89 cf                	mov    %ecx,%edi
    1850:	a8 80                	test   $0x80,%al
    1852:	74 0a                	je     185e <rtc_time_get+0x26e>
    1854:	24 7f                	and    $0x7f,%al
    1856:	bf 01 00 00 00       	mov    $0x1,%edi
    185b:	89 46 0c             	mov    %eax,0xc(%esi)
    185e:	50                   	push   %eax
    185f:	50                   	push   %eax
    1860:	8b 53 1c             	mov    0x1c(%ebx),%edx
    1863:	6a 0b                	push   $0xb
    1865:	52                   	push   %edx
    1866:	e8 c5 b9 00 00       	call   d230 <pio_write_8@plt>
    186b:	8b 43 1c             	mov    0x1c(%ebx),%eax
    186e:	40                   	inc    %eax
    186f:	89 04 24             	mov    %eax,(%esp)
    1872:	e8 49 b9 00 00       	call   d1c0 <pio_read_8@plt>
    1877:	83 c4 10             	add    $0x10,%esp
    187a:	a8 04                	test   $0x4,%al
    187c:	0f 84 d3 00 00 00    	je     1955 <rtc_time_get+0x365>
    1882:	8b 46 14             	mov    0x14(%esi),%eax
    1885:	8b 56 18             	mov    0x18(%esi),%edx
    1888:	80 7d d0 00          	cmpb   $0x0,-0x30(%ebp)
    188c:	75 18                	jne    18a6 <rtc_time_get+0x2b6>
    188e:	89 f9                	mov    %edi,%ecx
    1890:	84 c9                	test   %cl,%cl
    1892:	0f 84 6e 01 00 00    	je     1a06 <rtc_time_get+0x416>
    1898:	8b 4e 0c             	mov    0xc(%esi),%ecx
    189b:	83 f9 0b             	cmp    $0xb,%ecx
    189e:	7f 06                	jg     18a6 <rtc_time_get+0x2b6>
    18a0:	83 c1 0c             	add    $0xc,%ecx
    18a3:	89 4e 0c             	mov    %ecx,0xc(%esi)
    18a6:	48                   	dec    %eax
    18a7:	83 fa 63             	cmp    $0x63,%edx
    18aa:	89 46 14             	mov    %eax,0x14(%esi)
    18ad:	7f 06                	jg     18b5 <rtc_time_get+0x2c5>
    18af:	83 c2 64             	add    $0x64,%edx
    18b2:	89 56 18             	mov    %edx,0x18(%esi)
    18b5:	83 ec 0c             	sub    $0xc,%esp
    18b8:	bf f2 ff ff ff       	mov    $0xfffffff2,%edi
    18bd:	56                   	push   %esi
    18be:	e8 1d ba 00 00       	call   d2e0 <mktime@plt>
    18c3:	83 c4 10             	add    $0x10,%esp
    18c6:	89 45 d0             	mov    %eax,-0x30(%ebp)
    18c9:	85 c0                	test   %eax,%eax
    18cb:	78 27                	js     18f4 <rtc_time_get+0x304>
    18cd:	83 ec 0c             	sub    $0xc,%esp
    18d0:	8d 7d e0             	lea    -0x20(%ebp),%edi
    18d3:	83 c3 28             	add    $0x28,%ebx
    18d6:	57                   	push   %edi
    18d7:	e8 c4 ba 00 00       	call   d3a0 <getuptime@plt>
    18dc:	8b 45 d0             	mov    -0x30(%ebp),%eax
    18df:	89 03                	mov    %eax,(%ebx)
    18e1:	8b 06                	mov    (%esi),%eax
    18e3:	89 43 04             	mov    %eax,0x4(%ebx)
    18e6:	5a                   	pop    %edx
    18e7:	59                   	pop    %ecx
    18e8:	57                   	push   %edi
    18e9:	53                   	push   %ebx
    18ea:	31 ff                	xor    %edi,%edi
    18ec:	e8 4f ba 00 00       	call   d340 <tv_sub@plt>
    18f1:	83 c4 10             	add    $0x10,%esp
    18f4:	83 ec 0c             	sub    $0xc,%esp
    18f7:	8b 45 d4             	mov    -0x2c(%ebp),%eax
    18fa:	50                   	push   %eax
    18fb:	e8 80 b9 00 00       	call   d280 <fibril_mutex_unlock@plt>
    1900:	83 c4 10             	add    $0x10,%esp
    1903:	eb 14                	jmp    1919 <rtc_time_get+0x329>
    1905:	83 ec 0c             	sub    $0xc,%esp
    1908:	8b 45 d4             	mov    -0x2c(%ebp),%eax
    190b:	bf f6 fe ff ff       	mov    $0xfffffef6,%edi
    1910:	50                   	push   %eax
    1911:	e8 6a b9 00 00       	call   d280 <fibril_mutex_unlock@plt>
    1916:	83 c4 10             	add    $0x10,%esp
    1919:	8d 65 f4             	lea    -0xc(%ebp),%esp
    191c:	89 f8                	mov    %edi,%eax
    191e:	5b                   	pop    %ebx
    191f:	5e                   	pop    %esi
    1920:	5f                   	pop    %edi
    1921:	5d                   	pop    %ebp
    1922:	c3                   	ret    
    1923:	83 ec 0c             	sub    $0xc,%esp
    1926:	8d 7d e0             	lea    -0x20(%ebp),%edi
    1929:	83 c3 28             	add    $0x28,%ebx
    192c:	57                   	push   %edi
    192d:	e8 6e ba 00 00       	call   d3a0 <getuptime@plt>
    1932:	58                   	pop    %eax
    1933:	5a                   	pop    %edx
    1934:	53                   	push   %ebx
    1935:	57                   	push   %edi
    1936:	e8 55 b8 00 00       	call   d190 <tv_add@plt>
    193b:	8b 5d d4             	mov    -0x2c(%ebp),%ebx
    193e:	59                   	pop    %ecx
    193f:	53                   	push   %ebx
    1940:	e8 3b b9 00 00       	call   d280 <fibril_mutex_unlock@plt>
    1945:	58                   	pop    %eax
    1946:	5a                   	pop    %edx
    1947:	56                   	push   %esi
    1948:	57                   	push   %edi
    1949:	e8 c2 b7 00 00       	call   d110 <time_tv2tm@plt>
    194e:	83 c4 10             	add    $0x10,%esp
    1951:	89 c7                	mov    %eax,%edi
    1953:	eb c4                	jmp    1919 <rtc_time_get+0x329>
    1955:	8b 4e 04             	mov    0x4(%esi),%ecx
    1958:	89 ca                	mov    %ecx,%edx
    195a:	89 c8                	mov    %ecx,%eax
    195c:	d1 ea                	shr    %edx
    195e:	83 e1 0f             	and    $0xf,%ecx
    1961:	c1 e8 03             	shr    $0x3,%eax
    1964:	83 e2 78             	and    $0x78,%edx
    1967:	83 e0 1e             	and    $0x1e,%eax
    196a:	01 d0                	add    %edx,%eax
    196c:	01 c8                	add    %ecx,%eax
    196e:	8b 4e 08             	mov    0x8(%esi),%ecx
    1971:	89 ca                	mov    %ecx,%edx
    1973:	89 46 04             	mov    %eax,0x4(%esi)
    1976:	d1 ea                	shr    %edx
    1978:	89 c8                	mov    %ecx,%eax
    197a:	c1 e8 03             	shr    $0x3,%eax
    197d:	83 e2 78             	and    $0x78,%edx
    1980:	83 e0 1e             	and    $0x1e,%eax
    1983:	83 e1 0f             	and    $0xf,%ecx
    1986:	01 d0                	add    %edx,%eax
    1988:	01 c8                	add    %ecx,%eax
    198a:	8b 4e 0c             	mov    0xc(%esi),%ecx
    198d:	89 ca                	mov    %ecx,%edx
    198f:	89 46 08             	mov    %eax,0x8(%esi)
    1992:	d1 ea                	shr    %edx
    1994:	89 c8                	mov    %ecx,%eax
    1996:	c1 e8 03             	shr    $0x3,%eax
    1999:	83 e2 78             	and    $0x78,%edx
    199c:	83 e0 1e             	and    $0x1e,%eax
    199f:	83 e1 0f             	and    $0xf,%ecx
    19a2:	01 d0                	add    %edx,%eax
    19a4:	01 c8                	add    %ecx,%eax
    19a6:	8b 4e 10             	mov    0x10(%esi),%ecx
    19a9:	89 ca                	mov    %ecx,%edx
    19ab:	89 46 0c             	mov    %eax,0xc(%esi)
    19ae:	d1 ea                	shr    %edx
    19b0:	89 c8                	mov    %ecx,%eax
    19b2:	c1 e8 03             	shr    $0x3,%eax
    19b5:	83 e2 78             	and    $0x78,%edx
    19b8:	83 e0 1e             	and    $0x1e,%eax
    19bb:	83 e1 0f             	and    $0xf,%ecx
    19be:	01 d0                	add    %edx,%eax
    19c0:	01 c8                	add    %ecx,%eax
    19c2:	8b 4e 14             	mov    0x14(%esi),%ecx
    19c5:	89 ca                	mov    %ecx,%edx
    19c7:	89 46 10             	mov    %eax,0x10(%esi)
    19ca:	d1 ea                	shr    %edx
    19cc:	89 c8                	mov    %ecx,%eax
    19ce:	c1 e8 03             	shr    $0x3,%eax
    19d1:	83 e2 78             	and    $0x78,%edx
    19d4:	83 e0 1e             	and    $0x1e,%eax
    19d7:	01 d0                	add    %edx,%eax
    19d9:	83 e1 0f             	and    $0xf,%ecx
    19dc:	01 c8                	add    %ecx,%eax
    19de:	8b 4e 18             	mov    0x18(%esi),%ecx
    19e1:	89 ca                	mov    %ecx,%edx
    19e3:	89 46 14             	mov    %eax,0x14(%esi)
    19e6:	d1 ea                	shr    %edx
    19e8:	83 e2 78             	and    $0x78,%edx
    19eb:	89 55 cc             	mov    %edx,-0x34(%ebp)
    19ee:	89 ca                	mov    %ecx,%edx
    19f0:	c1 ea 03             	shr    $0x3,%edx
    19f3:	83 e1 0f             	and    $0xf,%ecx
    19f6:	83 e2 1e             	and    $0x1e,%edx
    19f9:	03 55 cc             	add    -0x34(%ebp),%edx
    19fc:	01 ca                	add    %ecx,%edx
    19fe:	89 56 18             	mov    %edx,0x18(%esi)
    1a01:	e9 82 fe ff ff       	jmp    1888 <rtc_time_get+0x298>
    1a06:	83 7e 0c 0c          	cmpl   $0xc,0xc(%esi)
    1a0a:	0f 85 96 fe ff ff    	jne    18a6 <rtc_time_get+0x2b6>
    1a10:	c7 46 0c 00 00 00 00 	movl   $0x0,0xc(%esi)
    1a17:	e9 8a fe ff ff       	jmp    18a6 <rtc_time_get+0x2b6>
    1a1c:	8d 74 26 00          	lea    0x0(%esi,%eiz,1),%esi

00001a20 <rtc_close>:
    1a20:	55                   	push   %ebp
    1a21:	89 e5                	mov    %esp,%ebp
    1a23:	56                   	push   %esi
    1a24:	53                   	push   %ebx
    1a25:	83 ec 0c             	sub    $0xc,%esp
    1a28:	8b 55 08             	mov    0x8(%ebp),%edx
    1a2b:	52                   	push   %edx
    1a2c:	e8 4f 0f 00 00       	call   2980 <ddf_fun_get_dev>
    1a31:	89 04 24             	mov    %eax,(%esp)
    1a34:	e8 77 0e 00 00       	call   28b0 <ddf_dev_data_get>
    1a39:	89 c3                	mov    %eax,%ebx
    1a3b:	8d 70 08             	lea    0x8(%eax),%esi
    1a3e:	89 34 24             	mov    %esi,(%esp)
    1a41:	e8 ea ba 00 00       	call   d530 <fibril_mutex_lock@plt>
    1a46:	8b 43 24             	mov    0x24(%ebx),%eax
    1a49:	83 c4 10             	add    $0x10,%esp
    1a4c:	8d 50 ff             	lea    -0x1(%eax),%edx
    1a4f:	89 53 24             	mov    %edx,0x24(%ebx)
    1a52:	85 d2                	test   %edx,%edx
    1a54:	78 0e                	js     1a64 <rtc_close+0x44>
    1a56:	89 75 08             	mov    %esi,0x8(%ebp)
    1a59:	8d 65 f8             	lea    -0x8(%ebp),%esp
    1a5c:	5b                   	pop    %ebx
    1a5d:	5e                   	pop    %esi
    1a5e:	5d                   	pop    %ebp
    1a5f:	e9 1c b8 00 00       	jmp    d280 <fibril_mutex_unlock@plt>
    1a64:	50                   	push   %eax
    1a65:	68 ce 02 00 00       	push   $0x2ce
    1a6a:	68 43 b1 00 00       	push   $0xb143
    1a6f:	68 4e b1 00 00       	push   $0xb14e
    1a74:	e8 67 b7 00 00       	call   d1e0 <assert_abort@plt>
    1a79:	8d b4 26 00 00 00 00 	lea    0x0(%esi,%eiz,1),%esi

00001a80 <rtc_battery_status_get>:
    1a80:	55                   	push   %ebp
    1a81:	89 e5                	mov    %esp,%ebp
    1a83:	56                   	push   %esi
    1a84:	53                   	push   %ebx
    1a85:	83 ec 0c             	sub    $0xc,%esp
    1a88:	8b 45 08             	mov    0x8(%ebp),%eax
    1a8b:	50                   	push   %eax
    1a8c:	e8 ef 0e 00 00       	call   2980 <ddf_fun_get_dev>
    1a91:	89 04 24             	mov    %eax,(%esp)
    1a94:	e8 17 0e 00 00       	call   28b0 <ddf_dev_data_get>
    1a99:	89 c3                	mov    %eax,%ebx
    1a9b:	8d 70 08             	lea    0x8(%eax),%esi
    1a9e:	89 34 24             	mov    %esi,(%esp)
    1aa1:	e8 8a ba 00 00       	call   d530 <fibril_mutex_lock@plt>
    1aa6:	8b 43 1c             	mov    0x1c(%ebx),%eax
    1aa9:	5a                   	pop    %edx
    1aaa:	59                   	pop    %ecx
    1aab:	6a 0d                	push   $0xd
    1aad:	50                   	push   %eax
    1aae:	e8 7d b7 00 00       	call   d230 <pio_write_8@plt>
    1ab3:	8b 43 1c             	mov    0x1c(%ebx),%eax
    1ab6:	40                   	inc    %eax
    1ab7:	89 04 24             	mov    %eax,(%esp)
    1aba:	e8 01 b7 00 00       	call   d1c0 <pio_read_8@plt>
    1abf:	0f be d8             	movsbl %al,%ebx
    1ac2:	89 34 24             	mov    %esi,(%esp)
    1ac5:	83 f3 ff             	xor    $0xffffffff,%ebx
    1ac8:	c1 eb 1f             	shr    $0x1f,%ebx
    1acb:	e8 b0 b7 00 00       	call   d280 <fibril_mutex_unlock@plt>
    1ad0:	8b 45 0c             	mov    0xc(%ebp),%eax
    1ad3:	89 18                	mov    %ebx,(%eax)
    1ad5:	8d 65 f8             	lea    -0x8(%ebp),%esp
    1ad8:	31 c0                	xor    %eax,%eax
    1ada:	5b                   	pop    %ebx
    1adb:	5e                   	pop    %esi
    1adc:	5d                   	pop    %ebp
    1add:	c3                   	ret    
    1ade:	66 90                	xchg   %ax,%ax

00001ae0 <rtc_time_set>:
    1ae0:	55                   	push   %ebp
    1ae1:	89 e5                	mov    %esp,%ebp
    1ae3:	57                   	push   %edi
    1ae4:	56                   	push   %esi
    1ae5:	53                   	push   %ebx
    1ae6:	83 ec 38             	sub    $0x38,%esp
    1ae9:	8b 4d 08             	mov    0x8(%ebp),%ecx
    1aec:	8b 75 0c             	mov    0xc(%ebp),%esi
    1aef:	51                   	push   %ecx
    1af0:	e8 8b 0e 00 00       	call   2980 <ddf_fun_get_dev>
    1af5:	89 04 24             	mov    %eax,(%esp)
    1af8:	e8 b3 0d 00 00       	call   28b0 <ddf_dev_data_get>
    1afd:	89 34 24             	mov    %esi,(%esp)
    1b00:	89 c3                	mov    %eax,%ebx
    1b02:	e8 d9 b7 00 00       	call   d2e0 <mktime@plt>
    1b07:	83 c4 10             	add    $0x10,%esp
    1b0a:	85 c0                	test   %eax,%eax
    1b0c:	0f 88 ad 03 00 00    	js     1ebf <rtc_time_set+0x3df>
    1b12:	83 ec 0c             	sub    $0xc,%esp
    1b15:	89 45 e0             	mov    %eax,-0x20(%ebp)
    1b18:	8d 7d d8             	lea    -0x28(%ebp),%edi
    1b1b:	8b 06                	mov    (%esi),%eax
    1b1d:	89 45 e4             	mov    %eax,-0x1c(%ebp)
    1b20:	57                   	push   %edi
    1b21:	e8 7a b8 00 00       	call   d3a0 <getuptime@plt>
    1b26:	58                   	pop    %eax
    1b27:	8d 45 e0             	lea    -0x20(%ebp),%eax
    1b2a:	5a                   	pop    %edx
    1b2b:	50                   	push   %eax
    1b2c:	57                   	push   %edi
    1b2d:	e8 ae b9 00 00       	call   d4e0 <tv_gteq@plt>
    1b32:	83 c4 10             	add    $0x10,%esp
    1b35:	89 45 d0             	mov    %eax,-0x30(%ebp)
    1b38:	85 c0                	test   %eax,%eax
    1b3a:	0f 85 7f 03 00 00    	jne    1ebf <rtc_time_set+0x3df>
    1b40:	83 ec 0c             	sub    $0xc,%esp
    1b43:	8d 43 08             	lea    0x8(%ebx),%eax
    1b46:	89 45 cc             	mov    %eax,-0x34(%ebp)
    1b49:	50                   	push   %eax
    1b4a:	e8 e1 b9 00 00       	call   d530 <fibril_mutex_lock@plt>
    1b4f:	5f                   	pop    %edi
    1b50:	58                   	pop    %eax
    1b51:	8b 43 1c             	mov    0x1c(%ebx),%eax
    1b54:	6a 0d                	push   $0xd
    1b56:	50                   	push   %eax
    1b57:	e8 d4 b6 00 00       	call   d230 <pio_write_8@plt>
    1b5c:	8b 43 1c             	mov    0x1c(%ebx),%eax
    1b5f:	40                   	inc    %eax
    1b60:	89 04 24             	mov    %eax,(%esp)
    1b63:	e8 58 b6 00 00       	call   d1c0 <pio_read_8@plt>
    1b68:	83 c4 10             	add    $0x10,%esp
    1b6b:	84 c0                	test   %al,%al
    1b6d:	0f 89 65 03 00 00    	jns    1ed8 <rtc_time_set+0x3f8>
    1b73:	c7 43 28 00 00 00 00 	movl   $0x0,0x28(%ebx)
    1b7a:	c7 43 2c 00 00 00 00 	movl   $0x0,0x2c(%ebx)
    1b81:	50                   	push   %eax
    1b82:	50                   	push   %eax
    1b83:	8b 53 1c             	mov    0x1c(%ebx),%edx
    1b86:	6a 09                	push   $0x9
    1b88:	52                   	push   %edx
    1b89:	e8 a2 b6 00 00       	call   d230 <pio_write_8@plt>
    1b8e:	8b 43 1c             	mov    0x1c(%ebx),%eax
    1b91:	bf 6c 07 00 00       	mov    $0x76c,%edi
    1b96:	40                   	inc    %eax
    1b97:	89 04 24             	mov    %eax,(%esp)
    1b9a:	e8 21 b6 00 00       	call   d1c0 <pio_read_8@plt>
    1b9f:	88 c1                	mov    %al,%cl
    1ba1:	31 c0                	xor    %eax,%eax
    1ba3:	88 c8                	mov    %cl,%al
    1ba5:	83 c4 10             	add    $0x10,%esp
    1ba8:	83 f8 63             	cmp    $0x63,%eax
    1bab:	0f 8e ef 01 00 00    	jle    1da0 <rtc_time_set+0x2c0>
    1bb1:	8b 46 14             	mov    0x14(%esi),%eax
    1bb4:	40                   	inc    %eax
    1bb5:	89 46 14             	mov    %eax,0x14(%esi)
    1bb8:	50                   	push   %eax
    1bb9:	50                   	push   %eax
    1bba:	6a 0b                	push   $0xb
    1bbc:	8b 43 1c             	mov    0x1c(%ebx),%eax
    1bbf:	50                   	push   %eax
    1bc0:	e8 6b b6 00 00       	call   d230 <pio_write_8@plt>
    1bc5:	8b 43 1c             	mov    0x1c(%ebx),%eax
    1bc8:	40                   	inc    %eax
    1bc9:	89 04 24             	mov    %eax,(%esp)
    1bcc:	e8 ef b5 00 00       	call   d1c0 <pio_read_8@plt>
    1bd1:	83 c4 10             	add    $0x10,%esp
    1bd4:	a8 02                	test   $0x2,%al
    1bd6:	0f 84 8c 02 00 00    	je     1e68 <rtc_time_set+0x388>
    1bdc:	88 c1                	mov    %al,%cl
    1bde:	81 e1 ff 00 00 00    	and    $0xff,%ecx
    1be4:	81 ff d0 07 00 00    	cmp    $0x7d0,%edi
    1bea:	89 4d d4             	mov    %ecx,-0x2c(%ebp)
    1bed:	0f 84 af 02 00 00    	je     1ea2 <rtc_time_set+0x3c2>
    1bf3:	f6 45 d4 04          	testb  $0x4,-0x2c(%ebp)
    1bf7:	0f 84 bb 01 00 00    	je     1db8 <rtc_time_set+0x2d8>
    1bfd:	50                   	push   %eax
    1bfe:	50                   	push   %eax
    1bff:	8b 53 1c             	mov    0x1c(%ebx),%edx
    1c02:	6a 0b                	push   $0xb
    1c04:	52                   	push   %edx
    1c05:	e8 26 b6 00 00       	call   d230 <pio_write_8@plt>
    1c0a:	59                   	pop    %ecx
    1c0b:	8b 45 d4             	mov    -0x2c(%ebp),%eax
    1c0e:	8b 4b 1c             	mov    0x1c(%ebx),%ecx
    1c11:	0c 80                	or     $0x80,%al
    1c13:	5f                   	pop    %edi
    1c14:	50                   	push   %eax
    1c15:	8d 41 01             	lea    0x1(%ecx),%eax
    1c18:	50                   	push   %eax
    1c19:	e8 12 b6 00 00       	call   d230 <pio_write_8@plt>
    1c1e:	8b 7e 04             	mov    0x4(%esi),%edi
    1c21:	8b 4b 1c             	mov    0x1c(%ebx),%ecx
    1c24:	58                   	pop    %eax
    1c25:	5a                   	pop    %edx
    1c26:	6a 00                	push   $0x0
    1c28:	51                   	push   %ecx
    1c29:	e8 02 b6 00 00       	call   d230 <pio_write_8@plt>
    1c2e:	58                   	pop    %eax
    1c2f:	8b 4b 1c             	mov    0x1c(%ebx),%ecx
    1c32:	89 f8                	mov    %edi,%eax
    1c34:	25 ff 00 00 00       	and    $0xff,%eax
    1c39:	5a                   	pop    %edx
    1c3a:	50                   	push   %eax
    1c3b:	8d 41 01             	lea    0x1(%ecx),%eax
    1c3e:	50                   	push   %eax
    1c3f:	e8 ec b5 00 00       	call   d230 <pio_write_8@plt>
    1c44:	59                   	pop    %ecx
    1c45:	8b 7e 08             	mov    0x8(%esi),%edi
    1c48:	58                   	pop    %eax
    1c49:	8b 43 1c             	mov    0x1c(%ebx),%eax
    1c4c:	6a 02                	push   $0x2
    1c4e:	50                   	push   %eax
    1c4f:	e8 dc b5 00 00       	call   d230 <pio_write_8@plt>
    1c54:	58                   	pop    %eax
    1c55:	8b 4b 1c             	mov    0x1c(%ebx),%ecx
    1c58:	89 f8                	mov    %edi,%eax
    1c5a:	25 ff 00 00 00       	and    $0xff,%eax
    1c5f:	5a                   	pop    %edx
    1c60:	50                   	push   %eax
    1c61:	8d 41 01             	lea    0x1(%ecx),%eax
    1c64:	50                   	push   %eax
    1c65:	e8 c6 b5 00 00       	call   d230 <pio_write_8@plt>
    1c6a:	8b 7e 0c             	mov    0xc(%esi),%edi
    1c6d:	59                   	pop    %ecx
    1c6e:	58                   	pop    %eax
    1c6f:	8b 43 1c             	mov    0x1c(%ebx),%eax
    1c72:	6a 04                	push   $0x4
    1c74:	50                   	push   %eax
    1c75:	e8 b6 b5 00 00       	call   d230 <pio_write_8@plt>
    1c7a:	58                   	pop    %eax
    1c7b:	8b 4b 1c             	mov    0x1c(%ebx),%ecx
    1c7e:	89 f8                	mov    %edi,%eax
    1c80:	25 ff 00 00 00       	and    $0xff,%eax
    1c85:	5a                   	pop    %edx
    1c86:	50                   	push   %eax
    1c87:	8d 41 01             	lea    0x1(%ecx),%eax
    1c8a:	50                   	push   %eax
    1c8b:	e8 a0 b5 00 00       	call   d230 <pio_write_8@plt>
    1c90:	59                   	pop    %ecx
    1c91:	8b 7e 10             	mov    0x10(%esi),%edi
    1c94:	58                   	pop    %eax
    1c95:	8b 43 1c             	mov    0x1c(%ebx),%eax
    1c98:	6a 07                	push   $0x7
    1c9a:	50                   	push   %eax
    1c9b:	e8 90 b5 00 00       	call   d230 <pio_write_8@plt>
    1ca0:	58                   	pop    %eax
    1ca1:	8b 4b 1c             	mov    0x1c(%ebx),%ecx
    1ca4:	89 f8                	mov    %edi,%eax
    1ca6:	25 ff 00 00 00       	and    $0xff,%eax
    1cab:	5a                   	pop    %edx
    1cac:	50                   	push   %eax
    1cad:	8d 41 01             	lea    0x1(%ecx),%eax
    1cb0:	50                   	push   %eax
    1cb1:	e8 7a b5 00 00       	call   d230 <pio_write_8@plt>
    1cb6:	59                   	pop    %ecx
    1cb7:	8b 7e 14             	mov    0x14(%esi),%edi
    1cba:	58                   	pop    %eax
    1cbb:	8b 43 1c             	mov    0x1c(%ebx),%eax
    1cbe:	6a 08                	push   $0x8
    1cc0:	50                   	push   %eax
    1cc1:	e8 6a b5 00 00       	call   d230 <pio_write_8@plt>
    1cc6:	58                   	pop    %eax
    1cc7:	8b 4b 1c             	mov    0x1c(%ebx),%ecx
    1cca:	89 f8                	mov    %edi,%eax
    1ccc:	25 ff 00 00 00       	and    $0xff,%eax
    1cd1:	5a                   	pop    %edx
    1cd2:	50                   	push   %eax
    1cd3:	8d 41 01             	lea    0x1(%ecx),%eax
    1cd6:	50                   	push   %eax
    1cd7:	e8 54 b5 00 00       	call   d230 <pio_write_8@plt>
    1cdc:	8b 76 18             	mov    0x18(%esi),%esi
    1cdf:	8b 43 1c             	mov    0x1c(%ebx),%eax
    1ce2:	59                   	pop    %ecx
    1ce3:	5f                   	pop    %edi
    1ce4:	6a 09                	push   $0x9
    1ce6:	50                   	push   %eax
    1ce7:	e8 44 b5 00 00       	call   d230 <pio_write_8@plt>
    1cec:	58                   	pop    %eax
    1ced:	8b 4b 1c             	mov    0x1c(%ebx),%ecx
    1cf0:	89 f0                	mov    %esi,%eax
    1cf2:	25 ff 00 00 00       	and    $0xff,%eax
    1cf7:	5a                   	pop    %edx
    1cf8:	50                   	push   %eax
    1cf9:	8d 41 01             	lea    0x1(%ecx),%eax
    1cfc:	50                   	push   %eax
    1cfd:	e8 2e b5 00 00       	call   d230 <pio_write_8@plt>
    1d02:	8b 7b 1c             	mov    0x1c(%ebx),%edi
    1d05:	59                   	pop    %ecx
    1d06:	5e                   	pop    %esi
    1d07:	6a 0a                	push   $0xa
    1d09:	57                   	push   %edi
    1d0a:	e8 21 b5 00 00       	call   d230 <pio_write_8@plt>
    1d0f:	8b 4b 1c             	mov    0x1c(%ebx),%ecx
    1d12:	8d 41 01             	lea    0x1(%ecx),%eax
    1d15:	89 04 24             	mov    %eax,(%esp)
    1d18:	e8 a3 b4 00 00       	call   d1c0 <pio_read_8@plt>
    1d1d:	8b 4b 1c             	mov    0x1c(%ebx),%ecx
    1d20:	89 c7                	mov    %eax,%edi
    1d22:	58                   	pop    %eax
    1d23:	5a                   	pop    %edx
    1d24:	6a 0a                	push   $0xa
    1d26:	51                   	push   %ecx
    1d27:	e8 04 b5 00 00       	call   d230 <pio_write_8@plt>
    1d2c:	5e                   	pop    %esi
    1d2d:	58                   	pop    %eax
    1d2e:	89 f8                	mov    %edi,%eax
    1d30:	8b 73 1c             	mov    0x1c(%ebx),%esi
    1d33:	83 c8 70             	or     $0x70,%eax
    1d36:	25 ff 00 00 00       	and    $0xff,%eax
    1d3b:	50                   	push   %eax
    1d3c:	8d 46 01             	lea    0x1(%esi),%eax
    1d3f:	50                   	push   %eax
    1d40:	e8 eb b4 00 00       	call   d230 <pio_write_8@plt>
    1d45:	8b 4b 1c             	mov    0x1c(%ebx),%ecx
    1d48:	58                   	pop    %eax
    1d49:	5a                   	pop    %edx
    1d4a:	6a 0b                	push   $0xb
    1d4c:	51                   	push   %ecx
    1d4d:	e8 de b4 00 00       	call   d230 <pio_write_8@plt>
    1d52:	5e                   	pop    %esi
    1d53:	58                   	pop    %eax
    1d54:	8b 45 d4             	mov    -0x2c(%ebp),%eax
    1d57:	50                   	push   %eax
    1d58:	8b 43 1c             	mov    0x1c(%ebx),%eax
    1d5b:	40                   	inc    %eax
    1d5c:	50                   	push   %eax
    1d5d:	e8 ce b4 00 00       	call   d230 <pio_write_8@plt>
    1d62:	8b 4b 1c             	mov    0x1c(%ebx),%ecx
    1d65:	58                   	pop    %eax
    1d66:	5a                   	pop    %edx
    1d67:	6a 0a                	push   $0xa
    1d69:	51                   	push   %ecx
    1d6a:	e8 c1 b4 00 00       	call   d230 <pio_write_8@plt>
    1d6f:	5e                   	pop    %esi
    1d70:	89 fe                	mov    %edi,%esi
    1d72:	58                   	pop    %eax
    1d73:	8b 43 1c             	mov    0x1c(%ebx),%eax
    1d76:	81 e6 ff 00 00 00    	and    $0xff,%esi
    1d7c:	40                   	inc    %eax
    1d7d:	56                   	push   %esi
    1d7e:	50                   	push   %eax
    1d7f:	e8 ac b4 00 00       	call   d230 <pio_write_8@plt>
    1d84:	58                   	pop    %eax
    1d85:	8b 45 cc             	mov    -0x34(%ebp),%eax
    1d88:	50                   	push   %eax
    1d89:	e8 f2 b4 00 00       	call   d280 <fibril_mutex_unlock@plt>
    1d8e:	83 c4 10             	add    $0x10,%esp
    1d91:	8b 45 d0             	mov    -0x30(%ebp),%eax
    1d94:	8d 65 f4             	lea    -0xc(%ebp),%esp
    1d97:	5b                   	pop    %ebx
    1d98:	5e                   	pop    %esi
    1d99:	5f                   	pop    %edi
    1d9a:	5d                   	pop    %ebp
    1d9b:	c3                   	ret    
    1d9c:	8d 74 26 00          	lea    0x0(%esi,%eiz,1),%esi
    1da0:	83 7e 18 63          	cmpl   $0x63,0x18(%esi)
    1da4:	0f 8e 06 01 00 00    	jle    1eb0 <rtc_time_set+0x3d0>
    1daa:	bf d0 07 00 00       	mov    $0x7d0,%edi
    1daf:	e9 fd fd ff ff       	jmp    1bb1 <rtc_time_set+0xd1>
    1db4:	8d 74 26 00          	lea    0x0(%esi,%eiz,1),%esi
    1db8:	8b 7e 04             	mov    0x4(%esi),%edi
    1dbb:	b9 cd cc cc cc       	mov    $0xcccccccd,%ecx
    1dc0:	89 f8                	mov    %edi,%eax
    1dc2:	f7 e1                	mul    %ecx
    1dc4:	c1 ea 03             	shr    $0x3,%edx
    1dc7:	89 d0                	mov    %edx,%eax
    1dc9:	c1 e0 04             	shl    $0x4,%eax
    1dcc:	8d 14 92             	lea    (%edx,%edx,4),%edx
    1dcf:	01 d2                	add    %edx,%edx
    1dd1:	29 d7                	sub    %edx,%edi
    1dd3:	01 c7                	add    %eax,%edi
    1dd5:	89 7e 04             	mov    %edi,0x4(%esi)
    1dd8:	8b 7e 08             	mov    0x8(%esi),%edi
    1ddb:	89 f8                	mov    %edi,%eax
    1ddd:	f7 e1                	mul    %ecx
    1ddf:	c1 ea 03             	shr    $0x3,%edx
    1de2:	89 d0                	mov    %edx,%eax
    1de4:	c1 e0 04             	shl    $0x4,%eax
    1de7:	8d 14 92             	lea    (%edx,%edx,4),%edx
    1dea:	01 d2                	add    %edx,%edx
    1dec:	29 d7                	sub    %edx,%edi
    1dee:	01 c7                	add    %eax,%edi
    1df0:	89 7e 08             	mov    %edi,0x8(%esi)
    1df3:	8b 7e 0c             	mov    0xc(%esi),%edi
    1df6:	89 f8                	mov    %edi,%eax
    1df8:	f7 e1                	mul    %ecx
    1dfa:	c1 ea 03             	shr    $0x3,%edx
    1dfd:	89 d0                	mov    %edx,%eax
    1dff:	c1 e0 04             	shl    $0x4,%eax
    1e02:	8d 14 92             	lea    (%edx,%edx,4),%edx
    1e05:	01 d2                	add    %edx,%edx
    1e07:	29 d7                	sub    %edx,%edi
    1e09:	01 c7                	add    %eax,%edi
    1e0b:	89 7e 0c             	mov    %edi,0xc(%esi)
    1e0e:	8b 7e 10             	mov    0x10(%esi),%edi
    1e11:	89 f8                	mov    %edi,%eax
    1e13:	f7 e1                	mul    %ecx
    1e15:	c1 ea 03             	shr    $0x3,%edx
    1e18:	89 d0                	mov    %edx,%eax
    1e1a:	c1 e0 04             	shl    $0x4,%eax
    1e1d:	8d 14 92             	lea    (%edx,%edx,4),%edx
    1e20:	01 d2                	add    %edx,%edx
    1e22:	29 d7                	sub    %edx,%edi
    1e24:	01 c7                	add    %eax,%edi
    1e26:	89 7e 10             	mov    %edi,0x10(%esi)
    1e29:	8b 7e 14             	mov    0x14(%esi),%edi
    1e2c:	89 f8                	mov    %edi,%eax
    1e2e:	f7 e1                	mul    %ecx
    1e30:	c1 ea 03             	shr    $0x3,%edx
    1e33:	89 d0                	mov    %edx,%eax
    1e35:	c1 e0 04             	shl    $0x4,%eax
    1e38:	8d 14 92             	lea    (%edx,%edx,4),%edx
    1e3b:	01 d2                	add    %edx,%edx
    1e3d:	29 d7                	sub    %edx,%edi
    1e3f:	01 c7                	add    %eax,%edi
    1e41:	89 7e 14             	mov    %edi,0x14(%esi)
    1e44:	8b 7e 18             	mov    0x18(%esi),%edi
    1e47:	89 f8                	mov    %edi,%eax
    1e49:	f7 e1                	mul    %ecx
    1e4b:	c1 ea 03             	shr    $0x3,%edx
    1e4e:	89 d0                	mov    %edx,%eax
    1e50:	c1 e0 04             	shl    $0x4,%eax
    1e53:	8d 14 92             	lea    (%edx,%edx,4),%edx
    1e56:	01 d2                	add    %edx,%edx
    1e58:	29 d7                	sub    %edx,%edi
    1e5a:	01 c7                	add    %eax,%edi
    1e5c:	89 7e 18             	mov    %edi,0x18(%esi)
    1e5f:	e9 99 fd ff ff       	jmp    1bfd <rtc_time_set+0x11d>
    1e64:	8d 74 26 00          	lea    0x0(%esi,%eiz,1),%esi
    1e68:	83 c8 02             	or     $0x2,%eax
    1e6b:	88 c1                	mov    %al,%cl
    1e6d:	50                   	push   %eax
    1e6e:	50                   	push   %eax
    1e6f:	81 e1 ff 00 00 00    	and    $0xff,%ecx
    1e75:	8b 43 1c             	mov    0x1c(%ebx),%eax
    1e78:	6a 0b                	push   $0xb
    1e7a:	89 4d d4             	mov    %ecx,-0x2c(%ebp)
    1e7d:	50                   	push   %eax
    1e7e:	e8 ad b3 00 00       	call   d230 <pio_write_8@plt>
    1e83:	8b 45 d4             	mov    -0x2c(%ebp),%eax
    1e86:	5a                   	pop    %edx
    1e87:	59                   	pop    %ecx
    1e88:	50                   	push   %eax
    1e89:	8b 43 1c             	mov    0x1c(%ebx),%eax
    1e8c:	40                   	inc    %eax
    1e8d:	50                   	push   %eax
    1e8e:	e8 9d b3 00 00       	call   d230 <pio_write_8@plt>
    1e93:	83 c4 10             	add    $0x10,%esp
    1e96:	81 ff d0 07 00 00    	cmp    $0x7d0,%edi
    1e9c:	0f 85 51 fd ff ff    	jne    1bf3 <rtc_time_set+0x113>
    1ea2:	8b 46 18             	mov    0x18(%esi),%eax
    1ea5:	83 e8 64             	sub    $0x64,%eax
    1ea8:	89 46 18             	mov    %eax,0x18(%esi)
    1eab:	e9 43 fd ff ff       	jmp    1bf3 <rtc_time_set+0x113>
    1eb0:	83 ec 0c             	sub    $0xc,%esp
    1eb3:	8b 45 cc             	mov    -0x34(%ebp),%eax
    1eb6:	50                   	push   %eax
    1eb7:	e8 c4 b3 00 00       	call   d280 <fibril_mutex_unlock@plt>
    1ebc:	83 c4 10             	add    $0x10,%esp
    1ebf:	c7 45 d0 f2 ff ff ff 	movl   $0xfffffff2,-0x30(%ebp)
    1ec6:	8b 45 d0             	mov    -0x30(%ebp),%eax
    1ec9:	8d 65 f4             	lea    -0xc(%ebp),%esp
    1ecc:	5b                   	pop    %ebx
    1ecd:	5e                   	pop    %esi
    1ece:	5f                   	pop    %edi
    1ecf:	5d                   	pop    %ebp
    1ed0:	c3                   	ret    
    1ed1:	8d b4 26 00 00 00 00 	lea    0x0(%esi,%eiz,1),%esi
    1ed8:	83 ec 0c             	sub    $0xc,%esp
    1edb:	8b 4d cc             	mov    -0x34(%ebp),%ecx
    1ede:	51                   	push   %ecx
    1edf:	e8 9c b3 00 00       	call   d280 <fibril_mutex_unlock@plt>
    1ee4:	83 c4 10             	add    $0x10,%esp
    1ee7:	c7 45 d0 f6 fe ff ff 	movl   $0xfffffef6,-0x30(%ebp)
    1eee:	e9 9e fe ff ff       	jmp    1d91 <rtc_time_set+0x2b1>
    1ef3:	66 90                	xchg   %ax,%ax
    1ef5:	66 90                	xchg   %ax,%ax
    1ef7:	66 90                	xchg   %ax,%ax
    1ef9:	66 90                	xchg   %ax,%ax
    1efb:	66 90                	xchg   %ax,%ax
    1efd:	66 90                	xchg   %ax,%ax
    1eff:	90                   	nop

00001f00 <main>:
    1f00:	8d 4c 24 04          	lea    0x4(%esp),%ecx
    1f04:	83 e4 f0             	and    $0xfffffff0,%esp
    1f07:	ff 71 fc             	pushl  -0x4(%ecx)
    1f0a:	55                   	push   %ebp
    1f0b:	89 e5                	mov    %esp,%ebp
    1f0d:	51                   	push   %ecx
    1f0e:	83 ec 10             	sub    $0x10,%esp
    1f11:	68 6a b1 00 00       	push   $0xb16a
    1f16:	e8 35 b1 00 00       	call   d050 <printf@plt>
    1f1b:	c7 04 24 88 b1 00 00 	movl   $0xb188,(%esp)
    1f22:	e8 39 12 00 00       	call   3160 <ddf_log_init>
    1f27:	c7 04 24 58 f4 00 00 	movl   $0xf458,(%esp)
    1f2e:	c7 05 40 f6 00 00 90 	movl   $0x1590,0xf640
    1f35:	15 00 00 
    1f38:	c7 05 44 f6 00 00 20 	movl   $0x1a20,0xf644
    1f3f:	1a 00 00 
    1f42:	c7 05 74 f6 00 00 50 	movl   $0xf450,0xf674
    1f49:	f4 00 00 
    1f4c:	c7 05 7c f6 00 00 48 	movl   $0xf448,0xf67c
    1f53:	f4 00 00 
    1f56:	c7 05 84 f6 00 00 00 	movl   $0x0,0xf684
    1f5d:	00 00 00 
    1f60:	e8 9b 10 00 00       	call   3000 <ddf_driver_main>
    1f65:	8b 4d fc             	mov    -0x4(%ebp),%ecx
    1f68:	c9                   	leave  
    1f69:	8d 61 fc             	lea    -0x4(%ecx),%esp
    1f6c:	c3                   	ret    
    1f6d:	66 90                	xchg   %ax,%ax
    1f6f:	90                   	nop

00001f70 <fun_del_ref>:
    1f70:	55                   	push   %ebp
    1f71:	83 ca ff             	or     $0xffffffff,%edx
    1f74:	89 e5                	mov    %esp,%ebp
    1f76:	57                   	push   %edi
    1f77:	56                   	push   %esi
    1f78:	53                   	push   %ebx
    1f79:	83 ec 1c             	sub    $0x1c,%esp
    1f7c:	8b 70 0c             	mov    0xc(%eax),%esi
    1f7f:	f0 0f c1 50 08       	lock xadd %edx,0x8(%eax)
    1f84:	4a                   	dec    %edx
    1f85:	74 69                	je     1ff0 <fun_del_ref+0x80>
    1f87:	83 c8 ff             	or     $0xffffffff,%eax
    1f8a:	f0 0f c1 46 04       	lock xadd %eax,0x4(%esi)
    1f8f:	48                   	dec    %eax
    1f90:	74 0e                	je     1fa0 <fun_del_ref+0x30>
    1f92:	8d 65 f4             	lea    -0xc(%ebp),%esp
    1f95:	5b                   	pop    %ebx
    1f96:	5e                   	pop    %esi
    1f97:	5f                   	pop    %edi
    1f98:	5d                   	pop    %ebp
    1f99:	c3                   	ret    
    1f9a:	8d b6 00 00 00 00    	lea    0x0(%esi),%esi
    1fa0:	8b 46 08             	mov    0x8(%esi),%eax
    1fa3:	85 c0                	test   %eax,%eax
    1fa5:	74 0c                	je     1fb3 <fun_del_ref+0x43>
    1fa7:	83 ec 0c             	sub    $0xc,%esp
    1faa:	50                   	push   %eax
    1fab:	e8 b0 b0 00 00       	call   d060 <async_hangup@plt>
    1fb0:	83 c4 10             	add    $0x10,%esp
    1fb3:	8b 46 10             	mov    0x10(%esi),%eax
    1fb6:	85 c0                	test   %eax,%eax
    1fb8:	74 0c                	je     1fc6 <fun_del_ref+0x56>
    1fba:	83 ec 0c             	sub    $0xc,%esp
    1fbd:	50                   	push   %eax
    1fbe:	e8 4d b5 00 00       	call   d510 <free@plt>
    1fc3:	83 c4 10             	add    $0x10,%esp
    1fc6:	8b 46 0c             	mov    0xc(%esi),%eax
    1fc9:	85 c0                	test   %eax,%eax
    1fcb:	74 0c                	je     1fd9 <fun_del_ref+0x69>
    1fcd:	83 ec 0c             	sub    $0xc,%esp
    1fd0:	50                   	push   %eax
    1fd1:	e8 3a b5 00 00       	call   d510 <free@plt>
    1fd6:	83 c4 10             	add    $0x10,%esp
    1fd9:	83 ec 0c             	sub    $0xc,%esp
    1fdc:	56                   	push   %esi
    1fdd:	e8 2e b5 00 00       	call   d510 <free@plt>
    1fe2:	83 c4 10             	add    $0x10,%esp
    1fe5:	8d 65 f4             	lea    -0xc(%ebp),%esp
    1fe8:	5b                   	pop    %ebx
    1fe9:	5e                   	pop    %esi
    1fea:	5f                   	pop    %edi
    1feb:	5d                   	pop    %ebp
    1fec:	c3                   	ret    
    1fed:	8d 76 00             	lea    0x0(%esi),%esi
    1ff0:	8b 58 1c             	mov    0x1c(%eax),%ebx
    1ff3:	89 c7                	mov    %eax,%edi
    1ff5:	8d 40 18             	lea    0x18(%eax),%eax
    1ff8:	89 45 e4             	mov    %eax,-0x1c(%ebp)
    1ffb:	39 d8                	cmp    %ebx,%eax
    1ffd:	74 49                	je     2048 <fun_del_ref+0xd8>
    1fff:	90                   	nop
    2000:	8b 0b                	mov    (%ebx),%ecx
    2002:	85 c9                	test   %ecx,%ecx
    2004:	74 0e                	je     2014 <fun_del_ref+0xa4>
    2006:	8b 53 04             	mov    0x4(%ebx),%edx
    2009:	85 d2                	test   %edx,%edx
    200b:	74 07                	je     2014 <fun_del_ref+0xa4>
    200d:	89 0a                	mov    %ecx,(%edx)
    200f:	8b 0b                	mov    (%ebx),%ecx
    2011:	89 51 04             	mov    %edx,0x4(%ecx)
    2014:	8b 53 08             	mov    0x8(%ebx),%edx
    2017:	c7 03 00 00 00 00    	movl   $0x0,(%ebx)
    201d:	c7 43 04 00 00 00 00 	movl   $0x0,0x4(%ebx)
    2024:	85 d2                	test   %edx,%edx
    2026:	74 0c                	je     2034 <fun_del_ref+0xc4>
    2028:	83 ec 0c             	sub    $0xc,%esp
    202b:	52                   	push   %edx
    202c:	e8 df b4 00 00       	call   d510 <free@plt>
    2031:	83 c4 10             	add    $0x10,%esp
    2034:	83 ec 0c             	sub    $0xc,%esp
    2037:	53                   	push   %ebx
    2038:	e8 d3 b4 00 00       	call   d510 <free@plt>
    203d:	8b 5f 1c             	mov    0x1c(%edi),%ebx
    2040:	83 c4 10             	add    $0x10,%esp
    2043:	3b 5d e4             	cmp    -0x1c(%ebp),%ebx
    2046:	75 b8                	jne    2000 <fun_del_ref+0x90>
    2048:	8b 57 20             	mov    0x20(%edi),%edx
    204b:	85 d2                	test   %edx,%edx
    204d:	74 0c                	je     205b <fun_del_ref+0xeb>
    204f:	83 ec 0c             	sub    $0xc,%esp
    2052:	52                   	push   %edx
    2053:	e8 b8 b4 00 00       	call   d510 <free@plt>
    2058:	83 c4 10             	add    $0x10,%esp
    205b:	8b 57 14             	mov    0x14(%edi),%edx
    205e:	85 d2                	test   %edx,%edx
    2060:	74 0c                	je     206e <fun_del_ref+0xfe>
    2062:	83 ec 0c             	sub    $0xc,%esp
    2065:	52                   	push   %edx
    2066:	e8 a5 b4 00 00       	call   d510 <free@plt>
    206b:	83 c4 10             	add    $0x10,%esp
    206e:	83 ec 0c             	sub    $0xc,%esp
    2071:	57                   	push   %edi
    2072:	e8 99 b4 00 00       	call   d510 <free@plt>
    2077:	83 c4 10             	add    $0x10,%esp
    207a:	e9 08 ff ff ff       	jmp    1f87 <fun_del_ref+0x17>
    207f:	90                   	nop

00002080 <driver_connection_gen.constprop.7>:
    2080:	55                   	push   %ebp
    2081:	89 e5                	mov    %esp,%ebp
    2083:	57                   	push   %edi
    2084:	56                   	push   %esi
    2085:	53                   	push   %ebx
    2086:	83 ec 58             	sub    $0x58,%esp
    2089:	89 d3                	mov    %edx,%ebx
    208b:	8b 72 08             	mov    0x8(%edx),%esi
    208e:	89 45 b4             	mov    %eax,-0x4c(%ebp)
    2091:	68 74 f4 00 00       	push   $0xf474
    2096:	e8 95 b4 00 00       	call   d530 <fibril_mutex_lock@plt>
    209b:	c7 04 24 74 f4 00 00 	movl   $0xf474,(%esp)
    20a2:	e8 19 b0 00 00       	call   d0c0 <fibril_mutex_is_locked@plt>
    20a7:	83 c4 10             	add    $0x10,%esp
    20aa:	84 c0                	test   %al,%al
    20ac:	0f 84 71 02 00 00    	je     2323 <driver_connection_gen.constprop.7+0x2a3>
    20b2:	a1 88 f4 00 00       	mov    0xf488,%eax
    20b7:	3d 84 f4 00 00       	cmp    $0xf484,%eax
    20bc:	8d 78 d4             	lea    -0x2c(%eax),%edi
    20bf:	75 18                	jne    20d9 <driver_connection_gen.constprop.7+0x59>
    20c1:	e9 22 02 00 00       	jmp    22e8 <driver_connection_gen.constprop.7+0x268>
    20c6:	66 90                	xchg   %ax,%ax
    20c8:	8b 40 04             	mov    0x4(%eax),%eax
    20cb:	3d 84 f4 00 00       	cmp    $0xf484,%eax
    20d0:	8d 78 d4             	lea    -0x2c(%eax),%edi
    20d3:	0f 84 0f 02 00 00    	je     22e8 <driver_connection_gen.constprop.7+0x268>
    20d9:	3b 77 04             	cmp    0x4(%edi),%esi
    20dc:	75 ea                	jne    20c8 <driver_connection_gen.constprop.7+0x48>
    20de:	8b 47 0c             	mov    0xc(%edi),%eax
    20e1:	f0 ff 40 04          	lock incl 0x4(%eax)
    20e5:	f0 ff 47 08          	lock incl 0x8(%edi)
    20e9:	83 ec 0c             	sub    $0xc,%esp
    20ec:	68 74 f4 00 00       	push   $0xf474
    20f1:	e8 8a b1 00 00       	call   d280 <fibril_mutex_unlock@plt>
    20f6:	8b 47 28             	mov    0x28(%edi),%eax
    20f9:	83 c4 10             	add    $0x10,%esp
    20fc:	85 c0                	test   %eax,%eax
    20fe:	74 20                	je     2120 <driver_connection_gen.constprop.7+0xa0>
    2100:	8b 55 b4             	mov    -0x4c(%ebp),%edx
    2103:	56                   	push   %esi
    2104:	57                   	push   %edi
    2105:	53                   	push   %ebx
    2106:	52                   	push   %edx
    2107:	ff d0                	call   *%eax
    2109:	89 f8                	mov    %edi,%eax
    210b:	e8 60 fe ff ff       	call   1f70 <fun_del_ref>
    2110:	83 c4 10             	add    $0x10,%esp
    2113:	8d 65 f4             	lea    -0xc(%ebp),%esp
    2116:	5b                   	pop    %ebx
    2117:	5e                   	pop    %esi
    2118:	5f                   	pop    %edi
    2119:	5d                   	pop    %ebp
    211a:	c3                   	ret    
    211b:	90                   	nop
    211c:	8d 74 26 00          	lea    0x0(%esi,%eiz,1),%esi
    2120:	8b 47 24             	mov    0x24(%edi),%eax
    2123:	85 c0                	test   %eax,%eax
    2125:	0f 84 a5 01 00 00    	je     22d0 <driver_connection_gen.constprop.7+0x250>
    212b:	8b 00                	mov    (%eax),%eax
    212d:	85 c0                	test   %eax,%eax
    212f:	0f 84 9b 01 00 00    	je     22d0 <driver_connection_gen.constprop.7+0x250>
    2135:	83 ec 0c             	sub    $0xc,%esp
    2138:	57                   	push   %edi
    2139:	ff d0                	call   *%eax
    213b:	8b 4d b4             	mov    -0x4c(%ebp),%ecx
    213e:	89 c3                	mov    %eax,%ebx
    2140:	58                   	pop    %eax
    2141:	5a                   	pop    %edx
    2142:	53                   	push   %ebx
    2143:	51                   	push   %ecx
    2144:	e8 17 b0 00 00       	call   d160 <async_answer_0@plt>
    2149:	83 c4 10             	add    $0x10,%esp
    214c:	85 db                	test   %ebx,%ebx
    214e:	0f 85 70 01 00 00    	jne    22c4 <driver_connection_gen.constprop.7+0x244>
    2154:	8d 74 26 00          	lea    0x0(%esi,%eiz,1),%esi
    2158:	50                   	push   %eax
    2159:	50                   	push   %eax
    215a:	8d 45 c4             	lea    -0x3c(%ebp),%eax
    215d:	6a 00                	push   $0x0
    215f:	50                   	push   %eax
    2160:	e8 6b b2 00 00       	call   d3d0 <async_get_call_timeout@plt>
    2165:	8b 5d c4             	mov    -0x3c(%ebp),%ebx
    2168:	83 c4 10             	add    $0x10,%esp
    216b:	89 45 b4             	mov    %eax,-0x4c(%ebp)
    216e:	85 db                	test   %ebx,%ebx
    2170:	0f 84 e2 00 00 00    	je     2258 <driver_connection_gen.constprop.7+0x1d8>
    2176:	83 ec 0c             	sub    $0xc,%esp
    2179:	81 eb 00 04 00 00    	sub    $0x400,%ebx
    217f:	53                   	push   %ebx
    2180:	e8 cb 0f 00 00       	call   3150 <is_valid_iface_idx>
    2185:	83 c4 10             	add    $0x10,%esp
    2188:	84 c0                	test   %al,%al
    218a:	75 2c                	jne    21b8 <driver_connection_gen.constprop.7+0x138>
    218c:	8b 47 24             	mov    0x24(%edi),%eax
    218f:	85 c0                	test   %eax,%eax
    2191:	0f 84 91 00 00 00    	je     2228 <driver_connection_gen.constprop.7+0x1a8>
    2197:	8b 40 44             	mov    0x44(%eax),%eax
    219a:	85 c0                	test   %eax,%eax
    219c:	0f 84 86 00 00 00    	je     2228 <driver_connection_gen.constprop.7+0x1a8>
    21a2:	8d 4d c4             	lea    -0x3c(%ebp),%ecx
    21a5:	52                   	push   %edx
    21a6:	51                   	push   %ecx
    21a7:	8b 4d b4             	mov    -0x4c(%ebp),%ecx
    21aa:	51                   	push   %ecx
    21ab:	57                   	push   %edi
    21ac:	ff d0                	call   *%eax
    21ae:	83 c4 10             	add    $0x10,%esp
    21b1:	eb a5                	jmp    2158 <driver_connection_gen.constprop.7+0xd8>
    21b3:	90                   	nop
    21b4:	8d 74 26 00          	lea    0x0(%esi,%eiz,1),%esi
    21b8:	83 ec 0c             	sub    $0xc,%esp
    21bb:	53                   	push   %ebx
    21bc:	e8 8f 0f 00 00       	call   3150 <is_valid_iface_idx>
    21c1:	83 c4 10             	add    $0x10,%esp
    21c4:	84 c0                	test   %al,%al
    21c6:	0f 84 69 01 00 00    	je     2335 <driver_connection_gen.constprop.7+0x2b5>
    21cc:	8b 47 24             	mov    0x24(%edi),%eax
    21cf:	85 c0                	test   %eax,%eax
    21d1:	0f 84 b9 00 00 00    	je     2290 <driver_connection_gen.constprop.7+0x210>
    21d7:	8b 44 98 08          	mov    0x8(%eax,%ebx,4),%eax
    21db:	89 45 b0             	mov    %eax,-0x50(%ebp)
    21de:	85 c0                	test   %eax,%eax
    21e0:	0f 84 aa 00 00 00    	je     2290 <driver_connection_gen.constprop.7+0x210>
    21e6:	83 ec 0c             	sub    $0xc,%esp
    21e9:	53                   	push   %ebx
    21ea:	e8 11 0f 00 00       	call   3100 <get_remote_iface>
    21ef:	83 c4 10             	add    $0x10,%esp
    21f2:	85 c0                	test   %eax,%eax
    21f4:	0f 84 50 01 00 00    	je     234a <driver_connection_gen.constprop.7+0x2ca>
    21fa:	8b 4d c8             	mov    -0x38(%ebp),%ecx
    21fd:	52                   	push   %edx
    21fe:	52                   	push   %edx
    21ff:	51                   	push   %ecx
    2200:	50                   	push   %eax
    2201:	e8 2a 0f 00 00       	call   3130 <get_remote_method>
    2206:	83 c4 10             	add    $0x10,%esp
    2209:	85 c0                	test   %eax,%eax
    220b:	0f 84 9f 00 00 00    	je     22b0 <driver_connection_gen.constprop.7+0x230>
    2211:	8d 55 c4             	lea    -0x3c(%ebp),%edx
    2214:	8b 4d b0             	mov    -0x50(%ebp),%ecx
    2217:	52                   	push   %edx
    2218:	8b 55 b4             	mov    -0x4c(%ebp),%edx
    221b:	52                   	push   %edx
    221c:	51                   	push   %ecx
    221d:	57                   	push   %edi
    221e:	ff d0                	call   *%eax
    2220:	83 c4 10             	add    $0x10,%esp
    2223:	e9 30 ff ff ff       	jmp    2158 <driver_connection_gen.constprop.7+0xd8>
    2228:	50                   	push   %eax
    2229:	a1 88 f6 00 00       	mov    0xf688,%eax
    222e:	53                   	push   %ebx
    222f:	8b 00                	mov    (%eax),%eax
    2231:	50                   	push   %eax
    2232:	68 4c b4 00 00       	push   $0xb44c
    2237:	e8 14 ae 00 00       	call   d050 <printf@plt>
    223c:	5b                   	pop    %ebx
    223d:	58                   	pop    %eax
    223e:	8b 45 b4             	mov    -0x4c(%ebp),%eax
    2241:	6a f5                	push   $0xfffffff5
    2243:	50                   	push   %eax
    2244:	e8 17 af 00 00       	call   d160 <async_answer_0@plt>
    2249:	83 c4 10             	add    $0x10,%esp
    224c:	e9 07 ff ff ff       	jmp    2158 <driver_connection_gen.constprop.7+0xd8>
    2251:	8d b4 26 00 00 00 00 	lea    0x0(%esi,%eiz,1),%esi
    2258:	8b 47 24             	mov    0x24(%edi),%eax
    225b:	85 c0                	test   %eax,%eax
    225d:	74 10                	je     226f <driver_connection_gen.constprop.7+0x1ef>
    225f:	8b 40 04             	mov    0x4(%eax),%eax
    2262:	85 c0                	test   %eax,%eax
    2264:	74 09                	je     226f <driver_connection_gen.constprop.7+0x1ef>
    2266:	83 ec 0c             	sub    $0xc,%esp
    2269:	57                   	push   %edi
    226a:	ff d0                	call   *%eax
    226c:	83 c4 10             	add    $0x10,%esp
    226f:	8b 75 b4             	mov    -0x4c(%ebp),%esi
    2272:	53                   	push   %ebx
    2273:	53                   	push   %ebx
    2274:	6a 00                	push   $0x0
    2276:	56                   	push   %esi
    2277:	e8 e4 ae 00 00       	call   d160 <async_answer_0@plt>
    227c:	89 f8                	mov    %edi,%eax
    227e:	e8 ed fc ff ff       	call   1f70 <fun_del_ref>
    2283:	83 c4 10             	add    $0x10,%esp
    2286:	8d 65 f4             	lea    -0xc(%ebp),%esp
    2289:	5b                   	pop    %ebx
    228a:	5e                   	pop    %esi
    228b:	5f                   	pop    %edi
    228c:	5d                   	pop    %ebp
    228d:	c3                   	ret    
    228e:	66 90                	xchg   %ax,%ax
    2290:	50                   	push   %eax
    2291:	50                   	push   %eax
    2292:	a1 88 f6 00 00       	mov    0xf688,%eax
    2297:	8b 00                	mov    (%eax),%eax
    2299:	50                   	push   %eax
    229a:	68 88 b4 00 00       	push   $0xb488
    229f:	e8 ac ad 00 00       	call   d050 <printf@plt>
    22a4:	83 c4 0c             	add    $0xc,%esp
    22a7:	53                   	push   %ebx
    22a8:	56                   	push   %esi
    22a9:	68 ac b4 00 00       	push   $0xb4ac
    22ae:	eb 87                	jmp    2237 <driver_connection_gen.constprop.7+0x1b7>
    22b0:	50                   	push   %eax
    22b1:	50                   	push   %eax
    22b2:	a1 88 f6 00 00       	mov    0xf688,%eax
    22b7:	8b 00                	mov    (%eax),%eax
    22b9:	50                   	push   %eax
    22ba:	68 e4 b4 00 00       	push   $0xb4e4
    22bf:	e9 73 ff ff ff       	jmp    2237 <driver_connection_gen.constprop.7+0x1b7>
    22c4:	89 f8                	mov    %edi,%eax
    22c6:	e8 a5 fc ff ff       	call   1f70 <fun_del_ref>
    22cb:	e9 43 fe ff ff       	jmp    2113 <driver_connection_gen.constprop.7+0x93>
    22d0:	8b 55 b4             	mov    -0x4c(%ebp),%edx
    22d3:	50                   	push   %eax
    22d4:	50                   	push   %eax
    22d5:	6a 00                	push   $0x0
    22d7:	52                   	push   %edx
    22d8:	e8 83 ae 00 00       	call   d160 <async_answer_0@plt>
    22dd:	83 c4 10             	add    $0x10,%esp
    22e0:	e9 73 fe ff ff       	jmp    2158 <driver_connection_gen.constprop.7+0xd8>
    22e5:	8d 76 00             	lea    0x0(%esi),%esi
    22e8:	83 ec 0c             	sub    $0xc,%esp
    22eb:	68 74 f4 00 00       	push   $0xf474
    22f0:	e8 8b af 00 00       	call   d280 <fibril_mutex_unlock@plt>
    22f5:	a1 88 f6 00 00       	mov    0xf688,%eax
    22fa:	83 c4 0c             	add    $0xc,%esp
    22fd:	8b 08                	mov    (%eax),%ecx
    22ff:	56                   	push   %esi
    2300:	51                   	push   %ecx
    2301:	68 20 b5 00 00       	push   $0xb520
    2306:	e8 45 ad 00 00       	call   d050 <printf@plt>
    230b:	8b 7d b4             	mov    -0x4c(%ebp),%edi
    230e:	5b                   	pop    %ebx
    230f:	5e                   	pop    %esi
    2310:	6a ff                	push   $0xffffffff
    2312:	57                   	push   %edi
    2313:	e8 48 ae 00 00       	call   d160 <async_answer_0@plt>
    2318:	83 c4 10             	add    $0x10,%esp
    231b:	8d 65 f4             	lea    -0xc(%ebp),%esp
    231e:	5b                   	pop    %ebx
    231f:	5e                   	pop    %esi
    2320:	5f                   	pop    %edi
    2321:	5d                   	pop    %ebp
    2322:	c3                   	ret    
    2323:	51                   	push   %ecx
    2324:	6a 6b                	push   $0x6b
    2326:	68 ca b2 00 00       	push   $0xb2ca
    232b:	68 20 b4 00 00       	push   $0xb420
    2330:	e8 ab ae 00 00       	call   d1e0 <assert_abort@plt>
    2335:	50                   	push   %eax
    2336:	68 fb 02 00 00       	push   $0x2fb
    233b:	68 ca b2 00 00       	push   $0xb2ca
    2340:	68 db b2 00 00       	push   $0xb2db
    2345:	e8 96 ae 00 00       	call   d1e0 <assert_abort@plt>
    234a:	53                   	push   %ebx
    234b:	68 aa 01 00 00       	push   $0x1aa
    2350:	68 ca b2 00 00       	push   $0xb2ca
    2355:	68 f3 b2 00 00       	push   $0xb2f3
    235a:	e8 81 ae 00 00       	call   d1e0 <assert_abort@plt>
    235f:	90                   	nop

00002360 <driver_connection_driver>:
    2360:	55                   	push   %ebp
    2361:	89 e5                	mov    %esp,%ebp
    2363:	8b 55 0c             	mov    0xc(%ebp),%edx
    2366:	8b 45 08             	mov    0x8(%ebp),%eax
    2369:	5d                   	pop    %ebp
    236a:	e9 11 fd ff ff       	jmp    2080 <driver_connection_gen.constprop.7>
    236f:	90                   	nop

00002370 <driver_connection_client>:
    2370:	55                   	push   %ebp
    2371:	89 e5                	mov    %esp,%ebp
    2373:	8b 55 0c             	mov    0xc(%ebp),%edx
    2376:	8b 45 08             	mov    0x8(%ebp),%eax
    2379:	5d                   	pop    %ebp
    237a:	e9 01 fd ff ff       	jmp    2080 <driver_connection_gen.constprop.7>
    237f:	90                   	nop

00002380 <driver_connection_devman>:
    2380:	55                   	push   %ebp
    2381:	89 e5                	mov    %esp,%ebp
    2383:	57                   	push   %edi
    2384:	56                   	push   %esi
    2385:	53                   	push   %ebx
    2386:	83 ec 54             	sub    $0x54,%esp
    2389:	8d 75 c4             	lea    -0x3c(%ebp),%esi
    238c:	8b 45 08             	mov    0x8(%ebp),%eax
    238f:	6a 00                	push   $0x0
    2391:	50                   	push   %eax
    2392:	e8 c9 ad 00 00       	call   d160 <async_answer_0@plt>
    2397:	83 c4 10             	add    $0x10,%esp
    239a:	8d b6 00 00 00 00    	lea    0x0(%esi),%esi
    23a0:	50                   	push   %eax
    23a1:	50                   	push   %eax
    23a2:	6a 00                	push   $0x0
    23a4:	56                   	push   %esi
    23a5:	e8 26 b0 00 00       	call   d3d0 <async_get_call_timeout@plt>
    23aa:	83 c4 10             	add    $0x10,%esp
    23ad:	89 c3                	mov    %eax,%ebx
    23af:	8b 45 c4             	mov    -0x3c(%ebp),%eax
    23b2:	85 c0                	test   %eax,%eax
    23b4:	0f 84 de 03 00 00    	je     2798 <driver_connection_devman+0x418>
    23ba:	2d 00 04 00 00       	sub    $0x400,%eax
    23bf:	83 f8 04             	cmp    $0x4,%eax
    23c2:	0f 87 b8 03 00 00    	ja     2780 <driver_connection_devman+0x400>
    23c8:	8b 7d c8             	mov    -0x38(%ebp),%edi
    23cb:	ff 24 85 d0 b5 00 00 	jmp    *0xb5d0(,%eax,4)
    23d2:	8d b6 00 00 00 00    	lea    0x0(%esi),%esi
    23d8:	83 ec 0c             	sub    $0xc,%esp
    23db:	68 74 f4 00 00       	push   $0xf474
    23e0:	e8 4b b1 00 00       	call   d530 <fibril_mutex_lock@plt>
    23e5:	c7 04 24 74 f4 00 00 	movl   $0xf474,(%esp)
    23ec:	e8 cf ac 00 00       	call   d0c0 <fibril_mutex_is_locked@plt>
    23f1:	83 c4 10             	add    $0x10,%esp
    23f4:	84 c0                	test   %al,%al
    23f6:	0f 84 5a 04 00 00    	je     2856 <driver_connection_devman+0x4d6>
    23fc:	a1 88 f4 00 00       	mov    0xf488,%eax
    2401:	3d 84 f4 00 00       	cmp    $0xf484,%eax
    2406:	8d 50 d4             	lea    -0x2c(%eax),%edx
    2409:	75 16                	jne    2421 <driver_connection_devman+0xa1>
    240b:	e9 90 03 00 00       	jmp    27a0 <driver_connection_devman+0x420>
    2410:	8b 40 04             	mov    0x4(%eax),%eax
    2413:	3d 84 f4 00 00       	cmp    $0xf484,%eax
    2418:	8d 50 d4             	lea    -0x2c(%eax),%edx
    241b:	0f 84 7f 03 00 00    	je     27a0 <driver_connection_devman+0x420>
    2421:	3b 7a 04             	cmp    0x4(%edx),%edi
    2424:	75 ea                	jne    2410 <driver_connection_devman+0x90>
    2426:	8b 42 0c             	mov    0xc(%edx),%eax
    2429:	f0 ff 40 04          	lock incl 0x4(%eax)
    242d:	f0 ff 42 08          	lock incl 0x8(%edx)
    2431:	83 ec 0c             	sub    $0xc,%esp
    2434:	89 55 b4             	mov    %edx,-0x4c(%ebp)
    2437:	68 74 f4 00 00       	push   $0xf474
    243c:	e8 3f ae 00 00       	call   d280 <fibril_mutex_unlock@plt>
    2441:	a1 88 f6 00 00       	mov    0xf688,%eax
    2446:	83 c4 10             	add    $0x10,%esp
    2449:	8b 55 b4             	mov    -0x4c(%ebp),%edx
    244c:	8b 40 04             	mov    0x4(%eax),%eax
    244f:	8b 40 0c             	mov    0xc(%eax),%eax
    2452:	85 c0                	test   %eax,%eax
    2454:	0f 84 76 03 00 00    	je     27d0 <driver_connection_devman+0x450>
    245a:	83 ec 0c             	sub    $0xc,%esp
    245d:	52                   	push   %edx
    245e:	ff d0                	call   *%eax
    2460:	83 c4 10             	add    $0x10,%esp
    2463:	89 c7                	mov    %eax,%edi
    2465:	8b 55 b4             	mov    -0x4c(%ebp),%edx
    2468:	89 d0                	mov    %edx,%eax
    246a:	e8 01 fb ff ff       	call   1f70 <fun_del_ref>
    246f:	51                   	push   %ecx
    2470:	51                   	push   %ecx
    2471:	57                   	push   %edi
    2472:	53                   	push   %ebx
    2473:	e8 e8 ac 00 00       	call   d160 <async_answer_0@plt>
    2478:	83 c4 10             	add    $0x10,%esp
    247b:	e9 20 ff ff ff       	jmp    23a0 <driver_connection_devman+0x20>
    2480:	83 ec 0c             	sub    $0xc,%esp
    2483:	68 8c f4 00 00       	push   $0xf48c
    2488:	e8 a3 b0 00 00       	call   d530 <fibril_mutex_lock@plt>
    248d:	c7 04 24 8c f4 00 00 	movl   $0xf48c,(%esp)
    2494:	e8 27 ac 00 00       	call   d0c0 <fibril_mutex_is_locked@plt>
    2499:	83 c4 10             	add    $0x10,%esp
    249c:	84 c0                	test   %al,%al
    249e:	0f 84 a0 03 00 00    	je     2844 <driver_connection_devman+0x4c4>
    24a4:	a1 a0 f4 00 00       	mov    0xf4a0,%eax
    24a9:	3d 9c f4 00 00       	cmp    $0xf49c,%eax
    24ae:	8d 50 ec             	lea    -0x14(%eax),%edx
    24b1:	75 16                	jne    24c9 <driver_connection_devman+0x149>
    24b3:	e9 08 03 00 00       	jmp    27c0 <driver_connection_devman+0x440>
    24b8:	8b 40 04             	mov    0x4(%eax),%eax
    24bb:	3d 9c f4 00 00       	cmp    $0xf49c,%eax
    24c0:	8d 50 ec             	lea    -0x14(%eax),%edx
    24c3:	0f 84 f7 02 00 00    	je     27c0 <driver_connection_devman+0x440>
    24c9:	3b 78 ec             	cmp    -0x14(%eax),%edi
    24cc:	75 ea                	jne    24b8 <driver_connection_devman+0x138>
    24ce:	8d 7a 04             	lea    0x4(%edx),%edi
    24d1:	f0 ff 42 04          	lock incl 0x4(%edx)
    24d5:	83 ec 0c             	sub    $0xc,%esp
    24d8:	89 55 b4             	mov    %edx,-0x4c(%ebp)
    24db:	68 8c f4 00 00       	push   $0xf48c
    24e0:	e8 9b ad 00 00       	call   d280 <fibril_mutex_unlock@plt>
    24e5:	a1 88 f6 00 00       	mov    0xf688,%eax
    24ea:	83 c4 10             	add    $0x10,%esp
    24ed:	8b 40 04             	mov    0x4(%eax),%eax
    24f0:	8b 40 08             	mov    0x8(%eax),%eax
    24f3:	85 c0                	test   %eax,%eax
    24f5:	0f 85 88 00 00 00    	jne    2583 <driver_connection_devman+0x203>
    24fb:	b8 f5 ff ff ff       	mov    $0xfffffff5,%eax
    2500:	e9 63 02 00 00       	jmp    2768 <driver_connection_devman+0x3e8>
    2505:	8d 76 00             	lea    0x0(%esi),%esi
    2508:	83 ec 0c             	sub    $0xc,%esp
    250b:	68 8c f4 00 00       	push   $0xf48c
    2510:	e8 1b b0 00 00       	call   d530 <fibril_mutex_lock@plt>
    2515:	c7 04 24 8c f4 00 00 	movl   $0xf48c,(%esp)
    251c:	e8 9f ab 00 00       	call   d0c0 <fibril_mutex_is_locked@plt>
    2521:	83 c4 10             	add    $0x10,%esp
    2524:	84 c0                	test   %al,%al
    2526:	0f 84 18 03 00 00    	je     2844 <driver_connection_devman+0x4c4>
    252c:	a1 a0 f4 00 00       	mov    0xf4a0,%eax
    2531:	3d 9c f4 00 00       	cmp    $0xf49c,%eax
    2536:	8d 50 ec             	lea    -0x14(%eax),%edx
    2539:	75 16                	jne    2551 <driver_connection_devman+0x1d1>
    253b:	e9 80 02 00 00       	jmp    27c0 <driver_connection_devman+0x440>
    2540:	8b 40 04             	mov    0x4(%eax),%eax
    2543:	3d 9c f4 00 00       	cmp    $0xf49c,%eax
    2548:	8d 50 ec             	lea    -0x14(%eax),%edx
    254b:	0f 84 6f 02 00 00    	je     27c0 <driver_connection_devman+0x440>
    2551:	3b 78 ec             	cmp    -0x14(%eax),%edi
    2554:	75 ea                	jne    2540 <driver_connection_devman+0x1c0>
    2556:	8d 7a 04             	lea    0x4(%edx),%edi
    2559:	f0 ff 42 04          	lock incl 0x4(%edx)
    255d:	83 ec 0c             	sub    $0xc,%esp
    2560:	89 55 b4             	mov    %edx,-0x4c(%ebp)
    2563:	68 8c f4 00 00       	push   $0xf48c
    2568:	e8 13 ad 00 00       	call   d280 <fibril_mutex_unlock@plt>
    256d:	a1 88 f6 00 00       	mov    0xf688,%eax
    2572:	83 c4 10             	add    $0x10,%esp
    2575:	8b 40 04             	mov    0x4(%eax),%eax
    2578:	8b 40 04             	mov    0x4(%eax),%eax
    257b:	85 c0                	test   %eax,%eax
    257d:	0f 84 78 ff ff ff    	je     24fb <driver_connection_devman+0x17b>
    2583:	83 ec 0c             	sub    $0xc,%esp
    2586:	8b 55 b4             	mov    -0x4c(%ebp),%edx
    2589:	52                   	push   %edx
    258a:	ff d0                	call   *%eax
    258c:	83 c4 10             	add    $0x10,%esp
    258f:	8b 55 b4             	mov    -0x4c(%ebp),%edx
    2592:	85 c0                	test   %eax,%eax
    2594:	0f 85 ce 01 00 00    	jne    2768 <driver_connection_devman+0x3e8>
    259a:	83 c9 ff             	or     $0xffffffff,%ecx
    259d:	f0 0f c1 0f          	lock xadd %ecx,(%edi)
    25a1:	49                   	dec    %ecx
    25a2:	0f 85 c0 01 00 00    	jne    2768 <driver_connection_devman+0x3e8>
    25a8:	8b 42 08             	mov    0x8(%edx),%eax
    25ab:	85 c0                	test   %eax,%eax
    25ad:	74 0f                	je     25be <driver_connection_devman+0x23e>
    25af:	83 ec 0c             	sub    $0xc,%esp
    25b2:	50                   	push   %eax
    25b3:	e8 a8 aa 00 00       	call   d060 <async_hangup@plt>
    25b8:	83 c4 10             	add    $0x10,%esp
    25bb:	8b 55 b4             	mov    -0x4c(%ebp),%edx
    25be:	8b 42 10             	mov    0x10(%edx),%eax
    25c1:	85 c0                	test   %eax,%eax
    25c3:	74 12                	je     25d7 <driver_connection_devman+0x257>
    25c5:	83 ec 0c             	sub    $0xc,%esp
    25c8:	89 55 b4             	mov    %edx,-0x4c(%ebp)
    25cb:	50                   	push   %eax
    25cc:	e8 3f af 00 00       	call   d510 <free@plt>
    25d1:	83 c4 10             	add    $0x10,%esp
    25d4:	8b 55 b4             	mov    -0x4c(%ebp),%edx
    25d7:	8b 42 0c             	mov    0xc(%edx),%eax
    25da:	85 c0                	test   %eax,%eax
    25dc:	74 12                	je     25f0 <driver_connection_devman+0x270>
    25de:	83 ec 0c             	sub    $0xc,%esp
    25e1:	89 55 b4             	mov    %edx,-0x4c(%ebp)
    25e4:	50                   	push   %eax
    25e5:	e8 26 af 00 00       	call   d510 <free@plt>
    25ea:	83 c4 10             	add    $0x10,%esp
    25ed:	8b 55 b4             	mov    -0x4c(%ebp),%edx
    25f0:	83 ec 0c             	sub    $0xc,%esp
    25f3:	52                   	push   %edx
    25f4:	e8 17 af 00 00       	call   d510 <free@plt>
    25f9:	83 c4 10             	add    $0x10,%esp
    25fc:	31 c0                	xor    %eax,%eax
    25fe:	e9 65 01 00 00       	jmp    2768 <driver_connection_devman+0x3e8>
    2603:	90                   	nop
    2604:	8d 74 26 00          	lea    0x0(%esi,%eiz,1),%esi
    2608:	50                   	push   %eax
    2609:	50                   	push   %eax
    260a:	8d 45 c0             	lea    -0x40(%ebp),%eax
    260d:	6a 00                	push   $0x0
    260f:	c7 45 c0 00 00 00 00 	movl   $0x0,-0x40(%ebp)
    2616:	6a 00                	push   $0x0
    2618:	6a 00                	push   $0x0
    261a:	6a 00                	push   $0x0
    261c:	6a 01                	push   $0x1
    261e:	50                   	push   %eax
    261f:	e8 6c ae 00 00       	call   d490 <async_data_write_accept@plt>
    2624:	83 c4 20             	add    $0x20,%esp
    2627:	85 c0                	test   %eax,%eax
    2629:	0f 85 39 01 00 00    	jne    2768 <driver_connection_devman+0x3e8>
    262f:	50                   	push   %eax
    2630:	50                   	push   %eax
    2631:	6a 1c                	push   $0x1c
    2633:	6a 01                	push   $0x1
    2635:	e8 c6 ab 00 00       	call   d200 <calloc@plt>
    263a:	83 c4 10             	add    $0x10,%esp
    263d:	89 c2                	mov    %eax,%edx
    263f:	85 c0                	test   %eax,%eax
    2641:	0f 84 df 01 00 00    	je     2826 <driver_connection_devman+0x4a6>
    2647:	f0 ff 40 04          	lock incl 0x4(%eax)
    264b:	89 38                	mov    %edi,(%eax)
    264d:	8b 45 c0             	mov    -0x40(%ebp),%eax
    2650:	89 42 0c             	mov    %eax,0xc(%edx)
    2653:	a1 88 f6 00 00       	mov    0xf688,%eax
    2658:	83 ec 0c             	sub    $0xc,%esp
    265b:	89 55 b4             	mov    %edx,-0x4c(%ebp)
    265e:	8b 40 04             	mov    0x4(%eax),%eax
    2661:	52                   	push   %edx
    2662:	ff 10                	call   *(%eax)
    2664:	83 c4 10             	add    $0x10,%esp
    2667:	89 c7                	mov    %eax,%edi
    2669:	85 c0                	test   %eax,%eax
    266b:	8b 55 b4             	mov    -0x4c(%ebp),%edx
    266e:	0f 84 66 01 00 00    	je     27da <driver_connection_devman+0x45a>
    2674:	83 c8 ff             	or     $0xffffffff,%eax
    2677:	f0 0f c1 42 04       	lock xadd %eax,0x4(%edx)
    267c:	48                   	dec    %eax
    267d:	0f 85 ec fd ff ff    	jne    246f <driver_connection_devman+0xef>
    2683:	8b 42 08             	mov    0x8(%edx),%eax
    2686:	85 c0                	test   %eax,%eax
    2688:	74 12                	je     269c <driver_connection_devman+0x31c>
    268a:	83 ec 0c             	sub    $0xc,%esp
    268d:	89 55 b4             	mov    %edx,-0x4c(%ebp)
    2690:	50                   	push   %eax
    2691:	e8 ca a9 00 00       	call   d060 <async_hangup@plt>
    2696:	83 c4 10             	add    $0x10,%esp
    2699:	8b 55 b4             	mov    -0x4c(%ebp),%edx
    269c:	8b 42 10             	mov    0x10(%edx),%eax
    269f:	85 c0                	test   %eax,%eax
    26a1:	74 12                	je     26b5 <driver_connection_devman+0x335>
    26a3:	83 ec 0c             	sub    $0xc,%esp
    26a6:	89 55 b4             	mov    %edx,-0x4c(%ebp)
    26a9:	50                   	push   %eax
    26aa:	e8 61 ae 00 00       	call   d510 <free@plt>
    26af:	83 c4 10             	add    $0x10,%esp
    26b2:	8b 55 b4             	mov    -0x4c(%ebp),%edx
    26b5:	8b 42 0c             	mov    0xc(%edx),%eax
    26b8:	85 c0                	test   %eax,%eax
    26ba:	74 12                	je     26ce <driver_connection_devman+0x34e>
    26bc:	83 ec 0c             	sub    $0xc,%esp
    26bf:	89 55 b4             	mov    %edx,-0x4c(%ebp)
    26c2:	50                   	push   %eax
    26c3:	e8 48 ae 00 00       	call   d510 <free@plt>
    26c8:	83 c4 10             	add    $0x10,%esp
    26cb:	8b 55 b4             	mov    -0x4c(%ebp),%edx
    26ce:	83 ec 0c             	sub    $0xc,%esp
    26d1:	52                   	push   %edx
    26d2:	e8 39 ae 00 00       	call   d510 <free@plt>
    26d7:	83 c4 10             	add    $0x10,%esp
    26da:	e9 90 fd ff ff       	jmp    246f <driver_connection_devman+0xef>
    26df:	90                   	nop
    26e0:	83 ec 0c             	sub    $0xc,%esp
    26e3:	68 74 f4 00 00       	push   $0xf474
    26e8:	e8 43 ae 00 00       	call   d530 <fibril_mutex_lock@plt>
    26ed:	c7 04 24 74 f4 00 00 	movl   $0xf474,(%esp)
    26f4:	e8 c7 a9 00 00       	call   d0c0 <fibril_mutex_is_locked@plt>
    26f9:	83 c4 10             	add    $0x10,%esp
    26fc:	84 c0                	test   %al,%al
    26fe:	0f 84 52 01 00 00    	je     2856 <driver_connection_devman+0x4d6>
    2704:	a1 88 f4 00 00       	mov    0xf488,%eax
    2709:	3d 84 f4 00 00       	cmp    $0xf484,%eax
    270e:	8d 50 d4             	lea    -0x2c(%eax),%edx
    2711:	75 12                	jne    2725 <driver_connection_devman+0x3a5>
    2713:	e9 88 00 00 00       	jmp    27a0 <driver_connection_devman+0x420>
    2718:	8b 40 04             	mov    0x4(%eax),%eax
    271b:	3d 84 f4 00 00       	cmp    $0xf484,%eax
    2720:	8d 50 d4             	lea    -0x2c(%eax),%edx
    2723:	74 7b                	je     27a0 <driver_connection_devman+0x420>
    2725:	3b 7a 04             	cmp    0x4(%edx),%edi
    2728:	75 ee                	jne    2718 <driver_connection_devman+0x398>
    272a:	8b 42 0c             	mov    0xc(%edx),%eax
    272d:	f0 ff 40 04          	lock incl 0x4(%eax)
    2731:	f0 ff 42 08          	lock incl 0x8(%edx)
    2735:	83 ec 0c             	sub    $0xc,%esp
    2738:	89 55 b4             	mov    %edx,-0x4c(%ebp)
    273b:	68 74 f4 00 00       	push   $0xf474
    2740:	e8 3b ab 00 00       	call   d280 <fibril_mutex_unlock@plt>
    2745:	a1 88 f6 00 00       	mov    0xf688,%eax
    274a:	83 c4 10             	add    $0x10,%esp
    274d:	8b 40 04             	mov    0x4(%eax),%eax
    2750:	8b 40 10             	mov    0x10(%eax),%eax
    2753:	85 c0                	test   %eax,%eax
    2755:	0f 84 a0 fd ff ff    	je     24fb <driver_connection_devman+0x17b>
    275b:	83 ec 0c             	sub    $0xc,%esp
    275e:	8b 55 b4             	mov    -0x4c(%ebp),%edx
    2761:	52                   	push   %edx
    2762:	ff d0                	call   *%eax
    2764:	83 c4 10             	add    $0x10,%esp
    2767:	90                   	nop
    2768:	52                   	push   %edx
    2769:	52                   	push   %edx
    276a:	50                   	push   %eax
    276b:	53                   	push   %ebx
    276c:	e8 ef a9 00 00       	call   d160 <async_answer_0@plt>
    2771:	83 c4 10             	add    $0x10,%esp
    2774:	e9 27 fc ff ff       	jmp    23a0 <driver_connection_devman+0x20>
    2779:	8d b4 26 00 00 00 00 	lea    0x0(%esi,%eiz,1),%esi
    2780:	50                   	push   %eax
    2781:	50                   	push   %eax
    2782:	6a f5                	push   $0xfffffff5
    2784:	53                   	push   %ebx
    2785:	e8 d6 a9 00 00       	call   d160 <async_answer_0@plt>
    278a:	83 c4 10             	add    $0x10,%esp
    278d:	e9 0e fc ff ff       	jmp    23a0 <driver_connection_devman+0x20>
    2792:	8d b6 00 00 00 00    	lea    0x0(%esi),%esi
    2798:	8d 65 f4             	lea    -0xc(%ebp),%esp
    279b:	5b                   	pop    %ebx
    279c:	5e                   	pop    %esi
    279d:	5f                   	pop    %edi
    279e:	5d                   	pop    %ebp
    279f:	c3                   	ret    
    27a0:	83 ec 0c             	sub    $0xc,%esp
    27a3:	68 74 f4 00 00       	push   $0xf474
    27a8:	e8 d3 aa 00 00       	call   d280 <fibril_mutex_unlock@plt>
    27ad:	58                   	pop    %eax
    27ae:	5a                   	pop    %edx
    27af:	6a ff                	push   $0xffffffff
    27b1:	53                   	push   %ebx
    27b2:	e8 a9 a9 00 00       	call   d160 <async_answer_0@plt>
    27b7:	83 c4 10             	add    $0x10,%esp
    27ba:	e9 e1 fb ff ff       	jmp    23a0 <driver_connection_devman+0x20>
    27bf:	90                   	nop
    27c0:	83 ec 0c             	sub    $0xc,%esp
    27c3:	68 8c f4 00 00       	push   $0xf48c
    27c8:	eb de                	jmp    27a8 <driver_connection_devman+0x428>
    27ca:	8d b6 00 00 00 00    	lea    0x0(%esi),%esi
    27d0:	bf f5 ff ff ff       	mov    $0xfffffff5,%edi
    27d5:	e9 8e fc ff ff       	jmp    2468 <driver_connection_devman+0xe8>
    27da:	83 ec 0c             	sub    $0xc,%esp
    27dd:	89 55 b4             	mov    %edx,-0x4c(%ebp)
    27e0:	68 8c f4 00 00       	push   $0xf48c
    27e5:	e8 46 ad 00 00       	call   d530 <fibril_mutex_lock@plt>
    27ea:	8b 55 b4             	mov    -0x4c(%ebp),%edx
    27ed:	8b 0d 9c f4 00 00    	mov    0xf49c,%ecx
    27f3:	8d 42 14             	lea    0x14(%edx),%eax
    27f6:	c7 42 18 9c f4 00 00 	movl   $0xf49c,0x18(%edx)
    27fd:	89 4a 14             	mov    %ecx,0x14(%edx)
    2800:	89 41 04             	mov    %eax,0x4(%ecx)
    2803:	a3 9c f4 00 00       	mov    %eax,0xf49c
    2808:	c7 04 24 8c f4 00 00 	movl   $0xf48c,(%esp)
    280f:	e8 6c aa 00 00       	call   d280 <fibril_mutex_unlock@plt>
    2814:	5f                   	pop    %edi
    2815:	58                   	pop    %eax
    2816:	6a 00                	push   $0x0
    2818:	53                   	push   %ebx
    2819:	e8 42 a9 00 00       	call   d160 <async_answer_0@plt>
    281e:	83 c4 10             	add    $0x10,%esp
    2821:	e9 7a fb ff ff       	jmp    23a0 <driver_connection_devman+0x20>
    2826:	83 ec 0c             	sub    $0xc,%esp
    2829:	8b 4d c0             	mov    -0x40(%ebp),%ecx
    282c:	51                   	push   %ecx
    282d:	e8 de ac 00 00       	call   d510 <free@plt>
    2832:	5f                   	pop    %edi
    2833:	58                   	pop    %eax
    2834:	6a fe                	push   $0xfffffffe
    2836:	53                   	push   %ebx
    2837:	e8 24 a9 00 00       	call   d160 <async_answer_0@plt>
    283c:	83 c4 10             	add    $0x10,%esp
    283f:	e9 5c fb ff ff       	jmp    23a0 <driver_connection_devman+0x20>
    2844:	56                   	push   %esi
    2845:	6a 5f                	push   $0x5f
    2847:	68 ca b2 00 00       	push   $0xb2ca
    284c:	68 6c b5 00 00       	push   $0xb56c
    2851:	e8 8a a9 00 00       	call   d1e0 <assert_abort@plt>
    2856:	53                   	push   %ebx
    2857:	6a 6b                	push   $0x6b
    2859:	68 ca b2 00 00       	push   $0xb2ca
    285e:	68 20 b4 00 00       	push   $0xb420
    2863:	e8 78 a9 00 00       	call   d1e0 <assert_abort@plt>
    2868:	90                   	nop
    2869:	8d b4 26 00 00 00 00 	lea    0x0(%esi,%eiz,1),%esi

00002870 <ddf_dev_data_alloc>:
    2870:	55                   	push   %ebp
    2871:	89 e5                	mov    %esp,%ebp
    2873:	53                   	push   %ebx
    2874:	53                   	push   %ebx
    2875:	8b 5d 08             	mov    0x8(%ebp),%ebx
    2878:	8b 43 10             	mov    0x10(%ebx),%eax
    287b:	85 c0                	test   %eax,%eax
    287d:	75 1c                	jne    289b <ddf_dev_data_alloc+0x2b>
    287f:	8b 55 0c             	mov    0xc(%ebp),%edx
    2882:	50                   	push   %eax
    2883:	50                   	push   %eax
    2884:	52                   	push   %edx
    2885:	6a 01                	push   $0x1
    2887:	e8 74 a9 00 00       	call   d200 <calloc@plt>
    288c:	83 c4 10             	add    $0x10,%esp
    288f:	85 c0                	test   %eax,%eax
    2891:	74 03                	je     2896 <ddf_dev_data_alloc+0x26>
    2893:	89 43 10             	mov    %eax,0x10(%ebx)
    2896:	8b 5d fc             	mov    -0x4(%ebp),%ebx
    2899:	c9                   	leave  
    289a:	c3                   	ret    
    289b:	51                   	push   %ecx
    289c:	68 39 02 00 00       	push   $0x239
    28a1:	68 ca b2 00 00       	push   $0xb2ca
    28a6:	68 05 b3 00 00       	push   $0xb305
    28ab:	e8 30 a9 00 00       	call   d1e0 <assert_abort@plt>

000028b0 <ddf_dev_data_get>:
    28b0:	55                   	push   %ebp
    28b1:	89 e5                	mov    %esp,%ebp
    28b3:	8b 45 08             	mov    0x8(%ebp),%eax
    28b6:	5d                   	pop    %ebp
    28b7:	8b 40 10             	mov    0x10(%eax),%eax
    28ba:	c3                   	ret    
    28bb:	90                   	nop
    28bc:	8d 74 26 00          	lea    0x0(%esi,%eiz,1),%esi

000028c0 <ddf_dev_get_handle>:
    28c0:	55                   	push   %ebp
    28c1:	89 e5                	mov    %esp,%ebp
    28c3:	8b 45 08             	mov    0x8(%ebp),%eax
    28c6:	5d                   	pop    %ebp
    28c7:	8b 00                	mov    (%eax),%eax
    28c9:	c3                   	ret    
    28ca:	8d b6 00 00 00 00    	lea    0x0(%esi),%esi

000028d0 <ddf_dev_get_name>:
    28d0:	55                   	push   %ebp
    28d1:	89 e5                	mov    %esp,%ebp
    28d3:	8b 45 08             	mov    0x8(%ebp),%eax
    28d6:	5d                   	pop    %ebp
    28d7:	8b 40 0c             	mov    0xc(%eax),%eax
    28da:	c3                   	ret    
    28db:	90                   	nop
    28dc:	8d 74 26 00          	lea    0x0(%esi,%eiz,1),%esi

000028e0 <ddf_dev_parent_sess_create>:
    28e0:	55                   	push   %ebp
    28e1:	89 e5                	mov    %esp,%ebp
    28e3:	53                   	push   %ebx
    28e4:	53                   	push   %ebx
    28e5:	8b 5d 08             	mov    0x8(%ebp),%ebx
    28e8:	8b 43 08             	mov    0x8(%ebx),%eax
    28eb:	85 c0                	test   %eax,%eax
    28ed:	75 14                	jne    2903 <ddf_dev_parent_sess_create+0x23>
    28ef:	50                   	push   %eax
    28f0:	50                   	push   %eax
    28f1:	6a 01                	push   $0x1
    28f3:	8b 13                	mov    (%ebx),%edx
    28f5:	52                   	push   %edx
    28f6:	e8 95 a7 00 00       	call   d090 <devman_parent_device_connect@plt>
    28fb:	89 43 08             	mov    %eax,0x8(%ebx)
    28fe:	8b 5d fc             	mov    -0x4(%ebp),%ebx
    2901:	c9                   	leave  
    2902:	c3                   	ret    
    2903:	51                   	push   %ecx
    2904:	68 64 02 00 00       	push   $0x264
    2909:	68 ca b2 00 00       	push   $0xb2ca
    290e:	68 1e b3 00 00       	push   $0xb31e
    2913:	e8 c8 a8 00 00       	call   d1e0 <assert_abort@plt>
    2918:	90                   	nop
    2919:	8d b4 26 00 00 00 00 	lea    0x0(%esi,%eiz,1),%esi

00002920 <ddf_dev_parent_sess_get>:
    2920:	55                   	push   %ebp
    2921:	89 e5                	mov    %esp,%ebp
    2923:	8b 45 08             	mov    0x8(%ebp),%eax
    2926:	5d                   	pop    %ebp
    2927:	8b 40 08             	mov    0x8(%eax),%eax
    292a:	c3                   	ret    
    292b:	90                   	nop
    292c:	8d 74 26 00          	lea    0x0(%esi,%eiz,1),%esi

00002930 <ddf_fun_set_name>:
    2930:	55                   	push   %ebp
    2931:	89 e5                	mov    %esp,%ebp
    2933:	53                   	push   %ebx
    2934:	51                   	push   %ecx
    2935:	8b 5d 08             	mov    0x8(%ebp),%ebx
    2938:	8b 43 14             	mov    0x14(%ebx),%eax
    293b:	85 c0                	test   %eax,%eax
    293d:	75 23                	jne    2962 <ddf_fun_set_name+0x32>
    293f:	83 ec 0c             	sub    $0xc,%esp
    2942:	8b 45 0c             	mov    0xc(%ebp),%eax
    2945:	50                   	push   %eax
    2946:	e8 55 a9 00 00       	call   d2a0 <str_dup@plt>
    294b:	83 c4 10             	add    $0x10,%esp
    294e:	89 43 14             	mov    %eax,0x14(%ebx)
    2951:	85 c0                	test   %eax,%eax
    2953:	8b 5d fc             	mov    -0x4(%ebp),%ebx
    2956:	0f 94 c0             	sete   %al
    2959:	25 ff 00 00 00       	and    $0xff,%eax
    295e:	c9                   	leave  
    295f:	f7 d8                	neg    %eax
    2961:	c3                   	ret    
    2962:	52                   	push   %edx
    2963:	68 7d 02 00 00       	push   $0x27d
    2968:	68 ca b2 00 00       	push   $0xb2ca
    296d:	68 37 b3 00 00       	push   $0xb337
    2972:	e8 69 a8 00 00       	call   d1e0 <assert_abort@plt>
    2977:	89 f6                	mov    %esi,%esi
    2979:	8d bc 27 00 00 00 00 	lea    0x0(%edi,%eiz,1),%edi

00002980 <ddf_fun_get_dev>:
    2980:	55                   	push   %ebp
    2981:	89 e5                	mov    %esp,%ebp
    2983:	8b 45 08             	mov    0x8(%ebp),%eax
    2986:	5d                   	pop    %ebp
    2987:	8b 40 0c             	mov    0xc(%eax),%eax
    298a:	c3                   	ret    
    298b:	90                   	nop
    298c:	8d 74 26 00          	lea    0x0(%esi,%eiz,1),%esi

00002990 <ddf_fun_get_handle>:
    2990:	55                   	push   %ebp
    2991:	89 e5                	mov    %esp,%ebp
    2993:	8b 45 08             	mov    0x8(%ebp),%eax
    2996:	5d                   	pop    %ebp
    2997:	8b 40 04             	mov    0x4(%eax),%eax
    299a:	c3                   	ret    
    299b:	90                   	nop
    299c:	8d 74 26 00          	lea    0x0(%esi,%eiz,1),%esi

000029a0 <ddf_fun_create>:
    29a0:	55                   	push   %ebp
    29a1:	89 e5                	mov    %esp,%ebp
    29a3:	57                   	push   %edi
    29a4:	56                   	push   %esi
    29a5:	53                   	push   %ebx
    29a6:	83 ec 14             	sub    $0x14,%esp
    29a9:	8b 75 08             	mov    0x8(%ebp),%esi
    29ac:	6a 34                	push   $0x34
    29ae:	6a 01                	push   $0x1
    29b0:	e8 4b a8 00 00       	call   d200 <calloc@plt>
    29b5:	83 c4 10             	add    $0x10,%esp
    29b8:	89 c3                	mov    %eax,%ebx
    29ba:	85 c0                	test   %eax,%eax
    29bc:	74 48                	je     2a06 <ddf_fun_create+0x66>
    29be:	8d 78 18             	lea    0x18(%eax),%edi
    29c1:	c7 40 2c 00 00 00 00 	movl   $0x0,0x2c(%eax)
    29c8:	89 78 18             	mov    %edi,0x18(%eax)
    29cb:	89 78 1c             	mov    %edi,0x1c(%eax)
    29ce:	c7 40 30 00 00 00 00 	movl   $0x0,0x30(%eax)
    29d5:	89 70 0c             	mov    %esi,0xc(%eax)
    29d8:	f0 ff 46 04          	lock incl 0x4(%esi)
    29dc:	f0 ff 40 08          	lock incl 0x8(%eax)
    29e0:	c6 00 00             	movb   $0x0,(%eax)
    29e3:	8b 55 10             	mov    0x10(%ebp),%edx
    29e6:	8b 45 0c             	mov    0xc(%ebp),%eax
    29e9:	85 d2                	test   %edx,%edx
    29eb:	89 43 10             	mov    %eax,0x10(%ebx)
    29ee:	74 16                	je     2a06 <ddf_fun_create+0x66>
    29f0:	83 ec 0c             	sub    $0xc,%esp
    29f3:	8b 45 10             	mov    0x10(%ebp),%eax
    29f6:	50                   	push   %eax
    29f7:	e8 a4 a8 00 00       	call   d2a0 <str_dup@plt>
    29fc:	83 c4 10             	add    $0x10,%esp
    29ff:	89 43 14             	mov    %eax,0x14(%ebx)
    2a02:	85 c0                	test   %eax,%eax
    2a04:	74 0a                	je     2a10 <ddf_fun_create+0x70>
    2a06:	8d 65 f4             	lea    -0xc(%ebp),%esp
    2a09:	89 d8                	mov    %ebx,%eax
    2a0b:	5b                   	pop    %ebx
    2a0c:	5e                   	pop    %esi
    2a0d:	5f                   	pop    %edi
    2a0e:	5d                   	pop    %ebp
    2a0f:	c3                   	ret    
    2a10:	8b 73 1c             	mov    0x1c(%ebx),%esi
    2a13:	39 f7                	cmp    %esi,%edi
    2a15:	0f 84 85 00 00 00    	je     2aa0 <ddf_fun_create+0x100>
    2a1b:	90                   	nop
    2a1c:	8d 74 26 00          	lea    0x0(%esi,%eiz,1),%esi
    2a20:	8b 0e                	mov    (%esi),%ecx
    2a22:	85 c9                	test   %ecx,%ecx
    2a24:	74 0e                	je     2a34 <ddf_fun_create+0x94>
    2a26:	8b 46 04             	mov    0x4(%esi),%eax
    2a29:	85 c0                	test   %eax,%eax
    2a2b:	74 07                	je     2a34 <ddf_fun_create+0x94>
    2a2d:	89 08                	mov    %ecx,(%eax)
    2a2f:	8b 0e                	mov    (%esi),%ecx
    2a31:	89 41 04             	mov    %eax,0x4(%ecx)
    2a34:	8b 46 08             	mov    0x8(%esi),%eax
    2a37:	c7 06 00 00 00 00    	movl   $0x0,(%esi)
    2a3d:	c7 46 04 00 00 00 00 	movl   $0x0,0x4(%esi)
    2a44:	85 c0                	test   %eax,%eax
    2a46:	74 0c                	je     2a54 <ddf_fun_create+0xb4>
    2a48:	83 ec 0c             	sub    $0xc,%esp
    2a4b:	50                   	push   %eax
    2a4c:	e8 bf aa 00 00       	call   d510 <free@plt>
    2a51:	83 c4 10             	add    $0x10,%esp
    2a54:	83 ec 0c             	sub    $0xc,%esp
    2a57:	56                   	push   %esi
    2a58:	e8 b3 aa 00 00       	call   d510 <free@plt>
    2a5d:	8b 73 1c             	mov    0x1c(%ebx),%esi
    2a60:	83 c4 10             	add    $0x10,%esp
    2a63:	39 f7                	cmp    %esi,%edi
    2a65:	75 b9                	jne    2a20 <ddf_fun_create+0x80>
    2a67:	8b 43 20             	mov    0x20(%ebx),%eax
    2a6a:	85 c0                	test   %eax,%eax
    2a6c:	74 0c                	je     2a7a <ddf_fun_create+0xda>
    2a6e:	83 ec 0c             	sub    $0xc,%esp
    2a71:	50                   	push   %eax
    2a72:	e8 99 aa 00 00       	call   d510 <free@plt>
    2a77:	83 c4 10             	add    $0x10,%esp
    2a7a:	8b 43 14             	mov    0x14(%ebx),%eax
    2a7d:	85 c0                	test   %eax,%eax
    2a7f:	74 0c                	je     2a8d <ddf_fun_create+0xed>
    2a81:	83 ec 0c             	sub    $0xc,%esp
    2a84:	50                   	push   %eax
    2a85:	e8 86 aa 00 00       	call   d510 <free@plt>
    2a8a:	83 c4 10             	add    $0x10,%esp
    2a8d:	83 ec 0c             	sub    $0xc,%esp
    2a90:	53                   	push   %ebx
    2a91:	31 db                	xor    %ebx,%ebx
    2a93:	e8 78 aa 00 00       	call   d510 <free@plt>
    2a98:	83 c4 10             	add    $0x10,%esp
    2a9b:	e9 66 ff ff ff       	jmp    2a06 <ddf_fun_create+0x66>
    2aa0:	8b 43 20             	mov    0x20(%ebx),%eax
    2aa3:	85 c0                	test   %eax,%eax
    2aa5:	75 c7                	jne    2a6e <ddf_fun_create+0xce>
    2aa7:	eb e4                	jmp    2a8d <ddf_fun_create+0xed>
    2aa9:	8d b4 26 00 00 00 00 	lea    0x0(%esi,%eiz,1),%esi

00002ab0 <ddf_fun_data_alloc>:
    2ab0:	55                   	push   %ebp
    2ab1:	89 e5                	mov    %esp,%ebp
    2ab3:	53                   	push   %ebx
    2ab4:	50                   	push   %eax
    2ab5:	8b 5d 08             	mov    0x8(%ebp),%ebx
    2ab8:	80 3b 00             	cmpb   $0x0,(%ebx)
    2abb:	75 23                	jne    2ae0 <ddf_fun_data_alloc+0x30>
    2abd:	8b 43 20             	mov    0x20(%ebx),%eax
    2ac0:	85 c0                	test   %eax,%eax
    2ac2:	75 31                	jne    2af5 <ddf_fun_data_alloc+0x45>
    2ac4:	8b 55 0c             	mov    0xc(%ebp),%edx
    2ac7:	50                   	push   %eax
    2ac8:	50                   	push   %eax
    2ac9:	52                   	push   %edx
    2aca:	6a 01                	push   $0x1
    2acc:	e8 2f a7 00 00       	call   d200 <calloc@plt>
    2ad1:	83 c4 10             	add    $0x10,%esp
    2ad4:	85 c0                	test   %eax,%eax
    2ad6:	74 03                	je     2adb <ddf_fun_data_alloc+0x2b>
    2ad8:	89 43 20             	mov    %eax,0x20(%ebx)
    2adb:	8b 5d fc             	mov    -0x4(%ebp),%ebx
    2ade:	c9                   	leave  
    2adf:	c3                   	ret    
    2ae0:	50                   	push   %eax
    2ae1:	68 c9 02 00 00       	push   $0x2c9
    2ae6:	68 ca b2 00 00       	push   $0xb2ca
    2aeb:	68 49 b3 00 00       	push   $0xb349
    2af0:	e8 eb a6 00 00       	call   d1e0 <assert_abort@plt>
    2af5:	51                   	push   %ecx
    2af6:	68 ca 02 00 00       	push   $0x2ca
    2afb:	68 ca b2 00 00       	push   $0xb2ca
    2b00:	68 5d b3 00 00       	push   $0xb35d
    2b05:	e8 d6 a6 00 00       	call   d1e0 <assert_abort@plt>
    2b0a:	8d b6 00 00 00 00    	lea    0x0(%esi),%esi

00002b10 <ddf_fun_data_get>:
    2b10:	55                   	push   %ebp
    2b11:	89 e5                	mov    %esp,%ebp
    2b13:	8b 45 08             	mov    0x8(%ebp),%eax
    2b16:	5d                   	pop    %ebp
    2b17:	8b 40 20             	mov    0x20(%eax),%eax
    2b1a:	c3                   	ret    
    2b1b:	90                   	nop
    2b1c:	8d 74 26 00          	lea    0x0(%esi,%eiz,1),%esi

00002b20 <ddf_fun_get_name>:
    2b20:	55                   	push   %ebp
    2b21:	89 e5                	mov    %esp,%ebp
    2b23:	8b 45 08             	mov    0x8(%ebp),%eax
    2b26:	5d                   	pop    %ebp
    2b27:	8b 40 14             	mov    0x14(%eax),%eax
    2b2a:	c3                   	ret    
    2b2b:	90                   	nop
    2b2c:	8d 74 26 00          	lea    0x0(%esi,%eiz,1),%esi

00002b30 <ddf_fun_destroy>:
    2b30:	55                   	push   %ebp
    2b31:	89 e5                	mov    %esp,%ebp
    2b33:	57                   	push   %edi
    2b34:	56                   	push   %esi
    2b35:	53                   	push   %ebx
    2b36:	83 ec 1c             	sub    $0x1c,%esp
    2b39:	8b 7d 08             	mov    0x8(%ebp),%edi
    2b3c:	80 3f 00             	cmpb   $0x0,(%edi)
    2b3f:	0f 85 fa 00 00 00    	jne    2c3f <ddf_fun_destroy+0x10f>
    2b45:	8b 77 0c             	mov    0xc(%edi),%esi
    2b48:	83 ca ff             	or     $0xffffffff,%edx
    2b4b:	f0 0f c1 57 08       	lock xadd %edx,0x8(%edi)
    2b50:	4a                   	dec    %edx
    2b51:	74 5d                	je     2bb0 <ddf_fun_destroy+0x80>
    2b53:	83 c8 ff             	or     $0xffffffff,%eax
    2b56:	f0 0f c1 46 04       	lock xadd %eax,0x4(%esi)
    2b5b:	48                   	dec    %eax
    2b5c:	74 0a                	je     2b68 <ddf_fun_destroy+0x38>
    2b5e:	8d 65 f4             	lea    -0xc(%ebp),%esp
    2b61:	5b                   	pop    %ebx
    2b62:	5e                   	pop    %esi
    2b63:	5f                   	pop    %edi
    2b64:	5d                   	pop    %ebp
    2b65:	c3                   	ret    
    2b66:	66 90                	xchg   %ax,%ax
    2b68:	8b 46 08             	mov    0x8(%esi),%eax
    2b6b:	85 c0                	test   %eax,%eax
    2b6d:	74 0c                	je     2b7b <ddf_fun_destroy+0x4b>
    2b6f:	83 ec 0c             	sub    $0xc,%esp
    2b72:	50                   	push   %eax
    2b73:	e8 e8 a4 00 00       	call   d060 <async_hangup@plt>
    2b78:	83 c4 10             	add    $0x10,%esp
    2b7b:	8b 46 10             	mov    0x10(%esi),%eax
    2b7e:	85 c0                	test   %eax,%eax
    2b80:	74 0c                	je     2b8e <ddf_fun_destroy+0x5e>
    2b82:	83 ec 0c             	sub    $0xc,%esp
    2b85:	50                   	push   %eax
    2b86:	e8 85 a9 00 00       	call   d510 <free@plt>
    2b8b:	83 c4 10             	add    $0x10,%esp
    2b8e:	8b 46 0c             	mov    0xc(%esi),%eax
    2b91:	85 c0                	test   %eax,%eax
    2b93:	74 0c                	je     2ba1 <ddf_fun_destroy+0x71>
    2b95:	83 ec 0c             	sub    $0xc,%esp
    2b98:	50                   	push   %eax
    2b99:	e8 72 a9 00 00       	call   d510 <free@plt>
    2b9e:	83 c4 10             	add    $0x10,%esp
    2ba1:	89 75 08             	mov    %esi,0x8(%ebp)
    2ba4:	8d 65 f4             	lea    -0xc(%ebp),%esp
    2ba7:	5b                   	pop    %ebx
    2ba8:	5e                   	pop    %esi
    2ba9:	5f                   	pop    %edi
    2baa:	5d                   	pop    %ebp
    2bab:	e9 60 a9 00 00       	jmp    d510 <free@plt>
    2bb0:	8d 47 18             	lea    0x18(%edi),%eax
    2bb3:	8b 5f 1c             	mov    0x1c(%edi),%ebx
    2bb6:	89 45 e4             	mov    %eax,-0x1c(%ebp)
    2bb9:	39 d8                	cmp    %ebx,%eax
    2bbb:	74 4b                	je     2c08 <ddf_fun_destroy+0xd8>
    2bbd:	8d 76 00             	lea    0x0(%esi),%esi
    2bc0:	8b 0b                	mov    (%ebx),%ecx
    2bc2:	85 c9                	test   %ecx,%ecx
    2bc4:	74 0e                	je     2bd4 <ddf_fun_destroy+0xa4>
    2bc6:	8b 53 04             	mov    0x4(%ebx),%edx
    2bc9:	85 d2                	test   %edx,%edx
    2bcb:	74 07                	je     2bd4 <ddf_fun_destroy+0xa4>
    2bcd:	89 0a                	mov    %ecx,(%edx)
    2bcf:	8b 0b                	mov    (%ebx),%ecx
    2bd1:	89 51 04             	mov    %edx,0x4(%ecx)
    2bd4:	8b 53 08             	mov    0x8(%ebx),%edx
    2bd7:	c7 03 00 00 00 00    	movl   $0x0,(%ebx)
    2bdd:	c7 43 04 00 00 00 00 	movl   $0x0,0x4(%ebx)
    2be4:	85 d2                	test   %edx,%edx
    2be6:	74 0c                	je     2bf4 <ddf_fun_destroy+0xc4>
    2be8:	83 ec 0c             	sub    $0xc,%esp
    2beb:	52                   	push   %edx
    2bec:	e8 1f a9 00 00       	call   d510 <free@plt>
    2bf1:	83 c4 10             	add    $0x10,%esp
    2bf4:	83 ec 0c             	sub    $0xc,%esp
    2bf7:	53                   	push   %ebx
    2bf8:	e8 13 a9 00 00       	call   d510 <free@plt>
    2bfd:	8b 5f 1c             	mov    0x1c(%edi),%ebx
    2c00:	83 c4 10             	add    $0x10,%esp
    2c03:	3b 5d e4             	cmp    -0x1c(%ebp),%ebx
    2c06:	75 b8                	jne    2bc0 <ddf_fun_destroy+0x90>
    2c08:	8b 57 20             	mov    0x20(%edi),%edx
    2c0b:	85 d2                	test   %edx,%edx
    2c0d:	74 0c                	je     2c1b <ddf_fun_destroy+0xeb>
    2c0f:	83 ec 0c             	sub    $0xc,%esp
    2c12:	52                   	push   %edx
    2c13:	e8 f8 a8 00 00       	call   d510 <free@plt>
    2c18:	83 c4 10             	add    $0x10,%esp
    2c1b:	8b 57 14             	mov    0x14(%edi),%edx
    2c1e:	85 d2                	test   %edx,%edx
    2c20:	74 0c                	je     2c2e <ddf_fun_destroy+0xfe>
    2c22:	83 ec 0c             	sub    $0xc,%esp
    2c25:	52                   	push   %edx
    2c26:	e8 e5 a8 00 00       	call   d510 <free@plt>
    2c2b:	83 c4 10             	add    $0x10,%esp
    2c2e:	83 ec 0c             	sub    $0xc,%esp
    2c31:	57                   	push   %edi
    2c32:	e8 d9 a8 00 00       	call   d510 <free@plt>
    2c37:	83 c4 10             	add    $0x10,%esp
    2c3a:	e9 14 ff ff ff       	jmp    2b53 <ddf_fun_destroy+0x23>
    2c3f:	50                   	push   %eax
    2c40:	68 ee 02 00 00       	push   $0x2ee
    2c45:	68 ca b2 00 00       	push   $0xb2ca
    2c4a:	68 49 b3 00 00       	push   $0xb349
    2c4f:	e8 8c a5 00 00       	call   d1e0 <assert_abort@plt>
    2c54:	8d b6 00 00 00 00    	lea    0x0(%esi),%esi
    2c5a:	8d bf 00 00 00 00    	lea    0x0(%edi),%edi

00002c60 <ddf_fun_bind>:
    2c60:	55                   	push   %ebp
    2c61:	89 e5                	mov    %esp,%ebp
    2c63:	53                   	push   %ebx
    2c64:	83 ec 14             	sub    $0x14,%esp
    2c67:	8b 5d 08             	mov    0x8(%ebp),%ebx
    2c6a:	80 3b 00             	cmpb   $0x0,(%ebx)
    2c6d:	0f 85 d2 00 00 00    	jne    2d45 <ddf_fun_bind+0xe5>
    2c73:	8b 43 14             	mov    0x14(%ebx),%eax
    2c76:	85 c0                	test   %eax,%eax
    2c78:	0f 84 f1 00 00 00    	je     2d6f <ddf_fun_bind+0x10f>
    2c7e:	8b 43 0c             	mov    0xc(%ebx),%eax
    2c81:	85 c0                	test   %eax,%eax
    2c83:	0f 84 d1 00 00 00    	je     2d5a <ddf_fun_bind+0xfa>
    2c89:	83 ec 0c             	sub    $0xc,%esp
    2c8c:	68 74 f4 00 00       	push   $0xf474
    2c91:	e8 9a a8 00 00       	call   d530 <fibril_mutex_lock@plt>
    2c96:	8b 15 84 f4 00 00    	mov    0xf484,%edx
    2c9c:	8d 43 2c             	lea    0x2c(%ebx),%eax
    2c9f:	89 53 2c             	mov    %edx,0x2c(%ebx)
    2ca2:	c7 43 30 84 f4 00 00 	movl   $0xf484,0x30(%ebx)
    2ca9:	89 42 04             	mov    %eax,0x4(%edx)
    2cac:	a3 84 f4 00 00       	mov    %eax,0xf484
    2cb1:	c7 04 24 74 f4 00 00 	movl   $0xf474,(%esp)
    2cb8:	e8 c3 a5 00 00       	call   d280 <fibril_mutex_unlock@plt>
    2cbd:	8d 43 04             	lea    0x4(%ebx),%eax
    2cc0:	8b 53 10             	mov    0x10(%ebx),%edx
    2cc3:	89 04 24             	mov    %eax,(%esp)
    2cc6:	8b 43 0c             	mov    0xc(%ebx),%eax
    2cc9:	8b 4b 14             	mov    0x14(%ebx),%ecx
    2ccc:	8b 00                	mov    (%eax),%eax
    2cce:	50                   	push   %eax
    2ccf:	8d 43 18             	lea    0x18(%ebx),%eax
    2cd2:	50                   	push   %eax
    2cd3:	52                   	push   %edx
    2cd4:	51                   	push   %ecx
    2cd5:	e8 d6 a4 00 00       	call   d1b0 <devman_add_function@plt>
    2cda:	83 c4 20             	add    $0x20,%esp
    2cdd:	85 c0                	test   %eax,%eax
    2cdf:	75 0f                	jne    2cf0 <ddf_fun_bind+0x90>
    2ce1:	c6 03 01             	movb   $0x1,(%ebx)
    2ce4:	8b 5d fc             	mov    -0x4(%ebp),%ebx
    2ce7:	c9                   	leave  
    2ce8:	c3                   	ret    
    2ce9:	8d b4 26 00 00 00 00 	lea    0x0(%esi,%eiz,1),%esi
    2cf0:	83 ec 0c             	sub    $0xc,%esp
    2cf3:	89 45 f4             	mov    %eax,-0xc(%ebp)
    2cf6:	68 74 f4 00 00       	push   $0xf474
    2cfb:	e8 30 a8 00 00       	call   d530 <fibril_mutex_lock@plt>
    2d00:	8b 4b 2c             	mov    0x2c(%ebx),%ecx
    2d03:	83 c4 10             	add    $0x10,%esp
    2d06:	8b 45 f4             	mov    -0xc(%ebp),%eax
    2d09:	85 c9                	test   %ecx,%ecx
    2d0b:	74 0f                	je     2d1c <ddf_fun_bind+0xbc>
    2d0d:	8b 53 30             	mov    0x30(%ebx),%edx
    2d10:	85 d2                	test   %edx,%edx
    2d12:	74 08                	je     2d1c <ddf_fun_bind+0xbc>
    2d14:	89 0a                	mov    %ecx,(%edx)
    2d16:	8b 4b 2c             	mov    0x2c(%ebx),%ecx
    2d19:	89 51 04             	mov    %edx,0x4(%ecx)
    2d1c:	83 ec 0c             	sub    $0xc,%esp
    2d1f:	c7 43 2c 00 00 00 00 	movl   $0x0,0x2c(%ebx)
    2d26:	c7 43 30 00 00 00 00 	movl   $0x0,0x30(%ebx)
    2d2d:	89 45 f4             	mov    %eax,-0xc(%ebp)
    2d30:	68 74 f4 00 00       	push   $0xf474
    2d35:	e8 46 a5 00 00       	call   d280 <fibril_mutex_unlock@plt>
    2d3a:	8b 45 f4             	mov    -0xc(%ebp),%eax
    2d3d:	83 c4 10             	add    $0x10,%esp
    2d40:	8b 5d fc             	mov    -0x4(%ebp),%ebx
    2d43:	c9                   	leave  
    2d44:	c3                   	ret    
    2d45:	50                   	push   %eax
    2d46:	68 12 03 00 00       	push   $0x312
    2d4b:	68 ca b2 00 00       	push   $0xb2ca
    2d50:	68 49 b3 00 00       	push   $0xb349
    2d55:	e8 86 a4 00 00       	call   d1e0 <assert_abort@plt>
    2d5a:	53                   	push   %ebx
    2d5b:	68 14 03 00 00       	push   $0x314
    2d60:	68 ca b2 00 00       	push   $0xb2ca
    2d65:	68 88 b3 00 00       	push   $0xb388
    2d6a:	e8 71 a4 00 00       	call   d1e0 <assert_abort@plt>
    2d6f:	50                   	push   %eax
    2d70:	68 13 03 00 00       	push   $0x313
    2d75:	68 ca b2 00 00       	push   $0xb2ca
    2d7a:	68 76 b3 00 00       	push   $0xb376
    2d7f:	e8 5c a4 00 00       	call   d1e0 <assert_abort@plt>
    2d84:	8d b6 00 00 00 00    	lea    0x0(%esi),%esi
    2d8a:	8d bf 00 00 00 00    	lea    0x0(%edi),%edi

00002d90 <ddf_fun_unbind>:
    2d90:	55                   	push   %ebp
    2d91:	89 e5                	mov    %esp,%ebp
    2d93:	53                   	push   %ebx
    2d94:	83 ec 14             	sub    $0x14,%esp
    2d97:	8b 5d 08             	mov    0x8(%ebp),%ebx
    2d9a:	80 3b 00             	cmpb   $0x0,(%ebx)
    2d9d:	74 71                	je     2e10 <ddf_fun_unbind+0x80>
    2d9f:	83 ec 0c             	sub    $0xc,%esp
    2da2:	8b 43 04             	mov    0x4(%ebx),%eax
    2da5:	50                   	push   %eax
    2da6:	e8 75 a4 00 00       	call   d220 <devman_remove_function@plt>
    2dab:	83 c4 10             	add    $0x10,%esp
    2dae:	85 c0                	test   %eax,%eax
    2db0:	74 06                	je     2db8 <ddf_fun_unbind+0x28>
    2db2:	8b 5d fc             	mov    -0x4(%ebp),%ebx
    2db5:	c9                   	leave  
    2db6:	c3                   	ret    
    2db7:	90                   	nop
    2db8:	83 ec 0c             	sub    $0xc,%esp
    2dbb:	89 45 f4             	mov    %eax,-0xc(%ebp)
    2dbe:	68 74 f4 00 00       	push   $0xf474
    2dc3:	e8 68 a7 00 00       	call   d530 <fibril_mutex_lock@plt>
    2dc8:	8b 4b 2c             	mov    0x2c(%ebx),%ecx
    2dcb:	83 c4 10             	add    $0x10,%esp
    2dce:	8b 45 f4             	mov    -0xc(%ebp),%eax
    2dd1:	85 c9                	test   %ecx,%ecx
    2dd3:	74 0f                	je     2de4 <ddf_fun_unbind+0x54>
    2dd5:	8b 53 30             	mov    0x30(%ebx),%edx
    2dd8:	85 d2                	test   %edx,%edx
    2dda:	74 08                	je     2de4 <ddf_fun_unbind+0x54>
    2ddc:	89 0a                	mov    %ecx,(%edx)
    2dde:	8b 4b 2c             	mov    0x2c(%ebx),%ecx
    2de1:	89 51 04             	mov    %edx,0x4(%ecx)
    2de4:	83 ec 0c             	sub    $0xc,%esp
    2de7:	c7 43 2c 00 00 00 00 	movl   $0x0,0x2c(%ebx)
    2dee:	c7 43 30 00 00 00 00 	movl   $0x0,0x30(%ebx)
    2df5:	89 45 f4             	mov    %eax,-0xc(%ebp)
    2df8:	68 74 f4 00 00       	push   $0xf474
    2dfd:	e8 7e a4 00 00       	call   d280 <fibril_mutex_unlock@plt>
    2e02:	c6 03 00             	movb   $0x0,(%ebx)
    2e05:	8b 45 f4             	mov    -0xc(%ebp),%eax
    2e08:	83 c4 10             	add    $0x10,%esp
    2e0b:	8b 5d fc             	mov    -0x4(%ebp),%ebx
    2e0e:	c9                   	leave  
    2e0f:	c3                   	ret    
    2e10:	52                   	push   %edx
    2e11:	68 2e 03 00 00       	push   $0x32e
    2e16:	68 ca b2 00 00       	push   $0xb2ca
    2e1b:	68 99 b3 00 00       	push   $0xb399
    2e20:	e8 bb a3 00 00       	call   d1e0 <assert_abort@plt>
    2e25:	8d 74 26 00          	lea    0x0(%esi,%eiz,1),%esi
    2e29:	8d bc 27 00 00 00 00 	lea    0x0(%edi,%eiz,1),%edi

00002e30 <ddf_fun_online>:
    2e30:	55                   	push   %ebp
    2e31:	89 e5                	mov    %esp,%ebp
    2e33:	83 ec 08             	sub    $0x8,%esp
    2e36:	8b 45 08             	mov    0x8(%ebp),%eax
    2e39:	80 38 00             	cmpb   $0x0,(%eax)
    2e3c:	74 0c                	je     2e4a <ddf_fun_online+0x1a>
    2e3e:	8b 40 04             	mov    0x4(%eax),%eax
    2e41:	89 45 08             	mov    %eax,0x8(%ebp)
    2e44:	c9                   	leave  
    2e45:	e9 86 a2 00 00       	jmp    d0d0 <devman_drv_fun_online@plt>
    2e4a:	50                   	push   %eax
    2e4b:	68 43 03 00 00       	push   $0x343
    2e50:	68 ca b2 00 00       	push   $0xb2ca
    2e55:	68 99 b3 00 00       	push   $0xb399
    2e5a:	e8 81 a3 00 00       	call   d1e0 <assert_abort@plt>
    2e5f:	90                   	nop

00002e60 <ddf_fun_offline>:
    2e60:	55                   	push   %ebp
    2e61:	89 e5                	mov    %esp,%ebp
    2e63:	83 ec 08             	sub    $0x8,%esp
    2e66:	8b 45 08             	mov    0x8(%ebp),%eax
    2e69:	80 38 00             	cmpb   $0x0,(%eax)
    2e6c:	74 0c                	je     2e7a <ddf_fun_offline+0x1a>
    2e6e:	8b 40 04             	mov    0x4(%eax),%eax
    2e71:	89 45 08             	mov    %eax,0x8(%ebp)
    2e74:	c9                   	leave  
    2e75:	e9 96 a4 00 00       	jmp    d310 <devman_drv_fun_offline@plt>
    2e7a:	50                   	push   %eax
    2e7b:	68 55 03 00 00       	push   $0x355
    2e80:	68 ca b2 00 00       	push   $0xb2ca
    2e85:	68 99 b3 00 00       	push   $0xb399
    2e8a:	e8 51 a3 00 00       	call   d1e0 <assert_abort@plt>
    2e8f:	90                   	nop

00002e90 <ddf_fun_add_match_id>:
    2e90:	55                   	push   %ebp
    2e91:	89 e5                	mov    %esp,%ebp
    2e93:	57                   	push   %edi
    2e94:	56                   	push   %esi
    2e95:	53                   	push   %ebx
    2e96:	83 ec 0c             	sub    $0xc,%esp
    2e99:	8b 5d 08             	mov    0x8(%ebp),%ebx
    2e9c:	8b 75 10             	mov    0x10(%ebp),%esi
    2e9f:	80 3b 00             	cmpb   $0x0,(%ebx)
    2ea2:	0f 85 89 00 00 00    	jne    2f31 <ddf_fun_add_match_id+0xa1>
    2ea8:	83 7b 10 01          	cmpl   $0x1,0x10(%ebx)
    2eac:	75 6e                	jne    2f1c <ddf_fun_add_match_id+0x8c>
    2eae:	83 ec 0c             	sub    $0xc,%esp
    2eb1:	6a 10                	push   $0x10
    2eb3:	e8 68 a2 00 00       	call   d120 <malloc@plt>
    2eb8:	83 c4 0c             	add    $0xc,%esp
    2ebb:	89 c7                	mov    %eax,%edi
    2ebd:	6a 10                	push   $0x10
    2ebf:	6a 00                	push   $0x0
    2ec1:	50                   	push   %eax
    2ec2:	e8 99 a4 00 00       	call   d360 <memset@plt>
    2ec7:	8b 55 0c             	mov    0xc(%ebp),%edx
    2eca:	58                   	pop    %eax
    2ecb:	52                   	push   %edx
    2ecc:	e8 cf a3 00 00       	call   d2a0 <str_dup@plt>
    2ed1:	8d 53 18             	lea    0x18(%ebx),%edx
    2ed4:	89 47 08             	mov    %eax,0x8(%edi)
    2ed7:	8b 43 1c             	mov    0x1c(%ebx),%eax
    2eda:	83 c4 10             	add    $0x10,%esp
    2edd:	89 77 0c             	mov    %esi,0xc(%edi)
    2ee0:	39 c2                	cmp    %eax,%edx
    2ee2:	74 18                	je     2efc <ddf_fun_add_match_id+0x6c>
    2ee4:	39 70 0c             	cmp    %esi,0xc(%eax)
    2ee7:	73 0c                	jae    2ef5 <ddf_fun_add_match_id+0x65>
    2ee9:	eb 2d                	jmp    2f18 <ddf_fun_add_match_id+0x88>
    2eeb:	90                   	nop
    2eec:	8d 74 26 00          	lea    0x0(%esi,%eiz,1),%esi
    2ef0:	3b 70 0c             	cmp    0xc(%eax),%esi
    2ef3:	77 23                	ja     2f18 <ddf_fun_add_match_id+0x88>
    2ef5:	8b 40 04             	mov    0x4(%eax),%eax
    2ef8:	39 c2                	cmp    %eax,%edx
    2efa:	75 f4                	jne    2ef0 <ddf_fun_add_match_id+0x60>
    2efc:	8b 02                	mov    (%edx),%eax
    2efe:	89 57 04             	mov    %edx,0x4(%edi)
    2f01:	89 07                	mov    %eax,(%edi)
    2f03:	8b 02                	mov    (%edx),%eax
    2f05:	89 78 04             	mov    %edi,0x4(%eax)
    2f08:	89 3a                	mov    %edi,(%edx)
    2f0a:	8d 65 f4             	lea    -0xc(%ebp),%esp
    2f0d:	31 c0                	xor    %eax,%eax
    2f0f:	5b                   	pop    %ebx
    2f10:	5e                   	pop    %esi
    2f11:	5f                   	pop    %edi
    2f12:	5d                   	pop    %ebp
    2f13:	c3                   	ret    
    2f14:	8d 74 26 00          	lea    0x0(%esi,%eiz,1),%esi
    2f18:	89 c2                	mov    %eax,%edx
    2f1a:	eb e0                	jmp    2efc <ddf_fun_add_match_id+0x6c>
    2f1c:	51                   	push   %ecx
    2f1d:	68 6f 03 00 00       	push   $0x36f
    2f22:	68 ca b2 00 00       	push   $0xb2ca
    2f27:	68 ac b3 00 00       	push   $0xb3ac
    2f2c:	e8 af a2 00 00       	call   d1e0 <assert_abort@plt>
    2f31:	53                   	push   %ebx
    2f32:	68 6e 03 00 00       	push   $0x36e
    2f37:	68 ca b2 00 00       	push   $0xb2ca
    2f3c:	68 49 b3 00 00       	push   $0xb349
    2f41:	e8 9a a2 00 00       	call   d1e0 <assert_abort@plt>
    2f46:	8d 76 00             	lea    0x0(%esi),%esi
    2f49:	8d bc 27 00 00 00 00 	lea    0x0(%edi,%eiz,1),%edi

00002f50 <ddf_fun_set_ops>:
    2f50:	55                   	push   %ebp
    2f51:	89 e5                	mov    %esp,%ebp
    2f53:	83 ec 08             	sub    $0x8,%esp
    2f56:	8b 45 08             	mov    0x8(%ebp),%eax
    2f59:	8b 48 28             	mov    0x28(%eax),%ecx
    2f5c:	85 c9                	test   %ecx,%ecx
    2f5e:	75 08                	jne    2f68 <ddf_fun_set_ops+0x18>
    2f60:	8b 55 0c             	mov    0xc(%ebp),%edx
    2f63:	89 50 24             	mov    %edx,0x24(%eax)
    2f66:	c9                   	leave  
    2f67:	c3                   	ret    
    2f68:	50                   	push   %eax
    2f69:	68 7f 03 00 00       	push   $0x37f
    2f6e:	68 ca b2 00 00       	push   $0xb2ca
    2f73:	68 c4 b3 00 00       	push   $0xb3c4
    2f78:	e8 63 a2 00 00       	call   d1e0 <assert_abort@plt>
    2f7d:	8d 76 00             	lea    0x0(%esi),%esi

00002f80 <ddf_fun_set_conn_handler>:
    2f80:	55                   	push   %ebp
    2f81:	89 e5                	mov    %esp,%ebp
    2f83:	83 ec 08             	sub    $0x8,%esp
    2f86:	8b 45 08             	mov    0x8(%ebp),%eax
    2f89:	8b 48 24             	mov    0x24(%eax),%ecx
    2f8c:	85 c9                	test   %ecx,%ecx
    2f8e:	75 08                	jne    2f98 <ddf_fun_set_conn_handler+0x18>
    2f90:	8b 55 0c             	mov    0xc(%ebp),%edx
    2f93:	89 50 28             	mov    %edx,0x28(%eax)
    2f96:	c9                   	leave  
    2f97:	c3                   	ret    
    2f98:	50                   	push   %eax
    2f99:	68 89 03 00 00       	push   $0x389
    2f9e:	68 ca b2 00 00       	push   $0xb2ca
    2fa3:	68 de b3 00 00       	push   $0xb3de
    2fa8:	e8 33 a2 00 00       	call   d1e0 <assert_abort@plt>
    2fad:	8d 76 00             	lea    0x0(%esi),%esi

00002fb0 <ddf_fun_add_to_category>:
    2fb0:	55                   	push   %ebp
    2fb1:	89 e5                	mov    %esp,%ebp
    2fb3:	83 ec 08             	sub    $0x8,%esp
    2fb6:	8b 45 08             	mov    0x8(%ebp),%eax
    2fb9:	8b 55 0c             	mov    0xc(%ebp),%edx
    2fbc:	80 38 00             	cmpb   $0x0,(%eax)
    2fbf:	74 15                	je     2fd6 <ddf_fun_add_to_category+0x26>
    2fc1:	83 78 10 02          	cmpl   $0x2,0x10(%eax)
    2fc5:	75 24                	jne    2feb <ddf_fun_add_to_category+0x3b>
    2fc7:	89 55 0c             	mov    %edx,0xc(%ebp)
    2fca:	8b 40 04             	mov    0x4(%eax),%eax
    2fcd:	89 45 08             	mov    %eax,0x8(%ebp)
    2fd0:	c9                   	leave  
    2fd1:	e9 5a a1 00 00       	jmp    d130 <devman_add_device_to_category@plt>
    2fd6:	52                   	push   %edx
    2fd7:	68 9c 03 00 00       	push   $0x39c
    2fdc:	68 ca b2 00 00       	push   $0xb2ca
    2fe1:	68 99 b3 00 00       	push   $0xb399
    2fe6:	e8 f5 a1 00 00       	call   d1e0 <assert_abort@plt>
    2feb:	50                   	push   %eax
    2fec:	68 9d 03 00 00       	push   $0x39d
    2ff1:	68 ca b2 00 00       	push   $0xb2ca
    2ff6:	68 ef b3 00 00       	push   $0xb3ef
    2ffb:	e8 e0 a1 00 00       	call   d1e0 <assert_abort@plt>

00003000 <ddf_driver_main>:
    3000:	55                   	push   %ebp
    3001:	89 e5                	mov    %esp,%ebp
    3003:	56                   	push   %esi
    3004:	53                   	push   %ebx
    3005:	83 ec 10             	sub    $0x10,%esp
    3008:	8d 75 f4             	lea    -0xc(%ebp),%esi
    300b:	8b 45 08             	mov    0x8(%ebp),%eax
    300e:	56                   	push   %esi
    300f:	a3 88 f6 00 00       	mov    %eax,0xf688
    3014:	6a 00                	push   $0x0
    3016:	68 60 23 00 00       	push   $0x2360
    301b:	68 41 26 9b c9       	push   $0xc99b2641
    3020:	e8 4b a4 00 00       	call   d470 <async_create_port@plt>
    3025:	83 c4 10             	add    $0x10,%esp
    3028:	89 c3                	mov    %eax,%ebx
    302a:	85 c0                	test   %eax,%eax
    302c:	74 0a                	je     3038 <ddf_driver_main+0x38>
    302e:	8d 65 f8             	lea    -0x8(%ebp),%esp
    3031:	89 d8                	mov    %ebx,%eax
    3033:	5b                   	pop    %ebx
    3034:	5e                   	pop    %esi
    3035:	5d                   	pop    %ebp
    3036:	c3                   	ret    
    3037:	90                   	nop
    3038:	56                   	push   %esi
    3039:	6a 00                	push   $0x0
    303b:	68 80 23 00 00       	push   $0x2380
    3040:	68 41 26 9b db       	push   $0xdb9b2641
    3045:	e8 26 a4 00 00       	call   d470 <async_create_port@plt>
    304a:	83 c4 10             	add    $0x10,%esp
    304d:	89 c3                	mov    %eax,%ebx
    304f:	85 c0                	test   %eax,%eax
    3051:	75 db                	jne    302e <ddf_driver_main+0x2e>
    3053:	51                   	push   %ecx
    3054:	51                   	push   %ecx
    3055:	6a 00                	push   $0x0
    3057:	68 70 23 00 00       	push   $0x2370
    305c:	e8 8f a4 00 00       	call   d4f0 <async_set_fallback_port_handler@plt>
    3061:	a1 88 f6 00 00       	mov    0xf688,%eax
    3066:	8b 30                	mov    (%eax),%esi
    3068:	5b                   	pop    %ebx
    3069:	56                   	push   %esi
    306a:	e8 e1 a2 00 00       	call   d350 <devman_driver_register@plt>
    306f:	83 c4 10             	add    $0x10,%esp
    3072:	89 c3                	mov    %eax,%ebx
    3074:	85 c0                	test   %eax,%eax
    3076:	74 30                	je     30a8 <ddf_driver_main+0xa8>
    3078:	b8 09 b4 00 00       	mov    $0xb409,%eax
    307d:	83 fb f7             	cmp    $0xfffffff7,%ebx
    3080:	74 0c                	je     308e <ddf_driver_main+0x8e>
    3082:	83 ec 0c             	sub    $0xc,%esp
    3085:	53                   	push   %ebx
    3086:	e8 95 a3 00 00       	call   d420 <str_error@plt>
    308b:	83 c4 10             	add    $0x10,%esp
    308e:	52                   	push   %edx
    308f:	52                   	push   %edx
    3090:	50                   	push   %eax
    3091:	68 94 b5 00 00       	push   $0xb594
    3096:	e8 b5 9f 00 00       	call   d050 <printf@plt>
    309b:	83 c4 10             	add    $0x10,%esp
    309e:	8d 65 f8             	lea    -0x8(%ebp),%esp
    30a1:	89 d8                	mov    %ebx,%eax
    30a3:	5b                   	pop    %ebx
    30a4:	5e                   	pop    %esi
    30a5:	5d                   	pop    %ebp
    30a6:	c3                   	ret    
    30a7:	90                   	nop
    30a8:	83 ec 0c             	sub    $0xc,%esp
    30ab:	6a 00                	push   $0x0
    30ad:	e8 6e 9f 00 00       	call   d020 <task_retval@plt>
    30b2:	83 c4 10             	add    $0x10,%esp
    30b5:	89 c3                	mov    %eax,%ebx
    30b7:	85 c0                	test   %eax,%eax
    30b9:	0f 85 6f ff ff ff    	jne    302e <ddf_driver_main+0x2e>
    30bf:	83 c8 ff             	or     $0xffffffff,%eax
    30c2:	f0 0f c1 05 24 f6 00 	lock xadd %eax,0xf624
    30c9:	00 
    30ca:	48                   	dec    %eax
    30cb:	78 12                	js     30df <ddf_driver_main+0xdf>
    30cd:	83 ec 0c             	sub    $0xc,%esp
    30d0:	6a 03                	push   $0x3
    30d2:	e8 d9 a3 00 00       	call   d4b0 <fibril_switch@plt>
    30d7:	83 c4 10             	add    $0x10,%esp
    30da:	e9 4f ff ff ff       	jmp    302e <ddf_driver_main+0x2e>
    30df:	50                   	push   %eax
    30e0:	6a 0b                	push   $0xb
    30e2:	6a 00                	push   $0x0
    30e4:	6a 00                	push   $0x0
    30e6:	6a 00                	push   $0x0
    30e8:	6a 00                	push   $0x0
    30ea:	6a 00                	push   $0x0
    30ec:	68 24 f6 00 00       	push   $0xf624
    30f1:	ff 15 20 f6 00 00    	call   *0xf620
    30f7:	83 c4 20             	add    $0x20,%esp
    30fa:	eb d1                	jmp    30cd <ddf_driver_main+0xcd>
    30fc:	66 90                	xchg   %ax,%ax
    30fe:	66 90                	xchg   %ax,%ax

00003100 <get_remote_iface>:
    3100:	55                   	push   %ebp
    3101:	89 e5                	mov    %esp,%ebp
    3103:	83 ec 08             	sub    $0x8,%esp
    3106:	8b 45 08             	mov    0x8(%ebp),%eax
    3109:	83 f8 0e             	cmp    $0xe,%eax
    310c:	77 09                	ja     3117 <get_remote_iface+0x17>
    310e:	8b 04 85 00 b6 00 00 	mov    0xb600(,%eax,4),%eax
    3115:	c9                   	leave  
    3116:	c3                   	ret    
    3117:	50                   	push   %eax
    3118:	6a 4f                	push   $0x4f
    311a:	68 e4 b5 00 00       	push   $0xb5e4
    311f:	68 db b2 00 00       	push   $0xb2db
    3124:	e8 b7 a0 00 00       	call   d1e0 <assert_abort@plt>
    3129:	8d b4 26 00 00 00 00 	lea    0x0(%esi,%eiz,1),%esi

00003130 <get_remote_method>:
    3130:	55                   	push   %ebp
    3131:	89 e5                	mov    %esp,%ebp
    3133:	8b 55 08             	mov    0x8(%ebp),%edx
    3136:	8b 45 0c             	mov    0xc(%ebp),%eax
    3139:	39 02                	cmp    %eax,(%edx)
    313b:	76 0b                	jbe    3148 <get_remote_method+0x18>
    313d:	8b 52 04             	mov    0x4(%edx),%edx
    3140:	5d                   	pop    %ebp
    3141:	8b 04 82             	mov    (%edx,%eax,4),%eax
    3144:	c3                   	ret    
    3145:	8d 76 00             	lea    0x0(%esi),%esi
    3148:	31 c0                	xor    %eax,%eax
    314a:	5d                   	pop    %ebp
    314b:	c3                   	ret    
    314c:	8d 74 26 00          	lea    0x0(%esi,%eiz,1),%esi

00003150 <is_valid_iface_idx>:
    3150:	55                   	push   %ebp
    3151:	89 e5                	mov    %esp,%ebp
    3153:	83 7d 08 0e          	cmpl   $0xe,0x8(%ebp)
    3157:	5d                   	pop    %ebp
    3158:	0f 96 c0             	setbe  %al
    315b:	c3                   	ret    
    315c:	66 90                	xchg   %ax,%ax
    315e:	66 90                	xchg   %ax,%ax

00003160 <ddf_log_init>:
    3160:	55                   	push   %ebp
    3161:	89 e5                	mov    %esp,%ebp
    3163:	5d                   	pop    %ebp
    3164:	e9 37 9f 00 00       	jmp    d0a0 <log_init@plt>
    3169:	8d b4 26 00 00 00 00 	lea    0x0(%esi,%eiz,1),%esi

00003170 <ddf_msg>:
    3170:	55                   	push   %ebp
    3171:	89 e5                	mov    %esp,%ebp
    3173:	83 ec 08             	sub    $0x8,%esp
    3176:	8d 45 10             	lea    0x10(%ebp),%eax
    3179:	8b 55 0c             	mov    0xc(%ebp),%edx
    317c:	8b 4d 08             	mov    0x8(%ebp),%ecx
    317f:	50                   	push   %eax
    3180:	52                   	push   %edx
    3181:	51                   	push   %ecx
    3182:	6a ff                	push   $0xffffffff
    3184:	e8 17 a0 00 00       	call   d1a0 <log_msgv@plt>
    3189:	83 c4 10             	add    $0x10,%esp
    318c:	c9                   	leave  
    318d:	c3                   	ret    
    318e:	66 90                	xchg   %ax,%ax

00003190 <remote_audio_mixer_set_item_level>:
    3190:	55                   	push   %ebp
    3191:	89 e5                	mov    %esp,%ebp
    3193:	53                   	push   %ebx
    3194:	51                   	push   %ecx
    3195:	8b 45 0c             	mov    0xc(%ebp),%eax
    3198:	8b 4d 08             	mov    0x8(%ebp),%ecx
    319b:	8b 5d 10             	mov    0x10(%ebp),%ebx
    319e:	8b 55 14             	mov    0x14(%ebp),%edx
    31a1:	8b 40 0c             	mov    0xc(%eax),%eax
    31a4:	85 c0                	test   %eax,%eax
    31a6:	74 20                	je     31c8 <remote_audio_mixer_set_item_level+0x38>
    31a8:	83 ec 04             	sub    $0x4,%esp
    31ab:	ff 72 0c             	pushl  0xc(%edx)
    31ae:	8b 52 08             	mov    0x8(%edx),%edx
    31b1:	52                   	push   %edx
    31b2:	51                   	push   %ecx
    31b3:	ff d0                	call   *%eax
    31b5:	89 5d 08             	mov    %ebx,0x8(%ebp)
    31b8:	83 c4 10             	add    $0x10,%esp
    31bb:	8b 5d fc             	mov    -0x4(%ebp),%ebx
    31be:	89 45 0c             	mov    %eax,0xc(%ebp)
    31c1:	c9                   	leave  
    31c2:	e9 99 9f 00 00       	jmp    d160 <async_answer_0@plt>
    31c7:	90                   	nop
    31c8:	89 5d 08             	mov    %ebx,0x8(%ebp)
    31cb:	8b 5d fc             	mov    -0x4(%ebp),%ebx
    31ce:	c7 45 0c f5 ff ff ff 	movl   $0xfffffff5,0xc(%ebp)
    31d5:	c9                   	leave  
    31d6:	e9 85 9f 00 00       	jmp    d160 <async_answer_0@plt>
    31db:	90                   	nop
    31dc:	8d 74 26 00          	lea    0x0(%esi,%eiz,1),%esi

000031e0 <remote_audio_mixer_get_item_level>:
    31e0:	55                   	push   %ebp
    31e1:	89 e5                	mov    %esp,%ebp
    31e3:	83 ec 18             	sub    $0x18,%esp
    31e6:	8b 45 0c             	mov    0xc(%ebp),%eax
    31e9:	8b 40 08             	mov    0x8(%eax),%eax
    31ec:	85 c0                	test   %eax,%eax
    31ee:	74 30                	je     3220 <remote_audio_mixer_get_item_level+0x40>
    31f0:	8b 55 14             	mov    0x14(%ebp),%edx
    31f3:	c7 45 f4 00 00 00 00 	movl   $0x0,-0xc(%ebp)
    31fa:	8b 52 08             	mov    0x8(%edx),%edx
    31fd:	51                   	push   %ecx
    31fe:	8d 4d f4             	lea    -0xc(%ebp),%ecx
    3201:	51                   	push   %ecx
    3202:	52                   	push   %edx
    3203:	8b 55 08             	mov    0x8(%ebp),%edx
    3206:	52                   	push   %edx
    3207:	ff d0                	call   *%eax
    3209:	83 c4 0c             	add    $0xc,%esp
    320c:	8b 4d f4             	mov    -0xc(%ebp),%ecx
    320f:	51                   	push   %ecx
    3210:	50                   	push   %eax
    3211:	8b 45 10             	mov    0x10(%ebp),%eax
    3214:	50                   	push   %eax
    3215:	e8 e6 a1 00 00       	call   d400 <async_answer_1@plt>
    321a:	83 c4 10             	add    $0x10,%esp
    321d:	c9                   	leave  
    321e:	c3                   	ret    
    321f:	90                   	nop
    3220:	50                   	push   %eax
    3221:	50                   	push   %eax
    3222:	8b 45 10             	mov    0x10(%ebp),%eax
    3225:	6a f5                	push   $0xfffffff5
    3227:	50                   	push   %eax
    3228:	e8 33 9f 00 00       	call   d160 <async_answer_0@plt>
    322d:	83 c4 10             	add    $0x10,%esp
    3230:	c9                   	leave  
    3231:	c3                   	ret    
    3232:	8d b4 26 00 00 00 00 	lea    0x0(%esi,%eiz,1),%esi
    3239:	8d bc 27 00 00 00 00 	lea    0x0(%edi,%eiz,1),%edi

00003240 <remote_audio_mixer_get_item_info>:
    3240:	55                   	push   %ebp
    3241:	89 e5                	mov    %esp,%ebp
    3243:	56                   	push   %esi
    3244:	53                   	push   %ebx
    3245:	83 ec 10             	sub    $0x10,%esp
    3248:	8b 45 0c             	mov    0xc(%ebp),%eax
    324b:	8b 40 04             	mov    0x4(%eax),%eax
    324e:	85 c0                	test   %eax,%eax
    3250:	0f 84 c2 00 00 00    	je     3318 <remote_audio_mixer_get_item_info+0xd8>
    3256:	8b 55 14             	mov    0x14(%ebp),%edx
    3259:	8d 4d ec             	lea    -0x14(%ebp),%ecx
    325c:	c7 45 e8 00 00 00 00 	movl   $0x0,-0x18(%ebp)
    3263:	c7 45 ec 00 00 00 00 	movl   $0x0,-0x14(%ebp)
    326a:	8b 52 08             	mov    0x8(%edx),%edx
    326d:	51                   	push   %ecx
    326e:	8d 4d e8             	lea    -0x18(%ebp),%ecx
    3271:	51                   	push   %ecx
    3272:	8b 4d 08             	mov    0x8(%ebp),%ecx
    3275:	52                   	push   %edx
    3276:	51                   	push   %ecx
    3277:	ff d0                	call   *%eax
    3279:	83 c4 10             	add    $0x10,%esp
    327c:	89 c6                	mov    %eax,%esi
    327e:	8b 45 e8             	mov    -0x18(%ebp),%eax
    3281:	85 c0                	test   %eax,%eax
    3283:	74 5b                	je     32e0 <remote_audio_mixer_get_item_info+0xa0>
    3285:	83 ec 0c             	sub    $0xc,%esp
    3288:	50                   	push   %eax
    3289:	e8 52 a1 00 00       	call   d3e0 <str_size@plt>
    328e:	8b 55 10             	mov    0x10(%ebp),%edx
    3291:	8d 58 01             	lea    0x1(%eax),%ebx
    3294:	8b 45 ec             	mov    -0x14(%ebp),%eax
    3297:	50                   	push   %eax
    3298:	53                   	push   %ebx
    3299:	56                   	push   %esi
    329a:	52                   	push   %edx
    329b:	e8 d0 9f 00 00       	call   d270 <async_answer_2@plt>
    32a0:	83 c4 20             	add    $0x20,%esp
    32a3:	85 f6                	test   %esi,%esi
    32a5:	75 2f                	jne    32d6 <remote_audio_mixer_get_item_info+0x96>
    32a7:	85 db                	test   %ebx,%ebx
    32a9:	74 2b                	je     32d6 <remote_audio_mixer_get_item_info+0x96>
    32ab:	50                   	push   %eax
    32ac:	50                   	push   %eax
    32ad:	8d 45 f0             	lea    -0x10(%ebp),%eax
    32b0:	50                   	push   %eax
    32b1:	8d 45 f4             	lea    -0xc(%ebp),%eax
    32b4:	50                   	push   %eax
    32b5:	e8 b6 a0 00 00       	call   d370 <async_data_read_receive@plt>
    32ba:	83 c4 10             	add    $0x10,%esp
    32bd:	84 c0                	test   %al,%al
    32bf:	74 6f                	je     3330 <remote_audio_mixer_get_item_info+0xf0>
    32c1:	3b 5d f0             	cmp    -0x10(%ebp),%ebx
    32c4:	74 3a                	je     3300 <remote_audio_mixer_get_item_info+0xc0>
    32c6:	50                   	push   %eax
    32c7:	50                   	push   %eax
    32c8:	8b 45 f4             	mov    -0xc(%ebp),%eax
    32cb:	6a fd                	push   $0xfffffffd
    32cd:	50                   	push   %eax
    32ce:	e8 8d 9e 00 00       	call   d160 <async_answer_0@plt>
    32d3:	83 c4 10             	add    $0x10,%esp
    32d6:	8d 65 f8             	lea    -0x8(%ebp),%esp
    32d9:	5b                   	pop    %ebx
    32da:	5e                   	pop    %esi
    32db:	5d                   	pop    %ebp
    32dc:	c3                   	ret    
    32dd:	8d 76 00             	lea    0x0(%esi),%esi
    32e0:	8b 45 ec             	mov    -0x14(%ebp),%eax
    32e3:	8b 55 10             	mov    0x10(%ebp),%edx
    32e6:	50                   	push   %eax
    32e7:	6a 00                	push   $0x0
    32e9:	56                   	push   %esi
    32ea:	52                   	push   %edx
    32eb:	e8 80 9f 00 00       	call   d270 <async_answer_2@plt>
    32f0:	83 c4 10             	add    $0x10,%esp
    32f3:	8d 65 f8             	lea    -0x8(%ebp),%esp
    32f6:	5b                   	pop    %ebx
    32f7:	5e                   	pop    %esi
    32f8:	5d                   	pop    %ebp
    32f9:	c3                   	ret    
    32fa:	8d b6 00 00 00 00    	lea    0x0(%esi),%esi
    3300:	8b 75 f4             	mov    -0xc(%ebp),%esi
    3303:	51                   	push   %ecx
    3304:	53                   	push   %ebx
    3305:	8b 5d e8             	mov    -0x18(%ebp),%ebx
    3308:	53                   	push   %ebx
    3309:	56                   	push   %esi
    330a:	e8 d1 9d 00 00       	call   d0e0 <async_data_read_finalize@plt>
    330f:	83 c4 10             	add    $0x10,%esp
    3312:	eb c2                	jmp    32d6 <remote_audio_mixer_get_item_info+0x96>
    3314:	8d 74 26 00          	lea    0x0(%esi,%eiz,1),%esi
    3318:	8b 75 10             	mov    0x10(%ebp),%esi
    331b:	53                   	push   %ebx
    331c:	53                   	push   %ebx
    331d:	6a f5                	push   $0xfffffff5
    331f:	56                   	push   %esi
    3320:	e8 3b 9e 00 00       	call   d160 <async_answer_0@plt>
    3325:	83 c4 10             	add    $0x10,%esp
    3328:	8d 65 f8             	lea    -0x8(%ebp),%esp
    332b:	5b                   	pop    %ebx
    332c:	5e                   	pop    %esi
    332d:	5d                   	pop    %ebp
    332e:	c3                   	ret    
    332f:	90                   	nop
    3330:	50                   	push   %eax
    3331:	50                   	push   %eax
    3332:	8b 45 f4             	mov    -0xc(%ebp),%eax
    3335:	6a f8                	push   $0xfffffff8
    3337:	50                   	push   %eax
    3338:	e8 23 9e 00 00       	call   d160 <async_answer_0@plt>
    333d:	83 c4 10             	add    $0x10,%esp
    3340:	eb 94                	jmp    32d6 <remote_audio_mixer_get_item_info+0x96>
    3342:	8d b4 26 00 00 00 00 	lea    0x0(%esi,%eiz,1),%esi
    3349:	8d bc 27 00 00 00 00 	lea    0x0(%edi,%eiz,1),%edi

00003350 <remote_audio_mixer_get_info>:
    3350:	55                   	push   %ebp
    3351:	89 e5                	mov    %esp,%ebp
    3353:	56                   	push   %esi
    3354:	53                   	push   %ebx
    3355:	83 ec 10             	sub    $0x10,%esp
    3358:	8b 45 0c             	mov    0xc(%ebp),%eax
    335b:	8b 00                	mov    (%eax),%eax
    335d:	85 c0                	test   %eax,%eax
    335f:	0f 84 bb 00 00 00    	je     3420 <remote_audio_mixer_get_info+0xd0>
    3365:	8d 55 ec             	lea    -0x14(%ebp),%edx
    3368:	8b 5d 08             	mov    0x8(%ebp),%ebx
    336b:	c7 45 e8 00 00 00 00 	movl   $0x0,-0x18(%ebp)
    3372:	c7 45 ec 00 00 00 00 	movl   $0x0,-0x14(%ebp)
    3379:	51                   	push   %ecx
    337a:	52                   	push   %edx
    337b:	8d 55 e8             	lea    -0x18(%ebp),%edx
    337e:	52                   	push   %edx
    337f:	53                   	push   %ebx
    3380:	ff d0                	call   *%eax
    3382:	83 c4 10             	add    $0x10,%esp
    3385:	89 c6                	mov    %eax,%esi
    3387:	8b 45 e8             	mov    -0x18(%ebp),%eax
    338a:	85 c0                	test   %eax,%eax
    338c:	74 5a                	je     33e8 <remote_audio_mixer_get_info+0x98>
    338e:	83 ec 0c             	sub    $0xc,%esp
    3391:	50                   	push   %eax
    3392:	e8 49 a0 00 00       	call   d3e0 <str_size@plt>
    3397:	8b 55 10             	mov    0x10(%ebp),%edx
    339a:	8d 58 01             	lea    0x1(%eax),%ebx
    339d:	8b 45 ec             	mov    -0x14(%ebp),%eax
    33a0:	50                   	push   %eax
    33a1:	53                   	push   %ebx
    33a2:	56                   	push   %esi
    33a3:	52                   	push   %edx
    33a4:	e8 c7 9e 00 00       	call   d270 <async_answer_2@plt>
    33a9:	83 c4 20             	add    $0x20,%esp
    33ac:	85 f6                	test   %esi,%esi
    33ae:	75 2f                	jne    33df <remote_audio_mixer_get_info+0x8f>
    33b0:	85 db                	test   %ebx,%ebx
    33b2:	74 2b                	je     33df <remote_audio_mixer_get_info+0x8f>
    33b4:	50                   	push   %eax
    33b5:	50                   	push   %eax
    33b6:	8d 45 f0             	lea    -0x10(%ebp),%eax
    33b9:	50                   	push   %eax
    33ba:	8d 45 f4             	lea    -0xc(%ebp),%eax
    33bd:	50                   	push   %eax
    33be:	e8 ad 9f 00 00       	call   d370 <async_data_read_receive@plt>
    33c3:	83 c4 10             	add    $0x10,%esp
    33c6:	84 c0                	test   %al,%al
    33c8:	74 6e                	je     3438 <remote_audio_mixer_get_info+0xe8>
    33ca:	3b 5d f0             	cmp    -0x10(%ebp),%ebx
    33cd:	74 39                	je     3408 <remote_audio_mixer_get_info+0xb8>
    33cf:	50                   	push   %eax
    33d0:	50                   	push   %eax
    33d1:	8b 45 f4             	mov    -0xc(%ebp),%eax
    33d4:	6a fd                	push   $0xfffffffd
    33d6:	50                   	push   %eax
    33d7:	e8 84 9d 00 00       	call   d160 <async_answer_0@plt>
    33dc:	83 c4 10             	add    $0x10,%esp
    33df:	8d 65 f8             	lea    -0x8(%ebp),%esp
    33e2:	5b                   	pop    %ebx
    33e3:	5e                   	pop    %esi
    33e4:	5d                   	pop    %ebp
    33e5:	c3                   	ret    
    33e6:	66 90                	xchg   %ax,%ax
    33e8:	8b 45 ec             	mov    -0x14(%ebp),%eax
    33eb:	8b 55 10             	mov    0x10(%ebp),%edx
    33ee:	50                   	push   %eax
    33ef:	6a 00                	push   $0x0
    33f1:	56                   	push   %esi
    33f2:	52                   	push   %edx
    33f3:	e8 78 9e 00 00       	call   d270 <async_answer_2@plt>
    33f8:	83 c4 10             	add    $0x10,%esp
    33fb:	8d 65 f8             	lea    -0x8(%ebp),%esp
    33fe:	5b                   	pop    %ebx
    33ff:	5e                   	pop    %esi
    3400:	5d                   	pop    %ebp
    3401:	c3                   	ret    
    3402:	8d b6 00 00 00 00    	lea    0x0(%esi),%esi
    3408:	8b 75 f4             	mov    -0xc(%ebp),%esi
    340b:	51                   	push   %ecx
    340c:	53                   	push   %ebx
    340d:	8b 5d e8             	mov    -0x18(%ebp),%ebx
    3410:	53                   	push   %ebx
    3411:	56                   	push   %esi
    3412:	e8 c9 9c 00 00       	call   d0e0 <async_data_read_finalize@plt>
    3417:	83 c4 10             	add    $0x10,%esp
    341a:	eb c3                	jmp    33df <remote_audio_mixer_get_info+0x8f>
    341c:	8d 74 26 00          	lea    0x0(%esi,%eiz,1),%esi
    3420:	8b 45 10             	mov    0x10(%ebp),%eax
    3423:	56                   	push   %esi
    3424:	56                   	push   %esi
    3425:	6a f5                	push   $0xfffffff5
    3427:	50                   	push   %eax
    3428:	e8 33 9d 00 00       	call   d160 <async_answer_0@plt>
    342d:	83 c4 10             	add    $0x10,%esp
    3430:	8d 65 f8             	lea    -0x8(%ebp),%esp
    3433:	5b                   	pop    %ebx
    3434:	5e                   	pop    %esi
    3435:	5d                   	pop    %ebp
    3436:	c3                   	ret    
    3437:	90                   	nop
    3438:	50                   	push   %eax
    3439:	50                   	push   %eax
    343a:	8b 45 f4             	mov    -0xc(%ebp),%eax
    343d:	6a f8                	push   $0xfffffff8
    343f:	50                   	push   %eax
    3440:	e8 1b 9d 00 00       	call   d160 <async_answer_0@plt>
    3445:	83 c4 10             	add    $0x10,%esp
    3448:	eb 95                	jmp    33df <remote_audio_mixer_get_info+0x8f>
    344a:	8d b6 00 00 00 00    	lea    0x0(%esi),%esi

00003450 <audio_mixer_get_info>:
    3450:	55                   	push   %ebp
    3451:	89 e5                	mov    %esp,%ebp
    3453:	57                   	push   %edi
    3454:	56                   	push   %esi
    3455:	53                   	push   %ebx
    3456:	83 ec 2c             	sub    $0x2c,%esp
    3459:	8b 75 08             	mov    0x8(%ebp),%esi
    345c:	85 f6                	test   %esi,%esi
    345e:	0f 84 bc 00 00 00    	je     3520 <audio_mixer_get_info+0xd0>
    3464:	50                   	push   %eax
    3465:	8d 45 e4             	lea    -0x1c(%ebp),%eax
    3468:	6a 00                	push   $0x0
    346a:	6a 00                	push   $0x0
    346c:	6a 00                	push   $0x0
    346e:	50                   	push   %eax
    346f:	8d 45 e0             	lea    -0x20(%ebp),%eax
    3472:	50                   	push   %eax
    3473:	6a 00                	push   $0x0
    3475:	6a 00                	push   $0x0
    3477:	6a 00                	push   $0x0
    3479:	6a 00                	push   $0x0
    347b:	68 03 04 00 00       	push   $0x403
    3480:	56                   	push   %esi
    3481:	e8 ca 9c 00 00       	call   d150 <async_req_fast@plt>
    3486:	83 c4 30             	add    $0x30,%esp
    3489:	89 c3                	mov    %eax,%ebx
    348b:	85 c0                	test   %eax,%eax
    348d:	8b 45 0c             	mov    0xc(%ebp),%eax
    3490:	0f 94 c2             	sete   %dl
    3493:	85 c0                	test   %eax,%eax
    3495:	74 04                	je     349b <audio_mixer_get_info+0x4b>
    3497:	84 d2                	test   %dl,%dl
    3499:	75 1d                	jne    34b8 <audio_mixer_get_info+0x68>
    349b:	8b 45 10             	mov    0x10(%ebp),%eax
    349e:	85 c0                	test   %eax,%eax
    34a0:	74 57                	je     34f9 <audio_mixer_get_info+0xa9>
    34a2:	84 d2                	test   %dl,%dl
    34a4:	74 53                	je     34f9 <audio_mixer_get_info+0xa9>
    34a6:	8b 4d 10             	mov    0x10(%ebp),%ecx
    34a9:	8b 45 e4             	mov    -0x1c(%ebp),%eax
    34ac:	89 01                	mov    %eax,(%ecx)
    34ae:	89 d8                	mov    %ebx,%eax
    34b0:	8d 65 f4             	lea    -0xc(%ebp),%esp
    34b3:	5b                   	pop    %ebx
    34b4:	5e                   	pop    %esi
    34b5:	5f                   	pop    %edi
    34b6:	5d                   	pop    %ebp
    34b7:	c3                   	ret    
    34b8:	8b 45 e0             	mov    -0x20(%ebp),%eax
    34bb:	88 55 d4             	mov    %dl,-0x2c(%ebp)
    34be:	57                   	push   %edi
    34bf:	57                   	push   %edi
    34c0:	50                   	push   %eax
    34c1:	6a 01                	push   $0x1
    34c3:	e8 38 9d 00 00       	call   d200 <calloc@plt>
    34c8:	83 c4 10             	add    $0x10,%esp
    34cb:	89 c7                	mov    %eax,%edi
    34cd:	85 c0                	test   %eax,%eax
    34cf:	8a 55 d4             	mov    -0x2c(%ebp),%dl
    34d2:	74 53                	je     3527 <audio_mixer_get_info+0xd7>
    34d4:	8b 4d e0             	mov    -0x20(%ebp),%ecx
    34d7:	88 55 d4             	mov    %dl,-0x2c(%ebp)
    34da:	52                   	push   %edx
    34db:	51                   	push   %ecx
    34dc:	50                   	push   %eax
    34dd:	56                   	push   %esi
    34de:	e8 9d 9e 00 00       	call   d380 <async_data_read_start@plt>
    34e3:	83 c4 10             	add    $0x10,%esp
    34e6:	8a 55 d4             	mov    -0x2c(%ebp),%dl
    34e9:	85 c0                	test   %eax,%eax
    34eb:	75 1b                	jne    3508 <audio_mixer_get_info+0xb8>
    34ed:	8b 45 0c             	mov    0xc(%ebp),%eax
    34f0:	89 38                	mov    %edi,(%eax)
    34f2:	8b 45 10             	mov    0x10(%ebp),%eax
    34f5:	85 c0                	test   %eax,%eax
    34f7:	75 a9                	jne    34a2 <audio_mixer_get_info+0x52>
    34f9:	8d 65 f4             	lea    -0xc(%ebp),%esp
    34fc:	89 d8                	mov    %ebx,%eax
    34fe:	5b                   	pop    %ebx
    34ff:	5e                   	pop    %esi
    3500:	5f                   	pop    %edi
    3501:	5d                   	pop    %ebp
    3502:	c3                   	ret    
    3503:	90                   	nop
    3504:	8d 74 26 00          	lea    0x0(%esi,%eiz,1),%esi
    3508:	83 ec 0c             	sub    $0xc,%esp
    350b:	89 45 d4             	mov    %eax,-0x2c(%ebp)
    350e:	57                   	push   %edi
    350f:	e8 fc 9f 00 00       	call   d510 <free@plt>
    3514:	83 c4 10             	add    $0x10,%esp
    3517:	8b 45 d4             	mov    -0x2c(%ebp),%eax
    351a:	eb 94                	jmp    34b0 <audio_mixer_get_info+0x60>
    351c:	8d 74 26 00          	lea    0x0(%esi,%eiz,1),%esi
    3520:	b8 f2 ff ff ff       	mov    $0xfffffff2,%eax
    3525:	eb 89                	jmp    34b0 <audio_mixer_get_info+0x60>
    3527:	53                   	push   %ebx
    3528:	6a 00                	push   $0x0
    352a:	6a ff                	push   $0xffffffff
    352c:	56                   	push   %esi
    352d:	e8 4e 9e 00 00       	call   d380 <async_data_read_start@plt>
    3532:	83 c4 10             	add    $0x10,%esp
    3535:	b8 fe ff ff ff       	mov    $0xfffffffe,%eax
    353a:	e9 71 ff ff ff       	jmp    34b0 <audio_mixer_get_info+0x60>
    353f:	90                   	nop

00003540 <audio_mixer_get_item_info>:
    3540:	55                   	push   %ebp
    3541:	89 e5                	mov    %esp,%ebp
    3543:	57                   	push   %edi
    3544:	56                   	push   %esi
    3545:	53                   	push   %ebx
    3546:	83 ec 2c             	sub    $0x2c,%esp
    3549:	8b 75 08             	mov    0x8(%ebp),%esi
    354c:	85 f6                	test   %esi,%esi
    354e:	0f 84 c4 00 00 00    	je     3618 <audio_mixer_get_item_info+0xd8>
    3554:	50                   	push   %eax
    3555:	8d 45 e4             	lea    -0x1c(%ebp),%eax
    3558:	6a 00                	push   $0x0
    355a:	6a 00                	push   $0x0
    355c:	6a 00                	push   $0x0
    355e:	50                   	push   %eax
    355f:	8d 45 e0             	lea    -0x20(%ebp),%eax
    3562:	50                   	push   %eax
    3563:	8b 45 0c             	mov    0xc(%ebp),%eax
    3566:	6a 00                	push   $0x0
    3568:	6a 00                	push   $0x0
    356a:	50                   	push   %eax
    356b:	6a 01                	push   $0x1
    356d:	68 03 04 00 00       	push   $0x403
    3572:	56                   	push   %esi
    3573:	e8 d8 9b 00 00       	call   d150 <async_req_fast@plt>
    3578:	83 c4 30             	add    $0x30,%esp
    357b:	89 c3                	mov    %eax,%ebx
    357d:	85 c0                	test   %eax,%eax
    357f:	8b 45 10             	mov    0x10(%ebp),%eax
    3582:	0f 94 c2             	sete   %dl
    3585:	85 c0                	test   %eax,%eax
    3587:	74 04                	je     358d <audio_mixer_get_item_info+0x4d>
    3589:	84 d2                	test   %dl,%dl
    358b:	75 23                	jne    35b0 <audio_mixer_get_item_info+0x70>
    358d:	8b 45 14             	mov    0x14(%ebp),%eax
    3590:	85 c0                	test   %eax,%eax
    3592:	74 5d                	je     35f1 <audio_mixer_get_item_info+0xb1>
    3594:	84 d2                	test   %dl,%dl
    3596:	74 59                	je     35f1 <audio_mixer_get_item_info+0xb1>
    3598:	8b 4d 14             	mov    0x14(%ebp),%ecx
    359b:	8b 45 e4             	mov    -0x1c(%ebp),%eax
    359e:	89 01                	mov    %eax,(%ecx)
    35a0:	89 d8                	mov    %ebx,%eax
    35a2:	8d 65 f4             	lea    -0xc(%ebp),%esp
    35a5:	5b                   	pop    %ebx
    35a6:	5e                   	pop    %esi
    35a7:	5f                   	pop    %edi
    35a8:	5d                   	pop    %ebp
    35a9:	c3                   	ret    
    35aa:	8d b6 00 00 00 00    	lea    0x0(%esi),%esi
    35b0:	8b 45 e0             	mov    -0x20(%ebp),%eax
    35b3:	88 55 d4             	mov    %dl,-0x2c(%ebp)
    35b6:	57                   	push   %edi
    35b7:	57                   	push   %edi
    35b8:	50                   	push   %eax
    35b9:	6a 01                	push   $0x1
    35bb:	e8 40 9c 00 00       	call   d200 <calloc@plt>
    35c0:	83 c4 10             	add    $0x10,%esp
    35c3:	89 c7                	mov    %eax,%edi
    35c5:	85 c0                	test   %eax,%eax
    35c7:	8a 55 d4             	mov    -0x2c(%ebp),%dl
    35ca:	74 53                	je     361f <audio_mixer_get_item_info+0xdf>
    35cc:	8b 4d e0             	mov    -0x20(%ebp),%ecx
    35cf:	88 55 d4             	mov    %dl,-0x2c(%ebp)
    35d2:	52                   	push   %edx
    35d3:	51                   	push   %ecx
    35d4:	50                   	push   %eax
    35d5:	56                   	push   %esi
    35d6:	e8 a5 9d 00 00       	call   d380 <async_data_read_start@plt>
    35db:	83 c4 10             	add    $0x10,%esp
    35de:	8a 55 d4             	mov    -0x2c(%ebp),%dl
    35e1:	85 c0                	test   %eax,%eax
    35e3:	75 1b                	jne    3600 <audio_mixer_get_item_info+0xc0>
    35e5:	8b 45 10             	mov    0x10(%ebp),%eax
    35e8:	89 38                	mov    %edi,(%eax)
    35ea:	8b 45 14             	mov    0x14(%ebp),%eax
    35ed:	85 c0                	test   %eax,%eax
    35ef:	75 a3                	jne    3594 <audio_mixer_get_item_info+0x54>
    35f1:	8d 65 f4             	lea    -0xc(%ebp),%esp
    35f4:	89 d8                	mov    %ebx,%eax
    35f6:	5b                   	pop    %ebx
    35f7:	5e                   	pop    %esi
    35f8:	5f                   	pop    %edi
    35f9:	5d                   	pop    %ebp
    35fa:	c3                   	ret    
    35fb:	90                   	nop
    35fc:	8d 74 26 00          	lea    0x0(%esi,%eiz,1),%esi
    3600:	83 ec 0c             	sub    $0xc,%esp
    3603:	89 45 d4             	mov    %eax,-0x2c(%ebp)
    3606:	57                   	push   %edi
    3607:	e8 04 9f 00 00       	call   d510 <free@plt>
    360c:	83 c4 10             	add    $0x10,%esp
    360f:	8b 45 d4             	mov    -0x2c(%ebp),%eax
    3612:	eb 8e                	jmp    35a2 <audio_mixer_get_item_info+0x62>
    3614:	8d 74 26 00          	lea    0x0(%esi,%eiz,1),%esi
    3618:	b8 f2 ff ff ff       	mov    $0xfffffff2,%eax
    361d:	eb 83                	jmp    35a2 <audio_mixer_get_item_info+0x62>
    361f:	53                   	push   %ebx
    3620:	6a 00                	push   $0x0
    3622:	6a ff                	push   $0xffffffff
    3624:	56                   	push   %esi
    3625:	e8 56 9d 00 00       	call   d380 <async_data_read_start@plt>
    362a:	83 c4 10             	add    $0x10,%esp
    362d:	b8 fe ff ff ff       	mov    $0xfffffffe,%eax
    3632:	e9 6b ff ff ff       	jmp    35a2 <audio_mixer_get_item_info+0x62>
    3637:	89 f6                	mov    %esi,%esi
    3639:	8d bc 27 00 00 00 00 	lea    0x0(%edi,%eiz,1),%edi

00003640 <audio_mixer_set_item_level>:
    3640:	55                   	push   %ebp
    3641:	89 e5                	mov    %esp,%ebp
    3643:	83 ec 08             	sub    $0x8,%esp
    3646:	8b 45 08             	mov    0x8(%ebp),%eax
    3649:	85 c0                	test   %eax,%eax
    364b:	74 2b                	je     3678 <audio_mixer_set_item_level+0x38>
    364d:	8b 4d 10             	mov    0x10(%ebp),%ecx
    3650:	52                   	push   %edx
    3651:	8b 55 0c             	mov    0xc(%ebp),%edx
    3654:	6a 00                	push   $0x0
    3656:	6a 00                	push   $0x0
    3658:	6a 00                	push   $0x0
    365a:	6a 00                	push   $0x0
    365c:	6a 00                	push   $0x0
    365e:	6a 00                	push   $0x0
    3660:	51                   	push   %ecx
    3661:	52                   	push   %edx
    3662:	6a 02                	push   $0x2
    3664:	68 03 04 00 00       	push   $0x403
    3669:	50                   	push   %eax
    366a:	e8 e1 9a 00 00       	call   d150 <async_req_fast@plt>
    366f:	83 c4 30             	add    $0x30,%esp
    3672:	c9                   	leave  
    3673:	c3                   	ret    
    3674:	8d 74 26 00          	lea    0x0(%esi,%eiz,1),%esi
    3678:	b8 f2 ff ff ff       	mov    $0xfffffff2,%eax
    367d:	c9                   	leave  
    367e:	c3                   	ret    
    367f:	90                   	nop

00003680 <audio_mixer_get_item_level>:
    3680:	55                   	push   %ebp
    3681:	89 e5                	mov    %esp,%ebp
    3683:	53                   	push   %ebx
    3684:	83 ec 14             	sub    $0x14,%esp
    3687:	8b 45 08             	mov    0x8(%ebp),%eax
    368a:	8b 5d 10             	mov    0x10(%ebp),%ebx
    368d:	85 c0                	test   %eax,%eax
    368f:	74 37                	je     36c8 <audio_mixer_get_item_level+0x48>
    3691:	8b 4d 0c             	mov    0xc(%ebp),%ecx
    3694:	52                   	push   %edx
    3695:	8d 55 f4             	lea    -0xc(%ebp),%edx
    3698:	6a 00                	push   $0x0
    369a:	6a 00                	push   $0x0
    369c:	6a 00                	push   $0x0
    369e:	6a 00                	push   $0x0
    36a0:	52                   	push   %edx
    36a1:	6a 00                	push   $0x0
    36a3:	6a 00                	push   $0x0
    36a5:	51                   	push   %ecx
    36a6:	6a 03                	push   $0x3
    36a8:	68 03 04 00 00       	push   $0x403
    36ad:	50                   	push   %eax
    36ae:	e8 9d 9a 00 00       	call   d150 <async_req_fast@plt>
    36b3:	83 c4 30             	add    $0x30,%esp
    36b6:	85 c0                	test   %eax,%eax
    36b8:	75 09                	jne    36c3 <audio_mixer_get_item_level+0x43>
    36ba:	85 db                	test   %ebx,%ebx
    36bc:	74 05                	je     36c3 <audio_mixer_get_item_level+0x43>
    36be:	8b 55 f4             	mov    -0xc(%ebp),%edx
    36c1:	89 13                	mov    %edx,(%ebx)
    36c3:	8b 5d fc             	mov    -0x4(%ebp),%ebx
    36c6:	c9                   	leave  
    36c7:	c3                   	ret    
    36c8:	b8 f2 ff ff ff       	mov    $0xfffffff2,%eax
    36cd:	eb f4                	jmp    36c3 <audio_mixer_get_item_level+0x43>
    36cf:	90                   	nop

000036d0 <remote_audio_pcm_stop_capture>:
    36d0:	55                   	push   %ebp
    36d1:	89 e5                	mov    %esp,%ebp
    36d3:	53                   	push   %ebx
    36d4:	50                   	push   %eax
    36d5:	8b 45 14             	mov    0x14(%ebp),%eax
    36d8:	8b 4d 08             	mov    0x8(%ebp),%ecx
    36db:	8b 5d 10             	mov    0x10(%ebp),%ebx
    36de:	8b 50 08             	mov    0x8(%eax),%edx
    36e1:	85 d2                	test   %edx,%edx
    36e3:	8b 55 0c             	mov    0xc(%ebp),%edx
    36e6:	0f 95 c0             	setne  %al
    36e9:	8b 52 2c             	mov    0x2c(%edx),%edx
    36ec:	85 d2                	test   %edx,%edx
    36ee:	74 20                	je     3710 <remote_audio_pcm_stop_capture+0x40>
    36f0:	83 ec 08             	sub    $0x8,%esp
    36f3:	25 ff 00 00 00       	and    $0xff,%eax
    36f8:	50                   	push   %eax
    36f9:	51                   	push   %ecx
    36fa:	ff d2                	call   *%edx
    36fc:	89 5d 08             	mov    %ebx,0x8(%ebp)
    36ff:	83 c4 10             	add    $0x10,%esp
    3702:	8b 5d fc             	mov    -0x4(%ebp),%ebx
    3705:	89 45 0c             	mov    %eax,0xc(%ebp)
    3708:	c9                   	leave  
    3709:	e9 52 9a 00 00       	jmp    d160 <async_answer_0@plt>
    370e:	66 90                	xchg   %ax,%ax
    3710:	89 5d 08             	mov    %ebx,0x8(%ebp)
    3713:	b8 f5 ff ff ff       	mov    $0xfffffff5,%eax
    3718:	8b 5d fc             	mov    -0x4(%ebp),%ebx
    371b:	89 45 0c             	mov    %eax,0xc(%ebp)
    371e:	c9                   	leave  
    371f:	e9 3c 9a 00 00       	jmp    d160 <async_answer_0@plt>
    3724:	8d b6 00 00 00 00    	lea    0x0(%esi),%esi
    372a:	8d bf 00 00 00 00    	lea    0x0(%edi),%edi

00003730 <remote_audio_pcm_start_capture>:
    3730:	55                   	push   %ebp
    3731:	89 e5                	mov    %esp,%ebp
    3733:	57                   	push   %edi
    3734:	56                   	push   %esi
    3735:	53                   	push   %ebx
    3736:	83 ec 0c             	sub    $0xc,%esp
    3739:	8b 55 14             	mov    0x14(%ebp),%edx
    373c:	8b 7d 0c             	mov    0xc(%ebp),%edi
    373f:	8b 4d 08             	mov    0x8(%ebp),%ecx
    3742:	8b 5d 10             	mov    0x10(%ebp),%ebx
    3745:	8b 42 10             	mov    0x10(%edx),%eax
    3748:	8b 7f 28             	mov    0x28(%edi),%edi
    374b:	89 c6                	mov    %eax,%esi
    374d:	25 ff ff 00 00       	and    $0xffff,%eax
    3752:	c1 ee 10             	shr    $0x10,%esi
    3755:	85 ff                	test   %edi,%edi
    3757:	74 27                	je     3780 <remote_audio_pcm_start_capture+0x50>
    3759:	83 ec 0c             	sub    $0xc,%esp
    375c:	50                   	push   %eax
    375d:	8b 42 0c             	mov    0xc(%edx),%eax
    3760:	50                   	push   %eax
    3761:	56                   	push   %esi
    3762:	8b 52 08             	mov    0x8(%edx),%edx
    3765:	52                   	push   %edx
    3766:	51                   	push   %ecx
    3767:	ff d7                	call   *%edi
    3769:	83 c4 20             	add    $0x20,%esp
    376c:	89 5d 08             	mov    %ebx,0x8(%ebp)
    376f:	89 45 0c             	mov    %eax,0xc(%ebp)
    3772:	8d 65 f4             	lea    -0xc(%ebp),%esp
    3775:	5b                   	pop    %ebx
    3776:	5e                   	pop    %esi
    3777:	5f                   	pop    %edi
    3778:	5d                   	pop    %ebp
    3779:	e9 e2 99 00 00       	jmp    d160 <async_answer_0@plt>
    377e:	66 90                	xchg   %ax,%ax
    3780:	b8 f5 ff ff ff       	mov    $0xfffffff5,%eax
    3785:	eb e5                	jmp    376c <remote_audio_pcm_start_capture+0x3c>
    3787:	89 f6                	mov    %esi,%esi
    3789:	8d bc 27 00 00 00 00 	lea    0x0(%edi,%eiz,1),%edi

00003790 <remote_audio_pcm_stop_playback>:
    3790:	55                   	push   %ebp
    3791:	89 e5                	mov    %esp,%ebp
    3793:	53                   	push   %ebx
    3794:	50                   	push   %eax
    3795:	8b 45 14             	mov    0x14(%ebp),%eax
    3798:	8b 4d 08             	mov    0x8(%ebp),%ecx
    379b:	8b 5d 10             	mov    0x10(%ebp),%ebx
    379e:	8b 50 08             	mov    0x8(%eax),%edx
    37a1:	85 d2                	test   %edx,%edx
    37a3:	8b 55 0c             	mov    0xc(%ebp),%edx
    37a6:	0f 95 c0             	setne  %al
    37a9:	8b 52 24             	mov    0x24(%edx),%edx
    37ac:	85 d2                	test   %edx,%edx
    37ae:	74 20                	je     37d0 <remote_audio_pcm_stop_playback+0x40>
    37b0:	83 ec 08             	sub    $0x8,%esp
    37b3:	25 ff 00 00 00       	and    $0xff,%eax
    37b8:	50                   	push   %eax
    37b9:	51                   	push   %ecx
    37ba:	ff d2                	call   *%edx
    37bc:	89 5d 08             	mov    %ebx,0x8(%ebp)
    37bf:	83 c4 10             	add    $0x10,%esp
    37c2:	8b 5d fc             	mov    -0x4(%ebp),%ebx
    37c5:	89 45 0c             	mov    %eax,0xc(%ebp)
    37c8:	c9                   	leave  
    37c9:	e9 92 99 00 00       	jmp    d160 <async_answer_0@plt>
    37ce:	66 90                	xchg   %ax,%ax
    37d0:	89 5d 08             	mov    %ebx,0x8(%ebp)
    37d3:	b8 f5 ff ff ff       	mov    $0xfffffff5,%eax
    37d8:	8b 5d fc             	mov    -0x4(%ebp),%ebx
    37db:	89 45 0c             	mov    %eax,0xc(%ebp)
    37de:	c9                   	leave  
    37df:	e9 7c 99 00 00       	jmp    d160 <async_answer_0@plt>
    37e4:	8d b6 00 00 00 00    	lea    0x0(%esi),%esi
    37ea:	8d bf 00 00 00 00    	lea    0x0(%edi),%edi

000037f0 <remote_audio_pcm_start_playback>:
    37f0:	55                   	push   %ebp
    37f1:	89 e5                	mov    %esp,%ebp
    37f3:	57                   	push   %edi
    37f4:	56                   	push   %esi
    37f5:	53                   	push   %ebx
    37f6:	83 ec 0c             	sub    $0xc,%esp
    37f9:	8b 4d 14             	mov    0x14(%ebp),%ecx
    37fc:	8b 7d 0c             	mov    0xc(%ebp),%edi
    37ff:	8b 75 08             	mov    0x8(%ebp),%esi
    3802:	8b 5d 10             	mov    0x10(%ebp),%ebx
    3805:	8b 41 10             	mov    0x10(%ecx),%eax
    3808:	8b 7f 20             	mov    0x20(%edi),%edi
    380b:	89 c2                	mov    %eax,%edx
    380d:	25 ff ff 00 00       	and    $0xffff,%eax
    3812:	c1 ea 10             	shr    $0x10,%edx
    3815:	81 e2 ff 00 00 00    	and    $0xff,%edx
    381b:	85 ff                	test   %edi,%edi
    381d:	74 29                	je     3848 <remote_audio_pcm_start_playback+0x58>
    381f:	83 ec 0c             	sub    $0xc,%esp
    3822:	50                   	push   %eax
    3823:	8b 41 0c             	mov    0xc(%ecx),%eax
    3826:	50                   	push   %eax
    3827:	52                   	push   %edx
    3828:	8b 51 08             	mov    0x8(%ecx),%edx
    382b:	52                   	push   %edx
    382c:	56                   	push   %esi
    382d:	ff d7                	call   *%edi
    382f:	83 c4 20             	add    $0x20,%esp
    3832:	89 5d 08             	mov    %ebx,0x8(%ebp)
    3835:	89 45 0c             	mov    %eax,0xc(%ebp)
    3838:	8d 65 f4             	lea    -0xc(%ebp),%esp
    383b:	5b                   	pop    %ebx
    383c:	5e                   	pop    %esi
    383d:	5f                   	pop    %edi
    383e:	5d                   	pop    %ebp
    383f:	e9 1c 99 00 00       	jmp    d160 <async_answer_0@plt>
    3844:	8d 74 26 00          	lea    0x0(%esi,%eiz,1),%esi
    3848:	b8 f5 ff ff ff       	mov    $0xfffffff5,%eax
    384d:	eb e3                	jmp    3832 <remote_audio_pcm_start_playback+0x42>
    384f:	90                   	nop

00003850 <remote_audio_pcm_release_buffer>:
    3850:	55                   	push   %ebp
    3851:	89 e5                	mov    %esp,%ebp
    3853:	53                   	push   %ebx
    3854:	50                   	push   %eax
    3855:	8b 45 0c             	mov    0xc(%ebp),%eax
    3858:	8b 55 08             	mov    0x8(%ebp),%edx
    385b:	8b 5d 10             	mov    0x10(%ebp),%ebx
    385e:	8b 40 14             	mov    0x14(%eax),%eax
    3861:	85 c0                	test   %eax,%eax
    3863:	74 1b                	je     3880 <remote_audio_pcm_release_buffer+0x30>
    3865:	83 ec 0c             	sub    $0xc,%esp
    3868:	52                   	push   %edx
    3869:	ff d0                	call   *%eax
    386b:	89 5d 08             	mov    %ebx,0x8(%ebp)
    386e:	83 c4 10             	add    $0x10,%esp
    3871:	8b 5d fc             	mov    -0x4(%ebp),%ebx
    3874:	89 45 0c             	mov    %eax,0xc(%ebp)
    3877:	c9                   	leave  
    3878:	e9 e3 98 00 00       	jmp    d160 <async_answer_0@plt>
    387d:	8d 76 00             	lea    0x0(%esi),%esi
    3880:	89 5d 08             	mov    %ebx,0x8(%ebp)
    3883:	b8 f5 ff ff ff       	mov    $0xfffffff5,%eax
    3888:	8b 5d fc             	mov    -0x4(%ebp),%ebx
    388b:	89 45 0c             	mov    %eax,0xc(%ebp)
    388e:	c9                   	leave  
    388f:	e9 cc 98 00 00       	jmp    d160 <async_answer_0@plt>
    3894:	8d b6 00 00 00 00    	lea    0x0(%esi),%esi
    389a:	8d bf 00 00 00 00    	lea    0x0(%edi),%edi

000038a0 <remote_audio_pcm_events_unregister>:
    38a0:	55                   	push   %ebp
    38a1:	89 e5                	mov    %esp,%ebp
    38a3:	57                   	push   %edi
    38a4:	56                   	push   %esi
    38a5:	53                   	push   %ebx
    38a6:	83 ec 0c             	sub    $0xc,%esp
    38a9:	8b 5d 0c             	mov    0xc(%ebp),%ebx
    38ac:	8b 75 08             	mov    0x8(%ebp),%esi
    38af:	8b 7d 10             	mov    0x10(%ebp),%edi
    38b2:	8b 43 1c             	mov    0x1c(%ebx),%eax
    38b5:	85 c0                	test   %eax,%eax
    38b7:	74 3f                	je     38f8 <remote_audio_pcm_events_unregister+0x58>
    38b9:	8b 4b 18             	mov    0x18(%ebx),%ecx
    38bc:	85 c9                	test   %ecx,%ecx
    38be:	74 38                	je     38f8 <remote_audio_pcm_events_unregister+0x58>
    38c0:	83 ec 0c             	sub    $0xc,%esp
    38c3:	56                   	push   %esi
    38c4:	ff d0                	call   *%eax
    38c6:	83 c4 10             	add    $0x10,%esp
    38c9:	85 c0                	test   %eax,%eax
    38cb:	74 14                	je     38e1 <remote_audio_pcm_events_unregister+0x41>
    38cd:	83 ec 0c             	sub    $0xc,%esp
    38d0:	50                   	push   %eax
    38d1:	e8 8a 97 00 00       	call   d060 <async_hangup@plt>
    38d6:	58                   	pop    %eax
    38d7:	5a                   	pop    %edx
    38d8:	6a 00                	push   $0x0
    38da:	56                   	push   %esi
    38db:	ff 53 18             	call   *0x18(%ebx)
    38de:	83 c4 10             	add    $0x10,%esp
    38e1:	89 7d 08             	mov    %edi,0x8(%ebp)
    38e4:	c7 45 0c 00 00 00 00 	movl   $0x0,0xc(%ebp)
    38eb:	8d 65 f4             	lea    -0xc(%ebp),%esp
    38ee:	5b                   	pop    %ebx
    38ef:	5e                   	pop    %esi
    38f0:	5f                   	pop    %edi
    38f1:	5d                   	pop    %ebp
    38f2:	e9 69 98 00 00       	jmp    d160 <async_answer_0@plt>
    38f7:	90                   	nop
    38f8:	89 7d 08             	mov    %edi,0x8(%ebp)
    38fb:	c7 45 0c f5 ff ff ff 	movl   $0xfffffff5,0xc(%ebp)
    3902:	8d 65 f4             	lea    -0xc(%ebp),%esp
    3905:	5b                   	pop    %ebx
    3906:	5e                   	pop    %esi
    3907:	5f                   	pop    %edi
    3908:	5d                   	pop    %ebp
    3909:	e9 52 98 00 00       	jmp    d160 <async_answer_0@plt>
    390e:	66 90                	xchg   %ax,%ax

00003910 <remote_audio_pcm_get_buffer_pos>:
    3910:	55                   	push   %ebp
    3911:	89 e5                	mov    %esp,%ebp
    3913:	83 ec 18             	sub    $0x18,%esp
    3916:	8b 45 0c             	mov    0xc(%ebp),%eax
    3919:	c7 45 f4 00 00 00 00 	movl   $0x0,-0xc(%ebp)
    3920:	8b 40 0c             	mov    0xc(%eax),%eax
    3923:	85 c0                	test   %eax,%eax
    3925:	74 29                	je     3950 <remote_audio_pcm_get_buffer_pos+0x40>
    3927:	8b 4d 08             	mov    0x8(%ebp),%ecx
    392a:	52                   	push   %edx
    392b:	52                   	push   %edx
    392c:	8d 55 f4             	lea    -0xc(%ebp),%edx
    392f:	52                   	push   %edx
    3930:	51                   	push   %ecx
    3931:	ff d0                	call   *%eax
    3933:	8b 55 f4             	mov    -0xc(%ebp),%edx
    3936:	83 c4 10             	add    $0x10,%esp
    3939:	51                   	push   %ecx
    393a:	52                   	push   %edx
    393b:	50                   	push   %eax
    393c:	8b 45 10             	mov    0x10(%ebp),%eax
    393f:	50                   	push   %eax
    3940:	e8 bb 9a 00 00       	call   d400 <async_answer_1@plt>
    3945:	83 c4 10             	add    $0x10,%esp
    3948:	c9                   	leave  
    3949:	c3                   	ret    
    394a:	8d b6 00 00 00 00    	lea    0x0(%esi),%esi
    3950:	b8 f5 ff ff ff       	mov    $0xfffffff5,%eax
    3955:	31 d2                	xor    %edx,%edx
    3957:	eb e0                	jmp    3939 <remote_audio_pcm_get_buffer_pos+0x29>
    3959:	8d b4 26 00 00 00 00 	lea    0x0(%esi,%eiz,1),%esi

00003960 <remote_audio_pcm_query_caps>:
    3960:	55                   	push   %ebp
    3961:	89 e5                	mov    %esp,%ebp
    3963:	53                   	push   %ebx
    3964:	53                   	push   %ebx
    3965:	8b 45 0c             	mov    0xc(%ebp),%eax
    3968:	8b 55 08             	mov    0x8(%ebp),%edx
    396b:	8b 5d 10             	mov    0x10(%ebp),%ebx
    396e:	8b 4d 14             	mov    0x14(%ebp),%ecx
    3971:	8b 40 08             	mov    0x8(%eax),%eax
    3974:	85 c0                	test   %eax,%eax
    3976:	74 28                	je     39a0 <remote_audio_pcm_query_caps+0x40>
    3978:	83 ec 08             	sub    $0x8,%esp
    397b:	8b 49 08             	mov    0x8(%ecx),%ecx
    397e:	51                   	push   %ecx
    397f:	52                   	push   %edx
    3980:	ff d0                	call   *%eax
    3982:	89 5d 08             	mov    %ebx,0x8(%ebp)
    3985:	83 c4 10             	add    $0x10,%esp
    3988:	8b 5d fc             	mov    -0x4(%ebp),%ebx
    398b:	89 45 10             	mov    %eax,0x10(%ebp)
    398e:	c7 45 0c 00 00 00 00 	movl   $0x0,0xc(%ebp)
    3995:	c9                   	leave  
    3996:	e9 65 9a 00 00       	jmp    d400 <async_answer_1@plt>
    399b:	90                   	nop
    399c:	8d 74 26 00          	lea    0x0(%esi,%eiz,1),%esi
    39a0:	89 5d 08             	mov    %ebx,0x8(%ebp)
    39a3:	8b 5d fc             	mov    -0x4(%ebp),%ebx
    39a6:	c7 45 0c f5 ff ff ff 	movl   $0xfffffff5,0xc(%ebp)
    39ad:	c9                   	leave  
    39ae:	e9 ad 97 00 00       	jmp    d160 <async_answer_0@plt>
    39b3:	8d b6 00 00 00 00    	lea    0x0(%esi),%esi
    39b9:	8d bc 27 00 00 00 00 	lea    0x0(%edi,%eiz,1),%edi

000039c0 <remote_audio_pcm_get_buffer>:
    39c0:	55                   	push   %ebp
    39c1:	89 e5                	mov    %esp,%ebp
    39c3:	56                   	push   %esi
    39c4:	53                   	push   %ebx
    39c5:	83 ec 10             	sub    $0x10,%esp
    39c8:	8b 5d 0c             	mov    0xc(%ebp),%ebx
    39cb:	8b 43 10             	mov    0x10(%ebx),%eax
    39ce:	85 c0                	test   %eax,%eax
    39d0:	0f 84 d2 00 00 00    	je     3aa8 <remote_audio_pcm_get_buffer+0xe8>
    39d6:	8b 53 14             	mov    0x14(%ebx),%edx
    39d9:	85 d2                	test   %edx,%edx
    39db:	0f 84 c7 00 00 00    	je     3aa8 <remote_audio_pcm_get_buffer+0xe8>
    39e1:	8b 55 14             	mov    0x14(%ebp),%edx
    39e4:	c7 45 e8 00 00 00 00 	movl   $0x0,-0x18(%ebp)
    39eb:	8b 52 08             	mov    0x8(%edx),%edx
    39ee:	56                   	push   %esi
    39ef:	89 55 ec             	mov    %edx,-0x14(%ebp)
    39f2:	8d 55 ec             	lea    -0x14(%ebp),%edx
    39f5:	52                   	push   %edx
    39f6:	8d 55 e8             	lea    -0x18(%ebp),%edx
    39f9:	52                   	push   %edx
    39fa:	8b 55 08             	mov    0x8(%ebp),%edx
    39fd:	52                   	push   %edx
    39fe:	ff d0                	call   *%eax
    3a00:	83 c4 0c             	add    $0xc,%esp
    3a03:	8b 4d ec             	mov    -0x14(%ebp),%ecx
    3a06:	89 c6                	mov    %eax,%esi
    3a08:	51                   	push   %ecx
    3a09:	50                   	push   %eax
    3a0a:	8b 45 10             	mov    0x10(%ebp),%eax
    3a0d:	50                   	push   %eax
    3a0e:	e8 ed 99 00 00       	call   d400 <async_answer_1@plt>
    3a13:	83 c4 10             	add    $0x10,%esp
    3a16:	85 f6                	test   %esi,%esi
    3a18:	74 0e                	je     3a28 <remote_audio_pcm_get_buffer+0x68>
    3a1a:	8d 65 f8             	lea    -0x8(%ebp),%esp
    3a1d:	5b                   	pop    %ebx
    3a1e:	5e                   	pop    %esi
    3a1f:	5d                   	pop    %ebp
    3a20:	c3                   	ret    
    3a21:	8d b4 26 00 00 00 00 	lea    0x0(%esi,%eiz,1),%esi
    3a28:	8b 4d ec             	mov    -0x14(%ebp),%ecx
    3a2b:	85 c9                	test   %ecx,%ecx
    3a2d:	74 eb                	je     3a1a <remote_audio_pcm_get_buffer+0x5a>
    3a2f:	c7 45 f0 00 00 00 00 	movl   $0x0,-0x10(%ebp)
    3a36:	56                   	push   %esi
    3a37:	c7 45 f4 00 00 00 00 	movl   $0x0,-0xc(%ebp)
    3a3e:	56                   	push   %esi
    3a3f:	68 54 b6 00 00       	push   $0xb654
    3a44:	6a 05                	push   $0x5
    3a46:	e8 25 f7 ff ff       	call   3170 <ddf_msg>
    3a4b:	58                   	pop    %eax
    3a4c:	8d 45 f0             	lea    -0x10(%ebp),%eax
    3a4f:	5a                   	pop    %edx
    3a50:	50                   	push   %eax
    3a51:	8d 45 f4             	lea    -0xc(%ebp),%eax
    3a54:	50                   	push   %eax
    3a55:	e8 36 99 00 00       	call   d390 <async_share_in_receive@plt>
    3a5a:	83 c4 10             	add    $0x10,%esp
    3a5d:	84 c0                	test   %al,%al
    3a5f:	74 5f                	je     3ac0 <remote_audio_pcm_get_buffer+0x100>
    3a61:	50                   	push   %eax
    3a62:	50                   	push   %eax
    3a63:	68 18 b8 00 00       	push   $0xb818
    3a68:	6a 05                	push   $0x5
    3a6a:	e8 01 f7 ff ff       	call   3170 <ddf_msg>
    3a6f:	8b 45 ec             	mov    -0x14(%ebp),%eax
    3a72:	83 c4 10             	add    $0x10,%esp
    3a75:	39 45 f0             	cmp    %eax,-0x10(%ebp)
    3a78:	74 76                	je     3af0 <remote_audio_pcm_get_buffer+0x130>
    3a7a:	50                   	push   %eax
    3a7b:	50                   	push   %eax
    3a7c:	68 38 b8 00 00       	push   $0xb838
    3a81:	6a 04                	push   $0x4
    3a83:	e8 e8 f6 ff ff       	call   3170 <ddf_msg>
    3a88:	8b 55 08             	mov    0x8(%ebp),%edx
    3a8b:	58                   	pop    %eax
    3a8c:	52                   	push   %edx
    3a8d:	ff 53 14             	call   *0x14(%ebx)
    3a90:	8b 75 f4             	mov    -0xc(%ebp),%esi
    3a93:	59                   	pop    %ecx
    3a94:	5b                   	pop    %ebx
    3a95:	6a fd                	push   $0xfffffffd
    3a97:	56                   	push   %esi
    3a98:	e8 c3 96 00 00       	call   d160 <async_answer_0@plt>
    3a9d:	83 c4 10             	add    $0x10,%esp
    3aa0:	e9 75 ff ff ff       	jmp    3a1a <remote_audio_pcm_get_buffer+0x5a>
    3aa5:	8d 76 00             	lea    0x0(%esi),%esi
    3aa8:	50                   	push   %eax
    3aa9:	50                   	push   %eax
    3aaa:	8b 45 10             	mov    0x10(%ebp),%eax
    3aad:	6a f5                	push   $0xfffffff5
    3aaf:	50                   	push   %eax
    3ab0:	e8 ab 96 00 00       	call   d160 <async_answer_0@plt>
    3ab5:	83 c4 10             	add    $0x10,%esp
    3ab8:	8d 65 f8             	lea    -0x8(%ebp),%esp
    3abb:	5b                   	pop    %ebx
    3abc:	5e                   	pop    %esi
    3abd:	5d                   	pop    %ebp
    3abe:	c3                   	ret    
    3abf:	90                   	nop
    3ac0:	50                   	push   %eax
    3ac1:	50                   	push   %eax
    3ac2:	68 6d b6 00 00       	push   $0xb66d
    3ac7:	6a 04                	push   $0x4
    3ac9:	e8 a2 f6 ff ff       	call   3170 <ddf_msg>
    3ace:	58                   	pop    %eax
    3acf:	8b 45 08             	mov    0x8(%ebp),%eax
    3ad2:	50                   	push   %eax
    3ad3:	ff 53 14             	call   *0x14(%ebx)
    3ad6:	8b 4d f4             	mov    -0xc(%ebp),%ecx
    3ad9:	58                   	pop    %eax
    3ada:	5a                   	pop    %edx
    3adb:	6a f8                	push   $0xfffffff8
    3add:	51                   	push   %ecx
    3ade:	e8 7d 96 00 00       	call   d160 <async_answer_0@plt>
    3ae3:	83 c4 10             	add    $0x10,%esp
    3ae6:	e9 2f ff ff ff       	jmp    3a1a <remote_audio_pcm_get_buffer+0x5a>
    3aeb:	90                   	nop
    3aec:	8d 74 26 00          	lea    0x0(%esi,%eiz,1),%esi
    3af0:	50                   	push   %eax
    3af1:	50                   	push   %eax
    3af2:	68 89 b6 00 00       	push   $0xb689
    3af7:	6a 05                	push   $0x5
    3af9:	e8 72 f6 ff ff       	call   3170 <ddf_msg>
    3afe:	83 c4 0c             	add    $0xc,%esp
    3b01:	8b 45 e8             	mov    -0x18(%ebp),%eax
    3b04:	6a 03                	push   $0x3
    3b06:	50                   	push   %eax
    3b07:	8b 45 f4             	mov    -0xc(%ebp),%eax
    3b0a:	50                   	push   %eax
    3b0b:	e8 30 99 00 00       	call   d440 <async_share_in_finalize@plt>
    3b10:	83 c4 10             	add    $0x10,%esp
    3b13:	85 c0                	test   %eax,%eax
    3b15:	74 1e                	je     3b35 <remote_audio_pcm_get_buffer+0x175>
    3b17:	51                   	push   %ecx
    3b18:	51                   	push   %ecx
    3b19:	68 a1 b6 00 00       	push   $0xb6a1
    3b1e:	6a 04                	push   $0x4
    3b20:	e8 4b f6 ff ff       	call   3170 <ddf_msg>
    3b25:	8b 45 08             	mov    0x8(%ebp),%eax
    3b28:	5e                   	pop    %esi
    3b29:	50                   	push   %eax
    3b2a:	ff 53 14             	call   *0x14(%ebx)
    3b2d:	83 c4 10             	add    $0x10,%esp
    3b30:	e9 e5 fe ff ff       	jmp    3a1a <remote_audio_pcm_get_buffer+0x5a>
    3b35:	8b 55 f0             	mov    -0x10(%ebp),%edx
    3b38:	50                   	push   %eax
    3b39:	52                   	push   %edx
    3b3a:	68 b9 b6 00 00       	push   $0xb6b9
    3b3f:	6a 05                	push   $0x5
    3b41:	e8 2a f6 ff ff       	call   3170 <ddf_msg>
    3b46:	83 c4 10             	add    $0x10,%esp
    3b49:	e9 cc fe ff ff       	jmp    3a1a <remote_audio_pcm_get_buffer+0x5a>
    3b4e:	66 90                	xchg   %ax,%ax

00003b50 <remote_audio_pcm_test_format>:
    3b50:	55                   	push   %ebp
    3b51:	89 e5                	mov    %esp,%ebp
    3b53:	53                   	push   %ebx
    3b54:	83 ec 14             	sub    $0x14,%esp
    3b57:	8b 45 14             	mov    0x14(%ebp),%eax
    3b5a:	8b 55 0c             	mov    0xc(%ebp),%edx
    3b5d:	8b 48 08             	mov    0x8(%eax),%ecx
    3b60:	8b 58 0c             	mov    0xc(%eax),%ebx
    3b63:	8b 52 04             	mov    0x4(%edx),%edx
    3b66:	8b 40 10             	mov    0x10(%eax),%eax
    3b69:	89 4d ec             	mov    %ecx,-0x14(%ebp)
    3b6c:	89 5d f0             	mov    %ebx,-0x10(%ebp)
    3b6f:	89 45 f4             	mov    %eax,-0xc(%ebp)
    3b72:	85 d2                	test   %edx,%edx
    3b74:	74 3a                	je     3bb0 <remote_audio_pcm_test_format+0x60>
    3b76:	8d 45 f4             	lea    -0xc(%ebp),%eax
    3b79:	8b 4d 08             	mov    0x8(%ebp),%ecx
    3b7c:	50                   	push   %eax
    3b7d:	8d 45 f0             	lea    -0x10(%ebp),%eax
    3b80:	50                   	push   %eax
    3b81:	8d 45 ec             	lea    -0x14(%ebp),%eax
    3b84:	50                   	push   %eax
    3b85:	51                   	push   %ecx
    3b86:	ff d2                	call   *%edx
    3b88:	8b 55 f4             	mov    -0xc(%ebp),%edx
    3b8b:	8b 5d f0             	mov    -0x10(%ebp),%ebx
    3b8e:	8b 4d ec             	mov    -0x14(%ebp),%ecx
    3b91:	83 c4 10             	add    $0x10,%esp
    3b94:	83 ec 0c             	sub    $0xc,%esp
    3b97:	52                   	push   %edx
    3b98:	53                   	push   %ebx
    3b99:	51                   	push   %ecx
    3b9a:	50                   	push   %eax
    3b9b:	8b 45 10             	mov    0x10(%ebp),%eax
    3b9e:	50                   	push   %eax
    3b9f:	e8 ac 98 00 00       	call   d450 <async_answer_3@plt>
    3ba4:	83 c4 20             	add    $0x20,%esp
    3ba7:	8b 5d fc             	mov    -0x4(%ebp),%ebx
    3baa:	c9                   	leave  
    3bab:	c3                   	ret    
    3bac:	8d 74 26 00          	lea    0x0(%esi,%eiz,1),%esi
    3bb0:	89 c2                	mov    %eax,%edx
    3bb2:	b8 f5 ff ff ff       	mov    $0xfffffff5,%eax
    3bb7:	eb db                	jmp    3b94 <remote_audio_pcm_test_format+0x44>
    3bb9:	8d b4 26 00 00 00 00 	lea    0x0(%esi,%eiz,1),%esi

00003bc0 <remote_audio_pcm_events_register>:
    3bc0:	55                   	push   %ebp
    3bc1:	89 e5                	mov    %esp,%ebp
    3bc3:	57                   	push   %edi
    3bc4:	56                   	push   %esi
    3bc5:	53                   	push   %ebx
    3bc6:	83 ec 3c             	sub    $0x3c,%esp
    3bc9:	8b 5d 0c             	mov    0xc(%ebp),%ebx
    3bcc:	8b 7b 1c             	mov    0x1c(%ebx),%edi
    3bcf:	85 ff                	test   %edi,%edi
    3bd1:	0f 84 91 00 00 00    	je     3c68 <remote_audio_pcm_events_register+0xa8>
    3bd7:	8b 73 18             	mov    0x18(%ebx),%esi
    3bda:	85 f6                	test   %esi,%esi
    3bdc:	0f 84 86 00 00 00    	je     3c68 <remote_audio_pcm_events_register+0xa8>
    3be2:	8b 75 10             	mov    0x10(%ebp),%esi
    3be5:	51                   	push   %ecx
    3be6:	51                   	push   %ecx
    3be7:	6a 00                	push   $0x0
    3be9:	56                   	push   %esi
    3bea:	8d 75 c4             	lea    -0x3c(%ebp),%esi
    3bed:	e8 6e 95 00 00       	call   d160 <async_answer_0@plt>
    3bf2:	5f                   	pop    %edi
    3bf3:	58                   	pop    %eax
    3bf4:	6a 00                	push   $0x0
    3bf6:	56                   	push   %esi
    3bf7:	e8 d4 97 00 00       	call   d3d0 <async_get_call_timeout@plt>
    3bfc:	89 c7                	mov    %eax,%edi
    3bfe:	58                   	pop    %eax
    3bff:	5a                   	pop    %edx
    3c00:	56                   	push   %esi
    3c01:	6a 00                	push   $0x0
    3c03:	e8 88 96 00 00       	call   d290 <async_callback_receive_start@plt>
    3c08:	83 c4 10             	add    $0x10,%esp
    3c0b:	89 c6                	mov    %eax,%esi
    3c0d:	85 c0                	test   %eax,%eax
    3c0f:	74 6f                	je     3c80 <remote_audio_pcm_events_register+0xc0>
    3c11:	50                   	push   %eax
    3c12:	50                   	push   %eax
    3c13:	8b 45 08             	mov    0x8(%ebp),%eax
    3c16:	56                   	push   %esi
    3c17:	50                   	push   %eax
    3c18:	ff 53 18             	call   *0x18(%ebx)
    3c1b:	83 c4 10             	add    $0x10,%esp
    3c1e:	89 c3                	mov    %eax,%ebx
    3c20:	85 c0                	test   %eax,%eax
    3c22:	74 2c                	je     3c50 <remote_audio_pcm_events_register+0x90>
    3c24:	52                   	push   %edx
    3c25:	52                   	push   %edx
    3c26:	68 d6 b6 00 00       	push   $0xb6d6
    3c2b:	6a 04                	push   $0x4
    3c2d:	e8 3e f5 ff ff       	call   3170 <ddf_msg>
    3c32:	89 34 24             	mov    %esi,(%esp)
    3c35:	e8 26 94 00 00       	call   d060 <async_hangup@plt>
    3c3a:	59                   	pop    %ecx
    3c3b:	5e                   	pop    %esi
    3c3c:	53                   	push   %ebx
    3c3d:	57                   	push   %edi
    3c3e:	e8 1d 95 00 00       	call   d160 <async_answer_0@plt>
    3c43:	83 c4 10             	add    $0x10,%esp
    3c46:	8d 65 f4             	lea    -0xc(%ebp),%esp
    3c49:	5b                   	pop    %ebx
    3c4a:	5e                   	pop    %esi
    3c4b:	5f                   	pop    %edi
    3c4c:	5d                   	pop    %ebp
    3c4d:	c3                   	ret    
    3c4e:	66 90                	xchg   %ax,%ax
    3c50:	50                   	push   %eax
    3c51:	50                   	push   %eax
    3c52:	6a 00                	push   $0x0
    3c54:	57                   	push   %edi
    3c55:	e8 06 95 00 00       	call   d160 <async_answer_0@plt>
    3c5a:	83 c4 10             	add    $0x10,%esp
    3c5d:	8d 65 f4             	lea    -0xc(%ebp),%esp
    3c60:	5b                   	pop    %ebx
    3c61:	5e                   	pop    %esi
    3c62:	5f                   	pop    %edi
    3c63:	5d                   	pop    %ebp
    3c64:	c3                   	ret    
    3c65:	8d 76 00             	lea    0x0(%esi),%esi
    3c68:	8b 5d 10             	mov    0x10(%ebp),%ebx
    3c6b:	51                   	push   %ecx
    3c6c:	51                   	push   %ecx
    3c6d:	6a f5                	push   $0xfffffff5
    3c6f:	53                   	push   %ebx
    3c70:	e8 eb 94 00 00       	call   d160 <async_answer_0@plt>
    3c75:	83 c4 10             	add    $0x10,%esp
    3c78:	8d 65 f4             	lea    -0xc(%ebp),%esp
    3c7b:	5b                   	pop    %ebx
    3c7c:	5e                   	pop    %esi
    3c7d:	5f                   	pop    %edi
    3c7e:	5d                   	pop    %ebp
    3c7f:	c3                   	ret    
    3c80:	50                   	push   %eax
    3c81:	50                   	push   %eax
    3c82:	68 60 b8 00 00       	push   $0xb860
    3c87:	6a 04                	push   $0x4
    3c89:	e8 e2 f4 ff ff       	call   3170 <ddf_msg>
    3c8e:	58                   	pop    %eax
    3c8f:	5a                   	pop    %edx
    3c90:	68 06 d5 ff ff       	push   $0xffffd506
    3c95:	57                   	push   %edi
    3c96:	e8 c5 94 00 00       	call   d160 <async_answer_0@plt>
    3c9b:	83 c4 10             	add    $0x10,%esp
    3c9e:	eb a6                	jmp    3c46 <remote_audio_pcm_events_register+0x86>

00003ca0 <remote_audio_pcm_get_info_str>:
    3ca0:	55                   	push   %ebp
    3ca1:	89 e5                	mov    %esp,%ebp
    3ca3:	56                   	push   %esi
    3ca4:	53                   	push   %ebx
    3ca5:	83 ec 10             	sub    $0x10,%esp
    3ca8:	8b 45 0c             	mov    0xc(%ebp),%eax
    3cab:	8b 00                	mov    (%eax),%eax
    3cad:	85 c0                	test   %eax,%eax
    3caf:	0f 84 ab 00 00 00    	je     3d60 <remote_audio_pcm_get_info_str+0xc0>
    3cb5:	8b 4d 08             	mov    0x8(%ebp),%ecx
    3cb8:	52                   	push   %edx
    3cb9:	c7 45 ec 00 00 00 00 	movl   $0x0,-0x14(%ebp)
    3cc0:	52                   	push   %edx
    3cc1:	8d 55 ec             	lea    -0x14(%ebp),%edx
    3cc4:	52                   	push   %edx
    3cc5:	51                   	push   %ecx
    3cc6:	ff d0                	call   *%eax
    3cc8:	83 c4 10             	add    $0x10,%esp
    3ccb:	89 c6                	mov    %eax,%esi
    3ccd:	8b 45 ec             	mov    -0x14(%ebp),%eax
    3cd0:	85 c0                	test   %eax,%eax
    3cd2:	74 5c                	je     3d30 <remote_audio_pcm_get_info_str+0x90>
    3cd4:	83 ec 0c             	sub    $0xc,%esp
    3cd7:	50                   	push   %eax
    3cd8:	e8 03 97 00 00       	call   d3e0 <str_size@plt>
    3cdd:	83 c4 0c             	add    $0xc,%esp
    3ce0:	8d 58 01             	lea    0x1(%eax),%ebx
    3ce3:	8b 45 10             	mov    0x10(%ebp),%eax
    3ce6:	53                   	push   %ebx
    3ce7:	56                   	push   %esi
    3ce8:	50                   	push   %eax
    3ce9:	e8 12 97 00 00       	call   d400 <async_answer_1@plt>
    3cee:	83 c4 10             	add    $0x10,%esp
    3cf1:	85 f6                	test   %esi,%esi
    3cf3:	75 2f                	jne    3d24 <remote_audio_pcm_get_info_str+0x84>
    3cf5:	85 db                	test   %ebx,%ebx
    3cf7:	74 2b                	je     3d24 <remote_audio_pcm_get_info_str+0x84>
    3cf9:	50                   	push   %eax
    3cfa:	50                   	push   %eax
    3cfb:	8d 45 f0             	lea    -0x10(%ebp),%eax
    3cfe:	50                   	push   %eax
    3cff:	8d 45 f4             	lea    -0xc(%ebp),%eax
    3d02:	50                   	push   %eax
    3d03:	e8 68 96 00 00       	call   d370 <async_data_read_receive@plt>
    3d08:	83 c4 10             	add    $0x10,%esp
    3d0b:	84 c0                	test   %al,%al
    3d0d:	74 69                	je     3d78 <remote_audio_pcm_get_info_str+0xd8>
    3d0f:	3b 5d f0             	cmp    -0x10(%ebp),%ebx
    3d12:	74 34                	je     3d48 <remote_audio_pcm_get_info_str+0xa8>
    3d14:	50                   	push   %eax
    3d15:	50                   	push   %eax
    3d16:	8b 45 f4             	mov    -0xc(%ebp),%eax
    3d19:	6a fd                	push   $0xfffffffd
    3d1b:	50                   	push   %eax
    3d1c:	e8 3f 94 00 00       	call   d160 <async_answer_0@plt>
    3d21:	83 c4 10             	add    $0x10,%esp
    3d24:	8d 65 f8             	lea    -0x8(%ebp),%esp
    3d27:	5b                   	pop    %ebx
    3d28:	5e                   	pop    %esi
    3d29:	5d                   	pop    %ebp
    3d2a:	c3                   	ret    
    3d2b:	90                   	nop
    3d2c:	8d 74 26 00          	lea    0x0(%esi,%eiz,1),%esi
    3d30:	8b 55 10             	mov    0x10(%ebp),%edx
    3d33:	50                   	push   %eax
    3d34:	6a 00                	push   $0x0
    3d36:	56                   	push   %esi
    3d37:	52                   	push   %edx
    3d38:	e8 c3 96 00 00       	call   d400 <async_answer_1@plt>
    3d3d:	83 c4 10             	add    $0x10,%esp
    3d40:	8d 65 f8             	lea    -0x8(%ebp),%esp
    3d43:	5b                   	pop    %ebx
    3d44:	5e                   	pop    %esi
    3d45:	5d                   	pop    %ebp
    3d46:	c3                   	ret    
    3d47:	90                   	nop
    3d48:	8b 75 f4             	mov    -0xc(%ebp),%esi
    3d4b:	51                   	push   %ecx
    3d4c:	53                   	push   %ebx
    3d4d:	8b 5d ec             	mov    -0x14(%ebp),%ebx
    3d50:	53                   	push   %ebx
    3d51:	56                   	push   %esi
    3d52:	e8 89 93 00 00       	call   d0e0 <async_data_read_finalize@plt>
    3d57:	83 c4 10             	add    $0x10,%esp
    3d5a:	eb c8                	jmp    3d24 <remote_audio_pcm_get_info_str+0x84>
    3d5c:	8d 74 26 00          	lea    0x0(%esi,%eiz,1),%esi
    3d60:	8b 75 10             	mov    0x10(%ebp),%esi
    3d63:	53                   	push   %ebx
    3d64:	53                   	push   %ebx
    3d65:	6a f5                	push   $0xfffffff5
    3d67:	56                   	push   %esi
    3d68:	e8 f3 93 00 00       	call   d160 <async_answer_0@plt>
    3d6d:	83 c4 10             	add    $0x10,%esp
    3d70:	8d 65 f8             	lea    -0x8(%ebp),%esp
    3d73:	5b                   	pop    %ebx
    3d74:	5e                   	pop    %esi
    3d75:	5d                   	pop    %ebp
    3d76:	c3                   	ret    
    3d77:	90                   	nop
    3d78:	50                   	push   %eax
    3d79:	50                   	push   %eax
    3d7a:	8b 45 f4             	mov    -0xc(%ebp),%eax
    3d7d:	6a f8                	push   $0xfffffff8
    3d7f:	50                   	push   %eax
    3d80:	e8 db 93 00 00       	call   d160 <async_answer_0@plt>
    3d85:	83 c4 10             	add    $0x10,%esp
    3d88:	eb 9a                	jmp    3d24 <remote_audio_pcm_get_info_str+0x84>
    3d8a:	8d b6 00 00 00 00    	lea    0x0(%esi),%esi

00003d90 <audio_pcm_cap_str>:
    3d90:	55                   	push   %ebp
    3d91:	b8 f4 b6 00 00       	mov    $0xb6f4,%eax
    3d96:	89 e5                	mov    %esp,%ebp
    3d98:	8b 55 08             	mov    0x8(%ebp),%edx
    3d9b:	83 fa 06             	cmp    $0x6,%edx
    3d9e:	77 07                	ja     3da7 <audio_pcm_cap_str+0x17>
    3da0:	8b 04 95 b8 c8 00 00 	mov    0xc8b8(,%edx,4),%eax
    3da7:	5d                   	pop    %ebp
    3da8:	c3                   	ret    
    3da9:	8d b4 26 00 00 00 00 	lea    0x0(%esi,%eiz,1),%esi

00003db0 <audio_pcm_event_str>:
    3db0:	55                   	push   %ebp
    3db1:	b8 00 b7 00 00       	mov    $0xb700,%eax
    3db6:	89 e5                	mov    %esp,%ebp
    3db8:	8b 55 08             	mov    0x8(%ebp),%edx
    3dbb:	81 fa 05 04 00 00    	cmp    $0x405,%edx
    3dc1:	77 07                	ja     3dca <audio_pcm_event_str+0x1a>
    3dc3:	8b 04 95 a0 b8 00 00 	mov    0xb8a0(,%edx,4),%eax
    3dca:	5d                   	pop    %ebp
    3dcb:	c3                   	ret    
    3dcc:	8d 74 26 00          	lea    0x0(%esi,%eiz,1),%esi

00003dd0 <audio_pcm_open_default>:
    3dd0:	55                   	push   %ebp
    3dd1:	89 e5                	mov    %esp,%ebp
    3dd3:	83 ec 28             	sub    $0x28,%esp
    3dd6:	80 3d 90 f6 00 00 00 	cmpb   $0x0,0xf690
    3ddd:	75 20                	jne    3dff <audio_pcm_open_default+0x2f>
    3ddf:	50                   	push   %eax
    3de0:	6a 01                	push   $0x1
    3de2:	68 8c f6 00 00       	push   $0xf68c
    3de7:	68 0e b7 00 00       	push   $0xb70e
    3dec:	e8 0f 92 00 00       	call   d000 <loc_category_get_id@plt>
    3df1:	83 c4 10             	add    $0x10,%esp
    3df4:	85 c0                	test   %eax,%eax
    3df6:	75 68                	jne    3e60 <audio_pcm_open_default+0x90>
    3df8:	c6 05 90 f6 00 00 01 	movb   $0x1,0xf690
    3dff:	8d 45 f4             	lea    -0xc(%ebp),%eax
    3e02:	51                   	push   %ecx
    3e03:	50                   	push   %eax
    3e04:	8d 45 f0             	lea    -0x10(%ebp),%eax
    3e07:	50                   	push   %eax
    3e08:	a1 8c f6 00 00       	mov    0xf68c,%eax
    3e0d:	50                   	push   %eax
    3e0e:	c7 45 f0 00 00 00 00 	movl   $0x0,-0x10(%ebp)
    3e15:	c7 45 f4 00 00 00 00 	movl   $0x0,-0xc(%ebp)
    3e1c:	e8 9f 95 00 00       	call   d3c0 <loc_category_get_svcs@plt>
    3e21:	83 c4 10             	add    $0x10,%esp
    3e24:	85 c0                	test   %eax,%eax
    3e26:	75 38                	jne    3e60 <audio_pcm_open_default+0x90>
    3e28:	8b 55 f4             	mov    -0xc(%ebp),%edx
    3e2b:	85 d2                	test   %edx,%edx
    3e2d:	75 19                	jne    3e48 <audio_pcm_open_default+0x78>
    3e2f:	83 ec 0c             	sub    $0xc,%esp
    3e32:	89 45 e4             	mov    %eax,-0x1c(%ebp)
    3e35:	8b 45 f0             	mov    -0x10(%ebp),%eax
    3e38:	50                   	push   %eax
    3e39:	e8 d2 96 00 00       	call   d510 <free@plt>
    3e3e:	8b 45 e4             	mov    -0x1c(%ebp),%eax
    3e41:	83 c4 10             	add    $0x10,%esp
    3e44:	c9                   	leave  
    3e45:	c3                   	ret    
    3e46:	66 90                	xchg   %ax,%ax
    3e48:	8b 45 f0             	mov    -0x10(%ebp),%eax
    3e4b:	52                   	push   %edx
    3e4c:	6a 01                	push   $0x1
    3e4e:	68 41 26 9b 41       	push   $0x419b2641
    3e53:	8b 08                	mov    (%eax),%ecx
    3e55:	51                   	push   %ecx
    3e56:	e8 d5 91 00 00       	call   d030 <loc_service_connect@plt>
    3e5b:	83 c4 10             	add    $0x10,%esp
    3e5e:	eb cf                	jmp    3e2f <audio_pcm_open_default+0x5f>
    3e60:	31 c0                	xor    %eax,%eax
    3e62:	c9                   	leave  
    3e63:	c3                   	ret    
    3e64:	8d b6 00 00 00 00    	lea    0x0(%esi),%esi
    3e6a:	8d bf 00 00 00 00    	lea    0x0(%edi),%edi

00003e70 <audio_pcm_open>:
    3e70:	55                   	push   %ebp
    3e71:	89 e5                	mov    %esp,%ebp
    3e73:	83 ec 1c             	sub    $0x1c,%esp
    3e76:	8d 45 f4             	lea    -0xc(%ebp),%eax
    3e79:	8b 4d 08             	mov    0x8(%ebp),%ecx
    3e7c:	6a 00                	push   $0x0
    3e7e:	c7 45 f4 00 00 00 00 	movl   $0x0,-0xc(%ebp)
    3e85:	50                   	push   %eax
    3e86:	51                   	push   %ecx
    3e87:	e8 a4 95 00 00       	call   d430 <devman_fun_get_handle@plt>
    3e8c:	83 c4 10             	add    $0x10,%esp
    3e8f:	85 c0                	test   %eax,%eax
    3e91:	75 15                	jne    3ea8 <audio_pcm_open+0x38>
    3e93:	8b 55 f4             	mov    -0xc(%ebp),%edx
    3e96:	50                   	push   %eax
    3e97:	50                   	push   %eax
    3e98:	6a 01                	push   $0x1
    3e9a:	52                   	push   %edx
    3e9b:	e8 70 91 00 00       	call   d010 <devman_device_connect@plt>
    3ea0:	83 c4 10             	add    $0x10,%esp
    3ea3:	c9                   	leave  
    3ea4:	c3                   	ret    
    3ea5:	8d 76 00             	lea    0x0(%esi),%esi
    3ea8:	31 c0                	xor    %eax,%eax
    3eaa:	c9                   	leave  
    3eab:	c3                   	ret    
    3eac:	8d 74 26 00          	lea    0x0(%esi,%eiz,1),%esi

00003eb0 <audio_pcm_open_service>:
    3eb0:	55                   	push   %ebp
    3eb1:	89 e5                	mov    %esp,%ebp
    3eb3:	83 ec 0c             	sub    $0xc,%esp
    3eb6:	8b 45 08             	mov    0x8(%ebp),%eax
    3eb9:	6a 01                	push   $0x1
    3ebb:	68 41 26 9b 41       	push   $0x419b2641
    3ec0:	50                   	push   %eax
    3ec1:	e8 6a 91 00 00       	call   d030 <loc_service_connect@plt>
    3ec6:	c9                   	leave  
    3ec7:	c3                   	ret    
    3ec8:	90                   	nop
    3ec9:	8d b4 26 00 00 00 00 	lea    0x0(%esi,%eiz,1),%esi

00003ed0 <audio_pcm_close>:
    3ed0:	55                   	push   %ebp
    3ed1:	89 e5                	mov    %esp,%ebp
    3ed3:	8b 45 08             	mov    0x8(%ebp),%eax
    3ed6:	85 c0                	test   %eax,%eax
    3ed8:	74 06                	je     3ee0 <audio_pcm_close+0x10>
    3eda:	5d                   	pop    %ebp
    3edb:	e9 80 91 00 00       	jmp    d060 <async_hangup@plt>
    3ee0:	5d                   	pop    %ebp
    3ee1:	c3                   	ret    
    3ee2:	8d b4 26 00 00 00 00 	lea    0x0(%esi,%eiz,1),%esi
    3ee9:	8d bc 27 00 00 00 00 	lea    0x0(%edi,%eiz,1),%edi

00003ef0 <audio_pcm_get_info_str>:
    3ef0:	55                   	push   %ebp
    3ef1:	89 e5                	mov    %esp,%ebp
    3ef3:	57                   	push   %edi
    3ef4:	56                   	push   %esi
    3ef5:	53                   	push   %ebx
    3ef6:	83 ec 2c             	sub    $0x2c,%esp
    3ef9:	8b 45 0c             	mov    0xc(%ebp),%eax
    3efc:	85 c0                	test   %eax,%eax
    3efe:	0f 84 ac 00 00 00    	je     3fb0 <audio_pcm_get_info_str+0xc0>
    3f04:	83 ec 0c             	sub    $0xc,%esp
    3f07:	8b 45 08             	mov    0x8(%ebp),%eax
    3f0a:	50                   	push   %eax
    3f0b:	e8 00 95 00 00       	call   d410 <async_exchange_begin@plt>
    3f10:	83 c4 0c             	add    $0xc,%esp
    3f13:	89 c6                	mov    %eax,%esi
    3f15:	8d 45 e4             	lea    -0x1c(%ebp),%eax
    3f18:	6a 00                	push   $0x0
    3f1a:	6a 00                	push   $0x0
    3f1c:	6a 00                	push   $0x0
    3f1e:	6a 00                	push   $0x0
    3f20:	50                   	push   %eax
    3f21:	6a 00                	push   $0x0
    3f23:	6a 00                	push   $0x0
    3f25:	6a 00                	push   $0x0
    3f27:	6a 00                	push   $0x0
    3f29:	68 04 04 00 00       	push   $0x404
    3f2e:	56                   	push   %esi
    3f2f:	e8 1c 92 00 00       	call   d150 <async_req_fast@plt>
    3f34:	83 c4 30             	add    $0x30,%esp
    3f37:	89 c3                	mov    %eax,%ebx
    3f39:	85 c0                	test   %eax,%eax
    3f3b:	75 2e                	jne    3f6b <audio_pcm_get_info_str+0x7b>
    3f3d:	8b 45 e4             	mov    -0x1c(%ebp),%eax
    3f40:	57                   	push   %edi
    3f41:	57                   	push   %edi
    3f42:	50                   	push   %eax
    3f43:	6a 01                	push   $0x1
    3f45:	e8 b6 92 00 00       	call   d200 <calloc@plt>
    3f4a:	83 c4 10             	add    $0x10,%esp
    3f4d:	89 c7                	mov    %eax,%edi
    3f4f:	85 c0                	test   %eax,%eax
    3f51:	74 64                	je     3fb7 <audio_pcm_get_info_str+0xc7>
    3f53:	8b 55 e4             	mov    -0x1c(%ebp),%edx
    3f56:	50                   	push   %eax
    3f57:	52                   	push   %edx
    3f58:	57                   	push   %edi
    3f59:	56                   	push   %esi
    3f5a:	e8 21 94 00 00       	call   d380 <async_data_read_start@plt>
    3f5f:	83 c4 10             	add    $0x10,%esp
    3f62:	85 c0                	test   %eax,%eax
    3f64:	75 22                	jne    3f88 <audio_pcm_get_info_str+0x98>
    3f66:	8b 45 0c             	mov    0xc(%ebp),%eax
    3f69:	89 38                	mov    %edi,(%eax)
    3f6b:	83 ec 0c             	sub    $0xc,%esp
    3f6e:	56                   	push   %esi
    3f6f:	e8 5c 92 00 00       	call   d1d0 <async_exchange_end@plt>
    3f74:	83 c4 10             	add    $0x10,%esp
    3f77:	89 d8                	mov    %ebx,%eax
    3f79:	8d 65 f4             	lea    -0xc(%ebp),%esp
    3f7c:	5b                   	pop    %ebx
    3f7d:	5e                   	pop    %esi
    3f7e:	5f                   	pop    %edi
    3f7f:	5d                   	pop    %ebp
    3f80:	c3                   	ret    
    3f81:	8d b4 26 00 00 00 00 	lea    0x0(%esi,%eiz,1),%esi
    3f88:	83 ec 0c             	sub    $0xc,%esp
    3f8b:	89 45 d4             	mov    %eax,-0x2c(%ebp)
    3f8e:	57                   	push   %edi
    3f8f:	e8 7c 95 00 00       	call   d510 <free@plt>
    3f94:	89 34 24             	mov    %esi,(%esp)
    3f97:	e8 34 92 00 00       	call   d1d0 <async_exchange_end@plt>
    3f9c:	8b 45 d4             	mov    -0x2c(%ebp),%eax
    3f9f:	83 c4 10             	add    $0x10,%esp
    3fa2:	8d 65 f4             	lea    -0xc(%ebp),%esp
    3fa5:	5b                   	pop    %ebx
    3fa6:	5e                   	pop    %esi
    3fa7:	5f                   	pop    %edi
    3fa8:	5d                   	pop    %ebp
    3fa9:	c3                   	ret    
    3faa:	8d b6 00 00 00 00    	lea    0x0(%esi),%esi
    3fb0:	b8 f2 ff ff ff       	mov    $0xfffffff2,%eax
    3fb5:	eb c2                	jmp    3f79 <audio_pcm_get_info_str+0x89>
    3fb7:	51                   	push   %ecx
    3fb8:	6a 00                	push   $0x0
    3fba:	6a ff                	push   $0xffffffff
    3fbc:	56                   	push   %esi
    3fbd:	e8 be 93 00 00       	call   d380 <async_data_read_start@plt>
    3fc2:	89 34 24             	mov    %esi,(%esp)
    3fc5:	e8 06 92 00 00       	call   d1d0 <async_exchange_end@plt>
    3fca:	83 c4 10             	add    $0x10,%esp
    3fcd:	b8 fe ff ff ff       	mov    $0xfffffffe,%eax
    3fd2:	eb a5                	jmp    3f79 <audio_pcm_get_info_str+0x89>
    3fd4:	8d b6 00 00 00 00    	lea    0x0(%esi),%esi
    3fda:	8d bf 00 00 00 00    	lea    0x0(%edi),%edi

00003fe0 <audio_pcm_query_cap>:
    3fe0:	55                   	push   %ebp
    3fe1:	89 e5                	mov    %esp,%ebp
    3fe3:	53                   	push   %ebx
    3fe4:	83 ec 30             	sub    $0x30,%esp
    3fe7:	8b 45 08             	mov    0x8(%ebp),%eax
    3fea:	50                   	push   %eax
    3feb:	e8 20 94 00 00       	call   d410 <async_exchange_begin@plt>
    3ff0:	83 c4 0c             	add    $0xc,%esp
    3ff3:	89 c3                	mov    %eax,%ebx
    3ff5:	8b 55 0c             	mov    0xc(%ebp),%edx
    3ff8:	8d 45 f4             	lea    -0xc(%ebp),%eax
    3ffb:	6a 00                	push   $0x0
    3ffd:	c7 45 f4 00 00 00 00 	movl   $0x0,-0xc(%ebp)
    4004:	6a 00                	push   $0x0
    4006:	6a 00                	push   $0x0
    4008:	6a 00                	push   $0x0
    400a:	50                   	push   %eax
    400b:	6a 00                	push   $0x0
    400d:	6a 00                	push   $0x0
    400f:	52                   	push   %edx
    4010:	6a 01                	push   $0x1
    4012:	68 04 04 00 00       	push   $0x404
    4017:	53                   	push   %ebx
    4018:	e8 33 91 00 00       	call   d150 <async_req_fast@plt>
    401d:	83 c4 24             	add    $0x24,%esp
    4020:	89 45 e4             	mov    %eax,-0x1c(%ebp)
    4023:	53                   	push   %ebx
    4024:	e8 a7 91 00 00       	call   d1d0 <async_exchange_end@plt>
    4029:	8b 45 e4             	mov    -0x1c(%ebp),%eax
    402c:	83 c4 10             	add    $0x10,%esp
    402f:	85 c0                	test   %eax,%eax
    4031:	75 03                	jne    4036 <audio_pcm_query_cap+0x56>
    4033:	8b 45 f4             	mov    -0xc(%ebp),%eax
    4036:	8b 5d fc             	mov    -0x4(%ebp),%ebx
    4039:	c9                   	leave  
    403a:	c3                   	ret    
    403b:	90                   	nop
    403c:	8d 74 26 00          	lea    0x0(%esi,%eiz,1),%esi

00004040 <audio_pcm_get_buffer_pos>:
    4040:	55                   	push   %ebp
    4041:	89 e5                	mov    %esp,%ebp
    4043:	56                   	push   %esi
    4044:	53                   	push   %ebx
    4045:	83 ec 20             	sub    $0x20,%esp
    4048:	8b 75 0c             	mov    0xc(%ebp),%esi
    404b:	85 f6                	test   %esi,%esi
    404d:	74 61                	je     40b0 <audio_pcm_get_buffer_pos+0x70>
    404f:	83 ec 0c             	sub    $0xc,%esp
    4052:	8b 45 08             	mov    0x8(%ebp),%eax
    4055:	50                   	push   %eax
    4056:	e8 b5 93 00 00       	call   d410 <async_exchange_begin@plt>
    405b:	83 c4 0c             	add    $0xc,%esp
    405e:	89 c3                	mov    %eax,%ebx
    4060:	8d 45 f4             	lea    -0xc(%ebp),%eax
    4063:	c7 45 f4 00 00 00 00 	movl   $0x0,-0xc(%ebp)
    406a:	6a 00                	push   $0x0
    406c:	6a 00                	push   $0x0
    406e:	6a 00                	push   $0x0
    4070:	6a 00                	push   $0x0
    4072:	50                   	push   %eax
    4073:	6a 00                	push   $0x0
    4075:	6a 00                	push   $0x0
    4077:	6a 00                	push   $0x0
    4079:	6a 07                	push   $0x7
    407b:	68 04 04 00 00       	push   $0x404
    4080:	53                   	push   %ebx
    4081:	e8 ca 90 00 00       	call   d150 <async_req_fast@plt>
    4086:	83 c4 30             	add    $0x30,%esp
    4089:	85 c0                	test   %eax,%eax
    408b:	74 1b                	je     40a8 <audio_pcm_get_buffer_pos+0x68>
    408d:	83 ec 0c             	sub    $0xc,%esp
    4090:	89 45 e4             	mov    %eax,-0x1c(%ebp)
    4093:	53                   	push   %ebx
    4094:	e8 37 91 00 00       	call   d1d0 <async_exchange_end@plt>
    4099:	83 c4 10             	add    $0x10,%esp
    409c:	8b 45 e4             	mov    -0x1c(%ebp),%eax
    409f:	8d 65 f8             	lea    -0x8(%ebp),%esp
    40a2:	5b                   	pop    %ebx
    40a3:	5e                   	pop    %esi
    40a4:	5d                   	pop    %ebp
    40a5:	c3                   	ret    
    40a6:	66 90                	xchg   %ax,%ax
    40a8:	8b 55 f4             	mov    -0xc(%ebp),%edx
    40ab:	89 16                	mov    %edx,(%esi)
    40ad:	eb de                	jmp    408d <audio_pcm_get_buffer_pos+0x4d>
    40af:	90                   	nop
    40b0:	b8 f2 ff ff ff       	mov    $0xfffffff2,%eax
    40b5:	eb e8                	jmp    409f <audio_pcm_get_buffer_pos+0x5f>
    40b7:	89 f6                	mov    %esi,%esi
    40b9:	8d bc 27 00 00 00 00 	lea    0x0(%edi,%eiz,1),%edi

000040c0 <audio_pcm_test_format>:
    40c0:	55                   	push   %ebp
    40c1:	89 e5                	mov    %esp,%ebp
    40c3:	57                   	push   %edi
    40c4:	56                   	push   %esi
    40c5:	53                   	push   %ebx
    40c6:	83 ec 38             	sub    $0x38,%esp
    40c9:	8b 45 08             	mov    0x8(%ebp),%eax
    40cc:	8b 5d 0c             	mov    0xc(%ebp),%ebx
    40cf:	50                   	push   %eax
    40d0:	e8 3b 93 00 00       	call   d410 <async_exchange_begin@plt>
    40d5:	83 c4 10             	add    $0x10,%esp
    40d8:	89 c6                	mov    %eax,%esi
    40da:	85 db                	test   %ebx,%ebx
    40dc:	0f 84 be 00 00 00    	je     41a0 <audio_pcm_test_format+0xe0>
    40e2:	8b 03                	mov    (%ebx),%eax
    40e4:	8b 7d 10             	mov    0x10(%ebp),%edi
    40e7:	89 45 dc             	mov    %eax,-0x24(%ebp)
    40ea:	85 ff                	test   %edi,%edi
    40ec:	0f 84 be 00 00 00    	je     41b0 <audio_pcm_test_format+0xf0>
    40f2:	8b 4d 10             	mov    0x10(%ebp),%ecx
    40f5:	8b 11                	mov    (%ecx),%edx
    40f7:	8b 4d 14             	mov    0x14(%ebp),%ecx
    40fa:	89 55 e0             	mov    %edx,-0x20(%ebp)
    40fd:	85 c9                	test   %ecx,%ecx
    40ff:	0f 84 bb 00 00 00    	je     41c0 <audio_pcm_test_format+0x100>
    4105:	8b 7d 14             	mov    0x14(%ebp),%edi
    4108:	8b 0f                	mov    (%edi),%ecx
    410a:	57                   	push   %edi
    410b:	8d 7d e4             	lea    -0x1c(%ebp),%edi
    410e:	6a 00                	push   $0x0
    4110:	6a 00                	push   $0x0
    4112:	57                   	push   %edi
    4113:	8d 7d e0             	lea    -0x20(%ebp),%edi
    4116:	57                   	push   %edi
    4117:	8d 7d dc             	lea    -0x24(%ebp),%edi
    411a:	57                   	push   %edi
    411b:	89 4d e4             	mov    %ecx,-0x1c(%ebp)
    411e:	51                   	push   %ecx
    411f:	52                   	push   %edx
    4120:	50                   	push   %eax
    4121:	6a 04                	push   $0x4
    4123:	68 04 04 00 00       	push   $0x404
    4128:	56                   	push   %esi
    4129:	e8 22 90 00 00       	call   d150 <async_req_fast@plt>
    412e:	83 c4 24             	add    $0x24,%esp
    4131:	89 45 d4             	mov    %eax,-0x2c(%ebp)
    4134:	56                   	push   %esi
    4135:	e8 96 90 00 00       	call   d1d0 <async_exchange_end@plt>
    413a:	8b 45 d4             	mov    -0x2c(%ebp),%eax
    413d:	83 c4 10             	add    $0x10,%esp
    4140:	85 c0                	test   %eax,%eax
    4142:	74 34                	je     4178 <audio_pcm_test_format+0xb8>
    4144:	83 f8 fd             	cmp    $0xfffffffd,%eax
    4147:	74 2f                	je     4178 <audio_pcm_test_format+0xb8>
    4149:	85 db                	test   %ebx,%ebx
    414b:	74 05                	je     4152 <audio_pcm_test_format+0x92>
    414d:	8b 55 dc             	mov    -0x24(%ebp),%edx
    4150:	89 13                	mov    %edx,(%ebx)
    4152:	8b 4d 10             	mov    0x10(%ebp),%ecx
    4155:	85 c9                	test   %ecx,%ecx
    4157:	74 08                	je     4161 <audio_pcm_test_format+0xa1>
    4159:	8b 55 e0             	mov    -0x20(%ebp),%edx
    415c:	8b 75 10             	mov    0x10(%ebp),%esi
    415f:	89 16                	mov    %edx,(%esi)
    4161:	8b 55 14             	mov    0x14(%ebp),%edx
    4164:	85 d2                	test   %edx,%edx
    4166:	74 08                	je     4170 <audio_pcm_test_format+0xb0>
    4168:	8b 4d 14             	mov    0x14(%ebp),%ecx
    416b:	8b 55 e4             	mov    -0x1c(%ebp),%edx
    416e:	89 11                	mov    %edx,(%ecx)
    4170:	8d 65 f4             	lea    -0xc(%ebp),%esp
    4173:	5b                   	pop    %ebx
    4174:	5e                   	pop    %esi
    4175:	5f                   	pop    %edi
    4176:	5d                   	pop    %ebp
    4177:	c3                   	ret    
    4178:	85 db                	test   %ebx,%ebx
    417a:	74 07                	je     4183 <audio_pcm_test_format+0xc3>
    417c:	8b 55 dc             	mov    -0x24(%ebp),%edx
    417f:	39 13                	cmp    %edx,(%ebx)
    4181:	75 cd                	jne    4150 <audio_pcm_test_format+0x90>
    4183:	8b 7d 10             	mov    0x10(%ebp),%edi
    4186:	85 ff                	test   %edi,%edi
    4188:	74 3e                	je     41c8 <audio_pcm_test_format+0x108>
    418a:	8b 75 10             	mov    0x10(%ebp),%esi
    418d:	8b 55 e0             	mov    -0x20(%ebp),%edx
    4190:	39 16                	cmp    %edx,(%esi)
    4192:	74 34                	je     41c8 <audio_pcm_test_format+0x108>
    4194:	85 db                	test   %ebx,%ebx
    4196:	75 b5                	jne    414d <audio_pcm_test_format+0x8d>
    4198:	eb c5                	jmp    415f <audio_pcm_test_format+0x9f>
    419a:	8d b6 00 00 00 00    	lea    0x0(%esi),%esi
    41a0:	31 c0                	xor    %eax,%eax
    41a2:	8b 7d 10             	mov    0x10(%ebp),%edi
    41a5:	89 45 dc             	mov    %eax,-0x24(%ebp)
    41a8:	85 ff                	test   %edi,%edi
    41aa:	0f 85 42 ff ff ff    	jne    40f2 <audio_pcm_test_format+0x32>
    41b0:	31 d2                	xor    %edx,%edx
    41b2:	8b 4d 14             	mov    0x14(%ebp),%ecx
    41b5:	89 55 e0             	mov    %edx,-0x20(%ebp)
    41b8:	85 c9                	test   %ecx,%ecx
    41ba:	0f 85 45 ff ff ff    	jne    4105 <audio_pcm_test_format+0x45>
    41c0:	31 c9                	xor    %ecx,%ecx
    41c2:	e9 43 ff ff ff       	jmp    410a <audio_pcm_test_format+0x4a>
    41c7:	90                   	nop
    41c8:	8b 75 14             	mov    0x14(%ebp),%esi
    41cb:	85 f6                	test   %esi,%esi
    41cd:	74 0e                	je     41dd <audio_pcm_test_format+0x11d>
    41cf:	8b 75 14             	mov    0x14(%ebp),%esi
    41d2:	8b 4d e4             	mov    -0x1c(%ebp),%ecx
    41d5:	39 0e                	cmp    %ecx,(%esi)
    41d7:	0f 85 6c ff ff ff    	jne    4149 <audio_pcm_test_format+0x89>
    41dd:	31 c0                	xor    %eax,%eax
    41df:	eb 8f                	jmp    4170 <audio_pcm_test_format+0xb0>
    41e1:	eb 0d                	jmp    41f0 <audio_pcm_register_event_callback>
    41e3:	90                   	nop
    41e4:	90                   	nop
    41e5:	90                   	nop
    41e6:	90                   	nop
    41e7:	90                   	nop
    41e8:	90                   	nop
    41e9:	90                   	nop
    41ea:	90                   	nop
    41eb:	90                   	nop
    41ec:	90                   	nop
    41ed:	90                   	nop
    41ee:	90                   	nop
    41ef:	90                   	nop

000041f0 <audio_pcm_register_event_callback>:
    41f0:	55                   	push   %ebp
    41f1:	89 e5                	mov    %esp,%ebp
    41f3:	56                   	push   %esi
    41f4:	53                   	push   %ebx
    41f5:	83 ec 20             	sub    $0x20,%esp
    41f8:	8b 75 0c             	mov    0xc(%ebp),%esi
    41fb:	85 f6                	test   %esi,%esi
    41fd:	74 71                	je     4270 <audio_pcm_register_event_callback+0x80>
    41ff:	83 ec 0c             	sub    $0xc,%esp
    4202:	8b 4d 08             	mov    0x8(%ebp),%ecx
    4205:	51                   	push   %ecx
    4206:	e8 05 92 00 00       	call   d410 <async_exchange_begin@plt>
    420b:	83 c4 0c             	add    $0xc,%esp
    420e:	89 c3                	mov    %eax,%ebx
    4210:	6a 00                	push   $0x0
    4212:	6a 00                	push   $0x0
    4214:	6a 00                	push   $0x0
    4216:	6a 00                	push   $0x0
    4218:	6a 00                	push   $0x0
    421a:	6a 00                	push   $0x0
    421c:	6a 00                	push   $0x0
    421e:	6a 00                	push   $0x0
    4220:	6a 02                	push   $0x2
    4222:	68 04 04 00 00       	push   $0x404
    4227:	50                   	push   %eax
    4228:	e8 23 8f 00 00       	call   d150 <async_req_fast@plt>
    422d:	83 c4 30             	add    $0x30,%esp
    4230:	85 c0                	test   %eax,%eax
    4232:	74 1c                	je     4250 <audio_pcm_register_event_callback+0x60>
    4234:	83 ec 0c             	sub    $0xc,%esp
    4237:	89 45 e4             	mov    %eax,-0x1c(%ebp)
    423a:	53                   	push   %ebx
    423b:	e8 90 8f 00 00       	call   d1d0 <async_exchange_end@plt>
    4240:	83 c4 10             	add    $0x10,%esp
    4243:	8b 45 e4             	mov    -0x1c(%ebp),%eax
    4246:	8d 65 f8             	lea    -0x8(%ebp),%esp
    4249:	5b                   	pop    %ebx
    424a:	5e                   	pop    %esi
    424b:	5d                   	pop    %ebp
    424c:	c3                   	ret    
    424d:	8d 76 00             	lea    0x0(%esi),%esi
    4250:	8b 55 10             	mov    0x10(%ebp),%edx
    4253:	50                   	push   %eax
    4254:	8d 45 f4             	lea    -0xc(%ebp),%eax
    4257:	50                   	push   %eax
    4258:	52                   	push   %edx
    4259:	56                   	push   %esi
    425a:	6a 00                	push   $0x0
    425c:	6a 00                	push   $0x0
    425e:	68 16 86 8f db       	push   $0xdb8f8616
    4263:	53                   	push   %ebx
    4264:	e8 b7 90 00 00       	call   d320 <async_create_callback_port@plt>
    4269:	83 c4 20             	add    $0x20,%esp
    426c:	eb c6                	jmp    4234 <audio_pcm_register_event_callback+0x44>
    426e:	66 90                	xchg   %ax,%ax
    4270:	b8 f2 ff ff ff       	mov    $0xfffffff2,%eax
    4275:	eb cf                	jmp    4246 <audio_pcm_register_event_callback+0x56>
    4277:	89 f6                	mov    %esi,%esi
    4279:	8d bc 27 00 00 00 00 	lea    0x0(%edi,%eiz,1),%edi

00004280 <audio_pcm_unregister_event_callback>:
    4280:	55                   	push   %ebp
    4281:	89 e5                	mov    %esp,%ebp
    4283:	53                   	push   %ebx
    4284:	83 ec 20             	sub    $0x20,%esp
    4287:	8b 45 08             	mov    0x8(%ebp),%eax
    428a:	50                   	push   %eax
    428b:	e8 80 91 00 00       	call   d410 <async_exchange_begin@plt>
    4290:	83 c4 0c             	add    $0xc,%esp
    4293:	89 c3                	mov    %eax,%ebx
    4295:	6a 00                	push   $0x0
    4297:	6a 00                	push   $0x0
    4299:	6a 00                	push   $0x0
    429b:	6a 00                	push   $0x0
    429d:	6a 00                	push   $0x0
    429f:	6a 00                	push   $0x0
    42a1:	6a 00                	push   $0x0
    42a3:	6a 00                	push   $0x0
    42a5:	6a 03                	push   $0x3
    42a7:	68 04 04 00 00       	push   $0x404
    42ac:	50                   	push   %eax
    42ad:	e8 9e 8e 00 00       	call   d150 <async_req_fast@plt>
    42b2:	83 c4 24             	add    $0x24,%esp
    42b5:	89 45 f4             	mov    %eax,-0xc(%ebp)
    42b8:	53                   	push   %ebx
    42b9:	e8 12 8f 00 00       	call   d1d0 <async_exchange_end@plt>
    42be:	8b 45 f4             	mov    -0xc(%ebp),%eax
    42c1:	8b 5d fc             	mov    -0x4(%ebp),%ebx
    42c4:	c9                   	leave  
    42c5:	c3                   	ret    
    42c6:	8d 76 00             	lea    0x0(%esi),%esi
    42c9:	8d bc 27 00 00 00 00 	lea    0x0(%edi,%eiz,1),%edi

000042d0 <audio_pcm_get_buffer>:
    42d0:	55                   	push   %ebp
    42d1:	89 e5                	mov    %esp,%ebp
    42d3:	57                   	push   %edi
    42d4:	56                   	push   %esi
    42d5:	53                   	push   %ebx
    42d6:	83 ec 2c             	sub    $0x2c,%esp
    42d9:	8b 75 0c             	mov    0xc(%ebp),%esi
    42dc:	8b 5d 10             	mov    0x10(%ebp),%ebx
    42df:	85 f6                	test   %esi,%esi
    42e1:	0f 84 91 00 00 00    	je     4378 <audio_pcm_get_buffer+0xa8>
    42e7:	85 db                	test   %ebx,%ebx
    42e9:	0f 84 89 00 00 00    	je     4378 <audio_pcm_get_buffer+0xa8>
    42ef:	83 ec 0c             	sub    $0xc,%esp
    42f2:	8b 55 08             	mov    0x8(%ebp),%edx
    42f5:	52                   	push   %edx
    42f6:	e8 15 91 00 00       	call   d410 <async_exchange_begin@plt>
    42fb:	83 c4 0c             	add    $0xc,%esp
    42fe:	89 c7                	mov    %eax,%edi
    4300:	8d 55 e0             	lea    -0x20(%ebp),%edx
    4303:	8b 03                	mov    (%ebx),%eax
    4305:	89 45 e0             	mov    %eax,-0x20(%ebp)
    4308:	6a 00                	push   $0x0
    430a:	6a 00                	push   $0x0
    430c:	6a 00                	push   $0x0
    430e:	6a 00                	push   $0x0
    4310:	52                   	push   %edx
    4311:	6a 00                	push   $0x0
    4313:	6a 00                	push   $0x0
    4315:	50                   	push   %eax
    4316:	6a 05                	push   $0x5
    4318:	68 04 04 00 00       	push   $0x404
    431d:	57                   	push   %edi
    431e:	e8 2d 8e 00 00       	call   d150 <async_req_fast@plt>
    4323:	83 c4 30             	add    $0x30,%esp
    4326:	85 c0                	test   %eax,%eax
    4328:	75 2d                	jne    4357 <audio_pcm_get_buffer+0x87>
    432a:	83 ec 0c             	sub    $0xc,%esp
    432d:	8d 45 e4             	lea    -0x1c(%ebp),%eax
    4330:	c7 45 e4 00 00 00 00 	movl   $0x0,-0x1c(%ebp)
    4337:	50                   	push   %eax
    4338:	8b 45 e0             	mov    -0x20(%ebp),%eax
    433b:	6a 00                	push   $0x0
    433d:	6a 00                	push   $0x0
    433f:	50                   	push   %eax
    4340:	57                   	push   %edi
    4341:	e8 aa 8d 00 00       	call   d0f0 <async_share_in_start@plt>
    4346:	83 c4 20             	add    $0x20,%esp
    4349:	85 c0                	test   %eax,%eax
    434b:	75 0a                	jne    4357 <audio_pcm_get_buffer+0x87>
    434d:	8b 55 e4             	mov    -0x1c(%ebp),%edx
    4350:	89 16                	mov    %edx,(%esi)
    4352:	8b 55 e0             	mov    -0x20(%ebp),%edx
    4355:	89 13                	mov    %edx,(%ebx)
    4357:	83 ec 0c             	sub    $0xc,%esp
    435a:	89 45 d4             	mov    %eax,-0x2c(%ebp)
    435d:	57                   	push   %edi
    435e:	e8 6d 8e 00 00       	call   d1d0 <async_exchange_end@plt>
    4363:	83 c4 10             	add    $0x10,%esp
    4366:	8b 45 d4             	mov    -0x2c(%ebp),%eax
    4369:	8d 65 f4             	lea    -0xc(%ebp),%esp
    436c:	5b                   	pop    %ebx
    436d:	5e                   	pop    %esi
    436e:	5f                   	pop    %edi
    436f:	5d                   	pop    %ebp
    4370:	c3                   	ret    
    4371:	8d b4 26 00 00 00 00 	lea    0x0(%esi,%eiz,1),%esi
    4378:	b8 f2 ff ff ff       	mov    $0xfffffff2,%eax
    437d:	eb ea                	jmp    4369 <audio_pcm_get_buffer+0x99>
    437f:	90                   	nop

00004380 <audio_pcm_release_buffer>:
    4380:	55                   	push   %ebp
    4381:	89 e5                	mov    %esp,%ebp
    4383:	53                   	push   %ebx
    4384:	83 ec 20             	sub    $0x20,%esp
    4387:	8b 45 08             	mov    0x8(%ebp),%eax
    438a:	50                   	push   %eax
    438b:	e8 80 90 00 00       	call   d410 <async_exchange_begin@plt>
    4390:	83 c4 0c             	add    $0xc,%esp
    4393:	89 c3                	mov    %eax,%ebx
    4395:	6a 00                	push   $0x0
    4397:	6a 00                	push   $0x0
    4399:	6a 00                	push   $0x0
    439b:	6a 00                	push   $0x0
    439d:	6a 00                	push   $0x0
    439f:	6a 00                	push   $0x0
    43a1:	6a 00                	push   $0x0
    43a3:	6a 00                	push   $0x0
    43a5:	6a 06                	push   $0x6
    43a7:	68 04 04 00 00       	push   $0x404
    43ac:	50                   	push   %eax
    43ad:	e8 9e 8d 00 00       	call   d150 <async_req_fast@plt>
    43b2:	83 c4 24             	add    $0x24,%esp
    43b5:	89 45 f4             	mov    %eax,-0xc(%ebp)
    43b8:	53                   	push   %ebx
    43b9:	e8 12 8e 00 00       	call   d1d0 <async_exchange_end@plt>
    43be:	8b 45 f4             	mov    -0xc(%ebp),%eax
    43c1:	8b 5d fc             	mov    -0x4(%ebp),%ebx
    43c4:	c9                   	leave  
    43c5:	c3                   	ret    
    43c6:	8d 76 00             	lea    0x0(%esi),%esi
    43c9:	8d bc 27 00 00 00 00 	lea    0x0(%edi,%eiz,1),%edi

000043d0 <audio_pcm_start_playback_fragment>:
    43d0:	55                   	push   %ebp
    43d1:	89 e5                	mov    %esp,%ebp
    43d3:	56                   	push   %esi
    43d4:	53                   	push   %ebx
    43d5:	83 ec 10             	sub    $0x10,%esp
    43d8:	81 7d 10 ff ff 00 00 	cmpl   $0xffff,0x10(%ebp)
    43df:	77 5f                	ja     4440 <audio_pcm_start_playback_fragment+0x70>
    43e1:	f7 45 18 00 00 ff ff 	testl  $0xffff0000,0x18(%ebp)
    43e8:	75 5d                	jne    4447 <audio_pcm_start_playback_fragment+0x77>
    43ea:	83 ec 0c             	sub    $0xc,%esp
    43ed:	8b 5d 10             	mov    0x10(%ebp),%ebx
    43f0:	8b 55 08             	mov    0x8(%ebp),%edx
    43f3:	8b 45 18             	mov    0x18(%ebp),%eax
    43f6:	c1 e3 10             	shl    $0x10,%ebx
    43f9:	52                   	push   %edx
    43fa:	09 c3                	or     %eax,%ebx
    43fc:	e8 0f 90 00 00       	call   d410 <async_exchange_begin@plt>
    4401:	83 c4 0c             	add    $0xc,%esp
    4404:	8b 4d 14             	mov    0x14(%ebp),%ecx
    4407:	89 c6                	mov    %eax,%esi
    4409:	6a 00                	push   $0x0
    440b:	6a 00                	push   $0x0
    440d:	6a 00                	push   $0x0
    440f:	6a 00                	push   $0x0
    4411:	6a 00                	push   $0x0
    4413:	53                   	push   %ebx
    4414:	8b 5d 0c             	mov    0xc(%ebp),%ebx
    4417:	51                   	push   %ecx
    4418:	53                   	push   %ebx
    4419:	6a 08                	push   $0x8
    441b:	68 04 04 00 00       	push   $0x404
    4420:	50                   	push   %eax
    4421:	e8 2a 8d 00 00       	call   d150 <async_req_fast@plt>
    4426:	83 c4 24             	add    $0x24,%esp
    4429:	56                   	push   %esi
    442a:	89 45 f4             	mov    %eax,-0xc(%ebp)
    442d:	e8 9e 8d 00 00       	call   d1d0 <async_exchange_end@plt>
    4432:	83 c4 10             	add    $0x10,%esp
    4435:	8b 45 f4             	mov    -0xc(%ebp),%eax
    4438:	8d 65 f8             	lea    -0x8(%ebp),%esp
    443b:	5b                   	pop    %ebx
    443c:	5e                   	pop    %esi
    443d:	5d                   	pop    %ebp
    443e:	c3                   	ret    
    443f:	90                   	nop
    4440:	b8 f2 ff ff ff       	mov    $0xfffffff2,%eax
    4445:	eb f1                	jmp    4438 <audio_pcm_start_playback_fragment+0x68>
    4447:	56                   	push   %esi
    4448:	68 a6 01 00 00       	push   $0x1a6
    444d:	68 18 b7 00 00       	push   $0xb718
    4452:	68 80 b8 00 00       	push   $0xb880
    4457:	e8 84 8d 00 00       	call   d1e0 <assert_abort@plt>
    445c:	8d 74 26 00          	lea    0x0(%esi,%eiz,1),%esi

00004460 <audio_pcm_last_playback_fragment>:
    4460:	55                   	push   %ebp
    4461:	89 e5                	mov    %esp,%ebp
    4463:	53                   	push   %ebx
    4464:	83 ec 20             	sub    $0x20,%esp
    4467:	8b 45 08             	mov    0x8(%ebp),%eax
    446a:	50                   	push   %eax
    446b:	e8 a0 8f 00 00       	call   d410 <async_exchange_begin@plt>
    4470:	83 c4 0c             	add    $0xc,%esp
    4473:	89 c3                	mov    %eax,%ebx
    4475:	6a 00                	push   $0x0
    4477:	6a 00                	push   $0x0
    4479:	6a 00                	push   $0x0
    447b:	6a 00                	push   $0x0
    447d:	6a 00                	push   $0x0
    447f:	6a 00                	push   $0x0
    4481:	6a 00                	push   $0x0
    4483:	6a 00                	push   $0x0
    4485:	6a 09                	push   $0x9
    4487:	68 04 04 00 00       	push   $0x404
    448c:	50                   	push   %eax
    448d:	e8 be 8c 00 00       	call   d150 <async_req_fast@plt>
    4492:	83 c4 24             	add    $0x24,%esp
    4495:	89 45 f4             	mov    %eax,-0xc(%ebp)
    4498:	53                   	push   %ebx
    4499:	e8 32 8d 00 00       	call   d1d0 <async_exchange_end@plt>
    449e:	8b 45 f4             	mov    -0xc(%ebp),%eax
    44a1:	8b 5d fc             	mov    -0x4(%ebp),%ebx
    44a4:	c9                   	leave  
    44a5:	c3                   	ret    
    44a6:	8d 76 00             	lea    0x0(%esi),%esi
    44a9:	8d bc 27 00 00 00 00 	lea    0x0(%edi,%eiz,1),%edi

000044b0 <audio_pcm_start_playback>:
    44b0:	55                   	push   %ebp
    44b1:	89 e5                	mov    %esp,%ebp
    44b3:	56                   	push   %esi
    44b4:	53                   	push   %ebx
    44b5:	83 ec 10             	sub    $0x10,%esp
    44b8:	81 7d 0c ff ff 00 00 	cmpl   $0xffff,0xc(%ebp)
    44bf:	77 5f                	ja     4520 <audio_pcm_start_playback+0x70>
    44c1:	f7 45 14 00 00 ff ff 	testl  $0xffff0000,0x14(%ebp)
    44c8:	75 5d                	jne    4527 <audio_pcm_start_playback+0x77>
    44ca:	83 ec 0c             	sub    $0xc,%esp
    44cd:	8b 5d 0c             	mov    0xc(%ebp),%ebx
    44d0:	8b 55 08             	mov    0x8(%ebp),%edx
    44d3:	8b 45 14             	mov    0x14(%ebp),%eax
    44d6:	c1 e3 10             	shl    $0x10,%ebx
    44d9:	52                   	push   %edx
    44da:	09 c3                	or     %eax,%ebx
    44dc:	e8 2f 8f 00 00       	call   d410 <async_exchange_begin@plt>
    44e1:	83 c4 0c             	add    $0xc,%esp
    44e4:	8b 4d 10             	mov    0x10(%ebp),%ecx
    44e7:	89 c6                	mov    %eax,%esi
    44e9:	6a 00                	push   $0x0
    44eb:	6a 00                	push   $0x0
    44ed:	6a 00                	push   $0x0
    44ef:	6a 00                	push   $0x0
    44f1:	6a 00                	push   $0x0
    44f3:	53                   	push   %ebx
    44f4:	51                   	push   %ecx
    44f5:	6a 00                	push   $0x0
    44f7:	6a 08                	push   $0x8
    44f9:	68 04 04 00 00       	push   $0x404
    44fe:	50                   	push   %eax
    44ff:	e8 4c 8c 00 00       	call   d150 <async_req_fast@plt>
    4504:	83 c4 24             	add    $0x24,%esp
    4507:	89 45 f4             	mov    %eax,-0xc(%ebp)
    450a:	56                   	push   %esi
    450b:	e8 c0 8c 00 00       	call   d1d0 <async_exchange_end@plt>
    4510:	83 c4 10             	add    $0x10,%esp
    4513:	8b 45 f4             	mov    -0xc(%ebp),%eax
    4516:	8d 65 f8             	lea    -0x8(%ebp),%esp
    4519:	5b                   	pop    %ebx
    451a:	5e                   	pop    %esi
    451b:	5d                   	pop    %ebp
    451c:	c3                   	ret    
    451d:	8d 76 00             	lea    0x0(%esi),%esi
    4520:	b8 f2 ff ff ff       	mov    $0xfffffff2,%eax
    4525:	eb ef                	jmp    4516 <audio_pcm_start_playback+0x66>
    4527:	53                   	push   %ebx
    4528:	68 a6 01 00 00       	push   $0x1a6
    452d:	68 18 b7 00 00       	push   $0xb718
    4532:	68 80 b8 00 00       	push   $0xb880
    4537:	e8 a4 8c 00 00       	call   d1e0 <assert_abort@plt>
    453c:	8d 74 26 00          	lea    0x0(%esi,%eiz,1),%esi

00004540 <audio_pcm_stop_playback_immediate>:
    4540:	55                   	push   %ebp
    4541:	89 e5                	mov    %esp,%ebp
    4543:	53                   	push   %ebx
    4544:	83 ec 20             	sub    $0x20,%esp
    4547:	8b 45 08             	mov    0x8(%ebp),%eax
    454a:	50                   	push   %eax
    454b:	e8 c0 8e 00 00       	call   d410 <async_exchange_begin@plt>
    4550:	83 c4 0c             	add    $0xc,%esp
    4553:	89 c3                	mov    %eax,%ebx
    4555:	6a 00                	push   $0x0
    4557:	6a 00                	push   $0x0
    4559:	6a 00                	push   $0x0
    455b:	6a 00                	push   $0x0
    455d:	6a 00                	push   $0x0
    455f:	6a 00                	push   $0x0
    4561:	6a 00                	push   $0x0
    4563:	6a 01                	push   $0x1
    4565:	6a 09                	push   $0x9
    4567:	68 04 04 00 00       	push   $0x404
    456c:	50                   	push   %eax
    456d:	e8 de 8b 00 00       	call   d150 <async_req_fast@plt>
    4572:	83 c4 24             	add    $0x24,%esp
    4575:	89 45 f4             	mov    %eax,-0xc(%ebp)
    4578:	53                   	push   %ebx
    4579:	e8 52 8c 00 00       	call   d1d0 <async_exchange_end@plt>
    457e:	8b 45 f4             	mov    -0xc(%ebp),%eax
    4581:	8b 5d fc             	mov    -0x4(%ebp),%ebx
    4584:	c9                   	leave  
    4585:	c3                   	ret    
    4586:	8d 76 00             	lea    0x0(%esi),%esi
    4589:	8d bc 27 00 00 00 00 	lea    0x0(%edi,%eiz,1),%edi

00004590 <audio_pcm_stop_playback>:
    4590:	55                   	push   %ebp
    4591:	89 e5                	mov    %esp,%ebp
    4593:	53                   	push   %ebx
    4594:	83 ec 20             	sub    $0x20,%esp
    4597:	8b 45 08             	mov    0x8(%ebp),%eax
    459a:	50                   	push   %eax
    459b:	e8 70 8e 00 00       	call   d410 <async_exchange_begin@plt>
    45a0:	83 c4 0c             	add    $0xc,%esp
    45a3:	89 c3                	mov    %eax,%ebx
    45a5:	6a 00                	push   $0x0
    45a7:	6a 00                	push   $0x0
    45a9:	6a 00                	push   $0x0
    45ab:	6a 00                	push   $0x0
    45ad:	6a 00                	push   $0x0
    45af:	6a 00                	push   $0x0
    45b1:	6a 00                	push   $0x0
    45b3:	6a 00                	push   $0x0
    45b5:	6a 09                	push   $0x9
    45b7:	68 04 04 00 00       	push   $0x404
    45bc:	50                   	push   %eax
    45bd:	e8 8e 8b 00 00       	call   d150 <async_req_fast@plt>
    45c2:	83 c4 24             	add    $0x24,%esp
    45c5:	89 45 f4             	mov    %eax,-0xc(%ebp)
    45c8:	53                   	push   %ebx
    45c9:	e8 02 8c 00 00       	call   d1d0 <async_exchange_end@plt>
    45ce:	8b 45 f4             	mov    -0xc(%ebp),%eax
    45d1:	8b 5d fc             	mov    -0x4(%ebp),%ebx
    45d4:	c9                   	leave  
    45d5:	c3                   	ret    
    45d6:	8d 76 00             	lea    0x0(%esi),%esi
    45d9:	8d bc 27 00 00 00 00 	lea    0x0(%edi,%eiz,1),%edi

000045e0 <audio_pcm_start_capture_fragment>:
    45e0:	55                   	push   %ebp
    45e1:	89 e5                	mov    %esp,%ebp
    45e3:	56                   	push   %esi
    45e4:	53                   	push   %ebx
    45e5:	83 ec 10             	sub    $0x10,%esp
    45e8:	81 7d 10 ff ff 00 00 	cmpl   $0xffff,0x10(%ebp)
    45ef:	77 5f                	ja     4650 <audio_pcm_start_capture_fragment+0x70>
    45f1:	f7 45 18 00 00 ff ff 	testl  $0xffff0000,0x18(%ebp)
    45f8:	75 5d                	jne    4657 <audio_pcm_start_capture_fragment+0x77>
    45fa:	83 ec 0c             	sub    $0xc,%esp
    45fd:	8b 5d 10             	mov    0x10(%ebp),%ebx
    4600:	8b 55 08             	mov    0x8(%ebp),%edx
    4603:	8b 45 18             	mov    0x18(%ebp),%eax
    4606:	c1 e3 10             	shl    $0x10,%ebx
    4609:	52                   	push   %edx
    460a:	09 c3                	or     %eax,%ebx
    460c:	e8 ff 8d 00 00       	call   d410 <async_exchange_begin@plt>
    4611:	83 c4 0c             	add    $0xc,%esp
    4614:	8b 4d 14             	mov    0x14(%ebp),%ecx
    4617:	89 c6                	mov    %eax,%esi
    4619:	6a 00                	push   $0x0
    461b:	6a 00                	push   $0x0
    461d:	6a 00                	push   $0x0
    461f:	6a 00                	push   $0x0
    4621:	6a 00                	push   $0x0
    4623:	53                   	push   %ebx
    4624:	8b 5d 0c             	mov    0xc(%ebp),%ebx
    4627:	51                   	push   %ecx
    4628:	53                   	push   %ebx
    4629:	6a 0a                	push   $0xa
    462b:	68 04 04 00 00       	push   $0x404
    4630:	50                   	push   %eax
    4631:	e8 1a 8b 00 00       	call   d150 <async_req_fast@plt>
    4636:	83 c4 24             	add    $0x24,%esp
    4639:	56                   	push   %esi
    463a:	89 45 f4             	mov    %eax,-0xc(%ebp)
    463d:	e8 8e 8b 00 00       	call   d1d0 <async_exchange_end@plt>
    4642:	83 c4 10             	add    $0x10,%esp
    4645:	8b 45 f4             	mov    -0xc(%ebp),%eax
    4648:	8d 65 f8             	lea    -0x8(%ebp),%esp
    464b:	5b                   	pop    %ebx
    464c:	5e                   	pop    %esi
    464d:	5d                   	pop    %ebp
    464e:	c3                   	ret    
    464f:	90                   	nop
    4650:	b8 f2 ff ff ff       	mov    $0xfffffff2,%eax
    4655:	eb f1                	jmp    4648 <audio_pcm_start_capture_fragment+0x68>
    4657:	56                   	push   %esi
    4658:	68 07 02 00 00       	push   $0x207
    465d:	68 18 b7 00 00       	push   $0xb718
    4662:	68 80 b8 00 00       	push   $0xb880
    4667:	e8 74 8b 00 00       	call   d1e0 <assert_abort@plt>
    466c:	8d 74 26 00          	lea    0x0(%esi,%eiz,1),%esi

00004670 <audio_pcm_start_capture>:
    4670:	55                   	push   %ebp
    4671:	89 e5                	mov    %esp,%ebp
    4673:	56                   	push   %esi
    4674:	53                   	push   %ebx
    4675:	83 ec 10             	sub    $0x10,%esp
    4678:	81 7d 0c ff ff 00 00 	cmpl   $0xffff,0xc(%ebp)
    467f:	77 5f                	ja     46e0 <audio_pcm_start_capture+0x70>
    4681:	f7 45 14 00 00 ff ff 	testl  $0xffff0000,0x14(%ebp)
    4688:	75 5d                	jne    46e7 <audio_pcm_start_capture+0x77>
    468a:	83 ec 0c             	sub    $0xc,%esp
    468d:	8b 5d 0c             	mov    0xc(%ebp),%ebx
    4690:	8b 55 08             	mov    0x8(%ebp),%edx
    4693:	8b 45 14             	mov    0x14(%ebp),%eax
    4696:	c1 e3 10             	shl    $0x10,%ebx
    4699:	52                   	push   %edx
    469a:	09 c3                	or     %eax,%ebx
    469c:	e8 6f 8d 00 00       	call   d410 <async_exchange_begin@plt>
    46a1:	83 c4 0c             	add    $0xc,%esp
    46a4:	8b 4d 10             	mov    0x10(%ebp),%ecx
    46a7:	89 c6                	mov    %eax,%esi
    46a9:	6a 00                	push   $0x0
    46ab:	6a 00                	push   $0x0
    46ad:	6a 00                	push   $0x0
    46af:	6a 00                	push   $0x0
    46b1:	6a 00                	push   $0x0
    46b3:	53                   	push   %ebx
    46b4:	51                   	push   %ecx
    46b5:	6a 00                	push   $0x0
    46b7:	6a 0a                	push   $0xa
    46b9:	68 04 04 00 00       	push   $0x404
    46be:	50                   	push   %eax
    46bf:	e8 8c 8a 00 00       	call   d150 <async_req_fast@plt>
    46c4:	83 c4 24             	add    $0x24,%esp
    46c7:	89 45 f4             	mov    %eax,-0xc(%ebp)
    46ca:	56                   	push   %esi
    46cb:	e8 00 8b 00 00       	call   d1d0 <async_exchange_end@plt>
    46d0:	83 c4 10             	add    $0x10,%esp
    46d3:	8b 45 f4             	mov    -0xc(%ebp),%eax
    46d6:	8d 65 f8             	lea    -0x8(%ebp),%esp
    46d9:	5b                   	pop    %ebx
    46da:	5e                   	pop    %esi
    46db:	5d                   	pop    %ebp
    46dc:	c3                   	ret    
    46dd:	8d 76 00             	lea    0x0(%esi),%esi
    46e0:	b8 f2 ff ff ff       	mov    $0xfffffff2,%eax
    46e5:	eb ef                	jmp    46d6 <audio_pcm_start_capture+0x66>
    46e7:	53                   	push   %ebx
    46e8:	68 07 02 00 00       	push   $0x207
    46ed:	68 18 b7 00 00       	push   $0xb718
    46f2:	68 80 b8 00 00       	push   $0xb880
    46f7:	e8 e4 8a 00 00       	call   d1e0 <assert_abort@plt>
    46fc:	8d 74 26 00          	lea    0x0(%esi,%eiz,1),%esi

00004700 <audio_pcm_last_capture_fragment>:
    4700:	55                   	push   %ebp
    4701:	89 e5                	mov    %esp,%ebp
    4703:	53                   	push   %ebx
    4704:	83 ec 20             	sub    $0x20,%esp
    4707:	8b 45 08             	mov    0x8(%ebp),%eax
    470a:	50                   	push   %eax
    470b:	e8 00 8d 00 00       	call   d410 <async_exchange_begin@plt>
    4710:	83 c4 0c             	add    $0xc,%esp
    4713:	89 c3                	mov    %eax,%ebx
    4715:	6a 00                	push   $0x0
    4717:	6a 00                	push   $0x0
    4719:	6a 00                	push   $0x0
    471b:	6a 00                	push   $0x0
    471d:	6a 00                	push   $0x0
    471f:	6a 00                	push   $0x0
    4721:	6a 00                	push   $0x0
    4723:	6a 00                	push   $0x0
    4725:	6a 0b                	push   $0xb
    4727:	68 04 04 00 00       	push   $0x404
    472c:	50                   	push   %eax
    472d:	e8 1e 8a 00 00       	call   d150 <async_req_fast@plt>
    4732:	83 c4 24             	add    $0x24,%esp
    4735:	89 45 f4             	mov    %eax,-0xc(%ebp)
    4738:	53                   	push   %ebx
    4739:	e8 92 8a 00 00       	call   d1d0 <async_exchange_end@plt>
    473e:	8b 45 f4             	mov    -0xc(%ebp),%eax
    4741:	8b 5d fc             	mov    -0x4(%ebp),%ebx
    4744:	c9                   	leave  
    4745:	c3                   	ret    
    4746:	8d 76 00             	lea    0x0(%esi),%esi
    4749:	8d bc 27 00 00 00 00 	lea    0x0(%edi,%eiz,1),%edi

00004750 <audio_pcm_stop_capture_immediate>:
    4750:	55                   	push   %ebp
    4751:	89 e5                	mov    %esp,%ebp
    4753:	53                   	push   %ebx
    4754:	83 ec 20             	sub    $0x20,%esp
    4757:	8b 45 08             	mov    0x8(%ebp),%eax
    475a:	50                   	push   %eax
    475b:	e8 b0 8c 00 00       	call   d410 <async_exchange_begin@plt>
    4760:	83 c4 0c             	add    $0xc,%esp
    4763:	89 c3                	mov    %eax,%ebx
    4765:	6a 00                	push   $0x0
    4767:	6a 00                	push   $0x0
    4769:	6a 00                	push   $0x0
    476b:	6a 00                	push   $0x0
    476d:	6a 00                	push   $0x0
    476f:	6a 00                	push   $0x0
    4771:	6a 00                	push   $0x0
    4773:	6a 01                	push   $0x1
    4775:	6a 0b                	push   $0xb
    4777:	68 04 04 00 00       	push   $0x404
    477c:	50                   	push   %eax
    477d:	e8 ce 89 00 00       	call   d150 <async_req_fast@plt>
    4782:	83 c4 24             	add    $0x24,%esp
    4785:	89 45 f4             	mov    %eax,-0xc(%ebp)
    4788:	53                   	push   %ebx
    4789:	e8 42 8a 00 00       	call   d1d0 <async_exchange_end@plt>
    478e:	8b 45 f4             	mov    -0xc(%ebp),%eax
    4791:	8b 5d fc             	mov    -0x4(%ebp),%ebx
    4794:	c9                   	leave  
    4795:	c3                   	ret    
    4796:	8d 76 00             	lea    0x0(%esi),%esi
    4799:	8d bc 27 00 00 00 00 	lea    0x0(%edi,%eiz,1),%edi

000047a0 <audio_pcm_stop_capture>:
    47a0:	55                   	push   %ebp
    47a1:	89 e5                	mov    %esp,%ebp
    47a3:	53                   	push   %ebx
    47a4:	83 ec 20             	sub    $0x20,%esp
    47a7:	8b 45 08             	mov    0x8(%ebp),%eax
    47aa:	50                   	push   %eax
    47ab:	e8 60 8c 00 00       	call   d410 <async_exchange_begin@plt>
    47b0:	83 c4 0c             	add    $0xc,%esp
    47b3:	89 c3                	mov    %eax,%ebx
    47b5:	6a 00                	push   $0x0
    47b7:	6a 00                	push   $0x0
    47b9:	6a 00                	push   $0x0
    47bb:	6a 00                	push   $0x0
    47bd:	6a 00                	push   $0x0
    47bf:	6a 00                	push   $0x0
    47c1:	6a 00                	push   $0x0
    47c3:	6a 00                	push   $0x0
    47c5:	6a 0b                	push   $0xb
    47c7:	68 04 04 00 00       	push   $0x404
    47cc:	50                   	push   %eax
    47cd:	e8 7e 89 00 00       	call   d150 <async_req_fast@plt>
    47d2:	83 c4 24             	add    $0x24,%esp
    47d5:	89 45 f4             	mov    %eax,-0xc(%ebp)
    47d8:	53                   	push   %ebx
    47d9:	e8 f2 89 00 00       	call   d1d0 <async_exchange_end@plt>
    47de:	8b 45 f4             	mov    -0xc(%ebp),%eax
    47e1:	8b 5d fc             	mov    -0x4(%ebp),%ebx
    47e4:	c9                   	leave  
    47e5:	c3                   	ret    
    47e6:	66 90                	xchg   %ax,%ax
    47e8:	66 90                	xchg   %ax,%ax
    47ea:	66 90                	xchg   %ax,%ax
    47ec:	66 90                	xchg   %ax,%ax
    47ee:	66 90                	xchg   %ax,%ax

000047f0 <remote_hw_res_dma_channel_setup>:
    47f0:	55                   	push   %ebp
    47f1:	89 e5                	mov    %esp,%ebp
    47f3:	57                   	push   %edi
    47f4:	56                   	push   %esi
    47f5:	53                   	push   %ebx
    47f6:	83 ec 0c             	sub    $0xc,%esp
    47f9:	8b 45 0c             	mov    0xc(%ebp),%eax
    47fc:	8b 75 08             	mov    0x8(%ebp),%esi
    47ff:	8b 5d 10             	mov    0x10(%ebp),%ebx
    4802:	8b 55 14             	mov    0x14(%ebp),%edx
    4805:	8b 48 08             	mov    0x8(%eax),%ecx
    4808:	85 c9                	test   %ecx,%ecx
    480a:	74 3c                	je     4848 <remote_hw_res_dma_channel_setup+0x58>
    480c:	8b 42 08             	mov    0x8(%edx),%eax
    480f:	83 ec 0c             	sub    $0xc,%esp
    4812:	89 c7                	mov    %eax,%edi
    4814:	25 ff ff 00 00       	and    $0xffff,%eax
    4819:	c1 ef 10             	shr    $0x10,%edi
    481c:	81 e7 ff 00 00 00    	and    $0xff,%edi
    4822:	57                   	push   %edi
    4823:	8b 7a 10             	mov    0x10(%edx),%edi
    4826:	57                   	push   %edi
    4827:	8b 52 0c             	mov    0xc(%edx),%edx
    482a:	52                   	push   %edx
    482b:	50                   	push   %eax
    482c:	56                   	push   %esi
    482d:	ff d1                	call   *%ecx
    482f:	89 5d 08             	mov    %ebx,0x8(%ebp)
    4832:	89 45 0c             	mov    %eax,0xc(%ebp)
    4835:	83 c4 20             	add    $0x20,%esp
    4838:	8d 65 f4             	lea    -0xc(%ebp),%esp
    483b:	5b                   	pop    %ebx
    483c:	5e                   	pop    %esi
    483d:	5f                   	pop    %edi
    483e:	5d                   	pop    %ebp
    483f:	e9 1c 89 00 00       	jmp    d160 <async_answer_0@plt>
    4844:	8d 74 26 00          	lea    0x0(%esi,%eiz,1),%esi
    4848:	89 5d 08             	mov    %ebx,0x8(%ebp)
    484b:	c7 45 0c f5 ff ff ff 	movl   $0xfffffff5,0xc(%ebp)
    4852:	8d 65 f4             	lea    -0xc(%ebp),%esp
    4855:	5b                   	pop    %ebx
    4856:	5e                   	pop    %esi
    4857:	5f                   	pop    %edi
    4858:	5d                   	pop    %ebp
    4859:	e9 02 89 00 00       	jmp    d160 <async_answer_0@plt>
    485e:	66 90                	xchg   %ax,%ax

00004860 <remote_hw_res_enable_interrupt>:
    4860:	55                   	push   %ebp
    4861:	89 e5                	mov    %esp,%ebp
    4863:	53                   	push   %ebx
    4864:	50                   	push   %eax
    4865:	8b 45 0c             	mov    0xc(%ebp),%eax
    4868:	8b 55 08             	mov    0x8(%ebp),%edx
    486b:	8b 5d 10             	mov    0x10(%ebp),%ebx
    486e:	8b 40 04             	mov    0x4(%eax),%eax
    4871:	85 c0                	test   %eax,%eax
    4873:	74 3b                	je     48b0 <remote_hw_res_enable_interrupt+0x50>
    4875:	83 ec 0c             	sub    $0xc,%esp
    4878:	52                   	push   %edx
    4879:	ff d0                	call   *%eax
    487b:	83 c4 10             	add    $0x10,%esp
    487e:	84 c0                	test   %al,%al
    4880:	75 16                	jne    4898 <remote_hw_res_enable_interrupt+0x38>
    4882:	89 5d 08             	mov    %ebx,0x8(%ebp)
    4885:	8b 5d fc             	mov    -0x4(%ebp),%ebx
    4888:	c7 45 0c fc ff ff ff 	movl   $0xfffffffc,0xc(%ebp)
    488f:	c9                   	leave  
    4890:	e9 cb 88 00 00       	jmp    d160 <async_answer_0@plt>
    4895:	8d 76 00             	lea    0x0(%esi),%esi
    4898:	89 5d 08             	mov    %ebx,0x8(%ebp)
    489b:	8b 5d fc             	mov    -0x4(%ebp),%ebx
    489e:	c7 45 0c 00 00 00 00 	movl   $0x0,0xc(%ebp)
    48a5:	c9                   	leave  
    48a6:	e9 b5 88 00 00       	jmp    d160 <async_answer_0@plt>
    48ab:	90                   	nop
    48ac:	8d 74 26 00          	lea    0x0(%esi,%eiz,1),%esi
    48b0:	89 5d 08             	mov    %ebx,0x8(%ebp)
    48b3:	8b 5d fc             	mov    -0x4(%ebp),%ebx
    48b6:	c7 45 0c f5 ff ff ff 	movl   $0xfffffff5,0xc(%ebp)
    48bd:	c9                   	leave  
    48be:	e9 9d 88 00 00       	jmp    d160 <async_answer_0@plt>
    48c3:	8d b6 00 00 00 00    	lea    0x0(%esi),%esi
    48c9:	8d bc 27 00 00 00 00 	lea    0x0(%edi,%eiz,1),%edi

000048d0 <remote_hw_res_dma_channel_remain>:
    48d0:	55                   	push   %ebp
    48d1:	89 e5                	mov    %esp,%ebp
    48d3:	83 ec 18             	sub    $0x18,%esp
    48d6:	8b 45 0c             	mov    0xc(%ebp),%eax
    48d9:	8b 50 08             	mov    0x8(%eax),%edx
    48dc:	85 d2                	test   %edx,%edx
    48de:	74 30                	je     4910 <remote_hw_res_dma_channel_remain+0x40>
    48e0:	8b 55 14             	mov    0x14(%ebp),%edx
    48e3:	c7 45 f4 00 00 00 00 	movl   $0x0,-0xc(%ebp)
    48ea:	8b 52 08             	mov    0x8(%edx),%edx
    48ed:	51                   	push   %ecx
    48ee:	8d 4d f4             	lea    -0xc(%ebp),%ecx
    48f1:	51                   	push   %ecx
    48f2:	52                   	push   %edx
    48f3:	8b 55 08             	mov    0x8(%ebp),%edx
    48f6:	52                   	push   %edx
    48f7:	ff 50 0c             	call   *0xc(%eax)
    48fa:	83 c4 0c             	add    $0xc,%esp
    48fd:	8b 4d f4             	mov    -0xc(%ebp),%ecx
    4900:	51                   	push   %ecx
    4901:	50                   	push   %eax
    4902:	8b 45 10             	mov    0x10(%ebp),%eax
    4905:	50                   	push   %eax
    4906:	e8 f5 8a 00 00       	call   d400 <async_answer_1@plt>
    490b:	83 c4 10             	add    $0x10,%esp
    490e:	c9                   	leave  
    490f:	c3                   	ret    
    4910:	50                   	push   %eax
    4911:	50                   	push   %eax
    4912:	8b 45 10             	mov    0x10(%ebp),%eax
    4915:	6a f5                	push   $0xfffffff5
    4917:	50                   	push   %eax
    4918:	e8 43 88 00 00       	call   d160 <async_answer_0@plt>
    491d:	83 c4 10             	add    $0x10,%esp
    4920:	c9                   	leave  
    4921:	c3                   	ret    
    4922:	8d b4 26 00 00 00 00 	lea    0x0(%esi,%eiz,1),%esi
    4929:	8d bc 27 00 00 00 00 	lea    0x0(%edi,%eiz,1),%edi

00004930 <remote_hw_res_get_resource_list>:
    4930:	55                   	push   %ebp
    4931:	89 e5                	mov    %esp,%ebp
    4933:	53                   	push   %ebx
    4934:	83 ec 14             	sub    $0x14,%esp
    4937:	8b 45 0c             	mov    0xc(%ebp),%eax
    493a:	8b 00                	mov    (%eax),%eax
    493c:	85 c0                	test   %eax,%eax
    493e:	74 40                	je     4980 <remote_hw_res_get_resource_list+0x50>
    4940:	83 ec 0c             	sub    $0xc,%esp
    4943:	8b 55 08             	mov    0x8(%ebp),%edx
    4946:	52                   	push   %edx
    4947:	ff d0                	call   *%eax
    4949:	83 c4 10             	add    $0x10,%esp
    494c:	89 c3                	mov    %eax,%ebx
    494e:	85 c0                	test   %eax,%eax
    4950:	74 66                	je     49b8 <remote_hw_res_get_resource_list+0x88>
    4952:	50                   	push   %eax
    4953:	8b 03                	mov    (%ebx),%eax
    4955:	50                   	push   %eax
    4956:	8b 45 10             	mov    0x10(%ebp),%eax
    4959:	6a 00                	push   $0x0
    495b:	50                   	push   %eax
    495c:	e8 9f 8a 00 00       	call   d400 <async_answer_1@plt>
    4961:	58                   	pop    %eax
    4962:	8d 45 f4             	lea    -0xc(%ebp),%eax
    4965:	5a                   	pop    %edx
    4966:	50                   	push   %eax
    4967:	8d 45 10             	lea    0x10(%ebp),%eax
    496a:	50                   	push   %eax
    496b:	e8 00 8a 00 00       	call   d370 <async_data_read_receive@plt>
    4970:	83 c4 10             	add    $0x10,%esp
    4973:	84 c0                	test   %al,%al
    4975:	75 21                	jne    4998 <remote_hw_res_get_resource_list+0x68>
    4977:	8b 5d fc             	mov    -0x4(%ebp),%ebx
    497a:	c9                   	leave  
    497b:	c3                   	ret    
    497c:	8d 74 26 00          	lea    0x0(%esi,%eiz,1),%esi
    4980:	8b 5d 10             	mov    0x10(%ebp),%ebx
    4983:	51                   	push   %ecx
    4984:	51                   	push   %ecx
    4985:	6a f5                	push   $0xfffffff5
    4987:	53                   	push   %ebx
    4988:	e8 d3 87 00 00       	call   d160 <async_answer_0@plt>
    498d:	83 c4 10             	add    $0x10,%esp
    4990:	8b 5d fc             	mov    -0x4(%ebp),%ebx
    4993:	c9                   	leave  
    4994:	c3                   	ret    
    4995:	8d 76 00             	lea    0x0(%esi),%esi
    4998:	50                   	push   %eax
    4999:	8b 55 f4             	mov    -0xc(%ebp),%edx
    499c:	8b 4b 04             	mov    0x4(%ebx),%ecx
    499f:	8b 5d 10             	mov    0x10(%ebp),%ebx
    49a2:	52                   	push   %edx
    49a3:	51                   	push   %ecx
    49a4:	53                   	push   %ebx
    49a5:	e8 36 87 00 00       	call   d0e0 <async_data_read_finalize@plt>
    49aa:	83 c4 10             	add    $0x10,%esp
    49ad:	8b 5d fc             	mov    -0x4(%ebp),%ebx
    49b0:	c9                   	leave  
    49b1:	c3                   	ret    
    49b2:	8d b6 00 00 00 00    	lea    0x0(%esi),%esi
    49b8:	8b 5d 10             	mov    0x10(%ebp),%ebx
    49bb:	51                   	push   %ecx
    49bc:	51                   	push   %ecx
    49bd:	6a ff                	push   $0xffffffff
    49bf:	53                   	push   %ebx
    49c0:	e8 9b 87 00 00       	call   d160 <async_answer_0@plt>
    49c5:	83 c4 10             	add    $0x10,%esp
    49c8:	8b 5d fc             	mov    -0x4(%ebp),%ebx
    49cb:	c9                   	leave  
    49cc:	c3                   	ret    
    49cd:	66 90                	xchg   %ax,%ax
    49cf:	90                   	nop

000049d0 <remote_pio_window_get>:
    49d0:	55                   	push   %ebp
    49d1:	89 e5                	mov    %esp,%ebp
    49d3:	53                   	push   %ebx
    49d4:	83 ec 14             	sub    $0x14,%esp
    49d7:	8b 45 0c             	mov    0xc(%ebp),%eax
    49da:	8b 00                	mov    (%eax),%eax
    49dc:	85 c0                	test   %eax,%eax
    49de:	74 40                	je     4a20 <remote_pio_window_get+0x50>
    49e0:	83 ec 0c             	sub    $0xc,%esp
    49e3:	8b 55 08             	mov    0x8(%ebp),%edx
    49e6:	52                   	push   %edx
    49e7:	ff d0                	call   *%eax
    49e9:	83 c4 10             	add    $0x10,%esp
    49ec:	89 c3                	mov    %eax,%ebx
    49ee:	85 c0                	test   %eax,%eax
    49f0:	74 5e                	je     4a50 <remote_pio_window_get+0x80>
    49f2:	50                   	push   %eax
    49f3:	50                   	push   %eax
    49f4:	8b 45 10             	mov    0x10(%ebp),%eax
    49f7:	6a 00                	push   $0x0
    49f9:	50                   	push   %eax
    49fa:	e8 61 87 00 00       	call   d160 <async_answer_0@plt>
    49ff:	58                   	pop    %eax
    4a00:	8d 45 f4             	lea    -0xc(%ebp),%eax
    4a03:	5a                   	pop    %edx
    4a04:	50                   	push   %eax
    4a05:	8d 45 10             	lea    0x10(%ebp),%eax
    4a08:	50                   	push   %eax
    4a09:	e8 62 89 00 00       	call   d370 <async_data_read_receive@plt>
    4a0e:	83 c4 10             	add    $0x10,%esp
    4a11:	84 c0                	test   %al,%al
    4a13:	75 23                	jne    4a38 <remote_pio_window_get+0x68>
    4a15:	8b 5d fc             	mov    -0x4(%ebp),%ebx
    4a18:	c9                   	leave  
    4a19:	c3                   	ret    
    4a1a:	8d b6 00 00 00 00    	lea    0x0(%esi),%esi
    4a20:	8b 5d 10             	mov    0x10(%ebp),%ebx
    4a23:	51                   	push   %ecx
    4a24:	51                   	push   %ecx
    4a25:	6a f5                	push   $0xfffffff5
    4a27:	53                   	push   %ebx
    4a28:	e8 33 87 00 00       	call   d160 <async_answer_0@plt>
    4a2d:	83 c4 10             	add    $0x10,%esp
    4a30:	8b 5d fc             	mov    -0x4(%ebp),%ebx
    4a33:	c9                   	leave  
    4a34:	c3                   	ret    
    4a35:	8d 76 00             	lea    0x0(%esi),%esi
    4a38:	8b 55 f4             	mov    -0xc(%ebp),%edx
    4a3b:	8b 4d 10             	mov    0x10(%ebp),%ecx
    4a3e:	50                   	push   %eax
    4a3f:	52                   	push   %edx
    4a40:	53                   	push   %ebx
    4a41:	51                   	push   %ecx
    4a42:	e8 99 86 00 00       	call   d0e0 <async_data_read_finalize@plt>
    4a47:	83 c4 10             	add    $0x10,%esp
    4a4a:	8b 5d fc             	mov    -0x4(%ebp),%ebx
    4a4d:	c9                   	leave  
    4a4e:	c3                   	ret    
    4a4f:	90                   	nop
    4a50:	8b 5d 10             	mov    0x10(%ebp),%ebx
    4a53:	51                   	push   %ecx
    4a54:	51                   	push   %ecx
    4a55:	6a ff                	push   $0xffffffff
    4a57:	53                   	push   %ebx
    4a58:	e8 03 87 00 00       	call   d160 <async_answer_0@plt>
    4a5d:	83 c4 10             	add    $0x10,%esp
    4a60:	8b 5d fc             	mov    -0x4(%ebp),%ebx
    4a63:	c9                   	leave  
    4a64:	c3                   	ret    
    4a65:	66 90                	xchg   %ax,%ax
    4a67:	66 90                	xchg   %ax,%ax
    4a69:	66 90                	xchg   %ax,%ax
    4a6b:	66 90                	xchg   %ax,%ax
    4a6d:	66 90                	xchg   %ax,%ax
    4a6f:	90                   	nop

00004a70 <remote_char_write>:
    4a70:	55                   	push   %ebp
    4a71:	89 e5                	mov    %esp,%ebp
    4a73:	56                   	push   %esi
    4a74:	53                   	push   %ebx
    4a75:	81 ec 18 01 00 00    	sub    $0x118,%esp
    4a7b:	8d 85 f4 fe ff ff    	lea    -0x10c(%ebp),%eax
    4a81:	8b 5d 0c             	mov    0xc(%ebp),%ebx
    4a84:	50                   	push   %eax
    4a85:	8d 85 f0 fe ff ff    	lea    -0x110(%ebp),%eax
    4a8b:	50                   	push   %eax
    4a8c:	e8 6f 8a 00 00       	call   d500 <async_data_write_receive@plt>
    4a91:	83 c4 10             	add    $0x10,%esp
    4a94:	84 c0                	test   %al,%al
    4a96:	74 70                	je     4b08 <remote_char_write+0x98>
    4a98:	8b 73 04             	mov    0x4(%ebx),%esi
    4a9b:	85 f6                	test   %esi,%esi
    4a9d:	0f 84 95 00 00 00    	je     4b38 <remote_char_write+0xc8>
    4aa3:	8b 85 f4 fe ff ff    	mov    -0x10c(%ebp),%eax
    4aa9:	3d 00 01 00 00       	cmp    $0x100,%eax
    4aae:	76 0f                	jbe    4abf <remote_char_write+0x4f>
    4ab0:	c7 85 f4 fe ff ff 00 	movl   $0x100,-0x10c(%ebp)
    4ab7:	01 00 00 
    4aba:	b8 00 01 00 00       	mov    $0x100,%eax
    4abf:	8b 8d f0 fe ff ff    	mov    -0x110(%ebp),%ecx
    4ac5:	8d b5 f8 fe ff ff    	lea    -0x108(%ebp),%esi
    4acb:	52                   	push   %edx
    4acc:	50                   	push   %eax
    4acd:	56                   	push   %esi
    4ace:	51                   	push   %ecx
    4acf:	e8 ac 89 00 00       	call   d480 <async_data_write_finalize@plt>
    4ad4:	83 c4 0c             	add    $0xc,%esp
    4ad7:	8b 85 f4 fe ff ff    	mov    -0x10c(%ebp),%eax
    4add:	50                   	push   %eax
    4ade:	8b 45 08             	mov    0x8(%ebp),%eax
    4ae1:	56                   	push   %esi
    4ae2:	50                   	push   %eax
    4ae3:	ff 53 04             	call   *0x4(%ebx)
    4ae6:	83 c4 10             	add    $0x10,%esp
    4ae9:	85 c0                	test   %eax,%eax
    4aeb:	78 33                	js     4b20 <remote_char_write+0xb0>
    4aed:	8b 4d 10             	mov    0x10(%ebp),%ecx
    4af0:	52                   	push   %edx
    4af1:	50                   	push   %eax
    4af2:	6a 00                	push   $0x0
    4af4:	51                   	push   %ecx
    4af5:	e8 06 89 00 00       	call   d400 <async_answer_1@plt>
    4afa:	83 c4 10             	add    $0x10,%esp
    4afd:	8d 65 f8             	lea    -0x8(%ebp),%esp
    4b00:	5b                   	pop    %ebx
    4b01:	5e                   	pop    %esi
    4b02:	5d                   	pop    %ebp
    4b03:	c3                   	ret    
    4b04:	8d 74 26 00          	lea    0x0(%esi,%eiz,1),%esi
    4b08:	50                   	push   %eax
    4b09:	50                   	push   %eax
    4b0a:	8b 45 10             	mov    0x10(%ebp),%eax
    4b0d:	6a f2                	push   $0xfffffff2
    4b0f:	50                   	push   %eax
    4b10:	e8 4b 86 00 00       	call   d160 <async_answer_0@plt>
    4b15:	83 c4 10             	add    $0x10,%esp
    4b18:	8d 65 f8             	lea    -0x8(%ebp),%esp
    4b1b:	5b                   	pop    %ebx
    4b1c:	5e                   	pop    %esi
    4b1d:	5d                   	pop    %ebp
    4b1e:	c3                   	ret    
    4b1f:	90                   	nop
    4b20:	8b 75 10             	mov    0x10(%ebp),%esi
    4b23:	53                   	push   %ebx
    4b24:	53                   	push   %ebx
    4b25:	50                   	push   %eax
    4b26:	56                   	push   %esi
    4b27:	e8 34 86 00 00       	call   d160 <async_answer_0@plt>
    4b2c:	83 c4 10             	add    $0x10,%esp
    4b2f:	8d 65 f8             	lea    -0x8(%ebp),%esp
    4b32:	5b                   	pop    %ebx
    4b33:	5e                   	pop    %esi
    4b34:	5d                   	pop    %ebp
    4b35:	c3                   	ret    
    4b36:	66 90                	xchg   %ax,%ax
    4b38:	50                   	push   %eax
    4b39:	8b 85 f0 fe ff ff    	mov    -0x110(%ebp),%eax
    4b3f:	6a 00                	push   $0x0
    4b41:	6a 00                	push   $0x0
    4b43:	50                   	push   %eax
    4b44:	e8 37 89 00 00       	call   d480 <async_data_write_finalize@plt>
    4b49:	8b 4d 10             	mov    0x10(%ebp),%ecx
    4b4c:	58                   	pop    %eax
    4b4d:	5a                   	pop    %edx
    4b4e:	6a f5                	push   $0xfffffff5
    4b50:	51                   	push   %ecx
    4b51:	e8 0a 86 00 00       	call   d160 <async_answer_0@plt>
    4b56:	83 c4 10             	add    $0x10,%esp
    4b59:	eb a2                	jmp    4afd <remote_char_write+0x8d>
    4b5b:	90                   	nop
    4b5c:	8d 74 26 00          	lea    0x0(%esi,%eiz,1),%esi

00004b60 <remote_char_read>:
    4b60:	55                   	push   %ebp
    4b61:	89 e5                	mov    %esp,%ebp
    4b63:	56                   	push   %esi
    4b64:	53                   	push   %ebx
    4b65:	81 ec 18 01 00 00    	sub    $0x118,%esp
    4b6b:	8d 85 f4 fe ff ff    	lea    -0x10c(%ebp),%eax
    4b71:	50                   	push   %eax
    4b72:	8d 85 f0 fe ff ff    	lea    -0x110(%ebp),%eax
    4b78:	50                   	push   %eax
    4b79:	e8 f2 87 00 00       	call   d370 <async_data_read_receive@plt>
    4b7e:	83 c4 10             	add    $0x10,%esp
    4b81:	84 c0                	test   %al,%al
    4b83:	0f 84 97 00 00 00    	je     4c20 <remote_char_read+0xc0>
    4b89:	8b 45 0c             	mov    0xc(%ebp),%eax
    4b8c:	8b 10                	mov    (%eax),%edx
    4b8e:	85 d2                	test   %edx,%edx
    4b90:	0f 84 a2 00 00 00    	je     4c38 <remote_char_read+0xd8>
    4b96:	8b 85 f4 fe ff ff    	mov    -0x10c(%ebp),%eax
    4b9c:	3d 00 01 00 00       	cmp    $0x100,%eax
    4ba1:	76 0f                	jbe    4bb2 <remote_char_read+0x52>
    4ba3:	c7 85 f4 fe ff ff 00 	movl   $0x100,-0x10c(%ebp)
    4baa:	01 00 00 
    4bad:	b8 00 01 00 00       	mov    $0x100,%eax
    4bb2:	8d b5 f8 fe ff ff    	lea    -0x108(%ebp),%esi
    4bb8:	53                   	push   %ebx
    4bb9:	50                   	push   %eax
    4bba:	8b 45 08             	mov    0x8(%ebp),%eax
    4bbd:	56                   	push   %esi
    4bbe:	50                   	push   %eax
    4bbf:	ff d2                	call   *%edx
    4bc1:	83 c4 10             	add    $0x10,%esp
    4bc4:	89 c3                	mov    %eax,%ebx
    4bc6:	85 c0                	test   %eax,%eax
    4bc8:	78 2e                	js     4bf8 <remote_char_read+0x98>
    4bca:	8b 95 f0 fe ff ff    	mov    -0x110(%ebp),%edx
    4bd0:	50                   	push   %eax
    4bd1:	53                   	push   %ebx
    4bd2:	56                   	push   %esi
    4bd3:	52                   	push   %edx
    4bd4:	e8 07 85 00 00       	call   d0e0 <async_data_read_finalize@plt>
    4bd9:	83 c4 0c             	add    $0xc,%esp
    4bdc:	8b 4d 10             	mov    0x10(%ebp),%ecx
    4bdf:	53                   	push   %ebx
    4be0:	6a 00                	push   $0x0
    4be2:	51                   	push   %ecx
    4be3:	e8 18 88 00 00       	call   d400 <async_answer_1@plt>
    4be8:	83 c4 10             	add    $0x10,%esp
    4beb:	8d 65 f8             	lea    -0x8(%ebp),%esp
    4bee:	5b                   	pop    %ebx
    4bef:	5e                   	pop    %esi
    4bf0:	5d                   	pop    %ebp
    4bf1:	c3                   	ret    
    4bf2:	8d b6 00 00 00 00    	lea    0x0(%esi),%esi
    4bf8:	50                   	push   %eax
    4bf9:	8b 85 f0 fe ff ff    	mov    -0x110(%ebp),%eax
    4bff:	6a 00                	push   $0x0
    4c01:	56                   	push   %esi
    4c02:	50                   	push   %eax
    4c03:	e8 d8 84 00 00       	call   d0e0 <async_data_read_finalize@plt>
    4c08:	8b 4d 10             	mov    0x10(%ebp),%ecx
    4c0b:	58                   	pop    %eax
    4c0c:	5a                   	pop    %edx
    4c0d:	53                   	push   %ebx
    4c0e:	51                   	push   %ecx
    4c0f:	e8 4c 85 00 00       	call   d160 <async_answer_0@plt>
    4c14:	83 c4 10             	add    $0x10,%esp
    4c17:	8d 65 f8             	lea    -0x8(%ebp),%esp
    4c1a:	5b                   	pop    %ebx
    4c1b:	5e                   	pop    %esi
    4c1c:	5d                   	pop    %ebp
    4c1d:	c3                   	ret    
    4c1e:	66 90                	xchg   %ax,%ax
    4c20:	8b 75 10             	mov    0x10(%ebp),%esi
    4c23:	53                   	push   %ebx
    4c24:	53                   	push   %ebx
    4c25:	6a f2                	push   $0xfffffff2
    4c27:	56                   	push   %esi
    4c28:	e8 33 85 00 00       	call   d160 <async_answer_0@plt>
    4c2d:	83 c4 10             	add    $0x10,%esp
    4c30:	8d 65 f8             	lea    -0x8(%ebp),%esp
    4c33:	5b                   	pop    %ebx
    4c34:	5e                   	pop    %esi
    4c35:	5d                   	pop    %ebp
    4c36:	c3                   	ret    
    4c37:	90                   	nop
    4c38:	50                   	push   %eax
    4c39:	8b 85 f0 fe ff ff    	mov    -0x110(%ebp),%eax
    4c3f:	6a 00                	push   $0x0
    4c41:	6a 00                	push   $0x0
    4c43:	50                   	push   %eax
    4c44:	e8 97 84 00 00       	call   d0e0 <async_data_read_finalize@plt>
    4c49:	8b 4d 10             	mov    0x10(%ebp),%ecx
    4c4c:	58                   	pop    %eax
    4c4d:	5a                   	pop    %edx
    4c4e:	6a f5                	push   $0xfffffff5
    4c50:	51                   	push   %ecx
    4c51:	e8 0a 85 00 00       	call   d160 <async_answer_0@plt>
    4c56:	83 c4 10             	add    $0x10,%esp
    4c59:	eb 90                	jmp    4beb <remote_char_read+0x8b>
    4c5b:	90                   	nop
    4c5c:	8d 74 26 00          	lea    0x0(%esi,%eiz,1),%esi

00004c60 <char_dev_read>:
    4c60:	55                   	push   %ebp
    4c61:	89 e5                	mov    %esp,%ebp
    4c63:	56                   	push   %esi
    4c64:	53                   	push   %ebx
    4c65:	83 ec 4c             	sub    $0x4c,%esp
    4c68:	8b 4d 08             	mov    0x8(%ebp),%ecx
    4c6b:	51                   	push   %ecx
    4c6c:	e8 9f 87 00 00       	call   d410 <async_exchange_begin@plt>
    4c71:	83 c4 0c             	add    $0xc,%esp
    4c74:	89 c3                	mov    %eax,%ebx
    4c76:	8d 45 d4             	lea    -0x2c(%ebp),%eax
    4c79:	50                   	push   %eax
    4c7a:	6a 00                	push   $0x0
    4c7c:	6a 00                	push   $0x0
    4c7e:	6a 00                	push   $0x0
    4c80:	6a 00                	push   $0x0
    4c82:	68 02 04 00 00       	push   $0x402
    4c87:	53                   	push   %ebx
    4c88:	e8 e3 84 00 00       	call   d170 <async_send_fast@plt>
    4c8d:	83 c4 1c             	add    $0x1c,%esp
    4c90:	89 c6                	mov    %eax,%esi
    4c92:	8b 45 10             	mov    0x10(%ebp),%eax
    4c95:	50                   	push   %eax
    4c96:	8b 45 0c             	mov    0xc(%ebp),%eax
    4c99:	50                   	push   %eax
    4c9a:	53                   	push   %ebx
    4c9b:	e8 e0 86 00 00       	call   d380 <async_data_read_start@plt>
    4ca0:	89 1c 24             	mov    %ebx,(%esp)
    4ca3:	89 45 c4             	mov    %eax,-0x3c(%ebp)
    4ca6:	e8 25 85 00 00       	call   d1d0 <async_exchange_end@plt>
    4cab:	8b 45 c4             	mov    -0x3c(%ebp),%eax
    4cae:	83 c4 10             	add    $0x10,%esp
    4cb1:	85 c0                	test   %eax,%eax
    4cb3:	74 23                	je     4cd8 <char_dev_read+0x78>
    4cb5:	52                   	push   %edx
    4cb6:	52                   	push   %edx
    4cb7:	8d 55 d0             	lea    -0x30(%ebp),%edx
    4cba:	52                   	push   %edx
    4cbb:	56                   	push   %esi
    4cbc:	e8 af 83 00 00       	call   d070 <async_wait_for@plt>
    4cc1:	8b 55 d0             	mov    -0x30(%ebp),%edx
    4cc4:	83 c4 10             	add    $0x10,%esp
    4cc7:	8b 45 c4             	mov    -0x3c(%ebp),%eax
    4cca:	85 d2                	test   %edx,%edx
    4ccc:	75 2a                	jne    4cf8 <char_dev_read+0x98>
    4cce:	8d 65 f8             	lea    -0x8(%ebp),%esp
    4cd1:	5b                   	pop    %ebx
    4cd2:	5e                   	pop    %esi
    4cd3:	5d                   	pop    %ebp
    4cd4:	c3                   	ret    
    4cd5:	8d 76 00             	lea    0x0(%esi),%esi
    4cd8:	50                   	push   %eax
    4cd9:	50                   	push   %eax
    4cda:	8d 45 d0             	lea    -0x30(%ebp),%eax
    4cdd:	50                   	push   %eax
    4cde:	56                   	push   %esi
    4cdf:	e8 8c 83 00 00       	call   d070 <async_wait_for@plt>
    4ce4:	8b 45 d0             	mov    -0x30(%ebp),%eax
    4ce7:	83 c4 10             	add    $0x10,%esp
    4cea:	85 c0                	test   %eax,%eax
    4cec:	75 e0                	jne    4cce <char_dev_read+0x6e>
    4cee:	8b 45 d8             	mov    -0x28(%ebp),%eax
    4cf1:	8d 65 f8             	lea    -0x8(%ebp),%esp
    4cf4:	5b                   	pop    %ebx
    4cf5:	5e                   	pop    %esi
    4cf6:	5d                   	pop    %ebp
    4cf7:	c3                   	ret    
    4cf8:	8d 65 f8             	lea    -0x8(%ebp),%esp
    4cfb:	89 d0                	mov    %edx,%eax
    4cfd:	5b                   	pop    %ebx
    4cfe:	5e                   	pop    %esi
    4cff:	5d                   	pop    %ebp
    4d00:	c3                   	ret    
    4d01:	eb 0d                	jmp    4d10 <char_dev_write>
    4d03:	90                   	nop
    4d04:	90                   	nop
    4d05:	90                   	nop
    4d06:	90                   	nop
    4d07:	90                   	nop
    4d08:	90                   	nop
    4d09:	90                   	nop
    4d0a:	90                   	nop
    4d0b:	90                   	nop
    4d0c:	90                   	nop
    4d0d:	90                   	nop
    4d0e:	90                   	nop
    4d0f:	90                   	nop

00004d10 <char_dev_write>:
    4d10:	55                   	push   %ebp
    4d11:	89 e5                	mov    %esp,%ebp
    4d13:	56                   	push   %esi
    4d14:	53                   	push   %ebx
    4d15:	83 ec 4c             	sub    $0x4c,%esp
    4d18:	8b 4d 08             	mov    0x8(%ebp),%ecx
    4d1b:	51                   	push   %ecx
    4d1c:	e8 ef 86 00 00       	call   d410 <async_exchange_begin@plt>
    4d21:	83 c4 0c             	add    $0xc,%esp
    4d24:	89 c3                	mov    %eax,%ebx
    4d26:	8d 45 d4             	lea    -0x2c(%ebp),%eax
    4d29:	50                   	push   %eax
    4d2a:	6a 00                	push   $0x0
    4d2c:	6a 00                	push   $0x0
    4d2e:	6a 00                	push   $0x0
    4d30:	6a 01                	push   $0x1
    4d32:	68 02 04 00 00       	push   $0x402
    4d37:	53                   	push   %ebx
    4d38:	e8 33 84 00 00       	call   d170 <async_send_fast@plt>
    4d3d:	83 c4 1c             	add    $0x1c,%esp
    4d40:	89 c6                	mov    %eax,%esi
    4d42:	8b 45 10             	mov    0x10(%ebp),%eax
    4d45:	50                   	push   %eax
    4d46:	8b 45 0c             	mov    0xc(%ebp),%eax
    4d49:	50                   	push   %eax
    4d4a:	53                   	push   %ebx
    4d4b:	e8 60 83 00 00       	call   d0b0 <async_data_write_start@plt>
    4d50:	89 1c 24             	mov    %ebx,(%esp)
    4d53:	89 45 c4             	mov    %eax,-0x3c(%ebp)
    4d56:	e8 75 84 00 00       	call   d1d0 <async_exchange_end@plt>
    4d5b:	8b 45 c4             	mov    -0x3c(%ebp),%eax
    4d5e:	83 c4 10             	add    $0x10,%esp
    4d61:	85 c0                	test   %eax,%eax
    4d63:	74 23                	je     4d88 <char_dev_write+0x78>
    4d65:	52                   	push   %edx
    4d66:	52                   	push   %edx
    4d67:	8d 55 d0             	lea    -0x30(%ebp),%edx
    4d6a:	52                   	push   %edx
    4d6b:	56                   	push   %esi
    4d6c:	e8 ff 82 00 00       	call   d070 <async_wait_for@plt>
    4d71:	8b 55 d0             	mov    -0x30(%ebp),%edx
    4d74:	83 c4 10             	add    $0x10,%esp
    4d77:	8b 45 c4             	mov    -0x3c(%ebp),%eax
    4d7a:	85 d2                	test   %edx,%edx
    4d7c:	75 2a                	jne    4da8 <char_dev_write+0x98>
    4d7e:	8d 65 f8             	lea    -0x8(%ebp),%esp
    4d81:	5b                   	pop    %ebx
    4d82:	5e                   	pop    %esi
    4d83:	5d                   	pop    %ebp
    4d84:	c3                   	ret    
    4d85:	8d 76 00             	lea    0x0(%esi),%esi
    4d88:	50                   	push   %eax
    4d89:	50                   	push   %eax
    4d8a:	8d 45 d0             	lea    -0x30(%ebp),%eax
    4d8d:	50                   	push   %eax
    4d8e:	56                   	push   %esi
    4d8f:	e8 dc 82 00 00       	call   d070 <async_wait_for@plt>
    4d94:	8b 45 d0             	mov    -0x30(%ebp),%eax
    4d97:	83 c4 10             	add    $0x10,%esp
    4d9a:	85 c0                	test   %eax,%eax
    4d9c:	75 e0                	jne    4d7e <char_dev_write+0x6e>
    4d9e:	8b 45 d8             	mov    -0x28(%ebp),%eax
    4da1:	8d 65 f8             	lea    -0x8(%ebp),%esp
    4da4:	5b                   	pop    %ebx
    4da5:	5e                   	pop    %esi
    4da6:	5d                   	pop    %ebp
    4da7:	c3                   	ret    
    4da8:	8d 65 f8             	lea    -0x8(%ebp),%esp
    4dab:	89 d0                	mov    %edx,%eax
    4dad:	5b                   	pop    %ebx
    4dae:	5e                   	pop    %esi
    4daf:	5d                   	pop    %ebp
    4db0:	c3                   	ret    
    4db1:	66 90                	xchg   %ax,%ax
    4db3:	66 90                	xchg   %ax,%ax
    4db5:	66 90                	xchg   %ax,%ax
    4db7:	66 90                	xchg   %ax,%ax
    4db9:	66 90                	xchg   %ax,%ax
    4dbb:	66 90                	xchg   %ax,%ax
    4dbd:	66 90                	xchg   %ax,%ax
    4dbf:	90                   	nop

00004dc0 <remote_nic_poll_now>:
    4dc0:	55                   	push   %ebp
    4dc1:	89 e5                	mov    %esp,%ebp
    4dc3:	53                   	push   %ebx
    4dc4:	50                   	push   %eax
    4dc5:	8b 45 0c             	mov    0xc(%ebp),%eax
    4dc8:	8b 55 08             	mov    0x8(%ebp),%edx
    4dcb:	8b 5d 10             	mov    0x10(%ebp),%ebx
    4dce:	8b 80 a0 00 00 00    	mov    0xa0(%eax),%eax
    4dd4:	85 c0                	test   %eax,%eax
    4dd6:	74 18                	je     4df0 <remote_nic_poll_now+0x30>
    4dd8:	83 ec 0c             	sub    $0xc,%esp
    4ddb:	52                   	push   %edx
    4ddc:	ff d0                	call   *%eax
    4dde:	89 5d 08             	mov    %ebx,0x8(%ebp)
    4de1:	83 c4 10             	add    $0x10,%esp
    4de4:	8b 5d fc             	mov    -0x4(%ebp),%ebx
    4de7:	89 45 0c             	mov    %eax,0xc(%ebp)
    4dea:	c9                   	leave  
    4deb:	e9 70 83 00 00       	jmp    d160 <async_answer_0@plt>
    4df0:	89 5d 08             	mov    %ebx,0x8(%ebp)
    4df3:	8b 5d fc             	mov    -0x4(%ebp),%ebx
    4df6:	c7 45 0c f5 ff ff ff 	movl   $0xfffffff5,0xc(%ebp)
    4dfd:	c9                   	leave  
    4dfe:	e9 5d 83 00 00       	jmp    d160 <async_answer_0@plt>
    4e03:	8d b6 00 00 00 00    	lea    0x0(%esi),%esi
    4e09:	8d bc 27 00 00 00 00 	lea    0x0(%edi,%eiz,1),%edi

00004e10 <remote_nic_offload_set>:
    4e10:	55                   	push   %ebp
    4e11:	89 e5                	mov    %esp,%ebp
    4e13:	53                   	push   %ebx
    4e14:	51                   	push   %ecx
    4e15:	8b 45 0c             	mov    0xc(%ebp),%eax
    4e18:	8b 4d 08             	mov    0x8(%ebp),%ecx
    4e1b:	8b 5d 10             	mov    0x10(%ebp),%ebx
    4e1e:	8b 55 14             	mov    0x14(%ebp),%edx
    4e21:	8b 80 94 00 00 00    	mov    0x94(%eax),%eax
    4e27:	85 c0                	test   %eax,%eax
    4e29:	74 25                	je     4e50 <remote_nic_offload_set+0x40>
    4e2b:	83 ec 04             	sub    $0x4,%esp
    4e2e:	ff 72 0c             	pushl  0xc(%edx)
    4e31:	8b 52 08             	mov    0x8(%edx),%edx
    4e34:	52                   	push   %edx
    4e35:	51                   	push   %ecx
    4e36:	ff d0                	call   *%eax
    4e38:	89 5d 08             	mov    %ebx,0x8(%ebp)
    4e3b:	83 c4 10             	add    $0x10,%esp
    4e3e:	8b 5d fc             	mov    -0x4(%ebp),%ebx
    4e41:	89 45 0c             	mov    %eax,0xc(%ebp)
    4e44:	c9                   	leave  
    4e45:	e9 16 83 00 00       	jmp    d160 <async_answer_0@plt>
    4e4a:	8d b6 00 00 00 00    	lea    0x0(%esi),%esi
    4e50:	89 5d 08             	mov    %ebx,0x8(%ebp)
    4e53:	8b 5d fc             	mov    -0x4(%ebp),%ebx
    4e56:	c7 45 0c f5 ff ff ff 	movl   $0xfffffff5,0xc(%ebp)
    4e5d:	c9                   	leave  
    4e5e:	e9 fd 82 00 00       	jmp    d160 <async_answer_0@plt>
    4e63:	8d b6 00 00 00 00    	lea    0x0(%esi),%esi
    4e69:	8d bc 27 00 00 00 00 	lea    0x0(%edi,%eiz,1),%edi

00004e70 <remote_nic_wol_virtue_remove>:
    4e70:	55                   	push   %ebp
    4e71:	89 e5                	mov    %esp,%ebp
    4e73:	53                   	push   %ebx
    4e74:	53                   	push   %ebx
    4e75:	8b 45 0c             	mov    0xc(%ebp),%eax
    4e78:	8b 55 08             	mov    0x8(%ebp),%edx
    4e7b:	8b 5d 10             	mov    0x10(%ebp),%ebx
    4e7e:	8b 4d 14             	mov    0x14(%ebp),%ecx
    4e81:	8b 40 7c             	mov    0x7c(%eax),%eax
    4e84:	85 c0                	test   %eax,%eax
    4e86:	74 20                	je     4ea8 <remote_nic_wol_virtue_remove+0x38>
    4e88:	83 ec 08             	sub    $0x8,%esp
    4e8b:	8b 49 08             	mov    0x8(%ecx),%ecx
    4e8e:	51                   	push   %ecx
    4e8f:	52                   	push   %edx
    4e90:	ff d0                	call   *%eax
    4e92:	89 5d 08             	mov    %ebx,0x8(%ebp)
    4e95:	83 c4 10             	add    $0x10,%esp
    4e98:	8b 5d fc             	mov    -0x4(%ebp),%ebx
    4e9b:	89 45 0c             	mov    %eax,0xc(%ebp)
    4e9e:	c9                   	leave  
    4e9f:	e9 bc 82 00 00       	jmp    d160 <async_answer_0@plt>
    4ea4:	8d 74 26 00          	lea    0x0(%esi,%eiz,1),%esi
    4ea8:	89 5d 08             	mov    %ebx,0x8(%ebp)
    4eab:	8b 5d fc             	mov    -0x4(%ebp),%ebx
    4eae:	c7 45 0c f5 ff ff ff 	movl   $0xfffffff5,0xc(%ebp)
    4eb5:	c9                   	leave  
    4eb6:	e9 a5 82 00 00       	jmp    d160 <async_answer_0@plt>
    4ebb:	90                   	nop
    4ebc:	8d 74 26 00          	lea    0x0(%esi,%eiz,1),%esi

00004ec0 <remote_nic_vlan_set_tag>:
    4ec0:	55                   	push   %ebp
    4ec1:	89 e5                	mov    %esp,%ebp
    4ec3:	57                   	push   %edi
    4ec4:	56                   	push   %esi
    4ec5:	53                   	push   %ebx
    4ec6:	83 ec 0c             	sub    $0xc,%esp
    4ec9:	8b 55 0c             	mov    0xc(%ebp),%edx
    4ecc:	8b 7d 08             	mov    0x8(%ebp),%edi
    4ecf:	8b 5d 10             	mov    0x10(%ebp),%ebx
    4ed2:	8b 45 14             	mov    0x14(%ebp),%eax
    4ed5:	8b 52 74             	mov    0x74(%edx),%edx
    4ed8:	85 d2                	test   %edx,%edx
    4eda:	74 3c                	je     4f18 <remote_nic_vlan_set_tag+0x58>
    4edc:	8b 70 10             	mov    0x10(%eax),%esi
    4edf:	31 c9                	xor    %ecx,%ecx
    4ee1:	85 f6                	test   %esi,%esi
    4ee3:	0f 95 c1             	setne  %cl
    4ee6:	89 ce                	mov    %ecx,%esi
    4ee8:	31 c9                	xor    %ecx,%ecx
    4eea:	56                   	push   %esi
    4eeb:	8b 70 0c             	mov    0xc(%eax),%esi
    4eee:	85 f6                	test   %esi,%esi
    4ef0:	0f 95 c1             	setne  %cl
    4ef3:	89 ce                	mov    %ecx,%esi
    4ef5:	56                   	push   %esi
    4ef6:	8b 48 08             	mov    0x8(%eax),%ecx
    4ef9:	81 e1 ff ff 00 00    	and    $0xffff,%ecx
    4eff:	51                   	push   %ecx
    4f00:	57                   	push   %edi
    4f01:	ff d2                	call   *%edx
    4f03:	89 5d 08             	mov    %ebx,0x8(%ebp)
    4f06:	89 45 0c             	mov    %eax,0xc(%ebp)
    4f09:	83 c4 10             	add    $0x10,%esp
    4f0c:	8d 65 f4             	lea    -0xc(%ebp),%esp
    4f0f:	5b                   	pop    %ebx
    4f10:	5e                   	pop    %esi
    4f11:	5f                   	pop    %edi
    4f12:	5d                   	pop    %ebp
    4f13:	e9 48 82 00 00       	jmp    d160 <async_answer_0@plt>
    4f18:	89 5d 08             	mov    %ebx,0x8(%ebp)
    4f1b:	c7 45 0c f5 ff ff ff 	movl   $0xfffffff5,0xc(%ebp)
    4f22:	8d 65 f4             	lea    -0xc(%ebp),%esp
    4f25:	5b                   	pop    %ebx
    4f26:	5e                   	pop    %esi
    4f27:	5f                   	pop    %edi
    4f28:	5d                   	pop    %ebp
    4f29:	e9 32 82 00 00       	jmp    d160 <async_answer_0@plt>
    4f2e:	66 90                	xchg   %ax,%ax

00004f30 <remote_nic_defective_set_mode>:
    4f30:	55                   	push   %ebp
    4f31:	89 e5                	mov    %esp,%ebp
    4f33:	53                   	push   %ebx
    4f34:	53                   	push   %ebx
    4f35:	8b 45 0c             	mov    0xc(%ebp),%eax
    4f38:	8b 55 08             	mov    0x8(%ebp),%edx
    4f3b:	8b 5d 10             	mov    0x10(%ebp),%ebx
    4f3e:	8b 4d 14             	mov    0x14(%ebp),%ecx
    4f41:	8b 40 60             	mov    0x60(%eax),%eax
    4f44:	85 c0                	test   %eax,%eax
    4f46:	74 20                	je     4f68 <remote_nic_defective_set_mode+0x38>
    4f48:	83 ec 08             	sub    $0x8,%esp
    4f4b:	8b 49 08             	mov    0x8(%ecx),%ecx
    4f4e:	51                   	push   %ecx
    4f4f:	52                   	push   %edx
    4f50:	ff d0                	call   *%eax
    4f52:	89 5d 08             	mov    %ebx,0x8(%ebp)
    4f55:	83 c4 10             	add    $0x10,%esp
    4f58:	8b 5d fc             	mov    -0x4(%ebp),%ebx
    4f5b:	89 45 0c             	mov    %eax,0xc(%ebp)
    4f5e:	c9                   	leave  
    4f5f:	e9 fc 81 00 00       	jmp    d160 <async_answer_0@plt>
    4f64:	8d 74 26 00          	lea    0x0(%esi,%eiz,1),%esi
    4f68:	89 5d 08             	mov    %ebx,0x8(%ebp)
    4f6b:	8b 5d fc             	mov    -0x4(%ebp),%ebx
    4f6e:	c7 45 0c f5 ff ff ff 	movl   $0xfffffff5,0xc(%ebp)
    4f75:	c9                   	leave  
    4f76:	e9 e5 81 00 00       	jmp    d160 <async_answer_0@plt>
    4f7b:	90                   	nop
    4f7c:	8d 74 26 00          	lea    0x0(%esi,%eiz,1),%esi

00004f80 <remote_nic_broadcast_set_mode>:
    4f80:	55                   	push   %ebp
    4f81:	89 e5                	mov    %esp,%ebp
    4f83:	53                   	push   %ebx
    4f84:	53                   	push   %ebx
    4f85:	8b 45 0c             	mov    0xc(%ebp),%eax
    4f88:	8b 55 08             	mov    0x8(%ebp),%edx
    4f8b:	8b 5d 10             	mov    0x10(%ebp),%ebx
    4f8e:	8b 4d 14             	mov    0x14(%ebp),%ecx
    4f91:	8b 40 58             	mov    0x58(%eax),%eax
    4f94:	85 c0                	test   %eax,%eax
    4f96:	74 20                	je     4fb8 <remote_nic_broadcast_set_mode+0x38>
    4f98:	83 ec 08             	sub    $0x8,%esp
    4f9b:	8b 49 08             	mov    0x8(%ecx),%ecx
    4f9e:	51                   	push   %ecx
    4f9f:	52                   	push   %edx
    4fa0:	ff d0                	call   *%eax
    4fa2:	89 5d 08             	mov    %ebx,0x8(%ebp)
    4fa5:	83 c4 10             	add    $0x10,%esp
    4fa8:	8b 5d fc             	mov    -0x4(%ebp),%ebx
    4fab:	89 45 0c             	mov    %eax,0xc(%ebp)
    4fae:	c9                   	leave  
    4faf:	e9 ac 81 00 00       	jmp    d160 <async_answer_0@plt>
    4fb4:	8d 74 26 00          	lea    0x0(%esi,%eiz,1),%esi
    4fb8:	89 5d 08             	mov    %ebx,0x8(%ebp)
    4fbb:	8b 5d fc             	mov    -0x4(%ebp),%ebx
    4fbe:	c7 45 0c f5 ff ff ff 	movl   $0xfffffff5,0xc(%ebp)
    4fc5:	c9                   	leave  
    4fc6:	e9 95 81 00 00       	jmp    d160 <async_answer_0@plt>
    4fcb:	90                   	nop
    4fcc:	8d 74 26 00          	lea    0x0(%esi,%eiz,1),%esi

00004fd0 <remote_nic_set_pause>:
    4fd0:	55                   	push   %ebp
    4fd1:	89 e5                	mov    %esp,%ebp
    4fd3:	56                   	push   %esi
    4fd4:	53                   	push   %ebx
    4fd5:	8b 55 0c             	mov    0xc(%ebp),%edx
    4fd8:	8b 4d 08             	mov    0x8(%ebp),%ecx
    4fdb:	8b 5d 10             	mov    0x10(%ebp),%ebx
    4fde:	8b 45 14             	mov    0x14(%ebp),%eax
    4fe1:	8b 52 40             	mov    0x40(%edx),%edx
    4fe4:	85 d2                	test   %edx,%edx
    4fe6:	74 28                	je     5010 <remote_nic_set_pause+0x40>
    4fe8:	31 f6                	xor    %esi,%esi
    4fea:	66 8b 70 10          	mov    0x10(%eax),%si
    4fee:	56                   	push   %esi
    4fef:	8b 70 0c             	mov    0xc(%eax),%esi
    4ff2:	56                   	push   %esi
    4ff3:	8b 40 08             	mov    0x8(%eax),%eax
    4ff6:	50                   	push   %eax
    4ff7:	51                   	push   %ecx
    4ff8:	ff d2                	call   *%edx
    4ffa:	89 5d 08             	mov    %ebx,0x8(%ebp)
    4ffd:	89 45 0c             	mov    %eax,0xc(%ebp)
    5000:	83 c4 10             	add    $0x10,%esp
    5003:	8d 65 f8             	lea    -0x8(%ebp),%esp
    5006:	5b                   	pop    %ebx
    5007:	5e                   	pop    %esi
    5008:	5d                   	pop    %ebp
    5009:	e9 52 81 00 00       	jmp    d160 <async_answer_0@plt>
    500e:	66 90                	xchg   %ax,%ax
    5010:	89 5d 08             	mov    %ebx,0x8(%ebp)
    5013:	c7 45 0c f5 ff ff ff 	movl   $0xfffffff5,0xc(%ebp)
    501a:	8d 65 f8             	lea    -0x8(%ebp),%esp
    501d:	5b                   	pop    %ebx
    501e:	5e                   	pop    %esi
    501f:	5d                   	pop    %ebp
    5020:	e9 3b 81 00 00       	jmp    d160 <async_answer_0@plt>
    5025:	8d 74 26 00          	lea    0x0(%esi,%eiz,1),%esi
    5029:	8d bc 27 00 00 00 00 	lea    0x0(%edi,%eiz,1),%edi

00005030 <remote_nic_autoneg_restart>:
    5030:	55                   	push   %ebp
    5031:	89 e5                	mov    %esp,%ebp
    5033:	53                   	push   %ebx
    5034:	50                   	push   %eax
    5035:	8b 45 0c             	mov    0xc(%ebp),%eax
    5038:	8b 55 08             	mov    0x8(%ebp),%edx
    503b:	8b 5d 10             	mov    0x10(%ebp),%ebx
    503e:	8b 40 38             	mov    0x38(%eax),%eax
    5041:	85 c0                	test   %eax,%eax
    5043:	74 1b                	je     5060 <remote_nic_autoneg_restart+0x30>
    5045:	83 ec 0c             	sub    $0xc,%esp
    5048:	52                   	push   %edx
    5049:	ff d0                	call   *%eax
    504b:	89 5d 08             	mov    %ebx,0x8(%ebp)
    504e:	83 c4 10             	add    $0x10,%esp
    5051:	8b 5d fc             	mov    -0x4(%ebp),%ebx
    5054:	89 45 0c             	mov    %eax,0xc(%ebp)
    5057:	c9                   	leave  
    5058:	e9 03 81 00 00       	jmp    d160 <async_answer_0@plt>
    505d:	8d 76 00             	lea    0x0(%esi),%esi
    5060:	89 5d 08             	mov    %ebx,0x8(%ebp)
    5063:	8b 5d fc             	mov    -0x4(%ebp),%ebx
    5066:	c7 45 0c f5 ff ff ff 	movl   $0xfffffff5,0xc(%ebp)
    506d:	c9                   	leave  
    506e:	e9 ed 80 00 00       	jmp    d160 <async_answer_0@plt>
    5073:	8d b6 00 00 00 00    	lea    0x0(%esi),%esi
    5079:	8d bc 27 00 00 00 00 	lea    0x0(%edi,%eiz,1),%edi

00005080 <remote_nic_autoneg_disable>:
    5080:	55                   	push   %ebp
    5081:	89 e5                	mov    %esp,%ebp
    5083:	53                   	push   %ebx
    5084:	50                   	push   %eax
    5085:	8b 45 0c             	mov    0xc(%ebp),%eax
    5088:	8b 55 08             	mov    0x8(%ebp),%edx
    508b:	8b 5d 10             	mov    0x10(%ebp),%ebx
    508e:	8b 40 30             	mov    0x30(%eax),%eax
    5091:	85 c0                	test   %eax,%eax
    5093:	74 1b                	je     50b0 <remote_nic_autoneg_disable+0x30>
    5095:	83 ec 0c             	sub    $0xc,%esp
    5098:	52                   	push   %edx
    5099:	ff d0                	call   *%eax
    509b:	89 5d 08             	mov    %ebx,0x8(%ebp)
    509e:	83 c4 10             	add    $0x10,%esp
    50a1:	8b 5d fc             	mov    -0x4(%ebp),%ebx
    50a4:	89 45 0c             	mov    %eax,0xc(%ebp)
    50a7:	c9                   	leave  
    50a8:	e9 b3 80 00 00       	jmp    d160 <async_answer_0@plt>
    50ad:	8d 76 00             	lea    0x0(%esi),%esi
    50b0:	89 5d 08             	mov    %ebx,0x8(%ebp)
    50b3:	8b 5d fc             	mov    -0x4(%ebp),%ebx
    50b6:	c7 45 0c f5 ff ff ff 	movl   $0xfffffff5,0xc(%ebp)
    50bd:	c9                   	leave  
    50be:	e9 9d 80 00 00       	jmp    d160 <async_answer_0@plt>
    50c3:	8d b6 00 00 00 00    	lea    0x0(%esi),%esi
    50c9:	8d bc 27 00 00 00 00 	lea    0x0(%edi,%eiz,1),%edi

000050d0 <remote_nic_autoneg_enable>:
    50d0:	55                   	push   %ebp
    50d1:	89 e5                	mov    %esp,%ebp
    50d3:	53                   	push   %ebx
    50d4:	53                   	push   %ebx
    50d5:	8b 45 0c             	mov    0xc(%ebp),%eax
    50d8:	8b 55 08             	mov    0x8(%ebp),%edx
    50db:	8b 5d 10             	mov    0x10(%ebp),%ebx
    50de:	8b 4d 14             	mov    0x14(%ebp),%ecx
    50e1:	8b 40 2c             	mov    0x2c(%eax),%eax
    50e4:	85 c0                	test   %eax,%eax
    50e6:	74 20                	je     5108 <remote_nic_autoneg_enable+0x38>
    50e8:	83 ec 08             	sub    $0x8,%esp
    50eb:	8b 49 08             	mov    0x8(%ecx),%ecx
    50ee:	51                   	push   %ecx
    50ef:	52                   	push   %edx
    50f0:	ff d0                	call   *%eax
    50f2:	89 5d 08             	mov    %ebx,0x8(%ebp)
    50f5:	83 c4 10             	add    $0x10,%esp
    50f8:	8b 5d fc             	mov    -0x4(%ebp),%ebx
    50fb:	89 45 0c             	mov    %eax,0xc(%ebp)
    50fe:	c9                   	leave  
    50ff:	e9 5c 80 00 00       	jmp    d160 <async_answer_0@plt>
    5104:	8d 74 26 00          	lea    0x0(%esi,%eiz,1),%esi
    5108:	89 5d 08             	mov    %ebx,0x8(%ebp)
    510b:	8b 5d fc             	mov    -0x4(%ebp),%ebx
    510e:	c7 45 0c f5 ff ff ff 	movl   $0xfffffff5,0xc(%ebp)
    5115:	c9                   	leave  
    5116:	e9 45 80 00 00       	jmp    d160 <async_answer_0@plt>
    511b:	90                   	nop
    511c:	8d 74 26 00          	lea    0x0(%esi,%eiz,1),%esi

00005120 <remote_nic_set_operation_mode>:
    5120:	55                   	push   %ebp
    5121:	89 e5                	mov    %esp,%ebp
    5123:	53                   	push   %ebx
    5124:	52                   	push   %edx
    5125:	8b 55 0c             	mov    0xc(%ebp),%edx
    5128:	8b 4d 08             	mov    0x8(%ebp),%ecx
    512b:	8b 5d 10             	mov    0x10(%ebp),%ebx
    512e:	8b 45 14             	mov    0x14(%ebp),%eax
    5131:	8b 52 28             	mov    0x28(%edx),%edx
    5134:	85 d2                	test   %edx,%edx
    5136:	74 20                	je     5158 <remote_nic_set_operation_mode+0x38>
    5138:	ff 70 10             	pushl  0x10(%eax)
    513b:	ff 70 0c             	pushl  0xc(%eax)
    513e:	8b 40 08             	mov    0x8(%eax),%eax
    5141:	50                   	push   %eax
    5142:	51                   	push   %ecx
    5143:	ff d2                	call   *%edx
    5145:	89 5d 08             	mov    %ebx,0x8(%ebp)
    5148:	83 c4 10             	add    $0x10,%esp
    514b:	8b 5d fc             	mov    -0x4(%ebp),%ebx
    514e:	89 45 0c             	mov    %eax,0xc(%ebp)
    5151:	c9                   	leave  
    5152:	e9 09 80 00 00       	jmp    d160 <async_answer_0@plt>
    5157:	90                   	nop
    5158:	89 5d 08             	mov    %ebx,0x8(%ebp)
    515b:	8b 5d fc             	mov    -0x4(%ebp),%ebx
    515e:	c7 45 0c f5 ff ff ff 	movl   $0xfffffff5,0xc(%ebp)
    5165:	c9                   	leave  
    5166:	e9 f5 7f 00 00       	jmp    d160 <async_answer_0@plt>
    516b:	90                   	nop
    516c:	8d 74 26 00          	lea    0x0(%esi,%eiz,1),%esi

00005170 <remote_nic_poll_set_mode>:
    5170:	55                   	push   %ebp
    5171:	31 d2                	xor    %edx,%edx
    5173:	89 e5                	mov    %esp,%ebp
    5175:	56                   	push   %esi
    5176:	53                   	push   %ebx
    5177:	83 ec 10             	sub    $0x10,%esp
    517a:	8b 45 14             	mov    0x14(%ebp),%eax
    517d:	8b 70 08             	mov    0x8(%eax),%esi
    5180:	8b 40 0c             	mov    0xc(%eax),%eax
    5183:	85 c0                	test   %eax,%eax
    5185:	75 31                	jne    51b8 <remote_nic_poll_set_mode+0x48>
    5187:	8b 45 0c             	mov    0xc(%ebp),%eax
    518a:	8b 80 9c 00 00 00    	mov    0x9c(%eax),%eax
    5190:	85 c0                	test   %eax,%eax
    5192:	0f 84 90 00 00 00    	je     5228 <remote_nic_poll_set_mode+0xb8>
    5198:	8b 5d 08             	mov    0x8(%ebp),%ebx
    519b:	51                   	push   %ecx
    519c:	52                   	push   %edx
    519d:	56                   	push   %esi
    519e:	53                   	push   %ebx
    519f:	ff d0                	call   *%eax
    51a1:	8b 4d 10             	mov    0x10(%ebp),%ecx
    51a4:	5e                   	pop    %esi
    51a5:	5a                   	pop    %edx
    51a6:	50                   	push   %eax
    51a7:	51                   	push   %ecx
    51a8:	e8 b3 7f 00 00       	call   d160 <async_answer_0@plt>
    51ad:	83 c4 10             	add    $0x10,%esp
    51b0:	8d 65 f8             	lea    -0x8(%ebp),%esp
    51b3:	5b                   	pop    %ebx
    51b4:	5e                   	pop    %esi
    51b5:	5d                   	pop    %ebp
    51b6:	c3                   	ret    
    51b7:	90                   	nop
    51b8:	8d 45 e8             	lea    -0x18(%ebp),%eax
    51bb:	53                   	push   %ebx
    51bc:	53                   	push   %ebx
    51bd:	50                   	push   %eax
    51be:	8d 45 ec             	lea    -0x14(%ebp),%eax
    51c1:	50                   	push   %eax
    51c2:	e8 39 83 00 00       	call   d500 <async_data_write_receive@plt>
    51c7:	83 c4 10             	add    $0x10,%esp
    51ca:	84 c0                	test   %al,%al
    51cc:	74 72                	je     5240 <remote_nic_poll_set_mode+0xd0>
    51ce:	83 7d e8 08          	cmpl   $0x8,-0x18(%ebp)
    51d2:	74 24                	je     51f8 <remote_nic_poll_set_mode+0x88>
    51d4:	50                   	push   %eax
    51d5:	50                   	push   %eax
    51d6:	8b 45 ec             	mov    -0x14(%ebp),%eax
    51d9:	6a fd                	push   $0xfffffffd
    51db:	50                   	push   %eax
    51dc:	e8 7f 7f 00 00       	call   d160 <async_answer_0@plt>
    51e1:	8b 4d 10             	mov    0x10(%ebp),%ecx
    51e4:	58                   	pop    %eax
    51e5:	5a                   	pop    %edx
    51e6:	6a fd                	push   $0xfffffffd
    51e8:	51                   	push   %ecx
    51e9:	e8 72 7f 00 00       	call   d160 <async_answer_0@plt>
    51ee:	83 c4 10             	add    $0x10,%esp
    51f1:	8d 65 f8             	lea    -0x8(%ebp),%esp
    51f4:	5b                   	pop    %ebx
    51f5:	5e                   	pop    %esi
    51f6:	5d                   	pop    %ebp
    51f7:	c3                   	ret    
    51f8:	8d 5d f0             	lea    -0x10(%ebp),%ebx
    51fb:	50                   	push   %eax
    51fc:	8b 45 ec             	mov    -0x14(%ebp),%eax
    51ff:	6a 08                	push   $0x8
    5201:	53                   	push   %ebx
    5202:	50                   	push   %eax
    5203:	e8 78 82 00 00       	call   d480 <async_data_write_finalize@plt>
    5208:	83 c4 10             	add    $0x10,%esp
    520b:	89 da                	mov    %ebx,%edx
    520d:	85 c0                	test   %eax,%eax
    520f:	0f 84 72 ff ff ff    	je     5187 <remote_nic_poll_set_mode+0x17>
    5215:	8b 75 10             	mov    0x10(%ebp),%esi
    5218:	53                   	push   %ebx
    5219:	53                   	push   %ebx
    521a:	6a f2                	push   $0xfffffff2
    521c:	56                   	push   %esi
    521d:	e8 3e 7f 00 00       	call   d160 <async_answer_0@plt>
    5222:	83 c4 10             	add    $0x10,%esp
    5225:	eb 89                	jmp    51b0 <remote_nic_poll_set_mode+0x40>
    5227:	90                   	nop
    5228:	8b 55 10             	mov    0x10(%ebp),%edx
    522b:	50                   	push   %eax
    522c:	50                   	push   %eax
    522d:	6a f5                	push   $0xfffffff5
    522f:	52                   	push   %edx
    5230:	e8 2b 7f 00 00       	call   d160 <async_answer_0@plt>
    5235:	83 c4 10             	add    $0x10,%esp
    5238:	8d 65 f8             	lea    -0x8(%ebp),%esp
    523b:	5b                   	pop    %ebx
    523c:	5e                   	pop    %esi
    523d:	5d                   	pop    %ebp
    523e:	c3                   	ret    
    523f:	90                   	nop
    5240:	8b 75 ec             	mov    -0x14(%ebp),%esi
    5243:	53                   	push   %ebx
    5244:	53                   	push   %ebx
    5245:	6a f2                	push   $0xfffffff2
    5247:	56                   	push   %esi
    5248:	e8 13 7f 00 00       	call   d160 <async_answer_0@plt>
    524d:	8b 4d 10             	mov    0x10(%ebp),%ecx
    5250:	58                   	pop    %eax
    5251:	5a                   	pop    %edx
    5252:	6a f2                	push   $0xfffffff2
    5254:	51                   	push   %ecx
    5255:	e8 06 7f 00 00       	call   d160 <async_answer_0@plt>
    525a:	83 c4 10             	add    $0x10,%esp
    525d:	e9 4e ff ff ff       	jmp    51b0 <remote_nic_poll_set_mode+0x40>
    5262:	8d b4 26 00 00 00 00 	lea    0x0(%esi,%eiz,1),%esi
    5269:	8d bc 27 00 00 00 00 	lea    0x0(%edi,%eiz,1),%edi

00005270 <remote_nic_vlan_set_mask>:
    5270:	55                   	push   %ebp
    5271:	31 d2                	xor    %edx,%edx
    5273:	89 e5                	mov    %esp,%ebp
    5275:	53                   	push   %ebx
    5276:	81 ec 14 02 00 00    	sub    $0x214,%esp
    527c:	8b 45 14             	mov    0x14(%ebp),%eax
    527f:	8b 40 08             	mov    0x8(%eax),%eax
    5282:	85 c0                	test   %eax,%eax
    5284:	75 32                	jne    52b8 <remote_nic_vlan_set_mask+0x48>
    5286:	8b 45 0c             	mov    0xc(%ebp),%eax
    5289:	8b 40 70             	mov    0x70(%eax),%eax
    528c:	85 c0                	test   %eax,%eax
    528e:	0f 84 bc 00 00 00    	je     5350 <remote_nic_vlan_set_mask+0xe0>
    5294:	8b 5d 08             	mov    0x8(%ebp),%ebx
    5297:	51                   	push   %ecx
    5298:	51                   	push   %ecx
    5299:	52                   	push   %edx
    529a:	53                   	push   %ebx
    529b:	ff d0                	call   *%eax
    529d:	8b 5d 10             	mov    0x10(%ebp),%ebx
    52a0:	5a                   	pop    %edx
    52a1:	59                   	pop    %ecx
    52a2:	50                   	push   %eax
    52a3:	53                   	push   %ebx
    52a4:	e8 b7 7e 00 00       	call   d160 <async_answer_0@plt>
    52a9:	83 c4 10             	add    $0x10,%esp
    52ac:	8b 5d fc             	mov    -0x4(%ebp),%ebx
    52af:	c9                   	leave  
    52b0:	c3                   	ret    
    52b1:	8d b4 26 00 00 00 00 	lea    0x0(%esi,%eiz,1),%esi
    52b8:	8d 85 f4 fd ff ff    	lea    -0x20c(%ebp),%eax
    52be:	53                   	push   %ebx
    52bf:	53                   	push   %ebx
    52c0:	50                   	push   %eax
    52c1:	8d 85 f0 fd ff ff    	lea    -0x210(%ebp),%eax
    52c7:	50                   	push   %eax
    52c8:	e8 33 82 00 00       	call   d500 <async_data_write_receive@plt>
    52cd:	83 c4 10             	add    $0x10,%esp
    52d0:	84 c0                	test   %al,%al
    52d2:	0f 84 90 00 00 00    	je     5368 <remote_nic_vlan_set_mask+0xf8>
    52d8:	81 bd f4 fd ff ff 00 	cmpl   $0x200,-0x20c(%ebp)
    52df:	02 00 00 
    52e2:	74 2c                	je     5310 <remote_nic_vlan_set_mask+0xa0>
    52e4:	50                   	push   %eax
    52e5:	50                   	push   %eax
    52e6:	8b 85 f0 fd ff ff    	mov    -0x210(%ebp),%eax
    52ec:	6a fd                	push   $0xfffffffd
    52ee:	50                   	push   %eax
    52ef:	e8 6c 7e 00 00       	call   d160 <async_answer_0@plt>
    52f4:	8b 5d 10             	mov    0x10(%ebp),%ebx
    52f7:	5a                   	pop    %edx
    52f8:	59                   	pop    %ecx
    52f9:	6a fd                	push   $0xfffffffd
    52fb:	53                   	push   %ebx
    52fc:	e8 5f 7e 00 00       	call   d160 <async_answer_0@plt>
    5301:	83 c4 10             	add    $0x10,%esp
    5304:	8b 5d fc             	mov    -0x4(%ebp),%ebx
    5307:	c9                   	leave  
    5308:	c3                   	ret    
    5309:	8d b4 26 00 00 00 00 	lea    0x0(%esi,%eiz,1),%esi
    5310:	8d 9d f8 fd ff ff    	lea    -0x208(%ebp),%ebx
    5316:	50                   	push   %eax
    5317:	8b 85 f0 fd ff ff    	mov    -0x210(%ebp),%eax
    531d:	68 00 02 00 00       	push   $0x200
    5322:	53                   	push   %ebx
    5323:	50                   	push   %eax
    5324:	e8 57 81 00 00       	call   d480 <async_data_write_finalize@plt>
    5329:	83 c4 10             	add    $0x10,%esp
    532c:	89 da                	mov    %ebx,%edx
    532e:	85 c0                	test   %eax,%eax
    5330:	0f 84 50 ff ff ff    	je     5286 <remote_nic_vlan_set_mask+0x16>
    5336:	50                   	push   %eax
    5337:	50                   	push   %eax
    5338:	8b 45 10             	mov    0x10(%ebp),%eax
    533b:	6a f2                	push   $0xfffffff2
    533d:	50                   	push   %eax
    533e:	e8 1d 7e 00 00       	call   d160 <async_answer_0@plt>
    5343:	83 c4 10             	add    $0x10,%esp
    5346:	e9 61 ff ff ff       	jmp    52ac <remote_nic_vlan_set_mask+0x3c>
    534b:	90                   	nop
    534c:	8d 74 26 00          	lea    0x0(%esi,%eiz,1),%esi
    5350:	8b 55 10             	mov    0x10(%ebp),%edx
    5353:	50                   	push   %eax
    5354:	50                   	push   %eax
    5355:	6a f5                	push   $0xfffffff5
    5357:	52                   	push   %edx
    5358:	e8 03 7e 00 00       	call   d160 <async_answer_0@plt>
    535d:	83 c4 10             	add    $0x10,%esp
    5360:	8b 5d fc             	mov    -0x4(%ebp),%ebx
    5363:	c9                   	leave  
    5364:	c3                   	ret    
    5365:	8d 76 00             	lea    0x0(%esi),%esi
    5368:	50                   	push   %eax
    5369:	50                   	push   %eax
    536a:	8b 85 f0 fd ff ff    	mov    -0x210(%ebp),%eax
    5370:	6a f2                	push   $0xfffffff2
    5372:	50                   	push   %eax
    5373:	e8 e8 7d 00 00       	call   d160 <async_answer_0@plt>
    5378:	8b 4d 10             	mov    0x10(%ebp),%ecx
    537b:	58                   	pop    %eax
    537c:	5a                   	pop    %edx
    537d:	6a f2                	push   $0xfffffff2
    537f:	51                   	push   %ecx
    5380:	e8 db 7d 00 00       	call   d160 <async_answer_0@plt>
    5385:	83 c4 10             	add    $0x10,%esp
    5388:	e9 1f ff ff ff       	jmp    52ac <remote_nic_vlan_set_mask+0x3c>
    538d:	8d 76 00             	lea    0x0(%esi),%esi

00005390 <remote_nic_set_address>:
    5390:	55                   	push   %ebp
    5391:	89 e5                	mov    %esp,%ebp
    5393:	53                   	push   %ebx
    5394:	83 ec 1c             	sub    $0x1c,%esp
    5397:	8d 45 e8             	lea    -0x18(%ebp),%eax
    539a:	50                   	push   %eax
    539b:	8d 45 ec             	lea    -0x14(%ebp),%eax
    539e:	50                   	push   %eax
    539f:	e8 5c 81 00 00       	call   d500 <async_data_write_receive@plt>
    53a4:	83 c4 10             	add    $0x10,%esp
    53a7:	84 c0                	test   %al,%al
    53a9:	74 75                	je     5420 <remote_nic_set_address+0x90>
    53ab:	8b 45 e8             	mov    -0x18(%ebp),%eax
    53ae:	83 f8 06             	cmp    $0x6,%eax
    53b1:	77 45                	ja     53f8 <remote_nic_set_address+0x68>
    53b3:	8b 4d ec             	mov    -0x14(%ebp),%ecx
    53b6:	8d 5d f2             	lea    -0xe(%ebp),%ebx
    53b9:	52                   	push   %edx
    53ba:	50                   	push   %eax
    53bb:	53                   	push   %ebx
    53bc:	51                   	push   %ecx
    53bd:	e8 be 80 00 00       	call   d480 <async_data_write_finalize@plt>
    53c2:	83 c4 10             	add    $0x10,%esp
    53c5:	85 c0                	test   %eax,%eax
    53c7:	75 7f                	jne    5448 <remote_nic_set_address+0xb8>
    53c9:	8b 45 0c             	mov    0xc(%ebp),%eax
    53cc:	8b 40 14             	mov    0x14(%eax),%eax
    53cf:	85 c0                	test   %eax,%eax
    53d1:	0f 84 89 00 00 00    	je     5460 <remote_nic_set_address+0xd0>
    53d7:	51                   	push   %ecx
    53d8:	51                   	push   %ecx
    53d9:	53                   	push   %ebx
    53da:	8b 5d 08             	mov    0x8(%ebp),%ebx
    53dd:	53                   	push   %ebx
    53de:	ff d0                	call   *%eax
    53e0:	8b 5d 10             	mov    0x10(%ebp),%ebx
    53e3:	5a                   	pop    %edx
    53e4:	59                   	pop    %ecx
    53e5:	50                   	push   %eax
    53e6:	53                   	push   %ebx
    53e7:	e8 74 7d 00 00       	call   d160 <async_answer_0@plt>
    53ec:	83 c4 10             	add    $0x10,%esp
    53ef:	8b 5d fc             	mov    -0x4(%ebp),%ebx
    53f2:	c9                   	leave  
    53f3:	c3                   	ret    
    53f4:	8d 74 26 00          	lea    0x0(%esi,%eiz,1),%esi
    53f8:	8b 45 ec             	mov    -0x14(%ebp),%eax
    53fb:	53                   	push   %ebx
    53fc:	53                   	push   %ebx
    53fd:	6a fd                	push   $0xfffffffd
    53ff:	50                   	push   %eax
    5400:	e8 5b 7d 00 00       	call   d160 <async_answer_0@plt>
    5405:	8b 4d 10             	mov    0x10(%ebp),%ecx
    5408:	58                   	pop    %eax
    5409:	5a                   	pop    %edx
    540a:	6a fd                	push   $0xfffffffd
    540c:	51                   	push   %ecx
    540d:	e8 4e 7d 00 00       	call   d160 <async_answer_0@plt>
    5412:	83 c4 10             	add    $0x10,%esp
    5415:	8b 5d fc             	mov    -0x4(%ebp),%ebx
    5418:	c9                   	leave  
    5419:	c3                   	ret    
    541a:	8d b6 00 00 00 00    	lea    0x0(%esi),%esi
    5420:	8b 45 ec             	mov    -0x14(%ebp),%eax
    5423:	53                   	push   %ebx
    5424:	53                   	push   %ebx
    5425:	6a f2                	push   $0xfffffff2
    5427:	50                   	push   %eax
    5428:	e8 33 7d 00 00       	call   d160 <async_answer_0@plt>
    542d:	8b 4d 10             	mov    0x10(%ebp),%ecx
    5430:	58                   	pop    %eax
    5431:	5a                   	pop    %edx
    5432:	6a f2                	push   $0xfffffff2
    5434:	51                   	push   %ecx
    5435:	e8 26 7d 00 00       	call   d160 <async_answer_0@plt>
    543a:	83 c4 10             	add    $0x10,%esp
    543d:	8b 5d fc             	mov    -0x4(%ebp),%ebx
    5440:	c9                   	leave  
    5441:	c3                   	ret    
    5442:	8d b6 00 00 00 00    	lea    0x0(%esi),%esi
    5448:	50                   	push   %eax
    5449:	50                   	push   %eax
    544a:	8b 45 10             	mov    0x10(%ebp),%eax
    544d:	6a f2                	push   $0xfffffff2
    544f:	50                   	push   %eax
    5450:	e8 0b 7d 00 00       	call   d160 <async_answer_0@plt>
    5455:	83 c4 10             	add    $0x10,%esp
    5458:	8b 5d fc             	mov    -0x4(%ebp),%ebx
    545b:	c9                   	leave  
    545c:	c3                   	ret    
    545d:	8d 76 00             	lea    0x0(%esi),%esi
    5460:	8b 55 10             	mov    0x10(%ebp),%edx
    5463:	50                   	push   %eax
    5464:	50                   	push   %eax
    5465:	6a f5                	push   $0xfffffff5
    5467:	52                   	push   %edx
    5468:	e8 f3 7c 00 00       	call   d160 <async_answer_0@plt>
    546d:	83 c4 10             	add    $0x10,%esp
    5470:	e9 7a ff ff ff       	jmp    53ef <remote_nic_set_address+0x5f>
    5475:	8d 74 26 00          	lea    0x0(%esi,%eiz,1),%esi
    5479:	8d bc 27 00 00 00 00 	lea    0x0(%edi,%eiz,1),%edi

00005480 <remote_nic_poll_get_mode>:
    5480:	55                   	push   %ebp
    5481:	89 e5                	mov    %esp,%ebp
    5483:	57                   	push   %edi
    5484:	56                   	push   %esi
    5485:	53                   	push   %ebx
    5486:	83 ec 2c             	sub    $0x2c,%esp
    5489:	8b 45 0c             	mov    0xc(%ebp),%eax
    548c:	8b 80 98 00 00 00    	mov    0x98(%eax),%eax
    5492:	85 c0                	test   %eax,%eax
    5494:	0f 84 d6 00 00 00    	je     5570 <remote_nic_poll_get_mode+0xf0>
    549a:	8b 55 14             	mov    0x14(%ebp),%edx
    549d:	8b 4d 08             	mov    0x8(%ebp),%ecx
    54a0:	c7 45 d4 00 00 00 00 	movl   $0x0,-0x2c(%ebp)
    54a7:	c7 45 e0 00 00 00 00 	movl   $0x0,-0x20(%ebp)
    54ae:	8b 72 08             	mov    0x8(%edx),%esi
    54b1:	c7 45 e4 00 00 00 00 	movl   $0x0,-0x1c(%ebp)
    54b8:	8d 5d e0             	lea    -0x20(%ebp),%ebx
    54bb:	52                   	push   %edx
    54bc:	8d 55 d4             	lea    -0x2c(%ebp),%edx
    54bf:	53                   	push   %ebx
    54c0:	52                   	push   %edx
    54c1:	51                   	push   %ecx
    54c2:	ff d0                	call   *%eax
    54c4:	83 c4 10             	add    $0x10,%esp
    54c7:	89 c7                	mov    %eax,%edi
    54c9:	85 c0                	test   %eax,%eax
    54cb:	75 5b                	jne    5528 <remote_nic_poll_get_mode+0xa8>
    54cd:	85 f6                	test   %esi,%esi
    54cf:	74 57                	je     5528 <remote_nic_poll_get_mode+0xa8>
    54d1:	50                   	push   %eax
    54d2:	50                   	push   %eax
    54d3:	8d 45 d8             	lea    -0x28(%ebp),%eax
    54d6:	50                   	push   %eax
    54d7:	8d 45 dc             	lea    -0x24(%ebp),%eax
    54da:	50                   	push   %eax
    54db:	e8 90 7e 00 00       	call   d370 <async_data_read_receive@plt>
    54e0:	83 c4 10             	add    $0x10,%esp
    54e3:	84 c0                	test   %al,%al
    54e5:	74 61                	je     5548 <remote_nic_poll_get_mode+0xc8>
    54e7:	83 7d d8 08          	cmpl   $0x8,-0x28(%ebp)
    54eb:	74 2b                	je     5518 <remote_nic_poll_get_mode+0x98>
    54ed:	50                   	push   %eax
    54ee:	50                   	push   %eax
    54ef:	8b 45 dc             	mov    -0x24(%ebp),%eax
    54f2:	6a fd                	push   $0xfffffffd
    54f4:	50                   	push   %eax
    54f5:	e8 66 7c 00 00       	call   d160 <async_answer_0@plt>
    54fa:	8b 4d 10             	mov    0x10(%ebp),%ecx
    54fd:	58                   	pop    %eax
    54fe:	5a                   	pop    %edx
    54ff:	6a fd                	push   $0xfffffffd
    5501:	51                   	push   %ecx
    5502:	e8 59 7c 00 00       	call   d160 <async_answer_0@plt>
    5507:	83 c4 10             	add    $0x10,%esp
    550a:	8d 65 f4             	lea    -0xc(%ebp),%esp
    550d:	5b                   	pop    %ebx
    550e:	5e                   	pop    %esi
    550f:	5f                   	pop    %edi
    5510:	5d                   	pop    %ebp
    5511:	c3                   	ret    
    5512:	8d b6 00 00 00 00    	lea    0x0(%esi),%esi
    5518:	8b 45 dc             	mov    -0x24(%ebp),%eax
    551b:	56                   	push   %esi
    551c:	6a 08                	push   $0x8
    551e:	53                   	push   %ebx
    551f:	50                   	push   %eax
    5520:	e8 bb 7b 00 00       	call   d0e0 <async_data_read_finalize@plt>
    5525:	83 c4 10             	add    $0x10,%esp
    5528:	8b 55 d4             	mov    -0x2c(%ebp),%edx
    552b:	8b 4d 10             	mov    0x10(%ebp),%ecx
    552e:	50                   	push   %eax
    552f:	52                   	push   %edx
    5530:	57                   	push   %edi
    5531:	51                   	push   %ecx
    5532:	e8 c9 7e 00 00       	call   d400 <async_answer_1@plt>
    5537:	83 c4 10             	add    $0x10,%esp
    553a:	8d 65 f4             	lea    -0xc(%ebp),%esp
    553d:	5b                   	pop    %ebx
    553e:	5e                   	pop    %esi
    553f:	5f                   	pop    %edi
    5540:	5d                   	pop    %ebp
    5541:	c3                   	ret    
    5542:	8d b6 00 00 00 00    	lea    0x0(%esi),%esi
    5548:	8b 75 dc             	mov    -0x24(%ebp),%esi
    554b:	53                   	push   %ebx
    554c:	53                   	push   %ebx
    554d:	6a f2                	push   $0xfffffff2
    554f:	56                   	push   %esi
    5550:	e8 0b 7c 00 00       	call   d160 <async_answer_0@plt>
    5555:	5f                   	pop    %edi
    5556:	58                   	pop    %eax
    5557:	8b 45 10             	mov    0x10(%ebp),%eax
    555a:	6a f2                	push   $0xfffffff2
    555c:	50                   	push   %eax
    555d:	e8 fe 7b 00 00       	call   d160 <async_answer_0@plt>
    5562:	83 c4 10             	add    $0x10,%esp
    5565:	8d 65 f4             	lea    -0xc(%ebp),%esp
    5568:	5b                   	pop    %ebx
    5569:	5e                   	pop    %esi
    556a:	5f                   	pop    %edi
    556b:	5d                   	pop    %ebp
    556c:	c3                   	ret    
    556d:	8d 76 00             	lea    0x0(%esi),%esi
    5570:	8b 75 10             	mov    0x10(%ebp),%esi
    5573:	53                   	push   %ebx
    5574:	53                   	push   %ebx
    5575:	6a f5                	push   $0xfffffff5
    5577:	56                   	push   %esi
    5578:	e8 e3 7b 00 00       	call   d160 <async_answer_0@plt>
    557d:	83 c4 10             	add    $0x10,%esp
    5580:	8d 65 f4             	lea    -0xc(%ebp),%esp
    5583:	5b                   	pop    %ebx
    5584:	5e                   	pop    %esi
    5585:	5f                   	pop    %edi
    5586:	5d                   	pop    %ebp
    5587:	c3                   	ret    
    5588:	90                   	nop
    5589:	8d b4 26 00 00 00 00 	lea    0x0(%esi,%eiz,1),%esi

00005590 <remote_nic_wol_virtue_get_caps>:
    5590:	55                   	push   %ebp
    5591:	89 e5                	mov    %esp,%ebp
    5593:	83 ec 18             	sub    $0x18,%esp
    5596:	8b 45 0c             	mov    0xc(%ebp),%eax
    5599:	8b 80 88 00 00 00    	mov    0x88(%eax),%eax
    559f:	85 c0                	test   %eax,%eax
    55a1:	74 35                	je     55d8 <remote_nic_wol_virtue_get_caps+0x48>
    55a3:	52                   	push   %edx
    55a4:	8d 55 f4             	lea    -0xc(%ebp),%edx
    55a7:	52                   	push   %edx
    55a8:	8b 55 14             	mov    0x14(%ebp),%edx
    55ab:	c7 45 f4 ff ff ff ff 	movl   $0xffffffff,-0xc(%ebp)
    55b2:	8b 4a 08             	mov    0x8(%edx),%ecx
    55b5:	8b 55 08             	mov    0x8(%ebp),%edx
    55b8:	51                   	push   %ecx
    55b9:	52                   	push   %edx
    55ba:	ff d0                	call   *%eax
    55bc:	83 c4 0c             	add    $0xc,%esp
    55bf:	8b 4d f4             	mov    -0xc(%ebp),%ecx
    55c2:	51                   	push   %ecx
    55c3:	50                   	push   %eax
    55c4:	8b 45 10             	mov    0x10(%ebp),%eax
    55c7:	50                   	push   %eax
    55c8:	e8 33 7e 00 00       	call   d400 <async_answer_1@plt>
    55cd:	83 c4 10             	add    $0x10,%esp
    55d0:	c9                   	leave  
    55d1:	c3                   	ret    
    55d2:	8d b6 00 00 00 00    	lea    0x0(%esi),%esi
    55d8:	50                   	push   %eax
    55d9:	50                   	push   %eax
    55da:	8b 45 10             	mov    0x10(%ebp),%eax
    55dd:	6a f5                	push   $0xfffffff5
    55df:	50                   	push   %eax
    55e0:	e8 7b 7b 00 00       	call   d160 <async_answer_0@plt>
    55e5:	83 c4 10             	add    $0x10,%esp
    55e8:	c9                   	leave  
    55e9:	c3                   	ret    
    55ea:	8d b6 00 00 00 00    	lea    0x0(%esi),%esi

000055f0 <remote_nic_defective_get_mode>:
    55f0:	55                   	push   %ebp
    55f1:	89 e5                	mov    %esp,%ebp
    55f3:	83 ec 18             	sub    $0x18,%esp
    55f6:	8b 45 0c             	mov    0xc(%ebp),%eax
    55f9:	8b 40 5c             	mov    0x5c(%eax),%eax
    55fc:	85 c0                	test   %eax,%eax
    55fe:	74 30                	je     5630 <remote_nic_defective_get_mode+0x40>
    5600:	8b 4d 08             	mov    0x8(%ebp),%ecx
    5603:	c7 45 f4 00 00 00 00 	movl   $0x0,-0xc(%ebp)
    560a:	52                   	push   %edx
    560b:	52                   	push   %edx
    560c:	8d 55 f4             	lea    -0xc(%ebp),%edx
    560f:	52                   	push   %edx
    5610:	51                   	push   %ecx
    5611:	ff d0                	call   *%eax
    5613:	83 c4 0c             	add    $0xc,%esp
    5616:	8b 55 f4             	mov    -0xc(%ebp),%edx
    5619:	8b 4d 10             	mov    0x10(%ebp),%ecx
    561c:	52                   	push   %edx
    561d:	50                   	push   %eax
    561e:	51                   	push   %ecx
    561f:	e8 dc 7d 00 00       	call   d400 <async_answer_1@plt>
    5624:	83 c4 10             	add    $0x10,%esp
    5627:	c9                   	leave  
    5628:	c3                   	ret    
    5629:	8d b4 26 00 00 00 00 	lea    0x0(%esi,%eiz,1),%esi
    5630:	50                   	push   %eax
    5631:	50                   	push   %eax
    5632:	8b 45 10             	mov    0x10(%ebp),%eax
    5635:	6a f5                	push   $0xfffffff5
    5637:	50                   	push   %eax
    5638:	e8 23 7b 00 00       	call   d160 <async_answer_0@plt>
    563d:	83 c4 10             	add    $0x10,%esp
    5640:	c9                   	leave  
    5641:	c3                   	ret    
    5642:	8d b4 26 00 00 00 00 	lea    0x0(%esi,%eiz,1),%esi
    5649:	8d bc 27 00 00 00 00 	lea    0x0(%edi,%eiz,1),%edi

00005650 <remote_nic_broadcast_get_mode>:
    5650:	55                   	push   %ebp
    5651:	89 e5                	mov    %esp,%ebp
    5653:	83 ec 18             	sub    $0x18,%esp
    5656:	8b 45 0c             	mov    0xc(%ebp),%eax
    5659:	8b 40 54             	mov    0x54(%eax),%eax
    565c:	85 c0                	test   %eax,%eax
    565e:	74 30                	je     5690 <remote_nic_broadcast_get_mode+0x40>
    5660:	8b 4d 08             	mov    0x8(%ebp),%ecx
    5663:	c7 45 f4 02 00 00 00 	movl   $0x2,-0xc(%ebp)
    566a:	52                   	push   %edx
    566b:	52                   	push   %edx
    566c:	8d 55 f4             	lea    -0xc(%ebp),%edx
    566f:	52                   	push   %edx
    5670:	51                   	push   %ecx
    5671:	ff d0                	call   *%eax
    5673:	83 c4 0c             	add    $0xc,%esp
    5676:	8b 55 f4             	mov    -0xc(%ebp),%edx
    5679:	8b 4d 10             	mov    0x10(%ebp),%ecx
    567c:	52                   	push   %edx
    567d:	50                   	push   %eax
    567e:	51                   	push   %ecx
    567f:	e8 7c 7d 00 00       	call   d400 <async_answer_1@plt>
    5684:	83 c4 10             	add    $0x10,%esp
    5687:	c9                   	leave  
    5688:	c3                   	ret    
    5689:	8d b4 26 00 00 00 00 	lea    0x0(%esi,%eiz,1),%esi
    5690:	50                   	push   %eax
    5691:	50                   	push   %eax
    5692:	8b 45 10             	mov    0x10(%ebp),%eax
    5695:	6a f5                	push   $0xfffffff5
    5697:	50                   	push   %eax
    5698:	e8 c3 7a 00 00       	call   d160 <async_answer_0@plt>
    569d:	83 c4 10             	add    $0x10,%esp
    56a0:	c9                   	leave  
    56a1:	c3                   	ret    
    56a2:	8d b4 26 00 00 00 00 	lea    0x0(%esi,%eiz,1),%esi
    56a9:	8d bc 27 00 00 00 00 	lea    0x0(%edi,%eiz,1),%edi

000056b0 <remote_nic_get_cable_state>:
    56b0:	55                   	push   %ebp
    56b1:	89 e5                	mov    %esp,%ebp
    56b3:	83 ec 18             	sub    $0x18,%esp
    56b6:	8b 45 0c             	mov    0xc(%ebp),%eax
    56b9:	8b 40 20             	mov    0x20(%eax),%eax
    56bc:	85 c0                	test   %eax,%eax
    56be:	74 30                	je     56f0 <remote_nic_get_cable_state+0x40>
    56c0:	8b 4d 08             	mov    0x8(%ebp),%ecx
    56c3:	c7 45 f4 00 00 00 00 	movl   $0x0,-0xc(%ebp)
    56ca:	52                   	push   %edx
    56cb:	52                   	push   %edx
    56cc:	8d 55 f4             	lea    -0xc(%ebp),%edx
    56cf:	52                   	push   %edx
    56d0:	51                   	push   %ecx
    56d1:	ff d0                	call   *%eax
    56d3:	83 c4 0c             	add    $0xc,%esp
    56d6:	8b 55 f4             	mov    -0xc(%ebp),%edx
    56d9:	8b 4d 10             	mov    0x10(%ebp),%ecx
    56dc:	52                   	push   %edx
    56dd:	50                   	push   %eax
    56de:	51                   	push   %ecx
    56df:	e8 1c 7d 00 00       	call   d400 <async_answer_1@plt>
    56e4:	83 c4 10             	add    $0x10,%esp
    56e7:	c9                   	leave  
    56e8:	c3                   	ret    
    56e9:	8d b4 26 00 00 00 00 	lea    0x0(%esi,%eiz,1),%esi
    56f0:	50                   	push   %eax
    56f1:	50                   	push   %eax
    56f2:	8b 45 10             	mov    0x10(%ebp),%eax
    56f5:	6a f5                	push   $0xfffffff5
    56f7:	50                   	push   %eax
    56f8:	e8 63 7a 00 00       	call   d160 <async_answer_0@plt>
    56fd:	83 c4 10             	add    $0x10,%esp
    5700:	c9                   	leave  
    5701:	c3                   	ret    
    5702:	8d b4 26 00 00 00 00 	lea    0x0(%esi,%eiz,1),%esi
    5709:	8d bc 27 00 00 00 00 	lea    0x0(%edi,%eiz,1),%edi

00005710 <remote_nic_offload_probe>:
    5710:	55                   	push   %ebp
    5711:	89 e5                	mov    %esp,%ebp
    5713:	83 ec 18             	sub    $0x18,%esp
    5716:	8b 45 0c             	mov    0xc(%ebp),%eax
    5719:	8b 80 90 00 00 00    	mov    0x90(%eax),%eax
    571f:	85 c0                	test   %eax,%eax
    5721:	74 35                	je     5758 <remote_nic_offload_probe+0x48>
    5723:	52                   	push   %edx
    5724:	8d 55 f4             	lea    -0xc(%ebp),%edx
    5727:	52                   	push   %edx
    5728:	8b 4d 08             	mov    0x8(%ebp),%ecx
    572b:	8d 55 f0             	lea    -0x10(%ebp),%edx
    572e:	c7 45 f0 00 00 00 00 	movl   $0x0,-0x10(%ebp)
    5735:	c7 45 f4 00 00 00 00 	movl   $0x0,-0xc(%ebp)
    573c:	52                   	push   %edx
    573d:	51                   	push   %ecx
    573e:	ff d0                	call   *%eax
    5740:	8b 55 f4             	mov    -0xc(%ebp),%edx
    5743:	8b 4d f0             	mov    -0x10(%ebp),%ecx
    5746:	52                   	push   %edx
    5747:	51                   	push   %ecx
    5748:	50                   	push   %eax
    5749:	8b 45 10             	mov    0x10(%ebp),%eax
    574c:	50                   	push   %eax
    574d:	e8 1e 7b 00 00       	call   d270 <async_answer_2@plt>
    5752:	83 c4 20             	add    $0x20,%esp
    5755:	c9                   	leave  
    5756:	c3                   	ret    
    5757:	90                   	nop
    5758:	50                   	push   %eax
    5759:	50                   	push   %eax
    575a:	8b 45 10             	mov    0x10(%ebp),%eax
    575d:	6a f5                	push   $0xfffffff5
    575f:	50                   	push   %eax
    5760:	e8 fb 79 00 00       	call   d160 <async_answer_0@plt>
    5765:	83 c4 10             	add    $0x10,%esp
    5768:	c9                   	leave  
    5769:	c3                   	ret    
    576a:	8d b6 00 00 00 00    	lea    0x0(%esi),%esi

00005770 <remote_nic_vlan_get_mask>:
    5770:	55                   	push   %ebp
    5771:	89 e5                	mov    %esp,%ebp
    5773:	56                   	push   %esi
    5774:	53                   	push   %ebx
    5775:	81 ec 10 02 00 00    	sub    $0x210,%esp
    577b:	8b 5d 0c             	mov    0xc(%ebp),%ebx
    577e:	8b 43 6c             	mov    0x6c(%ebx),%eax
    5781:	85 c0                	test   %eax,%eax
    5783:	0f 84 a7 00 00 00    	je     5830 <remote_nic_vlan_get_mask+0xc0>
    5789:	8d b5 f8 fd ff ff    	lea    -0x208(%ebp),%esi
    578f:	50                   	push   %eax
    5790:	68 00 02 00 00       	push   $0x200
    5795:	6a 00                	push   $0x0
    5797:	56                   	push   %esi
    5798:	e8 c3 7b 00 00       	call   d360 <memset@plt>
    579d:	8b 4d 08             	mov    0x8(%ebp),%ecx
    57a0:	58                   	pop    %eax
    57a1:	5a                   	pop    %edx
    57a2:	56                   	push   %esi
    57a3:	51                   	push   %ecx
    57a4:	ff 53 6c             	call   *0x6c(%ebx)
    57a7:	83 c4 10             	add    $0x10,%esp
    57aa:	89 c3                	mov    %eax,%ebx
    57ac:	85 c0                	test   %eax,%eax
    57ae:	75 66                	jne    5816 <remote_nic_vlan_get_mask+0xa6>
    57b0:	50                   	push   %eax
    57b1:	50                   	push   %eax
    57b2:	8d 85 f4 fd ff ff    	lea    -0x20c(%ebp),%eax
    57b8:	50                   	push   %eax
    57b9:	8d 85 f0 fd ff ff    	lea    -0x210(%ebp),%eax
    57bf:	50                   	push   %eax
    57c0:	e8 ab 7b 00 00       	call   d370 <async_data_read_receive@plt>
    57c5:	83 c4 10             	add    $0x10,%esp
    57c8:	84 c0                	test   %al,%al
    57ca:	74 0c                	je     57d8 <remote_nic_vlan_get_mask+0x68>
    57cc:	81 bd f4 fd ff ff 00 	cmpl   $0x200,-0x20c(%ebp)
    57d3:	02 00 00 
    57d6:	74 28                	je     5800 <remote_nic_vlan_get_mask+0x90>
    57d8:	50                   	push   %eax
    57d9:	50                   	push   %eax
    57da:	8b 85 f0 fd ff ff    	mov    -0x210(%ebp),%eax
    57e0:	6a f2                	push   $0xfffffff2
    57e2:	50                   	push   %eax
    57e3:	e8 78 79 00 00       	call   d160 <async_answer_0@plt>
    57e8:	8b 4d 10             	mov    0x10(%ebp),%ecx
    57eb:	58                   	pop    %eax
    57ec:	5a                   	pop    %edx
    57ed:	6a f2                	push   $0xfffffff2
    57ef:	51                   	push   %ecx
    57f0:	e8 6b 79 00 00       	call   d160 <async_answer_0@plt>
    57f5:	83 c4 10             	add    $0x10,%esp
    57f8:	8d 65 f8             	lea    -0x8(%ebp),%esp
    57fb:	5b                   	pop    %ebx
    57fc:	5e                   	pop    %esi
    57fd:	5d                   	pop    %ebp
    57fe:	c3                   	ret    
    57ff:	90                   	nop
    5800:	51                   	push   %ecx
    5801:	68 00 02 00 00       	push   $0x200
    5806:	56                   	push   %esi
    5807:	8b b5 f0 fd ff ff    	mov    -0x210(%ebp),%esi
    580d:	56                   	push   %esi
    580e:	e8 cd 78 00 00       	call   d0e0 <async_data_read_finalize@plt>
    5813:	83 c4 10             	add    $0x10,%esp
    5816:	8b 55 10             	mov    0x10(%ebp),%edx
    5819:	50                   	push   %eax
    581a:	50                   	push   %eax
    581b:	53                   	push   %ebx
    581c:	52                   	push   %edx
    581d:	e8 3e 79 00 00       	call   d160 <async_answer_0@plt>
    5822:	83 c4 10             	add    $0x10,%esp
    5825:	8d 65 f8             	lea    -0x8(%ebp),%esp
    5828:	5b                   	pop    %ebx
    5829:	5e                   	pop    %esi
    582a:	5d                   	pop    %ebp
    582b:	c3                   	ret    
    582c:	8d 74 26 00          	lea    0x0(%esi,%eiz,1),%esi
    5830:	8b 75 10             	mov    0x10(%ebp),%esi
    5833:	53                   	push   %ebx
    5834:	53                   	push   %ebx
    5835:	6a f5                	push   $0xfffffff5
    5837:	56                   	push   %esi
    5838:	e8 23 79 00 00       	call   d160 <async_answer_0@plt>
    583d:	83 c4 10             	add    $0x10,%esp
    5840:	8d 65 f8             	lea    -0x8(%ebp),%esp
    5843:	5b                   	pop    %ebx
    5844:	5e                   	pop    %esi
    5845:	5d                   	pop    %ebp
    5846:	c3                   	ret    
    5847:	89 f6                	mov    %esi,%esi
    5849:	8d bc 27 00 00 00 00 	lea    0x0(%edi,%eiz,1),%edi

00005850 <remote_nic_get_device_info>:
    5850:	55                   	push   %ebp
    5851:	89 e5                	mov    %esp,%ebp
    5853:	56                   	push   %esi
    5854:	53                   	push   %ebx
    5855:	81 ec 30 01 00 00    	sub    $0x130,%esp
    585b:	8b 5d 0c             	mov    0xc(%ebp),%ebx
    585e:	8b 43 1c             	mov    0x1c(%ebx),%eax
    5861:	85 c0                	test   %eax,%eax
    5863:	0f 84 cf 00 00 00    	je     5938 <remote_nic_get_device_info+0xe8>
    5869:	8d b5 dc fe ff ff    	lea    -0x124(%ebp),%esi
    586f:	50                   	push   %eax
    5870:	68 1c 01 00 00       	push   $0x11c
    5875:	6a 00                	push   $0x0
    5877:	56                   	push   %esi
    5878:	e8 e3 7a 00 00       	call   d360 <memset@plt>
    587d:	8b 4d 08             	mov    0x8(%ebp),%ecx
    5880:	58                   	pop    %eax
    5881:	5a                   	pop    %edx
    5882:	56                   	push   %esi
    5883:	51                   	push   %ecx
    5884:	ff 53 1c             	call   *0x1c(%ebx)
    5887:	83 c4 10             	add    $0x10,%esp
    588a:	89 c3                	mov    %eax,%ebx
    588c:	85 c0                	test   %eax,%eax
    588e:	75 66                	jne    58f6 <remote_nic_get_device_info+0xa6>
    5890:	50                   	push   %eax
    5891:	50                   	push   %eax
    5892:	8d 85 d8 fe ff ff    	lea    -0x128(%ebp),%eax
    5898:	50                   	push   %eax
    5899:	8d 85 d4 fe ff ff    	lea    -0x12c(%ebp),%eax
    589f:	50                   	push   %eax
    58a0:	e8 cb 7a 00 00       	call   d370 <async_data_read_receive@plt>
    58a5:	83 c4 10             	add    $0x10,%esp
    58a8:	84 c0                	test   %al,%al
    58aa:	74 64                	je     5910 <remote_nic_get_device_info+0xc0>
    58ac:	81 bd d8 fe ff ff 1b 	cmpl   $0x11b,-0x128(%ebp)
    58b3:	01 00 00 
    58b6:	77 28                	ja     58e0 <remote_nic_get_device_info+0x90>
    58b8:	50                   	push   %eax
    58b9:	50                   	push   %eax
    58ba:	8b 85 d4 fe ff ff    	mov    -0x12c(%ebp),%eax
    58c0:	6a fd                	push   $0xfffffffd
    58c2:	50                   	push   %eax
    58c3:	e8 98 78 00 00       	call   d160 <async_answer_0@plt>
    58c8:	8b 4d 10             	mov    0x10(%ebp),%ecx
    58cb:	58                   	pop    %eax
    58cc:	5a                   	pop    %edx
    58cd:	6a fd                	push   $0xfffffffd
    58cf:	51                   	push   %ecx
    58d0:	e8 8b 78 00 00       	call   d160 <async_answer_0@plt>
    58d5:	83 c4 10             	add    $0x10,%esp
    58d8:	8d 65 f8             	lea    -0x8(%ebp),%esp
    58db:	5b                   	pop    %ebx
    58dc:	5e                   	pop    %esi
    58dd:	5d                   	pop    %ebp
    58de:	c3                   	ret    
    58df:	90                   	nop
    58e0:	51                   	push   %ecx
    58e1:	68 1c 01 00 00       	push   $0x11c
    58e6:	56                   	push   %esi
    58e7:	8b b5 d4 fe ff ff    	mov    -0x12c(%ebp),%esi
    58ed:	56                   	push   %esi
    58ee:	e8 ed 77 00 00       	call   d0e0 <async_data_read_finalize@plt>
    58f3:	83 c4 10             	add    $0x10,%esp
    58f6:	8b 55 10             	mov    0x10(%ebp),%edx
    58f9:	50                   	push   %eax
    58fa:	50                   	push   %eax
    58fb:	53                   	push   %ebx
    58fc:	52                   	push   %edx
    58fd:	e8 5e 78 00 00       	call   d160 <async_answer_0@plt>
    5902:	83 c4 10             	add    $0x10,%esp
    5905:	8d 65 f8             	lea    -0x8(%ebp),%esp
    5908:	5b                   	pop    %ebx
    5909:	5e                   	pop    %esi
    590a:	5d                   	pop    %ebp
    590b:	c3                   	ret    
    590c:	8d 74 26 00          	lea    0x0(%esi,%eiz,1),%esi
    5910:	8b b5 d4 fe ff ff    	mov    -0x12c(%ebp),%esi
    5916:	53                   	push   %ebx
    5917:	53                   	push   %ebx
    5918:	6a f2                	push   $0xfffffff2
    591a:	56                   	push   %esi
    591b:	e8 40 78 00 00       	call   d160 <async_answer_0@plt>
    5920:	8b 4d 10             	mov    0x10(%ebp),%ecx
    5923:	58                   	pop    %eax
    5924:	5a                   	pop    %edx
    5925:	6a f2                	push   $0xfffffff2
    5927:	51                   	push   %ecx
    5928:	e8 33 78 00 00       	call   d160 <async_answer_0@plt>
    592d:	83 c4 10             	add    $0x10,%esp
    5930:	8d 65 f8             	lea    -0x8(%ebp),%esp
    5933:	5b                   	pop    %ebx
    5934:	5e                   	pop    %esi
    5935:	5d                   	pop    %ebp
    5936:	c3                   	ret    
    5937:	90                   	nop
    5938:	8b 75 10             	mov    0x10(%ebp),%esi
    593b:	53                   	push   %ebx
    593c:	53                   	push   %ebx
    593d:	6a f5                	push   $0xfffffff5
    593f:	56                   	push   %esi
    5940:	e8 1b 78 00 00       	call   d160 <async_answer_0@plt>
    5945:	83 c4 10             	add    $0x10,%esp
    5948:	8d 65 f8             	lea    -0x8(%ebp),%esp
    594b:	5b                   	pop    %ebx
    594c:	5e                   	pop    %esi
    594d:	5d                   	pop    %ebp
    594e:	c3                   	ret    
    594f:	90                   	nop

00005950 <remote_nic_get_stats>:
    5950:	55                   	push   %ebp
    5951:	89 e5                	mov    %esp,%ebp
    5953:	56                   	push   %esi
    5954:	53                   	push   %ebx
    5955:	83 c4 80             	add    $0xffffff80,%esp
    5958:	8b 5d 0c             	mov    0xc(%ebp),%ebx
    595b:	8b 43 18             	mov    0x18(%ebx),%eax
    595e:	85 c0                	test   %eax,%eax
    5960:	0f 84 b2 00 00 00    	je     5a18 <remote_nic_get_stats+0xc8>
    5966:	8d 75 8c             	lea    -0x74(%ebp),%esi
    5969:	50                   	push   %eax
    596a:	6a 6c                	push   $0x6c
    596c:	6a 00                	push   $0x0
    596e:	56                   	push   %esi
    596f:	e8 ec 79 00 00       	call   d360 <memset@plt>
    5974:	8b 4d 08             	mov    0x8(%ebp),%ecx
    5977:	58                   	pop    %eax
    5978:	5a                   	pop    %edx
    5979:	56                   	push   %esi
    597a:	51                   	push   %ecx
    597b:	ff 53 18             	call   *0x18(%ebx)
    597e:	83 c4 10             	add    $0x10,%esp
    5981:	89 c3                	mov    %eax,%ebx
    5983:	85 c0                	test   %eax,%eax
    5985:	75 51                	jne    59d8 <remote_nic_get_stats+0x88>
    5987:	50                   	push   %eax
    5988:	50                   	push   %eax
    5989:	8d 45 88             	lea    -0x78(%ebp),%eax
    598c:	50                   	push   %eax
    598d:	8d 45 84             	lea    -0x7c(%ebp),%eax
    5990:	50                   	push   %eax
    5991:	e8 da 79 00 00       	call   d370 <async_data_read_receive@plt>
    5996:	83 c4 10             	add    $0x10,%esp
    5999:	84 c0                	test   %al,%al
    599b:	74 53                	je     59f0 <remote_nic_get_stats+0xa0>
    599d:	83 7d 88 6b          	cmpl   $0x6b,-0x78(%ebp)
    59a1:	77 25                	ja     59c8 <remote_nic_get_stats+0x78>
    59a3:	50                   	push   %eax
    59a4:	50                   	push   %eax
    59a5:	8b 45 84             	mov    -0x7c(%ebp),%eax
    59a8:	6a fd                	push   $0xfffffffd
    59aa:	50                   	push   %eax
    59ab:	e8 b0 77 00 00       	call   d160 <async_answer_0@plt>
    59b0:	8b 4d 10             	mov    0x10(%ebp),%ecx
    59b3:	58                   	pop    %eax
    59b4:	5a                   	pop    %edx
    59b5:	6a fd                	push   $0xfffffffd
    59b7:	51                   	push   %ecx
    59b8:	e8 a3 77 00 00       	call   d160 <async_answer_0@plt>
    59bd:	83 c4 10             	add    $0x10,%esp
    59c0:	8d 65 f8             	lea    -0x8(%ebp),%esp
    59c3:	5b                   	pop    %ebx
    59c4:	5e                   	pop    %esi
    59c5:	5d                   	pop    %ebp
    59c6:	c3                   	ret    
    59c7:	90                   	nop
    59c8:	51                   	push   %ecx
    59c9:	6a 6c                	push   $0x6c
    59cb:	56                   	push   %esi
    59cc:	8b 75 84             	mov    -0x7c(%ebp),%esi
    59cf:	56                   	push   %esi
    59d0:	e8 0b 77 00 00       	call   d0e0 <async_data_read_finalize@plt>
    59d5:	83 c4 10             	add    $0x10,%esp
    59d8:	8b 55 10             	mov    0x10(%ebp),%edx
    59db:	50                   	push   %eax
    59dc:	50                   	push   %eax
    59dd:	53                   	push   %ebx
    59de:	52                   	push   %edx
    59df:	e8 7c 77 00 00       	call   d160 <async_answer_0@plt>
    59e4:	83 c4 10             	add    $0x10,%esp
    59e7:	8d 65 f8             	lea    -0x8(%ebp),%esp
    59ea:	5b                   	pop    %ebx
    59eb:	5e                   	pop    %esi
    59ec:	5d                   	pop    %ebp
    59ed:	c3                   	ret    
    59ee:	66 90                	xchg   %ax,%ax
    59f0:	8b 75 84             	mov    -0x7c(%ebp),%esi
    59f3:	53                   	push   %ebx
    59f4:	53                   	push   %ebx
    59f5:	6a f2                	push   $0xfffffff2
    59f7:	56                   	push   %esi
    59f8:	e8 63 77 00 00       	call   d160 <async_answer_0@plt>
    59fd:	8b 4d 10             	mov    0x10(%ebp),%ecx
    5a00:	58                   	pop    %eax
    5a01:	5a                   	pop    %edx
    5a02:	6a f2                	push   $0xfffffff2
    5a04:	51                   	push   %ecx
    5a05:	e8 56 77 00 00       	call   d160 <async_answer_0@plt>
    5a0a:	83 c4 10             	add    $0x10,%esp
    5a0d:	8d 65 f8             	lea    -0x8(%ebp),%esp
    5a10:	5b                   	pop    %ebx
    5a11:	5e                   	pop    %esi
    5a12:	5d                   	pop    %ebp
    5a13:	c3                   	ret    
    5a14:	8d 74 26 00          	lea    0x0(%esi,%eiz,1),%esi
    5a18:	8b 75 10             	mov    0x10(%ebp),%esi
    5a1b:	53                   	push   %ebx
    5a1c:	53                   	push   %ebx
    5a1d:	6a f5                	push   $0xfffffff5
    5a1f:	56                   	push   %esi
    5a20:	e8 3b 77 00 00       	call   d160 <async_answer_0@plt>
    5a25:	83 c4 10             	add    $0x10,%esp
    5a28:	8d 65 f8             	lea    -0x8(%ebp),%esp
    5a2b:	5b                   	pop    %ebx
    5a2c:	5e                   	pop    %esi
    5a2d:	5d                   	pop    %ebp
    5a2e:	c3                   	ret    
    5a2f:	90                   	nop

00005a30 <remote_nic_get_address>:
    5a30:	55                   	push   %ebp
    5a31:	89 e5                	mov    %esp,%ebp
    5a33:	56                   	push   %esi
    5a34:	53                   	push   %ebx
    5a35:	83 ec 10             	sub    $0x10,%esp
    5a38:	8b 75 0c             	mov    0xc(%ebp),%esi
    5a3b:	8b 46 10             	mov    0x10(%esi),%eax
    5a3e:	85 c0                	test   %eax,%eax
    5a40:	0f 84 ae 00 00 00    	je     5af4 <remote_nic_get_address+0xc4>
    5a46:	8d 5d f2             	lea    -0xe(%ebp),%ebx
    5a49:	50                   	push   %eax
    5a4a:	6a 06                	push   $0x6
    5a4c:	6a 00                	push   $0x0
    5a4e:	53                   	push   %ebx
    5a4f:	e8 0c 79 00 00       	call   d360 <memset@plt>
    5a54:	8b 4d 08             	mov    0x8(%ebp),%ecx
    5a57:	58                   	pop    %eax
    5a58:	5a                   	pop    %edx
    5a59:	53                   	push   %ebx
    5a5a:	51                   	push   %ecx
    5a5b:	ff 56 10             	call   *0x10(%esi)
    5a5e:	83 c4 10             	add    $0x10,%esp
    5a61:	89 c6                	mov    %eax,%esi
    5a63:	85 c0                	test   %eax,%eax
    5a65:	75 51                	jne    5ab8 <remote_nic_get_address+0x88>
    5a67:	50                   	push   %eax
    5a68:	50                   	push   %eax
    5a69:	8d 45 e8             	lea    -0x18(%ebp),%eax
    5a6c:	50                   	push   %eax
    5a6d:	8d 45 ec             	lea    -0x14(%ebp),%eax
    5a70:	50                   	push   %eax
    5a71:	e8 fa 78 00 00       	call   d370 <async_data_read_receive@plt>
    5a76:	83 c4 10             	add    $0x10,%esp
    5a79:	84 c0                	test   %al,%al
    5a7b:	74 53                	je     5ad0 <remote_nic_get_address+0xa0>
    5a7d:	83 7d e8 06          	cmpl   $0x6,-0x18(%ebp)
    5a81:	74 25                	je     5aa8 <remote_nic_get_address+0x78>
    5a83:	8b 45 ec             	mov    -0x14(%ebp),%eax
    5a86:	56                   	push   %esi
    5a87:	56                   	push   %esi
    5a88:	6a fd                	push   $0xfffffffd
    5a8a:	50                   	push   %eax
    5a8b:	e8 d0 76 00 00       	call   d160 <async_answer_0@plt>
    5a90:	8b 4d 10             	mov    0x10(%ebp),%ecx
    5a93:	58                   	pop    %eax
    5a94:	5a                   	pop    %edx
    5a95:	6a fd                	push   $0xfffffffd
    5a97:	51                   	push   %ecx
    5a98:	e8 c3 76 00 00       	call   d160 <async_answer_0@plt>
    5a9d:	83 c4 10             	add    $0x10,%esp
    5aa0:	8d 65 f8             	lea    -0x8(%ebp),%esp
    5aa3:	5b                   	pop    %ebx
    5aa4:	5e                   	pop    %esi
    5aa5:	5d                   	pop    %ebp
    5aa6:	c3                   	ret    
    5aa7:	90                   	nop
    5aa8:	51                   	push   %ecx
    5aa9:	6a 06                	push   $0x6
    5aab:	53                   	push   %ebx
    5aac:	8b 5d ec             	mov    -0x14(%ebp),%ebx
    5aaf:	53                   	push   %ebx
    5ab0:	e8 2b 76 00 00       	call   d0e0 <async_data_read_finalize@plt>
    5ab5:	83 c4 10             	add    $0x10,%esp
    5ab8:	8b 55 10             	mov    0x10(%ebp),%edx
    5abb:	50                   	push   %eax
    5abc:	50                   	push   %eax
    5abd:	56                   	push   %esi
    5abe:	52                   	push   %edx
    5abf:	e8 9c 76 00 00       	call   d160 <async_answer_0@plt>
    5ac4:	83 c4 10             	add    $0x10,%esp
    5ac7:	8d 65 f8             	lea    -0x8(%ebp),%esp
    5aca:	5b                   	pop    %ebx
    5acb:	5e                   	pop    %esi
    5acc:	5d                   	pop    %ebp
    5acd:	c3                   	ret    
    5ace:	66 90                	xchg   %ax,%ax
    5ad0:	8b 75 ec             	mov    -0x14(%ebp),%esi
    5ad3:	53                   	push   %ebx
    5ad4:	53                   	push   %ebx
    5ad5:	6a f2                	push   $0xfffffff2
    5ad7:	56                   	push   %esi
    5ad8:	e8 83 76 00 00       	call   d160 <async_answer_0@plt>
    5add:	8b 4d 10             	mov    0x10(%ebp),%ecx
    5ae0:	58                   	pop    %eax
    5ae1:	5a                   	pop    %edx
    5ae2:	6a f2                	push   $0xfffffff2
    5ae4:	51                   	push   %ecx
    5ae5:	e8 76 76 00 00       	call   d160 <async_answer_0@plt>
    5aea:	83 c4 10             	add    $0x10,%esp
    5aed:	8d 65 f8             	lea    -0x8(%ebp),%esp
    5af0:	5b                   	pop    %ebx
    5af1:	5e                   	pop    %esi
    5af2:	5d                   	pop    %ebp
    5af3:	c3                   	ret    
    5af4:	53                   	push   %ebx
    5af5:	68 75 05 00 00       	push   $0x575
    5afa:	68 44 c9 00 00       	push   $0xc944
    5aff:	68 59 c9 00 00       	push   $0xc959
    5b04:	e8 d7 76 00 00       	call   d1e0 <assert_abort@plt>
    5b09:	8d b4 26 00 00 00 00 	lea    0x0(%esi,%eiz,1),%esi

00005b10 <remote_nic_wol_load_info>:
    5b10:	55                   	push   %ebp
    5b11:	89 e5                	mov    %esp,%ebp
    5b13:	57                   	push   %edi
    5b14:	56                   	push   %esi
    5b15:	53                   	push   %ebx
    5b16:	83 ec 1c             	sub    $0x1c,%esp
    5b19:	8b 7d 0c             	mov    0xc(%ebp),%edi
    5b1c:	8b 8f 8c 00 00 00    	mov    0x8c(%edi),%ecx
    5b22:	85 c9                	test   %ecx,%ecx
    5b24:	0f 84 06 01 00 00    	je     5c30 <remote_nic_wol_load_info+0x120>
    5b2a:	8b 45 14             	mov    0x14(%ebp),%eax
    5b2d:	c7 45 d8 00 00 00 00 	movl   $0x0,-0x28(%ebp)
    5b34:	c7 45 dc 00 00 00 00 	movl   $0x0,-0x24(%ebp)
    5b3b:	8b 70 08             	mov    0x8(%eax),%esi
    5b3e:	85 f6                	test   %esi,%esi
    5b40:	75 76                	jne    5bb8 <remote_nic_wol_load_info+0xa8>
    5b42:	31 db                	xor    %ebx,%ebx
    5b44:	50                   	push   %eax
    5b45:	56                   	push   %esi
    5b46:	6a 00                	push   $0x0
    5b48:	53                   	push   %ebx
    5b49:	e8 12 78 00 00       	call   d360 <memset@plt>
    5b4e:	8d 45 d8             	lea    -0x28(%ebp),%eax
    5b51:	89 04 24             	mov    %eax,(%esp)
    5b54:	8d 45 dc             	lea    -0x24(%ebp),%eax
    5b57:	53                   	push   %ebx
    5b58:	56                   	push   %esi
    5b59:	50                   	push   %eax
    5b5a:	8b 45 08             	mov    0x8(%ebp),%eax
    5b5d:	50                   	push   %eax
    5b5e:	ff 97 8c 00 00 00    	call   *0x8c(%edi)
    5b64:	83 c4 20             	add    $0x20,%esp
    5b67:	89 c7                	mov    %eax,%edi
    5b69:	85 c0                	test   %eax,%eax
    5b6b:	0f 85 93 00 00 00    	jne    5c04 <remote_nic_wol_load_info+0xf4>
    5b71:	50                   	push   %eax
    5b72:	50                   	push   %eax
    5b73:	8d 45 e4             	lea    -0x1c(%ebp),%eax
    5b76:	50                   	push   %eax
    5b77:	8d 45 e0             	lea    -0x20(%ebp),%eax
    5b7a:	50                   	push   %eax
    5b7b:	e8 f0 77 00 00       	call   d370 <async_data_read_receive@plt>
    5b80:	83 c4 10             	add    $0x10,%esp
    5b83:	84 c0                	test   %al,%al
    5b85:	75 59                	jne    5be0 <remote_nic_wol_load_info+0xd0>
    5b87:	50                   	push   %eax
    5b88:	50                   	push   %eax
    5b89:	8b 45 e0             	mov    -0x20(%ebp),%eax
    5b8c:	6a f2                	push   $0xfffffff2
    5b8e:	50                   	push   %eax
    5b8f:	e8 cc 75 00 00       	call   d160 <async_answer_0@plt>
    5b94:	8b 4d 10             	mov    0x10(%ebp),%ecx
    5b97:	58                   	pop    %eax
    5b98:	5a                   	pop    %edx
    5b99:	6a f2                	push   $0xfffffff2
    5b9b:	51                   	push   %ecx
    5b9c:	e8 bf 75 00 00       	call   d160 <async_answer_0@plt>
    5ba1:	89 1c 24             	mov    %ebx,(%esp)
    5ba4:	e8 67 79 00 00       	call   d510 <free@plt>
    5ba9:	83 c4 10             	add    $0x10,%esp
    5bac:	8d 65 f4             	lea    -0xc(%ebp),%esp
    5baf:	5b                   	pop    %ebx
    5bb0:	5e                   	pop    %esi
    5bb1:	5f                   	pop    %edi
    5bb2:	5d                   	pop    %ebp
    5bb3:	c3                   	ret    
    5bb4:	8d 74 26 00          	lea    0x0(%esi,%eiz,1),%esi
    5bb8:	83 ec 0c             	sub    $0xc,%esp
    5bbb:	56                   	push   %esi
    5bbc:	e8 5f 75 00 00       	call   d120 <malloc@plt>
    5bc1:	83 c4 10             	add    $0x10,%esp
    5bc4:	89 c3                	mov    %eax,%ebx
    5bc6:	85 c0                	test   %eax,%eax
    5bc8:	0f 85 76 ff ff ff    	jne    5b44 <remote_nic_wol_load_info+0x34>
    5bce:	50                   	push   %eax
    5bcf:	50                   	push   %eax
    5bd0:	8b 45 10             	mov    0x10(%ebp),%eax
    5bd3:	6a fe                	push   $0xfffffffe
    5bd5:	50                   	push   %eax
    5bd6:	e8 85 75 00 00       	call   d160 <async_answer_0@plt>
    5bdb:	83 c4 10             	add    $0x10,%esp
    5bde:	eb cc                	jmp    5bac <remote_nic_wol_load_info+0x9c>
    5be0:	8b 55 d8             	mov    -0x28(%ebp),%edx
    5be3:	8b 45 e4             	mov    -0x1c(%ebp),%eax
    5be6:	39 d0                	cmp    %edx,%eax
    5be8:	76 02                	jbe    5bec <remote_nic_wol_load_info+0xdc>
    5bea:	89 d0                	mov    %edx,%eax
    5bec:	39 f0                	cmp    %esi,%eax
    5bee:	76 02                	jbe    5bf2 <remote_nic_wol_load_info+0xe2>
    5bf0:	89 f0                	mov    %esi,%eax
    5bf2:	89 45 e4             	mov    %eax,-0x1c(%ebp)
    5bf5:	56                   	push   %esi
    5bf6:	50                   	push   %eax
    5bf7:	8b 45 e0             	mov    -0x20(%ebp),%eax
    5bfa:	53                   	push   %ebx
    5bfb:	50                   	push   %eax
    5bfc:	e8 df 74 00 00       	call   d0e0 <async_data_read_finalize@plt>
    5c01:	83 c4 10             	add    $0x10,%esp
    5c04:	8b 55 dc             	mov    -0x24(%ebp),%edx
    5c07:	8b 4d 10             	mov    0x10(%ebp),%ecx
    5c0a:	8b 45 d8             	mov    -0x28(%ebp),%eax
    5c0d:	50                   	push   %eax
    5c0e:	52                   	push   %edx
    5c0f:	57                   	push   %edi
    5c10:	51                   	push   %ecx
    5c11:	e8 5a 76 00 00       	call   d270 <async_answer_2@plt>
    5c16:	89 1c 24             	mov    %ebx,(%esp)
    5c19:	e8 f2 78 00 00       	call   d510 <free@plt>
    5c1e:	83 c4 10             	add    $0x10,%esp
    5c21:	8d 65 f4             	lea    -0xc(%ebp),%esp
    5c24:	5b                   	pop    %ebx
    5c25:	5e                   	pop    %esi
    5c26:	5f                   	pop    %edi
    5c27:	5d                   	pop    %ebp
    5c28:	c3                   	ret    
    5c29:	8d b4 26 00 00 00 00 	lea    0x0(%esi,%eiz,1),%esi
    5c30:	8b 55 10             	mov    0x10(%ebp),%edx
    5c33:	50                   	push   %eax
    5c34:	50                   	push   %eax
    5c35:	6a f5                	push   $0xfffffff5
    5c37:	52                   	push   %edx
    5c38:	e8 23 75 00 00       	call   d160 <async_answer_0@plt>
    5c3d:	83 c4 10             	add    $0x10,%esp
    5c40:	e9 67 ff ff ff       	jmp    5bac <remote_nic_wol_load_info+0x9c>
    5c45:	8d 74 26 00          	lea    0x0(%esi,%eiz,1),%esi
    5c49:	8d bc 27 00 00 00 00 	lea    0x0(%edi,%eiz,1),%edi

00005c50 <remote_nic_wol_virtue_list>:
    5c50:	55                   	push   %ebp
    5c51:	89 e5                	mov    %esp,%ebp
    5c53:	57                   	push   %edi
    5c54:	56                   	push   %esi
    5c55:	53                   	push   %ebx
    5c56:	83 ec 2c             	sub    $0x2c,%esp
    5c59:	8b 4d 0c             	mov    0xc(%ebp),%ecx
    5c5c:	8b 45 14             	mov    0x14(%ebp),%eax
    5c5f:	8b 91 84 00 00 00    	mov    0x84(%ecx),%edx
    5c65:	85 d2                	test   %edx,%edx
    5c67:	0f 84 2b 01 00 00    	je     5d98 <remote_nic_wol_virtue_list+0x148>
    5c6d:	8b 78 0c             	mov    0xc(%eax),%edi
    5c70:	8b 70 08             	mov    0x8(%eax),%esi
    5c73:	c7 45 dc 00 00 00 00 	movl   $0x0,-0x24(%ebp)
    5c7a:	85 ff                	test   %edi,%edi
    5c7c:	0f 84 9e 00 00 00    	je     5d20 <remote_nic_wol_virtue_list+0xd0>
    5c82:	83 ec 0c             	sub    $0xc,%esp
    5c85:	8d 04 bd 00 00 00 00 	lea    0x0(,%edi,4),%eax
    5c8c:	89 45 d4             	mov    %eax,-0x2c(%ebp)
    5c8f:	50                   	push   %eax
    5c90:	e8 8b 74 00 00       	call   d120 <malloc@plt>
    5c95:	83 c4 10             	add    $0x10,%esp
    5c98:	89 c3                	mov    %eax,%ebx
    5c9a:	85 c0                	test   %eax,%eax
    5c9c:	0f 84 0e 01 00 00    	je     5db0 <remote_nic_wol_virtue_list+0x160>
    5ca2:	8b 45 d4             	mov    -0x2c(%ebp),%eax
    5ca5:	51                   	push   %ecx
    5ca6:	50                   	push   %eax
    5ca7:	6a 00                	push   $0x0
    5ca9:	53                   	push   %ebx
    5caa:	e8 b1 76 00 00       	call   d360 <memset@plt>
    5caf:	8d 45 dc             	lea    -0x24(%ebp),%eax
    5cb2:	89 04 24             	mov    %eax,(%esp)
    5cb5:	8b 45 08             	mov    0x8(%ebp),%eax
    5cb8:	53                   	push   %ebx
    5cb9:	57                   	push   %edi
    5cba:	56                   	push   %esi
    5cbb:	50                   	push   %eax
    5cbc:	8b 45 0c             	mov    0xc(%ebp),%eax
    5cbf:	ff 90 84 00 00 00    	call   *0x84(%eax)
    5cc5:	8b 55 dc             	mov    -0x24(%ebp),%edx
    5cc8:	83 c4 20             	add    $0x20,%esp
    5ccb:	85 d2                	test   %edx,%edx
    5ccd:	74 7d                	je     5d4c <remote_nic_wol_virtue_list+0xfc>
    5ccf:	8d 45 e4             	lea    -0x1c(%ebp),%eax
    5cd2:	56                   	push   %esi
    5cd3:	56                   	push   %esi
    5cd4:	50                   	push   %eax
    5cd5:	8d 45 e0             	lea    -0x20(%ebp),%eax
    5cd8:	50                   	push   %eax
    5cd9:	e8 92 76 00 00       	call   d370 <async_data_read_receive@plt>
    5cde:	83 c4 10             	add    $0x10,%esp
    5ce1:	84 c0                	test   %al,%al
    5ce3:	0f 84 87 00 00 00    	je     5d70 <remote_nic_wol_virtue_list+0x120>
    5ce9:	8b 45 dc             	mov    -0x24(%ebp),%eax
    5cec:	8d 14 85 00 00 00 00 	lea    0x0(,%eax,4),%edx
    5cf3:	8b 45 e4             	mov    -0x1c(%ebp),%eax
    5cf6:	39 c2                	cmp    %eax,%edx
    5cf8:	73 05                	jae    5cff <remote_nic_wol_virtue_list+0xaf>
    5cfa:	89 55 e4             	mov    %edx,-0x1c(%ebp)
    5cfd:	89 d0                	mov    %edx,%eax
    5cff:	8b 4d d4             	mov    -0x2c(%ebp),%ecx
    5d02:	39 c1                	cmp    %eax,%ecx
    5d04:	73 05                	jae    5d0b <remote_nic_wol_virtue_list+0xbb>
    5d06:	89 4d e4             	mov    %ecx,-0x1c(%ebp)
    5d09:	89 c8                	mov    %ecx,%eax
    5d0b:	57                   	push   %edi
    5d0c:	50                   	push   %eax
    5d0d:	8b 45 e0             	mov    -0x20(%ebp),%eax
    5d10:	53                   	push   %ebx
    5d11:	50                   	push   %eax
    5d12:	e8 c9 73 00 00       	call   d0e0 <async_data_read_finalize@plt>
    5d17:	8b 55 dc             	mov    -0x24(%ebp),%edx
    5d1a:	83 c4 10             	add    $0x10,%esp
    5d1d:	eb 2d                	jmp    5d4c <remote_nic_wol_virtue_list+0xfc>
    5d1f:	90                   	nop
    5d20:	50                   	push   %eax
    5d21:	6a 00                	push   $0x0
    5d23:	6a 00                	push   $0x0
    5d25:	6a 00                	push   $0x0
    5d27:	e8 34 76 00 00       	call   d360 <memset@plt>
    5d2c:	8d 45 dc             	lea    -0x24(%ebp),%eax
    5d2f:	89 04 24             	mov    %eax,(%esp)
    5d32:	8b 55 08             	mov    0x8(%ebp),%edx
    5d35:	8b 45 0c             	mov    0xc(%ebp),%eax
    5d38:	6a 00                	push   $0x0
    5d3a:	6a 00                	push   $0x0
    5d3c:	56                   	push   %esi
    5d3d:	52                   	push   %edx
    5d3e:	31 db                	xor    %ebx,%ebx
    5d40:	ff 90 84 00 00 00    	call   *0x84(%eax)
    5d46:	8b 55 dc             	mov    -0x24(%ebp),%edx
    5d49:	83 c4 20             	add    $0x20,%esp
    5d4c:	8b 75 10             	mov    0x10(%ebp),%esi
    5d4f:	51                   	push   %ecx
    5d50:	52                   	push   %edx
    5d51:	50                   	push   %eax
    5d52:	56                   	push   %esi
    5d53:	e8 a8 76 00 00       	call   d400 <async_answer_1@plt>
    5d58:	89 1c 24             	mov    %ebx,(%esp)
    5d5b:	e8 b0 77 00 00       	call   d510 <free@plt>
    5d60:	83 c4 10             	add    $0x10,%esp
    5d63:	8d 65 f4             	lea    -0xc(%ebp),%esp
    5d66:	5b                   	pop    %ebx
    5d67:	5e                   	pop    %esi
    5d68:	5f                   	pop    %edi
    5d69:	5d                   	pop    %ebp
    5d6a:	c3                   	ret    
    5d6b:	90                   	nop
    5d6c:	8d 74 26 00          	lea    0x0(%esi,%eiz,1),%esi
    5d70:	50                   	push   %eax
    5d71:	50                   	push   %eax
    5d72:	8b 45 e0             	mov    -0x20(%ebp),%eax
    5d75:	6a f2                	push   $0xfffffff2
    5d77:	50                   	push   %eax
    5d78:	e8 e3 73 00 00       	call   d160 <async_answer_0@plt>
    5d7d:	8b 4d 10             	mov    0x10(%ebp),%ecx
    5d80:	58                   	pop    %eax
    5d81:	5a                   	pop    %edx
    5d82:	6a f2                	push   $0xfffffff2
    5d84:	51                   	push   %ecx
    5d85:	e8 d6 73 00 00       	call   d160 <async_answer_0@plt>
    5d8a:	89 1c 24             	mov    %ebx,(%esp)
    5d8d:	e8 7e 77 00 00       	call   d510 <free@plt>
    5d92:	83 c4 10             	add    $0x10,%esp
    5d95:	eb cc                	jmp    5d63 <remote_nic_wol_virtue_list+0x113>
    5d97:	90                   	nop
    5d98:	50                   	push   %eax
    5d99:	50                   	push   %eax
    5d9a:	8b 45 10             	mov    0x10(%ebp),%eax
    5d9d:	6a f5                	push   $0xfffffff5
    5d9f:	50                   	push   %eax
    5da0:	e8 bb 73 00 00       	call   d160 <async_answer_0@plt>
    5da5:	83 c4 10             	add    $0x10,%esp
    5da8:	eb b9                	jmp    5d63 <remote_nic_wol_virtue_list+0x113>
    5daa:	8d b6 00 00 00 00    	lea    0x0(%esi),%esi
    5db0:	8b 45 10             	mov    0x10(%ebp),%eax
    5db3:	57                   	push   %edi
    5db4:	57                   	push   %edi
    5db5:	6a fe                	push   $0xfffffffe
    5db7:	50                   	push   %eax
    5db8:	e8 a3 73 00 00       	call   d160 <async_answer_0@plt>
    5dbd:	83 c4 10             	add    $0x10,%esp
    5dc0:	eb a1                	jmp    5d63 <remote_nic_wol_virtue_list+0x113>
    5dc2:	8d b4 26 00 00 00 00 	lea    0x0(%esi,%eiz,1),%esi
    5dc9:	8d bc 27 00 00 00 00 	lea    0x0(%edi,%eiz,1),%edi

00005dd0 <remote_nic_wol_virtue_probe>:
    5dd0:	55                   	push   %ebp
    5dd1:	89 e5                	mov    %esp,%ebp
    5dd3:	57                   	push   %edi
    5dd4:	56                   	push   %esi
    5dd5:	53                   	push   %ebx
    5dd6:	83 ec 1c             	sub    $0x1c,%esp
    5dd9:	8b 4d 0c             	mov    0xc(%ebp),%ecx
    5ddc:	8b 45 14             	mov    0x14(%ebp),%eax
    5ddf:	8b 91 80 00 00 00    	mov    0x80(%ecx),%edx
    5de5:	85 d2                	test   %edx,%edx
    5de7:	0f 84 2b 01 00 00    	je     5f18 <remote_nic_wol_virtue_probe+0x148>
    5ded:	8b 58 0c             	mov    0xc(%eax),%ebx
    5df0:	8b 78 08             	mov    0x8(%eax),%edi
    5df3:	c7 45 d8 00 00 00 00 	movl   $0x0,-0x28(%ebp)
    5dfa:	c7 45 dc 00 00 00 00 	movl   $0x0,-0x24(%ebp)
    5e01:	85 db                	test   %ebx,%ebx
    5e03:	0f 84 8f 00 00 00    	je     5e98 <remote_nic_wol_virtue_probe+0xc8>
    5e09:	83 ec 0c             	sub    $0xc,%esp
    5e0c:	53                   	push   %ebx
    5e0d:	e8 0e 73 00 00       	call   d120 <malloc@plt>
    5e12:	83 c4 10             	add    $0x10,%esp
    5e15:	89 c6                	mov    %eax,%esi
    5e17:	85 c0                	test   %eax,%eax
    5e19:	0f 84 11 01 00 00    	je     5f30 <remote_nic_wol_virtue_probe+0x160>
    5e1f:	50                   	push   %eax
    5e20:	53                   	push   %ebx
    5e21:	6a 00                	push   $0x0
    5e23:	56                   	push   %esi
    5e24:	e8 37 75 00 00       	call   d360 <memset@plt>
    5e29:	58                   	pop    %eax
    5e2a:	8d 45 dc             	lea    -0x24(%ebp),%eax
    5e2d:	5a                   	pop    %edx
    5e2e:	50                   	push   %eax
    5e2f:	8d 45 d8             	lea    -0x28(%ebp),%eax
    5e32:	56                   	push   %esi
    5e33:	53                   	push   %ebx
    5e34:	50                   	push   %eax
    5e35:	8b 45 0c             	mov    0xc(%ebp),%eax
    5e38:	8b 4d 08             	mov    0x8(%ebp),%ecx
    5e3b:	57                   	push   %edi
    5e3c:	51                   	push   %ecx
    5e3d:	ff 90 80 00 00 00    	call   *0x80(%eax)
    5e43:	89 c7                	mov    %eax,%edi
    5e45:	8b 45 dc             	mov    -0x24(%ebp),%eax
    5e48:	83 c4 20             	add    $0x20,%esp
    5e4b:	85 c0                	test   %eax,%eax
    5e4d:	74 7b                	je     5eca <remote_nic_wol_virtue_probe+0xfa>
    5e4f:	50                   	push   %eax
    5e50:	50                   	push   %eax
    5e51:	8d 45 e4             	lea    -0x1c(%ebp),%eax
    5e54:	50                   	push   %eax
    5e55:	8d 45 e0             	lea    -0x20(%ebp),%eax
    5e58:	50                   	push   %eax
    5e59:	e8 12 75 00 00       	call   d370 <async_data_read_receive@plt>
    5e5e:	83 c4 10             	add    $0x10,%esp
    5e61:	84 c0                	test   %al,%al
    5e63:	0f 84 87 00 00 00    	je     5ef0 <remote_nic_wol_virtue_probe+0x120>
    5e69:	8b 45 e4             	mov    -0x1c(%ebp),%eax
    5e6c:	8b 55 dc             	mov    -0x24(%ebp),%edx
    5e6f:	39 d0                	cmp    %edx,%eax
    5e71:	76 05                	jbe    5e78 <remote_nic_wol_virtue_probe+0xa8>
    5e73:	89 55 e4             	mov    %edx,-0x1c(%ebp)
    5e76:	89 d0                	mov    %edx,%eax
    5e78:	39 c3                	cmp    %eax,%ebx
    5e7a:	73 05                	jae    5e81 <remote_nic_wol_virtue_probe+0xb1>
    5e7c:	89 5d e4             	mov    %ebx,-0x1c(%ebp)
    5e7f:	89 d8                	mov    %ebx,%eax
    5e81:	8b 4d e0             	mov    -0x20(%ebp),%ecx
    5e84:	52                   	push   %edx
    5e85:	50                   	push   %eax
    5e86:	56                   	push   %esi
    5e87:	51                   	push   %ecx
    5e88:	e8 53 72 00 00       	call   d0e0 <async_data_read_finalize@plt>
    5e8d:	8b 45 dc             	mov    -0x24(%ebp),%eax
    5e90:	83 c4 10             	add    $0x10,%esp
    5e93:	eb 35                	jmp    5eca <remote_nic_wol_virtue_probe+0xfa>
    5e95:	8d 76 00             	lea    0x0(%esi),%esi
    5e98:	50                   	push   %eax
    5e99:	6a 00                	push   $0x0
    5e9b:	6a 00                	push   $0x0
    5e9d:	6a 00                	push   $0x0
    5e9f:	e8 bc 74 00 00       	call   d360 <memset@plt>
    5ea4:	8d 45 dc             	lea    -0x24(%ebp),%eax
    5ea7:	5a                   	pop    %edx
    5ea8:	59                   	pop    %ecx
    5ea9:	50                   	push   %eax
    5eaa:	8d 45 d8             	lea    -0x28(%ebp),%eax
    5ead:	6a 00                	push   $0x0
    5eaf:	6a 00                	push   $0x0
    5eb1:	50                   	push   %eax
    5eb2:	8b 45 0c             	mov    0xc(%ebp),%eax
    5eb5:	8b 5d 08             	mov    0x8(%ebp),%ebx
    5eb8:	57                   	push   %edi
    5eb9:	53                   	push   %ebx
    5eba:	ff 90 80 00 00 00    	call   *0x80(%eax)
    5ec0:	31 f6                	xor    %esi,%esi
    5ec2:	89 c7                	mov    %eax,%edi
    5ec4:	83 c4 20             	add    $0x20,%esp
    5ec7:	8b 45 dc             	mov    -0x24(%ebp),%eax
    5eca:	8b 5d d8             	mov    -0x28(%ebp),%ebx
    5ecd:	50                   	push   %eax
    5ece:	53                   	push   %ebx
    5ecf:	57                   	push   %edi
    5ed0:	8b 7d 10             	mov    0x10(%ebp),%edi
    5ed3:	57                   	push   %edi
    5ed4:	e8 97 73 00 00       	call   d270 <async_answer_2@plt>
    5ed9:	89 34 24             	mov    %esi,(%esp)
    5edc:	e8 2f 76 00 00       	call   d510 <free@plt>
    5ee1:	83 c4 10             	add    $0x10,%esp
    5ee4:	8d 65 f4             	lea    -0xc(%ebp),%esp
    5ee7:	5b                   	pop    %ebx
    5ee8:	5e                   	pop    %esi
    5ee9:	5f                   	pop    %edi
    5eea:	5d                   	pop    %ebp
    5eeb:	c3                   	ret    
    5eec:	8d 74 26 00          	lea    0x0(%esi,%eiz,1),%esi
    5ef0:	8b 7d e0             	mov    -0x20(%ebp),%edi
    5ef3:	53                   	push   %ebx
    5ef4:	53                   	push   %ebx
    5ef5:	6a f2                	push   $0xfffffff2
    5ef7:	57                   	push   %edi
    5ef8:	e8 63 72 00 00       	call   d160 <async_answer_0@plt>
    5efd:	8b 4d 10             	mov    0x10(%ebp),%ecx
    5f00:	58                   	pop    %eax
    5f01:	5a                   	pop    %edx
    5f02:	6a f2                	push   $0xfffffff2
    5f04:	51                   	push   %ecx
    5f05:	e8 56 72 00 00       	call   d160 <async_answer_0@plt>
    5f0a:	89 34 24             	mov    %esi,(%esp)
    5f0d:	e8 fe 75 00 00       	call   d510 <free@plt>
    5f12:	83 c4 10             	add    $0x10,%esp
    5f15:	eb cd                	jmp    5ee4 <remote_nic_wol_virtue_probe+0x114>
    5f17:	90                   	nop
    5f18:	50                   	push   %eax
    5f19:	50                   	push   %eax
    5f1a:	8b 45 10             	mov    0x10(%ebp),%eax
    5f1d:	6a f5                	push   $0xfffffff5
    5f1f:	50                   	push   %eax
    5f20:	e8 3b 72 00 00       	call   d160 <async_answer_0@plt>
    5f25:	83 c4 10             	add    $0x10,%esp
    5f28:	eb ba                	jmp    5ee4 <remote_nic_wol_virtue_probe+0x114>
    5f2a:	8d b6 00 00 00 00    	lea    0x0(%esi),%esi
    5f30:	50                   	push   %eax
    5f31:	50                   	push   %eax
    5f32:	8b 45 10             	mov    0x10(%ebp),%eax
    5f35:	6a fe                	push   $0xfffffffe
    5f37:	50                   	push   %eax
    5f38:	e8 23 72 00 00       	call   d160 <async_answer_0@plt>
    5f3d:	83 c4 10             	add    $0x10,%esp
    5f40:	eb a2                	jmp    5ee4 <remote_nic_wol_virtue_probe+0x114>
    5f42:	8d b4 26 00 00 00 00 	lea    0x0(%esi,%eiz,1),%esi
    5f49:	8d bc 27 00 00 00 00 	lea    0x0(%edi,%eiz,1),%edi

00005f50 <remote_nic_wol_virtue_add>:
    5f50:	55                   	push   %ebp
    5f51:	89 e5                	mov    %esp,%ebp
    5f53:	57                   	push   %edi
    5f54:	56                   	push   %esi
    5f55:	53                   	push   %ebx
    5f56:	83 ec 1c             	sub    $0x1c,%esp
    5f59:	8b 5d 0c             	mov    0xc(%ebp),%ebx
    5f5c:	8b 75 14             	mov    0x14(%ebp),%esi
    5f5f:	8b 43 78             	mov    0x78(%ebx),%eax
    5f62:	8b 7e 0c             	mov    0xc(%esi),%edi
    5f65:	85 c0                	test   %eax,%eax
    5f67:	0f 84 eb 00 00 00    	je     6058 <remote_nic_wol_virtue_add+0x108>
    5f6d:	c7 45 e0 00 00 00 00 	movl   $0x0,-0x20(%ebp)
    5f74:	85 ff                	test   %edi,%edi
    5f76:	74 78                	je     5ff0 <remote_nic_wol_virtue_add+0xa0>
    5f78:	8d 45 e0             	lea    -0x20(%ebp),%eax
    5f7b:	57                   	push   %edi
    5f7c:	57                   	push   %edi
    5f7d:	50                   	push   %eax
    5f7e:	8d 45 dc             	lea    -0x24(%ebp),%eax
    5f81:	50                   	push   %eax
    5f82:	e8 79 75 00 00       	call   d500 <async_data_write_receive@plt>
    5f87:	83 c4 10             	add    $0x10,%esp
    5f8a:	84 c0                	test   %al,%al
    5f8c:	75 2a                	jne    5fb8 <remote_nic_wol_virtue_add+0x68>
    5f8e:	50                   	push   %eax
    5f8f:	50                   	push   %eax
    5f90:	8b 45 dc             	mov    -0x24(%ebp),%eax
    5f93:	6a f2                	push   $0xfffffff2
    5f95:	50                   	push   %eax
    5f96:	e8 c5 71 00 00       	call   d160 <async_answer_0@plt>
    5f9b:	8b 4d 10             	mov    0x10(%ebp),%ecx
    5f9e:	58                   	pop    %eax
    5f9f:	5a                   	pop    %edx
    5fa0:	6a f2                	push   $0xfffffff2
    5fa2:	51                   	push   %ecx
    5fa3:	e8 b8 71 00 00       	call   d160 <async_answer_0@plt>
    5fa8:	83 c4 10             	add    $0x10,%esp
    5fab:	8d 65 f4             	lea    -0xc(%ebp),%esp
    5fae:	5b                   	pop    %ebx
    5faf:	5e                   	pop    %esi
    5fb0:	5f                   	pop    %edi
    5fb1:	5d                   	pop    %ebp
    5fb2:	c3                   	ret    
    5fb3:	90                   	nop
    5fb4:	8d 74 26 00          	lea    0x0(%esi,%eiz,1),%esi
    5fb8:	83 ec 0c             	sub    $0xc,%esp
    5fbb:	8b 7d e0             	mov    -0x20(%ebp),%edi
    5fbe:	57                   	push   %edi
    5fbf:	e8 5c 71 00 00       	call   d120 <malloc@plt>
    5fc4:	83 c4 10             	add    $0x10,%esp
    5fc7:	89 c7                	mov    %eax,%edi
    5fc9:	85 c0                	test   %eax,%eax
    5fcb:	0f 84 a7 00 00 00    	je     6078 <remote_nic_wol_virtue_add+0x128>
    5fd1:	50                   	push   %eax
    5fd2:	8b 45 e0             	mov    -0x20(%ebp),%eax
    5fd5:	50                   	push   %eax
    5fd6:	8b 45 dc             	mov    -0x24(%ebp),%eax
    5fd9:	57                   	push   %edi
    5fda:	50                   	push   %eax
    5fdb:	e8 a0 74 00 00       	call   d480 <async_data_write_finalize@plt>
    5fe0:	83 c4 10             	add    $0x10,%esp
    5fe3:	85 c0                	test   %eax,%eax
    5fe5:	75 51                	jne    6038 <remote_nic_wol_virtue_add+0xe8>
    5fe7:	8b 45 e0             	mov    -0x20(%ebp),%eax
    5fea:	eb 08                	jmp    5ff4 <remote_nic_wol_virtue_add+0xa4>
    5fec:	8d 74 26 00          	lea    0x0(%esi,%eiz,1),%esi
    5ff0:	31 c0                	xor    %eax,%eax
    5ff2:	31 ff                	xor    %edi,%edi
    5ff4:	83 ec 0c             	sub    $0xc,%esp
    5ff7:	8d 4d e4             	lea    -0x1c(%ebp),%ecx
    5ffa:	8b 55 08             	mov    0x8(%ebp),%edx
    5ffd:	c7 45 e4 00 00 00 00 	movl   $0x0,-0x1c(%ebp)
    6004:	51                   	push   %ecx
    6005:	50                   	push   %eax
    6006:	8b 46 08             	mov    0x8(%esi),%eax
    6009:	57                   	push   %edi
    600a:	50                   	push   %eax
    600b:	52                   	push   %edx
    600c:	ff 53 78             	call   *0x78(%ebx)
    600f:	83 c4 1c             	add    $0x1c,%esp
    6012:	8b 4d e4             	mov    -0x1c(%ebp),%ecx
    6015:	8b 5d 10             	mov    0x10(%ebp),%ebx
    6018:	51                   	push   %ecx
    6019:	50                   	push   %eax
    601a:	53                   	push   %ebx
    601b:	e8 e0 73 00 00       	call   d400 <async_answer_1@plt>
    6020:	89 3c 24             	mov    %edi,(%esp)
    6023:	e8 e8 74 00 00       	call   d510 <free@plt>
    6028:	83 c4 10             	add    $0x10,%esp
    602b:	8d 65 f4             	lea    -0xc(%ebp),%esp
    602e:	5b                   	pop    %ebx
    602f:	5e                   	pop    %esi
    6030:	5f                   	pop    %edi
    6031:	5d                   	pop    %ebp
    6032:	c3                   	ret    
    6033:	90                   	nop
    6034:	8d 74 26 00          	lea    0x0(%esi,%eiz,1),%esi
    6038:	8b 45 10             	mov    0x10(%ebp),%eax
    603b:	56                   	push   %esi
    603c:	56                   	push   %esi
    603d:	6a f2                	push   $0xfffffff2
    603f:	50                   	push   %eax
    6040:	e8 1b 71 00 00       	call   d160 <async_answer_0@plt>
    6045:	89 3c 24             	mov    %edi,(%esp)
    6048:	e8 c3 74 00 00       	call   d510 <free@plt>
    604d:	83 c4 10             	add    $0x10,%esp
    6050:	8d 65 f4             	lea    -0xc(%ebp),%esp
    6053:	5b                   	pop    %ebx
    6054:	5e                   	pop    %esi
    6055:	5f                   	pop    %edi
    6056:	5d                   	pop    %ebp
    6057:	c3                   	ret    
    6058:	85 ff                	test   %edi,%edi
    605a:	75 44                	jne    60a0 <remote_nic_wol_virtue_add+0x150>
    605c:	50                   	push   %eax
    605d:	50                   	push   %eax
    605e:	8b 45 10             	mov    0x10(%ebp),%eax
    6061:	6a f5                	push   $0xfffffff5
    6063:	50                   	push   %eax
    6064:	e8 f7 70 00 00       	call   d160 <async_answer_0@plt>
    6069:	83 c4 10             	add    $0x10,%esp
    606c:	e9 fc fe ff ff       	jmp    5f6d <remote_nic_wol_virtue_add+0x1d>
    6071:	8d b4 26 00 00 00 00 	lea    0x0(%esi,%eiz,1),%esi
    6078:	50                   	push   %eax
    6079:	50                   	push   %eax
    607a:	8b 45 dc             	mov    -0x24(%ebp),%eax
    607d:	6a fe                	push   $0xfffffffe
    607f:	50                   	push   %eax
    6080:	e8 db 70 00 00       	call   d160 <async_answer_0@plt>
    6085:	8b 5d 10             	mov    0x10(%ebp),%ebx
    6088:	5a                   	pop    %edx
    6089:	59                   	pop    %ecx
    608a:	6a fe                	push   $0xfffffffe
    608c:	53                   	push   %ebx
    608d:	e8 ce 70 00 00       	call   d160 <async_answer_0@plt>
    6092:	83 c4 10             	add    $0x10,%esp
    6095:	e9 11 ff ff ff       	jmp    5fab <remote_nic_wol_virtue_add+0x5b>
    609a:	8d b6 00 00 00 00    	lea    0x0(%esi),%esi
    60a0:	50                   	push   %eax
    60a1:	50                   	push   %eax
    60a2:	8d 45 dc             	lea    -0x24(%ebp),%eax
    60a5:	6a 00                	push   $0x0
    60a7:	50                   	push   %eax
    60a8:	e8 53 74 00 00       	call   d500 <async_data_write_receive@plt>
    60ad:	8b 4d dc             	mov    -0x24(%ebp),%ecx
    60b0:	58                   	pop    %eax
    60b1:	5a                   	pop    %edx
    60b2:	6a f5                	push   $0xfffffff5
    60b4:	51                   	push   %ecx
    60b5:	e8 a6 70 00 00       	call   d160 <async_answer_0@plt>
    60ba:	83 c4 10             	add    $0x10,%esp
    60bd:	eb 9d                	jmp    605c <remote_nic_wol_virtue_add+0x10c>
    60bf:	90                   	nop

000060c0 <remote_nic_blocked_sources_set>:
    60c0:	55                   	push   %ebp
    60c1:	89 e5                	mov    %esp,%ebp
    60c3:	57                   	push   %edi
    60c4:	56                   	push   %esi
    60c5:	53                   	push   %ebx
    60c6:	83 ec 1c             	sub    $0x1c,%esp
    60c9:	31 f6                	xor    %esi,%esi
    60cb:	8b 45 14             	mov    0x14(%ebp),%eax
    60ce:	8b 58 08             	mov    0x8(%eax),%ebx
    60d1:	85 db                	test   %ebx,%ebx
    60d3:	75 3b                	jne    6110 <remote_nic_blocked_sources_set+0x50>
    60d5:	8b 45 0c             	mov    0xc(%ebp),%eax
    60d8:	8b 40 68             	mov    0x68(%eax),%eax
    60db:	85 c0                	test   %eax,%eax
    60dd:	0f 84 cd 00 00 00    	je     61b0 <remote_nic_blocked_sources_set+0xf0>
    60e3:	51                   	push   %ecx
    60e4:	53                   	push   %ebx
    60e5:	8b 5d 08             	mov    0x8(%ebp),%ebx
    60e8:	56                   	push   %esi
    60e9:	53                   	push   %ebx
    60ea:	ff d0                	call   *%eax
    60ec:	8b 4d 10             	mov    0x10(%ebp),%ecx
    60ef:	5f                   	pop    %edi
    60f0:	5a                   	pop    %edx
    60f1:	50                   	push   %eax
    60f2:	51                   	push   %ecx
    60f3:	e8 68 70 00 00       	call   d160 <async_answer_0@plt>
    60f8:	83 c4 10             	add    $0x10,%esp
    60fb:	83 ec 0c             	sub    $0xc,%esp
    60fe:	56                   	push   %esi
    60ff:	e8 0c 74 00 00       	call   d510 <free@plt>
    6104:	83 c4 10             	add    $0x10,%esp
    6107:	8d 65 f4             	lea    -0xc(%ebp),%esp
    610a:	5b                   	pop    %ebx
    610b:	5e                   	pop    %esi
    610c:	5f                   	pop    %edi
    610d:	5d                   	pop    %ebp
    610e:	c3                   	ret    
    610f:	90                   	nop
    6110:	8d 45 e0             	lea    -0x20(%ebp),%eax
    6113:	56                   	push   %esi
    6114:	56                   	push   %esi
    6115:	50                   	push   %eax
    6116:	8d 45 e4             	lea    -0x1c(%ebp),%eax
    6119:	50                   	push   %eax
    611a:	e8 e1 73 00 00       	call   d500 <async_data_write_receive@plt>
    611f:	83 c4 10             	add    $0x10,%esp
    6122:	84 c0                	test   %al,%al
    6124:	0f 84 9e 00 00 00    	je     61c8 <remote_nic_blocked_sources_set+0x108>
    612a:	8d 04 5b             	lea    (%ebx,%ebx,2),%eax
    612d:	01 c0                	add    %eax,%eax
    612f:	3b 45 e0             	cmp    -0x20(%ebp),%eax
    6132:	74 2c                	je     6160 <remote_nic_blocked_sources_set+0xa0>
    6134:	8b 75 e4             	mov    -0x1c(%ebp),%esi
    6137:	53                   	push   %ebx
    6138:	53                   	push   %ebx
    6139:	6a fd                	push   $0xfffffffd
    613b:	56                   	push   %esi
    613c:	e8 1f 70 00 00       	call   d160 <async_answer_0@plt>
    6141:	5f                   	pop    %edi
    6142:	58                   	pop    %eax
    6143:	8b 45 10             	mov    0x10(%ebp),%eax
    6146:	6a fd                	push   $0xfffffffd
    6148:	50                   	push   %eax
    6149:	e8 12 70 00 00       	call   d160 <async_answer_0@plt>
    614e:	83 c4 10             	add    $0x10,%esp
    6151:	8d 65 f4             	lea    -0xc(%ebp),%esp
    6154:	5b                   	pop    %ebx
    6155:	5e                   	pop    %esi
    6156:	5f                   	pop    %edi
    6157:	5d                   	pop    %ebp
    6158:	c3                   	ret    
    6159:	8d b4 26 00 00 00 00 	lea    0x0(%esi,%eiz,1),%esi
    6160:	83 ec 0c             	sub    $0xc,%esp
    6163:	50                   	push   %eax
    6164:	e8 b7 6f 00 00       	call   d120 <malloc@plt>
    6169:	83 c4 10             	add    $0x10,%esp
    616c:	89 c7                	mov    %eax,%edi
    616e:	89 c6                	mov    %eax,%esi
    6170:	85 c0                	test   %eax,%eax
    6172:	74 76                	je     61ea <remote_nic_blocked_sources_set+0x12a>
    6174:	50                   	push   %eax
    6175:	8b 45 e0             	mov    -0x20(%ebp),%eax
    6178:	50                   	push   %eax
    6179:	8b 45 e4             	mov    -0x1c(%ebp),%eax
    617c:	57                   	push   %edi
    617d:	50                   	push   %eax
    617e:	e8 fd 72 00 00       	call   d480 <async_data_write_finalize@plt>
    6183:	83 c4 10             	add    $0x10,%esp
    6186:	85 c0                	test   %eax,%eax
    6188:	0f 84 47 ff ff ff    	je     60d5 <remote_nic_blocked_sources_set+0x15>
    618e:	8b 75 10             	mov    0x10(%ebp),%esi
    6191:	53                   	push   %ebx
    6192:	53                   	push   %ebx
    6193:	6a f2                	push   $0xfffffff2
    6195:	56                   	push   %esi
    6196:	e8 c5 6f 00 00       	call   d160 <async_answer_0@plt>
    619b:	89 3c 24             	mov    %edi,(%esp)
    619e:	e8 6d 73 00 00       	call   d510 <free@plt>
    61a3:	83 c4 10             	add    $0x10,%esp
    61a6:	e9 5c ff ff ff       	jmp    6107 <remote_nic_blocked_sources_set+0x47>
    61ab:	90                   	nop
    61ac:	8d 74 26 00          	lea    0x0(%esi,%eiz,1),%esi
    61b0:	8b 55 10             	mov    0x10(%ebp),%edx
    61b3:	50                   	push   %eax
    61b4:	50                   	push   %eax
    61b5:	6a f5                	push   $0xfffffff5
    61b7:	52                   	push   %edx
    61b8:	e8 a3 6f 00 00       	call   d160 <async_answer_0@plt>
    61bd:	83 c4 10             	add    $0x10,%esp
    61c0:	e9 36 ff ff ff       	jmp    60fb <remote_nic_blocked_sources_set+0x3b>
    61c5:	8d 76 00             	lea    0x0(%esi),%esi
    61c8:	50                   	push   %eax
    61c9:	50                   	push   %eax
    61ca:	8b 45 e4             	mov    -0x1c(%ebp),%eax
    61cd:	6a f2                	push   $0xfffffff2
    61cf:	50                   	push   %eax
    61d0:	e8 8b 6f 00 00       	call   d160 <async_answer_0@plt>
    61d5:	8b 4d 10             	mov    0x10(%ebp),%ecx
    61d8:	58                   	pop    %eax
    61d9:	5a                   	pop    %edx
    61da:	6a f2                	push   $0xfffffff2
    61dc:	51                   	push   %ecx
    61dd:	e8 7e 6f 00 00       	call   d160 <async_answer_0@plt>
    61e2:	83 c4 10             	add    $0x10,%esp
    61e5:	e9 1d ff ff ff       	jmp    6107 <remote_nic_blocked_sources_set+0x47>
    61ea:	50                   	push   %eax
    61eb:	50                   	push   %eax
    61ec:	8b 45 e4             	mov    -0x1c(%ebp),%eax
    61ef:	6a fe                	push   $0xfffffffe
    61f1:	50                   	push   %eax
    61f2:	e8 69 6f 00 00       	call   d160 <async_answer_0@plt>
    61f7:	8b 4d 10             	mov    0x10(%ebp),%ecx
    61fa:	58                   	pop    %eax
    61fb:	5a                   	pop    %edx
    61fc:	6a fe                	push   $0xfffffffe
    61fe:	51                   	push   %ecx
    61ff:	e8 5c 6f 00 00       	call   d160 <async_answer_0@plt>
    6204:	83 c4 10             	add    $0x10,%esp
    6207:	e9 fb fe ff ff       	jmp    6107 <remote_nic_blocked_sources_set+0x47>
    620c:	8d 74 26 00          	lea    0x0(%esi,%eiz,1),%esi

00006210 <remote_nic_blocked_sources_get>:
    6210:	55                   	push   %ebp
    6211:	89 e5                	mov    %esp,%ebp
    6213:	57                   	push   %edi
    6214:	56                   	push   %esi
    6215:	53                   	push   %ebx
    6216:	83 ec 1c             	sub    $0x1c,%esp
    6219:	8b 45 0c             	mov    0xc(%ebp),%eax
    621c:	8b 50 64             	mov    0x64(%eax),%edx
    621f:	85 d2                	test   %edx,%edx
    6221:	0f 84 19 01 00 00    	je     6340 <remote_nic_blocked_sources_get+0x130>
    6227:	8b 45 14             	mov    0x14(%ebp),%eax
    622a:	8b 70 08             	mov    0x8(%eax),%esi
    622d:	85 f6                	test   %esi,%esi
    622f:	75 4f                	jne    6280 <remote_nic_blocked_sources_get+0x70>
    6231:	50                   	push   %eax
    6232:	6a 00                	push   $0x0
    6234:	6a 00                	push   $0x0
    6236:	6a 00                	push   $0x0
    6238:	e8 23 71 00 00       	call   d360 <memset@plt>
    623d:	8d 45 dc             	lea    -0x24(%ebp),%eax
    6240:	50                   	push   %eax
    6241:	8b 55 08             	mov    0x8(%ebp),%edx
    6244:	8b 45 0c             	mov    0xc(%ebp),%eax
    6247:	6a 00                	push   $0x0
    6249:	c7 45 dc 00 00 00 00 	movl   $0x0,-0x24(%ebp)
    6250:	6a 00                	push   $0x0
    6252:	52                   	push   %edx
    6253:	31 db                	xor    %ebx,%ebx
    6255:	ff 50 64             	call   *0x64(%eax)
    6258:	8b 55 dc             	mov    -0x24(%ebp),%edx
    625b:	83 c4 20             	add    $0x20,%esp
    625e:	57                   	push   %edi
    625f:	52                   	push   %edx
    6260:	50                   	push   %eax
    6261:	8b 45 10             	mov    0x10(%ebp),%eax
    6264:	50                   	push   %eax
    6265:	e8 96 71 00 00       	call   d400 <async_answer_1@plt>
    626a:	89 1c 24             	mov    %ebx,(%esp)
    626d:	e8 9e 72 00 00       	call   d510 <free@plt>
    6272:	83 c4 10             	add    $0x10,%esp
    6275:	8d 65 f4             	lea    -0xc(%ebp),%esp
    6278:	5b                   	pop    %ebx
    6279:	5e                   	pop    %esi
    627a:	5f                   	pop    %edi
    627b:	5d                   	pop    %ebp
    627c:	c3                   	ret    
    627d:	8d 76 00             	lea    0x0(%esi),%esi
    6280:	83 ec 0c             	sub    $0xc,%esp
    6283:	8d 3c 76             	lea    (%esi,%esi,2),%edi
    6286:	01 ff                	add    %edi,%edi
    6288:	57                   	push   %edi
    6289:	e8 92 6e 00 00       	call   d120 <malloc@plt>
    628e:	83 c4 10             	add    $0x10,%esp
    6291:	89 c3                	mov    %eax,%ebx
    6293:	85 c0                	test   %eax,%eax
    6295:	0f 84 dd 00 00 00    	je     6378 <remote_nic_blocked_sources_get+0x168>
    629b:	50                   	push   %eax
    629c:	57                   	push   %edi
    629d:	6a 00                	push   $0x0
    629f:	53                   	push   %ebx
    62a0:	e8 bb 70 00 00       	call   d360 <memset@plt>
    62a5:	8d 45 dc             	lea    -0x24(%ebp),%eax
    62a8:	50                   	push   %eax
    62a9:	8b 45 08             	mov    0x8(%ebp),%eax
    62ac:	53                   	push   %ebx
    62ad:	56                   	push   %esi
    62ae:	50                   	push   %eax
    62af:	8b 45 0c             	mov    0xc(%ebp),%eax
    62b2:	c7 45 dc 00 00 00 00 	movl   $0x0,-0x24(%ebp)
    62b9:	ff 50 64             	call   *0x64(%eax)
    62bc:	83 c4 20             	add    $0x20,%esp
    62bf:	8b 55 dc             	mov    -0x24(%ebp),%edx
    62c2:	85 c0                	test   %eax,%eax
    62c4:	75 98                	jne    625e <remote_nic_blocked_sources_get+0x4e>
    62c6:	85 d2                	test   %edx,%edx
    62c8:	74 94                	je     625e <remote_nic_blocked_sources_get+0x4e>
    62ca:	8d 45 e4             	lea    -0x1c(%ebp),%eax
    62cd:	56                   	push   %esi
    62ce:	56                   	push   %esi
    62cf:	50                   	push   %eax
    62d0:	8d 45 e0             	lea    -0x20(%ebp),%eax
    62d3:	50                   	push   %eax
    62d4:	e8 97 70 00 00       	call   d370 <async_data_read_receive@plt>
    62d9:	83 c4 10             	add    $0x10,%esp
    62dc:	84 c0                	test   %al,%al
    62de:	74 78                	je     6358 <remote_nic_blocked_sources_get+0x148>
    62e0:	8b 45 dc             	mov    -0x24(%ebp),%eax
    62e3:	8d 14 40             	lea    (%eax,%eax,2),%edx
    62e6:	8b 45 e4             	mov    -0x1c(%ebp),%eax
    62e9:	01 d2                	add    %edx,%edx
    62eb:	39 c2                	cmp    %eax,%edx
    62ed:	73 05                	jae    62f4 <remote_nic_blocked_sources_get+0xe4>
    62ef:	89 55 e4             	mov    %edx,-0x1c(%ebp)
    62f2:	89 d0                	mov    %edx,%eax
    62f4:	39 f8                	cmp    %edi,%eax
    62f6:	76 05                	jbe    62fd <remote_nic_blocked_sources_get+0xed>
    62f8:	89 7d e4             	mov    %edi,-0x1c(%ebp)
    62fb:	89 f8                	mov    %edi,%eax
    62fd:	8b 75 e0             	mov    -0x20(%ebp),%esi
    6300:	51                   	push   %ecx
    6301:	50                   	push   %eax
    6302:	53                   	push   %ebx
    6303:	56                   	push   %esi
    6304:	e8 d7 6d 00 00       	call   d0e0 <async_data_read_finalize@plt>
    6309:	5f                   	pop    %edi
    630a:	58                   	pop    %eax
    630b:	8b 45 e0             	mov    -0x20(%ebp),%eax
    630e:	6a f2                	push   $0xfffffff2
    6310:	50                   	push   %eax
    6311:	e8 4a 6e 00 00       	call   d160 <async_answer_0@plt>
    6316:	89 1c 24             	mov    %ebx,(%esp)
    6319:	e8 f2 71 00 00       	call   d510 <free@plt>
    631e:	83 c4 0c             	add    $0xc,%esp
    6321:	8b 45 dc             	mov    -0x24(%ebp),%eax
    6324:	50                   	push   %eax
    6325:	8b 45 10             	mov    0x10(%ebp),%eax
    6328:	6a 00                	push   $0x0
    632a:	50                   	push   %eax
    632b:	e8 d0 70 00 00       	call   d400 <async_answer_1@plt>
    6330:	83 c4 10             	add    $0x10,%esp
    6333:	8d 65 f4             	lea    -0xc(%ebp),%esp
    6336:	5b                   	pop    %ebx
    6337:	5e                   	pop    %esi
    6338:	5f                   	pop    %edi
    6339:	5d                   	pop    %ebp
    633a:	c3                   	ret    
    633b:	90                   	nop
    633c:	8d 74 26 00          	lea    0x0(%esi,%eiz,1),%esi
    6340:	50                   	push   %eax
    6341:	50                   	push   %eax
    6342:	8b 45 10             	mov    0x10(%ebp),%eax
    6345:	6a f5                	push   $0xfffffff5
    6347:	50                   	push   %eax
    6348:	e8 13 6e 00 00       	call   d160 <async_answer_0@plt>
    634d:	83 c4 10             	add    $0x10,%esp
    6350:	e9 20 ff ff ff       	jmp    6275 <remote_nic_blocked_sources_get+0x65>
    6355:	8d 76 00             	lea    0x0(%esi),%esi
    6358:	8b 55 e0             	mov    -0x20(%ebp),%edx
    635b:	50                   	push   %eax
    635c:	50                   	push   %eax
    635d:	6a f2                	push   $0xfffffff2
    635f:	52                   	push   %edx
    6360:	e8 fb 6d 00 00       	call   d160 <async_answer_0@plt>
    6365:	83 c4 0c             	add    $0xc,%esp
    6368:	8b 4d dc             	mov    -0x24(%ebp),%ecx
    636b:	51                   	push   %ecx
    636c:	6a 00                	push   $0x0
    636e:	e9 ee fe ff ff       	jmp    6261 <remote_nic_blocked_sources_get+0x51>
    6373:	90                   	nop
    6374:	8d 74 26 00          	lea    0x0(%esi,%eiz,1),%esi
    6378:	50                   	push   %eax
    6379:	50                   	push   %eax
    637a:	8b 45 10             	mov    0x10(%ebp),%eax
    637d:	6a fe                	push   $0xfffffffe
    637f:	50                   	push   %eax
    6380:	e8 db 6d 00 00       	call   d160 <async_answer_0@plt>
    6385:	83 c4 10             	add    $0x10,%esp
    6388:	e9 e8 fe ff ff       	jmp    6275 <remote_nic_blocked_sources_get+0x65>
    638d:	8d 76 00             	lea    0x0(%esi),%esi

00006390 <remote_nic_multicast_set_mode>:
    6390:	55                   	push   %ebp
    6391:	89 e5                	mov    %esp,%ebp
    6393:	57                   	push   %edi
    6394:	56                   	push   %esi
    6395:	53                   	push   %ebx
    6396:	83 ec 2c             	sub    $0x2c,%esp
    6399:	31 f6                	xor    %esi,%esi
    639b:	8b 45 14             	mov    0x14(%ebp),%eax
    639e:	8b 58 0c             	mov    0xc(%eax),%ebx
    63a1:	8b 78 08             	mov    0x8(%eax),%edi
    63a4:	85 db                	test   %ebx,%ebx
    63a6:	75 40                	jne    63e8 <remote_nic_multicast_set_mode+0x58>
    63a8:	8b 45 0c             	mov    0xc(%ebp),%eax
    63ab:	8b 40 50             	mov    0x50(%eax),%eax
    63ae:	85 c0                	test   %eax,%eax
    63b0:	0f 84 da 00 00 00    	je     6490 <remote_nic_multicast_set_mode+0x100>
    63b6:	8b 4d 08             	mov    0x8(%ebp),%ecx
    63b9:	53                   	push   %ebx
    63ba:	56                   	push   %esi
    63bb:	57                   	push   %edi
    63bc:	51                   	push   %ecx
    63bd:	ff d0                	call   *%eax
    63bf:	5b                   	pop    %ebx
    63c0:	5f                   	pop    %edi
    63c1:	50                   	push   %eax
    63c2:	8b 45 10             	mov    0x10(%ebp),%eax
    63c5:	50                   	push   %eax
    63c6:	e8 95 6d 00 00       	call   d160 <async_answer_0@plt>
    63cb:	83 c4 10             	add    $0x10,%esp
    63ce:	83 ec 0c             	sub    $0xc,%esp
    63d1:	56                   	push   %esi
    63d2:	e8 39 71 00 00       	call   d510 <free@plt>
    63d7:	83 c4 10             	add    $0x10,%esp
    63da:	8d 65 f4             	lea    -0xc(%ebp),%esp
    63dd:	5b                   	pop    %ebx
    63de:	5e                   	pop    %esi
    63df:	5f                   	pop    %edi
    63e0:	5d                   	pop    %ebp
    63e1:	c3                   	ret    
    63e2:	8d b6 00 00 00 00    	lea    0x0(%esi),%esi
    63e8:	50                   	push   %eax
    63e9:	50                   	push   %eax
    63ea:	8d 45 e4             	lea    -0x1c(%ebp),%eax
    63ed:	50                   	push   %eax
    63ee:	8d 45 e0             	lea    -0x20(%ebp),%eax
    63f1:	50                   	push   %eax
    63f2:	e8 09 71 00 00       	call   d500 <async_data_write_receive@plt>
    63f7:	83 c4 10             	add    $0x10,%esp
    63fa:	84 c0                	test   %al,%al
    63fc:	0f 84 a6 00 00 00    	je     64a8 <remote_nic_multicast_set_mode+0x118>
    6402:	8d 04 5b             	lea    (%ebx,%ebx,2),%eax
    6405:	01 c0                	add    %eax,%eax
    6407:	3b 45 e4             	cmp    -0x1c(%ebp),%eax
    640a:	74 2c                	je     6438 <remote_nic_multicast_set_mode+0xa8>
    640c:	50                   	push   %eax
    640d:	50                   	push   %eax
    640e:	8b 45 e0             	mov    -0x20(%ebp),%eax
    6411:	6a fd                	push   $0xfffffffd
    6413:	50                   	push   %eax
    6414:	e8 47 6d 00 00       	call   d160 <async_answer_0@plt>
    6419:	8b 4d 10             	mov    0x10(%ebp),%ecx
    641c:	58                   	pop    %eax
    641d:	5a                   	pop    %edx
    641e:	6a fd                	push   $0xfffffffd
    6420:	51                   	push   %ecx
    6421:	e8 3a 6d 00 00       	call   d160 <async_answer_0@plt>
    6426:	83 c4 10             	add    $0x10,%esp
    6429:	8d 65 f4             	lea    -0xc(%ebp),%esp
    642c:	5b                   	pop    %ebx
    642d:	5e                   	pop    %esi
    642e:	5f                   	pop    %edi
    642f:	5d                   	pop    %ebp
    6430:	c3                   	ret    
    6431:	8d b4 26 00 00 00 00 	lea    0x0(%esi,%eiz,1),%esi
    6438:	83 ec 0c             	sub    $0xc,%esp
    643b:	50                   	push   %eax
    643c:	e8 df 6c 00 00       	call   d120 <malloc@plt>
    6441:	83 c4 10             	add    $0x10,%esp
    6444:	89 c2                	mov    %eax,%edx
    6446:	89 c6                	mov    %eax,%esi
    6448:	85 c0                	test   %eax,%eax
    644a:	74 7e                	je     64ca <remote_nic_multicast_set_mode+0x13a>
    644c:	50                   	push   %eax
    644d:	8b 45 e4             	mov    -0x1c(%ebp),%eax
    6450:	50                   	push   %eax
    6451:	8b 45 e0             	mov    -0x20(%ebp),%eax
    6454:	52                   	push   %edx
    6455:	89 55 d4             	mov    %edx,-0x2c(%ebp)
    6458:	50                   	push   %eax
    6459:	e8 22 70 00 00       	call   d480 <async_data_write_finalize@plt>
    645e:	83 c4 10             	add    $0x10,%esp
    6461:	85 c0                	test   %eax,%eax
    6463:	0f 84 3f ff ff ff    	je     63a8 <remote_nic_multicast_set_mode+0x18>
    6469:	50                   	push   %eax
    646a:	50                   	push   %eax
    646b:	8b 45 10             	mov    0x10(%ebp),%eax
    646e:	6a f2                	push   $0xfffffff2
    6470:	50                   	push   %eax
    6471:	e8 ea 6c 00 00       	call   d160 <async_answer_0@plt>
    6476:	8b 55 d4             	mov    -0x2c(%ebp),%edx
    6479:	89 14 24             	mov    %edx,(%esp)
    647c:	e8 8f 70 00 00       	call   d510 <free@plt>
    6481:	83 c4 10             	add    $0x10,%esp
    6484:	e9 51 ff ff ff       	jmp    63da <remote_nic_multicast_set_mode+0x4a>
    6489:	8d b4 26 00 00 00 00 	lea    0x0(%esi,%eiz,1),%esi
    6490:	8b 55 10             	mov    0x10(%ebp),%edx
    6493:	50                   	push   %eax
    6494:	50                   	push   %eax
    6495:	6a f5                	push   $0xfffffff5
    6497:	52                   	push   %edx
    6498:	e8 c3 6c 00 00       	call   d160 <async_answer_0@plt>
    649d:	83 c4 10             	add    $0x10,%esp
    64a0:	e9 29 ff ff ff       	jmp    63ce <remote_nic_multicast_set_mode+0x3e>
    64a5:	8d 76 00             	lea    0x0(%esi),%esi
    64a8:	8b 75 e0             	mov    -0x20(%ebp),%esi
    64ab:	53                   	push   %ebx
    64ac:	53                   	push   %ebx
    64ad:	6a f2                	push   $0xfffffff2
    64af:	56                   	push   %esi
    64b0:	e8 ab 6c 00 00       	call   d160 <async_answer_0@plt>
    64b5:	5f                   	pop    %edi
    64b6:	58                   	pop    %eax
    64b7:	8b 45 10             	mov    0x10(%ebp),%eax
    64ba:	6a f2                	push   $0xfffffff2
    64bc:	50                   	push   %eax
    64bd:	e8 9e 6c 00 00       	call   d160 <async_answer_0@plt>
    64c2:	83 c4 10             	add    $0x10,%esp
    64c5:	e9 10 ff ff ff       	jmp    63da <remote_nic_multicast_set_mode+0x4a>
    64ca:	8b 4d e0             	mov    -0x20(%ebp),%ecx
    64cd:	52                   	push   %edx
    64ce:	52                   	push   %edx
    64cf:	6a fe                	push   $0xfffffffe
    64d1:	51                   	push   %ecx
    64d2:	e8 89 6c 00 00       	call   d160 <async_answer_0@plt>
    64d7:	8b 7d 10             	mov    0x10(%ebp),%edi
    64da:	5b                   	pop    %ebx
    64db:	5e                   	pop    %esi
    64dc:	6a fe                	push   $0xfffffffe
    64de:	57                   	push   %edi
    64df:	e8 7c 6c 00 00       	call   d160 <async_answer_0@plt>
    64e4:	83 c4 10             	add    $0x10,%esp
    64e7:	e9 ee fe ff ff       	jmp    63da <remote_nic_multicast_set_mode+0x4a>
    64ec:	8d 74 26 00          	lea    0x0(%esi,%eiz,1),%esi

000064f0 <remote_nic_multicast_get_mode>:
    64f0:	55                   	push   %ebp
    64f1:	89 e5                	mov    %esp,%ebp
    64f3:	57                   	push   %edi
    64f4:	56                   	push   %esi
    64f5:	53                   	push   %ebx
    64f6:	83 ec 1c             	sub    $0x1c,%esp
    64f9:	8b 45 0c             	mov    0xc(%ebp),%eax
    64fc:	8b 58 4c             	mov    0x4c(%eax),%ebx
    64ff:	85 db                	test   %ebx,%ebx
    6501:	0f 84 39 01 00 00    	je     6640 <remote_nic_multicast_get_mode+0x150>
    6507:	8b 45 14             	mov    0x14(%ebp),%eax
    650a:	8b 70 08             	mov    0x8(%eax),%esi
    650d:	85 f6                	test   %esi,%esi
    650f:	0f 84 cb 00 00 00    	je     65e0 <remote_nic_multicast_get_mode+0xf0>
    6515:	83 ec 0c             	sub    $0xc,%esp
    6518:	8d 3c 76             	lea    (%esi,%esi,2),%edi
    651b:	01 ff                	add    %edi,%edi
    651d:	57                   	push   %edi
    651e:	e8 fd 6b 00 00       	call   d120 <malloc@plt>
    6523:	83 c4 10             	add    $0x10,%esp
    6526:	89 c3                	mov    %eax,%ebx
    6528:	85 c0                	test   %eax,%eax
    652a:	0f 84 58 01 00 00    	je     6688 <remote_nic_multicast_get_mode+0x198>
    6530:	50                   	push   %eax
    6531:	57                   	push   %edi
    6532:	6a 00                	push   $0x0
    6534:	53                   	push   %ebx
    6535:	e8 26 6e 00 00       	call   d360 <memset@plt>
    653a:	8d 45 dc             	lea    -0x24(%ebp),%eax
    653d:	89 04 24             	mov    %eax,(%esp)
    6540:	8d 45 d8             	lea    -0x28(%ebp),%eax
    6543:	53                   	push   %ebx
    6544:	56                   	push   %esi
    6545:	50                   	push   %eax
    6546:	8b 45 08             	mov    0x8(%ebp),%eax
    6549:	50                   	push   %eax
    654a:	8b 45 0c             	mov    0xc(%ebp),%eax
    654d:	c7 45 d8 01 00 00 00 	movl   $0x1,-0x28(%ebp)
    6554:	c7 45 dc 00 00 00 00 	movl   $0x0,-0x24(%ebp)
    655b:	ff 50 4c             	call   *0x4c(%eax)
    655e:	83 c4 20             	add    $0x20,%esp
    6561:	89 c6                	mov    %eax,%esi
    6563:	85 c0                	test   %eax,%eax
    6565:	0f 85 ae 00 00 00    	jne    6619 <remote_nic_multicast_get_mode+0x129>
    656b:	8b 45 dc             	mov    -0x24(%ebp),%eax
    656e:	85 c0                	test   %eax,%eax
    6570:	0f 84 a3 00 00 00    	je     6619 <remote_nic_multicast_get_mode+0x129>
    6576:	8d 45 e4             	lea    -0x1c(%ebp),%eax
    6579:	51                   	push   %ecx
    657a:	51                   	push   %ecx
    657b:	50                   	push   %eax
    657c:	8d 45 e0             	lea    -0x20(%ebp),%eax
    657f:	50                   	push   %eax
    6580:	e8 eb 6d 00 00       	call   d370 <async_data_read_receive@plt>
    6585:	83 c4 10             	add    $0x10,%esp
    6588:	84 c0                	test   %al,%al
    658a:	0f 84 c8 00 00 00    	je     6658 <remote_nic_multicast_get_mode+0x168>
    6590:	8b 45 dc             	mov    -0x24(%ebp),%eax
    6593:	8d 14 40             	lea    (%eax,%eax,2),%edx
    6596:	8b 45 e4             	mov    -0x1c(%ebp),%eax
    6599:	01 d2                	add    %edx,%edx
    659b:	39 c2                	cmp    %eax,%edx
    659d:	73 05                	jae    65a4 <remote_nic_multicast_get_mode+0xb4>
    659f:	89 55 e4             	mov    %edx,-0x1c(%ebp)
    65a2:	89 d0                	mov    %edx,%eax
    65a4:	39 c7                	cmp    %eax,%edi
    65a6:	73 05                	jae    65ad <remote_nic_multicast_get_mode+0xbd>
    65a8:	89 7d e4             	mov    %edi,-0x1c(%ebp)
    65ab:	89 f8                	mov    %edi,%eax
    65ad:	8b 75 e0             	mov    -0x20(%ebp),%esi
    65b0:	51                   	push   %ecx
    65b1:	50                   	push   %eax
    65b2:	53                   	push   %ebx
    65b3:	56                   	push   %esi
    65b4:	e8 27 6b 00 00       	call   d0e0 <async_data_read_finalize@plt>
    65b9:	89 1c 24             	mov    %ebx,(%esp)
    65bc:	e8 4f 6f 00 00       	call   d510 <free@plt>
    65c1:	8b 7d dc             	mov    -0x24(%ebp),%edi
    65c4:	8b 45 d8             	mov    -0x28(%ebp),%eax
    65c7:	57                   	push   %edi
    65c8:	50                   	push   %eax
    65c9:	8b 45 10             	mov    0x10(%ebp),%eax
    65cc:	6a 00                	push   $0x0
    65ce:	50                   	push   %eax
    65cf:	e8 9c 6c 00 00       	call   d270 <async_answer_2@plt>
    65d4:	83 c4 20             	add    $0x20,%esp
    65d7:	8d 65 f4             	lea    -0xc(%ebp),%esp
    65da:	5b                   	pop    %ebx
    65db:	5e                   	pop    %esi
    65dc:	5f                   	pop    %edi
    65dd:	5d                   	pop    %ebp
    65de:	c3                   	ret    
    65df:	90                   	nop
    65e0:	50                   	push   %eax
    65e1:	6a 00                	push   $0x0
    65e3:	6a 00                	push   $0x0
    65e5:	6a 00                	push   $0x0
    65e7:	e8 74 6d 00 00       	call   d360 <memset@plt>
    65ec:	8d 45 dc             	lea    -0x24(%ebp),%eax
    65ef:	89 04 24             	mov    %eax,(%esp)
    65f2:	8d 45 d8             	lea    -0x28(%ebp),%eax
    65f5:	6a 00                	push   $0x0
    65f7:	6a 00                	push   $0x0
    65f9:	50                   	push   %eax
    65fa:	8b 45 0c             	mov    0xc(%ebp),%eax
    65fd:	8b 55 08             	mov    0x8(%ebp),%edx
    6600:	c7 45 d8 01 00 00 00 	movl   $0x1,-0x28(%ebp)
    6607:	c7 45 dc 00 00 00 00 	movl   $0x0,-0x24(%ebp)
    660e:	52                   	push   %edx
    660f:	ff 50 4c             	call   *0x4c(%eax)
    6612:	31 db                	xor    %ebx,%ebx
    6614:	89 c6                	mov    %eax,%esi
    6616:	83 c4 20             	add    $0x20,%esp
    6619:	83 ec 0c             	sub    $0xc,%esp
    661c:	53                   	push   %ebx
    661d:	e8 ee 6e 00 00       	call   d510 <free@plt>
    6622:	8b 5d dc             	mov    -0x24(%ebp),%ebx
    6625:	8b 7d d8             	mov    -0x28(%ebp),%edi
    6628:	8b 45 10             	mov    0x10(%ebp),%eax
    662b:	53                   	push   %ebx
    662c:	57                   	push   %edi
    662d:	56                   	push   %esi
    662e:	50                   	push   %eax
    662f:	e8 3c 6c 00 00       	call   d270 <async_answer_2@plt>
    6634:	83 c4 20             	add    $0x20,%esp
    6637:	8d 65 f4             	lea    -0xc(%ebp),%esp
    663a:	5b                   	pop    %ebx
    663b:	5e                   	pop    %esi
    663c:	5f                   	pop    %edi
    663d:	5d                   	pop    %ebp
    663e:	c3                   	ret    
    663f:	90                   	nop
    6640:	8b 4d 10             	mov    0x10(%ebp),%ecx
    6643:	52                   	push   %edx
    6644:	52                   	push   %edx
    6645:	6a f5                	push   $0xfffffff5
    6647:	51                   	push   %ecx
    6648:	e8 13 6b 00 00       	call   d160 <async_answer_0@plt>
    664d:	83 c4 10             	add    $0x10,%esp
    6650:	eb e5                	jmp    6637 <remote_nic_multicast_get_mode+0x147>
    6652:	8d b6 00 00 00 00    	lea    0x0(%esi),%esi
    6658:	50                   	push   %eax
    6659:	50                   	push   %eax
    665a:	8b 45 e0             	mov    -0x20(%ebp),%eax
    665d:	6a f2                	push   $0xfffffff2
    665f:	50                   	push   %eax
    6660:	e8 fb 6a 00 00       	call   d160 <async_answer_0@plt>
    6665:	8b 45 dc             	mov    -0x24(%ebp),%eax
    6668:	8b 55 10             	mov    0x10(%ebp),%edx
    666b:	50                   	push   %eax
    666c:	8b 45 d8             	mov    -0x28(%ebp),%eax
    666f:	50                   	push   %eax
    6670:	6a 00                	push   $0x0
    6672:	52                   	push   %edx
    6673:	e8 f8 6b 00 00       	call   d270 <async_answer_2@plt>
    6678:	83 c4 14             	add    $0x14,%esp
    667b:	53                   	push   %ebx
    667c:	e8 8f 6e 00 00       	call   d510 <free@plt>
    6681:	83 c4 10             	add    $0x10,%esp
    6684:	eb b1                	jmp    6637 <remote_nic_multicast_get_mode+0x147>
    6686:	66 90                	xchg   %ax,%ax
    6688:	50                   	push   %eax
    6689:	50                   	push   %eax
    668a:	8b 45 10             	mov    0x10(%ebp),%eax
    668d:	6a fe                	push   $0xfffffffe
    668f:	50                   	push   %eax
    6690:	e8 cb 6a 00 00       	call   d160 <async_answer_0@plt>
    6695:	83 c4 10             	add    $0x10,%esp
    6698:	eb 9d                	jmp    6637 <remote_nic_multicast_get_mode+0x147>
    669a:	8d b6 00 00 00 00    	lea    0x0(%esi),%esi

000066a0 <remote_nic_unicast_set_mode>:
    66a0:	55                   	push   %ebp
    66a1:	89 e5                	mov    %esp,%ebp
    66a3:	57                   	push   %edi
    66a4:	56                   	push   %esi
    66a5:	53                   	push   %ebx
    66a6:	83 ec 2c             	sub    $0x2c,%esp
    66a9:	31 f6                	xor    %esi,%esi
    66ab:	8b 45 14             	mov    0x14(%ebp),%eax
    66ae:	8b 58 0c             	mov    0xc(%eax),%ebx
    66b1:	8b 78 08             	mov    0x8(%eax),%edi
    66b4:	85 db                	test   %ebx,%ebx
    66b6:	75 40                	jne    66f8 <remote_nic_unicast_set_mode+0x58>
    66b8:	8b 45 0c             	mov    0xc(%ebp),%eax
    66bb:	8b 40 48             	mov    0x48(%eax),%eax
    66be:	85 c0                	test   %eax,%eax
    66c0:	0f 84 da 00 00 00    	je     67a0 <remote_nic_unicast_set_mode+0x100>
    66c6:	8b 4d 08             	mov    0x8(%ebp),%ecx
    66c9:	53                   	push   %ebx
    66ca:	56                   	push   %esi
    66cb:	57                   	push   %edi
    66cc:	51                   	push   %ecx
    66cd:	ff d0                	call   *%eax
    66cf:	5b                   	pop    %ebx
    66d0:	5f                   	pop    %edi
    66d1:	50                   	push   %eax
    66d2:	8b 45 10             	mov    0x10(%ebp),%eax
    66d5:	50                   	push   %eax
    66d6:	e8 85 6a 00 00       	call   d160 <async_answer_0@plt>
    66db:	83 c4 10             	add    $0x10,%esp
    66de:	83 ec 0c             	sub    $0xc,%esp
    66e1:	56                   	push   %esi
    66e2:	e8 29 6e 00 00       	call   d510 <free@plt>
    66e7:	83 c4 10             	add    $0x10,%esp
    66ea:	8d 65 f4             	lea    -0xc(%ebp),%esp
    66ed:	5b                   	pop    %ebx
    66ee:	5e                   	pop    %esi
    66ef:	5f                   	pop    %edi
    66f0:	5d                   	pop    %ebp
    66f1:	c3                   	ret    
    66f2:	8d b6 00 00 00 00    	lea    0x0(%esi),%esi
    66f8:	50                   	push   %eax
    66f9:	50                   	push   %eax
    66fa:	8d 45 e0             	lea    -0x20(%ebp),%eax
    66fd:	50                   	push   %eax
    66fe:	8d 45 e4             	lea    -0x1c(%ebp),%eax
    6701:	50                   	push   %eax
    6702:	e8 f9 6d 00 00       	call   d500 <async_data_write_receive@plt>
    6707:	83 c4 10             	add    $0x10,%esp
    670a:	84 c0                	test   %al,%al
    670c:	0f 84 a6 00 00 00    	je     67b8 <remote_nic_unicast_set_mode+0x118>
    6712:	8d 04 5b             	lea    (%ebx,%ebx,2),%eax
    6715:	01 c0                	add    %eax,%eax
    6717:	3b 45 e0             	cmp    -0x20(%ebp),%eax
    671a:	74 2c                	je     6748 <remote_nic_unicast_set_mode+0xa8>
    671c:	50                   	push   %eax
    671d:	50                   	push   %eax
    671e:	8b 45 e4             	mov    -0x1c(%ebp),%eax
    6721:	6a fd                	push   $0xfffffffd
    6723:	50                   	push   %eax
    6724:	e8 37 6a 00 00       	call   d160 <async_answer_0@plt>
    6729:	8b 4d 10             	mov    0x10(%ebp),%ecx
    672c:	58                   	pop    %eax
    672d:	5a                   	pop    %edx
    672e:	6a fd                	push   $0xfffffffd
    6730:	51                   	push   %ecx
    6731:	e8 2a 6a 00 00       	call   d160 <async_answer_0@plt>
    6736:	83 c4 10             	add    $0x10,%esp
    6739:	8d 65 f4             	lea    -0xc(%ebp),%esp
    673c:	5b                   	pop    %ebx
    673d:	5e                   	pop    %esi
    673e:	5f                   	pop    %edi
    673f:	5d                   	pop    %ebp
    6740:	c3                   	ret    
    6741:	8d b4 26 00 00 00 00 	lea    0x0(%esi,%eiz,1),%esi
    6748:	83 ec 0c             	sub    $0xc,%esp
    674b:	50                   	push   %eax
    674c:	e8 cf 69 00 00       	call   d120 <malloc@plt>
    6751:	83 c4 10             	add    $0x10,%esp
    6754:	89 c2                	mov    %eax,%edx
    6756:	89 c6                	mov    %eax,%esi
    6758:	85 c0                	test   %eax,%eax
    675a:	74 7e                	je     67da <remote_nic_unicast_set_mode+0x13a>
    675c:	50                   	push   %eax
    675d:	8b 45 e0             	mov    -0x20(%ebp),%eax
    6760:	50                   	push   %eax
    6761:	8b 45 e4             	mov    -0x1c(%ebp),%eax
    6764:	52                   	push   %edx
    6765:	89 55 d4             	mov    %edx,-0x2c(%ebp)
    6768:	50                   	push   %eax
    6769:	e8 12 6d 00 00       	call   d480 <async_data_write_finalize@plt>
    676e:	83 c4 10             	add    $0x10,%esp
    6771:	85 c0                	test   %eax,%eax
    6773:	0f 84 3f ff ff ff    	je     66b8 <remote_nic_unicast_set_mode+0x18>
    6779:	50                   	push   %eax
    677a:	50                   	push   %eax
    677b:	8b 45 10             	mov    0x10(%ebp),%eax
    677e:	6a f2                	push   $0xfffffff2
    6780:	50                   	push   %eax
    6781:	e8 da 69 00 00       	call   d160 <async_answer_0@plt>
    6786:	8b 55 d4             	mov    -0x2c(%ebp),%edx
    6789:	89 14 24             	mov    %edx,(%esp)
    678c:	e8 7f 6d 00 00       	call   d510 <free@plt>
    6791:	83 c4 10             	add    $0x10,%esp
    6794:	e9 51 ff ff ff       	jmp    66ea <remote_nic_unicast_set_mode+0x4a>
    6799:	8d b4 26 00 00 00 00 	lea    0x0(%esi,%eiz,1),%esi
    67a0:	8b 55 10             	mov    0x10(%ebp),%edx
    67a3:	50                   	push   %eax
    67a4:	50                   	push   %eax
    67a5:	6a f5                	push   $0xfffffff5
    67a7:	52                   	push   %edx
    67a8:	e8 b3 69 00 00       	call   d160 <async_answer_0@plt>
    67ad:	83 c4 10             	add    $0x10,%esp
    67b0:	e9 29 ff ff ff       	jmp    66de <remote_nic_unicast_set_mode+0x3e>
    67b5:	8d 76 00             	lea    0x0(%esi),%esi
    67b8:	8b 75 e4             	mov    -0x1c(%ebp),%esi
    67bb:	53                   	push   %ebx
    67bc:	53                   	push   %ebx
    67bd:	6a f2                	push   $0xfffffff2
    67bf:	56                   	push   %esi
    67c0:	e8 9b 69 00 00       	call   d160 <async_answer_0@plt>
    67c5:	5f                   	pop    %edi
    67c6:	58                   	pop    %eax
    67c7:	8b 45 10             	mov    0x10(%ebp),%eax
    67ca:	6a f2                	push   $0xfffffff2
    67cc:	50                   	push   %eax
    67cd:	e8 8e 69 00 00       	call   d160 <async_answer_0@plt>
    67d2:	83 c4 10             	add    $0x10,%esp
    67d5:	e9 10 ff ff ff       	jmp    66ea <remote_nic_unicast_set_mode+0x4a>
    67da:	8b 4d e4             	mov    -0x1c(%ebp),%ecx
    67dd:	52                   	push   %edx
    67de:	52                   	push   %edx
    67df:	6a fe                	push   $0xfffffffe
    67e1:	51                   	push   %ecx
    67e2:	e8 79 69 00 00       	call   d160 <async_answer_0@plt>
    67e7:	8b 7d 10             	mov    0x10(%ebp),%edi
    67ea:	5b                   	pop    %ebx
    67eb:	5e                   	pop    %esi
    67ec:	6a fe                	push   $0xfffffffe
    67ee:	57                   	push   %edi
    67ef:	e8 6c 69 00 00       	call   d160 <async_answer_0@plt>
    67f4:	83 c4 10             	add    $0x10,%esp
    67f7:	e9 ee fe ff ff       	jmp    66ea <remote_nic_unicast_set_mode+0x4a>
    67fc:	8d 74 26 00          	lea    0x0(%esi,%eiz,1),%esi

00006800 <remote_nic_unicast_get_mode>:
    6800:	55                   	push   %ebp
    6801:	89 e5                	mov    %esp,%ebp
    6803:	57                   	push   %edi
    6804:	56                   	push   %esi
    6805:	53                   	push   %ebx
    6806:	83 ec 1c             	sub    $0x1c,%esp
    6809:	8b 45 0c             	mov    0xc(%ebp),%eax
    680c:	8b 40 44             	mov    0x44(%eax),%eax
    680f:	85 c0                	test   %eax,%eax
    6811:	0f 84 49 01 00 00    	je     6960 <remote_nic_unicast_get_mode+0x160>
    6817:	8b 45 14             	mov    0x14(%ebp),%eax
    681a:	8b 70 08             	mov    0x8(%eax),%esi
    681d:	85 f6                	test   %esi,%esi
    681f:	0f 84 db 00 00 00    	je     6900 <remote_nic_unicast_get_mode+0x100>
    6825:	83 ec 0c             	sub    $0xc,%esp
    6828:	8d 3c 76             	lea    (%esi,%esi,2),%edi
    682b:	01 ff                	add    %edi,%edi
    682d:	57                   	push   %edi
    682e:	e8 ed 68 00 00       	call   d120 <malloc@plt>
    6833:	83 c4 10             	add    $0x10,%esp
    6836:	89 c3                	mov    %eax,%ebx
    6838:	85 c0                	test   %eax,%eax
    683a:	0f 84 68 01 00 00    	je     69a8 <remote_nic_unicast_get_mode+0x1a8>
    6840:	50                   	push   %eax
    6841:	57                   	push   %edi
    6842:	6a 00                	push   $0x0
    6844:	53                   	push   %ebx
    6845:	e8 16 6b 00 00       	call   d360 <memset@plt>
    684a:	8d 45 dc             	lea    -0x24(%ebp),%eax
    684d:	89 04 24             	mov    %eax,(%esp)
    6850:	8d 45 d8             	lea    -0x28(%ebp),%eax
    6853:	53                   	push   %ebx
    6854:	56                   	push   %esi
    6855:	50                   	push   %eax
    6856:	8b 45 0c             	mov    0xc(%ebp),%eax
    6859:	8b 55 08             	mov    0x8(%ebp),%edx
    685c:	c7 45 d8 02 00 00 00 	movl   $0x2,-0x28(%ebp)
    6863:	c7 45 dc 00 00 00 00 	movl   $0x0,-0x24(%ebp)
    686a:	52                   	push   %edx
    686b:	ff 50 44             	call   *0x44(%eax)
    686e:	83 c4 20             	add    $0x20,%esp
    6871:	89 c6                	mov    %eax,%esi
    6873:	85 c0                	test   %eax,%eax
    6875:	0f 85 be 00 00 00    	jne    6939 <remote_nic_unicast_get_mode+0x139>
    687b:	8b 45 dc             	mov    -0x24(%ebp),%eax
    687e:	85 c0                	test   %eax,%eax
    6880:	0f 84 b3 00 00 00    	je     6939 <remote_nic_unicast_get_mode+0x139>
    6886:	50                   	push   %eax
    6887:	50                   	push   %eax
    6888:	8d 45 e4             	lea    -0x1c(%ebp),%eax
    688b:	50                   	push   %eax
    688c:	8d 45 e0             	lea    -0x20(%ebp),%eax
    688f:	50                   	push   %eax
    6890:	e8 db 6a 00 00       	call   d370 <async_data_read_receive@plt>
    6895:	83 c4 10             	add    $0x10,%esp
    6898:	84 c0                	test   %al,%al
    689a:	0f 84 d8 00 00 00    	je     6978 <remote_nic_unicast_get_mode+0x178>
    68a0:	8b 45 dc             	mov    -0x24(%ebp),%eax
    68a3:	8d 14 40             	lea    (%eax,%eax,2),%edx
    68a6:	8b 45 e4             	mov    -0x1c(%ebp),%eax
    68a9:	01 d2                	add    %edx,%edx
    68ab:	39 c2                	cmp    %eax,%edx
    68ad:	73 05                	jae    68b4 <remote_nic_unicast_get_mode+0xb4>
    68af:	89 55 e4             	mov    %edx,-0x1c(%ebp)
    68b2:	89 d0                	mov    %edx,%eax
    68b4:	39 c7                	cmp    %eax,%edi
    68b6:	73 05                	jae    68bd <remote_nic_unicast_get_mode+0xbd>
    68b8:	89 7d e4             	mov    %edi,-0x1c(%ebp)
    68bb:	89 f8                	mov    %edi,%eax
    68bd:	8b 75 e0             	mov    -0x20(%ebp),%esi
    68c0:	51                   	push   %ecx
    68c1:	50                   	push   %eax
    68c2:	53                   	push   %ebx
    68c3:	56                   	push   %esi
    68c4:	e8 17 68 00 00       	call   d0e0 <async_data_read_finalize@plt>
    68c9:	5f                   	pop    %edi
    68ca:	58                   	pop    %eax
    68cb:	8b 45 e0             	mov    -0x20(%ebp),%eax
    68ce:	6a f2                	push   $0xfffffff2
    68d0:	50                   	push   %eax
    68d1:	e8 8a 68 00 00       	call   d160 <async_answer_0@plt>
    68d6:	89 1c 24             	mov    %ebx,(%esp)
    68d9:	e8 32 6c 00 00       	call   d510 <free@plt>
    68de:	8b 45 dc             	mov    -0x24(%ebp),%eax
    68e1:	50                   	push   %eax
    68e2:	8b 45 d8             	mov    -0x28(%ebp),%eax
    68e5:	50                   	push   %eax
    68e6:	8b 45 10             	mov    0x10(%ebp),%eax
    68e9:	6a 00                	push   $0x0
    68eb:	50                   	push   %eax
    68ec:	e8 7f 69 00 00       	call   d270 <async_answer_2@plt>
    68f1:	83 c4 20             	add    $0x20,%esp
    68f4:	8d 65 f4             	lea    -0xc(%ebp),%esp
    68f7:	5b                   	pop    %ebx
    68f8:	5e                   	pop    %esi
    68f9:	5f                   	pop    %edi
    68fa:	5d                   	pop    %ebp
    68fb:	c3                   	ret    
    68fc:	8d 74 26 00          	lea    0x0(%esi,%eiz,1),%esi
    6900:	50                   	push   %eax
    6901:	6a 00                	push   $0x0
    6903:	6a 00                	push   $0x0
    6905:	6a 00                	push   $0x0
    6907:	e8 54 6a 00 00       	call   d360 <memset@plt>
    690c:	8d 45 dc             	lea    -0x24(%ebp),%eax
    690f:	89 04 24             	mov    %eax,(%esp)
    6912:	8d 45 d8             	lea    -0x28(%ebp),%eax
    6915:	6a 00                	push   $0x0
    6917:	6a 00                	push   $0x0
    6919:	50                   	push   %eax
    691a:	8b 45 0c             	mov    0xc(%ebp),%eax
    691d:	8b 55 08             	mov    0x8(%ebp),%edx
    6920:	c7 45 d8 02 00 00 00 	movl   $0x2,-0x28(%ebp)
    6927:	c7 45 dc 00 00 00 00 	movl   $0x0,-0x24(%ebp)
    692e:	52                   	push   %edx
    692f:	ff 50 44             	call   *0x44(%eax)
    6932:	31 db                	xor    %ebx,%ebx
    6934:	89 c6                	mov    %eax,%esi
    6936:	83 c4 20             	add    $0x20,%esp
    6939:	83 ec 0c             	sub    $0xc,%esp
    693c:	53                   	push   %ebx
    693d:	e8 ce 6b 00 00       	call   d510 <free@plt>
    6942:	8b 45 dc             	mov    -0x24(%ebp),%eax
    6945:	50                   	push   %eax
    6946:	8b 45 d8             	mov    -0x28(%ebp),%eax
    6949:	50                   	push   %eax
    694a:	8b 45 10             	mov    0x10(%ebp),%eax
    694d:	56                   	push   %esi
    694e:	50                   	push   %eax
    694f:	e8 1c 69 00 00       	call   d270 <async_answer_2@plt>
    6954:	83 c4 20             	add    $0x20,%esp
    6957:	8d 65 f4             	lea    -0xc(%ebp),%esp
    695a:	5b                   	pop    %ebx
    695b:	5e                   	pop    %esi
    695c:	5f                   	pop    %edi
    695d:	5d                   	pop    %ebp
    695e:	c3                   	ret    
    695f:	90                   	nop
    6960:	8b 7d 10             	mov    0x10(%ebp),%edi
    6963:	56                   	push   %esi
    6964:	56                   	push   %esi
    6965:	6a f5                	push   $0xfffffff5
    6967:	57                   	push   %edi
    6968:	e8 f3 67 00 00       	call   d160 <async_answer_0@plt>
    696d:	83 c4 10             	add    $0x10,%esp
    6970:	eb e5                	jmp    6957 <remote_nic_unicast_get_mode+0x157>
    6972:	8d b6 00 00 00 00    	lea    0x0(%esi),%esi
    6978:	8b 55 e0             	mov    -0x20(%ebp),%edx
    697b:	50                   	push   %eax
    697c:	50                   	push   %eax
    697d:	6a f2                	push   $0xfffffff2
    697f:	52                   	push   %edx
    6980:	e8 db 67 00 00       	call   d160 <async_answer_0@plt>
    6985:	8b 4d dc             	mov    -0x24(%ebp),%ecx
    6988:	8b 75 d8             	mov    -0x28(%ebp),%esi
    698b:	8b 7d 10             	mov    0x10(%ebp),%edi
    698e:	51                   	push   %ecx
    698f:	56                   	push   %esi
    6990:	6a 00                	push   $0x0
    6992:	57                   	push   %edi
    6993:	e8 d8 68 00 00       	call   d270 <async_answer_2@plt>
    6998:	83 c4 14             	add    $0x14,%esp
    699b:	53                   	push   %ebx
    699c:	e8 6f 6b 00 00       	call   d510 <free@plt>
    69a1:	83 c4 10             	add    $0x10,%esp
    69a4:	eb b1                	jmp    6957 <remote_nic_unicast_get_mode+0x157>
    69a6:	66 90                	xchg   %ax,%ax
    69a8:	8b 5d 10             	mov    0x10(%ebp),%ebx
    69ab:	51                   	push   %ecx
    69ac:	51                   	push   %ecx
    69ad:	6a fe                	push   $0xfffffffe
    69af:	53                   	push   %ebx
    69b0:	e8 ab 67 00 00       	call   d160 <async_answer_0@plt>
    69b5:	83 c4 10             	add    $0x10,%esp
    69b8:	eb 9d                	jmp    6957 <remote_nic_unicast_get_mode+0x157>
    69ba:	8d b6 00 00 00 00    	lea    0x0(%esi),%esi

000069c0 <remote_nic_get_pause>:
    69c0:	55                   	push   %ebp
    69c1:	89 e5                	mov    %esp,%ebp
    69c3:	83 ec 18             	sub    $0x18,%esp
    69c6:	8b 45 0c             	mov    0xc(%ebp),%eax
    69c9:	8b 40 3c             	mov    0x3c(%eax),%eax
    69cc:	85 c0                	test   %eax,%eax
    69ce:	74 38                	je     6a08 <remote_nic_get_pause+0x48>
    69d0:	8d 55 ee             	lea    -0x12(%ebp),%edx
    69d3:	52                   	push   %edx
    69d4:	8d 55 f4             	lea    -0xc(%ebp),%edx
    69d7:	52                   	push   %edx
    69d8:	8d 55 f0             	lea    -0x10(%ebp),%edx
    69db:	52                   	push   %edx
    69dc:	8b 55 08             	mov    0x8(%ebp),%edx
    69df:	52                   	push   %edx
    69e0:	ff d0                	call   *%eax
    69e2:	31 d2                	xor    %edx,%edx
    69e4:	8b 4d f4             	mov    -0xc(%ebp),%ecx
    69e7:	66 8b 55 ee          	mov    -0x12(%ebp),%dx
    69eb:	89 14 24             	mov    %edx,(%esp)
    69ee:	51                   	push   %ecx
    69ef:	8b 55 f0             	mov    -0x10(%ebp),%edx
    69f2:	8b 4d 10             	mov    0x10(%ebp),%ecx
    69f5:	52                   	push   %edx
    69f6:	50                   	push   %eax
    69f7:	51                   	push   %ecx
    69f8:	e8 53 6a 00 00       	call   d450 <async_answer_3@plt>
    69fd:	83 c4 20             	add    $0x20,%esp
    6a00:	c9                   	leave  
    6a01:	c3                   	ret    
    6a02:	8d b6 00 00 00 00    	lea    0x0(%esi),%esi
    6a08:	50                   	push   %eax
    6a09:	50                   	push   %eax
    6a0a:	8b 45 10             	mov    0x10(%ebp),%eax
    6a0d:	6a f5                	push   $0xfffffff5
    6a0f:	50                   	push   %eax
    6a10:	e8 4b 67 00 00       	call   d160 <async_answer_0@plt>
    6a15:	83 c4 10             	add    $0x10,%esp
    6a18:	c9                   	leave  
    6a19:	c3                   	ret    
    6a1a:	8d b6 00 00 00 00    	lea    0x0(%esi),%esi

00006a20 <remote_nic_get_operation_mode>:
    6a20:	55                   	push   %ebp
    6a21:	89 e5                	mov    %esp,%ebp
    6a23:	83 ec 18             	sub    $0x18,%esp
    6a26:	8b 45 0c             	mov    0xc(%ebp),%eax
    6a29:	8b 40 24             	mov    0x24(%eax),%eax
    6a2c:	85 c0                	test   %eax,%eax
    6a2e:	74 48                	je     6a78 <remote_nic_get_operation_mode+0x58>
    6a30:	8d 55 f4             	lea    -0xc(%ebp),%edx
    6a33:	c7 45 ec 00 00 00 00 	movl   $0x0,-0x14(%ebp)
    6a3a:	52                   	push   %edx
    6a3b:	8d 55 f0             	lea    -0x10(%ebp),%edx
    6a3e:	52                   	push   %edx
    6a3f:	8d 55 ec             	lea    -0x14(%ebp),%edx
    6a42:	52                   	push   %edx
    6a43:	c7 45 f0 00 00 00 00 	movl   $0x0,-0x10(%ebp)
    6a4a:	8b 55 08             	mov    0x8(%ebp),%edx
    6a4d:	c7 45 f4 00 00 00 00 	movl   $0x0,-0xc(%ebp)
    6a54:	52                   	push   %edx
    6a55:	ff d0                	call   *%eax
    6a57:	59                   	pop    %ecx
    6a58:	8b 55 f4             	mov    -0xc(%ebp),%edx
    6a5b:	8b 4d f0             	mov    -0x10(%ebp),%ecx
    6a5e:	52                   	push   %edx
    6a5f:	8b 55 ec             	mov    -0x14(%ebp),%edx
    6a62:	51                   	push   %ecx
    6a63:	8b 4d 10             	mov    0x10(%ebp),%ecx
    6a66:	52                   	push   %edx
    6a67:	50                   	push   %eax
    6a68:	51                   	push   %ecx
    6a69:	e8 e2 69 00 00       	call   d450 <async_answer_3@plt>
    6a6e:	83 c4 20             	add    $0x20,%esp
    6a71:	c9                   	leave  
    6a72:	c3                   	ret    
    6a73:	90                   	nop
    6a74:	8d 74 26 00          	lea    0x0(%esi,%eiz,1),%esi
    6a78:	50                   	push   %eax
    6a79:	50                   	push   %eax
    6a7a:	8b 45 10             	mov    0x10(%ebp),%eax
    6a7d:	6a f5                	push   $0xfffffff5
    6a7f:	50                   	push   %eax
    6a80:	e8 db 66 00 00       	call   d160 <async_answer_0@plt>
    6a85:	83 c4 10             	add    $0x10,%esp
    6a88:	c9                   	leave  
    6a89:	c3                   	ret    
    6a8a:	8d b6 00 00 00 00    	lea    0x0(%esi),%esi

00006a90 <remote_nic_autoneg_probe>:
    6a90:	55                   	push   %ebp
    6a91:	89 e5                	mov    %esp,%ebp
    6a93:	83 ec 18             	sub    $0x18,%esp
    6a96:	8b 45 0c             	mov    0xc(%ebp),%eax
    6a99:	8b 40 34             	mov    0x34(%eax),%eax
    6a9c:	85 c0                	test   %eax,%eax
    6a9e:	74 58                	je     6af8 <remote_nic_autoneg_probe+0x68>
    6aa0:	83 ec 0c             	sub    $0xc,%esp
    6aa3:	8d 55 f4             	lea    -0xc(%ebp),%edx
    6aa6:	c7 45 e8 00 00 00 00 	movl   $0x0,-0x18(%ebp)
    6aad:	c7 45 ec 00 00 00 00 	movl   $0x0,-0x14(%ebp)
    6ab4:	52                   	push   %edx
    6ab5:	8d 55 f0             	lea    -0x10(%ebp),%edx
    6ab8:	52                   	push   %edx
    6ab9:	8d 55 ec             	lea    -0x14(%ebp),%edx
    6abc:	52                   	push   %edx
    6abd:	8d 55 e8             	lea    -0x18(%ebp),%edx
    6ac0:	52                   	push   %edx
    6ac1:	c7 45 f0 03 00 00 00 	movl   $0x3,-0x10(%ebp)
    6ac8:	8b 55 08             	mov    0x8(%ebp),%edx
    6acb:	c7 45 f4 03 00 00 00 	movl   $0x3,-0xc(%ebp)
    6ad2:	52                   	push   %edx
    6ad3:	ff d0                	call   *%eax
    6ad5:	83 c4 18             	add    $0x18,%esp
    6ad8:	8b 4d f4             	mov    -0xc(%ebp),%ecx
    6adb:	8b 55 f0             	mov    -0x10(%ebp),%edx
    6ade:	51                   	push   %ecx
    6adf:	8b 4d ec             	mov    -0x14(%ebp),%ecx
    6ae2:	52                   	push   %edx
    6ae3:	8b 55 e8             	mov    -0x18(%ebp),%edx
    6ae6:	51                   	push   %ecx
    6ae7:	8b 4d 10             	mov    0x10(%ebp),%ecx
    6aea:	52                   	push   %edx
    6aeb:	50                   	push   %eax
    6aec:	51                   	push   %ecx
    6aed:	e8 ce 67 00 00       	call   d2c0 <async_answer_4@plt>
    6af2:	83 c4 20             	add    $0x20,%esp
    6af5:	c9                   	leave  
    6af6:	c3                   	ret    
    6af7:	90                   	nop
    6af8:	50                   	push   %eax
    6af9:	50                   	push   %eax
    6afa:	8b 45 10             	mov    0x10(%ebp),%eax
    6afd:	6a f5                	push   $0xfffffff5
    6aff:	50                   	push   %eax
    6b00:	e8 5b 66 00 00       	call   d160 <async_answer_0@plt>
    6b05:	83 c4 10             	add    $0x10,%esp
    6b08:	c9                   	leave  
    6b09:	c3                   	ret    
    6b0a:	8d b6 00 00 00 00    	lea    0x0(%esi),%esi

00006b10 <remote_nic_set_state>:
    6b10:	55                   	push   %ebp
    6b11:	89 e5                	mov    %esp,%ebp
    6b13:	53                   	push   %ebx
    6b14:	50                   	push   %eax
    6b15:	8b 45 0c             	mov    0xc(%ebp),%eax
    6b18:	8b 55 08             	mov    0x8(%ebp),%edx
    6b1b:	8b 5d 10             	mov    0x10(%ebp),%ebx
    6b1e:	8b 4d 14             	mov    0x14(%ebp),%ecx
    6b21:	8b 40 0c             	mov    0xc(%eax),%eax
    6b24:	85 c0                	test   %eax,%eax
    6b26:	74 1c                	je     6b44 <remote_nic_set_state+0x34>
    6b28:	83 ec 08             	sub    $0x8,%esp
    6b2b:	8b 49 08             	mov    0x8(%ecx),%ecx
    6b2e:	51                   	push   %ecx
    6b2f:	52                   	push   %edx
    6b30:	ff d0                	call   *%eax
    6b32:	89 5d 08             	mov    %ebx,0x8(%ebp)
    6b35:	83 c4 10             	add    $0x10,%esp
    6b38:	8b 5d fc             	mov    -0x4(%ebp),%ebx
    6b3b:	89 45 0c             	mov    %eax,0xc(%ebp)
    6b3e:	c9                   	leave  
    6b3f:	e9 1c 66 00 00       	jmp    d160 <async_answer_0@plt>
    6b44:	53                   	push   %ebx
    6b45:	68 69 05 00 00       	push   $0x569
    6b4a:	68 44 c9 00 00       	push   $0xc944
    6b4f:	68 70 c9 00 00       	push   $0xc970
    6b54:	e8 87 66 00 00       	call   d1e0 <assert_abort@plt>
    6b59:	8d b4 26 00 00 00 00 	lea    0x0(%esi,%eiz,1),%esi

00006b60 <remote_nic_callback_create>:
    6b60:	55                   	push   %ebp
    6b61:	89 e5                	mov    %esp,%ebp
    6b63:	53                   	push   %ebx
    6b64:	52                   	push   %edx
    6b65:	8b 45 0c             	mov    0xc(%ebp),%eax
    6b68:	8b 55 08             	mov    0x8(%ebp),%edx
    6b6b:	8b 5d 10             	mov    0x10(%ebp),%ebx
    6b6e:	8b 40 04             	mov    0x4(%eax),%eax
    6b71:	85 c0                	test   %eax,%eax
    6b73:	74 18                	je     6b8d <remote_nic_callback_create+0x2d>
    6b75:	83 ec 0c             	sub    $0xc,%esp
    6b78:	52                   	push   %edx
    6b79:	ff d0                	call   *%eax
    6b7b:	89 5d 08             	mov    %ebx,0x8(%ebp)
    6b7e:	83 c4 10             	add    $0x10,%esp
    6b81:	8b 5d fc             	mov    -0x4(%ebp),%ebx
    6b84:	89 45 0c             	mov    %eax,0xc(%ebp)
    6b87:	c9                   	leave  
    6b88:	e9 d3 65 00 00       	jmp    d160 <async_answer_0@plt>
    6b8d:	50                   	push   %eax
    6b8e:	68 53 05 00 00       	push   $0x553
    6b93:	68 44 c9 00 00       	push   $0xc944
    6b98:	68 85 c9 00 00       	push   $0xc985
    6b9d:	e8 3e 66 00 00       	call   d1e0 <assert_abort@plt>
    6ba2:	8d b4 26 00 00 00 00 	lea    0x0(%esi,%eiz,1),%esi
    6ba9:	8d bc 27 00 00 00 00 	lea    0x0(%edi,%eiz,1),%edi

00006bb0 <remote_nic_get_state>:
    6bb0:	55                   	push   %ebp
    6bb1:	89 e5                	mov    %esp,%ebp
    6bb3:	83 ec 18             	sub    $0x18,%esp
    6bb6:	8b 45 0c             	mov    0xc(%ebp),%eax
    6bb9:	8b 40 08             	mov    0x8(%eax),%eax
    6bbc:	85 c0                	test   %eax,%eax
    6bbe:	74 29                	je     6be9 <remote_nic_get_state+0x39>
    6bc0:	8b 4d 08             	mov    0x8(%ebp),%ecx
    6bc3:	c7 45 f4 03 00 00 00 	movl   $0x3,-0xc(%ebp)
    6bca:	52                   	push   %edx
    6bcb:	52                   	push   %edx
    6bcc:	8d 55 f4             	lea    -0xc(%ebp),%edx
    6bcf:	52                   	push   %edx
    6bd0:	51                   	push   %ecx
    6bd1:	ff d0                	call   *%eax
    6bd3:	83 c4 0c             	add    $0xc,%esp
    6bd6:	8b 55 f4             	mov    -0xc(%ebp),%edx
    6bd9:	8b 4d 10             	mov    0x10(%ebp),%ecx
    6bdc:	52                   	push   %edx
    6bdd:	50                   	push   %eax
    6bde:	51                   	push   %ecx
    6bdf:	e8 1c 68 00 00       	call   d400 <async_answer_1@plt>
    6be4:	83 c4 10             	add    $0x10,%esp
    6be7:	c9                   	leave  
    6be8:	c3                   	ret    
    6be9:	50                   	push   %eax
    6bea:	68 5d 05 00 00       	push   $0x55d
    6bef:	68 44 c9 00 00       	push   $0xc944
    6bf4:	68 a0 c9 00 00       	push   $0xc9a0
    6bf9:	e8 e2 65 00 00       	call   d1e0 <assert_abort@plt>
    6bfe:	66 90                	xchg   %ax,%ax

00006c00 <remote_nic_send_frame>:
    6c00:	55                   	push   %ebp
    6c01:	89 e5                	mov    %esp,%ebp
    6c03:	53                   	push   %ebx
    6c04:	83 ec 14             	sub    $0x14,%esp
    6c07:	8b 5d 0c             	mov    0xc(%ebp),%ebx
    6c0a:	8b 13                	mov    (%ebx),%edx
    6c0c:	85 d2                	test   %edx,%edx
    6c0e:	74 65                	je     6c75 <remote_nic_send_frame+0x75>
    6c10:	50                   	push   %eax
    6c11:	50                   	push   %eax
    6c12:	8d 45 f4             	lea    -0xc(%ebp),%eax
    6c15:	50                   	push   %eax
    6c16:	8d 45 f0             	lea    -0x10(%ebp),%eax
    6c19:	6a 00                	push   $0x0
    6c1b:	6a 00                	push   $0x0
    6c1d:	6a 00                	push   $0x0
    6c1f:	6a 00                	push   $0x0
    6c21:	50                   	push   %eax
    6c22:	e8 69 68 00 00       	call   d490 <async_data_write_accept@plt>
    6c27:	83 c4 20             	add    $0x20,%esp
    6c2a:	85 c0                	test   %eax,%eax
    6c2c:	75 32                	jne    6c60 <remote_nic_send_frame+0x60>
    6c2e:	8b 55 f4             	mov    -0xc(%ebp),%edx
    6c31:	8b 4d f0             	mov    -0x10(%ebp),%ecx
    6c34:	50                   	push   %eax
    6c35:	8b 45 08             	mov    0x8(%ebp),%eax
    6c38:	52                   	push   %edx
    6c39:	51                   	push   %ecx
    6c3a:	50                   	push   %eax
    6c3b:	ff 13                	call   *(%ebx)
    6c3d:	8b 5d 10             	mov    0x10(%ebp),%ebx
    6c40:	5a                   	pop    %edx
    6c41:	59                   	pop    %ecx
    6c42:	50                   	push   %eax
    6c43:	53                   	push   %ebx
    6c44:	e8 17 65 00 00       	call   d160 <async_answer_0@plt>
    6c49:	58                   	pop    %eax
    6c4a:	8b 45 f0             	mov    -0x10(%ebp),%eax
    6c4d:	50                   	push   %eax
    6c4e:	e8 bd 68 00 00       	call   d510 <free@plt>
    6c53:	83 c4 10             	add    $0x10,%esp
    6c56:	8b 5d fc             	mov    -0x4(%ebp),%ebx
    6c59:	c9                   	leave  
    6c5a:	c3                   	ret    
    6c5b:	90                   	nop
    6c5c:	8d 74 26 00          	lea    0x0(%esi,%eiz,1),%esi
    6c60:	50                   	push   %eax
    6c61:	50                   	push   %eax
    6c62:	8b 45 10             	mov    0x10(%ebp),%eax
    6c65:	6a f2                	push   $0xfffffff2
    6c67:	50                   	push   %eax
    6c68:	e8 f3 64 00 00       	call   d160 <async_answer_0@plt>
    6c6d:	83 c4 10             	add    $0x10,%esp
    6c70:	8b 5d fc             	mov    -0x4(%ebp),%ebx
    6c73:	c9                   	leave  
    6c74:	c3                   	ret    
    6c75:	50                   	push   %eax
    6c76:	68 3e 05 00 00       	push   $0x53e
    6c7b:	68 44 c9 00 00       	push   $0xc944
    6c80:	68 b5 c9 00 00       	push   $0xc9b5
    6c85:	e8 56 65 00 00       	call   d1e0 <assert_abort@plt>
    6c8a:	8d b6 00 00 00 00    	lea    0x0(%esi),%esi

00006c90 <nic_send_frame>:
    6c90:	55                   	push   %ebp
    6c91:	89 e5                	mov    %esp,%ebp
    6c93:	56                   	push   %esi
    6c94:	53                   	push   %ebx
    6c95:	83 ec 3c             	sub    $0x3c,%esp
    6c98:	8b 55 08             	mov    0x8(%ebp),%edx
    6c9b:	52                   	push   %edx
    6c9c:	e8 6f 67 00 00       	call   d410 <async_exchange_begin@plt>
    6ca1:	83 c4 0c             	add    $0xc,%esp
    6ca4:	89 c3                	mov    %eax,%ebx
    6ca6:	8d 45 d4             	lea    -0x2c(%ebp),%eax
    6ca9:	50                   	push   %eax
    6caa:	6a 00                	push   $0x0
    6cac:	6a 00                	push   $0x0
    6cae:	6a 00                	push   $0x0
    6cb0:	6a 00                	push   $0x0
    6cb2:	68 05 04 00 00       	push   $0x405
    6cb7:	53                   	push   %ebx
    6cb8:	e8 b3 64 00 00       	call   d170 <async_send_fast@plt>
    6cbd:	83 c4 1c             	add    $0x1c,%esp
    6cc0:	8b 4d 10             	mov    0x10(%ebp),%ecx
    6cc3:	89 c6                	mov    %eax,%esi
    6cc5:	8b 45 0c             	mov    0xc(%ebp),%eax
    6cc8:	51                   	push   %ecx
    6cc9:	50                   	push   %eax
    6cca:	53                   	push   %ebx
    6ccb:	e8 e0 63 00 00       	call   d0b0 <async_data_write_start@plt>
    6cd0:	89 1c 24             	mov    %ebx,(%esp)
    6cd3:	89 45 d0             	mov    %eax,-0x30(%ebp)
    6cd6:	e8 f5 64 00 00       	call   d1d0 <async_exchange_end@plt>
    6cdb:	8b 45 d0             	mov    -0x30(%ebp),%eax
    6cde:	83 c4 10             	add    $0x10,%esp
    6ce1:	85 c0                	test   %eax,%eax
    6ce3:	75 1b                	jne    6d00 <nic_send_frame+0x70>
    6ce5:	50                   	push   %eax
    6ce6:	50                   	push   %eax
    6ce7:	8d 45 d0             	lea    -0x30(%ebp),%eax
    6cea:	50                   	push   %eax
    6ceb:	56                   	push   %esi
    6cec:	e8 7f 63 00 00       	call   d070 <async_wait_for@plt>
    6cf1:	8b 45 d0             	mov    -0x30(%ebp),%eax
    6cf4:	83 c4 10             	add    $0x10,%esp
    6cf7:	8d 65 f8             	lea    -0x8(%ebp),%esp
    6cfa:	5b                   	pop    %ebx
    6cfb:	5e                   	pop    %esi
    6cfc:	5d                   	pop    %ebp
    6cfd:	c3                   	ret    
    6cfe:	66 90                	xchg   %ax,%ax
    6d00:	83 ec 0c             	sub    $0xc,%esp
    6d03:	56                   	push   %esi
    6d04:	e8 97 67 00 00       	call   d4a0 <async_forget@plt>
    6d09:	8b 45 d0             	mov    -0x30(%ebp),%eax
    6d0c:	83 c4 10             	add    $0x10,%esp
    6d0f:	8d 65 f8             	lea    -0x8(%ebp),%esp
    6d12:	5b                   	pop    %ebx
    6d13:	5e                   	pop    %esi
    6d14:	5d                   	pop    %ebp
    6d15:	c3                   	ret    
    6d16:	8d 76 00             	lea    0x0(%esi),%esi
    6d19:	8d bc 27 00 00 00 00 	lea    0x0(%edi,%eiz,1),%edi

00006d20 <nic_callback_create>:
    6d20:	55                   	push   %ebp
    6d21:	89 e5                	mov    %esp,%ebp
    6d23:	56                   	push   %esi
    6d24:	53                   	push   %ebx
    6d25:	83 ec 4c             	sub    $0x4c,%esp
    6d28:	8b 4d 08             	mov    0x8(%ebp),%ecx
    6d2b:	51                   	push   %ecx
    6d2c:	e8 df 66 00 00       	call   d410 <async_exchange_begin@plt>
    6d31:	83 c4 0c             	add    $0xc,%esp
    6d34:	89 c3                	mov    %eax,%ebx
    6d36:	8d 45 d4             	lea    -0x2c(%ebp),%eax
    6d39:	50                   	push   %eax
    6d3a:	6a 00                	push   $0x0
    6d3c:	6a 00                	push   $0x0
    6d3e:	6a 00                	push   $0x0
    6d40:	6a 01                	push   $0x1
    6d42:	68 05 04 00 00       	push   $0x405
    6d47:	53                   	push   %ebx
    6d48:	e8 23 64 00 00       	call   d170 <async_send_fast@plt>
    6d4d:	83 c4 1c             	add    $0x1c,%esp
    6d50:	89 c6                	mov    %eax,%esi
    6d52:	8d 45 d0             	lea    -0x30(%ebp),%eax
    6d55:	50                   	push   %eax
    6d56:	8b 45 10             	mov    0x10(%ebp),%eax
    6d59:	50                   	push   %eax
    6d5a:	8b 45 0c             	mov    0xc(%ebp),%eax
    6d5d:	50                   	push   %eax
    6d5e:	6a 00                	push   $0x0
    6d60:	6a 00                	push   $0x0
    6d62:	68 e5 4e 8f 41       	push   $0x418f4ee5
    6d67:	53                   	push   %ebx
    6d68:	e8 b3 65 00 00       	call   d320 <async_create_callback_port@plt>
    6d6d:	83 c4 20             	add    $0x20,%esp
    6d70:	85 c0                	test   %eax,%eax
    6d72:	75 24                	jne    6d98 <nic_callback_create+0x78>
    6d74:	83 ec 0c             	sub    $0xc,%esp
    6d77:	53                   	push   %ebx
    6d78:	e8 53 64 00 00       	call   d1d0 <async_exchange_end@plt>
    6d7d:	58                   	pop    %eax
    6d7e:	8d 45 cc             	lea    -0x34(%ebp),%eax
    6d81:	5a                   	pop    %edx
    6d82:	50                   	push   %eax
    6d83:	56                   	push   %esi
    6d84:	e8 e7 62 00 00       	call   d070 <async_wait_for@plt>
    6d89:	8b 45 cc             	mov    -0x34(%ebp),%eax
    6d8c:	83 c4 10             	add    $0x10,%esp
    6d8f:	8d 65 f8             	lea    -0x8(%ebp),%esp
    6d92:	5b                   	pop    %ebx
    6d93:	5e                   	pop    %esi
    6d94:	5d                   	pop    %ebp
    6d95:	c3                   	ret    
    6d96:	66 90                	xchg   %ax,%ax
    6d98:	83 ec 0c             	sub    $0xc,%esp
    6d9b:	89 45 c4             	mov    %eax,-0x3c(%ebp)
    6d9e:	56                   	push   %esi
    6d9f:	e8 fc 66 00 00       	call   d4a0 <async_forget@plt>
    6da4:	8b 45 c4             	mov    -0x3c(%ebp),%eax
    6da7:	83 c4 10             	add    $0x10,%esp
    6daa:	8d 65 f8             	lea    -0x8(%ebp),%esp
    6dad:	5b                   	pop    %ebx
    6dae:	5e                   	pop    %esi
    6daf:	5d                   	pop    %ebp
    6db0:	c3                   	ret    
    6db1:	eb 0d                	jmp    6dc0 <nic_get_state>
    6db3:	90                   	nop
    6db4:	90                   	nop
    6db5:	90                   	nop
    6db6:	90                   	nop
    6db7:	90                   	nop
    6db8:	90                   	nop
    6db9:	90                   	nop
    6dba:	90                   	nop
    6dbb:	90                   	nop
    6dbc:	90                   	nop
    6dbd:	90                   	nop
    6dbe:	90                   	nop
    6dbf:	90                   	nop

00006dc0 <nic_get_state>:
    6dc0:	55                   	push   %ebp
    6dc1:	89 e5                	mov    %esp,%ebp
    6dc3:	56                   	push   %esi
    6dc4:	53                   	push   %ebx
    6dc5:	83 ec 20             	sub    $0x20,%esp
    6dc8:	8b 5d 0c             	mov    0xc(%ebp),%ebx
    6dcb:	85 db                	test   %ebx,%ebx
    6dcd:	74 4b                	je     6e1a <nic_get_state+0x5a>
    6dcf:	83 ec 0c             	sub    $0xc,%esp
    6dd2:	8b 45 08             	mov    0x8(%ebp),%eax
    6dd5:	50                   	push   %eax
    6dd6:	e8 35 66 00 00       	call   d410 <async_exchange_begin@plt>
    6ddb:	83 c4 0c             	add    $0xc,%esp
    6dde:	89 c6                	mov    %eax,%esi
    6de0:	8d 45 f4             	lea    -0xc(%ebp),%eax
    6de3:	6a 00                	push   $0x0
    6de5:	6a 00                	push   $0x0
    6de7:	6a 00                	push   $0x0
    6de9:	6a 00                	push   $0x0
    6deb:	50                   	push   %eax
    6dec:	6a 00                	push   $0x0
    6dee:	6a 00                	push   $0x0
    6df0:	6a 00                	push   $0x0
    6df2:	6a 02                	push   $0x2
    6df4:	68 05 04 00 00       	push   $0x405
    6df9:	56                   	push   %esi
    6dfa:	e8 51 63 00 00       	call   d150 <async_req_fast@plt>
    6dff:	83 c4 24             	add    $0x24,%esp
    6e02:	89 45 e4             	mov    %eax,-0x1c(%ebp)
    6e05:	56                   	push   %esi
    6e06:	e8 c5 63 00 00       	call   d1d0 <async_exchange_end@plt>
    6e0b:	8b 55 f4             	mov    -0xc(%ebp),%edx
    6e0e:	8b 45 e4             	mov    -0x1c(%ebp),%eax
    6e11:	89 13                	mov    %edx,(%ebx)
    6e13:	8d 65 f8             	lea    -0x8(%ebp),%esp
    6e16:	5b                   	pop    %ebx
    6e17:	5e                   	pop    %esi
    6e18:	5d                   	pop    %ebp
    6e19:	c3                   	ret    
    6e1a:	52                   	push   %edx
    6e1b:	68 a2 00 00 00       	push   $0xa2
    6e20:	68 44 c9 00 00       	push   $0xc944
    6e25:	68 e3 c9 00 00       	push   $0xc9e3
    6e2a:	e8 b1 63 00 00       	call   d1e0 <assert_abort@plt>
    6e2f:	90                   	nop

00006e30 <nic_set_state>:
    6e30:	55                   	push   %ebp
    6e31:	89 e5                	mov    %esp,%ebp
    6e33:	53                   	push   %ebx
    6e34:	83 ec 20             	sub    $0x20,%esp
    6e37:	8b 45 08             	mov    0x8(%ebp),%eax
    6e3a:	50                   	push   %eax
    6e3b:	e8 d0 65 00 00       	call   d410 <async_exchange_begin@plt>
    6e40:	83 c4 0c             	add    $0xc,%esp
    6e43:	8b 55 0c             	mov    0xc(%ebp),%edx
    6e46:	89 c3                	mov    %eax,%ebx
    6e48:	6a 00                	push   $0x0
    6e4a:	6a 00                	push   $0x0
    6e4c:	6a 00                	push   $0x0
    6e4e:	6a 00                	push   $0x0
    6e50:	6a 00                	push   $0x0
    6e52:	6a 00                	push   $0x0
    6e54:	6a 00                	push   $0x0
    6e56:	52                   	push   %edx
    6e57:	6a 03                	push   $0x3
    6e59:	68 05 04 00 00       	push   $0x405
    6e5e:	50                   	push   %eax
    6e5f:	e8 ec 62 00 00       	call   d150 <async_req_fast@plt>
    6e64:	83 c4 24             	add    $0x24,%esp
    6e67:	89 45 f4             	mov    %eax,-0xc(%ebp)
    6e6a:	53                   	push   %ebx
    6e6b:	e8 60 63 00 00       	call   d1d0 <async_exchange_end@plt>
    6e70:	8b 45 f4             	mov    -0xc(%ebp),%eax
    6e73:	8b 5d fc             	mov    -0x4(%ebp),%ebx
    6e76:	c9                   	leave  
    6e77:	c3                   	ret    
    6e78:	90                   	nop
    6e79:	8d b4 26 00 00 00 00 	lea    0x0(%esi,%eiz,1),%esi

00006e80 <nic_get_address>:
    6e80:	55                   	push   %ebp
    6e81:	89 e5                	mov    %esp,%ebp
    6e83:	57                   	push   %edi
    6e84:	56                   	push   %esi
    6e85:	53                   	push   %ebx
    6e86:	83 ec 2c             	sub    $0x2c,%esp
    6e89:	8b 75 0c             	mov    0xc(%ebp),%esi
    6e8c:	85 f6                	test   %esi,%esi
    6e8e:	74 60                	je     6ef0 <nic_get_address+0x70>
    6e90:	83 ec 0c             	sub    $0xc,%esp
    6e93:	8b 45 08             	mov    0x8(%ebp),%eax
    6e96:	50                   	push   %eax
    6e97:	e8 74 65 00 00       	call   d410 <async_exchange_begin@plt>
    6e9c:	83 c4 0c             	add    $0xc,%esp
    6e9f:	89 c3                	mov    %eax,%ebx
    6ea1:	6a 00                	push   $0x0
    6ea3:	6a 00                	push   $0x0
    6ea5:	6a 00                	push   $0x0
    6ea7:	6a 00                	push   $0x0
    6ea9:	6a 04                	push   $0x4
    6eab:	68 05 04 00 00       	push   $0x405
    6eb0:	50                   	push   %eax
    6eb1:	e8 ba 62 00 00       	call   d170 <async_send_fast@plt>
    6eb6:	83 c4 1c             	add    $0x1c,%esp
    6eb9:	89 c7                	mov    %eax,%edi
    6ebb:	6a 06                	push   $0x6
    6ebd:	56                   	push   %esi
    6ebe:	53                   	push   %ebx
    6ebf:	e8 bc 64 00 00       	call   d380 <async_data_read_start@plt>
    6ec4:	89 1c 24             	mov    %ebx,(%esp)
    6ec7:	89 45 d4             	mov    %eax,-0x2c(%ebp)
    6eca:	e8 01 63 00 00       	call   d1d0 <async_exchange_end@plt>
    6ecf:	5a                   	pop    %edx
    6ed0:	8d 55 e4             	lea    -0x1c(%ebp),%edx
    6ed3:	59                   	pop    %ecx
    6ed4:	52                   	push   %edx
    6ed5:	57                   	push   %edi
    6ed6:	e8 95 61 00 00       	call   d070 <async_wait_for@plt>
    6edb:	8b 45 d4             	mov    -0x2c(%ebp),%eax
    6ede:	83 c4 10             	add    $0x10,%esp
    6ee1:	85 c0                	test   %eax,%eax
    6ee3:	75 03                	jne    6ee8 <nic_get_address+0x68>
    6ee5:	8b 45 e4             	mov    -0x1c(%ebp),%eax
    6ee8:	8d 65 f4             	lea    -0xc(%ebp),%esp
    6eeb:	5b                   	pop    %ebx
    6eec:	5e                   	pop    %esi
    6eed:	5f                   	pop    %edi
    6eee:	5d                   	pop    %ebp
    6eef:	c3                   	ret    
    6ef0:	53                   	push   %ebx
    6ef1:	68 cc 00 00 00       	push   $0xcc
    6ef6:	68 44 c9 00 00       	push   $0xc944
    6efb:	68 68 c9 00 00       	push   $0xc968
    6f00:	e8 db 62 00 00       	call   d1e0 <assert_abort@plt>
    6f05:	8d 74 26 00          	lea    0x0(%esi,%eiz,1),%esi
    6f09:	8d bc 27 00 00 00 00 	lea    0x0(%edi,%eiz,1),%edi

00006f10 <nic_set_address>:
    6f10:	55                   	push   %ebp
    6f11:	89 e5                	mov    %esp,%ebp
    6f13:	57                   	push   %edi
    6f14:	56                   	push   %esi
    6f15:	53                   	push   %ebx
    6f16:	83 ec 2c             	sub    $0x2c,%esp
    6f19:	8b 75 0c             	mov    0xc(%ebp),%esi
    6f1c:	85 f6                	test   %esi,%esi
    6f1e:	74 60                	je     6f80 <nic_set_address+0x70>
    6f20:	83 ec 0c             	sub    $0xc,%esp
    6f23:	8b 45 08             	mov    0x8(%ebp),%eax
    6f26:	50                   	push   %eax
    6f27:	e8 e4 64 00 00       	call   d410 <async_exchange_begin@plt>
    6f2c:	83 c4 0c             	add    $0xc,%esp
    6f2f:	89 c3                	mov    %eax,%ebx
    6f31:	6a 00                	push   $0x0
    6f33:	6a 00                	push   $0x0
    6f35:	6a 00                	push   $0x0
    6f37:	6a 00                	push   $0x0
    6f39:	6a 05                	push   $0x5
    6f3b:	68 05 04 00 00       	push   $0x405
    6f40:	50                   	push   %eax
    6f41:	e8 2a 62 00 00       	call   d170 <async_send_fast@plt>
    6f46:	83 c4 1c             	add    $0x1c,%esp
    6f49:	89 c7                	mov    %eax,%edi
    6f4b:	6a 06                	push   $0x6
    6f4d:	56                   	push   %esi
    6f4e:	53                   	push   %ebx
    6f4f:	e8 5c 61 00 00       	call   d0b0 <async_data_write_start@plt>
    6f54:	89 1c 24             	mov    %ebx,(%esp)
    6f57:	89 45 d4             	mov    %eax,-0x2c(%ebp)
    6f5a:	e8 71 62 00 00       	call   d1d0 <async_exchange_end@plt>
    6f5f:	5a                   	pop    %edx
    6f60:	8d 55 e4             	lea    -0x1c(%ebp),%edx
    6f63:	59                   	pop    %ecx
    6f64:	52                   	push   %edx
    6f65:	57                   	push   %edi
    6f66:	e8 05 61 00 00       	call   d070 <async_wait_for@plt>
    6f6b:	8b 45 d4             	mov    -0x2c(%ebp),%eax
    6f6e:	83 c4 10             	add    $0x10,%esp
    6f71:	85 c0                	test   %eax,%eax
    6f73:	75 03                	jne    6f78 <nic_set_address+0x68>
    6f75:	8b 45 e4             	mov    -0x1c(%ebp),%eax
    6f78:	8d 65 f4             	lea    -0xc(%ebp),%esp
    6f7b:	5b                   	pop    %ebx
    6f7c:	5e                   	pop    %esi
    6f7d:	5f                   	pop    %edi
    6f7e:	5d                   	pop    %ebp
    6f7f:	c3                   	ret    
    6f80:	53                   	push   %ebx
    6f81:	68 e7 00 00 00       	push   $0xe7
    6f86:	68 44 c9 00 00       	push   $0xc944
    6f8b:	68 68 c9 00 00       	push   $0xc968
    6f90:	e8 4b 62 00 00       	call   d1e0 <assert_abort@plt>
    6f95:	8d 74 26 00          	lea    0x0(%esi,%eiz,1),%esi
    6f99:	8d bc 27 00 00 00 00 	lea    0x0(%edi,%eiz,1),%edi

00006fa0 <nic_get_stats>:
    6fa0:	55                   	push   %ebp
    6fa1:	89 e5                	mov    %esp,%ebp
    6fa3:	56                   	push   %esi
    6fa4:	53                   	push   %ebx
    6fa5:	83 ec 10             	sub    $0x10,%esp
    6fa8:	8b 75 0c             	mov    0xc(%ebp),%esi
    6fab:	85 f6                	test   %esi,%esi
    6fad:	74 72                	je     7021 <nic_get_stats+0x81>
    6faf:	83 ec 0c             	sub    $0xc,%esp
    6fb2:	8b 55 08             	mov    0x8(%ebp),%edx
    6fb5:	52                   	push   %edx
    6fb6:	e8 55 64 00 00       	call   d410 <async_exchange_begin@plt>
    6fbb:	83 c4 0c             	add    $0xc,%esp
    6fbe:	89 c3                	mov    %eax,%ebx
    6fc0:	6a 00                	push   $0x0
    6fc2:	6a 00                	push   $0x0
    6fc4:	6a 00                	push   $0x0
    6fc6:	6a 00                	push   $0x0
    6fc8:	6a 00                	push   $0x0
    6fca:	6a 00                	push   $0x0
    6fcc:	6a 00                	push   $0x0
    6fce:	6a 00                	push   $0x0
    6fd0:	6a 06                	push   $0x6
    6fd2:	68 05 04 00 00       	push   $0x405
    6fd7:	50                   	push   %eax
    6fd8:	e8 73 61 00 00       	call   d150 <async_req_fast@plt>
    6fdd:	83 c4 30             	add    $0x30,%esp
    6fe0:	85 c0                	test   %eax,%eax
    6fe2:	75 24                	jne    7008 <nic_get_stats+0x68>
    6fe4:	50                   	push   %eax
    6fe5:	6a 6c                	push   $0x6c
    6fe7:	56                   	push   %esi
    6fe8:	53                   	push   %ebx
    6fe9:	e8 92 63 00 00       	call   d380 <async_data_read_start@plt>
    6fee:	89 1c 24             	mov    %ebx,(%esp)
    6ff1:	89 45 f4             	mov    %eax,-0xc(%ebp)
    6ff4:	e8 d7 61 00 00       	call   d1d0 <async_exchange_end@plt>
    6ff9:	8b 45 f4             	mov    -0xc(%ebp),%eax
    6ffc:	83 c4 10             	add    $0x10,%esp
    6fff:	8d 65 f8             	lea    -0x8(%ebp),%esp
    7002:	5b                   	pop    %ebx
    7003:	5e                   	pop    %esi
    7004:	5d                   	pop    %ebp
    7005:	c3                   	ret    
    7006:	66 90                	xchg   %ax,%ax
    7008:	83 ec 0c             	sub    $0xc,%esp
    700b:	89 45 f4             	mov    %eax,-0xc(%ebp)
    700e:	53                   	push   %ebx
    700f:	e8 bc 61 00 00       	call   d1d0 <async_exchange_end@plt>
    7014:	8b 45 f4             	mov    -0xc(%ebp),%eax
    7017:	83 c4 10             	add    $0x10,%esp
    701a:	8d 65 f8             	lea    -0x8(%ebp),%esp
    701d:	5b                   	pop    %ebx
    701e:	5e                   	pop    %esi
    701f:	5d                   	pop    %ebp
    7020:	c3                   	ret    
    7021:	51                   	push   %ecx
    7022:	68 02 01 00 00       	push   $0x102
    7027:	68 44 c9 00 00       	push   $0xc944
    702c:	68 cb c9 00 00       	push   $0xc9cb
    7031:	e8 aa 61 00 00       	call   d1e0 <assert_abort@plt>
    7036:	8d 76 00             	lea    0x0(%esi),%esi
    7039:	8d bc 27 00 00 00 00 	lea    0x0(%edi,%eiz,1),%edi

00007040 <nic_get_device_info>:
    7040:	55                   	push   %ebp
    7041:	89 e5                	mov    %esp,%ebp
    7043:	57                   	push   %edi
    7044:	56                   	push   %esi
    7045:	53                   	push   %ebx
    7046:	83 ec 2c             	sub    $0x2c,%esp
    7049:	8b 75 0c             	mov    0xc(%ebp),%esi
    704c:	85 f6                	test   %esi,%esi
    704e:	74 63                	je     70b3 <nic_get_device_info+0x73>
    7050:	83 ec 0c             	sub    $0xc,%esp
    7053:	8b 45 08             	mov    0x8(%ebp),%eax
    7056:	50                   	push   %eax
    7057:	e8 b4 63 00 00       	call   d410 <async_exchange_begin@plt>
    705c:	83 c4 0c             	add    $0xc,%esp
    705f:	89 c3                	mov    %eax,%ebx
    7061:	6a 00                	push   $0x0
    7063:	6a 00                	push   $0x0
    7065:	6a 00                	push   $0x0
    7067:	6a 00                	push   $0x0
    7069:	6a 07                	push   $0x7
    706b:	68 05 04 00 00       	push   $0x405
    7070:	50                   	push   %eax
    7071:	e8 fa 60 00 00       	call   d170 <async_send_fast@plt>
    7076:	83 c4 1c             	add    $0x1c,%esp
    7079:	89 c7                	mov    %eax,%edi
    707b:	68 1c 01 00 00       	push   $0x11c
    7080:	56                   	push   %esi
    7081:	53                   	push   %ebx
    7082:	e8 f9 62 00 00       	call   d380 <async_data_read_start@plt>
    7087:	89 1c 24             	mov    %ebx,(%esp)
    708a:	89 45 d4             	mov    %eax,-0x2c(%ebp)
    708d:	e8 3e 61 00 00       	call   d1d0 <async_exchange_end@plt>
    7092:	5a                   	pop    %edx
    7093:	8d 55 e4             	lea    -0x1c(%ebp),%edx
    7096:	59                   	pop    %ecx
    7097:	52                   	push   %edx
    7098:	57                   	push   %edi
    7099:	e8 d2 5f 00 00       	call   d070 <async_wait_for@plt>
    709e:	8b 45 d4             	mov    -0x2c(%ebp),%eax
    70a1:	83 c4 10             	add    $0x10,%esp
    70a4:	85 c0                	test   %eax,%eax
    70a6:	75 03                	jne    70ab <nic_get_device_info+0x6b>
    70a8:	8b 45 e4             	mov    -0x1c(%ebp),%eax
    70ab:	8d 65 f4             	lea    -0xc(%ebp),%esp
    70ae:	5b                   	pop    %ebx
    70af:	5e                   	pop    %esi
    70b0:	5f                   	pop    %edi
    70b1:	5d                   	pop    %ebp
    70b2:	c3                   	ret    
    70b3:	53                   	push   %ebx
    70b4:	68 20 01 00 00       	push   $0x120
    70b9:	68 44 c9 00 00       	push   $0xc944
    70be:	68 d1 c9 00 00       	push   $0xc9d1
    70c3:	e8 18 61 00 00       	call   d1e0 <assert_abort@plt>
    70c8:	90                   	nop
    70c9:	8d b4 26 00 00 00 00 	lea    0x0(%esi,%eiz,1),%esi

000070d0 <nic_get_cable_state>:
    70d0:	55                   	push   %ebp
    70d1:	89 e5                	mov    %esp,%ebp
    70d3:	56                   	push   %esi
    70d4:	53                   	push   %ebx
    70d5:	83 ec 20             	sub    $0x20,%esp
    70d8:	8b 5d 0c             	mov    0xc(%ebp),%ebx
    70db:	85 db                	test   %ebx,%ebx
    70dd:	74 4b                	je     712a <nic_get_cable_state+0x5a>
    70df:	83 ec 0c             	sub    $0xc,%esp
    70e2:	8b 45 08             	mov    0x8(%ebp),%eax
    70e5:	50                   	push   %eax
    70e6:	e8 25 63 00 00       	call   d410 <async_exchange_begin@plt>
    70eb:	83 c4 0c             	add    $0xc,%esp
    70ee:	89 c6                	mov    %eax,%esi
    70f0:	8d 45 f4             	lea    -0xc(%ebp),%eax
    70f3:	6a 00                	push   $0x0
    70f5:	6a 00                	push   $0x0
    70f7:	6a 00                	push   $0x0
    70f9:	6a 00                	push   $0x0
    70fb:	50                   	push   %eax
    70fc:	6a 00                	push   $0x0
    70fe:	6a 00                	push   $0x0
    7100:	6a 00                	push   $0x0
    7102:	6a 08                	push   $0x8
    7104:	68 05 04 00 00       	push   $0x405
    7109:	56                   	push   %esi
    710a:	e8 41 60 00 00       	call   d150 <async_req_fast@plt>
    710f:	83 c4 24             	add    $0x24,%esp
    7112:	89 45 e4             	mov    %eax,-0x1c(%ebp)
    7115:	56                   	push   %esi
    7116:	e8 b5 60 00 00       	call   d1d0 <async_exchange_end@plt>
    711b:	8b 55 f4             	mov    -0xc(%ebp),%edx
    711e:	8b 45 e4             	mov    -0x1c(%ebp),%eax
    7121:	89 13                	mov    %edx,(%ebx)
    7123:	8d 65 f8             	lea    -0x8(%ebp),%esp
    7126:	5b                   	pop    %ebx
    7127:	5e                   	pop    %esi
    7128:	5d                   	pop    %ebp
    7129:	c3                   	ret    
    712a:	52                   	push   %edx
    712b:	68 3c 01 00 00       	push   $0x13c
    7130:	68 44 c9 00 00       	push   $0xc944
    7135:	68 dd c9 00 00       	push   $0xc9dd
    713a:	e8 a1 60 00 00       	call   d1e0 <assert_abort@plt>
    713f:	90                   	nop

00007140 <nic_get_operation_mode>:
    7140:	55                   	push   %ebp
    7141:	89 e5                	mov    %esp,%ebp
    7143:	57                   	push   %edi
    7144:	56                   	push   %esi
    7145:	53                   	push   %ebx
    7146:	83 ec 38             	sub    $0x38,%esp
    7149:	8b 4d 08             	mov    0x8(%ebp),%ecx
    714c:	8b 7d 0c             	mov    0xc(%ebp),%edi
    714f:	51                   	push   %ecx
    7150:	8b 5d 14             	mov    0x14(%ebp),%ebx
    7153:	e8 b8 62 00 00       	call   d410 <async_exchange_begin@plt>
    7158:	83 c4 0c             	add    $0xc,%esp
    715b:	89 c6                	mov    %eax,%esi
    715d:	8d 45 e4             	lea    -0x1c(%ebp),%eax
    7160:	6a 00                	push   $0x0
    7162:	6a 00                	push   $0x0
    7164:	50                   	push   %eax
    7165:	8d 45 e0             	lea    -0x20(%ebp),%eax
    7168:	50                   	push   %eax
    7169:	8d 45 dc             	lea    -0x24(%ebp),%eax
    716c:	50                   	push   %eax
    716d:	6a 00                	push   $0x0
    716f:	6a 00                	push   $0x0
    7171:	6a 00                	push   $0x0
    7173:	6a 09                	push   $0x9
    7175:	68 05 04 00 00       	push   $0x405
    717a:	56                   	push   %esi
    717b:	e8 d0 5f 00 00       	call   d150 <async_req_fast@plt>
    7180:	83 c4 24             	add    $0x24,%esp
    7183:	89 45 d4             	mov    %eax,-0x2c(%ebp)
    7186:	56                   	push   %esi
    7187:	e8 44 60 00 00       	call   d1d0 <async_exchange_end@plt>
    718c:	83 c4 10             	add    $0x10,%esp
    718f:	8b 45 d4             	mov    -0x2c(%ebp),%eax
    7192:	85 ff                	test   %edi,%edi
    7194:	74 05                	je     719b <nic_get_operation_mode+0x5b>
    7196:	8b 55 dc             	mov    -0x24(%ebp),%edx
    7199:	89 17                	mov    %edx,(%edi)
    719b:	8b 55 10             	mov    0x10(%ebp),%edx
    719e:	85 d2                	test   %edx,%edx
    71a0:	74 08                	je     71aa <nic_get_operation_mode+0x6a>
    71a2:	8b 4d 10             	mov    0x10(%ebp),%ecx
    71a5:	8b 55 e0             	mov    -0x20(%ebp),%edx
    71a8:	89 11                	mov    %edx,(%ecx)
    71aa:	85 db                	test   %ebx,%ebx
    71ac:	74 05                	je     71b3 <nic_get_operation_mode+0x73>
    71ae:	8b 55 e4             	mov    -0x1c(%ebp),%edx
    71b1:	89 13                	mov    %edx,(%ebx)
    71b3:	8d 65 f4             	lea    -0xc(%ebp),%esp
    71b6:	5b                   	pop    %ebx
    71b7:	5e                   	pop    %esi
    71b8:	5f                   	pop    %edi
    71b9:	5d                   	pop    %ebp
    71ba:	c3                   	ret    
    71bb:	90                   	nop
    71bc:	8d 74 26 00          	lea    0x0(%esi,%eiz,1),%esi

000071c0 <nic_set_operation_mode>:
    71c0:	55                   	push   %ebp
    71c1:	89 e5                	mov    %esp,%ebp
    71c3:	53                   	push   %ebx
    71c4:	83 ec 20             	sub    $0x20,%esp
    71c7:	8b 45 08             	mov    0x8(%ebp),%eax
    71ca:	50                   	push   %eax
    71cb:	e8 40 62 00 00       	call   d410 <async_exchange_begin@plt>
    71d0:	83 c4 0c             	add    $0xc,%esp
    71d3:	89 c3                	mov    %eax,%ebx
    71d5:	8b 55 14             	mov    0x14(%ebp),%edx
    71d8:	8b 4d 10             	mov    0x10(%ebp),%ecx
    71db:	8b 45 0c             	mov    0xc(%ebp),%eax
    71de:	6a 00                	push   $0x0
    71e0:	6a 00                	push   $0x0
    71e2:	6a 00                	push   $0x0
    71e4:	6a 00                	push   $0x0
    71e6:	6a 00                	push   $0x0
    71e8:	52                   	push   %edx
    71e9:	51                   	push   %ecx
    71ea:	50                   	push   %eax
    71eb:	6a 0a                	push   $0xa
    71ed:	68 05 04 00 00       	push   $0x405
    71f2:	53                   	push   %ebx
    71f3:	e8 58 5f 00 00       	call   d150 <async_req_fast@plt>
    71f8:	83 c4 24             	add    $0x24,%esp
    71fb:	89 45 f4             	mov    %eax,-0xc(%ebp)
    71fe:	53                   	push   %ebx
    71ff:	e8 cc 5f 00 00       	call   d1d0 <async_exchange_end@plt>
    7204:	8b 45 f4             	mov    -0xc(%ebp),%eax
    7207:	8b 5d fc             	mov    -0x4(%ebp),%ebx
    720a:	c9                   	leave  
    720b:	c3                   	ret    
    720c:	8d 74 26 00          	lea    0x0(%esi,%eiz,1),%esi

00007210 <nic_autoneg_enable>:
    7210:	55                   	push   %ebp
    7211:	89 e5                	mov    %esp,%ebp
    7213:	53                   	push   %ebx
    7214:	83 ec 20             	sub    $0x20,%esp
    7217:	8b 45 08             	mov    0x8(%ebp),%eax
    721a:	50                   	push   %eax
    721b:	e8 f0 61 00 00       	call   d410 <async_exchange_begin@plt>
    7220:	83 c4 0c             	add    $0xc,%esp
    7223:	8b 55 0c             	mov    0xc(%ebp),%edx
    7226:	89 c3                	mov    %eax,%ebx
    7228:	6a 00                	push   $0x0
    722a:	6a 00                	push   $0x0
    722c:	6a 00                	push   $0x0
    722e:	6a 00                	push   $0x0
    7230:	6a 00                	push   $0x0
    7232:	6a 00                	push   $0x0
    7234:	6a 00                	push   $0x0
    7236:	52                   	push   %edx
    7237:	6a 0b                	push   $0xb
    7239:	68 05 04 00 00       	push   $0x405
    723e:	50                   	push   %eax
    723f:	e8 0c 5f 00 00       	call   d150 <async_req_fast@plt>
    7244:	83 c4 24             	add    $0x24,%esp
    7247:	89 45 f4             	mov    %eax,-0xc(%ebp)
    724a:	53                   	push   %ebx
    724b:	e8 80 5f 00 00       	call   d1d0 <async_exchange_end@plt>
    7250:	8b 45 f4             	mov    -0xc(%ebp),%eax
    7253:	8b 5d fc             	mov    -0x4(%ebp),%ebx
    7256:	c9                   	leave  
    7257:	c3                   	ret    
    7258:	90                   	nop
    7259:	8d b4 26 00 00 00 00 	lea    0x0(%esi,%eiz,1),%esi

00007260 <nic_autoneg_disable>:
    7260:	55                   	push   %ebp
    7261:	89 e5                	mov    %esp,%ebp
    7263:	53                   	push   %ebx
    7264:	83 ec 20             	sub    $0x20,%esp
    7267:	8b 45 08             	mov    0x8(%ebp),%eax
    726a:	50                   	push   %eax
    726b:	e8 a0 61 00 00       	call   d410 <async_exchange_begin@plt>
    7270:	83 c4 0c             	add    $0xc,%esp
    7273:	89 c3                	mov    %eax,%ebx
    7275:	6a 00                	push   $0x0
    7277:	6a 00                	push   $0x0
    7279:	6a 00                	push   $0x0
    727b:	6a 00                	push   $0x0
    727d:	6a 00                	push   $0x0
    727f:	6a 00                	push   $0x0
    7281:	6a 00                	push   $0x0
    7283:	6a 00                	push   $0x0
    7285:	6a 0c                	push   $0xc
    7287:	68 05 04 00 00       	push   $0x405
    728c:	50                   	push   %eax
    728d:	e8 be 5e 00 00       	call   d150 <async_req_fast@plt>
    7292:	83 c4 24             	add    $0x24,%esp
    7295:	89 45 f4             	mov    %eax,-0xc(%ebp)
    7298:	53                   	push   %ebx
    7299:	e8 32 5f 00 00       	call   d1d0 <async_exchange_end@plt>
    729e:	8b 45 f4             	mov    -0xc(%ebp),%eax
    72a1:	8b 5d fc             	mov    -0x4(%ebp),%ebx
    72a4:	c9                   	leave  
    72a5:	c3                   	ret    
    72a6:	8d 76 00             	lea    0x0(%esi),%esi
    72a9:	8d bc 27 00 00 00 00 	lea    0x0(%edi,%eiz,1),%edi

000072b0 <nic_autoneg_probe>:
    72b0:	55                   	push   %ebp
    72b1:	89 e5                	mov    %esp,%ebp
    72b3:	57                   	push   %edi
    72b4:	56                   	push   %esi
    72b5:	53                   	push   %ebx
    72b6:	83 ec 38             	sub    $0x38,%esp
    72b9:	8b 45 08             	mov    0x8(%ebp),%eax
    72bc:	8b 7d 0c             	mov    0xc(%ebp),%edi
    72bf:	50                   	push   %eax
    72c0:	8b 5d 18             	mov    0x18(%ebp),%ebx
    72c3:	e8 48 61 00 00       	call   d410 <async_exchange_begin@plt>
    72c8:	83 c4 0c             	add    $0xc,%esp
    72cb:	89 c6                	mov    %eax,%esi
    72cd:	8d 45 e4             	lea    -0x1c(%ebp),%eax
    72d0:	6a 00                	push   $0x0
    72d2:	50                   	push   %eax
    72d3:	8d 45 e0             	lea    -0x20(%ebp),%eax
    72d6:	50                   	push   %eax
    72d7:	8d 45 dc             	lea    -0x24(%ebp),%eax
    72da:	50                   	push   %eax
    72db:	8d 45 d8             	lea    -0x28(%ebp),%eax
    72de:	50                   	push   %eax
    72df:	6a 00                	push   $0x0
    72e1:	6a 00                	push   $0x0
    72e3:	6a 00                	push   $0x0
    72e5:	6a 0d                	push   $0xd
    72e7:	68 05 04 00 00       	push   $0x405
    72ec:	56                   	push   %esi
    72ed:	e8 5e 5e 00 00       	call   d150 <async_req_fast@plt>
    72f2:	83 c4 24             	add    $0x24,%esp
    72f5:	89 45 d4             	mov    %eax,-0x2c(%ebp)
    72f8:	56                   	push   %esi
    72f9:	e8 d2 5e 00 00       	call   d1d0 <async_exchange_end@plt>
    72fe:	83 c4 10             	add    $0x10,%esp
    7301:	8b 45 d4             	mov    -0x2c(%ebp),%eax
    7304:	85 ff                	test   %edi,%edi
    7306:	74 05                	je     730d <nic_autoneg_probe+0x5d>
    7308:	8b 55 d8             	mov    -0x28(%ebp),%edx
    730b:	89 17                	mov    %edx,(%edi)
    730d:	8b 4d 10             	mov    0x10(%ebp),%ecx
    7310:	8b 31                	mov    (%ecx),%esi
    7312:	85 f6                	test   %esi,%esi
    7314:	74 05                	je     731b <nic_autoneg_probe+0x6b>
    7316:	8b 55 dc             	mov    -0x24(%ebp),%edx
    7319:	89 11                	mov    %edx,(%ecx)
    731b:	8b 55 14             	mov    0x14(%ebp),%edx
    731e:	85 d2                	test   %edx,%edx
    7320:	74 08                	je     732a <nic_autoneg_probe+0x7a>
    7322:	8b 4d 14             	mov    0x14(%ebp),%ecx
    7325:	8b 55 e0             	mov    -0x20(%ebp),%edx
    7328:	89 11                	mov    %edx,(%ecx)
    732a:	85 db                	test   %ebx,%ebx
    732c:	74 05                	je     7333 <nic_autoneg_probe+0x83>
    732e:	8b 55 e4             	mov    -0x1c(%ebp),%edx
    7331:	89 13                	mov    %edx,(%ebx)
    7333:	8d 65 f4             	lea    -0xc(%ebp),%esp
    7336:	5b                   	pop    %ebx
    7337:	5e                   	pop    %esi
    7338:	5f                   	pop    %edi
    7339:	5d                   	pop    %ebp
    733a:	c3                   	ret    
    733b:	90                   	nop
    733c:	8d 74 26 00          	lea    0x0(%esi,%eiz,1),%esi

00007340 <nic_autoneg_restart>:
    7340:	55                   	push   %ebp
    7341:	89 e5                	mov    %esp,%ebp
    7343:	53                   	push   %ebx
    7344:	83 ec 20             	sub    $0x20,%esp
    7347:	8b 45 08             	mov    0x8(%ebp),%eax
    734a:	50                   	push   %eax
    734b:	e8 c0 60 00 00       	call   d410 <async_exchange_begin@plt>
    7350:	83 c4 0c             	add    $0xc,%esp
    7353:	89 c3                	mov    %eax,%ebx
    7355:	6a 00                	push   $0x0
    7357:	6a 00                	push   $0x0
    7359:	6a 00                	push   $0x0
    735b:	6a 00                	push   $0x0
    735d:	6a 00                	push   $0x0
    735f:	6a 00                	push   $0x0
    7361:	6a 00                	push   $0x0
    7363:	6a 00                	push   $0x0
    7365:	6a 0e                	push   $0xe
    7367:	68 05 04 00 00       	push   $0x405
    736c:	50                   	push   %eax
    736d:	e8 de 5d 00 00       	call   d150 <async_req_fast@plt>
    7372:	83 c4 24             	add    $0x24,%esp
    7375:	89 45 f4             	mov    %eax,-0xc(%ebp)
    7378:	53                   	push   %ebx
    7379:	e8 52 5e 00 00       	call   d1d0 <async_exchange_end@plt>
    737e:	8b 45 f4             	mov    -0xc(%ebp),%eax
    7381:	8b 5d fc             	mov    -0x4(%ebp),%ebx
    7384:	c9                   	leave  
    7385:	c3                   	ret    
    7386:	8d 76 00             	lea    0x0(%esi),%esi
    7389:	8d bc 27 00 00 00 00 	lea    0x0(%edi,%eiz,1),%edi

00007390 <nic_get_pause>:
    7390:	55                   	push   %ebp
    7391:	89 e5                	mov    %esp,%ebp
    7393:	57                   	push   %edi
    7394:	56                   	push   %esi
    7395:	53                   	push   %ebx
    7396:	83 ec 38             	sub    $0x38,%esp
    7399:	8b 4d 08             	mov    0x8(%ebp),%ecx
    739c:	8b 7d 0c             	mov    0xc(%ebp),%edi
    739f:	51                   	push   %ecx
    73a0:	8b 5d 14             	mov    0x14(%ebp),%ebx
    73a3:	e8 68 60 00 00       	call   d410 <async_exchange_begin@plt>
    73a8:	83 c4 0c             	add    $0xc,%esp
    73ab:	89 c6                	mov    %eax,%esi
    73ad:	8d 45 e4             	lea    -0x1c(%ebp),%eax
    73b0:	6a 00                	push   $0x0
    73b2:	6a 00                	push   $0x0
    73b4:	50                   	push   %eax
    73b5:	8d 45 e0             	lea    -0x20(%ebp),%eax
    73b8:	50                   	push   %eax
    73b9:	8d 45 dc             	lea    -0x24(%ebp),%eax
    73bc:	50                   	push   %eax
    73bd:	6a 00                	push   $0x0
    73bf:	6a 00                	push   $0x0
    73c1:	6a 00                	push   $0x0
    73c3:	6a 0f                	push   $0xf
    73c5:	68 05 04 00 00       	push   $0x405
    73ca:	56                   	push   %esi
    73cb:	e8 80 5d 00 00       	call   d150 <async_req_fast@plt>
    73d0:	83 c4 24             	add    $0x24,%esp
    73d3:	89 45 d4             	mov    %eax,-0x2c(%ebp)
    73d6:	56                   	push   %esi
    73d7:	e8 f4 5d 00 00       	call   d1d0 <async_exchange_end@plt>
    73dc:	83 c4 10             	add    $0x10,%esp
    73df:	8b 45 d4             	mov    -0x2c(%ebp),%eax
    73e2:	85 ff                	test   %edi,%edi
    73e4:	74 05                	je     73eb <nic_get_pause+0x5b>
    73e6:	8b 55 dc             	mov    -0x24(%ebp),%edx
    73e9:	89 17                	mov    %edx,(%edi)
    73eb:	8b 55 10             	mov    0x10(%ebp),%edx
    73ee:	85 d2                	test   %edx,%edx
    73f0:	74 08                	je     73fa <nic_get_pause+0x6a>
    73f2:	8b 4d 10             	mov    0x10(%ebp),%ecx
    73f5:	8b 55 e0             	mov    -0x20(%ebp),%edx
    73f8:	89 11                	mov    %edx,(%ecx)
    73fa:	85 db                	test   %ebx,%ebx
    73fc:	74 06                	je     7404 <nic_get_pause+0x74>
    73fe:	8b 55 e4             	mov    -0x1c(%ebp),%edx
    7401:	66 89 13             	mov    %dx,(%ebx)
    7404:	8d 65 f4             	lea    -0xc(%ebp),%esp
    7407:	5b                   	pop    %ebx
    7408:	5e                   	pop    %esi
    7409:	5f                   	pop    %edi
    740a:	5d                   	pop    %ebp
    740b:	c3                   	ret    
    740c:	8d 74 26 00          	lea    0x0(%esi,%eiz,1),%esi

00007410 <nic_set_pause>:
    7410:	55                   	push   %ebp
    7411:	89 e5                	mov    %esp,%ebp
    7413:	56                   	push   %esi
    7414:	53                   	push   %ebx
    7415:	83 ec 1c             	sub    $0x1c,%esp
    7418:	8b 45 08             	mov    0x8(%ebp),%eax
    741b:	8b 5d 14             	mov    0x14(%ebp),%ebx
    741e:	50                   	push   %eax
    741f:	e8 ec 5f 00 00       	call   d410 <async_exchange_begin@plt>
    7424:	83 c4 0c             	add    $0xc,%esp
    7427:	8b 55 10             	mov    0x10(%ebp),%edx
    742a:	8b 4d 0c             	mov    0xc(%ebp),%ecx
    742d:	81 e3 ff ff 00 00    	and    $0xffff,%ebx
    7433:	6a 00                	push   $0x0
    7435:	89 c6                	mov    %eax,%esi
    7437:	6a 00                	push   $0x0
    7439:	6a 00                	push   $0x0
    743b:	6a 00                	push   $0x0
    743d:	6a 00                	push   $0x0
    743f:	53                   	push   %ebx
    7440:	52                   	push   %edx
    7441:	51                   	push   %ecx
    7442:	6a 10                	push   $0x10
    7444:	68 05 04 00 00       	push   $0x405
    7449:	50                   	push   %eax
    744a:	e8 01 5d 00 00       	call   d150 <async_req_fast@plt>
    744f:	83 c4 24             	add    $0x24,%esp
    7452:	89 45 f4             	mov    %eax,-0xc(%ebp)
    7455:	56                   	push   %esi
    7456:	e8 75 5d 00 00       	call   d1d0 <async_exchange_end@plt>
    745b:	8b 45 f4             	mov    -0xc(%ebp),%eax
    745e:	8d 65 f8             	lea    -0x8(%ebp),%esp
    7461:	5b                   	pop    %ebx
    7462:	5e                   	pop    %esi
    7463:	5d                   	pop    %ebp
    7464:	c3                   	ret    
    7465:	8d 74 26 00          	lea    0x0(%esi,%eiz,1),%esi
    7469:	8d bc 27 00 00 00 00 	lea    0x0(%edi,%eiz,1),%edi

00007470 <nic_unicast_get_mode>:
    7470:	55                   	push   %ebp
    7471:	89 e5                	mov    %esp,%ebp
    7473:	57                   	push   %edi
    7474:	56                   	push   %esi
    7475:	53                   	push   %ebx
    7476:	83 ec 2c             	sub    $0x2c,%esp
    7479:	8b 75 0c             	mov    0xc(%ebp),%esi
    747c:	8b 5d 10             	mov    0x10(%ebp),%ebx
    747f:	85 f6                	test   %esi,%esi
    7481:	0f 84 a0 00 00 00    	je     7527 <nic_unicast_get_mode+0xb7>
    7487:	8b 45 14             	mov    0x14(%ebp),%eax
    748a:	85 c0                	test   %eax,%eax
    748c:	0f 84 8e 00 00 00    	je     7520 <nic_unicast_get_mode+0xb0>
    7492:	83 ec 0c             	sub    $0xc,%esp
    7495:	8b 7d 08             	mov    0x8(%ebp),%edi
    7498:	57                   	push   %edi
    7499:	e8 72 5f 00 00       	call   d410 <async_exchange_begin@plt>
    749e:	83 c4 0c             	add    $0xc,%esp
    74a1:	89 c7                	mov    %eax,%edi
    74a3:	8d 45 e4             	lea    -0x1c(%ebp),%eax
    74a6:	6a 00                	push   $0x0
    74a8:	6a 00                	push   $0x0
    74aa:	6a 00                	push   $0x0
    74ac:	50                   	push   %eax
    74ad:	8d 45 e0             	lea    -0x20(%ebp),%eax
    74b0:	50                   	push   %eax
    74b1:	6a 00                	push   $0x0
    74b3:	6a 00                	push   $0x0
    74b5:	53                   	push   %ebx
    74b6:	6a 11                	push   $0x11
    74b8:	68 05 04 00 00       	push   $0x405
    74bd:	57                   	push   %edi
    74be:	e8 8d 5c 00 00       	call   d150 <async_req_fast@plt>
    74c3:	83 c4 30             	add    $0x30,%esp
    74c6:	85 c0                	test   %eax,%eax
    74c8:	75 1f                	jne    74e9 <nic_unicast_get_mode+0x79>
    74ca:	8b 4d e0             	mov    -0x20(%ebp),%ecx
    74cd:	89 0e                	mov    %ecx,(%esi)
    74cf:	8b 75 18             	mov    0x18(%ebp),%esi
    74d2:	85 f6                	test   %esi,%esi
    74d4:	74 08                	je     74de <nic_unicast_get_mode+0x6e>
    74d6:	8b 55 18             	mov    0x18(%ebp),%edx
    74d9:	8b 4d e4             	mov    -0x1c(%ebp),%ecx
    74dc:	89 0a                	mov    %ecx,(%edx)
    74de:	85 db                	test   %ebx,%ebx
    74e0:	74 07                	je     74e9 <nic_unicast_get_mode+0x79>
    74e2:	8b 4d e4             	mov    -0x1c(%ebp),%ecx
    74e5:	85 c9                	test   %ecx,%ecx
    74e7:	75 1f                	jne    7508 <nic_unicast_get_mode+0x98>
    74e9:	83 ec 0c             	sub    $0xc,%esp
    74ec:	89 45 d4             	mov    %eax,-0x2c(%ebp)
    74ef:	57                   	push   %edi
    74f0:	e8 db 5c 00 00       	call   d1d0 <async_exchange_end@plt>
    74f5:	8b 45 d4             	mov    -0x2c(%ebp),%eax
    74f8:	83 c4 10             	add    $0x10,%esp
    74fb:	8d 65 f4             	lea    -0xc(%ebp),%esp
    74fe:	5b                   	pop    %ebx
    74ff:	5e                   	pop    %esi
    7500:	5f                   	pop    %edi
    7501:	5d                   	pop    %ebp
    7502:	c3                   	ret    
    7503:	90                   	nop
    7504:	8d 74 26 00          	lea    0x0(%esi,%eiz,1),%esi
    7508:	50                   	push   %eax
    7509:	8d 04 5b             	lea    (%ebx,%ebx,2),%eax
    750c:	01 c0                	add    %eax,%eax
    750e:	8b 55 14             	mov    0x14(%ebp),%edx
    7511:	50                   	push   %eax
    7512:	52                   	push   %edx
    7513:	57                   	push   %edi
    7514:	e8 67 5e 00 00       	call   d380 <async_data_read_start@plt>
    7519:	83 c4 10             	add    $0x10,%esp
    751c:	eb cb                	jmp    74e9 <nic_unicast_get_mode+0x79>
    751e:	66 90                	xchg   %ax,%ax
    7520:	31 db                	xor    %ebx,%ebx
    7522:	e9 6b ff ff ff       	jmp    7492 <nic_unicast_get_mode+0x22>
    7527:	50                   	push   %eax
    7528:	68 3b 02 00 00       	push   $0x23b
    752d:	68 44 c9 00 00       	push   $0xc944
    7532:	68 e9 c9 00 00       	push   $0xc9e9
    7537:	e8 a4 5c 00 00       	call   d1e0 <assert_abort@plt>
    753c:	8d 74 26 00          	lea    0x0(%esi,%eiz,1),%esi

00007540 <nic_unicast_set_mode>:
    7540:	55                   	push   %ebp
    7541:	89 e5                	mov    %esp,%ebp
    7543:	57                   	push   %edi
    7544:	56                   	push   %esi
    7545:	53                   	push   %ebx
    7546:	83 ec 2c             	sub    $0x2c,%esp
    7549:	8b 75 10             	mov    0x10(%ebp),%esi
    754c:	8b 45 08             	mov    0x8(%ebp),%eax
    754f:	8b 5d 14             	mov    0x14(%ebp),%ebx
    7552:	85 f6                	test   %esi,%esi
    7554:	0f 84 96 00 00 00    	je     75f0 <nic_unicast_set_mode+0xb0>
    755a:	83 ec 0c             	sub    $0xc,%esp
    755d:	50                   	push   %eax
    755e:	e8 ad 5e 00 00       	call   d410 <async_exchange_begin@plt>
    7563:	83 c4 0c             	add    $0xc,%esp
    7566:	8b 4d 0c             	mov    0xc(%ebp),%ecx
    7569:	89 c7                	mov    %eax,%edi
    756b:	6a 00                	push   $0x0
    756d:	6a 00                	push   $0x0
    756f:	53                   	push   %ebx
    7570:	51                   	push   %ecx
    7571:	6a 12                	push   $0x12
    7573:	68 05 04 00 00       	push   $0x405
    7578:	50                   	push   %eax
    7579:	e8 f2 5b 00 00       	call   d170 <async_send_fast@plt>
    757e:	83 c4 20             	add    $0x20,%esp
    7581:	89 c6                	mov    %eax,%esi
    7583:	85 db                	test   %ebx,%ebx
    7585:	75 29                	jne    75b0 <nic_unicast_set_mode+0x70>
    7587:	83 ec 0c             	sub    $0xc,%esp
    758a:	57                   	push   %edi
    758b:	e8 40 5c 00 00       	call   d1d0 <async_exchange_end@plt>
    7590:	58                   	pop    %eax
    7591:	8d 45 e4             	lea    -0x1c(%ebp),%eax
    7594:	5a                   	pop    %edx
    7595:	50                   	push   %eax
    7596:	56                   	push   %esi
    7597:	e8 d4 5a 00 00       	call   d070 <async_wait_for@plt>
    759c:	83 c4 10             	add    $0x10,%esp
    759f:	8b 45 e4             	mov    -0x1c(%ebp),%eax
    75a2:	8d 65 f4             	lea    -0xc(%ebp),%esp
    75a5:	5b                   	pop    %ebx
    75a6:	5e                   	pop    %esi
    75a7:	5f                   	pop    %edi
    75a8:	5d                   	pop    %ebp
    75a9:	c3                   	ret    
    75aa:	8d b6 00 00 00 00    	lea    0x0(%esi),%esi
    75b0:	50                   	push   %eax
    75b1:	8d 04 5b             	lea    (%ebx,%ebx,2),%eax
    75b4:	01 c0                	add    %eax,%eax
    75b6:	50                   	push   %eax
    75b7:	8b 45 10             	mov    0x10(%ebp),%eax
    75ba:	50                   	push   %eax
    75bb:	57                   	push   %edi
    75bc:	e8 ef 5a 00 00       	call   d0b0 <async_data_write_start@plt>
    75c1:	89 3c 24             	mov    %edi,(%esp)
    75c4:	89 45 d4             	mov    %eax,-0x2c(%ebp)
    75c7:	e8 04 5c 00 00       	call   d1d0 <async_exchange_end@plt>
    75cc:	8d 4d e4             	lea    -0x1c(%ebp),%ecx
    75cf:	58                   	pop    %eax
    75d0:	5a                   	pop    %edx
    75d1:	51                   	push   %ecx
    75d2:	56                   	push   %esi
    75d3:	e8 98 5a 00 00       	call   d070 <async_wait_for@plt>
    75d8:	8b 45 d4             	mov    -0x2c(%ebp),%eax
    75db:	83 c4 10             	add    $0x10,%esp
    75de:	85 c0                	test   %eax,%eax
    75e0:	74 bd                	je     759f <nic_unicast_set_mode+0x5f>
    75e2:	8d 65 f4             	lea    -0xc(%ebp),%esp
    75e5:	5b                   	pop    %ebx
    75e6:	5e                   	pop    %esi
    75e7:	5f                   	pop    %edi
    75e8:	5d                   	pop    %ebp
    75e9:	c3                   	ret    
    75ea:	8d b6 00 00 00 00    	lea    0x0(%esi),%esi
    75f0:	83 ec 0c             	sub    $0xc,%esp
    75f3:	50                   	push   %eax
    75f4:	e8 17 5e 00 00       	call   d410 <async_exchange_begin@plt>
    75f9:	83 c4 0c             	add    $0xc,%esp
    75fc:	8b 4d 0c             	mov    0xc(%ebp),%ecx
    75ff:	89 c3                	mov    %eax,%ebx
    7601:	6a 00                	push   $0x0
    7603:	6a 00                	push   $0x0
    7605:	6a 00                	push   $0x0
    7607:	51                   	push   %ecx
    7608:	6a 12                	push   $0x12
    760a:	68 05 04 00 00       	push   $0x405
    760f:	50                   	push   %eax
    7610:	e8 5b 5b 00 00       	call   d170 <async_send_fast@plt>
    7615:	83 c4 14             	add    $0x14,%esp
    7618:	89 c6                	mov    %eax,%esi
    761a:	53                   	push   %ebx
    761b:	e9 6b ff ff ff       	jmp    758b <nic_unicast_set_mode+0x4b>

00007620 <nic_multicast_get_mode>:
    7620:	55                   	push   %ebp
    7621:	89 e5                	mov    %esp,%ebp
    7623:	57                   	push   %edi
    7624:	56                   	push   %esi
    7625:	53                   	push   %ebx
    7626:	83 ec 2c             	sub    $0x2c,%esp
    7629:	8b 75 0c             	mov    0xc(%ebp),%esi
    762c:	8b 5d 10             	mov    0x10(%ebp),%ebx
    762f:	85 f6                	test   %esi,%esi
    7631:	0f 84 a0 00 00 00    	je     76d7 <nic_multicast_get_mode+0xb7>
    7637:	8b 45 14             	mov    0x14(%ebp),%eax
    763a:	85 c0                	test   %eax,%eax
    763c:	0f 84 8e 00 00 00    	je     76d0 <nic_multicast_get_mode+0xb0>
    7642:	83 ec 0c             	sub    $0xc,%esp
    7645:	8b 7d 08             	mov    0x8(%ebp),%edi
    7648:	57                   	push   %edi
    7649:	e8 c2 5d 00 00       	call   d410 <async_exchange_begin@plt>
    764e:	83 c4 0c             	add    $0xc,%esp
    7651:	89 c7                	mov    %eax,%edi
    7653:	8d 45 e4             	lea    -0x1c(%ebp),%eax
    7656:	6a 00                	push   $0x0
    7658:	6a 00                	push   $0x0
    765a:	6a 00                	push   $0x0
    765c:	50                   	push   %eax
    765d:	8d 45 e0             	lea    -0x20(%ebp),%eax
    7660:	50                   	push   %eax
    7661:	6a 00                	push   $0x0
    7663:	6a 00                	push   $0x0
    7665:	53                   	push   %ebx
    7666:	6a 13                	push   $0x13
    7668:	68 05 04 00 00       	push   $0x405
    766d:	57                   	push   %edi
    766e:	e8 dd 5a 00 00       	call   d150 <async_req_fast@plt>
    7673:	83 c4 30             	add    $0x30,%esp
    7676:	85 c0                	test   %eax,%eax
    7678:	75 1f                	jne    7699 <nic_multicast_get_mode+0x79>
    767a:	8b 4d e0             	mov    -0x20(%ebp),%ecx
    767d:	89 0e                	mov    %ecx,(%esi)
    767f:	8b 75 18             	mov    0x18(%ebp),%esi
    7682:	85 f6                	test   %esi,%esi
    7684:	74 08                	je     768e <nic_multicast_get_mode+0x6e>
    7686:	8b 55 18             	mov    0x18(%ebp),%edx
    7689:	8b 4d e4             	mov    -0x1c(%ebp),%ecx
    768c:	89 0a                	mov    %ecx,(%edx)
    768e:	85 db                	test   %ebx,%ebx
    7690:	74 07                	je     7699 <nic_multicast_get_mode+0x79>
    7692:	8b 4d e4             	mov    -0x1c(%ebp),%ecx
    7695:	85 c9                	test   %ecx,%ecx
    7697:	75 1f                	jne    76b8 <nic_multicast_get_mode+0x98>
    7699:	83 ec 0c             	sub    $0xc,%esp
    769c:	89 45 d4             	mov    %eax,-0x2c(%ebp)
    769f:	57                   	push   %edi
    76a0:	e8 2b 5b 00 00       	call   d1d0 <async_exchange_end@plt>
    76a5:	8b 45 d4             	mov    -0x2c(%ebp),%eax
    76a8:	83 c4 10             	add    $0x10,%esp
    76ab:	8d 65 f4             	lea    -0xc(%ebp),%esp
    76ae:	5b                   	pop    %ebx
    76af:	5e                   	pop    %esi
    76b0:	5f                   	pop    %edi
    76b1:	5d                   	pop    %ebp
    76b2:	c3                   	ret    
    76b3:	90                   	nop
    76b4:	8d 74 26 00          	lea    0x0(%esi,%eiz,1),%esi
    76b8:	50                   	push   %eax
    76b9:	8d 04 5b             	lea    (%ebx,%ebx,2),%eax
    76bc:	01 c0                	add    %eax,%eax
    76be:	8b 55 14             	mov    0x14(%ebp),%edx
    76c1:	50                   	push   %eax
    76c2:	52                   	push   %edx
    76c3:	57                   	push   %edi
    76c4:	e8 b7 5c 00 00       	call   d380 <async_data_read_start@plt>
    76c9:	83 c4 10             	add    $0x10,%esp
    76cc:	eb cb                	jmp    7699 <nic_multicast_get_mode+0x79>
    76ce:	66 90                	xchg   %ax,%ax
    76d0:	31 db                	xor    %ebx,%ebx
    76d2:	e9 6b ff ff ff       	jmp    7642 <nic_multicast_get_mode+0x22>
    76d7:	50                   	push   %eax
    76d8:	68 94 02 00 00       	push   $0x294
    76dd:	68 44 c9 00 00       	push   $0xc944
    76e2:	68 e9 c9 00 00       	push   $0xc9e9
    76e7:	e8 f4 5a 00 00       	call   d1e0 <assert_abort@plt>
    76ec:	8d 74 26 00          	lea    0x0(%esi,%eiz,1),%esi

000076f0 <nic_multicast_set_mode>:
    76f0:	55                   	push   %ebp
    76f1:	89 e5                	mov    %esp,%ebp
    76f3:	57                   	push   %edi
    76f4:	56                   	push   %esi
    76f5:	53                   	push   %ebx
    76f6:	83 ec 2c             	sub    $0x2c,%esp
    76f9:	8b 75 10             	mov    0x10(%ebp),%esi
    76fc:	8b 45 08             	mov    0x8(%ebp),%eax
    76ff:	8b 5d 14             	mov    0x14(%ebp),%ebx
    7702:	85 f6                	test   %esi,%esi
    7704:	0f 84 96 00 00 00    	je     77a0 <nic_multicast_set_mode+0xb0>
    770a:	83 ec 0c             	sub    $0xc,%esp
    770d:	50                   	push   %eax
    770e:	e8 fd 5c 00 00       	call   d410 <async_exchange_begin@plt>
    7713:	83 c4 0c             	add    $0xc,%esp
    7716:	8b 4d 0c             	mov    0xc(%ebp),%ecx
    7719:	89 c7                	mov    %eax,%edi
    771b:	6a 00                	push   $0x0
    771d:	6a 00                	push   $0x0
    771f:	53                   	push   %ebx
    7720:	51                   	push   %ecx
    7721:	6a 14                	push   $0x14
    7723:	68 05 04 00 00       	push   $0x405
    7728:	50                   	push   %eax
    7729:	e8 42 5a 00 00       	call   d170 <async_send_fast@plt>
    772e:	83 c4 20             	add    $0x20,%esp
    7731:	89 c6                	mov    %eax,%esi
    7733:	85 db                	test   %ebx,%ebx
    7735:	75 29                	jne    7760 <nic_multicast_set_mode+0x70>
    7737:	83 ec 0c             	sub    $0xc,%esp
    773a:	57                   	push   %edi
    773b:	e8 90 5a 00 00       	call   d1d0 <async_exchange_end@plt>
    7740:	58                   	pop    %eax
    7741:	8d 45 e4             	lea    -0x1c(%ebp),%eax
    7744:	5a                   	pop    %edx
    7745:	50                   	push   %eax
    7746:	56                   	push   %esi
    7747:	e8 24 59 00 00       	call   d070 <async_wait_for@plt>
    774c:	83 c4 10             	add    $0x10,%esp
    774f:	8b 45 e4             	mov    -0x1c(%ebp),%eax
    7752:	8d 65 f4             	lea    -0xc(%ebp),%esp
    7755:	5b                   	pop    %ebx
    7756:	5e                   	pop    %esi
    7757:	5f                   	pop    %edi
    7758:	5d                   	pop    %ebp
    7759:	c3                   	ret    
    775a:	8d b6 00 00 00 00    	lea    0x0(%esi),%esi
    7760:	50                   	push   %eax
    7761:	8d 04 5b             	lea    (%ebx,%ebx,2),%eax
    7764:	01 c0                	add    %eax,%eax
    7766:	50                   	push   %eax
    7767:	8b 45 10             	mov    0x10(%ebp),%eax
    776a:	50                   	push   %eax
    776b:	57                   	push   %edi
    776c:	e8 3f 59 00 00       	call   d0b0 <async_data_write_start@plt>
    7771:	89 3c 24             	mov    %edi,(%esp)
    7774:	89 45 d4             	mov    %eax,-0x2c(%ebp)
    7777:	e8 54 5a 00 00       	call   d1d0 <async_exchange_end@plt>
    777c:	8d 4d e4             	lea    -0x1c(%ebp),%ecx
    777f:	58                   	pop    %eax
    7780:	5a                   	pop    %edx
    7781:	51                   	push   %ecx
    7782:	56                   	push   %esi
    7783:	e8 e8 58 00 00       	call   d070 <async_wait_for@plt>
    7788:	8b 45 d4             	mov    -0x2c(%ebp),%eax
    778b:	83 c4 10             	add    $0x10,%esp
    778e:	85 c0                	test   %eax,%eax
    7790:	74 bd                	je     774f <nic_multicast_set_mode+0x5f>
    7792:	8d 65 f4             	lea    -0xc(%ebp),%esp
    7795:	5b                   	pop    %ebx
    7796:	5e                   	pop    %esi
    7797:	5f                   	pop    %edi
    7798:	5d                   	pop    %ebp
    7799:	c3                   	ret    
    779a:	8d b6 00 00 00 00    	lea    0x0(%esi),%esi
    77a0:	83 ec 0c             	sub    $0xc,%esp
    77a3:	50                   	push   %eax
    77a4:	e8 67 5c 00 00       	call   d410 <async_exchange_begin@plt>
    77a9:	83 c4 0c             	add    $0xc,%esp
    77ac:	8b 4d 0c             	mov    0xc(%ebp),%ecx
    77af:	89 c3                	mov    %eax,%ebx
    77b1:	6a 00                	push   $0x0
    77b3:	6a 00                	push   $0x0
    77b5:	6a 00                	push   $0x0
    77b7:	51                   	push   %ecx
    77b8:	6a 14                	push   $0x14
    77ba:	68 05 04 00 00       	push   $0x405
    77bf:	50                   	push   %eax
    77c0:	e8 ab 59 00 00       	call   d170 <async_send_fast@plt>
    77c5:	83 c4 14             	add    $0x14,%esp
    77c8:	89 c6                	mov    %eax,%esi
    77ca:	53                   	push   %ebx
    77cb:	e9 6b ff ff ff       	jmp    773b <nic_multicast_set_mode+0x4b>

000077d0 <nic_broadcast_get_mode>:
    77d0:	55                   	push   %ebp
    77d1:	89 e5                	mov    %esp,%ebp
    77d3:	56                   	push   %esi
    77d4:	53                   	push   %ebx
    77d5:	83 ec 20             	sub    $0x20,%esp
    77d8:	8b 5d 0c             	mov    0xc(%ebp),%ebx
    77db:	85 db                	test   %ebx,%ebx
    77dd:	74 4b                	je     782a <nic_broadcast_get_mode+0x5a>
    77df:	83 ec 0c             	sub    $0xc,%esp
    77e2:	8b 45 08             	mov    0x8(%ebp),%eax
    77e5:	50                   	push   %eax
    77e6:	e8 25 5c 00 00       	call   d410 <async_exchange_begin@plt>
    77eb:	83 c4 0c             	add    $0xc,%esp
    77ee:	89 c6                	mov    %eax,%esi
    77f0:	8d 45 f4             	lea    -0xc(%ebp),%eax
    77f3:	6a 00                	push   $0x0
    77f5:	6a 00                	push   $0x0
    77f7:	6a 00                	push   $0x0
    77f9:	6a 00                	push   $0x0
    77fb:	50                   	push   %eax
    77fc:	6a 00                	push   $0x0
    77fe:	6a 00                	push   $0x0
    7800:	6a 00                	push   $0x0
    7802:	6a 15                	push   $0x15
    7804:	68 05 04 00 00       	push   $0x405
    7809:	56                   	push   %esi
    780a:	e8 41 59 00 00       	call   d150 <async_req_fast@plt>
    780f:	83 c4 24             	add    $0x24,%esp
    7812:	89 45 e4             	mov    %eax,-0x1c(%ebp)
    7815:	56                   	push   %esi
    7816:	e8 b5 59 00 00       	call   d1d0 <async_exchange_end@plt>
    781b:	8b 55 f4             	mov    -0xc(%ebp),%edx
    781e:	8b 45 e4             	mov    -0x1c(%ebp),%eax
    7821:	89 13                	mov    %edx,(%ebx)
    7823:	8d 65 f8             	lea    -0x8(%ebp),%esp
    7826:	5b                   	pop    %ebx
    7827:	5e                   	pop    %esi
    7828:	5d                   	pop    %ebp
    7829:	c3                   	ret    
    782a:	52                   	push   %edx
    782b:	68 e2 02 00 00       	push   $0x2e2
    7830:	68 44 c9 00 00       	push   $0xc944
    7835:	68 e9 c9 00 00       	push   $0xc9e9
    783a:	e8 a1 59 00 00       	call   d1e0 <assert_abort@plt>
    783f:	90                   	nop

00007840 <nic_broadcast_set_mode>:
    7840:	55                   	push   %ebp
    7841:	89 e5                	mov    %esp,%ebp
    7843:	53                   	push   %ebx
    7844:	83 ec 20             	sub    $0x20,%esp
    7847:	8b 45 08             	mov    0x8(%ebp),%eax
    784a:	50                   	push   %eax
    784b:	e8 c0 5b 00 00       	call   d410 <async_exchange_begin@plt>
    7850:	83 c4 0c             	add    $0xc,%esp
    7853:	8b 55 0c             	mov    0xc(%ebp),%edx
    7856:	89 c3                	mov    %eax,%ebx
    7858:	6a 00                	push   $0x0
    785a:	6a 00                	push   $0x0
    785c:	6a 00                	push   $0x0
    785e:	6a 00                	push   $0x0
    7860:	6a 00                	push   $0x0
    7862:	6a 00                	push   $0x0
    7864:	6a 00                	push   $0x0
    7866:	52                   	push   %edx
    7867:	6a 16                	push   $0x16
    7869:	68 05 04 00 00       	push   $0x405
    786e:	50                   	push   %eax
    786f:	e8 dc 58 00 00       	call   d150 <async_req_fast@plt>
    7874:	83 c4 24             	add    $0x24,%esp
    7877:	89 45 f4             	mov    %eax,-0xc(%ebp)
    787a:	53                   	push   %ebx
    787b:	e8 50 59 00 00       	call   d1d0 <async_exchange_end@plt>
    7880:	8b 45 f4             	mov    -0xc(%ebp),%eax
    7883:	8b 5d fc             	mov    -0x4(%ebp),%ebx
    7886:	c9                   	leave  
    7887:	c3                   	ret    
    7888:	90                   	nop
    7889:	8d b4 26 00 00 00 00 	lea    0x0(%esi,%eiz,1),%esi

00007890 <nic_defective_get_mode>:
    7890:	55                   	push   %ebp
    7891:	89 e5                	mov    %esp,%ebp
    7893:	56                   	push   %esi
    7894:	53                   	push   %ebx
    7895:	83 ec 20             	sub    $0x20,%esp
    7898:	8b 5d 0c             	mov    0xc(%ebp),%ebx
    789b:	85 db                	test   %ebx,%ebx
    789d:	74 4b                	je     78ea <nic_defective_get_mode+0x5a>
    789f:	83 ec 0c             	sub    $0xc,%esp
    78a2:	8b 45 08             	mov    0x8(%ebp),%eax
    78a5:	50                   	push   %eax
    78a6:	e8 65 5b 00 00       	call   d410 <async_exchange_begin@plt>
    78ab:	83 c4 0c             	add    $0xc,%esp
    78ae:	89 c6                	mov    %eax,%esi
    78b0:	8d 45 f4             	lea    -0xc(%ebp),%eax
    78b3:	6a 00                	push   $0x0
    78b5:	6a 00                	push   $0x0
    78b7:	6a 00                	push   $0x0
    78b9:	6a 00                	push   $0x0
    78bb:	50                   	push   %eax
    78bc:	6a 00                	push   $0x0
    78be:	6a 00                	push   $0x0
    78c0:	6a 00                	push   $0x0
    78c2:	6a 17                	push   $0x17
    78c4:	68 05 04 00 00       	push   $0x405
    78c9:	56                   	push   %esi
    78ca:	e8 81 58 00 00       	call   d150 <async_req_fast@plt>
    78cf:	83 c4 24             	add    $0x24,%esp
    78d2:	89 45 e4             	mov    %eax,-0x1c(%ebp)
    78d5:	56                   	push   %esi
    78d6:	e8 f5 58 00 00       	call   d1d0 <async_exchange_end@plt>
    78db:	8b 55 f4             	mov    -0xc(%ebp),%edx
    78de:	8b 45 e4             	mov    -0x1c(%ebp),%eax
    78e1:	89 13                	mov    %edx,(%ebx)
    78e3:	8d 65 f8             	lea    -0x8(%ebp),%esp
    78e6:	5b                   	pop    %ebx
    78e7:	5e                   	pop    %esi
    78e8:	5d                   	pop    %ebp
    78e9:	c3                   	ret    
    78ea:	52                   	push   %edx
    78eb:	68 0c 03 00 00       	push   $0x30c
    78f0:	68 44 c9 00 00       	push   $0xc944
    78f5:	68 e9 c9 00 00       	push   $0xc9e9
    78fa:	e8 e1 58 00 00       	call   d1e0 <assert_abort@plt>
    78ff:	90                   	nop

00007900 <nic_defective_set_mode>:
    7900:	55                   	push   %ebp
    7901:	89 e5                	mov    %esp,%ebp
    7903:	53                   	push   %ebx
    7904:	83 ec 20             	sub    $0x20,%esp
    7907:	8b 45 08             	mov    0x8(%ebp),%eax
    790a:	50                   	push   %eax
    790b:	e8 00 5b 00 00       	call   d410 <async_exchange_begin@plt>
    7910:	83 c4 0c             	add    $0xc,%esp
    7913:	8b 55 0c             	mov    0xc(%ebp),%edx
    7916:	89 c3                	mov    %eax,%ebx
    7918:	6a 00                	push   $0x0
    791a:	6a 00                	push   $0x0
    791c:	6a 00                	push   $0x0
    791e:	6a 00                	push   $0x0
    7920:	6a 00                	push   $0x0
    7922:	6a 00                	push   $0x0
    7924:	6a 00                	push   $0x0
    7926:	52                   	push   %edx
    7927:	6a 18                	push   $0x18
    7929:	68 05 04 00 00       	push   $0x405
    792e:	50                   	push   %eax
    792f:	e8 1c 58 00 00       	call   d150 <async_req_fast@plt>
    7934:	83 c4 24             	add    $0x24,%esp
    7937:	89 45 f4             	mov    %eax,-0xc(%ebp)
    793a:	53                   	push   %ebx
    793b:	e8 90 58 00 00       	call   d1d0 <async_exchange_end@plt>
    7940:	8b 45 f4             	mov    -0xc(%ebp),%eax
    7943:	8b 5d fc             	mov    -0x4(%ebp),%ebx
    7946:	c9                   	leave  
    7947:	c3                   	ret    
    7948:	90                   	nop
    7949:	8d b4 26 00 00 00 00 	lea    0x0(%esi,%eiz,1),%esi

00007950 <nic_blocked_sources_get>:
    7950:	55                   	push   %ebp
    7951:	89 e5                	mov    %esp,%ebp
    7953:	57                   	push   %edi
    7954:	56                   	push   %esi
    7955:	53                   	push   %ebx
    7956:	83 ec 2c             	sub    $0x2c,%esp
    7959:	8b 45 10             	mov    0x10(%ebp),%eax
    795c:	8b 5d 0c             	mov    0xc(%ebp),%ebx
    795f:	8b 75 14             	mov    0x14(%ebp),%esi
    7962:	85 c0                	test   %eax,%eax
    7964:	0f 84 7e 00 00 00    	je     79e8 <nic_blocked_sources_get+0x98>
    796a:	83 ec 0c             	sub    $0xc,%esp
    796d:	8b 7d 08             	mov    0x8(%ebp),%edi
    7970:	57                   	push   %edi
    7971:	e8 9a 5a 00 00       	call   d410 <async_exchange_begin@plt>
    7976:	83 c4 0c             	add    $0xc,%esp
    7979:	89 c7                	mov    %eax,%edi
    797b:	8d 45 e4             	lea    -0x1c(%ebp),%eax
    797e:	6a 00                	push   $0x0
    7980:	6a 00                	push   $0x0
    7982:	6a 00                	push   $0x0
    7984:	6a 00                	push   $0x0
    7986:	50                   	push   %eax
    7987:	6a 00                	push   $0x0
    7989:	6a 00                	push   $0x0
    798b:	53                   	push   %ebx
    798c:	6a 19                	push   $0x19
    798e:	68 05 04 00 00       	push   $0x405
    7993:	57                   	push   %edi
    7994:	e8 b7 57 00 00       	call   d150 <async_req_fast@plt>
    7999:	83 c4 30             	add    $0x30,%esp
    799c:	85 c0                	test   %eax,%eax
    799e:	75 14                	jne    79b4 <nic_blocked_sources_get+0x64>
    79a0:	85 f6                	test   %esi,%esi
    79a2:	74 05                	je     79a9 <nic_blocked_sources_get+0x59>
    79a4:	8b 4d e4             	mov    -0x1c(%ebp),%ecx
    79a7:	89 0e                	mov    %ecx,(%esi)
    79a9:	85 db                	test   %ebx,%ebx
    79ab:	74 07                	je     79b4 <nic_blocked_sources_get+0x64>
    79ad:	8b 4d e4             	mov    -0x1c(%ebp),%ecx
    79b0:	85 c9                	test   %ecx,%ecx
    79b2:	75 1c                	jne    79d0 <nic_blocked_sources_get+0x80>
    79b4:	83 ec 0c             	sub    $0xc,%esp
    79b7:	89 45 d4             	mov    %eax,-0x2c(%ebp)
    79ba:	57                   	push   %edi
    79bb:	e8 10 58 00 00       	call   d1d0 <async_exchange_end@plt>
    79c0:	8b 45 d4             	mov    -0x2c(%ebp),%eax
    79c3:	83 c4 10             	add    $0x10,%esp
    79c6:	8d 65 f4             	lea    -0xc(%ebp),%esp
    79c9:	5b                   	pop    %ebx
    79ca:	5e                   	pop    %esi
    79cb:	5f                   	pop    %edi
    79cc:	5d                   	pop    %ebp
    79cd:	c3                   	ret    
    79ce:	66 90                	xchg   %ax,%ax
    79d0:	50                   	push   %eax
    79d1:	8d 04 5b             	lea    (%ebx,%ebx,2),%eax
    79d4:	01 c0                	add    %eax,%eax
    79d6:	8b 55 10             	mov    0x10(%ebp),%edx
    79d9:	50                   	push   %eax
    79da:	52                   	push   %edx
    79db:	57                   	push   %edi
    79dc:	e8 9f 59 00 00       	call   d380 <async_data_read_start@plt>
    79e1:	83 c4 10             	add    $0x10,%esp
    79e4:	eb ce                	jmp    79b4 <nic_blocked_sources_get+0x64>
    79e6:	66 90                	xchg   %ax,%ax
    79e8:	31 db                	xor    %ebx,%ebx
    79ea:	e9 7b ff ff ff       	jmp    796a <nic_blocked_sources_get+0x1a>
    79ef:	90                   	nop

000079f0 <nic_blocked_sources_set>:
    79f0:	55                   	push   %ebp
    79f1:	89 e5                	mov    %esp,%ebp
    79f3:	57                   	push   %edi
    79f4:	56                   	push   %esi
    79f5:	53                   	push   %ebx
    79f6:	83 ec 2c             	sub    $0x2c,%esp
    79f9:	8b 4d 0c             	mov    0xc(%ebp),%ecx
    79fc:	8b 45 08             	mov    0x8(%ebp),%eax
    79ff:	8b 5d 10             	mov    0x10(%ebp),%ebx
    7a02:	85 c9                	test   %ecx,%ecx
    7a04:	0f 84 8e 00 00 00    	je     7a98 <nic_blocked_sources_set+0xa8>
    7a0a:	83 ec 0c             	sub    $0xc,%esp
    7a0d:	50                   	push   %eax
    7a0e:	e8 fd 59 00 00       	call   d410 <async_exchange_begin@plt>
    7a13:	83 c4 0c             	add    $0xc,%esp
    7a16:	89 c6                	mov    %eax,%esi
    7a18:	6a 00                	push   $0x0
    7a1a:	6a 00                	push   $0x0
    7a1c:	6a 00                	push   $0x0
    7a1e:	53                   	push   %ebx
    7a1f:	6a 1a                	push   $0x1a
    7a21:	68 05 04 00 00       	push   $0x405
    7a26:	50                   	push   %eax
    7a27:	e8 44 57 00 00       	call   d170 <async_send_fast@plt>
    7a2c:	83 c4 20             	add    $0x20,%esp
    7a2f:	89 c7                	mov    %eax,%edi
    7a31:	85 db                	test   %ebx,%ebx
    7a33:	75 23                	jne    7a58 <nic_blocked_sources_set+0x68>
    7a35:	83 ec 0c             	sub    $0xc,%esp
    7a38:	56                   	push   %esi
    7a39:	e8 92 57 00 00       	call   d1d0 <async_exchange_end@plt>
    7a3e:	58                   	pop    %eax
    7a3f:	8d 45 e4             	lea    -0x1c(%ebp),%eax
    7a42:	5a                   	pop    %edx
    7a43:	50                   	push   %eax
    7a44:	57                   	push   %edi
    7a45:	e8 26 56 00 00       	call   d070 <async_wait_for@plt>
    7a4a:	83 c4 10             	add    $0x10,%esp
    7a4d:	8b 45 e4             	mov    -0x1c(%ebp),%eax
    7a50:	8d 65 f4             	lea    -0xc(%ebp),%esp
    7a53:	5b                   	pop    %ebx
    7a54:	5e                   	pop    %esi
    7a55:	5f                   	pop    %edi
    7a56:	5d                   	pop    %ebp
    7a57:	c3                   	ret    
    7a58:	50                   	push   %eax
    7a59:	8d 04 5b             	lea    (%ebx,%ebx,2),%eax
    7a5c:	01 c0                	add    %eax,%eax
    7a5e:	50                   	push   %eax
    7a5f:	8b 45 0c             	mov    0xc(%ebp),%eax
    7a62:	50                   	push   %eax
    7a63:	56                   	push   %esi
    7a64:	e8 47 56 00 00       	call   d0b0 <async_data_write_start@plt>
    7a69:	89 34 24             	mov    %esi,(%esp)
    7a6c:	89 45 d4             	mov    %eax,-0x2c(%ebp)
    7a6f:	e8 5c 57 00 00       	call   d1d0 <async_exchange_end@plt>
    7a74:	8d 4d e4             	lea    -0x1c(%ebp),%ecx
    7a77:	58                   	pop    %eax
    7a78:	5a                   	pop    %edx
    7a79:	51                   	push   %ecx
    7a7a:	57                   	push   %edi
    7a7b:	e8 f0 55 00 00       	call   d070 <async_wait_for@plt>
    7a80:	8b 45 d4             	mov    -0x2c(%ebp),%eax
    7a83:	83 c4 10             	add    $0x10,%esp
    7a86:	85 c0                	test   %eax,%eax
    7a88:	74 c3                	je     7a4d <nic_blocked_sources_set+0x5d>
    7a8a:	8d 65 f4             	lea    -0xc(%ebp),%esp
    7a8d:	5b                   	pop    %ebx
    7a8e:	5e                   	pop    %esi
    7a8f:	5f                   	pop    %edi
    7a90:	5d                   	pop    %ebp
    7a91:	c3                   	ret    
    7a92:	8d b6 00 00 00 00    	lea    0x0(%esi),%esi
    7a98:	83 ec 0c             	sub    $0xc,%esp
    7a9b:	50                   	push   %eax
    7a9c:	e8 6f 59 00 00       	call   d410 <async_exchange_begin@plt>
    7aa1:	83 c4 0c             	add    $0xc,%esp
    7aa4:	89 c3                	mov    %eax,%ebx
    7aa6:	6a 00                	push   $0x0
    7aa8:	6a 00                	push   $0x0
    7aaa:	6a 00                	push   $0x0
    7aac:	6a 00                	push   $0x0
    7aae:	6a 1a                	push   $0x1a
    7ab0:	68 05 04 00 00       	push   $0x405
    7ab5:	50                   	push   %eax
    7ab6:	e8 b5 56 00 00       	call   d170 <async_send_fast@plt>
    7abb:	83 c4 14             	add    $0x14,%esp
    7abe:	89 c6                	mov    %eax,%esi
    7ac0:	53                   	push   %ebx
    7ac1:	e8 0a 57 00 00       	call   d1d0 <async_exchange_end@plt>
    7ac6:	8d 45 e4             	lea    -0x1c(%ebp),%eax
    7ac9:	59                   	pop    %ecx
    7aca:	5b                   	pop    %ebx
    7acb:	50                   	push   %eax
    7acc:	56                   	push   %esi
    7acd:	e8 9e 55 00 00       	call   d070 <async_wait_for@plt>
    7ad2:	83 c4 10             	add    $0x10,%esp
    7ad5:	e9 73 ff ff ff       	jmp    7a4d <nic_blocked_sources_set+0x5d>
    7ada:	8d b6 00 00 00 00    	lea    0x0(%esi),%esi

00007ae0 <nic_vlan_get_mask>:
    7ae0:	55                   	push   %ebp
    7ae1:	89 e5                	mov    %esp,%ebp
    7ae3:	56                   	push   %esi
    7ae4:	53                   	push   %ebx
    7ae5:	83 ec 10             	sub    $0x10,%esp
    7ae8:	8b 75 0c             	mov    0xc(%ebp),%esi
    7aeb:	85 f6                	test   %esi,%esi
    7aed:	74 7a                	je     7b69 <nic_vlan_get_mask+0x89>
    7aef:	83 ec 0c             	sub    $0xc,%esp
    7af2:	8b 55 08             	mov    0x8(%ebp),%edx
    7af5:	52                   	push   %edx
    7af6:	e8 15 59 00 00       	call   d410 <async_exchange_begin@plt>
    7afb:	83 c4 0c             	add    $0xc,%esp
    7afe:	89 c3                	mov    %eax,%ebx
    7b00:	6a 00                	push   $0x0
    7b02:	6a 00                	push   $0x0
    7b04:	6a 00                	push   $0x0
    7b06:	6a 00                	push   $0x0
    7b08:	6a 00                	push   $0x0
    7b0a:	6a 00                	push   $0x0
    7b0c:	6a 00                	push   $0x0
    7b0e:	6a 00                	push   $0x0
    7b10:	6a 1b                	push   $0x1b
    7b12:	68 05 04 00 00       	push   $0x405
    7b17:	50                   	push   %eax
    7b18:	e8 33 56 00 00       	call   d150 <async_req_fast@plt>
    7b1d:	83 c4 30             	add    $0x30,%esp
    7b20:	85 c0                	test   %eax,%eax
    7b22:	75 2c                	jne    7b50 <nic_vlan_get_mask+0x70>
    7b24:	50                   	push   %eax
    7b25:	68 00 02 00 00       	push   $0x200
    7b2a:	56                   	push   %esi
    7b2b:	53                   	push   %ebx
    7b2c:	e8 4f 58 00 00       	call   d380 <async_data_read_start@plt>
    7b31:	89 1c 24             	mov    %ebx,(%esp)
    7b34:	89 45 f4             	mov    %eax,-0xc(%ebp)
    7b37:	e8 94 56 00 00       	call   d1d0 <async_exchange_end@plt>
    7b3c:	8b 45 f4             	mov    -0xc(%ebp),%eax
    7b3f:	83 c4 10             	add    $0x10,%esp
    7b42:	8d 65 f8             	lea    -0x8(%ebp),%esp
    7b45:	5b                   	pop    %ebx
    7b46:	5e                   	pop    %esi
    7b47:	5d                   	pop    %ebp
    7b48:	c3                   	ret    
    7b49:	8d b4 26 00 00 00 00 	lea    0x0(%esi,%eiz,1),%esi
    7b50:	83 ec 0c             	sub    $0xc,%esp
    7b53:	89 45 f4             	mov    %eax,-0xc(%ebp)
    7b56:	53                   	push   %ebx
    7b57:	e8 74 56 00 00       	call   d1d0 <async_exchange_end@plt>
    7b5c:	8b 45 f4             	mov    -0xc(%ebp),%eax
    7b5f:	83 c4 10             	add    $0x10,%esp
    7b62:	8d 65 f8             	lea    -0x8(%ebp),%esp
    7b65:	5b                   	pop    %ebx
    7b66:	5e                   	pop    %esi
    7b67:	5d                   	pop    %ebp
    7b68:	c3                   	ret    
    7b69:	51                   	push   %ecx
    7b6a:	68 83 03 00 00       	push   $0x383
    7b6f:	68 44 c9 00 00       	push   $0xc944
    7b74:	68 ee c9 00 00       	push   $0xc9ee
    7b79:	e8 62 56 00 00       	call   d1e0 <assert_abort@plt>
    7b7e:	66 90                	xchg   %ax,%ax

00007b80 <nic_vlan_set_mask>:
    7b80:	55                   	push   %ebp
    7b81:	89 e5                	mov    %esp,%ebp
    7b83:	57                   	push   %edi
    7b84:	56                   	push   %esi
    7b85:	53                   	push   %ebx
    7b86:	83 ec 38             	sub    $0x38,%esp
    7b89:	8b 7d 08             	mov    0x8(%ebp),%edi
    7b8c:	8b 5d 0c             	mov    0xc(%ebp),%ebx
    7b8f:	57                   	push   %edi
    7b90:	e8 7b 58 00 00       	call   d410 <async_exchange_begin@plt>
    7b95:	83 c4 0c             	add    $0xc,%esp
    7b98:	89 c6                	mov    %eax,%esi
    7b9a:	31 c0                	xor    %eax,%eax
    7b9c:	85 db                	test   %ebx,%ebx
    7b9e:	0f 95 c0             	setne  %al
    7ba1:	6a 00                	push   $0x0
    7ba3:	6a 00                	push   $0x0
    7ba5:	6a 00                	push   $0x0
    7ba7:	50                   	push   %eax
    7ba8:	6a 1c                	push   $0x1c
    7baa:	68 05 04 00 00       	push   $0x405
    7baf:	56                   	push   %esi
    7bb0:	e8 bb 55 00 00       	call   d170 <async_send_fast@plt>
    7bb5:	83 c4 20             	add    $0x20,%esp
    7bb8:	89 c7                	mov    %eax,%edi
    7bba:	85 db                	test   %ebx,%ebx
    7bbc:	74 3a                	je     7bf8 <nic_vlan_set_mask+0x78>
    7bbe:	51                   	push   %ecx
    7bbf:	68 00 02 00 00       	push   $0x200
    7bc4:	53                   	push   %ebx
    7bc5:	56                   	push   %esi
    7bc6:	e8 e5 54 00 00       	call   d0b0 <async_data_write_start@plt>
    7bcb:	89 34 24             	mov    %esi,(%esp)
    7bce:	89 45 d4             	mov    %eax,-0x2c(%ebp)
    7bd1:	e8 fa 55 00 00       	call   d1d0 <async_exchange_end@plt>
    7bd6:	8d 55 e4             	lea    -0x1c(%ebp),%edx
    7bd9:	5b                   	pop    %ebx
    7bda:	5e                   	pop    %esi
    7bdb:	52                   	push   %edx
    7bdc:	57                   	push   %edi
    7bdd:	e8 8e 54 00 00       	call   d070 <async_wait_for@plt>
    7be2:	8b 45 d4             	mov    -0x2c(%ebp),%eax
    7be5:	83 c4 10             	add    $0x10,%esp
    7be8:	85 c0                	test   %eax,%eax
    7bea:	74 24                	je     7c10 <nic_vlan_set_mask+0x90>
    7bec:	8d 65 f4             	lea    -0xc(%ebp),%esp
    7bef:	5b                   	pop    %ebx
    7bf0:	5e                   	pop    %esi
    7bf1:	5f                   	pop    %edi
    7bf2:	5d                   	pop    %ebp
    7bf3:	c3                   	ret    
    7bf4:	8d 74 26 00          	lea    0x0(%esi,%eiz,1),%esi
    7bf8:	83 ec 0c             	sub    $0xc,%esp
    7bfb:	56                   	push   %esi
    7bfc:	e8 cf 55 00 00       	call   d1d0 <async_exchange_end@plt>
    7c01:	58                   	pop    %eax
    7c02:	8d 45 e4             	lea    -0x1c(%ebp),%eax
    7c05:	5a                   	pop    %edx
    7c06:	50                   	push   %eax
    7c07:	57                   	push   %edi
    7c08:	e8 63 54 00 00       	call   d070 <async_wait_for@plt>
    7c0d:	83 c4 10             	add    $0x10,%esp
    7c10:	8b 45 e4             	mov    -0x1c(%ebp),%eax
    7c13:	8d 65 f4             	lea    -0xc(%ebp),%esp
    7c16:	5b                   	pop    %ebx
    7c17:	5e                   	pop    %esi
    7c18:	5f                   	pop    %edi
    7c19:	5d                   	pop    %ebp
    7c1a:	c3                   	ret    
    7c1b:	90                   	nop
    7c1c:	8d 74 26 00          	lea    0x0(%esi,%eiz,1),%esi

00007c20 <nic_vlan_set_tag>:
    7c20:	55                   	push   %ebp
    7c21:	89 e5                	mov    %esp,%ebp
    7c23:	57                   	push   %edi
    7c24:	56                   	push   %esi
    7c25:	53                   	push   %ebx
    7c26:	83 ec 28             	sub    $0x28,%esp
    7c29:	8b 55 14             	mov    0x14(%ebp),%edx
    7c2c:	8b 45 08             	mov    0x8(%ebp),%eax
    7c2f:	8b 5d 0c             	mov    0xc(%ebp),%ebx
    7c32:	8b 75 10             	mov    0x10(%ebp),%esi
    7c35:	89 55 e4             	mov    %edx,-0x1c(%ebp)
    7c38:	50                   	push   %eax
    7c39:	e8 d2 57 00 00       	call   d410 <async_exchange_begin@plt>
    7c3e:	83 c4 0c             	add    $0xc,%esp
    7c41:	8b 55 e4             	mov    -0x1c(%ebp),%edx
    7c44:	81 e6 ff 00 00 00    	and    $0xff,%esi
    7c4a:	81 e2 ff 00 00 00    	and    $0xff,%edx
    7c50:	81 e3 ff ff 00 00    	and    $0xffff,%ebx
    7c56:	6a 00                	push   $0x0
    7c58:	89 c7                	mov    %eax,%edi
    7c5a:	6a 00                	push   $0x0
    7c5c:	6a 00                	push   $0x0
    7c5e:	6a 00                	push   $0x0
    7c60:	6a 00                	push   $0x0
    7c62:	52                   	push   %edx
    7c63:	56                   	push   %esi
    7c64:	53                   	push   %ebx
    7c65:	6a 1d                	push   $0x1d
    7c67:	68 05 04 00 00       	push   $0x405
    7c6c:	50                   	push   %eax
    7c6d:	e8 de 54 00 00       	call   d150 <async_req_fast@plt>
    7c72:	83 c4 24             	add    $0x24,%esp
    7c75:	89 45 e4             	mov    %eax,-0x1c(%ebp)
    7c78:	57                   	push   %edi
    7c79:	e8 52 55 00 00       	call   d1d0 <async_exchange_end@plt>
    7c7e:	8b 45 e4             	mov    -0x1c(%ebp),%eax
    7c81:	8d 65 f4             	lea    -0xc(%ebp),%esp
    7c84:	5b                   	pop    %ebx
    7c85:	5e                   	pop    %esi
    7c86:	5f                   	pop    %edi
    7c87:	5d                   	pop    %ebp
    7c88:	c3                   	ret    
    7c89:	8d b4 26 00 00 00 00 	lea    0x0(%esi,%eiz,1),%esi

00007c90 <nic_wol_virtue_add>:
    7c90:	55                   	push   %ebp
    7c91:	89 e5                	mov    %esp,%ebp
    7c93:	57                   	push   %edi
    7c94:	56                   	push   %esi
    7c95:	53                   	push   %ebx
    7c96:	83 ec 4c             	sub    $0x4c,%esp
    7c99:	8b 5d 18             	mov    0x18(%ebp),%ebx
    7c9c:	85 db                	test   %ebx,%ebx
    7c9e:	0f 84 b0 00 00 00    	je     7d54 <nic_wol_virtue_add+0xc4>
    7ca4:	8b 45 10             	mov    0x10(%ebp),%eax
    7ca7:	85 c0                	test   %eax,%eax
    7ca9:	8b 45 14             	mov    0x14(%ebp),%eax
    7cac:	0f 95 c3             	setne  %bl
    7caf:	85 c0                	test   %eax,%eax
    7cb1:	0f 95 c0             	setne  %al
    7cb4:	83 ec 0c             	sub    $0xc,%esp
    7cb7:	21 c3                	and    %eax,%ebx
    7cb9:	8b 45 08             	mov    0x8(%ebp),%eax
    7cbc:	50                   	push   %eax
    7cbd:	e8 4e 57 00 00       	call   d410 <async_exchange_begin@plt>
    7cc2:	83 c4 0c             	add    $0xc,%esp
    7cc5:	89 c6                	mov    %eax,%esi
    7cc7:	8d 45 c4             	lea    -0x3c(%ebp),%eax
    7cca:	8b 55 0c             	mov    0xc(%ebp),%edx
    7ccd:	50                   	push   %eax
    7cce:	31 c0                	xor    %eax,%eax
    7cd0:	88 d8                	mov    %bl,%al
    7cd2:	6a 00                	push   $0x0
    7cd4:	50                   	push   %eax
    7cd5:	52                   	push   %edx
    7cd6:	6a 1e                	push   $0x1e
    7cd8:	68 05 04 00 00       	push   $0x405
    7cdd:	56                   	push   %esi
    7cde:	e8 8d 54 00 00       	call   d170 <async_send_fast@plt>
    7ce3:	83 c4 20             	add    $0x20,%esp
    7ce6:	89 c7                	mov    %eax,%edi
    7ce8:	84 db                	test   %bl,%bl
    7cea:	75 2c                	jne    7d18 <nic_wol_virtue_add+0x88>
    7cec:	83 ec 0c             	sub    $0xc,%esp
    7cef:	56                   	push   %esi
    7cf0:	e8 db 54 00 00       	call   d1d0 <async_exchange_end@plt>
    7cf5:	58                   	pop    %eax
    7cf6:	8d 45 c0             	lea    -0x40(%ebp),%eax
    7cf9:	5a                   	pop    %edx
    7cfa:	50                   	push   %eax
    7cfb:	57                   	push   %edi
    7cfc:	e8 6f 53 00 00       	call   d070 <async_wait_for@plt>
    7d01:	8b 4d 18             	mov    0x18(%ebp),%ecx
    7d04:	8b 45 c8             	mov    -0x38(%ebp),%eax
    7d07:	83 c4 10             	add    $0x10,%esp
    7d0a:	89 01                	mov    %eax,(%ecx)
    7d0c:	8b 45 c0             	mov    -0x40(%ebp),%eax
    7d0f:	8d 65 f4             	lea    -0xc(%ebp),%esp
    7d12:	5b                   	pop    %ebx
    7d13:	5e                   	pop    %esi
    7d14:	5f                   	pop    %edi
    7d15:	5d                   	pop    %ebp
    7d16:	c3                   	ret    
    7d17:	90                   	nop
    7d18:	50                   	push   %eax
    7d19:	8b 45 14             	mov    0x14(%ebp),%eax
    7d1c:	50                   	push   %eax
    7d1d:	8b 45 10             	mov    0x10(%ebp),%eax
    7d20:	50                   	push   %eax
    7d21:	56                   	push   %esi
    7d22:	e8 89 53 00 00       	call   d0b0 <async_data_write_start@plt>
    7d27:	83 c4 10             	add    $0x10,%esp
    7d2a:	85 c0                	test   %eax,%eax
    7d2c:	74 be                	je     7cec <nic_wol_virtue_add+0x5c>
    7d2e:	83 ec 0c             	sub    $0xc,%esp
    7d31:	89 45 b4             	mov    %eax,-0x4c(%ebp)
    7d34:	56                   	push   %esi
    7d35:	e8 96 54 00 00       	call   d1d0 <async_exchange_end@plt>
    7d3a:	8d 55 c0             	lea    -0x40(%ebp),%edx
    7d3d:	59                   	pop    %ecx
    7d3e:	5b                   	pop    %ebx
    7d3f:	52                   	push   %edx
    7d40:	57                   	push   %edi
    7d41:	e8 2a 53 00 00       	call   d070 <async_wait_for@plt>
    7d46:	8b 45 b4             	mov    -0x4c(%ebp),%eax
    7d49:	83 c4 10             	add    $0x10,%esp
    7d4c:	8d 65 f4             	lea    -0xc(%ebp),%esp
    7d4f:	5b                   	pop    %ebx
    7d50:	5e                   	pop    %esi
    7d51:	5f                   	pop    %edi
    7d52:	5d                   	pop    %ebp
    7d53:	c3                   	ret    
    7d54:	51                   	push   %ecx
    7d55:	68 de 03 00 00       	push   $0x3de
    7d5a:	68 44 c9 00 00       	push   $0xc944
    7d5f:	68 f3 c9 00 00       	push   $0xc9f3
    7d64:	e8 77 54 00 00       	call   d1e0 <assert_abort@plt>
    7d69:	8d b4 26 00 00 00 00 	lea    0x0(%esi,%eiz,1),%esi

00007d70 <nic_wol_virtue_remove>:
    7d70:	55                   	push   %ebp
    7d71:	89 e5                	mov    %esp,%ebp
    7d73:	53                   	push   %ebx
    7d74:	83 ec 20             	sub    $0x20,%esp
    7d77:	8b 45 08             	mov    0x8(%ebp),%eax
    7d7a:	50                   	push   %eax
    7d7b:	e8 90 56 00 00       	call   d410 <async_exchange_begin@plt>
    7d80:	83 c4 0c             	add    $0xc,%esp
    7d83:	8b 55 0c             	mov    0xc(%ebp),%edx
    7d86:	89 c3                	mov    %eax,%ebx
    7d88:	6a 00                	push   $0x0
    7d8a:	6a 00                	push   $0x0
    7d8c:	6a 00                	push   $0x0
    7d8e:	6a 00                	push   $0x0
    7d90:	6a 00                	push   $0x0
    7d92:	6a 00                	push   $0x0
    7d94:	6a 00                	push   $0x0
    7d96:	52                   	push   %edx
    7d97:	6a 1f                	push   $0x1f
    7d99:	68 05 04 00 00       	push   $0x405
    7d9e:	50                   	push   %eax
    7d9f:	e8 ac 53 00 00       	call   d150 <async_req_fast@plt>
    7da4:	83 c4 24             	add    $0x24,%esp
    7da7:	89 45 f4             	mov    %eax,-0xc(%ebp)
    7daa:	53                   	push   %ebx
    7dab:	e8 20 54 00 00       	call   d1d0 <async_exchange_end@plt>
    7db0:	8b 45 f4             	mov    -0xc(%ebp),%eax
    7db3:	8b 5d fc             	mov    -0x4(%ebp),%ebx
    7db6:	c9                   	leave  
    7db7:	c3                   	ret    
    7db8:	90                   	nop
    7db9:	8d b4 26 00 00 00 00 	lea    0x0(%esi,%eiz,1),%esi

00007dc0 <nic_wol_virtue_probe>:
    7dc0:	55                   	push   %ebp
    7dc1:	89 e5                	mov    %esp,%ebp
    7dc3:	57                   	push   %edi
    7dc4:	56                   	push   %esi
    7dc5:	53                   	push   %ebx
    7dc6:	83 ec 2c             	sub    $0x2c,%esp
    7dc9:	8b 45 18             	mov    0x18(%ebp),%eax
    7dcc:	8b 7d 10             	mov    0x10(%ebp),%edi
    7dcf:	8b 5d 14             	mov    0x14(%ebp),%ebx
    7dd2:	85 c0                	test   %eax,%eax
    7dd4:	0f 84 96 00 00 00    	je     7e70 <nic_wol_virtue_probe+0xb0>
    7dda:	83 ec 0c             	sub    $0xc,%esp
    7ddd:	8b 45 08             	mov    0x8(%ebp),%eax
    7de0:	50                   	push   %eax
    7de1:	e8 2a 56 00 00       	call   d410 <async_exchange_begin@plt>
    7de6:	83 c4 0c             	add    $0xc,%esp
    7de9:	89 c6                	mov    %eax,%esi
    7deb:	8d 45 e4             	lea    -0x1c(%ebp),%eax
    7dee:	6a 00                	push   $0x0
    7df0:	6a 00                	push   $0x0
    7df2:	6a 00                	push   $0x0
    7df4:	50                   	push   %eax
    7df5:	8d 45 e0             	lea    -0x20(%ebp),%eax
    7df8:	50                   	push   %eax
    7df9:	8b 45 0c             	mov    0xc(%ebp),%eax
    7dfc:	6a 00                	push   $0x0
    7dfe:	53                   	push   %ebx
    7dff:	50                   	push   %eax
    7e00:	6a 20                	push   $0x20
    7e02:	68 05 04 00 00       	push   $0x405
    7e07:	56                   	push   %esi
    7e08:	e8 43 53 00 00       	call   d150 <async_req_fast@plt>
    7e0d:	83 c4 30             	add    $0x30,%esp
    7e10:	85 c0                	test   %eax,%eax
    7e12:	75 23                	jne    7e37 <nic_wol_virtue_probe+0x77>
    7e14:	85 ff                	test   %edi,%edi
    7e16:	74 05                	je     7e1d <nic_wol_virtue_probe+0x5d>
    7e18:	8b 4d e0             	mov    -0x20(%ebp),%ecx
    7e1b:	89 0f                	mov    %ecx,(%edi)
    7e1d:	8b 7d 1c             	mov    0x1c(%ebp),%edi
    7e20:	85 ff                	test   %edi,%edi
    7e22:	74 08                	je     7e2c <nic_wol_virtue_probe+0x6c>
    7e24:	8b 55 1c             	mov    0x1c(%ebp),%edx
    7e27:	8b 4d e4             	mov    -0x1c(%ebp),%ecx
    7e2a:	89 0a                	mov    %ecx,(%edx)
    7e2c:	85 db                	test   %ebx,%ebx
    7e2e:	74 07                	je     7e37 <nic_wol_virtue_probe+0x77>
    7e30:	8b 4d e4             	mov    -0x1c(%ebp),%ecx
    7e33:	85 c9                	test   %ecx,%ecx
    7e35:	75 21                	jne    7e58 <nic_wol_virtue_probe+0x98>
    7e37:	83 ec 0c             	sub    $0xc,%esp
    7e3a:	89 45 d4             	mov    %eax,-0x2c(%ebp)
    7e3d:	56                   	push   %esi
    7e3e:	e8 8d 53 00 00       	call   d1d0 <async_exchange_end@plt>
    7e43:	8b 45 d4             	mov    -0x2c(%ebp),%eax
    7e46:	83 c4 10             	add    $0x10,%esp
    7e49:	8d 65 f4             	lea    -0xc(%ebp),%esp
    7e4c:	5b                   	pop    %ebx
    7e4d:	5e                   	pop    %esi
    7e4e:	5f                   	pop    %edi
    7e4f:	5d                   	pop    %ebp
    7e50:	c3                   	ret    
    7e51:	8d b4 26 00 00 00 00 	lea    0x0(%esi,%eiz,1),%esi
    7e58:	8b 55 18             	mov    0x18(%ebp),%edx
    7e5b:	50                   	push   %eax
    7e5c:	53                   	push   %ebx
    7e5d:	52                   	push   %edx
    7e5e:	56                   	push   %esi
    7e5f:	e8 1c 55 00 00       	call   d380 <async_data_read_start@plt>
    7e64:	83 c4 10             	add    $0x10,%esp
    7e67:	eb ce                	jmp    7e37 <nic_wol_virtue_probe+0x77>
    7e69:	8d b4 26 00 00 00 00 	lea    0x0(%esi,%eiz,1),%esi
    7e70:	31 db                	xor    %ebx,%ebx
    7e72:	e9 63 ff ff ff       	jmp    7dda <nic_wol_virtue_probe+0x1a>
    7e77:	89 f6                	mov    %esi,%esi
    7e79:	8d bc 27 00 00 00 00 	lea    0x0(%edi,%eiz,1),%edi

00007e80 <nic_wol_virtue_list>:
    7e80:	55                   	push   %ebp
    7e81:	89 e5                	mov    %esp,%ebp
    7e83:	57                   	push   %edi
    7e84:	56                   	push   %esi
    7e85:	53                   	push   %ebx
    7e86:	83 ec 2c             	sub    $0x2c,%esp
    7e89:	8b 55 14             	mov    0x14(%ebp),%edx
    7e8c:	8b 45 08             	mov    0x8(%ebp),%eax
    7e8f:	8b 5d 10             	mov    0x10(%ebp),%ebx
    7e92:	8b 75 18             	mov    0x18(%ebp),%esi
    7e95:	85 d2                	test   %edx,%edx
    7e97:	0f 84 9b 00 00 00    	je     7f38 <nic_wol_virtue_list+0xb8>
    7e9d:	83 ec 0c             	sub    $0xc,%esp
    7ea0:	50                   	push   %eax
    7ea1:	e8 6a 55 00 00       	call   d410 <async_exchange_begin@plt>
    7ea6:	83 c4 0c             	add    $0xc,%esp
    7ea9:	89 c7                	mov    %eax,%edi
    7eab:	8d 45 e4             	lea    -0x1c(%ebp),%eax
    7eae:	6a 00                	push   $0x0
    7eb0:	6a 00                	push   $0x0
    7eb2:	6a 00                	push   $0x0
    7eb4:	6a 00                	push   $0x0
    7eb6:	50                   	push   %eax
    7eb7:	8b 45 0c             	mov    0xc(%ebp),%eax
    7eba:	6a 00                	push   $0x0
    7ebc:	53                   	push   %ebx
    7ebd:	50                   	push   %eax
    7ebe:	6a 21                	push   $0x21
    7ec0:	68 05 04 00 00       	push   $0x405
    7ec5:	57                   	push   %edi
    7ec6:	e8 85 52 00 00       	call   d150 <async_req_fast@plt>
    7ecb:	83 c4 30             	add    $0x30,%esp
    7ece:	85 f6                	test   %esi,%esi
    7ed0:	0f 84 a2 00 00 00    	je     7f78 <nic_wol_virtue_list+0xf8>
    7ed6:	85 c0                	test   %eax,%eax
    7ed8:	0f 95 c2             	setne  %dl
    7edb:	85 db                	test   %ebx,%ebx
    7edd:	0f 94 c1             	sete   %cl
    7ee0:	09 ca                	or     %ecx,%edx
    7ee2:	8b 4d e4             	mov    -0x1c(%ebp),%ecx
    7ee5:	89 0e                	mov    %ecx,(%esi)
    7ee7:	84 d2                	test   %dl,%dl
    7ee9:	75 2d                	jne    7f18 <nic_wol_virtue_list+0x98>
    7eeb:	c1 e3 02             	shl    $0x2,%ebx
    7eee:	8b 4d 14             	mov    0x14(%ebp),%ecx
    7ef1:	52                   	push   %edx
    7ef2:	53                   	push   %ebx
    7ef3:	51                   	push   %ecx
    7ef4:	57                   	push   %edi
    7ef5:	e8 86 54 00 00       	call   d380 <async_data_read_start@plt>
    7efa:	89 3c 24             	mov    %edi,(%esp)
    7efd:	89 45 d4             	mov    %eax,-0x2c(%ebp)
    7f00:	e8 cb 52 00 00       	call   d1d0 <async_exchange_end@plt>
    7f05:	8b 45 d4             	mov    -0x2c(%ebp),%eax
    7f08:	83 c4 10             	add    $0x10,%esp
    7f0b:	8d 65 f4             	lea    -0xc(%ebp),%esp
    7f0e:	5b                   	pop    %ebx
    7f0f:	5e                   	pop    %esi
    7f10:	5f                   	pop    %edi
    7f11:	5d                   	pop    %ebp
    7f12:	c3                   	ret    
    7f13:	90                   	nop
    7f14:	8d 74 26 00          	lea    0x0(%esi,%eiz,1),%esi
    7f18:	83 ec 0c             	sub    $0xc,%esp
    7f1b:	89 45 d4             	mov    %eax,-0x2c(%ebp)
    7f1e:	57                   	push   %edi
    7f1f:	e8 ac 52 00 00       	call   d1d0 <async_exchange_end@plt>
    7f24:	8b 45 d4             	mov    -0x2c(%ebp),%eax
    7f27:	83 c4 10             	add    $0x10,%esp
    7f2a:	8d 65 f4             	lea    -0xc(%ebp),%esp
    7f2d:	5b                   	pop    %ebx
    7f2e:	5e                   	pop    %esi
    7f2f:	5f                   	pop    %edi
    7f30:	5d                   	pop    %ebp
    7f31:	c3                   	ret    
    7f32:	8d b6 00 00 00 00    	lea    0x0(%esi),%esi
    7f38:	83 ec 0c             	sub    $0xc,%esp
    7f3b:	50                   	push   %eax
    7f3c:	e8 cf 54 00 00       	call   d410 <async_exchange_begin@plt>
    7f41:	83 c4 0c             	add    $0xc,%esp
    7f44:	89 c7                	mov    %eax,%edi
    7f46:	8d 45 e4             	lea    -0x1c(%ebp),%eax
    7f49:	6a 00                	push   $0x0
    7f4b:	6a 00                	push   $0x0
    7f4d:	6a 00                	push   $0x0
    7f4f:	6a 00                	push   $0x0
    7f51:	50                   	push   %eax
    7f52:	8b 45 0c             	mov    0xc(%ebp),%eax
    7f55:	6a 00                	push   $0x0
    7f57:	6a 00                	push   $0x0
    7f59:	50                   	push   %eax
    7f5a:	6a 21                	push   $0x21
    7f5c:	68 05 04 00 00       	push   $0x405
    7f61:	57                   	push   %edi
    7f62:	e8 e9 51 00 00       	call   d150 <async_req_fast@plt>
    7f67:	83 c4 30             	add    $0x30,%esp
    7f6a:	85 f6                	test   %esi,%esi
    7f6c:	74 aa                	je     7f18 <nic_wol_virtue_list+0x98>
    7f6e:	b2 01                	mov    $0x1,%dl
    7f70:	31 db                	xor    %ebx,%ebx
    7f72:	e9 6b ff ff ff       	jmp    7ee2 <nic_wol_virtue_list+0x62>
    7f77:	90                   	nop
    7f78:	85 db                	test   %ebx,%ebx
    7f7a:	0f 94 c1             	sete   %cl
    7f7d:	85 c0                	test   %eax,%eax
    7f7f:	0f 95 c2             	setne  %dl
    7f82:	09 ca                	or     %ecx,%edx
    7f84:	e9 5e ff ff ff       	jmp    7ee7 <nic_wol_virtue_list+0x67>
    7f89:	8d b4 26 00 00 00 00 	lea    0x0(%esi,%eiz,1),%esi

00007f90 <nic_wol_virtue_get_caps>:
    7f90:	55                   	push   %ebp
    7f91:	89 e5                	mov    %esp,%ebp
    7f93:	56                   	push   %esi
    7f94:	53                   	push   %ebx
    7f95:	83 ec 20             	sub    $0x20,%esp
    7f98:	8b 5d 10             	mov    0x10(%ebp),%ebx
    7f9b:	85 db                	test   %ebx,%ebx
    7f9d:	74 4d                	je     7fec <nic_wol_virtue_get_caps+0x5c>
    7f9f:	83 ec 0c             	sub    $0xc,%esp
    7fa2:	8b 45 08             	mov    0x8(%ebp),%eax
    7fa5:	50                   	push   %eax
    7fa6:	e8 65 54 00 00       	call   d410 <async_exchange_begin@plt>
    7fab:	83 c4 0c             	add    $0xc,%esp
    7fae:	8b 55 0c             	mov    0xc(%ebp),%edx
    7fb1:	89 c6                	mov    %eax,%esi
    7fb3:	8d 45 f4             	lea    -0xc(%ebp),%eax
    7fb6:	6a 00                	push   $0x0
    7fb8:	6a 00                	push   $0x0
    7fba:	6a 00                	push   $0x0
    7fbc:	6a 00                	push   $0x0
    7fbe:	50                   	push   %eax
    7fbf:	6a 00                	push   $0x0
    7fc1:	6a 00                	push   $0x0
    7fc3:	52                   	push   %edx
    7fc4:	6a 22                	push   $0x22
    7fc6:	68 05 04 00 00       	push   $0x405
    7fcb:	56                   	push   %esi
    7fcc:	e8 7f 51 00 00       	call   d150 <async_req_fast@plt>
    7fd1:	83 c4 24             	add    $0x24,%esp
    7fd4:	89 45 e4             	mov    %eax,-0x1c(%ebp)
    7fd7:	56                   	push   %esi
    7fd8:	e8 f3 51 00 00       	call   d1d0 <async_exchange_end@plt>
    7fdd:	8b 55 f4             	mov    -0xc(%ebp),%edx
    7fe0:	8b 45 e4             	mov    -0x1c(%ebp),%eax
    7fe3:	89 13                	mov    %edx,(%ebx)
    7fe5:	8d 65 f8             	lea    -0x8(%ebp),%esp
    7fe8:	5b                   	pop    %ebx
    7fe9:	5e                   	pop    %esi
    7fea:	5d                   	pop    %ebp
    7feb:	c3                   	ret    
    7fec:	51                   	push   %ecx
    7fed:	68 74 04 00 00       	push   $0x474
    7ff2:	68 44 c9 00 00       	push   $0xc944
    7ff7:	68 f6 c9 00 00       	push   $0xc9f6
    7ffc:	e8 df 51 00 00       	call   d1e0 <assert_abort@plt>
    8001:	eb 0d                	jmp    8010 <nic_wol_load_info>
    8003:	90                   	nop
    8004:	90                   	nop
    8005:	90                   	nop
    8006:	90                   	nop
    8007:	90                   	nop
    8008:	90                   	nop
    8009:	90                   	nop
    800a:	90                   	nop
    800b:	90                   	nop
    800c:	90                   	nop
    800d:	90                   	nop
    800e:	90                   	nop
    800f:	90                   	nop

00008010 <nic_wol_load_info>:
    8010:	55                   	push   %ebp
    8011:	89 e5                	mov    %esp,%ebp
    8013:	57                   	push   %edi
    8014:	56                   	push   %esi
    8015:	53                   	push   %ebx
    8016:	83 ec 2c             	sub    $0x2c,%esp
    8019:	8b 75 0c             	mov    0xc(%ebp),%esi
    801c:	8b 5d 10             	mov    0x10(%ebp),%ebx
    801f:	85 f6                	test   %esi,%esi
    8021:	0f 84 a0 00 00 00    	je     80c7 <nic_wol_load_info+0xb7>
    8027:	8b 45 14             	mov    0x14(%ebp),%eax
    802a:	85 c0                	test   %eax,%eax
    802c:	0f 84 8e 00 00 00    	je     80c0 <nic_wol_load_info+0xb0>
    8032:	83 ec 0c             	sub    $0xc,%esp
    8035:	8b 7d 08             	mov    0x8(%ebp),%edi
    8038:	57                   	push   %edi
    8039:	e8 d2 53 00 00       	call   d410 <async_exchange_begin@plt>
    803e:	83 c4 0c             	add    $0xc,%esp
    8041:	89 c7                	mov    %eax,%edi
    8043:	8d 45 e4             	lea    -0x1c(%ebp),%eax
    8046:	6a 00                	push   $0x0
    8048:	6a 00                	push   $0x0
    804a:	6a 00                	push   $0x0
    804c:	50                   	push   %eax
    804d:	8d 45 e0             	lea    -0x20(%ebp),%eax
    8050:	50                   	push   %eax
    8051:	6a 00                	push   $0x0
    8053:	6a 00                	push   $0x0
    8055:	53                   	push   %ebx
    8056:	6a 23                	push   $0x23
    8058:	68 05 04 00 00       	push   $0x405
    805d:	57                   	push   %edi
    805e:	e8 ed 50 00 00       	call   d150 <async_req_fast@plt>
    8063:	83 c4 30             	add    $0x30,%esp
    8066:	85 c0                	test   %eax,%eax
    8068:	75 1f                	jne    8089 <nic_wol_load_info+0x79>
    806a:	8b 4d e0             	mov    -0x20(%ebp),%ecx
    806d:	89 0e                	mov    %ecx,(%esi)
    806f:	8b 75 18             	mov    0x18(%ebp),%esi
    8072:	85 f6                	test   %esi,%esi
    8074:	74 08                	je     807e <nic_wol_load_info+0x6e>
    8076:	8b 55 18             	mov    0x18(%ebp),%edx
    8079:	8b 4d e4             	mov    -0x1c(%ebp),%ecx
    807c:	89 0a                	mov    %ecx,(%edx)
    807e:	85 db                	test   %ebx,%ebx
    8080:	74 07                	je     8089 <nic_wol_load_info+0x79>
    8082:	8b 4d e4             	mov    -0x1c(%ebp),%ecx
    8085:	85 c9                	test   %ecx,%ecx
    8087:	75 1f                	jne    80a8 <nic_wol_load_info+0x98>
    8089:	83 ec 0c             	sub    $0xc,%esp
    808c:	89 45 d4             	mov    %eax,-0x2c(%ebp)
    808f:	57                   	push   %edi
    8090:	e8 3b 51 00 00       	call   d1d0 <async_exchange_end@plt>
    8095:	8b 45 d4             	mov    -0x2c(%ebp),%eax
    8098:	83 c4 10             	add    $0x10,%esp
    809b:	8d 65 f4             	lea    -0xc(%ebp),%esp
    809e:	5b                   	pop    %ebx
    809f:	5e                   	pop    %esi
    80a0:	5f                   	pop    %edi
    80a1:	5d                   	pop    %ebp
    80a2:	c3                   	ret    
    80a3:	90                   	nop
    80a4:	8d 74 26 00          	lea    0x0(%esi,%eiz,1),%esi
    80a8:	8b 55 14             	mov    0x14(%ebp),%edx
    80ab:	50                   	push   %eax
    80ac:	53                   	push   %ebx
    80ad:	52                   	push   %edx
    80ae:	57                   	push   %edi
    80af:	e8 cc 52 00 00       	call   d380 <async_data_read_start@plt>
    80b4:	83 c4 10             	add    $0x10,%esp
    80b7:	eb d0                	jmp    8089 <nic_wol_load_info+0x79>
    80b9:	8d b4 26 00 00 00 00 	lea    0x0(%esi,%eiz,1),%esi
    80c0:	31 db                	xor    %ebx,%ebx
    80c2:	e9 6b ff ff ff       	jmp    8032 <nic_wol_load_info+0x22>
    80c7:	50                   	push   %eax
    80c8:	68 9a 04 00 00       	push   $0x49a
    80cd:	68 44 c9 00 00       	push   $0xc944
    80d2:	68 fc c9 00 00       	push   $0xc9fc
    80d7:	e8 04 51 00 00       	call   d1e0 <assert_abort@plt>
    80dc:	8d 74 26 00          	lea    0x0(%esi,%eiz,1),%esi

000080e0 <nic_offload_probe>:
    80e0:	55                   	push   %ebp
    80e1:	89 e5                	mov    %esp,%ebp
    80e3:	57                   	push   %edi
    80e4:	56                   	push   %esi
    80e5:	53                   	push   %ebx
    80e6:	83 ec 2c             	sub    $0x2c,%esp
    80e9:	8b 5d 0c             	mov    0xc(%ebp),%ebx
    80ec:	8b 75 10             	mov    0x10(%ebp),%esi
    80ef:	85 db                	test   %ebx,%ebx
    80f1:	74 57                	je     814a <nic_offload_probe+0x6a>
    80f3:	85 f6                	test   %esi,%esi
    80f5:	74 68                	je     815f <nic_offload_probe+0x7f>
    80f7:	83 ec 0c             	sub    $0xc,%esp
    80fa:	8b 45 08             	mov    0x8(%ebp),%eax
    80fd:	50                   	push   %eax
    80fe:	e8 0d 53 00 00       	call   d410 <async_exchange_begin@plt>
    8103:	83 c4 0c             	add    $0xc,%esp
    8106:	89 c7                	mov    %eax,%edi
    8108:	8d 45 e4             	lea    -0x1c(%ebp),%eax
    810b:	6a 00                	push   $0x0
    810d:	6a 00                	push   $0x0
    810f:	6a 00                	push   $0x0
    8111:	50                   	push   %eax
    8112:	8d 45 e0             	lea    -0x20(%ebp),%eax
    8115:	50                   	push   %eax
    8116:	6a 00                	push   $0x0
    8118:	6a 00                	push   $0x0
    811a:	6a 00                	push   $0x0
    811c:	6a 24                	push   $0x24
    811e:	68 05 04 00 00       	push   $0x405
    8123:	57                   	push   %edi
    8124:	e8 27 50 00 00       	call   d150 <async_req_fast@plt>
    8129:	83 c4 24             	add    $0x24,%esp
    812c:	89 45 d4             	mov    %eax,-0x2c(%ebp)
    812f:	57                   	push   %edi
    8130:	e8 9b 50 00 00       	call   d1d0 <async_exchange_end@plt>
    8135:	8b 55 e0             	mov    -0x20(%ebp),%edx
    8138:	8b 45 d4             	mov    -0x2c(%ebp),%eax
    813b:	89 13                	mov    %edx,(%ebx)
    813d:	8b 55 e4             	mov    -0x1c(%ebp),%edx
    8140:	89 16                	mov    %edx,(%esi)
    8142:	8d 65 f4             	lea    -0xc(%ebp),%esp
    8145:	5b                   	pop    %ebx
    8146:	5e                   	pop    %esi
    8147:	5f                   	pop    %edi
    8148:	5d                   	pop    %ebp
    8149:	c3                   	ret    
    814a:	51                   	push   %ecx
    814b:	68 c2 04 00 00       	push   $0x4c2
    8150:	68 44 c9 00 00       	push   $0xc944
    8155:	68 09 ca 00 00       	push   $0xca09
    815a:	e8 81 50 00 00       	call   d1e0 <assert_abort@plt>
    815f:	52                   	push   %edx
    8160:	68 c3 04 00 00       	push   $0x4c3
    8165:	68 44 c9 00 00       	push   $0xc944
    816a:	68 13 ca 00 00       	push   $0xca13
    816f:	e8 6c 50 00 00       	call   d1e0 <assert_abort@plt>
    8174:	8d b6 00 00 00 00    	lea    0x0(%esi),%esi
    817a:	8d bf 00 00 00 00    	lea    0x0(%edi),%edi

00008180 <nic_offload_set>:
    8180:	55                   	push   %ebp
    8181:	89 e5                	mov    %esp,%ebp
    8183:	53                   	push   %ebx
    8184:	83 ec 20             	sub    $0x20,%esp
    8187:	8b 45 08             	mov    0x8(%ebp),%eax
    818a:	50                   	push   %eax
    818b:	e8 80 52 00 00       	call   d410 <async_exchange_begin@plt>
    8190:	83 c4 0c             	add    $0xc,%esp
    8193:	8b 55 10             	mov    0x10(%ebp),%edx
    8196:	8b 4d 0c             	mov    0xc(%ebp),%ecx
    8199:	89 c3                	mov    %eax,%ebx
    819b:	6a 00                	push   $0x0
    819d:	6a 00                	push   $0x0
    819f:	6a 00                	push   $0x0
    81a1:	6a 00                	push   $0x0
    81a3:	6a 00                	push   $0x0
    81a5:	6a 00                	push   $0x0
    81a7:	52                   	push   %edx
    81a8:	51                   	push   %ecx
    81a9:	6a 0e                	push   $0xe
    81ab:	68 05 04 00 00       	push   $0x405
    81b0:	50                   	push   %eax
    81b1:	e8 9a 4f 00 00       	call   d150 <async_req_fast@plt>
    81b6:	83 c4 24             	add    $0x24,%esp
    81b9:	89 45 f4             	mov    %eax,-0xc(%ebp)
    81bc:	53                   	push   %ebx
    81bd:	e8 0e 50 00 00       	call   d1d0 <async_exchange_end@plt>
    81c2:	8b 45 f4             	mov    -0xc(%ebp),%eax
    81c5:	8b 5d fc             	mov    -0x4(%ebp),%ebx
    81c8:	c9                   	leave  
    81c9:	c3                   	ret    
    81ca:	8d b6 00 00 00 00    	lea    0x0(%esi),%esi

000081d0 <nic_poll_get_mode>:
    81d0:	55                   	push   %ebp
    81d1:	89 e5                	mov    %esp,%ebp
    81d3:	57                   	push   %edi
    81d4:	56                   	push   %esi
    81d5:	53                   	push   %ebx
    81d6:	83 ec 2c             	sub    $0x2c,%esp
    81d9:	8b 75 0c             	mov    0xc(%ebp),%esi
    81dc:	8b 5d 10             	mov    0x10(%ebp),%ebx
    81df:	85 f6                	test   %esi,%esi
    81e1:	74 6d                	je     8250 <nic_poll_get_mode+0x80>
    81e3:	83 ec 0c             	sub    $0xc,%esp
    81e6:	8b 55 08             	mov    0x8(%ebp),%edx
    81e9:	52                   	push   %edx
    81ea:	e8 21 52 00 00       	call   d410 <async_exchange_begin@plt>
    81ef:	83 c4 0c             	add    $0xc,%esp
    81f2:	89 c7                	mov    %eax,%edi
    81f4:	8d 45 e4             	lea    -0x1c(%ebp),%eax
    81f7:	6a 00                	push   $0x0
    81f9:	6a 00                	push   $0x0
    81fb:	6a 00                	push   $0x0
    81fd:	6a 00                	push   $0x0
    81ff:	50                   	push   %eax
    8200:	31 c0                	xor    %eax,%eax
    8202:	85 db                	test   %ebx,%ebx
    8204:	6a 00                	push   $0x0
    8206:	0f 95 c0             	setne  %al
    8209:	6a 00                	push   $0x0
    820b:	50                   	push   %eax
    820c:	6a 26                	push   $0x26
    820e:	68 05 04 00 00       	push   $0x405
    8213:	57                   	push   %edi
    8214:	e8 37 4f 00 00       	call   d150 <async_req_fast@plt>
    8219:	83 c4 30             	add    $0x30,%esp
    821c:	85 c0                	test   %eax,%eax
    821e:	75 16                	jne    8236 <nic_poll_get_mode+0x66>
    8220:	8b 55 e4             	mov    -0x1c(%ebp),%edx
    8223:	85 db                	test   %ebx,%ebx
    8225:	89 16                	mov    %edx,(%esi)
    8227:	74 0d                	je     8236 <nic_poll_get_mode+0x66>
    8229:	50                   	push   %eax
    822a:	6a 08                	push   $0x8
    822c:	53                   	push   %ebx
    822d:	57                   	push   %edi
    822e:	e8 4d 51 00 00       	call   d380 <async_data_read_start@plt>
    8233:	83 c4 10             	add    $0x10,%esp
    8236:	83 ec 0c             	sub    $0xc,%esp
    8239:	89 45 d4             	mov    %eax,-0x2c(%ebp)
    823c:	57                   	push   %edi
    823d:	e8 8e 4f 00 00       	call   d1d0 <async_exchange_end@plt>
    8242:	8b 45 d4             	mov    -0x2c(%ebp),%eax
    8245:	83 c4 10             	add    $0x10,%esp
    8248:	8d 65 f4             	lea    -0xc(%ebp),%esp
    824b:	5b                   	pop    %ebx
    824c:	5e                   	pop    %esi
    824d:	5f                   	pop    %edi
    824e:	5d                   	pop    %ebp
    824f:	c3                   	ret    
    8250:	51                   	push   %ecx
    8251:	68 f2 04 00 00       	push   $0x4f2
    8256:	68 44 c9 00 00       	push   $0xc944
    825b:	68 e9 c9 00 00       	push   $0xc9e9
    8260:	e8 7b 4f 00 00       	call   d1e0 <assert_abort@plt>
    8265:	8d 74 26 00          	lea    0x0(%esi,%eiz,1),%esi
    8269:	8d bc 27 00 00 00 00 	lea    0x0(%edi,%eiz,1),%edi

00008270 <nic_poll_set_mode>:
    8270:	55                   	push   %ebp
    8271:	89 e5                	mov    %esp,%ebp
    8273:	57                   	push   %edi
    8274:	56                   	push   %esi
    8275:	53                   	push   %ebx
    8276:	83 ec 38             	sub    $0x38,%esp
    8279:	8b 7d 08             	mov    0x8(%ebp),%edi
    827c:	8b 5d 10             	mov    0x10(%ebp),%ebx
    827f:	57                   	push   %edi
    8280:	e8 8b 51 00 00       	call   d410 <async_exchange_begin@plt>
    8285:	83 c4 0c             	add    $0xc,%esp
    8288:	89 c6                	mov    %eax,%esi
    828a:	31 c0                	xor    %eax,%eax
    828c:	85 db                	test   %ebx,%ebx
    828e:	0f 95 c0             	setne  %al
    8291:	6a 00                	push   $0x0
    8293:	6a 00                	push   $0x0
    8295:	50                   	push   %eax
    8296:	8b 45 0c             	mov    0xc(%ebp),%eax
    8299:	50                   	push   %eax
    829a:	6a 27                	push   $0x27
    829c:	68 05 04 00 00       	push   $0x405
    82a1:	56                   	push   %esi
    82a2:	e8 c9 4e 00 00       	call   d170 <async_send_fast@plt>
    82a7:	83 c4 20             	add    $0x20,%esp
    82aa:	89 c7                	mov    %eax,%edi
    82ac:	85 db                	test   %ebx,%ebx
    82ae:	74 38                	je     82e8 <nic_poll_set_mode+0x78>
    82b0:	51                   	push   %ecx
    82b1:	6a 08                	push   $0x8
    82b3:	53                   	push   %ebx
    82b4:	56                   	push   %esi
    82b5:	e8 f6 4d 00 00       	call   d0b0 <async_data_write_start@plt>
    82ba:	89 34 24             	mov    %esi,(%esp)
    82bd:	89 45 d4             	mov    %eax,-0x2c(%ebp)
    82c0:	e8 0b 4f 00 00       	call   d1d0 <async_exchange_end@plt>
    82c5:	8d 55 e4             	lea    -0x1c(%ebp),%edx
    82c8:	5b                   	pop    %ebx
    82c9:	5e                   	pop    %esi
    82ca:	52                   	push   %edx
    82cb:	57                   	push   %edi
    82cc:	e8 9f 4d 00 00       	call   d070 <async_wait_for@plt>
    82d1:	8b 45 d4             	mov    -0x2c(%ebp),%eax
    82d4:	83 c4 10             	add    $0x10,%esp
    82d7:	85 c0                	test   %eax,%eax
    82d9:	74 25                	je     8300 <nic_poll_set_mode+0x90>
    82db:	8d 65 f4             	lea    -0xc(%ebp),%esp
    82de:	5b                   	pop    %ebx
    82df:	5e                   	pop    %esi
    82e0:	5f                   	pop    %edi
    82e1:	5d                   	pop    %ebp
    82e2:	c3                   	ret    
    82e3:	90                   	nop
    82e4:	8d 74 26 00          	lea    0x0(%esi,%eiz,1),%esi
    82e8:	83 ec 0c             	sub    $0xc,%esp
    82eb:	56                   	push   %esi
    82ec:	e8 df 4e 00 00       	call   d1d0 <async_exchange_end@plt>
    82f1:	58                   	pop    %eax
    82f2:	8d 45 e4             	lea    -0x1c(%ebp),%eax
    82f5:	5a                   	pop    %edx
    82f6:	50                   	push   %eax
    82f7:	57                   	push   %edi
    82f8:	e8 73 4d 00 00       	call   d070 <async_wait_for@plt>
    82fd:	83 c4 10             	add    $0x10,%esp
    8300:	8b 45 e4             	mov    -0x1c(%ebp),%eax
    8303:	8d 65 f4             	lea    -0xc(%ebp),%esp
    8306:	5b                   	pop    %ebx
    8307:	5e                   	pop    %esi
    8308:	5f                   	pop    %edi
    8309:	5d                   	pop    %ebp
    830a:	c3                   	ret    
    830b:	90                   	nop
    830c:	8d 74 26 00          	lea    0x0(%esi,%eiz,1),%esi

00008310 <nic_poll_now>:
    8310:	55                   	push   %ebp
    8311:	89 e5                	mov    %esp,%ebp
    8313:	53                   	push   %ebx
    8314:	83 ec 20             	sub    $0x20,%esp
    8317:	8b 45 08             	mov    0x8(%ebp),%eax
    831a:	50                   	push   %eax
    831b:	e8 f0 50 00 00       	call   d410 <async_exchange_begin@plt>
    8320:	83 c4 0c             	add    $0xc,%esp
    8323:	89 c3                	mov    %eax,%ebx
    8325:	6a 00                	push   $0x0
    8327:	6a 00                	push   $0x0
    8329:	6a 00                	push   $0x0
    832b:	6a 00                	push   $0x0
    832d:	6a 00                	push   $0x0
    832f:	6a 00                	push   $0x0
    8331:	6a 00                	push   $0x0
    8333:	6a 00                	push   $0x0
    8335:	6a 28                	push   $0x28
    8337:	68 05 04 00 00       	push   $0x405
    833c:	50                   	push   %eax
    833d:	e8 0e 4e 00 00       	call   d150 <async_req_fast@plt>
    8342:	83 c4 24             	add    $0x24,%esp
    8345:	89 45 f4             	mov    %eax,-0xc(%ebp)
    8348:	53                   	push   %ebx
    8349:	e8 82 4e 00 00       	call   d1d0 <async_exchange_end@plt>
    834e:	8b 45 f4             	mov    -0xc(%ebp),%eax
    8351:	8b 5d fc             	mov    -0x4(%ebp),%ebx
    8354:	c9                   	leave  
    8355:	c3                   	ret    
    8356:	66 90                	xchg   %ax,%ax
    8358:	66 90                	xchg   %ax,%ax
    835a:	66 90                	xchg   %ax,%ax
    835c:	66 90                	xchg   %ax,%ax
    835e:	66 90                	xchg   %ax,%ax

00008360 <remote_ieee80211_connect>:
    8360:	55                   	push   %ebp
    8361:	89 e5                	mov    %esp,%ebp
    8363:	57                   	push   %edi
    8364:	56                   	push   %esi
    8365:	53                   	push   %ebx
    8366:	83 ec 5c             	sub    $0x5c,%esp
    8369:	8b 45 0c             	mov    0xc(%ebp),%eax
    836c:	8b 78 04             	mov    0x4(%eax),%edi
    836f:	85 ff                	test   %edi,%edi
    8371:	0f 84 ab 00 00 00    	je     8422 <remote_ieee80211_connect+0xc2>
    8377:	8d 75 a4             	lea    -0x5c(%ebp),%esi
    837a:	53                   	push   %ebx
    837b:	53                   	push   %ebx
    837c:	8d 5d a0             	lea    -0x60(%ebp),%ebx
    837f:	56                   	push   %esi
    8380:	53                   	push   %ebx
    8381:	e8 7a 51 00 00       	call   d500 <async_data_write_receive@plt>
    8386:	83 c4 10             	add    $0x10,%esp
    8389:	84 c0                	test   %al,%al
    838b:	74 08                	je     8395 <remote_ieee80211_connect+0x35>
    838d:	8b 45 a4             	mov    -0x5c(%ebp),%eax
    8390:	83 f8 20             	cmp    $0x20,%eax
    8393:	76 2b                	jbe    83c0 <remote_ieee80211_connect+0x60>
    8395:	8b 45 a0             	mov    -0x60(%ebp),%eax
    8398:	57                   	push   %edi
    8399:	57                   	push   %edi
    839a:	6a f2                	push   $0xfffffff2
    839c:	50                   	push   %eax
    839d:	e8 be 4d 00 00       	call   d160 <async_answer_0@plt>
    83a2:	8b 4d 10             	mov    0x10(%ebp),%ecx
    83a5:	58                   	pop    %eax
    83a6:	5a                   	pop    %edx
    83a7:	6a f2                	push   $0xfffffff2
    83a9:	51                   	push   %ecx
    83aa:	e8 b1 4d 00 00       	call   d160 <async_answer_0@plt>
    83af:	83 c4 10             	add    $0x10,%esp
    83b2:	8d 65 f4             	lea    -0xc(%ebp),%esp
    83b5:	5b                   	pop    %ebx
    83b6:	5e                   	pop    %esi
    83b7:	5f                   	pop    %edi
    83b8:	5d                   	pop    %ebp
    83b9:	c3                   	ret    
    83ba:	8d b6 00 00 00 00    	lea    0x0(%esi),%esi
    83c0:	8b 4d a0             	mov    -0x60(%ebp),%ecx
    83c3:	8d 7d a8             	lea    -0x58(%ebp),%edi
    83c6:	52                   	push   %edx
    83c7:	50                   	push   %eax
    83c8:	57                   	push   %edi
    83c9:	51                   	push   %ecx
    83ca:	e8 b1 50 00 00       	call   d480 <async_data_write_finalize@plt>
    83cf:	83 c4 10             	add    $0x10,%esp
    83d2:	85 c0                	test   %eax,%eax
    83d4:	75 bf                	jne    8395 <remote_ieee80211_connect+0x35>
    83d6:	50                   	push   %eax
    83d7:	50                   	push   %eax
    83d8:	56                   	push   %esi
    83d9:	53                   	push   %ebx
    83da:	e8 21 51 00 00       	call   d500 <async_data_write_receive@plt>
    83df:	83 c4 10             	add    $0x10,%esp
    83e2:	84 c0                	test   %al,%al
    83e4:	74 af                	je     8395 <remote_ieee80211_connect+0x35>
    83e6:	8b 45 a4             	mov    -0x5c(%ebp),%eax
    83e9:	83 f8 20             	cmp    $0x20,%eax
    83ec:	77 a7                	ja     8395 <remote_ieee80211_connect+0x35>
    83ee:	8b 75 a0             	mov    -0x60(%ebp),%esi
    83f1:	53                   	push   %ebx
    83f2:	8d 5d c8             	lea    -0x38(%ebp),%ebx
    83f5:	50                   	push   %eax
    83f6:	53                   	push   %ebx
    83f7:	56                   	push   %esi
    83f8:	e8 83 50 00 00       	call   d480 <async_data_write_finalize@plt>
    83fd:	83 c4 10             	add    $0x10,%esp
    8400:	85 c0                	test   %eax,%eax
    8402:	75 91                	jne    8395 <remote_ieee80211_connect+0x35>
    8404:	50                   	push   %eax
    8405:	8b 45 0c             	mov    0xc(%ebp),%eax
    8408:	8b 55 08             	mov    0x8(%ebp),%edx
    840b:	53                   	push   %ebx
    840c:	57                   	push   %edi
    840d:	52                   	push   %edx
    840e:	ff 50 04             	call   *0x4(%eax)
    8411:	8b 75 10             	mov    0x10(%ebp),%esi
    8414:	59                   	pop    %ecx
    8415:	5b                   	pop    %ebx
    8416:	50                   	push   %eax
    8417:	56                   	push   %esi
    8418:	e8 43 4d 00 00       	call   d160 <async_answer_0@plt>
    841d:	83 c4 10             	add    $0x10,%esp
    8420:	eb 90                	jmp    83b2 <remote_ieee80211_connect+0x52>
    8422:	56                   	push   %esi
    8423:	68 33 01 00 00       	push   $0x133
    8428:	68 e4 ca 00 00       	push   $0xcae4
    842d:	68 ff ca 00 00       	push   $0xcaff
    8432:	e8 a9 4d 00 00       	call   d1e0 <assert_abort@plt>
    8437:	89 f6                	mov    %esi,%esi
    8439:	8d bc 27 00 00 00 00 	lea    0x0(%edi,%eiz,1),%edi

00008440 <remote_ieee80211_get_scan_results>:
    8440:	55                   	push   %ebp
    8441:	89 e5                	mov    %esp,%ebp
    8443:	56                   	push   %esi
    8444:	53                   	push   %ebx
    8445:	81 ec 90 07 00 00    	sub    $0x790,%esp
    844b:	8b 75 0c             	mov    0xc(%ebp),%esi
    844e:	8b 06                	mov    (%esi),%eax
    8450:	85 c0                	test   %eax,%eax
    8452:	0f 84 df 00 00 00    	je     8537 <remote_ieee80211_get_scan_results+0xf7>
    8458:	8d 9d 74 f8 ff ff    	lea    -0x78c(%ebp),%ebx
    845e:	50                   	push   %eax
    845f:	68 84 07 00 00       	push   $0x784
    8464:	6a 00                	push   $0x0
    8466:	53                   	push   %ebx
    8467:	e8 f4 4e 00 00       	call   d360 <memset@plt>
    846c:	8b 45 14             	mov    0x14(%ebp),%eax
    846f:	83 c4 0c             	add    $0xc,%esp
    8472:	8b 40 08             	mov    0x8(%eax),%eax
    8475:	85 c0                	test   %eax,%eax
    8477:	0f 95 c0             	setne  %al
    847a:	25 ff 00 00 00       	and    $0xff,%eax
    847f:	50                   	push   %eax
    8480:	8b 45 08             	mov    0x8(%ebp),%eax
    8483:	53                   	push   %ebx
    8484:	50                   	push   %eax
    8485:	ff 16                	call   *(%esi)
    8487:	83 c4 10             	add    $0x10,%esp
    848a:	89 c6                	mov    %eax,%esi
    848c:	85 c0                	test   %eax,%eax
    848e:	75 66                	jne    84f6 <remote_ieee80211_get_scan_results+0xb6>
    8490:	50                   	push   %eax
    8491:	50                   	push   %eax
    8492:	8d 85 70 f8 ff ff    	lea    -0x790(%ebp),%eax
    8498:	50                   	push   %eax
    8499:	8d 85 6c f8 ff ff    	lea    -0x794(%ebp),%eax
    849f:	50                   	push   %eax
    84a0:	e8 cb 4e 00 00       	call   d370 <async_data_read_receive@plt>
    84a5:	83 c4 10             	add    $0x10,%esp
    84a8:	84 c0                	test   %al,%al
    84aa:	74 64                	je     8510 <remote_ieee80211_get_scan_results+0xd0>
    84ac:	81 bd 70 f8 ff ff 83 	cmpl   $0x783,-0x790(%ebp)
    84b3:	07 00 00 
    84b6:	77 28                	ja     84e0 <remote_ieee80211_get_scan_results+0xa0>
    84b8:	8b 85 6c f8 ff ff    	mov    -0x794(%ebp),%eax
    84be:	56                   	push   %esi
    84bf:	56                   	push   %esi
    84c0:	6a fd                	push   $0xfffffffd
    84c2:	50                   	push   %eax
    84c3:	e8 98 4c 00 00       	call   d160 <async_answer_0@plt>
    84c8:	8b 4d 10             	mov    0x10(%ebp),%ecx
    84cb:	58                   	pop    %eax
    84cc:	5a                   	pop    %edx
    84cd:	6a fd                	push   $0xfffffffd
    84cf:	51                   	push   %ecx
    84d0:	e8 8b 4c 00 00       	call   d160 <async_answer_0@plt>
    84d5:	83 c4 10             	add    $0x10,%esp
    84d8:	8d 65 f8             	lea    -0x8(%ebp),%esp
    84db:	5b                   	pop    %ebx
    84dc:	5e                   	pop    %esi
    84dd:	5d                   	pop    %ebp
    84de:	c3                   	ret    
    84df:	90                   	nop
    84e0:	51                   	push   %ecx
    84e1:	68 84 07 00 00       	push   $0x784
    84e6:	53                   	push   %ebx
    84e7:	8b 9d 6c f8 ff ff    	mov    -0x794(%ebp),%ebx
    84ed:	53                   	push   %ebx
    84ee:	e8 ed 4b 00 00       	call   d0e0 <async_data_read_finalize@plt>
    84f3:	83 c4 10             	add    $0x10,%esp
    84f6:	8b 55 10             	mov    0x10(%ebp),%edx
    84f9:	50                   	push   %eax
    84fa:	50                   	push   %eax
    84fb:	56                   	push   %esi
    84fc:	52                   	push   %edx
    84fd:	e8 5e 4c 00 00       	call   d160 <async_answer_0@plt>
    8502:	83 c4 10             	add    $0x10,%esp
    8505:	8d 65 f8             	lea    -0x8(%ebp),%esp
    8508:	5b                   	pop    %ebx
    8509:	5e                   	pop    %esi
    850a:	5d                   	pop    %ebp
    850b:	c3                   	ret    
    850c:	8d 74 26 00          	lea    0x0(%esi,%eiz,1),%esi
    8510:	8b b5 6c f8 ff ff    	mov    -0x794(%ebp),%esi
    8516:	53                   	push   %ebx
    8517:	53                   	push   %ebx
    8518:	6a f2                	push   $0xfffffff2
    851a:	56                   	push   %esi
    851b:	e8 40 4c 00 00       	call   d160 <async_answer_0@plt>
    8520:	8b 4d 10             	mov    0x10(%ebp),%ecx
    8523:	58                   	pop    %eax
    8524:	5a                   	pop    %edx
    8525:	6a f2                	push   $0xfffffff2
    8527:	51                   	push   %ecx
    8528:	e8 33 4c 00 00       	call   d160 <async_answer_0@plt>
    852d:	83 c4 10             	add    $0x10,%esp
    8530:	8d 65 f8             	lea    -0x8(%ebp),%esp
    8533:	5b                   	pop    %ebx
    8534:	5e                   	pop    %esi
    8535:	5d                   	pop    %ebp
    8536:	c3                   	ret    
    8537:	50                   	push   %eax
    8538:	68 11 01 00 00       	push   $0x111
    853d:	68 e4 ca 00 00       	push   $0xcae4
    8542:	68 4c cb 00 00       	push   $0xcb4c
    8547:	e8 94 4c 00 00       	call   d1e0 <assert_abort@plt>
    854c:	8d 74 26 00          	lea    0x0(%esi,%eiz,1),%esi

00008550 <remote_ieee80211_disconnect>:
    8550:	55                   	push   %ebp
    8551:	89 e5                	mov    %esp,%ebp
    8553:	53                   	push   %ebx
    8554:	52                   	push   %edx
    8555:	8b 45 0c             	mov    0xc(%ebp),%eax
    8558:	8b 55 08             	mov    0x8(%ebp),%edx
    855b:	8b 5d 10             	mov    0x10(%ebp),%ebx
    855e:	8b 40 08             	mov    0x8(%eax),%eax
    8561:	85 c0                	test   %eax,%eax
    8563:	74 18                	je     857d <remote_ieee80211_disconnect+0x2d>
    8565:	83 ec 0c             	sub    $0xc,%esp
    8568:	52                   	push   %edx
    8569:	ff d0                	call   *%eax
    856b:	89 5d 08             	mov    %ebx,0x8(%ebp)
    856e:	83 c4 10             	add    $0x10,%esp
    8571:	8b 5d fc             	mov    -0x4(%ebp),%ebx
    8574:	89 45 0c             	mov    %eax,0xc(%ebp)
    8577:	c9                   	leave  
    8578:	e9 e3 4b 00 00       	jmp    d160 <async_answer_0@plt>
    857d:	50                   	push   %eax
    857e:	68 69 01 00 00       	push   $0x169
    8583:	68 e4 ca 00 00       	push   $0xcae4
    8588:	68 18 cb 00 00       	push   $0xcb18
    858d:	e8 4e 4c 00 00       	call   d1e0 <assert_abort@plt>
    8592:	8d b4 26 00 00 00 00 	lea    0x0(%esi,%eiz,1),%esi
    8599:	8d bc 27 00 00 00 00 	lea    0x0(%edi,%eiz,1),%edi

000085a0 <ieee80211_get_scan_results>:
    85a0:	55                   	push   %ebp
    85a1:	89 e5                	mov    %esp,%ebp
    85a3:	57                   	push   %edi
    85a4:	56                   	push   %esi
    85a5:	53                   	push   %ebx
    85a6:	83 ec 2c             	sub    $0x2c,%esp
    85a9:	8b 75 0c             	mov    0xc(%ebp),%esi
    85ac:	8b 5d 10             	mov    0x10(%ebp),%ebx
    85af:	85 f6                	test   %esi,%esi
    85b1:	74 6a                	je     861d <ieee80211_get_scan_results+0x7d>
    85b3:	83 ec 0c             	sub    $0xc,%esp
    85b6:	8b 45 08             	mov    0x8(%ebp),%eax
    85b9:	81 e3 ff 00 00 00    	and    $0xff,%ebx
    85bf:	50                   	push   %eax
    85c0:	e8 4b 4e 00 00       	call   d410 <async_exchange_begin@plt>
    85c5:	83 c4 0c             	add    $0xc,%esp
    85c8:	89 c7                	mov    %eax,%edi
    85ca:	6a 00                	push   $0x0
    85cc:	6a 00                	push   $0x0
    85ce:	6a 00                	push   $0x0
    85d0:	53                   	push   %ebx
    85d1:	6a 00                	push   $0x0
    85d3:	68 06 04 00 00       	push   $0x406
    85d8:	50                   	push   %eax
    85d9:	e8 92 4b 00 00       	call   d170 <async_send_fast@plt>
    85de:	83 c4 1c             	add    $0x1c,%esp
    85e1:	89 c3                	mov    %eax,%ebx
    85e3:	68 84 07 00 00       	push   $0x784
    85e8:	56                   	push   %esi
    85e9:	57                   	push   %edi
    85ea:	e8 91 4d 00 00       	call   d380 <async_data_read_start@plt>
    85ef:	89 3c 24             	mov    %edi,(%esp)
    85f2:	89 45 d4             	mov    %eax,-0x2c(%ebp)
    85f5:	e8 d6 4b 00 00       	call   d1d0 <async_exchange_end@plt>
    85fa:	5a                   	pop    %edx
    85fb:	8d 55 e4             	lea    -0x1c(%ebp),%edx
    85fe:	59                   	pop    %ecx
    85ff:	52                   	push   %edx
    8600:	53                   	push   %ebx
    8601:	e8 6a 4a 00 00       	call   d070 <async_wait_for@plt>
    8606:	8b 55 e4             	mov    -0x1c(%ebp),%edx
    8609:	83 c4 10             	add    $0x10,%esp
    860c:	8b 45 d4             	mov    -0x2c(%ebp),%eax
    860f:	85 d2                	test   %edx,%edx
    8611:	74 02                	je     8615 <ieee80211_get_scan_results+0x75>
    8613:	89 d0                	mov    %edx,%eax
    8615:	8d 65 f4             	lea    -0xc(%ebp),%esp
    8618:	5b                   	pop    %ebx
    8619:	5e                   	pop    %esi
    861a:	5f                   	pop    %edi
    861b:	5d                   	pop    %ebp
    861c:	c3                   	ret    
    861d:	53                   	push   %ebx
    861e:	6a 43                	push   $0x43
    8620:	68 e4 ca 00 00       	push   $0xcae4
    8625:	68 34 cb 00 00       	push   $0xcb34
    862a:	e8 b1 4b 00 00       	call   d1e0 <assert_abort@plt>
    862f:	90                   	nop

00008630 <ieee80211_connect>:
    8630:	55                   	push   %ebp
    8631:	89 e5                	mov    %esp,%ebp
    8633:	57                   	push   %edi
    8634:	56                   	push   %esi
    8635:	53                   	push   %ebx
    8636:	83 ec 3c             	sub    $0x3c,%esp
    8639:	8b 75 0c             	mov    0xc(%ebp),%esi
    863c:	85 f6                	test   %esi,%esi
    863e:	0f 84 97 01 00 00    	je     87db <ieee80211_connect+0x1ab>
    8644:	83 ec 0c             	sub    $0xc,%esp
    8647:	8b 45 08             	mov    0x8(%ebp),%eax
    864a:	50                   	push   %eax
    864b:	e8 c0 4d 00 00       	call   d410 <async_exchange_begin@plt>
    8650:	83 c4 0c             	add    $0xc,%esp
    8653:	89 c3                	mov    %eax,%ebx
    8655:	6a 00                	push   $0x0
    8657:	6a 00                	push   $0x0
    8659:	6a 00                	push   $0x0
    865b:	6a 00                	push   $0x0
    865d:	6a 01                	push   $0x1
    865f:	68 06 04 00 00       	push   $0x406
    8664:	50                   	push   %eax
    8665:	e8 06 4b 00 00       	call   d170 <async_send_fast@plt>
    866a:	83 c4 14             	add    $0x14,%esp
    866d:	89 c7                	mov    %eax,%edi
    866f:	56                   	push   %esi
    8670:	e8 6b 4d 00 00       	call   d3e0 <str_size@plt>
    8675:	83 c4 0c             	add    $0xc,%esp
    8678:	40                   	inc    %eax
    8679:	50                   	push   %eax
    867a:	56                   	push   %esi
    867b:	53                   	push   %ebx
    867c:	e8 2f 4a 00 00       	call   d0b0 <async_data_write_start@plt>
    8681:	83 c4 10             	add    $0x10,%esp
    8684:	89 45 c4             	mov    %eax,-0x3c(%ebp)
    8687:	85 c0                	test   %eax,%eax
    8689:	75 30                	jne    86bb <ieee80211_connect+0x8b>
    868b:	8b 45 10             	mov    0x10(%ebp),%eax
    868e:	85 c0                	test   %eax,%eax
    8690:	0f 84 aa 00 00 00    	je     8740 <ieee80211_connect+0x110>
    8696:	83 ec 0c             	sub    $0xc,%esp
    8699:	8b 75 10             	mov    0x10(%ebp),%esi
    869c:	56                   	push   %esi
    869d:	e8 3e 4d 00 00       	call   d3e0 <str_size@plt>
    86a2:	83 c4 0c             	add    $0xc,%esp
    86a5:	40                   	inc    %eax
    86a6:	50                   	push   %eax
    86a7:	8b 45 10             	mov    0x10(%ebp),%eax
    86aa:	50                   	push   %eax
    86ab:	53                   	push   %ebx
    86ac:	e8 ff 49 00 00       	call   d0b0 <async_data_write_start@plt>
    86b1:	83 c4 10             	add    $0x10,%esp
    86b4:	89 45 c4             	mov    %eax,-0x3c(%ebp)
    86b7:	85 c0                	test   %eax,%eax
    86b9:	74 2d                	je     86e8 <ieee80211_connect+0xb8>
    86bb:	83 ec 0c             	sub    $0xc,%esp
    86be:	53                   	push   %ebx
    86bf:	e8 0c 4b 00 00       	call   d1d0 <async_exchange_end@plt>
    86c4:	8d 45 d8             	lea    -0x28(%ebp),%eax
    86c7:	59                   	pop    %ecx
    86c8:	5b                   	pop    %ebx
    86c9:	50                   	push   %eax
    86ca:	57                   	push   %edi
    86cb:	e8 a0 49 00 00       	call   d070 <async_wait_for@plt>
    86d0:	8b 45 d8             	mov    -0x28(%ebp),%eax
    86d3:	83 c4 10             	add    $0x10,%esp
    86d6:	85 c0                	test   %eax,%eax
    86d8:	75 03                	jne    86dd <ieee80211_connect+0xad>
    86da:	8b 45 c4             	mov    -0x3c(%ebp),%eax
    86dd:	8d 65 f4             	lea    -0xc(%ebp),%esp
    86e0:	5b                   	pop    %ebx
    86e1:	5e                   	pop    %esi
    86e2:	5f                   	pop    %edi
    86e3:	5d                   	pop    %ebp
    86e4:	c3                   	ret    
    86e5:	8d 76 00             	lea    0x0(%esi),%esi
    86e8:	83 ec 0c             	sub    $0xc,%esp
    86eb:	53                   	push   %ebx
    86ec:	e8 df 4a 00 00       	call   d1d0 <async_exchange_end@plt>
    86f1:	58                   	pop    %eax
    86f2:	8d 45 c4             	lea    -0x3c(%ebp),%eax
    86f5:	5a                   	pop    %edx
    86f6:	50                   	push   %eax
    86f7:	57                   	push   %edi
    86f8:	e8 73 49 00 00       	call   d070 <async_wait_for@plt>
    86fd:	8b 45 c4             	mov    -0x3c(%ebp),%eax
    8700:	83 c4 10             	add    $0x10,%esp
    8703:	85 c0                	test   %eax,%eax
    8705:	75 d6                	jne    86dd <ieee80211_connect+0xad>
    8707:	8d 45 d2             	lea    -0x2e(%ebp),%eax
    870a:	8b 7d 08             	mov    0x8(%ebp),%edi
    870d:	56                   	push   %esi
    870e:	56                   	push   %esi
    870f:	50                   	push   %eax
    8710:	57                   	push   %edi
    8711:	e8 6a e7 ff ff       	call   6e80 <nic_get_address>
    8716:	83 c4 10             	add    $0x10,%esp
    8719:	89 45 c4             	mov    %eax,-0x3c(%ebp)
    871c:	85 c0                	test   %eax,%eax
    871e:	75 bd                	jne    86dd <ieee80211_connect+0xad>
    8720:	8d 45 cc             	lea    -0x34(%ebp),%eax
    8723:	53                   	push   %ebx
    8724:	53                   	push   %ebx
    8725:	50                   	push   %eax
    8726:	8d 45 c8             	lea    -0x38(%ebp),%eax
    8729:	50                   	push   %eax
    872a:	e8 91 4d 00 00       	call   d4c0 <inetcfg_get_link_list@plt>
    872f:	83 c4 10             	add    $0x10,%esp
    8732:	85 c0                	test   %eax,%eax
    8734:	74 1a                	je     8750 <ieee80211_connect+0x120>
    8736:	b8 f2 ff ff ff       	mov    $0xfffffff2,%eax
    873b:	eb a0                	jmp    86dd <ieee80211_connect+0xad>
    873d:	8d 76 00             	lea    0x0(%esi),%esi
    8740:	c7 45 10 a6 cc 00 00 	movl   $0xcca6,0x10(%ebp)
    8747:	e9 4a ff ff ff       	jmp    8696 <ieee80211_connect+0x66>
    874c:	8d 74 26 00          	lea    0x0(%esi,%eiz,1),%esi
    8750:	8b 4d cc             	mov    -0x34(%ebp),%ecx
    8753:	85 c9                	test   %ecx,%ecx
    8755:	74 df                	je     8736 <ieee80211_connect+0x106>
    8757:	31 db                	xor    %ebx,%ebx
    8759:	8d 7d d8             	lea    -0x28(%ebp),%edi
    875c:	8d 74 26 00          	lea    0x0(%esi,%eiz,1),%esi
    8760:	8d 34 9d 00 00 00 00 	lea    0x0(,%ebx,4),%esi
    8767:	50                   	push   %eax
    8768:	50                   	push   %eax
    8769:	8b 45 c8             	mov    -0x38(%ebp),%eax
    876c:	57                   	push   %edi
    876d:	8b 14 30             	mov    (%eax,%esi,1),%edx
    8770:	52                   	push   %edx
    8771:	e8 8a 4b 00 00       	call   d300 <inetcfg_link_get@plt>
    8776:	83 c4 10             	add    $0x10,%esp
    8779:	85 c0                	test   %eax,%eax
    877b:	75 b9                	jne    8736 <ieee80211_connect+0x106>
    877d:	8a 45 e0             	mov    -0x20(%ebp),%al
    8780:	38 45 d2             	cmp    %al,-0x2e(%ebp)
    8783:	75 4b                	jne    87d0 <ieee80211_connect+0x1a0>
    8785:	8a 45 e1             	mov    -0x1f(%ebp),%al
    8788:	38 45 d3             	cmp    %al,-0x2d(%ebp)
    878b:	75 43                	jne    87d0 <ieee80211_connect+0x1a0>
    878d:	8a 45 e2             	mov    -0x1e(%ebp),%al
    8790:	38 45 d4             	cmp    %al,-0x2c(%ebp)
    8793:	75 3b                	jne    87d0 <ieee80211_connect+0x1a0>
    8795:	8a 45 e3             	mov    -0x1d(%ebp),%al
    8798:	38 45 d5             	cmp    %al,-0x2b(%ebp)
    879b:	75 33                	jne    87d0 <ieee80211_connect+0x1a0>
    879d:	8a 45 e4             	mov    -0x1c(%ebp),%al
    87a0:	38 45 d6             	cmp    %al,-0x2a(%ebp)
    87a3:	75 2b                	jne    87d0 <ieee80211_connect+0x1a0>
    87a5:	8a 45 e5             	mov    -0x1b(%ebp),%al
    87a8:	38 45 d7             	cmp    %al,-0x29(%ebp)
    87ab:	75 23                	jne    87d0 <ieee80211_connect+0x1a0>
    87ad:	8b 45 c8             	mov    -0x38(%ebp),%eax
    87b0:	8b 04 30             	mov    (%eax,%esi,1),%eax
    87b3:	83 f8 ff             	cmp    $0xffffffff,%eax
    87b6:	0f 84 7a ff ff ff    	je     8736 <ieee80211_connect+0x106>
    87bc:	83 ec 0c             	sub    $0xc,%esp
    87bf:	50                   	push   %eax
    87c0:	e8 6b 4b 00 00       	call   d330 <dhcp_discover@plt>
    87c5:	83 c4 10             	add    $0x10,%esp
    87c8:	e9 10 ff ff ff       	jmp    86dd <ieee80211_connect+0xad>
    87cd:	8d 76 00             	lea    0x0(%esi),%esi
    87d0:	43                   	inc    %ebx
    87d1:	3b 5d cc             	cmp    -0x34(%ebp),%ebx
    87d4:	72 8a                	jb     8760 <ieee80211_connect+0x130>
    87d6:	e9 5b ff ff ff       	jmp    8736 <ieee80211_connect+0x106>
    87db:	50                   	push   %eax
    87dc:	68 82 00 00 00       	push   $0x82
    87e1:	68 e4 ca 00 00       	push   $0xcae4
    87e6:	68 3c cb 00 00       	push   $0xcb3c
    87eb:	e8 f0 49 00 00       	call   d1e0 <assert_abort@plt>

000087f0 <ieee80211_disconnect>:
    87f0:	55                   	push   %ebp
    87f1:	89 e5                	mov    %esp,%ebp
    87f3:	57                   	push   %edi
    87f4:	56                   	push   %esi
    87f5:	53                   	push   %ebx
    87f6:	81 ec 98 00 00 00    	sub    $0x98,%esp
    87fc:	8b 75 08             	mov    0x8(%ebp),%esi
    87ff:	56                   	push   %esi
    8800:	e8 0b 4c 00 00       	call   d410 <async_exchange_begin@plt>
    8805:	83 c4 0c             	add    $0xc,%esp
    8808:	89 c3                	mov    %eax,%ebx
    880a:	6a 00                	push   $0x0
    880c:	6a 00                	push   $0x0
    880e:	6a 00                	push   $0x0
    8810:	6a 00                	push   $0x0
    8812:	6a 00                	push   $0x0
    8814:	6a 00                	push   $0x0
    8816:	6a 00                	push   $0x0
    8818:	6a 00                	push   $0x0
    881a:	6a 02                	push   $0x2
    881c:	68 06 04 00 00       	push   $0x406
    8821:	50                   	push   %eax
    8822:	e8 29 49 00 00       	call   d150 <async_req_fast@plt>
    8827:	83 c4 24             	add    $0x24,%esp
    882a:	89 c7                	mov    %eax,%edi
    882c:	53                   	push   %ebx
    882d:	e8 9e 49 00 00       	call   d1d0 <async_exchange_end@plt>
    8832:	83 c4 10             	add    $0x10,%esp
    8835:	85 ff                	test   %edi,%edi
    8837:	74 0f                	je     8848 <ieee80211_disconnect+0x58>
    8839:	8d 65 f4             	lea    -0xc(%ebp),%esp
    883c:	89 f8                	mov    %edi,%eax
    883e:	5b                   	pop    %ebx
    883f:	5e                   	pop    %esi
    8840:	5f                   	pop    %edi
    8841:	5d                   	pop    %ebp
    8842:	c3                   	ret    
    8843:	90                   	nop
    8844:	8d 74 26 00          	lea    0x0(%esi,%eiz,1),%esi
    8848:	50                   	push   %eax
    8849:	50                   	push   %eax
    884a:	8d 45 82             	lea    -0x7e(%ebp),%eax
    884d:	50                   	push   %eax
    884e:	56                   	push   %esi
    884f:	e8 2c e6 ff ff       	call   6e80 <nic_get_address>
    8854:	83 c4 10             	add    $0x10,%esp
    8857:	89 c7                	mov    %eax,%edi
    8859:	85 c0                	test   %eax,%eax
    885b:	75 dc                	jne    8839 <ieee80211_disconnect+0x49>
    885d:	50                   	push   %eax
    885e:	50                   	push   %eax
    885f:	8d 85 7c ff ff ff    	lea    -0x84(%ebp),%eax
    8865:	50                   	push   %eax
    8866:	8d 85 74 ff ff ff    	lea    -0x8c(%ebp),%eax
    886c:	50                   	push   %eax
    886d:	e8 5e 4a 00 00       	call   d2d0 <inetcfg_get_addr_list@plt>
    8872:	83 c4 10             	add    $0x10,%esp
    8875:	89 c7                	mov    %eax,%edi
    8877:	85 c0                	test   %eax,%eax
    8879:	75 be                	jne    8839 <ieee80211_disconnect+0x49>
    887b:	8b 85 7c ff ff ff    	mov    -0x84(%ebp),%eax
    8881:	31 db                	xor    %ebx,%ebx
    8883:	85 c0                	test   %eax,%eax
    8885:	0f 84 9e 00 00 00    	je     8929 <ieee80211_disconnect+0x139>
    888b:	90                   	nop
    888c:	8d 74 26 00          	lea    0x0(%esi,%eiz,1),%esi
    8890:	8d 45 98             	lea    -0x68(%ebp),%eax
    8893:	8d 34 9d 00 00 00 00 	lea    0x0(,%ebx,4),%esi
    889a:	57                   	push   %edi
    889b:	57                   	push   %edi
    889c:	50                   	push   %eax
    889d:	8b 85 74 ff ff ff    	mov    -0x8c(%ebp),%eax
    88a3:	8b 04 30             	mov    (%eax,%esi,1),%eax
    88a6:	50                   	push   %eax
    88a7:	e8 d4 47 00 00       	call   d080 <inetcfg_addr_get@plt>
    88ac:	83 c4 10             	add    $0x10,%esp
    88af:	89 c7                	mov    %eax,%edi
    88b1:	85 c0                	test   %eax,%eax
    88b3:	75 84                	jne    8839 <ieee80211_disconnect+0x49>
    88b5:	8d 45 88             	lea    -0x78(%ebp),%eax
    88b8:	8b 4d b0             	mov    -0x50(%ebp),%ecx
    88bb:	52                   	push   %edx
    88bc:	52                   	push   %edx
    88bd:	50                   	push   %eax
    88be:	51                   	push   %ecx
    88bf:	e8 3c 4a 00 00       	call   d300 <inetcfg_link_get@plt>
    88c4:	83 c4 10             	add    $0x10,%esp
    88c7:	89 c7                	mov    %eax,%edi
    88c9:	85 c0                	test   %eax,%eax
    88cb:	0f 85 68 ff ff ff    	jne    8839 <ieee80211_disconnect+0x49>
    88d1:	8a 45 90             	mov    -0x70(%ebp),%al
    88d4:	38 45 82             	cmp    %al,-0x7e(%ebp)
    88d7:	75 43                	jne    891c <ieee80211_disconnect+0x12c>
    88d9:	8a 45 91             	mov    -0x6f(%ebp),%al
    88dc:	38 45 83             	cmp    %al,-0x7d(%ebp)
    88df:	75 3b                	jne    891c <ieee80211_disconnect+0x12c>
    88e1:	8a 45 92             	mov    -0x6e(%ebp),%al
    88e4:	38 45 84             	cmp    %al,-0x7c(%ebp)
    88e7:	75 33                	jne    891c <ieee80211_disconnect+0x12c>
    88e9:	8a 45 93             	mov    -0x6d(%ebp),%al
    88ec:	38 45 85             	cmp    %al,-0x7b(%ebp)
    88ef:	75 2b                	jne    891c <ieee80211_disconnect+0x12c>
    88f1:	8a 45 94             	mov    -0x6c(%ebp),%al
    88f4:	38 45 86             	cmp    %al,-0x7a(%ebp)
    88f7:	75 23                	jne    891c <ieee80211_disconnect+0x12c>
    88f9:	8a 45 95             	mov    -0x6b(%ebp),%al
    88fc:	38 45 87             	cmp    %al,-0x79(%ebp)
    88ff:	75 1b                	jne    891c <ieee80211_disconnect+0x12c>
    8901:	8b 55 b4             	mov    -0x4c(%ebp),%edx
    8904:	50                   	push   %eax
    8905:	50                   	push   %eax
    8906:	68 47 cb 00 00       	push   $0xcb47
    890b:	52                   	push   %edx
    890c:	e8 4f 49 00 00       	call   d260 <str_test_prefix@plt>
    8911:	83 c4 10             	add    $0x10,%esp
    8914:	84 c0                	test   %al,%al
    8916:	0f 85 94 00 00 00    	jne    89b0 <ieee80211_disconnect+0x1c0>
    891c:	43                   	inc    %ebx
    891d:	39 9d 7c ff ff ff    	cmp    %ebx,-0x84(%ebp)
    8923:	0f 87 67 ff ff ff    	ja     8890 <ieee80211_disconnect+0xa0>
    8929:	50                   	push   %eax
    892a:	50                   	push   %eax
    892b:	8d 85 7c ff ff ff    	lea    -0x84(%ebp),%eax
    8931:	50                   	push   %eax
    8932:	8d 85 78 ff ff ff    	lea    -0x88(%ebp),%eax
    8938:	50                   	push   %eax
    8939:	e8 b2 48 00 00       	call   d1f0 <inetcfg_get_sroute_list@plt>
    893e:	83 c4 10             	add    $0x10,%esp
    8941:	89 c7                	mov    %eax,%edi
    8943:	85 c0                	test   %eax,%eax
    8945:	0f 85 ee fe ff ff    	jne    8839 <ieee80211_disconnect+0x49>
    894b:	8b 85 7c ff ff ff    	mov    -0x84(%ebp),%eax
    8951:	31 db                	xor    %ebx,%ebx
    8953:	85 c0                	test   %eax,%eax
    8955:	75 2d                	jne    8984 <ieee80211_disconnect+0x194>
    8957:	e9 dd fe ff ff       	jmp    8839 <ieee80211_disconnect+0x49>
    895c:	8d 74 26 00          	lea    0x0(%esi,%eiz,1),%esi
    8960:	50                   	push   %eax
    8961:	50                   	push   %eax
    8962:	8b 45 e4             	mov    -0x1c(%ebp),%eax
    8965:	68 47 cb 00 00       	push   $0xcb47
    896a:	50                   	push   %eax
    896b:	e8 f0 48 00 00       	call   d260 <str_test_prefix@plt>
    8970:	83 c4 10             	add    $0x10,%esp
    8973:	84 c0                	test   %al,%al
    8975:	75 5d                	jne    89d4 <ieee80211_disconnect+0x1e4>
    8977:	43                   	inc    %ebx
    8978:	39 9d 7c ff ff ff    	cmp    %ebx,-0x84(%ebp)
    897e:	0f 86 b5 fe ff ff    	jbe    8839 <ieee80211_disconnect+0x49>
    8984:	50                   	push   %eax
    8985:	50                   	push   %eax
    8986:	8d 45 b8             	lea    -0x48(%ebp),%eax
    8989:	8d 34 9d 00 00 00 00 	lea    0x0(,%ebx,4),%esi
    8990:	50                   	push   %eax
    8991:	8b 85 78 ff ff ff    	mov    -0x88(%ebp),%eax
    8997:	8b 04 30             	mov    (%eax,%esi,1),%eax
    899a:	50                   	push   %eax
    899b:	e8 a0 46 00 00       	call   d040 <inetcfg_sroute_get@plt>
    89a0:	83 c4 10             	add    $0x10,%esp
    89a3:	85 c0                	test   %eax,%eax
    89a5:	74 b9                	je     8960 <ieee80211_disconnect+0x170>
    89a7:	89 c7                	mov    %eax,%edi
    89a9:	e9 8b fe ff ff       	jmp    8839 <ieee80211_disconnect+0x49>
    89ae:	66 90                	xchg   %ax,%ax
    89b0:	8b 85 74 ff ff ff    	mov    -0x8c(%ebp),%eax
    89b6:	83 ec 0c             	sub    $0xc,%esp
    89b9:	8b 04 30             	mov    (%eax,%esi,1),%eax
    89bc:	50                   	push   %eax
    89bd:	e8 4e 48 00 00       	call   d210 <inetcfg_addr_delete@plt>
    89c2:	83 c4 10             	add    $0x10,%esp
    89c5:	89 c7                	mov    %eax,%edi
    89c7:	85 c0                	test   %eax,%eax
    89c9:	0f 84 5a ff ff ff    	je     8929 <ieee80211_disconnect+0x139>
    89cf:	e9 65 fe ff ff       	jmp    8839 <ieee80211_disconnect+0x49>
    89d4:	8b 85 78 ff ff ff    	mov    -0x88(%ebp),%eax
    89da:	83 ec 0c             	sub    $0xc,%esp
    89dd:	8b 0c 30             	mov    (%eax,%esi,1),%ecx
    89e0:	51                   	push   %ecx
    89e1:	e8 ca 49 00 00       	call   d3b0 <inetcfg_sroute_delete@plt>
    89e6:	83 c4 10             	add    $0x10,%esp
    89e9:	89 c7                	mov    %eax,%edi
    89eb:	e9 49 fe ff ff       	jmp    8839 <ieee80211_disconnect+0x49>

000089f0 <remote_usb_unregister_endpoint>:
    89f0:	55                   	push   %ebp
    89f1:	89 e5                	mov    %esp,%ebp
    89f3:	53                   	push   %ebx
    89f4:	50                   	push   %eax
    89f5:	8b 45 0c             	mov    0xc(%ebp),%eax
    89f8:	8b 4d 08             	mov    0x8(%ebp),%ecx
    89fb:	8b 5d 10             	mov    0x10(%ebp),%ebx
    89fe:	8b 55 14             	mov    0x14(%ebp),%edx
    8a01:	8b 40 1c             	mov    0x1c(%eax),%eax
    8a04:	85 c0                	test   %eax,%eax
    8a06:	74 20                	je     8a28 <remote_usb_unregister_endpoint+0x38>
    8a08:	83 ec 04             	sub    $0x4,%esp
    8a0b:	ff 72 0c             	pushl  0xc(%edx)
    8a0e:	0f bf 52 08          	movswl 0x8(%edx),%edx
    8a12:	52                   	push   %edx
    8a13:	51                   	push   %ecx
    8a14:	ff d0                	call   *%eax
    8a16:	89 5d 08             	mov    %ebx,0x8(%ebp)
    8a19:	83 c4 10             	add    $0x10,%esp
    8a1c:	8b 5d fc             	mov    -0x4(%ebp),%ebx
    8a1f:	89 45 0c             	mov    %eax,0xc(%ebp)
    8a22:	c9                   	leave  
    8a23:	e9 38 47 00 00       	jmp    d160 <async_answer_0@plt>
    8a28:	89 5d 08             	mov    %ebx,0x8(%ebp)
    8a2b:	8b 5d fc             	mov    -0x4(%ebp),%ebx
    8a2e:	c7 45 0c f5 ff ff ff 	movl   $0xfffffff5,0xc(%ebp)
    8a35:	c9                   	leave  
    8a36:	e9 25 47 00 00       	jmp    d160 <async_answer_0@plt>
    8a3b:	90                   	nop
    8a3c:	8d 74 26 00          	lea    0x0(%esi,%eiz,1),%esi

00008a40 <remote_usb_register_endpoint>:
    8a40:	55                   	push   %ebp
    8a41:	89 e5                	mov    %esp,%ebp
    8a43:	57                   	push   %edi
    8a44:	56                   	push   %esi
    8a45:	53                   	push   %ebx
    8a46:	83 ec 0c             	sub    $0xc,%esp
    8a49:	8b 45 0c             	mov    0xc(%ebp),%eax
    8a4c:	8b 75 08             	mov    0x8(%ebp),%esi
    8a4f:	8b 5d 10             	mov    0x10(%ebp),%ebx
    8a52:	8b 55 14             	mov    0x14(%ebp),%edx
    8a55:	8b 48 18             	mov    0x18(%eax),%ecx
    8a58:	85 c9                	test   %ecx,%ecx
    8a5a:	74 44                	je     8aa0 <remote_usb_register_endpoint+0x60>
    8a5c:	8b 42 0c             	mov    0xc(%edx),%eax
    8a5f:	57                   	push   %edi
    8a60:	89 c7                	mov    %eax,%edi
    8a62:	c1 ef 18             	shr    $0x18,%edi
    8a65:	57                   	push   %edi
    8a66:	89 c7                	mov    %eax,%edi
    8a68:	c1 ef 10             	shr    $0x10,%edi
    8a6b:	81 e7 ff 00 00 00    	and    $0xff,%edi
    8a71:	57                   	push   %edi
    8a72:	8b 7a 10             	mov    0x10(%edx),%edi
    8a75:	57                   	push   %edi
    8a76:	0f b6 fc             	movzbl %ah,%edi
    8a79:	25 ff 00 00 00       	and    $0xff,%eax
    8a7e:	57                   	push   %edi
    8a7f:	50                   	push   %eax
    8a80:	0f bf 42 08          	movswl 0x8(%edx),%eax
    8a84:	50                   	push   %eax
    8a85:	56                   	push   %esi
    8a86:	ff d1                	call   *%ecx
    8a88:	89 5d 08             	mov    %ebx,0x8(%ebp)
    8a8b:	89 45 0c             	mov    %eax,0xc(%ebp)
    8a8e:	83 c4 20             	add    $0x20,%esp
    8a91:	8d 65 f4             	lea    -0xc(%ebp),%esp
    8a94:	5b                   	pop    %ebx
    8a95:	5e                   	pop    %esi
    8a96:	5f                   	pop    %edi
    8a97:	5d                   	pop    %ebp
    8a98:	e9 c3 46 00 00       	jmp    d160 <async_answer_0@plt>
    8a9d:	8d 76 00             	lea    0x0(%esi),%esi
    8aa0:	89 5d 08             	mov    %ebx,0x8(%ebp)
    8aa3:	c7 45 0c f5 ff ff ff 	movl   $0xfffffff5,0xc(%ebp)
    8aaa:	8d 65 f4             	lea    -0xc(%ebp),%esp
    8aad:	5b                   	pop    %ebx
    8aae:	5e                   	pop    %esi
    8aaf:	5f                   	pop    %edi
    8ab0:	5d                   	pop    %ebp
    8ab1:	e9 aa 46 00 00       	jmp    d160 <async_answer_0@plt>
    8ab6:	8d 76 00             	lea    0x0(%esi),%esi
    8ab9:	8d bc 27 00 00 00 00 	lea    0x0(%edi,%eiz,1),%edi

00008ac0 <remote_usb_device_remove>:
    8ac0:	55                   	push   %ebp
    8ac1:	89 e5                	mov    %esp,%ebp
    8ac3:	53                   	push   %ebx
    8ac4:	53                   	push   %ebx
    8ac5:	8b 45 0c             	mov    0xc(%ebp),%eax
    8ac8:	8b 55 08             	mov    0x8(%ebp),%edx
    8acb:	8b 5d 10             	mov    0x10(%ebp),%ebx
    8ace:	8b 4d 14             	mov    0x14(%ebp),%ecx
    8ad1:	8b 40 14             	mov    0x14(%eax),%eax
    8ad4:	85 c0                	test   %eax,%eax
    8ad6:	74 20                	je     8af8 <remote_usb_device_remove+0x38>
    8ad8:	83 ec 08             	sub    $0x8,%esp
    8adb:	8b 49 08             	mov    0x8(%ecx),%ecx
    8ade:	51                   	push   %ecx
    8adf:	52                   	push   %edx
    8ae0:	ff d0                	call   *%eax
    8ae2:	89 5d 08             	mov    %ebx,0x8(%ebp)
    8ae5:	83 c4 10             	add    $0x10,%esp
    8ae8:	8b 5d fc             	mov    -0x4(%ebp),%ebx
    8aeb:	89 45 0c             	mov    %eax,0xc(%ebp)
    8aee:	c9                   	leave  
    8aef:	e9 6c 46 00 00       	jmp    d160 <async_answer_0@plt>
    8af4:	8d 74 26 00          	lea    0x0(%esi,%eiz,1),%esi
    8af8:	89 5d 08             	mov    %ebx,0x8(%ebp)
    8afb:	8b 5d fc             	mov    -0x4(%ebp),%ebx
    8afe:	c7 45 0c f5 ff ff ff 	movl   $0xfffffff5,0xc(%ebp)
    8b05:	c9                   	leave  
    8b06:	e9 55 46 00 00       	jmp    d160 <async_answer_0@plt>
    8b0b:	90                   	nop
    8b0c:	8d 74 26 00          	lea    0x0(%esi,%eiz,1),%esi

00008b10 <remote_usb_device_enumerate>:
    8b10:	55                   	push   %ebp
    8b11:	89 e5                	mov    %esp,%ebp
    8b13:	53                   	push   %ebx
    8b14:	53                   	push   %ebx
    8b15:	8b 45 0c             	mov    0xc(%ebp),%eax
    8b18:	8b 55 08             	mov    0x8(%ebp),%edx
    8b1b:	8b 5d 10             	mov    0x10(%ebp),%ebx
    8b1e:	8b 4d 14             	mov    0x14(%ebp),%ecx
    8b21:	8b 40 10             	mov    0x10(%eax),%eax
    8b24:	85 c0                	test   %eax,%eax
    8b26:	74 20                	je     8b48 <remote_usb_device_enumerate+0x38>
    8b28:	83 ec 08             	sub    $0x8,%esp
    8b2b:	8b 49 08             	mov    0x8(%ecx),%ecx
    8b2e:	51                   	push   %ecx
    8b2f:	52                   	push   %edx
    8b30:	ff d0                	call   *%eax
    8b32:	89 5d 08             	mov    %ebx,0x8(%ebp)
    8b35:	83 c4 10             	add    $0x10,%esp
    8b38:	8b 5d fc             	mov    -0x4(%ebp),%ebx
    8b3b:	89 45 0c             	mov    %eax,0xc(%ebp)
    8b3e:	c9                   	leave  
    8b3f:	e9 1c 46 00 00       	jmp    d160 <async_answer_0@plt>
    8b44:	8d 74 26 00          	lea    0x0(%esi,%eiz,1),%esi
    8b48:	89 5d 08             	mov    %ebx,0x8(%ebp)
    8b4b:	8b 5d fc             	mov    -0x4(%ebp),%ebx
    8b4e:	c7 45 0c f5 ff ff ff 	movl   $0xfffffff5,0xc(%ebp)
    8b55:	c9                   	leave  
    8b56:	e9 05 46 00 00       	jmp    d160 <async_answer_0@plt>
    8b5b:	90                   	nop
    8b5c:	8d 74 26 00          	lea    0x0(%esi,%eiz,1),%esi

00008b60 <remote_usb_release_default_address>:
    8b60:	55                   	push   %ebp
    8b61:	89 e5                	mov    %esp,%ebp
    8b63:	53                   	push   %ebx
    8b64:	50                   	push   %eax
    8b65:	8b 45 0c             	mov    0xc(%ebp),%eax
    8b68:	8b 55 08             	mov    0x8(%ebp),%edx
    8b6b:	8b 5d 10             	mov    0x10(%ebp),%ebx
    8b6e:	8b 40 0c             	mov    0xc(%eax),%eax
    8b71:	85 c0                	test   %eax,%eax
    8b73:	74 1b                	je     8b90 <remote_usb_release_default_address+0x30>
    8b75:	83 ec 0c             	sub    $0xc,%esp
    8b78:	52                   	push   %edx
    8b79:	ff d0                	call   *%eax
    8b7b:	89 5d 08             	mov    %ebx,0x8(%ebp)
    8b7e:	83 c4 10             	add    $0x10,%esp
    8b81:	8b 5d fc             	mov    -0x4(%ebp),%ebx
    8b84:	89 45 0c             	mov    %eax,0xc(%ebp)
    8b87:	c9                   	leave  
    8b88:	e9 d3 45 00 00       	jmp    d160 <async_answer_0@plt>
    8b8d:	8d 76 00             	lea    0x0(%esi),%esi
    8b90:	89 5d 08             	mov    %ebx,0x8(%ebp)
    8b93:	8b 5d fc             	mov    -0x4(%ebp),%ebx
    8b96:	c7 45 0c f5 ff ff ff 	movl   $0xfffffff5,0xc(%ebp)
    8b9d:	c9                   	leave  
    8b9e:	e9 bd 45 00 00       	jmp    d160 <async_answer_0@plt>
    8ba3:	8d b6 00 00 00 00    	lea    0x0(%esi),%esi
    8ba9:	8d bc 27 00 00 00 00 	lea    0x0(%edi,%eiz,1),%edi

00008bb0 <remote_usb_reserve_default_address>:
    8bb0:	55                   	push   %ebp
    8bb1:	89 e5                	mov    %esp,%ebp
    8bb3:	53                   	push   %ebx
    8bb4:	53                   	push   %ebx
    8bb5:	8b 45 0c             	mov    0xc(%ebp),%eax
    8bb8:	8b 55 08             	mov    0x8(%ebp),%edx
    8bbb:	8b 5d 10             	mov    0x10(%ebp),%ebx
    8bbe:	8b 4d 14             	mov    0x14(%ebp),%ecx
    8bc1:	8b 40 08             	mov    0x8(%eax),%eax
    8bc4:	85 c0                	test   %eax,%eax
    8bc6:	74 20                	je     8be8 <remote_usb_reserve_default_address+0x38>
    8bc8:	83 ec 08             	sub    $0x8,%esp
    8bcb:	8b 49 08             	mov    0x8(%ecx),%ecx
    8bce:	51                   	push   %ecx
    8bcf:	52                   	push   %edx
    8bd0:	ff d0                	call   *%eax
    8bd2:	89 5d 08             	mov    %ebx,0x8(%ebp)
    8bd5:	83 c4 10             	add    $0x10,%esp
    8bd8:	8b 5d fc             	mov    -0x4(%ebp),%ebx
    8bdb:	89 45 0c             	mov    %eax,0xc(%ebp)
    8bde:	c9                   	leave  
    8bdf:	e9 7c 45 00 00       	jmp    d160 <async_answer_0@plt>
    8be4:	8d 74 26 00          	lea    0x0(%esi,%eiz,1),%esi
    8be8:	89 5d 08             	mov    %ebx,0x8(%ebp)
    8beb:	8b 5d fc             	mov    -0x4(%ebp),%ebx
    8bee:	c7 45 0c f5 ff ff ff 	movl   $0xfffffff5,0xc(%ebp)
    8bf5:	c9                   	leave  
    8bf6:	e9 65 45 00 00       	jmp    d160 <async_answer_0@plt>
    8bfb:	90                   	nop
    8bfc:	8d 74 26 00          	lea    0x0(%esi,%eiz,1),%esi

00008c00 <remote_usb_get_my_device_handle>:
    8c00:	55                   	push   %ebp
    8c01:	89 e5                	mov    %esp,%ebp
    8c03:	53                   	push   %ebx
    8c04:	83 ec 14             	sub    $0x14,%esp
    8c07:	8b 45 0c             	mov    0xc(%ebp),%eax
    8c0a:	8b 5d 10             	mov    0x10(%ebp),%ebx
    8c0d:	8b 40 04             	mov    0x4(%eax),%eax
    8c10:	85 c0                	test   %eax,%eax
    8c12:	74 3c                	je     8c50 <remote_usb_get_my_device_handle+0x50>
    8c14:	8b 4d 08             	mov    0x8(%ebp),%ecx
    8c17:	52                   	push   %edx
    8c18:	52                   	push   %edx
    8c19:	8d 55 f4             	lea    -0xc(%ebp),%edx
    8c1c:	52                   	push   %edx
    8c1d:	51                   	push   %ecx
    8c1e:	ff d0                	call   *%eax
    8c20:	83 c4 10             	add    $0x10,%esp
    8c23:	85 c0                	test   %eax,%eax
    8c25:	75 19                	jne    8c40 <remote_usb_get_my_device_handle+0x40>
    8c27:	8b 55 f4             	mov    -0xc(%ebp),%edx
    8c2a:	50                   	push   %eax
    8c2b:	52                   	push   %edx
    8c2c:	6a 00                	push   $0x0
    8c2e:	53                   	push   %ebx
    8c2f:	e8 cc 47 00 00       	call   d400 <async_answer_1@plt>
    8c34:	83 c4 10             	add    $0x10,%esp
    8c37:	8b 5d fc             	mov    -0x4(%ebp),%ebx
    8c3a:	c9                   	leave  
    8c3b:	c3                   	ret    
    8c3c:	8d 74 26 00          	lea    0x0(%esi,%eiz,1),%esi
    8c40:	51                   	push   %ecx
    8c41:	51                   	push   %ecx
    8c42:	50                   	push   %eax
    8c43:	53                   	push   %ebx
    8c44:	e8 17 45 00 00       	call   d160 <async_answer_0@plt>
    8c49:	83 c4 10             	add    $0x10,%esp
    8c4c:	eb d9                	jmp    8c27 <remote_usb_get_my_device_handle+0x27>
    8c4e:	66 90                	xchg   %ax,%ax
    8c50:	50                   	push   %eax
    8c51:	50                   	push   %eax
    8c52:	6a f5                	push   $0xfffffff5
    8c54:	53                   	push   %ebx
    8c55:	e8 06 45 00 00       	call   d160 <async_answer_0@plt>
    8c5a:	83 c4 10             	add    $0x10,%esp
    8c5d:	8b 5d fc             	mov    -0x4(%ebp),%ebx
    8c60:	c9                   	leave  
    8c61:	c3                   	ret    
    8c62:	8d b4 26 00 00 00 00 	lea    0x0(%esi,%eiz,1),%esi
    8c69:	8d bc 27 00 00 00 00 	lea    0x0(%edi,%eiz,1),%edi

00008c70 <remote_usb_get_my_interface>:
    8c70:	55                   	push   %ebp
    8c71:	89 e5                	mov    %esp,%ebp
    8c73:	83 ec 18             	sub    $0x18,%esp
    8c76:	8b 45 0c             	mov    0xc(%ebp),%eax
    8c79:	8b 00                	mov    (%eax),%eax
    8c7b:	85 c0                	test   %eax,%eax
    8c7d:	74 41                	je     8cc0 <remote_usb_get_my_interface+0x50>
    8c7f:	8b 4d 08             	mov    0x8(%ebp),%ecx
    8c82:	52                   	push   %edx
    8c83:	52                   	push   %edx
    8c84:	8d 55 f4             	lea    -0xc(%ebp),%edx
    8c87:	52                   	push   %edx
    8c88:	51                   	push   %ecx
    8c89:	ff d0                	call   *%eax
    8c8b:	83 c4 10             	add    $0x10,%esp
    8c8e:	85 c0                	test   %eax,%eax
    8c90:	74 16                	je     8ca8 <remote_usb_get_my_interface+0x38>
    8c92:	8b 4d 10             	mov    0x10(%ebp),%ecx
    8c95:	52                   	push   %edx
    8c96:	52                   	push   %edx
    8c97:	50                   	push   %eax
    8c98:	51                   	push   %ecx
    8c99:	e8 c2 44 00 00       	call   d160 <async_answer_0@plt>
    8c9e:	83 c4 10             	add    $0x10,%esp
    8ca1:	c9                   	leave  
    8ca2:	c3                   	ret    
    8ca3:	90                   	nop
    8ca4:	8d 74 26 00          	lea    0x0(%esi,%eiz,1),%esi
    8ca8:	8b 55 f4             	mov    -0xc(%ebp),%edx
    8cab:	8b 4d 10             	mov    0x10(%ebp),%ecx
    8cae:	50                   	push   %eax
    8caf:	52                   	push   %edx
    8cb0:	6a 00                	push   $0x0
    8cb2:	51                   	push   %ecx
    8cb3:	e8 48 47 00 00       	call   d400 <async_answer_1@plt>
    8cb8:	83 c4 10             	add    $0x10,%esp
    8cbb:	c9                   	leave  
    8cbc:	c3                   	ret    
    8cbd:	8d 76 00             	lea    0x0(%esi),%esi
    8cc0:	50                   	push   %eax
    8cc1:	50                   	push   %eax
    8cc2:	8b 45 10             	mov    0x10(%ebp),%eax
    8cc5:	6a f5                	push   $0xfffffff5
    8cc7:	50                   	push   %eax
    8cc8:	e8 93 44 00 00       	call   d160 <async_answer_0@plt>
    8ccd:	83 c4 10             	add    $0x10,%esp
    8cd0:	c9                   	leave  
    8cd1:	c3                   	ret    
    8cd2:	8d b4 26 00 00 00 00 	lea    0x0(%esi,%eiz,1),%esi
    8cd9:	8d bc 27 00 00 00 00 	lea    0x0(%edi,%eiz,1),%edi

00008ce0 <callback_out>:
    8ce0:	55                   	push   %ebp
    8ce1:	89 e5                	mov    %esp,%ebp
    8ce3:	53                   	push   %ebx
    8ce4:	83 ec 0c             	sub    $0xc,%esp
    8ce7:	8b 5d 0c             	mov    0xc(%ebp),%ebx
    8cea:	8b 45 08             	mov    0x8(%ebp),%eax
    8ced:	50                   	push   %eax
    8cee:	8b 13                	mov    (%ebx),%edx
    8cf0:	52                   	push   %edx
    8cf1:	e8 6a 44 00 00       	call   d160 <async_answer_0@plt>
    8cf6:	8b 43 08             	mov    0x8(%ebx),%eax
    8cf9:	83 c4 10             	add    $0x10,%esp
    8cfc:	85 c0                	test   %eax,%eax
    8cfe:	74 0c                	je     8d0c <callback_out+0x2c>
    8d00:	83 ec 0c             	sub    $0xc,%esp
    8d03:	50                   	push   %eax
    8d04:	e8 07 48 00 00       	call   d510 <free@plt>
    8d09:	83 c4 10             	add    $0x10,%esp
    8d0c:	89 5d 08             	mov    %ebx,0x8(%ebp)
    8d0f:	8b 5d fc             	mov    -0x4(%ebp),%ebx
    8d12:	c9                   	leave  
    8d13:	e9 f8 47 00 00       	jmp    d510 <free@plt>
    8d18:	90                   	nop
    8d19:	8d b4 26 00 00 00 00 	lea    0x0(%esi,%eiz,1),%esi

00008d20 <callback_in>:
    8d20:	55                   	push   %ebp
    8d21:	89 e5                	mov    %esp,%ebp
    8d23:	53                   	push   %ebx
    8d24:	53                   	push   %ebx
    8d25:	8b 45 08             	mov    0x8(%ebp),%eax
    8d28:	8b 55 0c             	mov    0xc(%ebp),%edx
    8d2b:	8b 5d 10             	mov    0x10(%ebp),%ebx
    8d2e:	85 c0                	test   %eax,%eax
    8d30:	75 36                	jne    8d68 <callback_in+0x48>
    8d32:	8b 43 04             	mov    0x4(%ebx),%eax
    8d35:	85 c0                	test   %eax,%eax
    8d37:	75 4f                	jne    8d88 <callback_in+0x68>
    8d39:	50                   	push   %eax
    8d3a:	50                   	push   %eax
    8d3b:	6a 00                	push   $0x0
    8d3d:	8b 13                	mov    (%ebx),%edx
    8d3f:	52                   	push   %edx
    8d40:	e8 1b 44 00 00       	call   d160 <async_answer_0@plt>
    8d45:	8b 43 08             	mov    0x8(%ebx),%eax
    8d48:	83 c4 10             	add    $0x10,%esp
    8d4b:	85 c0                	test   %eax,%eax
    8d4d:	74 0c                	je     8d5b <callback_in+0x3b>
    8d4f:	83 ec 0c             	sub    $0xc,%esp
    8d52:	50                   	push   %eax
    8d53:	e8 b8 47 00 00       	call   d510 <free@plt>
    8d58:	83 c4 10             	add    $0x10,%esp
    8d5b:	89 5d 08             	mov    %ebx,0x8(%ebp)
    8d5e:	8b 5d fc             	mov    -0x4(%ebp),%ebx
    8d61:	c9                   	leave  
    8d62:	e9 a9 47 00 00       	jmp    d510 <free@plt>
    8d67:	90                   	nop
    8d68:	52                   	push   %edx
    8d69:	52                   	push   %edx
    8d6a:	50                   	push   %eax
    8d6b:	8b 0b                	mov    (%ebx),%ecx
    8d6d:	51                   	push   %ecx
    8d6e:	e8 ed 43 00 00       	call   d160 <async_answer_0@plt>
    8d73:	8b 43 04             	mov    0x4(%ebx),%eax
    8d76:	83 c4 10             	add    $0x10,%esp
    8d79:	85 c0                	test   %eax,%eax
    8d7b:	75 23                	jne    8da0 <callback_in+0x80>
    8d7d:	8b 43 08             	mov    0x8(%ebx),%eax
    8d80:	85 c0                	test   %eax,%eax
    8d82:	75 cb                	jne    8d4f <callback_in+0x2f>
    8d84:	eb d5                	jmp    8d5b <callback_in+0x3b>
    8d86:	66 90                	xchg   %ax,%ax
    8d88:	51                   	push   %ecx
    8d89:	52                   	push   %edx
    8d8a:	8b 53 08             	mov    0x8(%ebx),%edx
    8d8d:	52                   	push   %edx
    8d8e:	50                   	push   %eax
    8d8f:	e8 4c 43 00 00       	call   d0e0 <async_data_read_finalize@plt>
    8d94:	83 c4 10             	add    $0x10,%esp
    8d97:	eb a0                	jmp    8d39 <callback_in+0x19>
    8d99:	8d b4 26 00 00 00 00 	lea    0x0(%esi,%eiz,1),%esi
    8da0:	51                   	push   %ecx
    8da1:	51                   	push   %ecx
    8da2:	6a ef                	push   $0xffffffef
    8da4:	50                   	push   %eax
    8da5:	e8 b6 43 00 00       	call   d160 <async_answer_0@plt>
    8daa:	8b 43 08             	mov    0x8(%ebx),%eax
    8dad:	83 c4 10             	add    $0x10,%esp
    8db0:	85 c0                	test   %eax,%eax
    8db2:	75 9b                	jne    8d4f <callback_in+0x2f>
    8db4:	eb a5                	jmp    8d5b <callback_in+0x3b>
    8db6:	8d 76 00             	lea    0x0(%esi),%esi
    8db9:	8d bc 27 00 00 00 00 	lea    0x0(%edi,%eiz,1),%edi

00008dc0 <remote_usb_write>:
    8dc0:	55                   	push   %ebp
    8dc1:	89 e5                	mov    %esp,%ebp
    8dc3:	57                   	push   %edi
    8dc4:	56                   	push   %esi
    8dc5:	53                   	push   %ebx
    8dc6:	83 ec 2c             	sub    $0x2c,%esp
    8dc9:	8b 55 08             	mov    0x8(%ebp),%edx
    8dcc:	8b 45 14             	mov    0x14(%ebp),%eax
    8dcf:	85 d2                	test   %edx,%edx
    8dd1:	0f 84 53 01 00 00    	je     8f2a <remote_usb_write+0x16a>
    8dd7:	8b 75 0c             	mov    0xc(%ebp),%esi
    8dda:	85 f6                	test   %esi,%esi
    8ddc:	0f 84 33 01 00 00    	je     8f15 <remote_usb_write+0x155>
    8de2:	85 c0                	test   %eax,%eax
    8de4:	0f 84 16 01 00 00    	je     8f00 <remote_usb_write+0x140>
    8dea:	8b 4d 0c             	mov    0xc(%ebp),%ecx
    8ded:	8b 51 24             	mov    0x24(%ecx),%edx
    8df0:	85 d2                	test   %edx,%edx
    8df2:	0f 84 d8 00 00 00    	je     8ed0 <remote_usb_write+0x110>
    8df8:	83 ec 0c             	sub    $0xc,%esp
    8dfb:	8b 50 14             	mov    0x14(%eax),%edx
    8dfe:	8b 70 08             	mov    0x8(%eax),%esi
    8e01:	8b 58 0c             	mov    0xc(%eax),%ebx
    8e04:	8b 40 10             	mov    0x10(%eax),%eax
    8e07:	89 55 d4             	mov    %edx,-0x2c(%ebp)
    8e0a:	6a 0c                	push   $0xc
    8e0c:	89 45 d0             	mov    %eax,-0x30(%ebp)
    8e0f:	e8 0c 43 00 00       	call   d120 <malloc@plt>
    8e14:	83 c4 10             	add    $0x10,%esp
    8e17:	89 c7                	mov    %eax,%edi
    8e19:	85 c0                	test   %eax,%eax
    8e1b:	0f 84 c7 00 00 00    	je     8ee8 <remote_usb_write+0x128>
    8e21:	8b 45 10             	mov    0x10(%ebp),%eax
    8e24:	c7 47 04 00 00 00 00 	movl   $0x0,0x4(%edi)
    8e2b:	89 07                	mov    %eax,(%edi)
    8e2d:	c7 47 08 00 00 00 00 	movl   $0x0,0x8(%edi)
    8e34:	c7 45 e4 00 00 00 00 	movl   $0x0,-0x1c(%ebp)
    8e3b:	85 db                	test   %ebx,%ebx
    8e3d:	75 31                	jne    8e70 <remote_usb_write+0xb0>
    8e3f:	31 c0                	xor    %eax,%eax
    8e41:	31 c9                	xor    %ecx,%ecx
    8e43:	57                   	push   %edi
    8e44:	68 e0 8c 00 00       	push   $0x8ce0
    8e49:	51                   	push   %ecx
    8e4a:	50                   	push   %eax
    8e4b:	8b 45 d4             	mov    -0x2c(%ebp),%eax
    8e4e:	50                   	push   %eax
    8e4f:	8b 45 d0             	mov    -0x30(%ebp),%eax
    8e52:	50                   	push   %eax
    8e53:	8b 45 08             	mov    0x8(%ebp),%eax
    8e56:	0f bf f6             	movswl %si,%esi
    8e59:	56                   	push   %esi
    8e5a:	50                   	push   %eax
    8e5b:	8b 45 0c             	mov    0xc(%ebp),%eax
    8e5e:	ff 50 24             	call   *0x24(%eax)
    8e61:	83 c4 20             	add    $0x20,%esp
    8e64:	85 c0                	test   %eax,%eax
    8e66:	75 30                	jne    8e98 <remote_usb_write+0xd8>
    8e68:	8d 65 f4             	lea    -0xc(%ebp),%esp
    8e6b:	5b                   	pop    %ebx
    8e6c:	5e                   	pop    %esi
    8e6d:	5f                   	pop    %edi
    8e6e:	5d                   	pop    %ebp
    8e6f:	c3                   	ret    
    8e70:	50                   	push   %eax
    8e71:	50                   	push   %eax
    8e72:	8d 45 e4             	lea    -0x1c(%ebp),%eax
    8e75:	50                   	push   %eax
    8e76:	8d 47 08             	lea    0x8(%edi),%eax
    8e79:	6a 00                	push   $0x0
    8e7b:	53                   	push   %ebx
    8e7c:	6a 01                	push   $0x1
    8e7e:	6a 00                	push   $0x0
    8e80:	50                   	push   %eax
    8e81:	e8 0a 46 00 00       	call   d490 <async_data_write_accept@plt>
    8e86:	83 c4 20             	add    $0x20,%esp
    8e89:	85 c0                	test   %eax,%eax
    8e8b:	75 0b                	jne    8e98 <remote_usb_write+0xd8>
    8e8d:	8b 4d e4             	mov    -0x1c(%ebp),%ecx
    8e90:	8b 47 08             	mov    0x8(%edi),%eax
    8e93:	eb ae                	jmp    8e43 <remote_usb_write+0x83>
    8e95:	8d 76 00             	lea    0x0(%esi),%esi
    8e98:	8b 5d 10             	mov    0x10(%ebp),%ebx
    8e9b:	51                   	push   %ecx
    8e9c:	51                   	push   %ecx
    8e9d:	50                   	push   %eax
    8e9e:	53                   	push   %ebx
    8e9f:	e8 bc 42 00 00       	call   d160 <async_answer_0@plt>
    8ea4:	8b 47 08             	mov    0x8(%edi),%eax
    8ea7:	83 c4 10             	add    $0x10,%esp
    8eaa:	85 c0                	test   %eax,%eax
    8eac:	74 0c                	je     8eba <remote_usb_write+0xfa>
    8eae:	83 ec 0c             	sub    $0xc,%esp
    8eb1:	50                   	push   %eax
    8eb2:	e8 59 46 00 00       	call   d510 <free@plt>
    8eb7:	83 c4 10             	add    $0x10,%esp
    8eba:	83 ec 0c             	sub    $0xc,%esp
    8ebd:	57                   	push   %edi
    8ebe:	e8 4d 46 00 00       	call   d510 <free@plt>
    8ec3:	83 c4 10             	add    $0x10,%esp
    8ec6:	8d 65 f4             	lea    -0xc(%ebp),%esp
    8ec9:	5b                   	pop    %ebx
    8eca:	5e                   	pop    %esi
    8ecb:	5f                   	pop    %edi
    8ecc:	5d                   	pop    %ebp
    8ecd:	c3                   	ret    
    8ece:	66 90                	xchg   %ax,%ax
    8ed0:	50                   	push   %eax
    8ed1:	50                   	push   %eax
    8ed2:	8b 45 10             	mov    0x10(%ebp),%eax
    8ed5:	6a f5                	push   $0xfffffff5
    8ed7:	50                   	push   %eax
    8ed8:	e8 83 42 00 00       	call   d160 <async_answer_0@plt>
    8edd:	83 c4 10             	add    $0x10,%esp
    8ee0:	8d 65 f4             	lea    -0xc(%ebp),%esp
    8ee3:	5b                   	pop    %ebx
    8ee4:	5e                   	pop    %esi
    8ee5:	5f                   	pop    %edi
    8ee6:	5d                   	pop    %ebp
    8ee7:	c3                   	ret    
    8ee8:	8b 55 10             	mov    0x10(%ebp),%edx
    8eeb:	50                   	push   %eax
    8eec:	50                   	push   %eax
    8eed:	6a fe                	push   $0xfffffffe
    8eef:	52                   	push   %edx
    8ef0:	e8 6b 42 00 00       	call   d160 <async_answer_0@plt>
    8ef5:	83 c4 10             	add    $0x10,%esp
    8ef8:	8d 65 f4             	lea    -0xc(%ebp),%esp
    8efb:	5b                   	pop    %ebx
    8efc:	5e                   	pop    %esi
    8efd:	5f                   	pop    %edi
    8efe:	5d                   	pop    %ebp
    8eff:	c3                   	ret    
    8f00:	51                   	push   %ecx
    8f01:	68 42 02 00 00       	push   $0x242
    8f06:	68 84 cb 00 00       	push   $0xcb84
    8f0b:	68 a3 cb 00 00       	push   $0xcba3
    8f10:	e8 cb 42 00 00       	call   d1e0 <assert_abort@plt>
    8f15:	53                   	push   %ebx
    8f16:	68 41 02 00 00       	push   $0x241
    8f1b:	68 84 cb 00 00       	push   $0xcb84
    8f20:	68 9d cb 00 00       	push   $0xcb9d
    8f25:	e8 b6 42 00 00       	call   d1e0 <assert_abort@plt>
    8f2a:	57                   	push   %edi
    8f2b:	68 40 02 00 00       	push   $0x240
    8f30:	68 84 cb 00 00       	push   $0xcb84
    8f35:	68 99 cb 00 00       	push   $0xcb99
    8f3a:	e8 a1 42 00 00       	call   d1e0 <assert_abort@plt>
    8f3f:	90                   	nop

00008f40 <remote_usb_read>:
    8f40:	55                   	push   %ebp
    8f41:	89 e5                	mov    %esp,%ebp
    8f43:	57                   	push   %edi
    8f44:	56                   	push   %esi
    8f45:	53                   	push   %ebx
    8f46:	83 ec 2c             	sub    $0x2c,%esp
    8f49:	8b 7d 08             	mov    0x8(%ebp),%edi
    8f4c:	8b 5d 0c             	mov    0xc(%ebp),%ebx
    8f4f:	8b 45 14             	mov    0x14(%ebp),%eax
    8f52:	85 ff                	test   %edi,%edi
    8f54:	0f 84 4c 01 00 00    	je     90a6 <remote_usb_read+0x166>
    8f5a:	85 db                	test   %ebx,%ebx
    8f5c:	0f 84 6e 01 00 00    	je     90d0 <remote_usb_read+0x190>
    8f62:	85 c0                	test   %eax,%eax
    8f64:	0f 84 51 01 00 00    	je     90bb <remote_usb_read+0x17b>
    8f6a:	8b 53 20             	mov    0x20(%ebx),%edx
    8f6d:	85 d2                	test   %edx,%edx
    8f6f:	0f 84 eb 00 00 00    	je     9060 <remote_usb_read+0x120>
    8f75:	83 ec 0c             	sub    $0xc,%esp
    8f78:	8b 50 10             	mov    0x10(%eax),%edx
    8f7b:	8b 70 08             	mov    0x8(%eax),%esi
    8f7e:	8b 40 0c             	mov    0xc(%eax),%eax
    8f81:	89 45 d0             	mov    %eax,-0x30(%ebp)
    8f84:	6a 0c                	push   $0xc
    8f86:	89 55 d4             	mov    %edx,-0x2c(%ebp)
    8f89:	e8 92 41 00 00       	call   d120 <malloc@plt>
    8f8e:	83 c4 10             	add    $0x10,%esp
    8f91:	89 c7                	mov    %eax,%edi
    8f93:	85 c0                	test   %eax,%eax
    8f95:	0f 84 dd 00 00 00    	je     9078 <remote_usb_read+0x138>
    8f9b:	8b 45 10             	mov    0x10(%ebp),%eax
    8f9e:	c7 47 04 00 00 00 00 	movl   $0x0,0x4(%edi)
    8fa5:	89 07                	mov    %eax,(%edi)
    8fa7:	c7 47 08 00 00 00 00 	movl   $0x0,0x8(%edi)
    8fae:	50                   	push   %eax
    8faf:	50                   	push   %eax
    8fb0:	8d 45 e4             	lea    -0x1c(%ebp),%eax
    8fb3:	c7 45 e4 00 00 00 00 	movl   $0x0,-0x1c(%ebp)
    8fba:	50                   	push   %eax
    8fbb:	8d 47 04             	lea    0x4(%edi),%eax
    8fbe:	50                   	push   %eax
    8fbf:	e8 ac 43 00 00       	call   d370 <async_data_read_receive@plt>
    8fc4:	83 c4 10             	add    $0x10,%esp
    8fc7:	84 c0                	test   %al,%al
    8fc9:	75 3d                	jne    9008 <remote_usb_read+0xc8>
    8fcb:	53                   	push   %ebx
    8fcc:	53                   	push   %ebx
    8fcd:	6a f8                	push   $0xfffffff8
    8fcf:	8b 4d 10             	mov    0x10(%ebp),%ecx
    8fd2:	51                   	push   %ecx
    8fd3:	e8 88 41 00 00       	call   d160 <async_answer_0@plt>
    8fd8:	8b 47 08             	mov    0x8(%edi),%eax
    8fdb:	83 c4 10             	add    $0x10,%esp
    8fde:	85 c0                	test   %eax,%eax
    8fe0:	74 0c                	je     8fee <remote_usb_read+0xae>
    8fe2:	83 ec 0c             	sub    $0xc,%esp
    8fe5:	50                   	push   %eax
    8fe6:	e8 25 45 00 00       	call   d510 <free@plt>
    8feb:	83 c4 10             	add    $0x10,%esp
    8fee:	83 ec 0c             	sub    $0xc,%esp
    8ff1:	57                   	push   %edi
    8ff2:	e8 19 45 00 00       	call   d510 <free@plt>
    8ff7:	83 c4 10             	add    $0x10,%esp
    8ffa:	8d 65 f4             	lea    -0xc(%ebp),%esp
    8ffd:	5b                   	pop    %ebx
    8ffe:	5e                   	pop    %esi
    8fff:	5f                   	pop    %edi
    9000:	5d                   	pop    %ebp
    9001:	c3                   	ret    
    9002:	8d b6 00 00 00 00    	lea    0x0(%esi),%esi
    9008:	83 ec 0c             	sub    $0xc,%esp
    900b:	8b 4d e4             	mov    -0x1c(%ebp),%ecx
    900e:	51                   	push   %ecx
    900f:	e8 0c 41 00 00       	call   d120 <malloc@plt>
    9014:	83 c4 10             	add    $0x10,%esp
    9017:	89 47 08             	mov    %eax,0x8(%edi)
    901a:	85 c0                	test   %eax,%eax
    901c:	74 72                	je     9090 <remote_usb_read+0x150>
    901e:	8b 4d e4             	mov    -0x1c(%ebp),%ecx
    9021:	57                   	push   %edi
    9022:	68 20 8d 00 00       	push   $0x8d20
    9027:	51                   	push   %ecx
    9028:	50                   	push   %eax
    9029:	8b 45 d4             	mov    -0x2c(%ebp),%eax
    902c:	50                   	push   %eax
    902d:	8b 45 d0             	mov    -0x30(%ebp),%eax
    9030:	50                   	push   %eax
    9031:	8b 45 08             	mov    0x8(%ebp),%eax
    9034:	0f bf f6             	movswl %si,%esi
    9037:	56                   	push   %esi
    9038:	50                   	push   %eax
    9039:	ff 53 20             	call   *0x20(%ebx)
    903c:	83 c4 20             	add    $0x20,%esp
    903f:	89 c3                	mov    %eax,%ebx
    9041:	85 c0                	test   %eax,%eax
    9043:	74 b5                	je     8ffa <remote_usb_read+0xba>
    9045:	56                   	push   %esi
    9046:	56                   	push   %esi
    9047:	50                   	push   %eax
    9048:	8b 47 04             	mov    0x4(%edi),%eax
    904b:	50                   	push   %eax
    904c:	e8 0f 41 00 00       	call   d160 <async_answer_0@plt>
    9051:	58                   	pop    %eax
    9052:	5a                   	pop    %edx
    9053:	53                   	push   %ebx
    9054:	e9 76 ff ff ff       	jmp    8fcf <remote_usb_read+0x8f>
    9059:	8d b4 26 00 00 00 00 	lea    0x0(%esi,%eiz,1),%esi
    9060:	50                   	push   %eax
    9061:	50                   	push   %eax
    9062:	8b 45 10             	mov    0x10(%ebp),%eax
    9065:	6a f5                	push   $0xfffffff5
    9067:	50                   	push   %eax
    9068:	e8 f3 40 00 00       	call   d160 <async_answer_0@plt>
    906d:	83 c4 10             	add    $0x10,%esp
    9070:	8d 65 f4             	lea    -0xc(%ebp),%esp
    9073:	5b                   	pop    %ebx
    9074:	5e                   	pop    %esi
    9075:	5f                   	pop    %edi
    9076:	5d                   	pop    %ebp
    9077:	c3                   	ret    
    9078:	8b 55 10             	mov    0x10(%ebp),%edx
    907b:	50                   	push   %eax
    907c:	50                   	push   %eax
    907d:	6a fe                	push   $0xfffffffe
    907f:	52                   	push   %edx
    9080:	e8 db 40 00 00       	call   d160 <async_answer_0@plt>
    9085:	83 c4 10             	add    $0x10,%esp
    9088:	8d 65 f4             	lea    -0xc(%ebp),%esp
    908b:	5b                   	pop    %ebx
    908c:	5e                   	pop    %esi
    908d:	5f                   	pop    %edi
    908e:	5d                   	pop    %ebp
    908f:	c3                   	ret    
    9090:	50                   	push   %eax
    9091:	50                   	push   %eax
    9092:	6a fe                	push   $0xfffffffe
    9094:	8b 47 04             	mov    0x4(%edi),%eax
    9097:	50                   	push   %eax
    9098:	e8 c3 40 00 00       	call   d160 <async_answer_0@plt>
    909d:	58                   	pop    %eax
    909e:	5a                   	pop    %edx
    909f:	6a fe                	push   $0xfffffffe
    90a1:	e9 29 ff ff ff       	jmp    8fcf <remote_usb_read+0x8f>
    90a6:	56                   	push   %esi
    90a7:	68 0e 02 00 00       	push   $0x20e
    90ac:	68 84 cb 00 00       	push   $0xcb84
    90b1:	68 99 cb 00 00       	push   $0xcb99
    90b6:	e8 25 41 00 00       	call   d1e0 <assert_abort@plt>
    90bb:	51                   	push   %ecx
    90bc:	68 10 02 00 00       	push   $0x210
    90c1:	68 84 cb 00 00       	push   $0xcb84
    90c6:	68 a3 cb 00 00       	push   $0xcba3
    90cb:	e8 10 41 00 00       	call   d1e0 <assert_abort@plt>
    90d0:	53                   	push   %ebx
    90d1:	68 0f 02 00 00       	push   $0x20f
    90d6:	68 84 cb 00 00       	push   $0xcb84
    90db:	68 9d cb 00 00       	push   $0xcb9d
    90e0:	e8 fb 40 00 00       	call   d1e0 <assert_abort@plt>
    90e5:	8d 74 26 00          	lea    0x0(%esi,%eiz,1),%esi
    90e9:	8d bc 27 00 00 00 00 	lea    0x0(%edi,%eiz,1),%edi

000090f0 <usb_dev_connect>:
    90f0:	55                   	push   %ebp
    90f1:	89 e5                	mov    %esp,%ebp
    90f3:	83 ec 10             	sub    $0x10,%esp
    90f6:	8b 45 08             	mov    0x8(%ebp),%eax
    90f9:	6a 01                	push   $0x1
    90fb:	50                   	push   %eax
    90fc:	e8 0f 3f 00 00       	call   d010 <devman_device_connect@plt>
    9101:	c9                   	leave  
    9102:	c3                   	ret    
    9103:	8d b6 00 00 00 00    	lea    0x0(%esi),%esi
    9109:	8d bc 27 00 00 00 00 	lea    0x0(%edi,%eiz,1),%edi

00009110 <usb_dev_connect_to_self>:
    9110:	55                   	push   %ebp
    9111:	89 e5                	mov    %esp,%ebp
    9113:	83 ec 14             	sub    $0x14,%esp
    9116:	8b 45 08             	mov    0x8(%ebp),%eax
    9119:	50                   	push   %eax
    911a:	e8 a1 97 ff ff       	call   28c0 <ddf_dev_get_handle>
    911f:	5a                   	pop    %edx
    9120:	59                   	pop    %ecx
    9121:	6a 01                	push   $0x1
    9123:	50                   	push   %eax
    9124:	e8 67 3f 00 00       	call   d090 <devman_parent_device_connect@plt>
    9129:	c9                   	leave  
    912a:	c3                   	ret    
    912b:	90                   	nop
    912c:	8d 74 26 00          	lea    0x0(%esi,%eiz,1),%esi

00009130 <usb_dev_disconnect>:
    9130:	55                   	push   %ebp
    9131:	89 e5                	mov    %esp,%ebp
    9133:	8b 45 08             	mov    0x8(%ebp),%eax
    9136:	85 c0                	test   %eax,%eax
    9138:	74 06                	je     9140 <usb_dev_disconnect+0x10>
    913a:	5d                   	pop    %ebp
    913b:	e9 20 3f 00 00       	jmp    d060 <async_hangup@plt>
    9140:	5d                   	pop    %ebp
    9141:	c3                   	ret    
    9142:	8d b4 26 00 00 00 00 	lea    0x0(%esi,%eiz,1),%esi
    9149:	8d bc 27 00 00 00 00 	lea    0x0(%edi,%eiz,1),%edi

00009150 <usb_get_my_interface>:
    9150:	55                   	push   %ebp
    9151:	89 e5                	mov    %esp,%ebp
    9153:	53                   	push   %ebx
    9154:	83 ec 14             	sub    $0x14,%esp
    9157:	8b 45 08             	mov    0x8(%ebp),%eax
    915a:	8b 5d 0c             	mov    0xc(%ebp),%ebx
    915d:	85 c0                	test   %eax,%eax
    915f:	74 37                	je     9198 <usb_get_my_interface+0x48>
    9161:	52                   	push   %edx
    9162:	8d 55 f4             	lea    -0xc(%ebp),%edx
    9165:	6a 00                	push   $0x0
    9167:	6a 00                	push   $0x0
    9169:	6a 00                	push   $0x0
    916b:	6a 00                	push   $0x0
    916d:	52                   	push   %edx
    916e:	6a 00                	push   $0x0
    9170:	6a 00                	push   $0x0
    9172:	6a 00                	push   $0x0
    9174:	6a 00                	push   $0x0
    9176:	68 08 04 00 00       	push   $0x408
    917b:	50                   	push   %eax
    917c:	e8 cf 3f 00 00       	call   d150 <async_req_fast@plt>
    9181:	83 c4 30             	add    $0x30,%esp
    9184:	85 c0                	test   %eax,%eax
    9186:	75 09                	jne    9191 <usb_get_my_interface+0x41>
    9188:	85 db                	test   %ebx,%ebx
    918a:	74 05                	je     9191 <usb_get_my_interface+0x41>
    918c:	8b 55 f4             	mov    -0xc(%ebp),%edx
    918f:	89 13                	mov    %edx,(%ebx)
    9191:	8b 5d fc             	mov    -0x4(%ebp),%ebx
    9194:	c9                   	leave  
    9195:	c3                   	ret    
    9196:	66 90                	xchg   %ax,%ax
    9198:	b8 f6 ff ff ff       	mov    $0xfffffff6,%eax
    919d:	eb f2                	jmp    9191 <usb_get_my_interface+0x41>
    919f:	90                   	nop

000091a0 <usb_get_my_device_handle>:
    91a0:	55                   	push   %ebp
    91a1:	89 e5                	mov    %esp,%ebp
    91a3:	53                   	push   %ebx
    91a4:	83 ec 18             	sub    $0x18,%esp
    91a7:	8d 45 f4             	lea    -0xc(%ebp),%eax
    91aa:	8b 5d 0c             	mov    0xc(%ebp),%ebx
    91ad:	6a 00                	push   $0x0
    91af:	6a 00                	push   $0x0
    91b1:	6a 00                	push   $0x0
    91b3:	6a 00                	push   $0x0
    91b5:	50                   	push   %eax
    91b6:	8b 45 08             	mov    0x8(%ebp),%eax
    91b9:	6a 00                	push   $0x0
    91bb:	c7 45 f4 00 00 00 00 	movl   $0x0,-0xc(%ebp)
    91c2:	6a 00                	push   $0x0
    91c4:	6a 00                	push   $0x0
    91c6:	6a 01                	push   $0x1
    91c8:	68 08 04 00 00       	push   $0x408
    91cd:	50                   	push   %eax
    91ce:	e8 7d 3f 00 00       	call   d150 <async_req_fast@plt>
    91d3:	83 c4 30             	add    $0x30,%esp
    91d6:	85 c0                	test   %eax,%eax
    91d8:	75 09                	jne    91e3 <usb_get_my_device_handle+0x43>
    91da:	85 db                	test   %ebx,%ebx
    91dc:	74 05                	je     91e3 <usb_get_my_device_handle+0x43>
    91de:	8b 55 f4             	mov    -0xc(%ebp),%edx
    91e1:	89 13                	mov    %edx,(%ebx)
    91e3:	8b 5d fc             	mov    -0x4(%ebp),%ebx
    91e6:	c9                   	leave  
    91e7:	c3                   	ret    
    91e8:	90                   	nop
    91e9:	8d b4 26 00 00 00 00 	lea    0x0(%esi,%eiz,1),%esi

000091f0 <usb_reserve_default_address>:
    91f0:	55                   	push   %ebp
    91f1:	89 e5                	mov    %esp,%ebp
    91f3:	83 ec 08             	sub    $0x8,%esp
    91f6:	8b 45 08             	mov    0x8(%ebp),%eax
    91f9:	85 c0                	test   %eax,%eax
    91fb:	74 2b                	je     9228 <usb_reserve_default_address+0x38>
    91fd:	8b 4d 0c             	mov    0xc(%ebp),%ecx
    9200:	52                   	push   %edx
    9201:	6a 00                	push   $0x0
    9203:	6a 00                	push   $0x0
    9205:	6a 00                	push   $0x0
    9207:	6a 00                	push   $0x0
    9209:	6a 00                	push   $0x0
    920b:	6a 00                	push   $0x0
    920d:	6a 00                	push   $0x0
    920f:	51                   	push   %ecx
    9210:	6a 02                	push   $0x2
    9212:	68 08 04 00 00       	push   $0x408
    9217:	50                   	push   %eax
    9218:	e8 33 3f 00 00       	call   d150 <async_req_fast@plt>
    921d:	83 c4 30             	add    $0x30,%esp
    9220:	c9                   	leave  
    9221:	c3                   	ret    
    9222:	8d b6 00 00 00 00    	lea    0x0(%esi),%esi
    9228:	b8 f6 ff ff ff       	mov    $0xfffffff6,%eax
    922d:	c9                   	leave  
    922e:	c3                   	ret    
    922f:	90                   	nop

00009230 <usb_release_default_address>:
    9230:	55                   	push   %ebp
    9231:	89 e5                	mov    %esp,%ebp
    9233:	83 ec 08             	sub    $0x8,%esp
    9236:	8b 45 08             	mov    0x8(%ebp),%eax
    9239:	85 c0                	test   %eax,%eax
    923b:	74 23                	je     9260 <usb_release_default_address+0x30>
    923d:	52                   	push   %edx
    923e:	6a 00                	push   $0x0
    9240:	6a 00                	push   $0x0
    9242:	6a 00                	push   $0x0
    9244:	6a 00                	push   $0x0
    9246:	6a 00                	push   $0x0
    9248:	6a 00                	push   $0x0
    924a:	6a 00                	push   $0x0
    924c:	6a 00                	push   $0x0
    924e:	6a 03                	push   $0x3
    9250:	68 08 04 00 00       	push   $0x408
    9255:	50                   	push   %eax
    9256:	e8 f5 3e 00 00       	call   d150 <async_req_fast@plt>
    925b:	83 c4 30             	add    $0x30,%esp
    925e:	c9                   	leave  
    925f:	c3                   	ret    
    9260:	b8 f6 ff ff ff       	mov    $0xfffffff6,%eax
    9265:	c9                   	leave  
    9266:	c3                   	ret    
    9267:	89 f6                	mov    %esi,%esi
    9269:	8d bc 27 00 00 00 00 	lea    0x0(%edi,%eiz,1),%edi

00009270 <usb_device_enumerate>:
    9270:	55                   	push   %ebp
    9271:	89 e5                	mov    %esp,%ebp
    9273:	83 ec 08             	sub    $0x8,%esp
    9276:	8b 45 08             	mov    0x8(%ebp),%eax
    9279:	85 c0                	test   %eax,%eax
    927b:	74 2b                	je     92a8 <usb_device_enumerate+0x38>
    927d:	8b 4d 0c             	mov    0xc(%ebp),%ecx
    9280:	52                   	push   %edx
    9281:	6a 00                	push   $0x0
    9283:	6a 00                	push   $0x0
    9285:	6a 00                	push   $0x0
    9287:	6a 00                	push   $0x0
    9289:	6a 00                	push   $0x0
    928b:	6a 00                	push   $0x0
    928d:	6a 00                	push   $0x0
    928f:	51                   	push   %ecx
    9290:	6a 04                	push   $0x4
    9292:	68 08 04 00 00       	push   $0x408
    9297:	50                   	push   %eax
    9298:	e8 b3 3e 00 00       	call   d150 <async_req_fast@plt>
    929d:	83 c4 30             	add    $0x30,%esp
    92a0:	c9                   	leave  
    92a1:	c3                   	ret    
    92a2:	8d b6 00 00 00 00    	lea    0x0(%esi),%esi
    92a8:	b8 f6 ff ff ff       	mov    $0xfffffff6,%eax
    92ad:	c9                   	leave  
    92ae:	c3                   	ret    
    92af:	90                   	nop

000092b0 <usb_device_remove>:
    92b0:	55                   	push   %ebp
    92b1:	89 e5                	mov    %esp,%ebp
    92b3:	83 ec 08             	sub    $0x8,%esp
    92b6:	8b 45 08             	mov    0x8(%ebp),%eax
    92b9:	85 c0                	test   %eax,%eax
    92bb:	74 2b                	je     92e8 <usb_device_remove+0x38>
    92bd:	8b 4d 0c             	mov    0xc(%ebp),%ecx
    92c0:	52                   	push   %edx
    92c1:	6a 00                	push   $0x0
    92c3:	6a 00                	push   $0x0
    92c5:	6a 00                	push   $0x0
    92c7:	6a 00                	push   $0x0
    92c9:	6a 00                	push   $0x0
    92cb:	6a 00                	push   $0x0
    92cd:	6a 00                	push   $0x0
    92cf:	51                   	push   %ecx
    92d0:	6a 05                	push   $0x5
    92d2:	68 08 04 00 00       	push   $0x408
    92d7:	50                   	push   %eax
    92d8:	e8 73 3e 00 00       	call   d150 <async_req_fast@plt>
    92dd:	83 c4 30             	add    $0x30,%esp
    92e0:	c9                   	leave  
    92e1:	c3                   	ret    
    92e2:	8d b6 00 00 00 00    	lea    0x0(%esi),%esi
    92e8:	b8 f6 ff ff ff       	mov    $0xfffffff6,%eax
    92ed:	c9                   	leave  
    92ee:	c3                   	ret    
    92ef:	90                   	nop

000092f0 <usb_register_endpoint>:
    92f0:	55                   	push   %ebp
    92f1:	89 e5                	mov    %esp,%ebp
    92f3:	56                   	push   %esi
    92f4:	53                   	push   %ebx
    92f5:	8b 4d 08             	mov    0x8(%ebp),%ecx
    92f8:	8b 55 0c             	mov    0xc(%ebp),%edx
    92fb:	85 c9                	test   %ecx,%ecx
    92fd:	74 51                	je     9350 <usb_register_endpoint+0x60>
    92ff:	0f b6 75 20          	movzbl 0x20(%ebp),%esi
    9303:	31 c0                	xor    %eax,%eax
    9305:	81 e6 ff 00 00 00    	and    $0xff,%esi
    930b:	8a 45 10             	mov    0x10(%ebp),%al
    930e:	8b 5d 1c             	mov    0x1c(%ebp),%ebx
    9311:	c1 e6 10             	shl    $0x10,%esi
    9314:	8a 65 14             	mov    0x14(%ebp),%ah
    9317:	c1 e3 18             	shl    $0x18,%ebx
    931a:	25 ff ff 00 00       	and    $0xffff,%eax
    931f:	09 f0                	or     %esi,%eax
    9321:	8b 75 18             	mov    0x18(%ebp),%esi
    9324:	09 d8                	or     %ebx,%eax
    9326:	53                   	push   %ebx
    9327:	0f bf d2             	movswl %dx,%edx
    932a:	6a 00                	push   $0x0
    932c:	6a 00                	push   $0x0
    932e:	6a 00                	push   $0x0
    9330:	6a 00                	push   $0x0
    9332:	6a 00                	push   $0x0
    9334:	56                   	push   %esi
    9335:	50                   	push   %eax
    9336:	52                   	push   %edx
    9337:	6a 06                	push   $0x6
    9339:	68 08 04 00 00       	push   $0x408
    933e:	51                   	push   %ecx
    933f:	e8 0c 3e 00 00       	call   d150 <async_req_fast@plt>
    9344:	83 c4 30             	add    $0x30,%esp
    9347:	8d 65 f8             	lea    -0x8(%ebp),%esp
    934a:	5b                   	pop    %ebx
    934b:	5e                   	pop    %esi
    934c:	5d                   	pop    %ebp
    934d:	c3                   	ret    
    934e:	66 90                	xchg   %ax,%ax
    9350:	b8 f6 ff ff ff       	mov    $0xfffffff6,%eax
    9355:	eb f0                	jmp    9347 <usb_register_endpoint+0x57>
    9357:	89 f6                	mov    %esi,%esi
    9359:	8d bc 27 00 00 00 00 	lea    0x0(%edi,%eiz,1),%edi

00009360 <usb_unregister_endpoint>:
    9360:	55                   	push   %ebp
    9361:	89 e5                	mov    %esp,%ebp
    9363:	83 ec 08             	sub    $0x8,%esp
    9366:	8b 55 08             	mov    0x8(%ebp),%edx
    9369:	8b 45 0c             	mov    0xc(%ebp),%eax
    936c:	85 d2                	test   %edx,%edx
    936e:	74 28                	je     9398 <usb_unregister_endpoint+0x38>
    9370:	98                   	cwtl   
    9371:	51                   	push   %ecx
    9372:	8b 4d 10             	mov    0x10(%ebp),%ecx
    9375:	6a 00                	push   $0x0
    9377:	6a 00                	push   $0x0
    9379:	6a 00                	push   $0x0
    937b:	6a 00                	push   $0x0
    937d:	6a 00                	push   $0x0
    937f:	6a 00                	push   $0x0
    9381:	51                   	push   %ecx
    9382:	50                   	push   %eax
    9383:	6a 07                	push   $0x7
    9385:	68 08 04 00 00       	push   $0x408
    938a:	52                   	push   %edx
    938b:	e8 c0 3d 00 00       	call   d150 <async_req_fast@plt>
    9390:	83 c4 30             	add    $0x30,%esp
    9393:	c9                   	leave  
    9394:	c3                   	ret    
    9395:	8d 76 00             	lea    0x0(%esi),%esi
    9398:	b8 f6 ff ff ff       	mov    $0xfffffff6,%eax
    939d:	c9                   	leave  
    939e:	c3                   	ret    
    939f:	90                   	nop

000093a0 <usb_read>:
    93a0:	55                   	push   %ebp
    93a1:	89 e5                	mov    %esp,%ebp
    93a3:	57                   	push   %edi
    93a4:	56                   	push   %esi
    93a5:	53                   	push   %ebx
    93a6:	83 ec 4c             	sub    $0x4c,%esp
    93a9:	8b 5d 08             	mov    0x8(%ebp),%ebx
    93ac:	8b 45 1c             	mov    0x1c(%ebp),%eax
    93af:	8b 7d 0c             	mov    0xc(%ebp),%edi
    93b2:	8b 55 10             	mov    0x10(%ebp),%edx
    93b5:	8b 4d 14             	mov    0x14(%ebp),%ecx
    93b8:	89 45 b4             	mov    %eax,-0x4c(%ebp)
    93bb:	85 db                	test   %ebx,%ebx
    93bd:	0f 84 c3 00 00 00    	je     9486 <usb_read+0xe6>
    93c3:	85 c0                	test   %eax,%eax
    93c5:	75 11                	jne    93d8 <usb_read+0x38>
    93c7:	89 d6                	mov    %edx,%esi
    93c9:	09 ce                	or     %ecx,%esi
    93cb:	75 0b                	jne    93d8 <usb_read+0x38>
    93cd:	8d 65 f4             	lea    -0xc(%ebp),%esp
    93d0:	5b                   	pop    %ebx
    93d1:	5e                   	pop    %esi
    93d2:	5f                   	pop    %edi
    93d3:	5d                   	pop    %ebp
    93d4:	c3                   	ret    
    93d5:	8d 76 00             	lea    0x0(%esi),%esi
    93d8:	0f bf ff             	movswl %di,%edi
    93db:	50                   	push   %eax
    93dc:	6a 00                	push   $0x0
    93de:	51                   	push   %ecx
    93df:	52                   	push   %edx
    93e0:	57                   	push   %edi
    93e1:	6a 08                	push   $0x8
    93e3:	68 08 04 00 00       	push   $0x408
    93e8:	53                   	push   %ebx
    93e9:	e8 82 3d 00 00       	call   d170 <async_send_fast@plt>
    93ee:	83 c4 20             	add    $0x20,%esp
    93f1:	89 c7                	mov    %eax,%edi
    93f3:	85 c0                	test   %eax,%eax
    93f5:	74 69                	je     9460 <usb_read+0xc0>
    93f7:	8d 45 c4             	lea    -0x3c(%ebp),%eax
    93fa:	8b 75 b4             	mov    -0x4c(%ebp),%esi
    93fd:	50                   	push   %eax
    93fe:	8b 45 18             	mov    0x18(%ebp),%eax
    9401:	56                   	push   %esi
    9402:	50                   	push   %eax
    9403:	53                   	push   %ebx
    9404:	e8 77 3d 00 00       	call   d180 <async_data_read@plt>
    9409:	83 c4 10             	add    $0x10,%esp
    940c:	85 c0                	test   %eax,%eax
    940e:	74 60                	je     9470 <usb_read+0xd0>
    9410:	52                   	push   %edx
    9411:	52                   	push   %edx
    9412:	8d 55 bc             	lea    -0x44(%ebp),%edx
    9415:	52                   	push   %edx
    9416:	50                   	push   %eax
    9417:	e8 54 3c 00 00       	call   d070 <async_wait_for@plt>
    941c:	8d 45 c0             	lea    -0x40(%ebp),%eax
    941f:	59                   	pop    %ecx
    9420:	5b                   	pop    %ebx
    9421:	50                   	push   %eax
    9422:	57                   	push   %edi
    9423:	e8 48 3c 00 00       	call   d070 <async_wait_for@plt>
    9428:	8b 45 bc             	mov    -0x44(%ebp),%eax
    942b:	83 c4 10             	add    $0x10,%esp
    942e:	85 c0                	test   %eax,%eax
    9430:	74 0e                	je     9440 <usb_read+0xa0>
    9432:	8b 55 c0             	mov    -0x40(%ebp),%edx
    9435:	85 d2                	test   %edx,%edx
    9437:	74 94                	je     93cd <usb_read+0x2d>
    9439:	89 d0                	mov    %edx,%eax
    943b:	eb 90                	jmp    93cd <usb_read+0x2d>
    943d:	8d 76 00             	lea    0x0(%esi),%esi
    9440:	8b 45 c0             	mov    -0x40(%ebp),%eax
    9443:	85 c0                	test   %eax,%eax
    9445:	75 86                	jne    93cd <usb_read+0x2d>
    9447:	8b 45 20             	mov    0x20(%ebp),%eax
    944a:	8b 55 cc             	mov    -0x34(%ebp),%edx
    944d:	89 10                	mov    %edx,(%eax)
    944f:	8d 65 f4             	lea    -0xc(%ebp),%esp
    9452:	31 c0                	xor    %eax,%eax
    9454:	5b                   	pop    %ebx
    9455:	5e                   	pop    %esi
    9456:	5f                   	pop    %edi
    9457:	5d                   	pop    %ebp
    9458:	c3                   	ret    
    9459:	8d b4 26 00 00 00 00 	lea    0x0(%esi,%eiz,1),%esi
    9460:	b8 fe ff ff ff       	mov    $0xfffffffe,%eax
    9465:	e9 63 ff ff ff       	jmp    93cd <usb_read+0x2d>
    946a:	8d b6 00 00 00 00    	lea    0x0(%esi),%esi
    9470:	83 ec 0c             	sub    $0xc,%esp
    9473:	57                   	push   %edi
    9474:	e8 27 40 00 00       	call   d4a0 <async_forget@plt>
    9479:	83 c4 10             	add    $0x10,%esp
    947c:	b8 fe ff ff ff       	mov    $0xfffffffe,%eax
    9481:	e9 47 ff ff ff       	jmp    93cd <usb_read+0x2d>
    9486:	b8 f6 ff ff ff       	mov    $0xfffffff6,%eax
    948b:	e9 3d ff ff ff       	jmp    93cd <usb_read+0x2d>

00009490 <usb_write>:
    9490:	55                   	push   %ebp
    9491:	89 e5                	mov    %esp,%ebp
    9493:	57                   	push   %edi
    9494:	56                   	push   %esi
    9495:	53                   	push   %ebx
    9496:	83 ec 2c             	sub    $0x2c,%esp
    9499:	8b 75 08             	mov    0x8(%ebp),%esi
    949c:	8b 45 0c             	mov    0xc(%ebp),%eax
    949f:	89 45 d4             	mov    %eax,-0x2c(%ebp)
    94a2:	8b 55 10             	mov    0x10(%ebp),%edx
    94a5:	8b 4d 14             	mov    0x14(%ebp),%ecx
    94a8:	8b 5d 1c             	mov    0x1c(%ebp),%ebx
    94ab:	85 f6                	test   %esi,%esi
    94ad:	0f 84 8f 00 00 00    	je     9542 <usb_write+0xb2>
    94b3:	85 db                	test   %ebx,%ebx
    94b5:	75 11                	jne    94c8 <usb_write+0x38>
    94b7:	89 d7                	mov    %edx,%edi
    94b9:	31 c0                	xor    %eax,%eax
    94bb:	09 cf                	or     %ecx,%edi
    94bd:	75 09                	jne    94c8 <usb_write+0x38>
    94bf:	8d 65 f4             	lea    -0xc(%ebp),%esp
    94c2:	5b                   	pop    %ebx
    94c3:	5e                   	pop    %esi
    94c4:	5f                   	pop    %edi
    94c5:	5d                   	pop    %ebp
    94c6:	c3                   	ret    
    94c7:	90                   	nop
    94c8:	0f bf 7d d4          	movswl -0x2c(%ebp),%edi
    94cc:	6a 00                	push   $0x0
    94ce:	51                   	push   %ecx
    94cf:	52                   	push   %edx
    94d0:	53                   	push   %ebx
    94d1:	57                   	push   %edi
    94d2:	6a 09                	push   $0x9
    94d4:	68 08 04 00 00       	push   $0x408
    94d9:	56                   	push   %esi
    94da:	e8 11 3e 00 00       	call   d2f0 <async_send_slow@plt>
    94df:	83 c4 20             	add    $0x20,%esp
    94e2:	89 c7                	mov    %eax,%edi
    94e4:	85 c0                	test   %eax,%eax
    94e6:	74 50                	je     9538 <usb_write+0xa8>
    94e8:	85 db                	test   %ebx,%ebx
    94ea:	74 13                	je     94ff <usb_write+0x6f>
    94ec:	8b 4d 18             	mov    0x18(%ebp),%ecx
    94ef:	52                   	push   %edx
    94f0:	53                   	push   %ebx
    94f1:	51                   	push   %ecx
    94f2:	56                   	push   %esi
    94f3:	e8 b8 3b 00 00       	call   d0b0 <async_data_write_start@plt>
    94f8:	83 c4 10             	add    $0x10,%esp
    94fb:	85 c0                	test   %eax,%eax
    94fd:	75 21                	jne    9520 <usb_write+0x90>
    94ff:	50                   	push   %eax
    9500:	50                   	push   %eax
    9501:	8d 45 e4             	lea    -0x1c(%ebp),%eax
    9504:	50                   	push   %eax
    9505:	57                   	push   %edi
    9506:	e8 65 3b 00 00       	call   d070 <async_wait_for@plt>
    950b:	8b 45 e4             	mov    -0x1c(%ebp),%eax
    950e:	83 c4 10             	add    $0x10,%esp
    9511:	8d 65 f4             	lea    -0xc(%ebp),%esp
    9514:	5b                   	pop    %ebx
    9515:	5e                   	pop    %esi
    9516:	5f                   	pop    %edi
    9517:	5d                   	pop    %ebp
    9518:	c3                   	ret    
    9519:	8d b4 26 00 00 00 00 	lea    0x0(%esi,%eiz,1),%esi
    9520:	83 ec 0c             	sub    $0xc,%esp
    9523:	89 45 d4             	mov    %eax,-0x2c(%ebp)
    9526:	57                   	push   %edi
    9527:	e8 74 3f 00 00       	call   d4a0 <async_forget@plt>
    952c:	83 c4 10             	add    $0x10,%esp
    952f:	8b 45 d4             	mov    -0x2c(%ebp),%eax
    9532:	eb 8b                	jmp    94bf <usb_write+0x2f>
    9534:	8d 74 26 00          	lea    0x0(%esi,%eiz,1),%esi
    9538:	b8 fe ff ff ff       	mov    $0xfffffffe,%eax
    953d:	e9 7d ff ff ff       	jmp    94bf <usb_write+0x2f>
    9542:	b8 f6 ff ff ff       	mov    $0xfffffff6,%eax
    9547:	e9 73 ff ff ff       	jmp    94bf <usb_write+0x2f>
    954c:	66 90                	xchg   %ax,%ax
    954e:	66 90                	xchg   %ax,%ax

00009550 <remote_config_space_write_32>:
    9550:	55                   	push   %ebp
    9551:	89 e5                	mov    %esp,%ebp
    9553:	53                   	push   %ebx
    9554:	53                   	push   %ebx
    9555:	8b 45 0c             	mov    0xc(%ebp),%eax
    9558:	8b 4d 08             	mov    0x8(%ebp),%ecx
    955b:	8b 5d 10             	mov    0x10(%ebp),%ebx
    955e:	8b 55 14             	mov    0x14(%ebp),%edx
    9561:	85 c0                	test   %eax,%eax
    9563:	74 56                	je     95bb <remote_config_space_write_32+0x6b>
    9565:	8b 40 14             	mov    0x14(%eax),%eax
    9568:	85 c0                	test   %eax,%eax
    956a:	74 3c                	je     95a8 <remote_config_space_write_32+0x58>
    956c:	83 ec 04             	sub    $0x4,%esp
    956f:	ff 72 0c             	pushl  0xc(%edx)
    9572:	8b 52 08             	mov    0x8(%edx),%edx
    9575:	52                   	push   %edx
    9576:	51                   	push   %ecx
    9577:	ff d0                	call   *%eax
    9579:	83 c4 10             	add    $0x10,%esp
    957c:	85 c0                	test   %eax,%eax
    957e:	75 18                	jne    9598 <remote_config_space_write_32+0x48>
    9580:	89 5d 08             	mov    %ebx,0x8(%ebp)
    9583:	8b 5d fc             	mov    -0x4(%ebp),%ebx
    9586:	c7 45 0c 00 00 00 00 	movl   $0x0,0xc(%ebp)
    958d:	c9                   	leave  
    958e:	e9 cd 3b 00 00       	jmp    d160 <async_answer_0@plt>
    9593:	90                   	nop
    9594:	8d 74 26 00          	lea    0x0(%esi,%eiz,1),%esi
    9598:	89 5d 08             	mov    %ebx,0x8(%ebp)
    959b:	8b 5d fc             	mov    -0x4(%ebp),%ebx
    959e:	89 45 0c             	mov    %eax,0xc(%ebp)
    95a1:	c9                   	leave  
    95a2:	e9 b9 3b 00 00       	jmp    d160 <async_answer_0@plt>
    95a7:	90                   	nop
    95a8:	89 5d 08             	mov    %ebx,0x8(%ebp)
    95ab:	8b 5d fc             	mov    -0x4(%ebp),%ebx
    95ae:	c7 45 0c f5 ff ff ff 	movl   $0xfffffff5,0xc(%ebp)
    95b5:	c9                   	leave  
    95b6:	e9 a5 3b 00 00       	jmp    d160 <async_answer_0@plt>
    95bb:	51                   	push   %ecx
    95bc:	68 f3 00 00 00       	push   $0xf3
    95c1:	68 08 cc 00 00       	push   $0xcc08
    95c6:	68 9d cb 00 00       	push   $0xcb9d
    95cb:	e8 10 3c 00 00       	call   d1e0 <assert_abort@plt>

000095d0 <remote_config_space_write_16>:
    95d0:	55                   	push   %ebp
    95d1:	89 e5                	mov    %esp,%ebp
    95d3:	56                   	push   %esi
    95d4:	53                   	push   %ebx
    95d5:	8b 45 0c             	mov    0xc(%ebp),%eax
    95d8:	8b 4d 08             	mov    0x8(%ebp),%ecx
    95db:	8b 5d 10             	mov    0x10(%ebp),%ebx
    95de:	8b 55 14             	mov    0x14(%ebp),%edx
    95e1:	85 c0                	test   %eax,%eax
    95e3:	74 60                	je     9645 <remote_config_space_write_16+0x75>
    95e5:	8b 40 10             	mov    0x10(%eax),%eax
    95e8:	85 c0                	test   %eax,%eax
    95ea:	74 44                	je     9630 <remote_config_space_write_16+0x60>
    95ec:	56                   	push   %esi
    95ed:	31 f6                	xor    %esi,%esi
    95ef:	66 8b 72 0c          	mov    0xc(%edx),%si
    95f3:	56                   	push   %esi
    95f4:	8b 52 08             	mov    0x8(%edx),%edx
    95f7:	52                   	push   %edx
    95f8:	51                   	push   %ecx
    95f9:	ff d0                	call   *%eax
    95fb:	83 c4 10             	add    $0x10,%esp
    95fe:	85 c0                	test   %eax,%eax
    9600:	75 16                	jne    9618 <remote_config_space_write_16+0x48>
    9602:	89 5d 08             	mov    %ebx,0x8(%ebp)
    9605:	c7 45 0c 00 00 00 00 	movl   $0x0,0xc(%ebp)
    960c:	8d 65 f8             	lea    -0x8(%ebp),%esp
    960f:	5b                   	pop    %ebx
    9610:	5e                   	pop    %esi
    9611:	5d                   	pop    %ebp
    9612:	e9 49 3b 00 00       	jmp    d160 <async_answer_0@plt>
    9617:	90                   	nop
    9618:	89 5d 08             	mov    %ebx,0x8(%ebp)
    961b:	89 45 0c             	mov    %eax,0xc(%ebp)
    961e:	8d 65 f8             	lea    -0x8(%ebp),%esp
    9621:	5b                   	pop    %ebx
    9622:	5e                   	pop    %esi
    9623:	5d                   	pop    %ebp
    9624:	e9 37 3b 00 00       	jmp    d160 <async_answer_0@plt>
    9629:	8d b4 26 00 00 00 00 	lea    0x0(%esi,%eiz,1),%esi
    9630:	89 5d 08             	mov    %ebx,0x8(%ebp)
    9633:	c7 45 0c f5 ff ff ff 	movl   $0xfffffff5,0xc(%ebp)
    963a:	8d 65 f8             	lea    -0x8(%ebp),%esp
    963d:	5b                   	pop    %ebx
    963e:	5e                   	pop    %esi
    963f:	5d                   	pop    %ebp
    9640:	e9 1b 3b 00 00       	jmp    d160 <async_answer_0@plt>
    9645:	51                   	push   %ecx
    9646:	68 e1 00 00 00       	push   $0xe1
    964b:	68 08 cc 00 00       	push   $0xcc08
    9650:	68 9d cb 00 00       	push   $0xcb9d
    9655:	e8 86 3b 00 00       	call   d1e0 <assert_abort@plt>
    965a:	8d b6 00 00 00 00    	lea    0x0(%esi),%esi

00009660 <remote_config_space_write_8>:
    9660:	55                   	push   %ebp
    9661:	89 e5                	mov    %esp,%ebp
    9663:	56                   	push   %esi
    9664:	53                   	push   %ebx
    9665:	8b 45 0c             	mov    0xc(%ebp),%eax
    9668:	8b 4d 08             	mov    0x8(%ebp),%ecx
    966b:	8b 5d 10             	mov    0x10(%ebp),%ebx
    966e:	8b 55 14             	mov    0x14(%ebp),%edx
    9671:	85 c0                	test   %eax,%eax
    9673:	74 68                	je     96dd <remote_config_space_write_8+0x7d>
    9675:	8b 40 0c             	mov    0xc(%eax),%eax
    9678:	85 c0                	test   %eax,%eax
    967a:	74 4c                	je     96c8 <remote_config_space_write_8+0x68>
    967c:	56                   	push   %esi
    967d:	0f b6 72 0c          	movzbl 0xc(%edx),%esi
    9681:	81 e6 ff 00 00 00    	and    $0xff,%esi
    9687:	56                   	push   %esi
    9688:	8b 52 08             	mov    0x8(%edx),%edx
    968b:	52                   	push   %edx
    968c:	51                   	push   %ecx
    968d:	ff d0                	call   *%eax
    968f:	83 c4 10             	add    $0x10,%esp
    9692:	85 c0                	test   %eax,%eax
    9694:	75 1a                	jne    96b0 <remote_config_space_write_8+0x50>
    9696:	89 5d 08             	mov    %ebx,0x8(%ebp)
    9699:	c7 45 0c 00 00 00 00 	movl   $0x0,0xc(%ebp)
    96a0:	8d 65 f8             	lea    -0x8(%ebp),%esp
    96a3:	5b                   	pop    %ebx
    96a4:	5e                   	pop    %esi
    96a5:	5d                   	pop    %ebp
    96a6:	e9 b5 3a 00 00       	jmp    d160 <async_answer_0@plt>
    96ab:	90                   	nop
    96ac:	8d 74 26 00          	lea    0x0(%esi,%eiz,1),%esi
    96b0:	89 5d 08             	mov    %ebx,0x8(%ebp)
    96b3:	89 45 0c             	mov    %eax,0xc(%ebp)
    96b6:	8d 65 f8             	lea    -0x8(%ebp),%esp
    96b9:	5b                   	pop    %ebx
    96ba:	5e                   	pop    %esi
    96bb:	5d                   	pop    %ebp
    96bc:	e9 9f 3a 00 00       	jmp    d160 <async_answer_0@plt>
    96c1:	8d b4 26 00 00 00 00 	lea    0x0(%esi,%eiz,1),%esi
    96c8:	89 5d 08             	mov    %ebx,0x8(%ebp)
    96cb:	c7 45 0c f5 ff ff ff 	movl   $0xfffffff5,0xc(%ebp)
    96d2:	8d 65 f8             	lea    -0x8(%ebp),%esp
    96d5:	5b                   	pop    %ebx
    96d6:	5e                   	pop    %esi
    96d7:	5d                   	pop    %ebp
    96d8:	e9 83 3a 00 00       	jmp    d160 <async_answer_0@plt>
    96dd:	51                   	push   %ecx
    96de:	68 cf 00 00 00       	push   $0xcf
    96e3:	68 08 cc 00 00       	push   $0xcc08
    96e8:	68 9d cb 00 00       	push   $0xcb9d
    96ed:	e8 ee 3a 00 00       	call   d1e0 <assert_abort@plt>
    96f2:	8d b4 26 00 00 00 00 	lea    0x0(%esi,%eiz,1),%esi
    96f9:	8d bc 27 00 00 00 00 	lea    0x0(%edi,%eiz,1),%edi

00009700 <remote_config_space_read_32>:
    9700:	55                   	push   %ebp
    9701:	89 e5                	mov    %esp,%ebp
    9703:	83 ec 18             	sub    $0x18,%esp
    9706:	8b 45 0c             	mov    0xc(%ebp),%eax
    9709:	85 c0                	test   %eax,%eax
    970b:	74 5d                	je     976a <remote_config_space_read_32+0x6a>
    970d:	8b 40 08             	mov    0x8(%eax),%eax
    9710:	85 c0                	test   %eax,%eax
    9712:	74 44                	je     9758 <remote_config_space_read_32+0x58>
    9714:	52                   	push   %edx
    9715:	8d 55 f4             	lea    -0xc(%ebp),%edx
    9718:	52                   	push   %edx
    9719:	8b 55 14             	mov    0x14(%ebp),%edx
    971c:	8b 4a 08             	mov    0x8(%edx),%ecx
    971f:	8b 55 08             	mov    0x8(%ebp),%edx
    9722:	51                   	push   %ecx
    9723:	52                   	push   %edx
    9724:	ff d0                	call   *%eax
    9726:	83 c4 10             	add    $0x10,%esp
    9729:	85 c0                	test   %eax,%eax
    972b:	74 13                	je     9740 <remote_config_space_read_32+0x40>
    972d:	8b 4d 10             	mov    0x10(%ebp),%ecx
    9730:	52                   	push   %edx
    9731:	52                   	push   %edx
    9732:	50                   	push   %eax
    9733:	51                   	push   %ecx
    9734:	e8 27 3a 00 00       	call   d160 <async_answer_0@plt>
    9739:	83 c4 10             	add    $0x10,%esp
    973c:	c9                   	leave  
    973d:	c3                   	ret    
    973e:	66 90                	xchg   %ax,%ax
    9740:	8b 55 f4             	mov    -0xc(%ebp),%edx
    9743:	8b 4d 10             	mov    0x10(%ebp),%ecx
    9746:	50                   	push   %eax
    9747:	52                   	push   %edx
    9748:	6a 00                	push   $0x0
    974a:	51                   	push   %ecx
    974b:	e8 b0 3c 00 00       	call   d400 <async_answer_1@plt>
    9750:	83 c4 10             	add    $0x10,%esp
    9753:	c9                   	leave  
    9754:	c3                   	ret    
    9755:	8d 76 00             	lea    0x0(%esi),%esi
    9758:	8b 45 10             	mov    0x10(%ebp),%eax
    975b:	51                   	push   %ecx
    975c:	51                   	push   %ecx
    975d:	6a f5                	push   $0xfffffff5
    975f:	50                   	push   %eax
    9760:	e8 fb 39 00 00       	call   d160 <async_answer_0@plt>
    9765:	83 c4 10             	add    $0x10,%esp
    9768:	c9                   	leave  
    9769:	c3                   	ret    
    976a:	50                   	push   %eax
    976b:	68 bd 00 00 00       	push   $0xbd
    9770:	68 08 cc 00 00       	push   $0xcc08
    9775:	68 9d cb 00 00       	push   $0xcb9d
    977a:	e8 61 3a 00 00       	call   d1e0 <assert_abort@plt>
    977f:	90                   	nop

00009780 <remote_config_space_read_16>:
    9780:	55                   	push   %ebp
    9781:	89 e5                	mov    %esp,%ebp
    9783:	83 ec 18             	sub    $0x18,%esp
    9786:	8b 45 0c             	mov    0xc(%ebp),%eax
    9789:	85 c0                	test   %eax,%eax
    978b:	74 5d                	je     97ea <remote_config_space_read_16+0x6a>
    978d:	8b 40 04             	mov    0x4(%eax),%eax
    9790:	85 c0                	test   %eax,%eax
    9792:	74 44                	je     97d8 <remote_config_space_read_16+0x58>
    9794:	52                   	push   %edx
    9795:	8d 55 f6             	lea    -0xa(%ebp),%edx
    9798:	52                   	push   %edx
    9799:	8b 55 14             	mov    0x14(%ebp),%edx
    979c:	8b 4a 08             	mov    0x8(%edx),%ecx
    979f:	8b 55 08             	mov    0x8(%ebp),%edx
    97a2:	51                   	push   %ecx
    97a3:	52                   	push   %edx
    97a4:	ff d0                	call   *%eax
    97a6:	83 c4 10             	add    $0x10,%esp
    97a9:	85 c0                	test   %eax,%eax
    97ab:	74 13                	je     97c0 <remote_config_space_read_16+0x40>
    97ad:	51                   	push   %ecx
    97ae:	51                   	push   %ecx
    97af:	50                   	push   %eax
    97b0:	8b 45 10             	mov    0x10(%ebp),%eax
    97b3:	50                   	push   %eax
    97b4:	e8 a7 39 00 00       	call   d160 <async_answer_0@plt>
    97b9:	83 c4 10             	add    $0x10,%esp
    97bc:	c9                   	leave  
    97bd:	c3                   	ret    
    97be:	66 90                	xchg   %ax,%ax
    97c0:	50                   	push   %eax
    97c1:	31 c0                	xor    %eax,%eax
    97c3:	66 8b 45 f6          	mov    -0xa(%ebp),%ax
    97c7:	8b 55 10             	mov    0x10(%ebp),%edx
    97ca:	50                   	push   %eax
    97cb:	6a 00                	push   $0x0
    97cd:	52                   	push   %edx
    97ce:	e8 2d 3c 00 00       	call   d400 <async_answer_1@plt>
    97d3:	83 c4 10             	add    $0x10,%esp
    97d6:	c9                   	leave  
    97d7:	c3                   	ret    
    97d8:	8b 45 10             	mov    0x10(%ebp),%eax
    97db:	51                   	push   %ecx
    97dc:	51                   	push   %ecx
    97dd:	6a f5                	push   $0xfffffff5
    97df:	50                   	push   %eax
    97e0:	e8 7b 39 00 00       	call   d160 <async_answer_0@plt>
    97e5:	83 c4 10             	add    $0x10,%esp
    97e8:	c9                   	leave  
    97e9:	c3                   	ret    
    97ea:	50                   	push   %eax
    97eb:	68 ac 00 00 00       	push   $0xac
    97f0:	68 08 cc 00 00       	push   $0xcc08
    97f5:	68 9d cb 00 00       	push   $0xcb9d
    97fa:	e8 e1 39 00 00       	call   d1e0 <assert_abort@plt>
    97ff:	90                   	nop

00009800 <remote_config_space_read_8>:
    9800:	55                   	push   %ebp
    9801:	89 e5                	mov    %esp,%ebp
    9803:	83 ec 18             	sub    $0x18,%esp
    9806:	8b 45 0c             	mov    0xc(%ebp),%eax
    9809:	85 c0                	test   %eax,%eax
    980b:	74 5d                	je     986a <remote_config_space_read_8+0x6a>
    980d:	8b 00                	mov    (%eax),%eax
    980f:	85 c0                	test   %eax,%eax
    9811:	74 45                	je     9858 <remote_config_space_read_8+0x58>
    9813:	52                   	push   %edx
    9814:	8d 55 f7             	lea    -0x9(%ebp),%edx
    9817:	52                   	push   %edx
    9818:	8b 55 14             	mov    0x14(%ebp),%edx
    981b:	8b 4a 08             	mov    0x8(%edx),%ecx
    981e:	8b 55 08             	mov    0x8(%ebp),%edx
    9821:	51                   	push   %ecx
    9822:	52                   	push   %edx
    9823:	ff d0                	call   *%eax
    9825:	83 c4 10             	add    $0x10,%esp
    9828:	85 c0                	test   %eax,%eax
    982a:	74 14                	je     9840 <remote_config_space_read_8+0x40>
    982c:	51                   	push   %ecx
    982d:	51                   	push   %ecx
    982e:	50                   	push   %eax
    982f:	8b 45 10             	mov    0x10(%ebp),%eax
    9832:	50                   	push   %eax
    9833:	e8 28 39 00 00       	call   d160 <async_answer_0@plt>
    9838:	83 c4 10             	add    $0x10,%esp
    983b:	c9                   	leave  
    983c:	c3                   	ret    
    983d:	8d 76 00             	lea    0x0(%esi),%esi
    9840:	50                   	push   %eax
    9841:	31 c0                	xor    %eax,%eax
    9843:	8a 45 f7             	mov    -0x9(%ebp),%al
    9846:	8b 55 10             	mov    0x10(%ebp),%edx
    9849:	50                   	push   %eax
    984a:	6a 00                	push   $0x0
    984c:	52                   	push   %edx
    984d:	e8 ae 3b 00 00       	call   d400 <async_answer_1@plt>
    9852:	83 c4 10             	add    $0x10,%esp
    9855:	c9                   	leave  
    9856:	c3                   	ret    
    9857:	90                   	nop
    9858:	8b 45 10             	mov    0x10(%ebp),%eax
    985b:	51                   	push   %ecx
    985c:	51                   	push   %ecx
    985d:	6a f5                	push   $0xfffffff5
    985f:	50                   	push   %eax
    9860:	e8 fb 38 00 00       	call   d160 <async_answer_0@plt>
    9865:	83 c4 10             	add    $0x10,%esp
    9868:	c9                   	leave  
    9869:	c3                   	ret    
    986a:	50                   	push   %eax
    986b:	68 9a 00 00 00       	push   $0x9a
    9870:	68 08 cc 00 00       	push   $0xcc08
    9875:	68 9d cb 00 00       	push   $0xcb9d
    987a:	e8 61 39 00 00       	call   d1e0 <assert_abort@plt>
    987f:	90                   	nop

00009880 <pci_config_space_read_8>:
    9880:	55                   	push   %ebp
    9881:	89 e5                	mov    %esp,%ebp
    9883:	53                   	push   %ebx
    9884:	83 ec 30             	sub    $0x30,%esp
    9887:	8b 45 08             	mov    0x8(%ebp),%eax
    988a:	c7 45 f4 00 00 00 00 	movl   $0x0,-0xc(%ebp)
    9891:	50                   	push   %eax
    9892:	e8 79 3b 00 00       	call   d410 <async_exchange_begin@plt>
    9897:	83 c4 0c             	add    $0xc,%esp
    989a:	8b 55 0c             	mov    0xc(%ebp),%edx
    989d:	89 c3                	mov    %eax,%ebx
    989f:	8d 45 f4             	lea    -0xc(%ebp),%eax
    98a2:	6a 00                	push   $0x0
    98a4:	6a 00                	push   $0x0
    98a6:	6a 00                	push   $0x0
    98a8:	6a 00                	push   $0x0
    98aa:	50                   	push   %eax
    98ab:	6a 00                	push   $0x0
    98ad:	6a 00                	push   $0x0
    98af:	52                   	push   %edx
    98b0:	6a 00                	push   $0x0
    98b2:	68 07 04 00 00       	push   $0x407
    98b7:	53                   	push   %ebx
    98b8:	e8 93 38 00 00       	call   d150 <async_req_fast@plt>
    98bd:	83 c4 24             	add    $0x24,%esp
    98c0:	89 45 e4             	mov    %eax,-0x1c(%ebp)
    98c3:	53                   	push   %ebx
    98c4:	e8 07 39 00 00       	call   d1d0 <async_exchange_end@plt>
    98c9:	8b 55 10             	mov    0x10(%ebp),%edx
    98cc:	8b 4d f4             	mov    -0xc(%ebp),%ecx
    98cf:	8b 45 e4             	mov    -0x1c(%ebp),%eax
    98d2:	88 0a                	mov    %cl,(%edx)
    98d4:	8b 5d fc             	mov    -0x4(%ebp),%ebx
    98d7:	c9                   	leave  
    98d8:	c3                   	ret    
    98d9:	8d b4 26 00 00 00 00 	lea    0x0(%esi,%eiz,1),%esi

000098e0 <pci_config_space_read_16>:
    98e0:	55                   	push   %ebp
    98e1:	89 e5                	mov    %esp,%ebp
    98e3:	53                   	push   %ebx
    98e4:	83 ec 30             	sub    $0x30,%esp
    98e7:	8b 45 08             	mov    0x8(%ebp),%eax
    98ea:	c7 45 f4 00 00 00 00 	movl   $0x0,-0xc(%ebp)
    98f1:	50                   	push   %eax
    98f2:	e8 19 3b 00 00       	call   d410 <async_exchange_begin@plt>
    98f7:	83 c4 0c             	add    $0xc,%esp
    98fa:	8b 55 0c             	mov    0xc(%ebp),%edx
    98fd:	89 c3                	mov    %eax,%ebx
    98ff:	8d 45 f4             	lea    -0xc(%ebp),%eax
    9902:	6a 00                	push   $0x0
    9904:	6a 00                	push   $0x0
    9906:	6a 00                	push   $0x0
    9908:	6a 00                	push   $0x0
    990a:	50                   	push   %eax
    990b:	6a 00                	push   $0x0
    990d:	6a 00                	push   $0x0
    990f:	52                   	push   %edx
    9910:	6a 01                	push   $0x1
    9912:	68 07 04 00 00       	push   $0x407
    9917:	53                   	push   %ebx
    9918:	e8 33 38 00 00       	call   d150 <async_req_fast@plt>
    991d:	83 c4 24             	add    $0x24,%esp
    9920:	89 45 e4             	mov    %eax,-0x1c(%ebp)
    9923:	53                   	push   %ebx
    9924:	e8 a7 38 00 00       	call   d1d0 <async_exchange_end@plt>
    9929:	8b 55 10             	mov    0x10(%ebp),%edx
    992c:	8b 4d f4             	mov    -0xc(%ebp),%ecx
    992f:	8b 45 e4             	mov    -0x1c(%ebp),%eax
    9932:	8b 5d fc             	mov    -0x4(%ebp),%ebx
    9935:	66 89 0a             	mov    %cx,(%edx)
    9938:	c9                   	leave  
    9939:	c3                   	ret    
    993a:	8d b6 00 00 00 00    	lea    0x0(%esi),%esi

00009940 <pci_config_space_read_32>:
    9940:	55                   	push   %ebp
    9941:	89 e5                	mov    %esp,%ebp
    9943:	53                   	push   %ebx
    9944:	83 ec 30             	sub    $0x30,%esp
    9947:	8b 45 08             	mov    0x8(%ebp),%eax
    994a:	c7 45 f4 00 00 00 00 	movl   $0x0,-0xc(%ebp)
    9951:	50                   	push   %eax
    9952:	e8 b9 3a 00 00       	call   d410 <async_exchange_begin@plt>
    9957:	83 c4 0c             	add    $0xc,%esp
    995a:	8b 55 0c             	mov    0xc(%ebp),%edx
    995d:	89 c3                	mov    %eax,%ebx
    995f:	8d 45 f4             	lea    -0xc(%ebp),%eax
    9962:	6a 00                	push   $0x0
    9964:	6a 00                	push   $0x0
    9966:	6a 00                	push   $0x0
    9968:	6a 00                	push   $0x0
    996a:	50                   	push   %eax
    996b:	6a 00                	push   $0x0
    996d:	6a 00                	push   $0x0
    996f:	52                   	push   %edx
    9970:	6a 02                	push   $0x2
    9972:	68 07 04 00 00       	push   $0x407
    9977:	53                   	push   %ebx
    9978:	e8 d3 37 00 00       	call   d150 <async_req_fast@plt>
    997d:	83 c4 24             	add    $0x24,%esp
    9980:	89 45 e4             	mov    %eax,-0x1c(%ebp)
    9983:	53                   	push   %ebx
    9984:	e8 47 38 00 00       	call   d1d0 <async_exchange_end@plt>
    9989:	8b 55 10             	mov    0x10(%ebp),%edx
    998c:	8b 4d f4             	mov    -0xc(%ebp),%ecx
    998f:	8b 45 e4             	mov    -0x1c(%ebp),%eax
    9992:	8b 5d fc             	mov    -0x4(%ebp),%ebx
    9995:	89 0a                	mov    %ecx,(%edx)
    9997:	c9                   	leave  
    9998:	c3                   	ret    
    9999:	8d b4 26 00 00 00 00 	lea    0x0(%esi,%eiz,1),%esi

000099a0 <pci_config_space_write_8>:
    99a0:	55                   	push   %ebp
    99a1:	89 e5                	mov    %esp,%ebp
    99a3:	56                   	push   %esi
    99a4:	53                   	push   %ebx
    99a5:	83 ec 1c             	sub    $0x1c,%esp
    99a8:	8b 45 08             	mov    0x8(%ebp),%eax
    99ab:	8b 5d 10             	mov    0x10(%ebp),%ebx
    99ae:	50                   	push   %eax
    99af:	e8 5c 3a 00 00       	call   d410 <async_exchange_begin@plt>
    99b4:	83 c4 0c             	add    $0xc,%esp
    99b7:	8b 55 0c             	mov    0xc(%ebp),%edx
    99ba:	81 e3 ff 00 00 00    	and    $0xff,%ebx
    99c0:	89 c6                	mov    %eax,%esi
    99c2:	6a 00                	push   $0x0
    99c4:	6a 00                	push   $0x0
    99c6:	6a 00                	push   $0x0
    99c8:	6a 00                	push   $0x0
    99ca:	6a 00                	push   $0x0
    99cc:	6a 00                	push   $0x0
    99ce:	53                   	push   %ebx
    99cf:	52                   	push   %edx
    99d0:	6a 03                	push   $0x3
    99d2:	68 07 04 00 00       	push   $0x407
    99d7:	50                   	push   %eax
    99d8:	e8 73 37 00 00       	call   d150 <async_req_fast@plt>
    99dd:	83 c4 24             	add    $0x24,%esp
    99e0:	89 45 f4             	mov    %eax,-0xc(%ebp)
    99e3:	56                   	push   %esi
    99e4:	e8 e7 37 00 00       	call   d1d0 <async_exchange_end@plt>
    99e9:	8b 45 f4             	mov    -0xc(%ebp),%eax
    99ec:	8d 65 f8             	lea    -0x8(%ebp),%esp
    99ef:	5b                   	pop    %ebx
    99f0:	5e                   	pop    %esi
    99f1:	5d                   	pop    %ebp
    99f2:	c3                   	ret    
    99f3:	8d b6 00 00 00 00    	lea    0x0(%esi),%esi
    99f9:	8d bc 27 00 00 00 00 	lea    0x0(%edi,%eiz,1),%edi

00009a00 <pci_config_space_write_16>:
    9a00:	55                   	push   %ebp
    9a01:	89 e5                	mov    %esp,%ebp
    9a03:	56                   	push   %esi
    9a04:	53                   	push   %ebx
    9a05:	83 ec 1c             	sub    $0x1c,%esp
    9a08:	8b 45 08             	mov    0x8(%ebp),%eax
    9a0b:	8b 5d 10             	mov    0x10(%ebp),%ebx
    9a0e:	50                   	push   %eax
    9a0f:	e8 fc 39 00 00       	call   d410 <async_exchange_begin@plt>
    9a14:	83 c4 0c             	add    $0xc,%esp
    9a17:	8b 55 0c             	mov    0xc(%ebp),%edx
    9a1a:	81 e3 ff ff 00 00    	and    $0xffff,%ebx
    9a20:	89 c6                	mov    %eax,%esi
    9a22:	6a 00                	push   $0x0
    9a24:	6a 00                	push   $0x0
    9a26:	6a 00                	push   $0x0
    9a28:	6a 00                	push   $0x0
    9a2a:	6a 00                	push   $0x0
    9a2c:	6a 00                	push   $0x0
    9a2e:	53                   	push   %ebx
    9a2f:	52                   	push   %edx
    9a30:	6a 04                	push   $0x4
    9a32:	68 07 04 00 00       	push   $0x407
    9a37:	50                   	push   %eax
    9a38:	e8 13 37 00 00       	call   d150 <async_req_fast@plt>
    9a3d:	83 c4 24             	add    $0x24,%esp
    9a40:	89 45 f4             	mov    %eax,-0xc(%ebp)
    9a43:	56                   	push   %esi
    9a44:	e8 87 37 00 00       	call   d1d0 <async_exchange_end@plt>
    9a49:	8b 45 f4             	mov    -0xc(%ebp),%eax
    9a4c:	8d 65 f8             	lea    -0x8(%ebp),%esp
    9a4f:	5b                   	pop    %ebx
    9a50:	5e                   	pop    %esi
    9a51:	5d                   	pop    %ebp
    9a52:	c3                   	ret    
    9a53:	8d b6 00 00 00 00    	lea    0x0(%esi),%esi
    9a59:	8d bc 27 00 00 00 00 	lea    0x0(%edi,%eiz,1),%edi

00009a60 <pci_config_space_write_32>:
    9a60:	55                   	push   %ebp
    9a61:	89 e5                	mov    %esp,%ebp
    9a63:	53                   	push   %ebx
    9a64:	83 ec 20             	sub    $0x20,%esp
    9a67:	8b 45 08             	mov    0x8(%ebp),%eax
    9a6a:	50                   	push   %eax
    9a6b:	e8 a0 39 00 00       	call   d410 <async_exchange_begin@plt>
    9a70:	83 c4 0c             	add    $0xc,%esp
    9a73:	8b 55 10             	mov    0x10(%ebp),%edx
    9a76:	8b 4d 0c             	mov    0xc(%ebp),%ecx
    9a79:	89 c3                	mov    %eax,%ebx
    9a7b:	6a 00                	push   $0x0
    9a7d:	6a 00                	push   $0x0
    9a7f:	6a 00                	push   $0x0
    9a81:	6a 00                	push   $0x0
    9a83:	6a 00                	push   $0x0
    9a85:	6a 00                	push   $0x0
    9a87:	52                   	push   %edx
    9a88:	51                   	push   %ecx
    9a89:	6a 05                	push   $0x5
    9a8b:	68 07 04 00 00       	push   $0x407
    9a90:	50                   	push   %eax
    9a91:	e8 ba 36 00 00       	call   d150 <async_req_fast@plt>
    9a96:	83 c4 24             	add    $0x24,%esp
    9a99:	89 45 f4             	mov    %eax,-0xc(%ebp)
    9a9c:	53                   	push   %ebx
    9a9d:	e8 2e 37 00 00       	call   d1d0 <async_exchange_end@plt>
    9aa2:	8b 45 f4             	mov    -0xc(%ebp),%eax
    9aa5:	8b 5d fc             	mov    -0x4(%ebp),%ebx
    9aa8:	c9                   	leave  
    9aa9:	c3                   	ret    
    9aaa:	66 90                	xchg   %ax,%ax
    9aac:	66 90                	xchg   %ax,%ax
    9aae:	66 90                	xchg   %ax,%ax

00009ab0 <callback_out>:
    9ab0:	55                   	push   %ebp
    9ab1:	89 e5                	mov    %esp,%ebp
    9ab3:	53                   	push   %ebx
    9ab4:	83 ec 0c             	sub    $0xc,%esp
    9ab7:	8b 5d 0c             	mov    0xc(%ebp),%ebx
    9aba:	8b 45 08             	mov    0x8(%ebp),%eax
    9abd:	50                   	push   %eax
    9abe:	8b 13                	mov    (%ebx),%edx
    9ac0:	52                   	push   %edx
    9ac1:	e8 9a 36 00 00       	call   d160 <async_answer_0@plt>
    9ac6:	8b 43 08             	mov    0x8(%ebx),%eax
    9ac9:	83 c4 10             	add    $0x10,%esp
    9acc:	85 c0                	test   %eax,%eax
    9ace:	74 0c                	je     9adc <callback_out+0x2c>
    9ad0:	83 ec 0c             	sub    $0xc,%esp
    9ad3:	50                   	push   %eax
    9ad4:	e8 37 3a 00 00       	call   d510 <free@plt>
    9ad9:	83 c4 10             	add    $0x10,%esp
    9adc:	89 5d 08             	mov    %ebx,0x8(%ebp)
    9adf:	8b 5d fc             	mov    -0x4(%ebp),%ebx
    9ae2:	c9                   	leave  
    9ae3:	e9 28 3a 00 00       	jmp    d510 <free@plt>
    9ae8:	90                   	nop
    9ae9:	8d b4 26 00 00 00 00 	lea    0x0(%esi,%eiz,1),%esi

00009af0 <callback_in>:
    9af0:	55                   	push   %ebp
    9af1:	89 e5                	mov    %esp,%ebp
    9af3:	53                   	push   %ebx
    9af4:	53                   	push   %ebx
    9af5:	8b 45 08             	mov    0x8(%ebp),%eax
    9af8:	8b 55 0c             	mov    0xc(%ebp),%edx
    9afb:	8b 5d 10             	mov    0x10(%ebp),%ebx
    9afe:	85 c0                	test   %eax,%eax
    9b00:	75 36                	jne    9b38 <callback_in+0x48>
    9b02:	8b 43 04             	mov    0x4(%ebx),%eax
    9b05:	85 c0                	test   %eax,%eax
    9b07:	75 4f                	jne    9b58 <callback_in+0x68>
    9b09:	50                   	push   %eax
    9b0a:	50                   	push   %eax
    9b0b:	6a 00                	push   $0x0
    9b0d:	8b 13                	mov    (%ebx),%edx
    9b0f:	52                   	push   %edx
    9b10:	e8 4b 36 00 00       	call   d160 <async_answer_0@plt>
    9b15:	8b 43 08             	mov    0x8(%ebx),%eax
    9b18:	83 c4 10             	add    $0x10,%esp
    9b1b:	85 c0                	test   %eax,%eax
    9b1d:	74 0c                	je     9b2b <callback_in+0x3b>
    9b1f:	83 ec 0c             	sub    $0xc,%esp
    9b22:	50                   	push   %eax
    9b23:	e8 e8 39 00 00       	call   d510 <free@plt>
    9b28:	83 c4 10             	add    $0x10,%esp
    9b2b:	89 5d 08             	mov    %ebx,0x8(%ebp)
    9b2e:	8b 5d fc             	mov    -0x4(%ebp),%ebx
    9b31:	c9                   	leave  
    9b32:	e9 d9 39 00 00       	jmp    d510 <free@plt>
    9b37:	90                   	nop
    9b38:	52                   	push   %edx
    9b39:	52                   	push   %edx
    9b3a:	50                   	push   %eax
    9b3b:	8b 0b                	mov    (%ebx),%ecx
    9b3d:	51                   	push   %ecx
    9b3e:	e8 1d 36 00 00       	call   d160 <async_answer_0@plt>
    9b43:	8b 43 04             	mov    0x4(%ebx),%eax
    9b46:	83 c4 10             	add    $0x10,%esp
    9b49:	85 c0                	test   %eax,%eax
    9b4b:	75 23                	jne    9b70 <callback_in+0x80>
    9b4d:	8b 43 08             	mov    0x8(%ebx),%eax
    9b50:	85 c0                	test   %eax,%eax
    9b52:	75 cb                	jne    9b1f <callback_in+0x2f>
    9b54:	eb d5                	jmp    9b2b <callback_in+0x3b>
    9b56:	66 90                	xchg   %ax,%ax
    9b58:	51                   	push   %ecx
    9b59:	52                   	push   %edx
    9b5a:	8b 53 08             	mov    0x8(%ebx),%edx
    9b5d:	52                   	push   %edx
    9b5e:	50                   	push   %eax
    9b5f:	e8 7c 35 00 00       	call   d0e0 <async_data_read_finalize@plt>
    9b64:	83 c4 10             	add    $0x10,%esp
    9b67:	eb a0                	jmp    9b09 <callback_in+0x19>
    9b69:	8d b4 26 00 00 00 00 	lea    0x0(%esi,%eiz,1),%esi
    9b70:	51                   	push   %ecx
    9b71:	51                   	push   %ecx
    9b72:	6a ef                	push   $0xffffffef
    9b74:	50                   	push   %eax
    9b75:	e8 e6 35 00 00       	call   d160 <async_answer_0@plt>
    9b7a:	8b 43 08             	mov    0x8(%ebx),%eax
    9b7d:	83 c4 10             	add    $0x10,%esp
    9b80:	85 c0                	test   %eax,%eax
    9b82:	75 9b                	jne    9b1f <callback_in+0x2f>
    9b84:	eb a5                	jmp    9b2b <callback_in+0x3b>
    9b86:	8d 76 00             	lea    0x0(%esi),%esi
    9b89:	8d bc 27 00 00 00 00 	lea    0x0(%edi,%eiz,1),%edi

00009b90 <remote_usbhc_write>:
    9b90:	55                   	push   %ebp
    9b91:	89 e5                	mov    %esp,%ebp
    9b93:	57                   	push   %edi
    9b94:	56                   	push   %esi
    9b95:	53                   	push   %ebx
    9b96:	83 ec 2c             	sub    $0x2c,%esp
    9b99:	8b 7d 08             	mov    0x8(%ebp),%edi
    9b9c:	8b 5d 0c             	mov    0xc(%ebp),%ebx
    9b9f:	8b 45 14             	mov    0x14(%ebp),%eax
    9ba2:	85 ff                	test   %edi,%edi
    9ba4:	0f 84 58 01 00 00    	je     9d02 <remote_usbhc_write+0x172>
    9baa:	85 db                	test   %ebx,%ebx
    9bac:	0f 84 3b 01 00 00    	je     9ced <remote_usbhc_write+0x15d>
    9bb2:	85 c0                	test   %eax,%eax
    9bb4:	0f 84 1e 01 00 00    	je     9cd8 <remote_usbhc_write+0x148>
    9bba:	8b 53 04             	mov    0x4(%ebx),%edx
    9bbd:	85 d2                	test   %edx,%edx
    9bbf:	0f 84 e3 00 00 00    	je     9ca8 <remote_usbhc_write+0x118>
    9bc5:	83 ec 0c             	sub    $0xc,%esp
    9bc8:	8b 48 08             	mov    0x8(%eax),%ecx
    9bcb:	8b 50 14             	mov    0x14(%eax),%edx
    9bce:	8b 70 0c             	mov    0xc(%eax),%esi
    9bd1:	8b 40 10             	mov    0x10(%eax),%eax
    9bd4:	89 4d cc             	mov    %ecx,-0x34(%ebp)
    9bd7:	6a 0c                	push   $0xc
    9bd9:	89 45 d0             	mov    %eax,-0x30(%ebp)
    9bdc:	89 55 d4             	mov    %edx,-0x2c(%ebp)
    9bdf:	e8 3c 35 00 00       	call   d120 <malloc@plt>
    9be4:	83 c4 10             	add    $0x10,%esp
    9be7:	89 c7                	mov    %eax,%edi
    9be9:	85 c0                	test   %eax,%eax
    9beb:	0f 84 cf 00 00 00    	je     9cc0 <remote_usbhc_write+0x130>
    9bf1:	8b 45 10             	mov    0x10(%ebp),%eax
    9bf4:	c7 47 04 00 00 00 00 	movl   $0x0,0x4(%edi)
    9bfb:	89 07                	mov    %eax,(%edi)
    9bfd:	c7 47 08 00 00 00 00 	movl   $0x0,0x8(%edi)
    9c04:	c7 45 e4 00 00 00 00 	movl   $0x0,-0x1c(%ebp)
    9c0b:	85 f6                	test   %esi,%esi
    9c0d:	75 31                	jne    9c40 <remote_usbhc_write+0xb0>
    9c0f:	31 c0                	xor    %eax,%eax
    9c11:	31 c9                	xor    %ecx,%ecx
    9c13:	57                   	push   %edi
    9c14:	8b 75 d4             	mov    -0x2c(%ebp),%esi
    9c17:	68 b0 9a 00 00       	push   $0x9ab0
    9c1c:	51                   	push   %ecx
    9c1d:	50                   	push   %eax
    9c1e:	8b 45 d0             	mov    -0x30(%ebp),%eax
    9c21:	56                   	push   %esi
    9c22:	50                   	push   %eax
    9c23:	8b 45 cc             	mov    -0x34(%ebp),%eax
    9c26:	50                   	push   %eax
    9c27:	8b 45 08             	mov    0x8(%ebp),%eax
    9c2a:	50                   	push   %eax
    9c2b:	ff 53 04             	call   *0x4(%ebx)
    9c2e:	83 c4 20             	add    $0x20,%esp
    9c31:	85 c0                	test   %eax,%eax
    9c33:	75 3b                	jne    9c70 <remote_usbhc_write+0xe0>
    9c35:	8d 65 f4             	lea    -0xc(%ebp),%esp
    9c38:	5b                   	pop    %ebx
    9c39:	5e                   	pop    %esi
    9c3a:	5f                   	pop    %edi
    9c3b:	5d                   	pop    %ebp
    9c3c:	c3                   	ret    
    9c3d:	8d 76 00             	lea    0x0(%esi),%esi
    9c40:	50                   	push   %eax
    9c41:	50                   	push   %eax
    9c42:	8d 45 e4             	lea    -0x1c(%ebp),%eax
    9c45:	50                   	push   %eax
    9c46:	8d 47 08             	lea    0x8(%edi),%eax
    9c49:	6a 00                	push   $0x0
    9c4b:	68 fc 03 00 00       	push   $0x3fc
    9c50:	6a 01                	push   $0x1
    9c52:	6a 00                	push   $0x0
    9c54:	50                   	push   %eax
    9c55:	e8 36 38 00 00       	call   d490 <async_data_write_accept@plt>
    9c5a:	83 c4 20             	add    $0x20,%esp
    9c5d:	85 c0                	test   %eax,%eax
    9c5f:	75 0f                	jne    9c70 <remote_usbhc_write+0xe0>
    9c61:	8b 4d e4             	mov    -0x1c(%ebp),%ecx
    9c64:	8b 47 08             	mov    0x8(%edi),%eax
    9c67:	eb aa                	jmp    9c13 <remote_usbhc_write+0x83>
    9c69:	8d b4 26 00 00 00 00 	lea    0x0(%esi,%eiz,1),%esi
    9c70:	8b 5d 10             	mov    0x10(%ebp),%ebx
    9c73:	51                   	push   %ecx
    9c74:	51                   	push   %ecx
    9c75:	50                   	push   %eax
    9c76:	53                   	push   %ebx
    9c77:	e8 e4 34 00 00       	call   d160 <async_answer_0@plt>
    9c7c:	8b 47 08             	mov    0x8(%edi),%eax
    9c7f:	83 c4 10             	add    $0x10,%esp
    9c82:	85 c0                	test   %eax,%eax
    9c84:	74 0c                	je     9c92 <remote_usbhc_write+0x102>
    9c86:	83 ec 0c             	sub    $0xc,%esp
    9c89:	50                   	push   %eax
    9c8a:	e8 81 38 00 00       	call   d510 <free@plt>
    9c8f:	83 c4 10             	add    $0x10,%esp
    9c92:	83 ec 0c             	sub    $0xc,%esp
    9c95:	57                   	push   %edi
    9c96:	e8 75 38 00 00       	call   d510 <free@plt>
    9c9b:	83 c4 10             	add    $0x10,%esp
    9c9e:	8d 65 f4             	lea    -0xc(%ebp),%esp
    9ca1:	5b                   	pop    %ebx
    9ca2:	5e                   	pop    %esi
    9ca3:	5f                   	pop    %edi
    9ca4:	5d                   	pop    %ebp
    9ca5:	c3                   	ret    
    9ca6:	66 90                	xchg   %ax,%ax
    9ca8:	50                   	push   %eax
    9ca9:	50                   	push   %eax
    9caa:	8b 45 10             	mov    0x10(%ebp),%eax
    9cad:	6a f5                	push   $0xfffffff5
    9caf:	50                   	push   %eax
    9cb0:	e8 ab 34 00 00       	call   d160 <async_answer_0@plt>
    9cb5:	83 c4 10             	add    $0x10,%esp
    9cb8:	8d 65 f4             	lea    -0xc(%ebp),%esp
    9cbb:	5b                   	pop    %ebx
    9cbc:	5e                   	pop    %esi
    9cbd:	5f                   	pop    %edi
    9cbe:	5d                   	pop    %ebp
    9cbf:	c3                   	ret    
    9cc0:	8b 55 10             	mov    0x10(%ebp),%edx
    9cc3:	50                   	push   %eax
    9cc4:	50                   	push   %eax
    9cc5:	6a fe                	push   $0xfffffffe
    9cc7:	52                   	push   %edx
    9cc8:	e8 93 34 00 00       	call   d160 <async_answer_0@plt>
    9ccd:	83 c4 10             	add    $0x10,%esp
    9cd0:	8d 65 f4             	lea    -0xc(%ebp),%esp
    9cd3:	5b                   	pop    %ebx
    9cd4:	5e                   	pop    %esi
    9cd5:	5f                   	pop    %edi
    9cd6:	5d                   	pop    %ebp
    9cd7:	c3                   	ret    
    9cd8:	51                   	push   %ecx
    9cd9:	68 43 01 00 00       	push   $0x143
    9cde:	68 40 cc 00 00       	push   $0xcc40
    9ce3:	68 a3 cb 00 00       	push   $0xcba3
    9ce8:	e8 f3 34 00 00       	call   d1e0 <assert_abort@plt>
    9ced:	53                   	push   %ebx
    9cee:	68 42 01 00 00       	push   $0x142
    9cf3:	68 40 cc 00 00       	push   $0xcc40
    9cf8:	68 9d cb 00 00       	push   $0xcb9d
    9cfd:	e8 de 34 00 00       	call   d1e0 <assert_abort@plt>
    9d02:	56                   	push   %esi
    9d03:	68 41 01 00 00       	push   $0x141
    9d08:	68 40 cc 00 00       	push   $0xcc40
    9d0d:	68 99 cb 00 00       	push   $0xcb99
    9d12:	e8 c9 34 00 00       	call   d1e0 <assert_abort@plt>
    9d17:	89 f6                	mov    %esi,%esi
    9d19:	8d bc 27 00 00 00 00 	lea    0x0(%edi,%eiz,1),%edi

00009d20 <remote_usbhc_read>:
    9d20:	55                   	push   %ebp
    9d21:	89 e5                	mov    %esp,%ebp
    9d23:	57                   	push   %edi
    9d24:	56                   	push   %esi
    9d25:	53                   	push   %ebx
    9d26:	83 ec 2c             	sub    $0x2c,%esp
    9d29:	8b 7d 08             	mov    0x8(%ebp),%edi
    9d2c:	8b 5d 0c             	mov    0xc(%ebp),%ebx
    9d2f:	8b 45 14             	mov    0x14(%ebp),%eax
    9d32:	85 ff                	test   %edi,%edi
    9d34:	0f 84 51 01 00 00    	je     9e8b <remote_usbhc_read+0x16b>
    9d3a:	85 db                	test   %ebx,%ebx
    9d3c:	0f 84 73 01 00 00    	je     9eb5 <remote_usbhc_read+0x195>
    9d42:	85 c0                	test   %eax,%eax
    9d44:	0f 84 56 01 00 00    	je     9ea0 <remote_usbhc_read+0x180>
    9d4a:	8b 13                	mov    (%ebx),%edx
    9d4c:	85 d2                	test   %edx,%edx
    9d4e:	0f 84 f4 00 00 00    	je     9e48 <remote_usbhc_read+0x128>
    9d54:	83 ec 0c             	sub    $0xc,%esp
    9d57:	8b 50 10             	mov    0x10(%eax),%edx
    9d5a:	8b 70 08             	mov    0x8(%eax),%esi
    9d5d:	8b 40 0c             	mov    0xc(%eax),%eax
    9d60:	89 45 d0             	mov    %eax,-0x30(%ebp)
    9d63:	6a 0c                	push   $0xc
    9d65:	89 55 d4             	mov    %edx,-0x2c(%ebp)
    9d68:	e8 b3 33 00 00       	call   d120 <malloc@plt>
    9d6d:	83 c4 10             	add    $0x10,%esp
    9d70:	89 c7                	mov    %eax,%edi
    9d72:	85 c0                	test   %eax,%eax
    9d74:	0f 84 e6 00 00 00    	je     9e60 <remote_usbhc_read+0x140>
    9d7a:	8b 45 10             	mov    0x10(%ebp),%eax
    9d7d:	c7 47 04 00 00 00 00 	movl   $0x0,0x4(%edi)
    9d84:	89 07                	mov    %eax,(%edi)
    9d86:	c7 47 08 00 00 00 00 	movl   $0x0,0x8(%edi)
    9d8d:	50                   	push   %eax
    9d8e:	50                   	push   %eax
    9d8f:	8d 45 e4             	lea    -0x1c(%ebp),%eax
    9d92:	c7 45 e4 00 00 00 00 	movl   $0x0,-0x1c(%ebp)
    9d99:	50                   	push   %eax
    9d9a:	8d 47 04             	lea    0x4(%edi),%eax
    9d9d:	50                   	push   %eax
    9d9e:	e8 cd 35 00 00       	call   d370 <async_data_read_receive@plt>
    9da3:	83 c4 10             	add    $0x10,%esp
    9da6:	84 c0                	test   %al,%al
    9da8:	75 1e                	jne    9dc8 <remote_usbhc_read+0xa8>
    9daa:	8b 75 10             	mov    0x10(%ebp),%esi
    9dad:	53                   	push   %ebx
    9dae:	53                   	push   %ebx
    9daf:	6a f8                	push   $0xfffffff8
    9db1:	56                   	push   %esi
    9db2:	e8 a9 33 00 00       	call   d160 <async_answer_0@plt>
    9db7:	83 c4 10             	add    $0x10,%esp
    9dba:	8d 65 f4             	lea    -0xc(%ebp),%esp
    9dbd:	5b                   	pop    %ebx
    9dbe:	5e                   	pop    %esi
    9dbf:	5f                   	pop    %edi
    9dc0:	5d                   	pop    %ebp
    9dc1:	c3                   	ret    
    9dc2:	8d b6 00 00 00 00    	lea    0x0(%esi),%esi
    9dc8:	83 ec 0c             	sub    $0xc,%esp
    9dcb:	8b 4d e4             	mov    -0x1c(%ebp),%ecx
    9dce:	51                   	push   %ecx
    9dcf:	e8 4c 33 00 00       	call   d120 <malloc@plt>
    9dd4:	83 c4 10             	add    $0x10,%esp
    9dd7:	89 47 08             	mov    %eax,0x8(%edi)
    9dda:	85 c0                	test   %eax,%eax
    9ddc:	0f 84 96 00 00 00    	je     9e78 <remote_usbhc_read+0x158>
    9de2:	8b 4d e4             	mov    -0x1c(%ebp),%ecx
    9de5:	57                   	push   %edi
    9de6:	68 f0 9a 00 00       	push   $0x9af0
    9deb:	51                   	push   %ecx
    9dec:	50                   	push   %eax
    9ded:	8b 45 d4             	mov    -0x2c(%ebp),%eax
    9df0:	50                   	push   %eax
    9df1:	8b 45 d0             	mov    -0x30(%ebp),%eax
    9df4:	50                   	push   %eax
    9df5:	8b 45 08             	mov    0x8(%ebp),%eax
    9df8:	56                   	push   %esi
    9df9:	50                   	push   %eax
    9dfa:	ff 13                	call   *(%ebx)
    9dfc:	83 c4 20             	add    $0x20,%esp
    9dff:	89 c3                	mov    %eax,%ebx
    9e01:	85 c0                	test   %eax,%eax
    9e03:	74 b5                	je     9dba <remote_usbhc_read+0x9a>
    9e05:	56                   	push   %esi
    9e06:	56                   	push   %esi
    9e07:	50                   	push   %eax
    9e08:	8b 47 04             	mov    0x4(%edi),%eax
    9e0b:	50                   	push   %eax
    9e0c:	e8 4f 33 00 00       	call   d160 <async_answer_0@plt>
    9e11:	58                   	pop    %eax
    9e12:	5a                   	pop    %edx
    9e13:	53                   	push   %ebx
    9e14:	8b 4d 10             	mov    0x10(%ebp),%ecx
    9e17:	51                   	push   %ecx
    9e18:	e8 43 33 00 00       	call   d160 <async_answer_0@plt>
    9e1d:	8b 47 08             	mov    0x8(%edi),%eax
    9e20:	83 c4 10             	add    $0x10,%esp
    9e23:	85 c0                	test   %eax,%eax
    9e25:	74 0c                	je     9e33 <remote_usbhc_read+0x113>
    9e27:	83 ec 0c             	sub    $0xc,%esp
    9e2a:	50                   	push   %eax
    9e2b:	e8 e0 36 00 00       	call   d510 <free@plt>
    9e30:	83 c4 10             	add    $0x10,%esp
    9e33:	83 ec 0c             	sub    $0xc,%esp
    9e36:	57                   	push   %edi
    9e37:	e8 d4 36 00 00       	call   d510 <free@plt>
    9e3c:	83 c4 10             	add    $0x10,%esp
    9e3f:	8d 65 f4             	lea    -0xc(%ebp),%esp
    9e42:	5b                   	pop    %ebx
    9e43:	5e                   	pop    %esi
    9e44:	5f                   	pop    %edi
    9e45:	5d                   	pop    %ebp
    9e46:	c3                   	ret    
    9e47:	90                   	nop
    9e48:	50                   	push   %eax
    9e49:	50                   	push   %eax
    9e4a:	8b 45 10             	mov    0x10(%ebp),%eax
    9e4d:	6a f5                	push   $0xfffffff5
    9e4f:	50                   	push   %eax
    9e50:	e8 0b 33 00 00       	call   d160 <async_answer_0@plt>
    9e55:	83 c4 10             	add    $0x10,%esp
    9e58:	8d 65 f4             	lea    -0xc(%ebp),%esp
    9e5b:	5b                   	pop    %ebx
    9e5c:	5e                   	pop    %esi
    9e5d:	5f                   	pop    %edi
    9e5e:	5d                   	pop    %ebp
    9e5f:	c3                   	ret    
    9e60:	8b 55 10             	mov    0x10(%ebp),%edx
    9e63:	50                   	push   %eax
    9e64:	50                   	push   %eax
    9e65:	6a fe                	push   $0xfffffffe
    9e67:	52                   	push   %edx
    9e68:	e8 f3 32 00 00       	call   d160 <async_answer_0@plt>
    9e6d:	83 c4 10             	add    $0x10,%esp
    9e70:	8d 65 f4             	lea    -0xc(%ebp),%esp
    9e73:	5b                   	pop    %ebx
    9e74:	5e                   	pop    %esi
    9e75:	5f                   	pop    %edi
    9e76:	5d                   	pop    %ebp
    9e77:	c3                   	ret    
    9e78:	50                   	push   %eax
    9e79:	50                   	push   %eax
    9e7a:	6a fe                	push   $0xfffffffe
    9e7c:	8b 47 04             	mov    0x4(%edi),%eax
    9e7f:	50                   	push   %eax
    9e80:	e8 db 32 00 00       	call   d160 <async_answer_0@plt>
    9e85:	58                   	pop    %eax
    9e86:	5a                   	pop    %edx
    9e87:	6a fe                	push   $0xfffffffe
    9e89:	eb 89                	jmp    9e14 <remote_usbhc_read+0xf4>
    9e8b:	56                   	push   %esi
    9e8c:	68 10 01 00 00       	push   $0x110
    9e91:	68 40 cc 00 00       	push   $0xcc40
    9e96:	68 99 cb 00 00       	push   $0xcb99
    9e9b:	e8 40 33 00 00       	call   d1e0 <assert_abort@plt>
    9ea0:	51                   	push   %ecx
    9ea1:	68 12 01 00 00       	push   $0x112
    9ea6:	68 40 cc 00 00       	push   $0xcc40
    9eab:	68 a3 cb 00 00       	push   $0xcba3
    9eb0:	e8 2b 33 00 00       	call   d1e0 <assert_abort@plt>
    9eb5:	53                   	push   %ebx
    9eb6:	68 11 01 00 00       	push   $0x111
    9ebb:	68 40 cc 00 00       	push   $0xcc40
    9ec0:	68 9d cb 00 00       	push   $0xcb9d
    9ec5:	e8 16 33 00 00       	call   d1e0 <assert_abort@plt>
    9eca:	8d b6 00 00 00 00    	lea    0x0(%esi),%esi

00009ed0 <usbhc_read>:
    9ed0:	55                   	push   %ebp
    9ed1:	89 e5                	mov    %esp,%ebp
    9ed3:	57                   	push   %edi
    9ed4:	56                   	push   %esi
    9ed5:	53                   	push   %ebx
    9ed6:	83 ec 4c             	sub    $0x4c,%esp
    9ed9:	8b 5d 08             	mov    0x8(%ebp),%ebx
    9edc:	8b 45 0c             	mov    0xc(%ebp),%eax
    9edf:	8b 7d 10             	mov    0x10(%ebp),%edi
    9ee2:	8b 4d 14             	mov    0x14(%ebp),%ecx
    9ee5:	8b 75 18             	mov    0x18(%ebp),%esi
    9ee8:	66 89 45 b6          	mov    %ax,-0x4a(%ebp)
    9eec:	85 db                	test   %ebx,%ebx
    9eee:	0f 84 d2 00 00 00    	je     9fc6 <usbhc_read+0xf6>
    9ef4:	8b 45 20             	mov    0x20(%ebp),%eax
    9ef7:	85 c0                	test   %eax,%eax
    9ef9:	75 15                	jne    9f10 <usbhc_read+0x40>
    9efb:	89 ca                	mov    %ecx,%edx
    9efd:	31 c0                	xor    %eax,%eax
    9eff:	09 f2                	or     %esi,%edx
    9f01:	75 0d                	jne    9f10 <usbhc_read+0x40>
    9f03:	8d 65 f4             	lea    -0xc(%ebp),%esp
    9f06:	5b                   	pop    %ebx
    9f07:	5e                   	pop    %esi
    9f08:	5f                   	pop    %edi
    9f09:	5d                   	pop    %ebp
    9f0a:	c3                   	ret    
    9f0b:	90                   	nop
    9f0c:	8d 74 26 00          	lea    0x0(%esi,%eiz,1),%esi
    9f10:	c1 e7 10             	shl    $0x10,%edi
    9f13:	31 d2                	xor    %edx,%edx
    9f15:	66 8b 55 b6          	mov    -0x4a(%ebp),%dx
    9f19:	50                   	push   %eax
    9f1a:	09 d7                	or     %edx,%edi
    9f1c:	6a 00                	push   $0x0
    9f1e:	56                   	push   %esi
    9f1f:	51                   	push   %ecx
    9f20:	57                   	push   %edi
    9f21:	6a 00                	push   $0x0
    9f23:	68 09 04 00 00       	push   $0x409
    9f28:	53                   	push   %ebx
    9f29:	e8 42 32 00 00       	call   d170 <async_send_fast@plt>
    9f2e:	83 c4 20             	add    $0x20,%esp
    9f31:	89 c6                	mov    %eax,%esi
    9f33:	85 c0                	test   %eax,%eax
    9f35:	74 69                	je     9fa0 <usbhc_read+0xd0>
    9f37:	8d 45 c4             	lea    -0x3c(%ebp),%eax
    9f3a:	8b 7d 20             	mov    0x20(%ebp),%edi
    9f3d:	50                   	push   %eax
    9f3e:	8b 45 1c             	mov    0x1c(%ebp),%eax
    9f41:	57                   	push   %edi
    9f42:	50                   	push   %eax
    9f43:	53                   	push   %ebx
    9f44:	e8 37 32 00 00       	call   d180 <async_data_read@plt>
    9f49:	83 c4 10             	add    $0x10,%esp
    9f4c:	85 c0                	test   %eax,%eax
    9f4e:	74 60                	je     9fb0 <usbhc_read+0xe0>
    9f50:	52                   	push   %edx
    9f51:	52                   	push   %edx
    9f52:	8d 55 bc             	lea    -0x44(%ebp),%edx
    9f55:	52                   	push   %edx
    9f56:	50                   	push   %eax
    9f57:	e8 14 31 00 00       	call   d070 <async_wait_for@plt>
    9f5c:	8d 45 c0             	lea    -0x40(%ebp),%eax
    9f5f:	59                   	pop    %ecx
    9f60:	5b                   	pop    %ebx
    9f61:	50                   	push   %eax
    9f62:	56                   	push   %esi
    9f63:	e8 08 31 00 00       	call   d070 <async_wait_for@plt>
    9f68:	8b 45 bc             	mov    -0x44(%ebp),%eax
    9f6b:	83 c4 10             	add    $0x10,%esp
    9f6e:	85 c0                	test   %eax,%eax
    9f70:	74 0e                	je     9f80 <usbhc_read+0xb0>
    9f72:	8b 55 c0             	mov    -0x40(%ebp),%edx
    9f75:	85 d2                	test   %edx,%edx
    9f77:	74 8a                	je     9f03 <usbhc_read+0x33>
    9f79:	89 d0                	mov    %edx,%eax
    9f7b:	eb 86                	jmp    9f03 <usbhc_read+0x33>
    9f7d:	8d 76 00             	lea    0x0(%esi),%esi
    9f80:	8b 45 c0             	mov    -0x40(%ebp),%eax
    9f83:	85 c0                	test   %eax,%eax
    9f85:	0f 85 78 ff ff ff    	jne    9f03 <usbhc_read+0x33>
    9f8b:	8b 45 24             	mov    0x24(%ebp),%eax
    9f8e:	8b 55 cc             	mov    -0x34(%ebp),%edx
    9f91:	89 10                	mov    %edx,(%eax)
    9f93:	8d 65 f4             	lea    -0xc(%ebp),%esp
    9f96:	31 c0                	xor    %eax,%eax
    9f98:	5b                   	pop    %ebx
    9f99:	5e                   	pop    %esi
    9f9a:	5f                   	pop    %edi
    9f9b:	5d                   	pop    %ebp
    9f9c:	c3                   	ret    
    9f9d:	8d 76 00             	lea    0x0(%esi),%esi
    9fa0:	b8 fe ff ff ff       	mov    $0xfffffffe,%eax
    9fa5:	e9 59 ff ff ff       	jmp    9f03 <usbhc_read+0x33>
    9faa:	8d b6 00 00 00 00    	lea    0x0(%esi),%esi
    9fb0:	83 ec 0c             	sub    $0xc,%esp
    9fb3:	56                   	push   %esi
    9fb4:	e8 e7 34 00 00       	call   d4a0 <async_forget@plt>
    9fb9:	83 c4 10             	add    $0x10,%esp
    9fbc:	b8 fe ff ff ff       	mov    $0xfffffffe,%eax
    9fc1:	e9 3d ff ff ff       	jmp    9f03 <usbhc_read+0x33>
    9fc6:	b8 f6 ff ff ff       	mov    $0xfffffff6,%eax
    9fcb:	e9 33 ff ff ff       	jmp    9f03 <usbhc_read+0x33>

00009fd0 <usbhc_write>:
    9fd0:	55                   	push   %ebp
    9fd1:	89 e5                	mov    %esp,%ebp
    9fd3:	57                   	push   %edi
    9fd4:	56                   	push   %esi
    9fd5:	53                   	push   %ebx
    9fd6:	83 ec 2c             	sub    $0x2c,%esp
    9fd9:	8b 45 0c             	mov    0xc(%ebp),%eax
    9fdc:	8b 7d 10             	mov    0x10(%ebp),%edi
    9fdf:	66 89 45 d4          	mov    %ax,-0x2c(%ebp)
    9fe3:	8b 45 08             	mov    0x8(%ebp),%eax
    9fe6:	8b 4d 14             	mov    0x14(%ebp),%ecx
    9fe9:	8b 75 18             	mov    0x18(%ebp),%esi
    9fec:	8b 5d 20             	mov    0x20(%ebp),%ebx
    9fef:	85 c0                	test   %eax,%eax
    9ff1:	0f 84 9b 00 00 00    	je     a092 <usbhc_write+0xc2>
    9ff7:	85 db                	test   %ebx,%ebx
    9ff9:	75 15                	jne    a010 <usbhc_write+0x40>
    9ffb:	89 ca                	mov    %ecx,%edx
    9ffd:	31 c0                	xor    %eax,%eax
    9fff:	09 f2                	or     %esi,%edx
    a001:	75 0d                	jne    a010 <usbhc_write+0x40>
    a003:	8d 65 f4             	lea    -0xc(%ebp),%esp
    a006:	5b                   	pop    %ebx
    a007:	5e                   	pop    %esi
    a008:	5f                   	pop    %edi
    a009:	5d                   	pop    %ebp
    a00a:	c3                   	ret    
    a00b:	90                   	nop
    a00c:	8d 74 26 00          	lea    0x0(%esi,%eiz,1),%esi
    a010:	31 d2                	xor    %edx,%edx
    a012:	6a 00                	push   $0x0
    a014:	c1 e7 10             	shl    $0x10,%edi
    a017:	66 8b 55 d4          	mov    -0x2c(%ebp),%dx
    a01b:	56                   	push   %esi
    a01c:	09 d7                	or     %edx,%edi
    a01e:	8b 75 08             	mov    0x8(%ebp),%esi
    a021:	51                   	push   %ecx
    a022:	53                   	push   %ebx
    a023:	57                   	push   %edi
    a024:	6a 01                	push   $0x1
    a026:	68 09 04 00 00       	push   $0x409
    a02b:	56                   	push   %esi
    a02c:	e8 bf 32 00 00       	call   d2f0 <async_send_slow@plt>
    a031:	83 c4 20             	add    $0x20,%esp
    a034:	89 c6                	mov    %eax,%esi
    a036:	85 c0                	test   %eax,%eax
    a038:	74 4e                	je     a088 <usbhc_write+0xb8>
    a03a:	85 db                	test   %ebx,%ebx
    a03c:	74 16                	je     a054 <usbhc_write+0x84>
    a03e:	8b 4d 1c             	mov    0x1c(%ebp),%ecx
    a041:	52                   	push   %edx
    a042:	53                   	push   %ebx
    a043:	8b 5d 08             	mov    0x8(%ebp),%ebx
    a046:	51                   	push   %ecx
    a047:	53                   	push   %ebx
    a048:	e8 63 30 00 00       	call   d0b0 <async_data_write_start@plt>
    a04d:	83 c4 10             	add    $0x10,%esp
    a050:	85 c0                	test   %eax,%eax
    a052:	75 1c                	jne    a070 <usbhc_write+0xa0>
    a054:	50                   	push   %eax
    a055:	50                   	push   %eax
    a056:	8d 45 e4             	lea    -0x1c(%ebp),%eax
    a059:	50                   	push   %eax
    a05a:	56                   	push   %esi
    a05b:	e8 10 30 00 00       	call   d070 <async_wait_for@plt>
    a060:	8b 45 e4             	mov    -0x1c(%ebp),%eax
    a063:	83 c4 10             	add    $0x10,%esp
    a066:	8d 65 f4             	lea    -0xc(%ebp),%esp
    a069:	5b                   	pop    %ebx
    a06a:	5e                   	pop    %esi
    a06b:	5f                   	pop    %edi
    a06c:	5d                   	pop    %ebp
    a06d:	c3                   	ret    
    a06e:	66 90                	xchg   %ax,%ax
    a070:	83 ec 0c             	sub    $0xc,%esp
    a073:	89 45 d4             	mov    %eax,-0x2c(%ebp)
    a076:	56                   	push   %esi
    a077:	e8 24 34 00 00       	call   d4a0 <async_forget@plt>
    a07c:	83 c4 10             	add    $0x10,%esp
    a07f:	8b 45 d4             	mov    -0x2c(%ebp),%eax
    a082:	e9 7c ff ff ff       	jmp    a003 <usbhc_write+0x33>
    a087:	90                   	nop
    a088:	b8 fe ff ff ff       	mov    $0xfffffffe,%eax
    a08d:	e9 71 ff ff ff       	jmp    a003 <usbhc_write+0x33>
    a092:	b8 f6 ff ff ff       	mov    $0xfffffff6,%eax
    a097:	e9 67 ff ff ff       	jmp    a003 <usbhc_write+0x33>
    a09c:	66 90                	xchg   %ax,%ax
    a09e:	66 90                	xchg   %ax,%ax

0000a0a0 <remote_usbhid_get_report_descriptor>:
    a0a0:	55                   	push   %ebp
    a0a1:	89 e5                	mov    %esp,%ebp
    a0a3:	56                   	push   %esi
    a0a4:	53                   	push   %ebx
    a0a5:	83 ec 10             	sub    $0x10,%esp
    a0a8:	8b 5d 0c             	mov    0xc(%ebp),%ebx
    a0ab:	8b 43 0c             	mov    0xc(%ebx),%eax
    a0ae:	85 c0                	test   %eax,%eax
    a0b0:	0f 84 02 01 00 00    	je     a1b8 <remote_usbhid_get_report_descriptor+0x118>
    a0b6:	50                   	push   %eax
    a0b7:	50                   	push   %eax
    a0b8:	8d 45 ec             	lea    -0x14(%ebp),%eax
    a0bb:	50                   	push   %eax
    a0bc:	8d 45 f0             	lea    -0x10(%ebp),%eax
    a0bf:	50                   	push   %eax
    a0c0:	e8 ab 32 00 00       	call   d370 <async_data_read_receive@plt>
    a0c5:	83 c4 10             	add    $0x10,%esp
    a0c8:	84 c0                	test   %al,%al
    a0ca:	0f 84 98 00 00 00    	je     a168 <remote_usbhid_get_report_descriptor+0xc8>
    a0d0:	8b 45 ec             	mov    -0x14(%ebp),%eax
    a0d3:	85 c0                	test   %eax,%eax
    a0d5:	75 29                	jne    a100 <remote_usbhid_get_report_descriptor+0x60>
    a0d7:	8b 45 f0             	mov    -0x10(%ebp),%eax
    a0da:	56                   	push   %esi
    a0db:	56                   	push   %esi
    a0dc:	6a f2                	push   $0xfffffff2
    a0de:	50                   	push   %eax
    a0df:	e8 7c 30 00 00       	call   d160 <async_answer_0@plt>
    a0e4:	8b 4d 10             	mov    0x10(%ebp),%ecx
    a0e7:	58                   	pop    %eax
    a0e8:	5a                   	pop    %edx
    a0e9:	6a f2                	push   $0xfffffff2
    a0eb:	51                   	push   %ecx
    a0ec:	e8 6f 30 00 00       	call   d160 <async_answer_0@plt>
    a0f1:	83 c4 10             	add    $0x10,%esp
    a0f4:	8d 65 f8             	lea    -0x8(%ebp),%esp
    a0f7:	5b                   	pop    %ebx
    a0f8:	5e                   	pop    %esi
    a0f9:	5d                   	pop    %ebp
    a0fa:	c3                   	ret    
    a0fb:	90                   	nop
    a0fc:	8d 74 26 00          	lea    0x0(%esi,%eiz,1),%esi
    a100:	83 ec 0c             	sub    $0xc,%esp
    a103:	50                   	push   %eax
    a104:	e8 17 30 00 00       	call   d120 <malloc@plt>
    a109:	83 c4 10             	add    $0x10,%esp
    a10c:	89 c6                	mov    %eax,%esi
    a10e:	85 c0                	test   %eax,%eax
    a110:	0f 84 ba 00 00 00    	je     a1d0 <remote_usbhid_get_report_descriptor+0x130>
    a116:	8d 45 f4             	lea    -0xc(%ebp),%eax
    a119:	c7 45 f4 00 00 00 00 	movl   $0x0,-0xc(%ebp)
    a120:	50                   	push   %eax
    a121:	8b 45 ec             	mov    -0x14(%ebp),%eax
    a124:	50                   	push   %eax
    a125:	8b 45 08             	mov    0x8(%ebp),%eax
    a128:	56                   	push   %esi
    a129:	50                   	push   %eax
    a12a:	ff 53 0c             	call   *0xc(%ebx)
    a12d:	8b 55 f4             	mov    -0xc(%ebp),%edx
    a130:	83 c4 10             	add    $0x10,%esp
    a133:	3b 55 ec             	cmp    -0x14(%ebp),%edx
    a136:	76 48                	jbe    a180 <remote_usbhid_get_report_descriptor+0xe0>
    a138:	bb fd ff ff ff       	mov    $0xfffffffd,%ebx
    a13d:	83 ec 0c             	sub    $0xc,%esp
    a140:	56                   	push   %esi
    a141:	e8 ca 33 00 00       	call   d510 <free@plt>
    a146:	8b 4d f0             	mov    -0x10(%ebp),%ecx
    a149:	58                   	pop    %eax
    a14a:	5a                   	pop    %edx
    a14b:	53                   	push   %ebx
    a14c:	51                   	push   %ecx
    a14d:	e8 0e 30 00 00       	call   d160 <async_answer_0@plt>
    a152:	5e                   	pop    %esi
    a153:	58                   	pop    %eax
    a154:	8b 45 10             	mov    0x10(%ebp),%eax
    a157:	53                   	push   %ebx
    a158:	50                   	push   %eax
    a159:	e8 02 30 00 00       	call   d160 <async_answer_0@plt>
    a15e:	83 c4 10             	add    $0x10,%esp
    a161:	8d 65 f8             	lea    -0x8(%ebp),%esp
    a164:	5b                   	pop    %ebx
    a165:	5e                   	pop    %esi
    a166:	5d                   	pop    %ebp
    a167:	c3                   	ret    
    a168:	8b 75 10             	mov    0x10(%ebp),%esi
    a16b:	53                   	push   %ebx
    a16c:	53                   	push   %ebx
    a16d:	6a f2                	push   $0xfffffff2
    a16f:	56                   	push   %esi
    a170:	e8 eb 2f 00 00       	call   d160 <async_answer_0@plt>
    a175:	83 c4 10             	add    $0x10,%esp
    a178:	8d 65 f8             	lea    -0x8(%ebp),%esp
    a17b:	5b                   	pop    %ebx
    a17c:	5e                   	pop    %esi
    a17d:	5d                   	pop    %ebp
    a17e:	c3                   	ret    
    a17f:	90                   	nop
    a180:	89 c3                	mov    %eax,%ebx
    a182:	85 c0                	test   %eax,%eax
    a184:	75 b7                	jne    a13d <remote_usbhid_get_report_descriptor+0x9d>
    a186:	50                   	push   %eax
    a187:	52                   	push   %edx
    a188:	8b 55 f0             	mov    -0x10(%ebp),%edx
    a18b:	56                   	push   %esi
    a18c:	52                   	push   %edx
    a18d:	e8 4e 2f 00 00       	call   d0e0 <async_data_read_finalize@plt>
    a192:	8b 45 10             	mov    0x10(%ebp),%eax
    a195:	59                   	pop    %ecx
    a196:	5b                   	pop    %ebx
    a197:	6a 00                	push   $0x0
    a199:	50                   	push   %eax
    a19a:	e8 c1 2f 00 00       	call   d160 <async_answer_0@plt>
    a19f:	89 34 24             	mov    %esi,(%esp)
    a1a2:	e8 69 33 00 00       	call   d510 <free@plt>
    a1a7:	83 c4 10             	add    $0x10,%esp
    a1aa:	8d 65 f8             	lea    -0x8(%ebp),%esp
    a1ad:	5b                   	pop    %ebx
    a1ae:	5e                   	pop    %esi
    a1af:	5d                   	pop    %ebp
    a1b0:	c3                   	ret    
    a1b1:	8d b4 26 00 00 00 00 	lea    0x0(%esi,%eiz,1),%esi
    a1b8:	50                   	push   %eax
    a1b9:	50                   	push   %eax
    a1ba:	8b 45 10             	mov    0x10(%ebp),%eax
    a1bd:	6a f5                	push   $0xfffffff5
    a1bf:	50                   	push   %eax
    a1c0:	e8 9b 2f 00 00       	call   d160 <async_answer_0@plt>
    a1c5:	83 c4 10             	add    $0x10,%esp
    a1c8:	8d 65 f8             	lea    -0x8(%ebp),%esp
    a1cb:	5b                   	pop    %ebx
    a1cc:	5e                   	pop    %esi
    a1cd:	5d                   	pop    %ebp
    a1ce:	c3                   	ret    
    a1cf:	90                   	nop
    a1d0:	50                   	push   %eax
    a1d1:	50                   	push   %eax
    a1d2:	8b 45 f0             	mov    -0x10(%ebp),%eax
    a1d5:	6a fe                	push   $0xfffffffe
    a1d7:	50                   	push   %eax
    a1d8:	e8 83 2f 00 00       	call   d160 <async_answer_0@plt>
    a1dd:	8b 5d 10             	mov    0x10(%ebp),%ebx
    a1e0:	5a                   	pop    %edx
    a1e1:	59                   	pop    %ecx
    a1e2:	6a fe                	push   $0xfffffffe
    a1e4:	53                   	push   %ebx
    a1e5:	e8 76 2f 00 00       	call   d160 <async_answer_0@plt>
    a1ea:	83 c4 10             	add    $0x10,%esp
    a1ed:	e9 02 ff ff ff       	jmp    a0f4 <remote_usbhid_get_report_descriptor+0x54>
    a1f2:	8d b4 26 00 00 00 00 	lea    0x0(%esi,%eiz,1),%esi
    a1f9:	8d bc 27 00 00 00 00 	lea    0x0(%edi,%eiz,1),%edi

0000a200 <remote_usbhid_get_report_descriptor_length>:
    a200:	55                   	push   %ebp
    a201:	89 e5                	mov    %esp,%ebp
    a203:	53                   	push   %ebx
    a204:	50                   	push   %eax
    a205:	8b 45 0c             	mov    0xc(%ebp),%eax
    a208:	8b 55 08             	mov    0x8(%ebp),%edx
    a20b:	8b 5d 10             	mov    0x10(%ebp),%ebx
    a20e:	8b 40 08             	mov    0x8(%eax),%eax
    a211:	85 c0                	test   %eax,%eax
    a213:	74 23                	je     a238 <remote_usbhid_get_report_descriptor_length+0x38>
    a215:	83 ec 0c             	sub    $0xc,%esp
    a218:	52                   	push   %edx
    a219:	ff d0                	call   *%eax
    a21b:	89 5d 08             	mov    %ebx,0x8(%ebp)
    a21e:	83 c4 10             	add    $0x10,%esp
    a221:	8b 5d fc             	mov    -0x4(%ebp),%ebx
    a224:	89 45 10             	mov    %eax,0x10(%ebp)
    a227:	c7 45 0c 00 00 00 00 	movl   $0x0,0xc(%ebp)
    a22e:	c9                   	leave  
    a22f:	e9 cc 31 00 00       	jmp    d400 <async_answer_1@plt>
    a234:	8d 74 26 00          	lea    0x0(%esi,%eiz,1),%esi
    a238:	89 5d 08             	mov    %ebx,0x8(%ebp)
    a23b:	8b 5d fc             	mov    -0x4(%ebp),%ebx
    a23e:	c7 45 0c f5 ff ff ff 	movl   $0xfffffff5,0xc(%ebp)
    a245:	c9                   	leave  
    a246:	e9 15 2f 00 00       	jmp    d160 <async_answer_0@plt>
    a24b:	90                   	nop
    a24c:	8d 74 26 00          	lea    0x0(%esi,%eiz,1),%esi

0000a250 <remote_usbhid_get_event>:
    a250:	55                   	push   %ebp
    a251:	89 e5                	mov    %esp,%ebp
    a253:	57                   	push   %edi
    a254:	56                   	push   %esi
    a255:	53                   	push   %ebx
    a256:	83 ec 1c             	sub    $0x1c,%esp
    a259:	8b 5d 0c             	mov    0xc(%ebp),%ebx
    a25c:	8b 4b 04             	mov    0x4(%ebx),%ecx
    a25f:	85 c9                	test   %ecx,%ecx
    a261:	0f 84 11 01 00 00    	je     a378 <remote_usbhid_get_event+0x128>
    a267:	8b 45 14             	mov    0x14(%ebp),%eax
    a26a:	8b 70 08             	mov    0x8(%eax),%esi
    a26d:	50                   	push   %eax
    a26e:	50                   	push   %eax
    a26f:	8d 45 d8             	lea    -0x28(%ebp),%eax
    a272:	50                   	push   %eax
    a273:	8d 45 dc             	lea    -0x24(%ebp),%eax
    a276:	50                   	push   %eax
    a277:	e8 f4 30 00 00       	call   d370 <async_data_read_receive@plt>
    a27c:	83 c4 10             	add    $0x10,%esp
    a27f:	84 c0                	test   %al,%al
    a281:	0f 84 a9 00 00 00    	je     a330 <remote_usbhid_get_event+0xe0>
    a287:	8b 45 d8             	mov    -0x28(%ebp),%eax
    a28a:	85 c0                	test   %eax,%eax
    a28c:	75 2a                	jne    a2b8 <remote_usbhid_get_event+0x68>
    a28e:	8b 75 dc             	mov    -0x24(%ebp),%esi
    a291:	53                   	push   %ebx
    a292:	53                   	push   %ebx
    a293:	6a f2                	push   $0xfffffff2
    a295:	56                   	push   %esi
    a296:	e8 c5 2e 00 00       	call   d160 <async_answer_0@plt>
    a29b:	5f                   	pop    %edi
    a29c:	58                   	pop    %eax
    a29d:	8b 45 10             	mov    0x10(%ebp),%eax
    a2a0:	6a f2                	push   $0xfffffff2
    a2a2:	50                   	push   %eax
    a2a3:	e8 b8 2e 00 00       	call   d160 <async_answer_0@plt>
    a2a8:	83 c4 10             	add    $0x10,%esp
    a2ab:	8d 65 f4             	lea    -0xc(%ebp),%esp
    a2ae:	5b                   	pop    %ebx
    a2af:	5e                   	pop    %esi
    a2b0:	5f                   	pop    %edi
    a2b1:	5d                   	pop    %ebp
    a2b2:	c3                   	ret    
    a2b3:	90                   	nop
    a2b4:	8d 74 26 00          	lea    0x0(%esi,%eiz,1),%esi
    a2b8:	83 ec 0c             	sub    $0xc,%esp
    a2bb:	50                   	push   %eax
    a2bc:	e8 5f 2e 00 00       	call   d120 <malloc@plt>
    a2c1:	83 c4 10             	add    $0x10,%esp
    a2c4:	89 c7                	mov    %eax,%edi
    a2c6:	85 c0                	test   %eax,%eax
    a2c8:	0f 84 c2 00 00 00    	je     a390 <remote_usbhid_get_event+0x140>
    a2ce:	50                   	push   %eax
    a2cf:	50                   	push   %eax
    a2d0:	8d 45 e4             	lea    -0x1c(%ebp),%eax
    a2d3:	56                   	push   %esi
    a2d4:	50                   	push   %eax
    a2d5:	8d 45 e0             	lea    -0x20(%ebp),%eax
    a2d8:	50                   	push   %eax
    a2d9:	8b 45 d8             	mov    -0x28(%ebp),%eax
    a2dc:	50                   	push   %eax
    a2dd:	8b 45 08             	mov    0x8(%ebp),%eax
    a2e0:	57                   	push   %edi
    a2e1:	50                   	push   %eax
    a2e2:	ff 53 04             	call   *0x4(%ebx)
    a2e5:	83 c4 20             	add    $0x20,%esp
    a2e8:	89 c3                	mov    %eax,%ebx
    a2ea:	85 c0                	test   %eax,%eax
    a2ec:	75 5a                	jne    a348 <remote_usbhid_get_event+0xf8>
    a2ee:	8b 45 e0             	mov    -0x20(%ebp),%eax
    a2f1:	8b 55 d8             	mov    -0x28(%ebp),%edx
    a2f4:	39 d0                	cmp    %edx,%eax
    a2f6:	72 05                	jb     a2fd <remote_usbhid_get_event+0xad>
    a2f8:	89 55 e0             	mov    %edx,-0x20(%ebp)
    a2fb:	89 d0                	mov    %edx,%eax
    a2fd:	8b 4d dc             	mov    -0x24(%ebp),%ecx
    a300:	52                   	push   %edx
    a301:	50                   	push   %eax
    a302:	57                   	push   %edi
    a303:	51                   	push   %ecx
    a304:	e8 d7 2d 00 00       	call   d0e0 <async_data_read_finalize@plt>
    a309:	89 3c 24             	mov    %edi,(%esp)
    a30c:	e8 ff 31 00 00       	call   d510 <free@plt>
    a311:	83 c4 0c             	add    $0xc,%esp
    a314:	8b 5d e4             	mov    -0x1c(%ebp),%ebx
    a317:	8b 75 10             	mov    0x10(%ebp),%esi
    a31a:	53                   	push   %ebx
    a31b:	6a 00                	push   $0x0
    a31d:	56                   	push   %esi
    a31e:	e8 dd 30 00 00       	call   d400 <async_answer_1@plt>
    a323:	83 c4 10             	add    $0x10,%esp
    a326:	8d 65 f4             	lea    -0xc(%ebp),%esp
    a329:	5b                   	pop    %ebx
    a32a:	5e                   	pop    %esi
    a32b:	5f                   	pop    %edi
    a32c:	5d                   	pop    %ebp
    a32d:	c3                   	ret    
    a32e:	66 90                	xchg   %ax,%ax
    a330:	50                   	push   %eax
    a331:	50                   	push   %eax
    a332:	8b 45 10             	mov    0x10(%ebp),%eax
    a335:	6a f8                	push   $0xfffffff8
    a337:	50                   	push   %eax
    a338:	e8 23 2e 00 00       	call   d160 <async_answer_0@plt>
    a33d:	83 c4 10             	add    $0x10,%esp
    a340:	8d 65 f4             	lea    -0xc(%ebp),%esp
    a343:	5b                   	pop    %ebx
    a344:	5e                   	pop    %esi
    a345:	5f                   	pop    %edi
    a346:	5d                   	pop    %ebp
    a347:	c3                   	ret    
    a348:	83 ec 0c             	sub    $0xc,%esp
    a34b:	57                   	push   %edi
    a34c:	e8 bf 31 00 00       	call   d510 <free@plt>
    a351:	5f                   	pop    %edi
    a352:	58                   	pop    %eax
    a353:	8b 45 dc             	mov    -0x24(%ebp),%eax
    a356:	53                   	push   %ebx
    a357:	50                   	push   %eax
    a358:	e8 03 2e 00 00       	call   d160 <async_answer_0@plt>
    a35d:	8b 4d 10             	mov    0x10(%ebp),%ecx
    a360:	58                   	pop    %eax
    a361:	5a                   	pop    %edx
    a362:	53                   	push   %ebx
    a363:	51                   	push   %ecx
    a364:	e8 f7 2d 00 00       	call   d160 <async_answer_0@plt>
    a369:	83 c4 10             	add    $0x10,%esp
    a36c:	e9 3a ff ff ff       	jmp    a2ab <remote_usbhid_get_event+0x5b>
    a371:	8d b4 26 00 00 00 00 	lea    0x0(%esi,%eiz,1),%esi
    a378:	8b 55 10             	mov    0x10(%ebp),%edx
    a37b:	50                   	push   %eax
    a37c:	50                   	push   %eax
    a37d:	6a f5                	push   $0xfffffff5
    a37f:	52                   	push   %edx
    a380:	e8 db 2d 00 00       	call   d160 <async_answer_0@plt>
    a385:	83 c4 10             	add    $0x10,%esp
    a388:	8d 65 f4             	lea    -0xc(%ebp),%esp
    a38b:	5b                   	pop    %ebx
    a38c:	5e                   	pop    %esi
    a38d:	5f                   	pop    %edi
    a38e:	5d                   	pop    %ebp
    a38f:	c3                   	ret    
    a390:	50                   	push   %eax
    a391:	50                   	push   %eax
    a392:	8b 45 dc             	mov    -0x24(%ebp),%eax
    a395:	6a fe                	push   $0xfffffffe
    a397:	50                   	push   %eax
    a398:	e8 c3 2d 00 00       	call   d160 <async_answer_0@plt>
    a39d:	8b 4d 10             	mov    0x10(%ebp),%ecx
    a3a0:	58                   	pop    %eax
    a3a1:	5a                   	pop    %edx
    a3a2:	6a fe                	push   $0xfffffffe
    a3a4:	51                   	push   %ecx
    a3a5:	e8 b6 2d 00 00       	call   d160 <async_answer_0@plt>
    a3aa:	83 c4 10             	add    $0x10,%esp
    a3ad:	e9 f9 fe ff ff       	jmp    a2ab <remote_usbhid_get_event+0x5b>
    a3b2:	8d b4 26 00 00 00 00 	lea    0x0(%esi,%eiz,1),%esi
    a3b9:	8d bc 27 00 00 00 00 	lea    0x0(%edi,%eiz,1),%edi

0000a3c0 <remote_usbhid_get_event_length>:
    a3c0:	55                   	push   %ebp
    a3c1:	89 e5                	mov    %esp,%ebp
    a3c3:	57                   	push   %edi
    a3c4:	56                   	push   %esi
    a3c5:	53                   	push   %ebx
    a3c6:	83 ec 18             	sub    $0x18,%esp
    a3c9:	8b 7d 0c             	mov    0xc(%ebp),%edi
    a3cc:	8b 75 08             	mov    0x8(%ebp),%esi
    a3cf:	68 68 cc 00 00       	push   $0xcc68
    a3d4:	8b 5d 10             	mov    0x10(%ebp),%ebx
    a3d7:	e8 74 2c 00 00       	call   d050 <printf@plt>
    a3dc:	8b 07                	mov    (%edi),%eax
    a3de:	83 c4 10             	add    $0x10,%esp
    a3e1:	85 c0                	test   %eax,%eax
    a3e3:	74 23                	je     a408 <remote_usbhid_get_event_length+0x48>
    a3e5:	83 ec 0c             	sub    $0xc,%esp
    a3e8:	56                   	push   %esi
    a3e9:	ff d0                	call   *%eax
    a3eb:	89 5d 08             	mov    %ebx,0x8(%ebp)
    a3ee:	89 45 10             	mov    %eax,0x10(%ebp)
    a3f1:	c7 45 0c 00 00 00 00 	movl   $0x0,0xc(%ebp)
    a3f8:	83 c4 10             	add    $0x10,%esp
    a3fb:	8d 65 f4             	lea    -0xc(%ebp),%esp
    a3fe:	5b                   	pop    %ebx
    a3ff:	5e                   	pop    %esi
    a400:	5f                   	pop    %edi
    a401:	5d                   	pop    %ebp
    a402:	e9 f9 2f 00 00       	jmp    d400 <async_answer_1@plt>
    a407:	90                   	nop
    a408:	83 ec 0c             	sub    $0xc,%esp
    a40b:	68 8c cc 00 00       	push   $0xcc8c
    a410:	e8 3b 2c 00 00       	call   d050 <printf@plt>
    a415:	89 5d 08             	mov    %ebx,0x8(%ebp)
    a418:	c7 45 0c f5 ff ff ff 	movl   $0xfffffff5,0xc(%ebp)
    a41f:	83 c4 10             	add    $0x10,%esp
    a422:	8d 65 f4             	lea    -0xc(%ebp),%esp
    a425:	5b                   	pop    %ebx
    a426:	5e                   	pop    %esi
    a427:	5f                   	pop    %edi
    a428:	5d                   	pop    %ebp
    a429:	e9 32 2d 00 00       	jmp    d160 <async_answer_0@plt>
    a42e:	66 90                	xchg   %ax,%ax

0000a430 <usbhid_dev_get_event_length>:
    a430:	55                   	push   %ebp
    a431:	89 e5                	mov    %esp,%ebp
    a433:	56                   	push   %esi
    a434:	53                   	push   %ebx
    a435:	83 ec 20             	sub    $0x20,%esp
    a438:	8b 45 08             	mov    0x8(%ebp),%eax
    a43b:	8b 5d 0c             	mov    0xc(%ebp),%ebx
    a43e:	85 c0                	test   %eax,%eax
    a440:	74 56                	je     a498 <usbhid_dev_get_event_length+0x68>
    a442:	83 ec 0c             	sub    $0xc,%esp
    a445:	50                   	push   %eax
    a446:	e8 c5 2f 00 00       	call   d410 <async_exchange_begin@plt>
    a44b:	83 c4 0c             	add    $0xc,%esp
    a44e:	89 c6                	mov    %eax,%esi
    a450:	8d 45 f4             	lea    -0xc(%ebp),%eax
    a453:	6a 00                	push   $0x0
    a455:	6a 00                	push   $0x0
    a457:	6a 00                	push   $0x0
    a459:	6a 00                	push   $0x0
    a45b:	50                   	push   %eax
    a45c:	6a 00                	push   $0x0
    a45e:	6a 00                	push   $0x0
    a460:	6a 00                	push   $0x0
    a462:	6a 00                	push   $0x0
    a464:	68 0a 04 00 00       	push   $0x40a
    a469:	56                   	push   %esi
    a46a:	e8 e1 2c 00 00       	call   d150 <async_req_fast@plt>
    a46f:	83 c4 24             	add    $0x24,%esp
    a472:	89 45 e4             	mov    %eax,-0x1c(%ebp)
    a475:	56                   	push   %esi
    a476:	e8 55 2d 00 00       	call   d1d0 <async_exchange_end@plt>
    a47b:	8b 45 e4             	mov    -0x1c(%ebp),%eax
    a47e:	83 c4 10             	add    $0x10,%esp
    a481:	85 c0                	test   %eax,%eax
    a483:	75 09                	jne    a48e <usbhid_dev_get_event_length+0x5e>
    a485:	85 db                	test   %ebx,%ebx
    a487:	74 05                	je     a48e <usbhid_dev_get_event_length+0x5e>
    a489:	8b 55 f4             	mov    -0xc(%ebp),%edx
    a48c:	89 13                	mov    %edx,(%ebx)
    a48e:	8d 65 f8             	lea    -0x8(%ebp),%esp
    a491:	5b                   	pop    %ebx
    a492:	5e                   	pop    %esi
    a493:	5d                   	pop    %ebp
    a494:	c3                   	ret    
    a495:	8d 76 00             	lea    0x0(%esi),%esi
    a498:	b8 f2 ff ff ff       	mov    $0xfffffff2,%eax
    a49d:	eb ef                	jmp    a48e <usbhid_dev_get_event_length+0x5e>
    a49f:	90                   	nop

0000a4a0 <usbhid_dev_get_event>:
    a4a0:	55                   	push   %ebp
    a4a1:	89 e5                	mov    %esp,%ebp
    a4a3:	57                   	push   %edi
    a4a4:	56                   	push   %esi
    a4a5:	53                   	push   %ebx
    a4a6:	83 ec 6c             	sub    $0x6c,%esp
    a4a9:	8b 75 08             	mov    0x8(%ebp),%esi
    a4ac:	8b 5d 10             	mov    0x10(%ebp),%ebx
    a4af:	85 f6                	test   %esi,%esi
    a4b1:	0f 84 01 01 00 00    	je     a5b8 <usbhid_dev_get_event+0x118>
    a4b7:	8b 45 0c             	mov    0xc(%ebp),%eax
    a4ba:	85 c0                	test   %eax,%eax
    a4bc:	0f 84 12 01 00 00    	je     a5d4 <usbhid_dev_get_event+0x134>
    a4c2:	85 db                	test   %ebx,%ebx
    a4c4:	0f 84 ee 00 00 00    	je     a5b8 <usbhid_dev_get_event+0x118>
    a4ca:	83 ec 0c             	sub    $0xc,%esp
    a4cd:	53                   	push   %ebx
    a4ce:	e8 4d 2c 00 00       	call   d120 <malloc@plt>
    a4d3:	83 c4 10             	add    $0x10,%esp
    a4d6:	89 c7                	mov    %eax,%edi
    a4d8:	85 c0                	test   %eax,%eax
    a4da:	0f 84 f4 00 00 00    	je     a5d4 <usbhid_dev_get_event+0x134>
    a4e0:	83 ec 0c             	sub    $0xc,%esp
    a4e3:	56                   	push   %esi
    a4e4:	e8 27 2f 00 00       	call   d410 <async_exchange_begin@plt>
    a4e9:	83 c4 0c             	add    $0xc,%esp
    a4ec:	89 c6                	mov    %eax,%esi
    a4ee:	8d 45 a0             	lea    -0x60(%ebp),%eax
    a4f1:	50                   	push   %eax
    a4f2:	8b 45 1c             	mov    0x1c(%ebp),%eax
    a4f5:	6a 00                	push   $0x0
    a4f7:	6a 00                	push   $0x0
    a4f9:	50                   	push   %eax
    a4fa:	6a 01                	push   $0x1
    a4fc:	68 0a 04 00 00       	push   $0x40a
    a501:	56                   	push   %esi
    a502:	e8 69 2c 00 00       	call   d170 <async_send_fast@plt>
    a507:	83 c4 20             	add    $0x20,%esp
    a50a:	89 45 94             	mov    %eax,-0x6c(%ebp)
    a50d:	85 c0                	test   %eax,%eax
    a50f:	0f 84 ab 00 00 00    	je     a5c0 <usbhid_dev_get_event+0x120>
    a515:	8d 45 c4             	lea    -0x3c(%ebp),%eax
    a518:	50                   	push   %eax
    a519:	53                   	push   %ebx
    a51a:	57                   	push   %edi
    a51b:	56                   	push   %esi
    a51c:	e8 5f 2c 00 00       	call   d180 <async_data_read@plt>
    a521:	89 34 24             	mov    %esi,(%esp)
    a524:	89 c3                	mov    %eax,%ebx
    a526:	e8 a5 2c 00 00       	call   d1d0 <async_exchange_end@plt>
    a52b:	83 c4 10             	add    $0x10,%esp
    a52e:	85 db                	test   %ebx,%ebx
    a530:	0f 84 aa 00 00 00    	je     a5e0 <usbhid_dev_get_event+0x140>
    a536:	50                   	push   %eax
    a537:	50                   	push   %eax
    a538:	8d 45 98             	lea    -0x68(%ebp),%eax
    a53b:	50                   	push   %eax
    a53c:	53                   	push   %ebx
    a53d:	e8 2e 2b 00 00       	call   d070 <async_wait_for@plt>
    a542:	58                   	pop    %eax
    a543:	8b 4d 94             	mov    -0x6c(%ebp),%ecx
    a546:	8d 45 9c             	lea    -0x64(%ebp),%eax
    a549:	5a                   	pop    %edx
    a54a:	50                   	push   %eax
    a54b:	51                   	push   %ecx
    a54c:	e8 1f 2b 00 00       	call   d070 <async_wait_for@plt>
    a551:	8b 45 98             	mov    -0x68(%ebp),%eax
    a554:	83 c4 10             	add    $0x10,%esp
    a557:	85 c0                	test   %eax,%eax
    a559:	74 15                	je     a570 <usbhid_dev_get_event+0xd0>
    a55b:	8b 55 9c             	mov    -0x64(%ebp),%edx
    a55e:	85 d2                	test   %edx,%edx
    a560:	74 15                	je     a577 <usbhid_dev_get_event+0xd7>
    a562:	8d 65 f4             	lea    -0xc(%ebp),%esp
    a565:	89 d0                	mov    %edx,%eax
    a567:	5b                   	pop    %ebx
    a568:	5e                   	pop    %esi
    a569:	5f                   	pop    %edi
    a56a:	5d                   	pop    %ebp
    a56b:	c3                   	ret    
    a56c:	8d 74 26 00          	lea    0x0(%esi,%eiz,1),%esi
    a570:	8b 45 9c             	mov    -0x64(%ebp),%eax
    a573:	85 c0                	test   %eax,%eax
    a575:	74 09                	je     a580 <usbhid_dev_get_event+0xe0>
    a577:	8d 65 f4             	lea    -0xc(%ebp),%esp
    a57a:	5b                   	pop    %ebx
    a57b:	5e                   	pop    %esi
    a57c:	5f                   	pop    %edi
    a57d:	5d                   	pop    %ebp
    a57e:	c3                   	ret    
    a57f:	90                   	nop
    a580:	8b 5d cc             	mov    -0x34(%ebp),%ebx
    a583:	8b 4d 0c             	mov    0xc(%ebp),%ecx
    a586:	52                   	push   %edx
    a587:	53                   	push   %ebx
    a588:	57                   	push   %edi
    a589:	51                   	push   %ecx
    a58a:	e8 71 2b 00 00       	call   d100 <memcpy@plt>
    a58f:	8b 75 14             	mov    0x14(%ebp),%esi
    a592:	83 c4 10             	add    $0x10,%esp
    a595:	85 f6                	test   %esi,%esi
    a597:	74 05                	je     a59e <usbhid_dev_get_event+0xfe>
    a599:	8b 45 14             	mov    0x14(%ebp),%eax
    a59c:	89 18                	mov    %ebx,(%eax)
    a59e:	8b 45 18             	mov    0x18(%ebp),%eax
    a5a1:	85 c0                	test   %eax,%eax
    a5a3:	74 63                	je     a608 <usbhid_dev_get_event+0x168>
    a5a5:	8b 4d 18             	mov    0x18(%ebp),%ecx
    a5a8:	8b 45 a4             	mov    -0x5c(%ebp),%eax
    a5ab:	89 01                	mov    %eax,(%ecx)
    a5ad:	8d 65 f4             	lea    -0xc(%ebp),%esp
    a5b0:	31 c0                	xor    %eax,%eax
    a5b2:	5b                   	pop    %ebx
    a5b3:	5e                   	pop    %esi
    a5b4:	5f                   	pop    %edi
    a5b5:	5d                   	pop    %ebp
    a5b6:	c3                   	ret    
    a5b7:	90                   	nop
    a5b8:	b8 f2 ff ff ff       	mov    $0xfffffff2,%eax
    a5bd:	eb b8                	jmp    a577 <usbhid_dev_get_event+0xd7>
    a5bf:	90                   	nop
    a5c0:	83 ec 0c             	sub    $0xc,%esp
    a5c3:	56                   	push   %esi
    a5c4:	e8 07 2c 00 00       	call   d1d0 <async_exchange_end@plt>
    a5c9:	89 3c 24             	mov    %edi,(%esp)
    a5cc:	e8 3f 2f 00 00       	call   d510 <free@plt>
    a5d1:	83 c4 10             	add    $0x10,%esp
    a5d4:	b8 fe ff ff ff       	mov    $0xfffffffe,%eax
    a5d9:	eb 9c                	jmp    a577 <usbhid_dev_get_event+0xd7>
    a5db:	90                   	nop
    a5dc:	8d 74 26 00          	lea    0x0(%esi,%eiz,1),%esi
    a5e0:	83 ec 0c             	sub    $0xc,%esp
    a5e3:	8b 5d 94             	mov    -0x6c(%ebp),%ebx
    a5e6:	53                   	push   %ebx
    a5e7:	e8 b4 2e 00 00       	call   d4a0 <async_forget@plt>
    a5ec:	89 3c 24             	mov    %edi,(%esp)
    a5ef:	e8 1c 2f 00 00       	call   d510 <free@plt>
    a5f4:	83 c4 10             	add    $0x10,%esp
    a5f7:	b8 fe ff ff ff       	mov    $0xfffffffe,%eax
    a5fc:	e9 76 ff ff ff       	jmp    a577 <usbhid_dev_get_event+0xd7>
    a601:	8d b4 26 00 00 00 00 	lea    0x0(%esi,%eiz,1),%esi
    a608:	31 c0                	xor    %eax,%eax
    a60a:	e9 68 ff ff ff       	jmp    a577 <usbhid_dev_get_event+0xd7>
    a60f:	90                   	nop

0000a610 <usbhid_dev_get_report_descriptor_length>:
    a610:	55                   	push   %ebp
    a611:	89 e5                	mov    %esp,%ebp
    a613:	56                   	push   %esi
    a614:	53                   	push   %ebx
    a615:	83 ec 20             	sub    $0x20,%esp
    a618:	8b 45 08             	mov    0x8(%ebp),%eax
    a61b:	8b 5d 0c             	mov    0xc(%ebp),%ebx
    a61e:	85 c0                	test   %eax,%eax
    a620:	74 56                	je     a678 <usbhid_dev_get_report_descriptor_length+0x68>
    a622:	83 ec 0c             	sub    $0xc,%esp
    a625:	50                   	push   %eax
    a626:	e8 e5 2d 00 00       	call   d410 <async_exchange_begin@plt>
    a62b:	83 c4 0c             	add    $0xc,%esp
    a62e:	89 c6                	mov    %eax,%esi
    a630:	8d 45 f4             	lea    -0xc(%ebp),%eax
    a633:	6a 00                	push   $0x0
    a635:	6a 00                	push   $0x0
    a637:	6a 00                	push   $0x0
    a639:	6a 00                	push   $0x0
    a63b:	50                   	push   %eax
    a63c:	6a 00                	push   $0x0
    a63e:	6a 00                	push   $0x0
    a640:	6a 00                	push   $0x0
    a642:	6a 02                	push   $0x2
    a644:	68 0a 04 00 00       	push   $0x40a
    a649:	56                   	push   %esi
    a64a:	e8 01 2b 00 00       	call   d150 <async_req_fast@plt>
    a64f:	83 c4 24             	add    $0x24,%esp
    a652:	89 45 e4             	mov    %eax,-0x1c(%ebp)
    a655:	56                   	push   %esi
    a656:	e8 75 2b 00 00       	call   d1d0 <async_exchange_end@plt>
    a65b:	8b 45 e4             	mov    -0x1c(%ebp),%eax
    a65e:	83 c4 10             	add    $0x10,%esp
    a661:	85 c0                	test   %eax,%eax
    a663:	75 09                	jne    a66e <usbhid_dev_get_report_descriptor_length+0x5e>
    a665:	85 db                	test   %ebx,%ebx
    a667:	74 05                	je     a66e <usbhid_dev_get_report_descriptor_length+0x5e>
    a669:	8b 55 f4             	mov    -0xc(%ebp),%edx
    a66c:	89 13                	mov    %edx,(%ebx)
    a66e:	8d 65 f8             	lea    -0x8(%ebp),%esp
    a671:	5b                   	pop    %ebx
    a672:	5e                   	pop    %esi
    a673:	5d                   	pop    %ebp
    a674:	c3                   	ret    
    a675:	8d 76 00             	lea    0x0(%esi),%esi
    a678:	b8 f2 ff ff ff       	mov    $0xfffffff2,%eax
    a67d:	eb ef                	jmp    a66e <usbhid_dev_get_report_descriptor_length+0x5e>
    a67f:	90                   	nop

0000a680 <usbhid_dev_get_report_descriptor>:
    a680:	55                   	push   %ebp
    a681:	89 e5                	mov    %esp,%ebp
    a683:	57                   	push   %edi
    a684:	56                   	push   %esi
    a685:	53                   	push   %ebx
    a686:	83 ec 3c             	sub    $0x3c,%esp
    a689:	8b 45 08             	mov    0x8(%ebp),%eax
    a68c:	8b 5d 0c             	mov    0xc(%ebp),%ebx
    a68f:	85 c0                	test   %eax,%eax
    a691:	0f 84 c1 00 00 00    	je     a758 <usbhid_dev_get_report_descriptor+0xd8>
    a697:	85 db                	test   %ebx,%ebx
    a699:	0f 84 f5 00 00 00    	je     a794 <usbhid_dev_get_report_descriptor+0x114>
    a69f:	8b 55 10             	mov    0x10(%ebp),%edx
    a6a2:	85 d2                	test   %edx,%edx
    a6a4:	0f 84 ae 00 00 00    	je     a758 <usbhid_dev_get_report_descriptor+0xd8>
    a6aa:	83 ec 0c             	sub    $0xc,%esp
    a6ad:	50                   	push   %eax
    a6ae:	e8 5d 2d 00 00       	call   d410 <async_exchange_begin@plt>
    a6b3:	83 c4 0c             	add    $0xc,%esp
    a6b6:	89 c6                	mov    %eax,%esi
    a6b8:	6a 00                	push   $0x0
    a6ba:	6a 00                	push   $0x0
    a6bc:	6a 00                	push   $0x0
    a6be:	6a 00                	push   $0x0
    a6c0:	6a 03                	push   $0x3
    a6c2:	68 0a 04 00 00       	push   $0x40a
    a6c7:	50                   	push   %eax
    a6c8:	e8 a3 2a 00 00       	call   d170 <async_send_fast@plt>
    a6cd:	83 c4 20             	add    $0x20,%esp
    a6d0:	89 c7                	mov    %eax,%edi
    a6d2:	85 c0                	test   %eax,%eax
    a6d4:	0f 84 86 00 00 00    	je     a760 <usbhid_dev_get_report_descriptor+0xe0>
    a6da:	8d 45 c4             	lea    -0x3c(%ebp),%eax
    a6dd:	50                   	push   %eax
    a6de:	8b 45 10             	mov    0x10(%ebp),%eax
    a6e1:	50                   	push   %eax
    a6e2:	53                   	push   %ebx
    a6e3:	56                   	push   %esi
    a6e4:	e8 97 2a 00 00       	call   d180 <async_data_read@plt>
    a6e9:	89 c3                	mov    %eax,%ebx
    a6eb:	89 34 24             	mov    %esi,(%esp)
    a6ee:	e8 dd 2a 00 00       	call   d1d0 <async_exchange_end@plt>
    a6f3:	83 c4 10             	add    $0x10,%esp
    a6f6:	85 db                	test   %ebx,%ebx
    a6f8:	74 7e                	je     a778 <usbhid_dev_get_report_descriptor+0xf8>
    a6fa:	8d 45 bc             	lea    -0x44(%ebp),%eax
    a6fd:	51                   	push   %ecx
    a6fe:	51                   	push   %ecx
    a6ff:	50                   	push   %eax
    a700:	53                   	push   %ebx
    a701:	e8 6a 29 00 00       	call   d070 <async_wait_for@plt>
    a706:	8d 45 c0             	lea    -0x40(%ebp),%eax
    a709:	5b                   	pop    %ebx
    a70a:	5e                   	pop    %esi
    a70b:	50                   	push   %eax
    a70c:	57                   	push   %edi
    a70d:	e8 5e 29 00 00       	call   d070 <async_wait_for@plt>
    a712:	8b 45 bc             	mov    -0x44(%ebp),%eax
    a715:	83 c4 10             	add    $0x10,%esp
    a718:	85 c0                	test   %eax,%eax
    a71a:	75 24                	jne    a740 <usbhid_dev_get_report_descriptor+0xc0>
    a71c:	8b 45 c0             	mov    -0x40(%ebp),%eax
    a71f:	85 c0                	test   %eax,%eax
    a721:	75 11                	jne    a734 <usbhid_dev_get_report_descriptor+0xb4>
    a723:	8b 55 14             	mov    0x14(%ebp),%edx
    a726:	8b 45 cc             	mov    -0x34(%ebp),%eax
    a729:	85 d2                	test   %edx,%edx
    a72b:	74 63                	je     a790 <usbhid_dev_get_report_descriptor+0x110>
    a72d:	8b 4d 14             	mov    0x14(%ebp),%ecx
    a730:	89 01                	mov    %eax,(%ecx)
    a732:	31 c0                	xor    %eax,%eax
    a734:	8d 65 f4             	lea    -0xc(%ebp),%esp
    a737:	5b                   	pop    %ebx
    a738:	5e                   	pop    %esi
    a739:	5f                   	pop    %edi
    a73a:	5d                   	pop    %ebp
    a73b:	c3                   	ret    
    a73c:	8d 74 26 00          	lea    0x0(%esi,%eiz,1),%esi
    a740:	8b 55 c0             	mov    -0x40(%ebp),%edx
    a743:	85 d2                	test   %edx,%edx
    a745:	74 ed                	je     a734 <usbhid_dev_get_report_descriptor+0xb4>
    a747:	8d 65 f4             	lea    -0xc(%ebp),%esp
    a74a:	89 d0                	mov    %edx,%eax
    a74c:	5b                   	pop    %ebx
    a74d:	5e                   	pop    %esi
    a74e:	5f                   	pop    %edi
    a74f:	5d                   	pop    %ebp
    a750:	c3                   	ret    
    a751:	8d b4 26 00 00 00 00 	lea    0x0(%esi,%eiz,1),%esi
    a758:	b8 f2 ff ff ff       	mov    $0xfffffff2,%eax
    a75d:	eb d5                	jmp    a734 <usbhid_dev_get_report_descriptor+0xb4>
    a75f:	90                   	nop
    a760:	83 ec 0c             	sub    $0xc,%esp
    a763:	56                   	push   %esi
    a764:	e8 67 2a 00 00       	call   d1d0 <async_exchange_end@plt>
    a769:	83 c4 10             	add    $0x10,%esp
    a76c:	b8 fe ff ff ff       	mov    $0xfffffffe,%eax
    a771:	eb c1                	jmp    a734 <usbhid_dev_get_report_descriptor+0xb4>
    a773:	90                   	nop
    a774:	8d 74 26 00          	lea    0x0(%esi,%eiz,1),%esi
    a778:	83 ec 0c             	sub    $0xc,%esp
    a77b:	57                   	push   %edi
    a77c:	e8 1f 2d 00 00       	call   d4a0 <async_forget@plt>
    a781:	83 c4 10             	add    $0x10,%esp
    a784:	b8 fe ff ff ff       	mov    $0xfffffffe,%eax
    a789:	eb a9                	jmp    a734 <usbhid_dev_get_report_descriptor+0xb4>
    a78b:	90                   	nop
    a78c:	8d 74 26 00          	lea    0x0(%esi,%eiz,1),%esi
    a790:	31 c0                	xor    %eax,%eax
    a792:	eb a0                	jmp    a734 <usbhid_dev_get_report_descriptor+0xb4>
    a794:	b8 fe ff ff ff       	mov    $0xfffffffe,%eax
    a799:	eb 99                	jmp    a734 <usbhid_dev_get_report_descriptor+0xb4>
    a79b:	66 90                	xchg   %ax,%ax
    a79d:	66 90                	xchg   %ax,%ax
    a79f:	90                   	nop

0000a7a0 <remote_clock_time_set>:
    a7a0:	55                   	push   %ebp
    a7a1:	89 e5                	mov    %esp,%ebp
    a7a3:	56                   	push   %esi
    a7a4:	53                   	push   %ebx
    a7a5:	83 ec 38             	sub    $0x38,%esp
    a7a8:	8d 45 cc             	lea    -0x34(%ebp),%eax
    a7ab:	8b 5d 0c             	mov    0xc(%ebp),%ebx
    a7ae:	50                   	push   %eax
    a7af:	8d 45 c8             	lea    -0x38(%ebp),%eax
    a7b2:	50                   	push   %eax
    a7b3:	e8 48 2d 00 00       	call   d500 <async_data_write_receive@plt>
    a7b8:	83 c4 10             	add    $0x10,%esp
    a7bb:	84 c0                	test   %al,%al
    a7bd:	74 39                	je     a7f8 <remote_clock_time_set+0x58>
    a7bf:	8b 73 04             	mov    0x4(%ebx),%esi
    a7c2:	85 f6                	test   %esi,%esi
    a7c4:	74 4a                	je     a810 <remote_clock_time_set+0x70>
    a7c6:	8b 55 c8             	mov    -0x38(%ebp),%edx
    a7c9:	8d 75 d0             	lea    -0x30(%ebp),%esi
    a7cc:	50                   	push   %eax
    a7cd:	6a 28                	push   $0x28
    a7cf:	56                   	push   %esi
    a7d0:	52                   	push   %edx
    a7d1:	e8 aa 2c 00 00       	call   d480 <async_data_write_finalize@plt>
    a7d6:	59                   	pop    %ecx
    a7d7:	58                   	pop    %eax
    a7d8:	8b 45 08             	mov    0x8(%ebp),%eax
    a7db:	56                   	push   %esi
    a7dc:	50                   	push   %eax
    a7dd:	ff 53 04             	call   *0x4(%ebx)
    a7e0:	8b 5d 10             	mov    0x10(%ebp),%ebx
    a7e3:	5a                   	pop    %edx
    a7e4:	59                   	pop    %ecx
    a7e5:	50                   	push   %eax
    a7e6:	53                   	push   %ebx
    a7e7:	e8 74 29 00 00       	call   d160 <async_answer_0@plt>
    a7ec:	83 c4 10             	add    $0x10,%esp
    a7ef:	8d 65 f8             	lea    -0x8(%ebp),%esp
    a7f2:	5b                   	pop    %ebx
    a7f3:	5e                   	pop    %esi
    a7f4:	5d                   	pop    %ebp
    a7f5:	c3                   	ret    
    a7f6:	66 90                	xchg   %ax,%ax
    a7f8:	50                   	push   %eax
    a7f9:	50                   	push   %eax
    a7fa:	8b 45 10             	mov    0x10(%ebp),%eax
    a7fd:	6a f2                	push   $0xfffffff2
    a7ff:	50                   	push   %eax
    a800:	e8 5b 29 00 00       	call   d160 <async_answer_0@plt>
    a805:	83 c4 10             	add    $0x10,%esp
    a808:	8d 65 f8             	lea    -0x8(%ebp),%esp
    a80b:	5b                   	pop    %ebx
    a80c:	5e                   	pop    %esi
    a80d:	5d                   	pop    %ebp
    a80e:	c3                   	ret    
    a80f:	90                   	nop
    a810:	8b 45 c8             	mov    -0x38(%ebp),%eax
    a813:	56                   	push   %esi
    a814:	56                   	push   %esi
    a815:	6a f5                	push   $0xfffffff5
    a817:	50                   	push   %eax
    a818:	e8 43 29 00 00       	call   d160 <async_answer_0@plt>
    a81d:	8b 4d 10             	mov    0x10(%ebp),%ecx
    a820:	58                   	pop    %eax
    a821:	5a                   	pop    %edx
    a822:	6a f5                	push   $0xfffffff5
    a824:	51                   	push   %ecx
    a825:	e8 36 29 00 00       	call   d160 <async_answer_0@plt>
    a82a:	83 c4 10             	add    $0x10,%esp
    a82d:	8d 65 f8             	lea    -0x8(%ebp),%esp
    a830:	5b                   	pop    %ebx
    a831:	5e                   	pop    %esi
    a832:	5d                   	pop    %ebp
    a833:	c3                   	ret    
    a834:	8d b6 00 00 00 00    	lea    0x0(%esi),%esi
    a83a:	8d bf 00 00 00 00    	lea    0x0(%edi),%edi

0000a840 <remote_clock_time_get>:
    a840:	55                   	push   %ebp
    a841:	89 e5                	mov    %esp,%ebp
    a843:	56                   	push   %esi
    a844:	53                   	push   %ebx
    a845:	83 ec 38             	sub    $0x38,%esp
    a848:	8d 45 cc             	lea    -0x34(%ebp),%eax
    a84b:	50                   	push   %eax
    a84c:	8d 45 c8             	lea    -0x38(%ebp),%eax
    a84f:	50                   	push   %eax
    a850:	e8 1b 2b 00 00       	call   d370 <async_data_read_receive@plt>
    a855:	83 c4 10             	add    $0x10,%esp
    a858:	84 c0                	test   %al,%al
    a85a:	74 6c                	je     a8c8 <remote_clock_time_get+0x88>
    a85c:	8b 45 0c             	mov    0xc(%ebp),%eax
    a85f:	8b 00                	mov    (%eax),%eax
    a861:	85 c0                	test   %eax,%eax
    a863:	74 7b                	je     a8e0 <remote_clock_time_get+0xa0>
    a865:	8b 55 08             	mov    0x8(%ebp),%edx
    a868:	8d 75 d0             	lea    -0x30(%ebp),%esi
    a86b:	53                   	push   %ebx
    a86c:	53                   	push   %ebx
    a86d:	56                   	push   %esi
    a86e:	52                   	push   %edx
    a86f:	ff d0                	call   *%eax
    a871:	83 c4 10             	add    $0x10,%esp
    a874:	89 c3                	mov    %eax,%ebx
    a876:	85 c0                	test   %eax,%eax
    a878:	74 26                	je     a8a0 <remote_clock_time_get+0x60>
    a87a:	50                   	push   %eax
    a87b:	50                   	push   %eax
    a87c:	8b 45 c8             	mov    -0x38(%ebp),%eax
    a87f:	53                   	push   %ebx
    a880:	50                   	push   %eax
    a881:	e8 da 28 00 00       	call   d160 <async_answer_0@plt>
    a886:	8b 4d 10             	mov    0x10(%ebp),%ecx
    a889:	58                   	pop    %eax
    a88a:	5a                   	pop    %edx
    a88b:	53                   	push   %ebx
    a88c:	51                   	push   %ecx
    a88d:	e8 ce 28 00 00       	call   d160 <async_answer_0@plt>
    a892:	83 c4 10             	add    $0x10,%esp
    a895:	8d 65 f8             	lea    -0x8(%ebp),%esp
    a898:	5b                   	pop    %ebx
    a899:	5e                   	pop    %esi
    a89a:	5d                   	pop    %ebp
    a89b:	c3                   	ret    
    a89c:	8d 74 26 00          	lea    0x0(%esi,%eiz,1),%esi
    a8a0:	8b 55 c8             	mov    -0x38(%ebp),%edx
    a8a3:	50                   	push   %eax
    a8a4:	6a 28                	push   $0x28
    a8a6:	56                   	push   %esi
    a8a7:	52                   	push   %edx
    a8a8:	e8 33 28 00 00       	call   d0e0 <async_data_read_finalize@plt>
    a8ad:	8b 75 10             	mov    0x10(%ebp),%esi
    a8b0:	59                   	pop    %ecx
    a8b1:	5b                   	pop    %ebx
    a8b2:	6a 00                	push   $0x0
    a8b4:	56                   	push   %esi
    a8b5:	e8 a6 28 00 00       	call   d160 <async_answer_0@plt>
    a8ba:	83 c4 10             	add    $0x10,%esp
    a8bd:	8d 65 f8             	lea    -0x8(%ebp),%esp
    a8c0:	5b                   	pop    %ebx
    a8c1:	5e                   	pop    %esi
    a8c2:	5d                   	pop    %ebp
    a8c3:	c3                   	ret    
    a8c4:	8d 74 26 00          	lea    0x0(%esi,%eiz,1),%esi
    a8c8:	50                   	push   %eax
    a8c9:	50                   	push   %eax
    a8ca:	8b 45 10             	mov    0x10(%ebp),%eax
    a8cd:	6a f2                	push   $0xfffffff2
    a8cf:	50                   	push   %eax
    a8d0:	e8 8b 28 00 00       	call   d160 <async_answer_0@plt>
    a8d5:	83 c4 10             	add    $0x10,%esp
    a8d8:	8d 65 f8             	lea    -0x8(%ebp),%esp
    a8db:	5b                   	pop    %ebx
    a8dc:	5e                   	pop    %esi
    a8dd:	5d                   	pop    %ebp
    a8de:	c3                   	ret    
    a8df:	90                   	nop
    a8e0:	8b 5d c8             	mov    -0x38(%ebp),%ebx
    a8e3:	51                   	push   %ecx
    a8e4:	51                   	push   %ecx
    a8e5:	6a f5                	push   $0xfffffff5
    a8e7:	53                   	push   %ebx
    a8e8:	e8 73 28 00 00       	call   d160 <async_answer_0@plt>
    a8ed:	5e                   	pop    %esi
    a8ee:	58                   	pop    %eax
    a8ef:	8b 45 10             	mov    0x10(%ebp),%eax
    a8f2:	6a f5                	push   $0xfffffff5
    a8f4:	50                   	push   %eax
    a8f5:	e8 66 28 00 00       	call   d160 <async_answer_0@plt>
    a8fa:	83 c4 10             	add    $0x10,%esp
    a8fd:	8d 65 f8             	lea    -0x8(%ebp),%esp
    a900:	5b                   	pop    %ebx
    a901:	5e                   	pop    %esi
    a902:	5d                   	pop    %ebp
    a903:	c3                   	ret    
    a904:	66 90                	xchg   %ax,%ax
    a906:	66 90                	xchg   %ax,%ax
    a908:	66 90                	xchg   %ax,%ax
    a90a:	66 90                	xchg   %ax,%ax
    a90c:	66 90                	xchg   %ax,%ax
    a90e:	66 90                	xchg   %ax,%ax

0000a910 <remote_led_color_set>:
    a910:	55                   	push   %ebp
    a911:	89 e5                	mov    %esp,%ebp
    a913:	53                   	push   %ebx
    a914:	50                   	push   %eax
    a915:	8b 45 14             	mov    0x14(%ebp),%eax
    a918:	8b 55 08             	mov    0x8(%ebp),%edx
    a91b:	8b 5d 10             	mov    0x10(%ebp),%ebx
    a91e:	8b 48 08             	mov    0x8(%eax),%ecx
    a921:	8b 45 0c             	mov    0xc(%ebp),%eax
    a924:	8b 00                	mov    (%eax),%eax
    a926:	85 c0                	test   %eax,%eax
    a928:	74 1e                	je     a948 <remote_led_color_set+0x38>
    a92a:	83 ec 08             	sub    $0x8,%esp
    a92d:	51                   	push   %ecx
    a92e:	52                   	push   %edx
    a92f:	ff d0                	call   *%eax
    a931:	89 5d 08             	mov    %ebx,0x8(%ebp)
    a934:	83 c4 10             	add    $0x10,%esp
    a937:	8b 5d fc             	mov    -0x4(%ebp),%ebx
    a93a:	89 45 0c             	mov    %eax,0xc(%ebp)
    a93d:	c9                   	leave  
    a93e:	e9 1d 28 00 00       	jmp    d160 <async_answer_0@plt>
    a943:	90                   	nop
    a944:	8d 74 26 00          	lea    0x0(%esi,%eiz,1),%esi
    a948:	89 5d 08             	mov    %ebx,0x8(%ebp)
    a94b:	8b 5d fc             	mov    -0x4(%ebp),%ebx
    a94e:	c7 45 0c f5 ff ff ff 	movl   $0xfffffff5,0xc(%ebp)
    a955:	c9                   	leave  
    a956:	e9 05 28 00 00       	jmp    d160 <async_answer_0@plt>
    a95b:	66 90                	xchg   %ax,%ax
    a95d:	66 90                	xchg   %ax,%ax
    a95f:	90                   	nop

0000a960 <remote_battery_charge_level_get>:
    a960:	55                   	push   %ebp
    a961:	89 e5                	mov    %esp,%ebp
    a963:	83 ec 18             	sub    $0x18,%esp
    a966:	8b 45 0c             	mov    0xc(%ebp),%eax
    a969:	8b 40 04             	mov    0x4(%eax),%eax
    a96c:	85 c0                	test   %eax,%eax
    a96e:	74 40                	je     a9b0 <remote_battery_charge_level_get+0x50>
    a970:	8b 4d 08             	mov    0x8(%ebp),%ecx
    a973:	52                   	push   %edx
    a974:	52                   	push   %edx
    a975:	8d 55 f4             	lea    -0xc(%ebp),%edx
    a978:	52                   	push   %edx
    a979:	51                   	push   %ecx
    a97a:	ff d0                	call   *%eax
    a97c:	83 c4 10             	add    $0x10,%esp
    a97f:	85 c0                	test   %eax,%eax
    a981:	74 15                	je     a998 <remote_battery_charge_level_get+0x38>
    a983:	8b 4d 10             	mov    0x10(%ebp),%ecx
    a986:	52                   	push   %edx
    a987:	52                   	push   %edx
    a988:	50                   	push   %eax
    a989:	51                   	push   %ecx
    a98a:	e8 d1 27 00 00       	call   d160 <async_answer_0@plt>
    a98f:	83 c4 10             	add    $0x10,%esp
    a992:	c9                   	leave  
    a993:	c3                   	ret    
    a994:	8d 74 26 00          	lea    0x0(%esi,%eiz,1),%esi
    a998:	8b 55 f4             	mov    -0xc(%ebp),%edx
    a99b:	8b 4d 10             	mov    0x10(%ebp),%ecx
    a99e:	50                   	push   %eax
    a99f:	52                   	push   %edx
    a9a0:	6a 00                	push   $0x0
    a9a2:	51                   	push   %ecx
    a9a3:	e8 58 2a 00 00       	call   d400 <async_answer_1@plt>
    a9a8:	83 c4 10             	add    $0x10,%esp
    a9ab:	c9                   	leave  
    a9ac:	c3                   	ret    
    a9ad:	8d 76 00             	lea    0x0(%esi),%esi
    a9b0:	50                   	push   %eax
    a9b1:	50                   	push   %eax
    a9b2:	8b 45 10             	mov    0x10(%ebp),%eax
    a9b5:	6a f5                	push   $0xfffffff5
    a9b7:	50                   	push   %eax
    a9b8:	e8 a3 27 00 00       	call   d160 <async_answer_0@plt>
    a9bd:	83 c4 10             	add    $0x10,%esp
    a9c0:	c9                   	leave  
    a9c1:	c3                   	ret    
    a9c2:	8d b4 26 00 00 00 00 	lea    0x0(%esi,%eiz,1),%esi
    a9c9:	8d bc 27 00 00 00 00 	lea    0x0(%edi,%eiz,1),%edi

0000a9d0 <remote_battery_status_get>:
    a9d0:	55                   	push   %ebp
    a9d1:	89 e5                	mov    %esp,%ebp
    a9d3:	83 ec 18             	sub    $0x18,%esp
    a9d6:	8b 45 0c             	mov    0xc(%ebp),%eax
    a9d9:	8b 00                	mov    (%eax),%eax
    a9db:	85 c0                	test   %eax,%eax
    a9dd:	74 41                	je     aa20 <remote_battery_status_get+0x50>
    a9df:	8b 4d 08             	mov    0x8(%ebp),%ecx
    a9e2:	52                   	push   %edx
    a9e3:	52                   	push   %edx
    a9e4:	8d 55 f4             	lea    -0xc(%ebp),%edx
    a9e7:	52                   	push   %edx
    a9e8:	51                   	push   %ecx
    a9e9:	ff d0                	call   *%eax
    a9eb:	83 c4 10             	add    $0x10,%esp
    a9ee:	85 c0                	test   %eax,%eax
    a9f0:	74 16                	je     aa08 <remote_battery_status_get+0x38>
    a9f2:	8b 4d 10             	mov    0x10(%ebp),%ecx
    a9f5:	52                   	push   %edx
    a9f6:	52                   	push   %edx
    a9f7:	50                   	push   %eax
    a9f8:	51                   	push   %ecx
    a9f9:	e8 62 27 00 00       	call   d160 <async_answer_0@plt>
    a9fe:	83 c4 10             	add    $0x10,%esp
    aa01:	c9                   	leave  
    aa02:	c3                   	ret    
    aa03:	90                   	nop
    aa04:	8d 74 26 00          	lea    0x0(%esi,%eiz,1),%esi
    aa08:	8b 55 f4             	mov    -0xc(%ebp),%edx
    aa0b:	8b 4d 10             	mov    0x10(%ebp),%ecx
    aa0e:	50                   	push   %eax
    aa0f:	52                   	push   %edx
    aa10:	6a 00                	push   $0x0
    aa12:	51                   	push   %ecx
    aa13:	e8 e8 29 00 00       	call   d400 <async_answer_1@plt>
    aa18:	83 c4 10             	add    $0x10,%esp
    aa1b:	c9                   	leave  
    aa1c:	c3                   	ret    
    aa1d:	8d 76 00             	lea    0x0(%esi),%esi
    aa20:	50                   	push   %eax
    aa21:	50                   	push   %eax
    aa22:	8b 45 10             	mov    0x10(%ebp),%eax
    aa25:	6a f5                	push   $0xfffffff5
    aa27:	50                   	push   %eax
    aa28:	e8 33 27 00 00       	call   d160 <async_answer_0@plt>
    aa2d:	83 c4 10             	add    $0x10,%esp
    aa30:	c9                   	leave  
    aa31:	c3                   	ret    
    aa32:	8d b4 26 00 00 00 00 	lea    0x0(%esi,%eiz,1),%esi
    aa39:	8d bc 27 00 00 00 00 	lea    0x0(%edi,%eiz,1),%edi

0000aa40 <battery_status_get>:
    aa40:	55                   	push   %ebp
    aa41:	89 e5                	mov    %esp,%ebp
    aa43:	53                   	push   %ebx
    aa44:	83 ec 30             	sub    $0x30,%esp
    aa47:	8b 45 08             	mov    0x8(%ebp),%eax
    aa4a:	50                   	push   %eax
    aa4b:	e8 c0 29 00 00       	call   d410 <async_exchange_begin@plt>
    aa50:	83 c4 0c             	add    $0xc,%esp
    aa53:	89 c3                	mov    %eax,%ebx
    aa55:	8d 45 f4             	lea    -0xc(%ebp),%eax
    aa58:	6a 00                	push   $0x0
    aa5a:	6a 00                	push   $0x0
    aa5c:	6a 00                	push   $0x0
    aa5e:	6a 00                	push   $0x0
    aa60:	50                   	push   %eax
    aa61:	6a 00                	push   $0x0
    aa63:	6a 00                	push   $0x0
    aa65:	6a 00                	push   $0x0
    aa67:	6a 00                	push   $0x0
    aa69:	68 0d 04 00 00       	push   $0x40d
    aa6e:	53                   	push   %ebx
    aa6f:	e8 dc 26 00 00       	call   d150 <async_req_fast@plt>
    aa74:	83 c4 24             	add    $0x24,%esp
    aa77:	89 45 e4             	mov    %eax,-0x1c(%ebp)
    aa7a:	53                   	push   %ebx
    aa7b:	e8 50 27 00 00       	call   d1d0 <async_exchange_end@plt>
    aa80:	8b 45 e4             	mov    -0x1c(%ebp),%eax
    aa83:	83 c4 10             	add    $0x10,%esp
    aa86:	85 c0                	test   %eax,%eax
    aa88:	75 08                	jne    aa92 <battery_status_get+0x52>
    aa8a:	8b 55 0c             	mov    0xc(%ebp),%edx
    aa8d:	8b 4d f4             	mov    -0xc(%ebp),%ecx
    aa90:	89 0a                	mov    %ecx,(%edx)
    aa92:	8b 5d fc             	mov    -0x4(%ebp),%ebx
    aa95:	c9                   	leave  
    aa96:	c3                   	ret    
    aa97:	89 f6                	mov    %esi,%esi
    aa99:	8d bc 27 00 00 00 00 	lea    0x0(%edi,%eiz,1),%edi

0000aaa0 <battery_charge_level_get>:
    aaa0:	55                   	push   %ebp
    aaa1:	89 e5                	mov    %esp,%ebp
    aaa3:	53                   	push   %ebx
    aaa4:	83 ec 30             	sub    $0x30,%esp
    aaa7:	8b 45 08             	mov    0x8(%ebp),%eax
    aaaa:	50                   	push   %eax
    aaab:	e8 60 29 00 00       	call   d410 <async_exchange_begin@plt>
    aab0:	83 c4 0c             	add    $0xc,%esp
    aab3:	89 c3                	mov    %eax,%ebx
    aab5:	8d 45 f4             	lea    -0xc(%ebp),%eax
    aab8:	6a 00                	push   $0x0
    aaba:	6a 00                	push   $0x0
    aabc:	6a 00                	push   $0x0
    aabe:	6a 00                	push   $0x0
    aac0:	50                   	push   %eax
    aac1:	6a 00                	push   $0x0
    aac3:	6a 00                	push   $0x0
    aac5:	6a 00                	push   $0x0
    aac7:	6a 01                	push   $0x1
    aac9:	68 0d 04 00 00       	push   $0x40d
    aace:	53                   	push   %ebx
    aacf:	e8 7c 26 00 00       	call   d150 <async_req_fast@plt>
    aad4:	83 c4 24             	add    $0x24,%esp
    aad7:	89 45 e4             	mov    %eax,-0x1c(%ebp)
    aada:	53                   	push   %ebx
    aadb:	e8 f0 26 00 00       	call   d1d0 <async_exchange_end@plt>
    aae0:	8b 45 e4             	mov    -0x1c(%ebp),%eax
    aae3:	83 c4 10             	add    $0x10,%esp
    aae6:	85 c0                	test   %eax,%eax
    aae8:	75 08                	jne    aaf2 <battery_charge_level_get+0x52>
    aaea:	8b 55 0c             	mov    0xc(%ebp),%edx
    aaed:	8b 4d f4             	mov    -0xc(%ebp),%ecx
    aaf0:	89 0a                	mov    %ecx,(%edx)
    aaf2:	8b 5d fc             	mov    -0x4(%ebp),%ebx
    aaf5:	c9                   	leave  
    aaf6:	c3                   	ret    
    aaf7:	66 90                	xchg   %ax,%ax
    aaf9:	66 90                	xchg   %ax,%ax
    aafb:	66 90                	xchg   %ax,%ax
    aafd:	66 90                	xchg   %ax,%ax
    aaff:	90                   	nop

0000ab00 <remote_ahci_write_blocks>:
    ab00:	55                   	push   %ebp
    ab01:	89 e5                	mov    %esp,%ebp
    ab03:	56                   	push   %esi
    ab04:	53                   	push   %ebx
    ab05:	83 ec 10             	sub    $0x10,%esp
    ab08:	8b 75 0c             	mov    0xc(%ebp),%esi
    ab0b:	8b 5d 14             	mov    0x14(%ebp),%ebx
    ab0e:	8b 46 0c             	mov    0xc(%esi),%eax
    ab11:	85 c0                	test   %eax,%eax
    ab13:	74 53                	je     ab68 <remote_ahci_write_blocks+0x68>
    ab15:	50                   	push   %eax
    ab16:	8d 45 ec             	lea    -0x14(%ebp),%eax
    ab19:	50                   	push   %eax
    ab1a:	8d 45 e8             	lea    -0x18(%ebp),%eax
    ab1d:	50                   	push   %eax
    ab1e:	8d 45 f0             	lea    -0x10(%ebp),%eax
    ab21:	50                   	push   %eax
    ab22:	e8 19 26 00 00       	call   d140 <async_share_out_receive@plt>
    ab27:	8d 45 f4             	lea    -0xc(%ebp),%eax
    ab2a:	5a                   	pop    %edx
    ab2b:	59                   	pop    %ecx
    ab2c:	50                   	push   %eax
    ab2d:	8b 45 f0             	mov    -0x10(%ebp),%eax
    ab30:	50                   	push   %eax
    ab31:	e8 1a 27 00 00       	call   d250 <async_share_out_finalize@plt>
    ab36:	58                   	pop    %eax
    ab37:	8b 45 f4             	mov    -0xc(%ebp),%eax
    ab3a:	50                   	push   %eax
    ab3b:	8b 43 10             	mov    0x10(%ebx),%eax
    ab3e:	50                   	push   %eax
    ab3f:	8b 43 0c             	mov    0xc(%ebx),%eax
    ab42:	8b 53 08             	mov    0x8(%ebx),%edx
    ab45:	52                   	push   %edx
    ab46:	50                   	push   %eax
    ab47:	8b 45 08             	mov    0x8(%ebp),%eax
    ab4a:	50                   	push   %eax
    ab4b:	ff 56 10             	call   *0x10(%esi)
    ab4e:	83 c4 18             	add    $0x18,%esp
    ab51:	50                   	push   %eax
    ab52:	8b 45 10             	mov    0x10(%ebp),%eax
    ab55:	50                   	push   %eax
    ab56:	e8 05 26 00 00       	call   d160 <async_answer_0@plt>
    ab5b:	83 c4 10             	add    $0x10,%esp
    ab5e:	8d 65 f8             	lea    -0x8(%ebp),%esp
    ab61:	5b                   	pop    %ebx
    ab62:	5e                   	pop    %esi
    ab63:	5d                   	pop    %ebp
    ab64:	c3                   	ret    
    ab65:	8d 76 00             	lea    0x0(%esi),%esi
    ab68:	8b 4d 10             	mov    0x10(%ebp),%ecx
    ab6b:	52                   	push   %edx
    ab6c:	52                   	push   %edx
    ab6d:	6a f5                	push   $0xfffffff5
    ab6f:	51                   	push   %ecx
    ab70:	e8 eb 25 00 00       	call   d160 <async_answer_0@plt>
    ab75:	83 c4 10             	add    $0x10,%esp
    ab78:	8d 65 f8             	lea    -0x8(%ebp),%esp
    ab7b:	5b                   	pop    %ebx
    ab7c:	5e                   	pop    %esi
    ab7d:	5d                   	pop    %ebp
    ab7e:	c3                   	ret    
    ab7f:	90                   	nop

0000ab80 <remote_ahci_read_blocks>:
    ab80:	55                   	push   %ebp
    ab81:	89 e5                	mov    %esp,%ebp
    ab83:	56                   	push   %esi
    ab84:	53                   	push   %ebx
    ab85:	83 ec 10             	sub    $0x10,%esp
    ab88:	8b 75 0c             	mov    0xc(%ebp),%esi
    ab8b:	8b 5d 14             	mov    0x14(%ebp),%ebx
    ab8e:	8b 46 0c             	mov    0xc(%esi),%eax
    ab91:	85 c0                	test   %eax,%eax
    ab93:	74 53                	je     abe8 <remote_ahci_read_blocks+0x68>
    ab95:	50                   	push   %eax
    ab96:	8d 45 ec             	lea    -0x14(%ebp),%eax
    ab99:	50                   	push   %eax
    ab9a:	8d 45 e8             	lea    -0x18(%ebp),%eax
    ab9d:	50                   	push   %eax
    ab9e:	8d 45 f0             	lea    -0x10(%ebp),%eax
    aba1:	50                   	push   %eax
    aba2:	e8 99 25 00 00       	call   d140 <async_share_out_receive@plt>
    aba7:	8d 45 f4             	lea    -0xc(%ebp),%eax
    abaa:	5a                   	pop    %edx
    abab:	59                   	pop    %ecx
    abac:	50                   	push   %eax
    abad:	8b 45 f0             	mov    -0x10(%ebp),%eax
    abb0:	50                   	push   %eax
    abb1:	e8 9a 26 00 00       	call   d250 <async_share_out_finalize@plt>
    abb6:	58                   	pop    %eax
    abb7:	8b 45 f4             	mov    -0xc(%ebp),%eax
    abba:	50                   	push   %eax
    abbb:	8b 43 10             	mov    0x10(%ebx),%eax
    abbe:	50                   	push   %eax
    abbf:	8b 43 0c             	mov    0xc(%ebx),%eax
    abc2:	8b 53 08             	mov    0x8(%ebx),%edx
    abc5:	52                   	push   %edx
    abc6:	50                   	push   %eax
    abc7:	8b 45 08             	mov    0x8(%ebp),%eax
    abca:	50                   	push   %eax
    abcb:	ff 56 0c             	call   *0xc(%esi)
    abce:	83 c4 18             	add    $0x18,%esp
    abd1:	50                   	push   %eax
    abd2:	8b 45 10             	mov    0x10(%ebp),%eax
    abd5:	50                   	push   %eax
    abd6:	e8 85 25 00 00       	call   d160 <async_answer_0@plt>
    abdb:	83 c4 10             	add    $0x10,%esp
    abde:	8d 65 f8             	lea    -0x8(%ebp),%esp
    abe1:	5b                   	pop    %ebx
    abe2:	5e                   	pop    %esi
    abe3:	5d                   	pop    %ebp
    abe4:	c3                   	ret    
    abe5:	8d 76 00             	lea    0x0(%esi),%esi
    abe8:	8b 4d 10             	mov    0x10(%ebp),%ecx
    abeb:	52                   	push   %edx
    abec:	52                   	push   %edx
    abed:	6a f5                	push   $0xfffffff5
    abef:	51                   	push   %ecx
    abf0:	e8 6b 25 00 00       	call   d160 <async_answer_0@plt>
    abf5:	83 c4 10             	add    $0x10,%esp
    abf8:	8d 65 f8             	lea    -0x8(%ebp),%esp
    abfb:	5b                   	pop    %ebx
    abfc:	5e                   	pop    %esi
    abfd:	5d                   	pop    %ebp
    abfe:	c3                   	ret    
    abff:	90                   	nop

0000ac00 <remote_ahci_get_block_size>:
    ac00:	55                   	push   %ebp
    ac01:	89 e5                	mov    %esp,%ebp
    ac03:	83 ec 18             	sub    $0x18,%esp
    ac06:	8b 45 0c             	mov    0xc(%ebp),%eax
    ac09:	8b 40 08             	mov    0x8(%eax),%eax
    ac0c:	85 c0                	test   %eax,%eax
    ac0e:	74 40                	je     ac50 <remote_ahci_get_block_size+0x50>
    ac10:	8b 4d 08             	mov    0x8(%ebp),%ecx
    ac13:	52                   	push   %edx
    ac14:	52                   	push   %edx
    ac15:	8d 55 f4             	lea    -0xc(%ebp),%edx
    ac18:	52                   	push   %edx
    ac19:	51                   	push   %ecx
    ac1a:	ff d0                	call   *%eax
    ac1c:	83 c4 10             	add    $0x10,%esp
    ac1f:	85 c0                	test   %eax,%eax
    ac21:	74 15                	je     ac38 <remote_ahci_get_block_size+0x38>
    ac23:	8b 4d 10             	mov    0x10(%ebp),%ecx
    ac26:	52                   	push   %edx
    ac27:	52                   	push   %edx
    ac28:	50                   	push   %eax
    ac29:	51                   	push   %ecx
    ac2a:	e8 31 25 00 00       	call   d160 <async_answer_0@plt>
    ac2f:	83 c4 10             	add    $0x10,%esp
    ac32:	c9                   	leave  
    ac33:	c3                   	ret    
    ac34:	8d 74 26 00          	lea    0x0(%esi,%eiz,1),%esi
    ac38:	8b 55 f4             	mov    -0xc(%ebp),%edx
    ac3b:	8b 4d 10             	mov    0x10(%ebp),%ecx
    ac3e:	50                   	push   %eax
    ac3f:	52                   	push   %edx
    ac40:	6a 00                	push   $0x0
    ac42:	51                   	push   %ecx
    ac43:	e8 b8 27 00 00       	call   d400 <async_answer_1@plt>
    ac48:	83 c4 10             	add    $0x10,%esp
    ac4b:	c9                   	leave  
    ac4c:	c3                   	ret    
    ac4d:	8d 76 00             	lea    0x0(%esi),%esi
    ac50:	50                   	push   %eax
    ac51:	50                   	push   %eax
    ac52:	8b 45 10             	mov    0x10(%ebp),%eax
    ac55:	6a f5                	push   $0xfffffff5
    ac57:	50                   	push   %eax
    ac58:	e8 03 25 00 00       	call   d160 <async_answer_0@plt>
    ac5d:	83 c4 10             	add    $0x10,%esp
    ac60:	c9                   	leave  
    ac61:	c3                   	ret    
    ac62:	8d b4 26 00 00 00 00 	lea    0x0(%esi,%eiz,1),%esi
    ac69:	8d bc 27 00 00 00 00 	lea    0x0(%edi,%eiz,1),%edi

0000ac70 <remote_ahci_get_num_blocks>:
    ac70:	55                   	push   %ebp
    ac71:	89 e5                	mov    %esp,%ebp
    ac73:	83 ec 18             	sub    $0x18,%esp
    ac76:	8b 45 0c             	mov    0xc(%ebp),%eax
    ac79:	8b 40 04             	mov    0x4(%eax),%eax
    ac7c:	85 c0                	test   %eax,%eax
    ac7e:	74 40                	je     acc0 <remote_ahci_get_num_blocks+0x50>
    ac80:	8b 4d 08             	mov    0x8(%ebp),%ecx
    ac83:	52                   	push   %edx
    ac84:	52                   	push   %edx
    ac85:	8d 55 f0             	lea    -0x10(%ebp),%edx
    ac88:	52                   	push   %edx
    ac89:	51                   	push   %ecx
    ac8a:	ff d0                	call   *%eax
    ac8c:	83 c4 10             	add    $0x10,%esp
    ac8f:	85 c0                	test   %eax,%eax
    ac91:	74 15                	je     aca8 <remote_ahci_get_num_blocks+0x38>
    ac93:	51                   	push   %ecx
    ac94:	51                   	push   %ecx
    ac95:	50                   	push   %eax
    ac96:	8b 45 10             	mov    0x10(%ebp),%eax
    ac99:	50                   	push   %eax
    ac9a:	e8 c1 24 00 00       	call   d160 <async_answer_0@plt>
    ac9f:	83 c4 10             	add    $0x10,%esp
    aca2:	c9                   	leave  
    aca3:	c3                   	ret    
    aca4:	8d 74 26 00          	lea    0x0(%esi,%eiz,1),%esi
    aca8:	8b 45 f0             	mov    -0x10(%ebp),%eax
    acab:	8b 55 10             	mov    0x10(%ebp),%edx
    acae:	50                   	push   %eax
    acaf:	6a 00                	push   $0x0
    acb1:	6a 00                	push   $0x0
    acb3:	52                   	push   %edx
    acb4:	e8 b7 25 00 00       	call   d270 <async_answer_2@plt>
    acb9:	83 c4 10             	add    $0x10,%esp
    acbc:	c9                   	leave  
    acbd:	c3                   	ret    
    acbe:	66 90                	xchg   %ax,%ax
    acc0:	50                   	push   %eax
    acc1:	50                   	push   %eax
    acc2:	8b 45 10             	mov    0x10(%ebp),%eax
    acc5:	6a f5                	push   $0xfffffff5
    acc7:	50                   	push   %eax
    acc8:	e8 93 24 00 00       	call   d160 <async_answer_0@plt>
    accd:	83 c4 10             	add    $0x10,%esp
    acd0:	c9                   	leave  
    acd1:	c3                   	ret    
    acd2:	8d b4 26 00 00 00 00 	lea    0x0(%esi,%eiz,1),%esi
    acd9:	8d bc 27 00 00 00 00 	lea    0x0(%edi,%eiz,1),%edi

0000ace0 <remote_ahci_get_sata_device_name>:
    ace0:	55                   	push   %ebp
    ace1:	89 e5                	mov    %esp,%ebp
    ace3:	57                   	push   %edi
    ace4:	56                   	push   %esi
    ace5:	53                   	push   %ebx
    ace6:	83 ec 1c             	sub    $0x1c,%esp
    ace9:	8b 7d 0c             	mov    0xc(%ebp),%edi
    acec:	8b 07                	mov    (%edi),%eax
    acee:	85 c0                	test   %eax,%eax
    acf0:	74 76                	je     ad68 <remote_ahci_get_sata_device_name+0x88>
    acf2:	8b 45 14             	mov    0x14(%ebp),%eax
    acf5:	83 ec 0c             	sub    $0xc,%esp
    acf8:	8b 70 08             	mov    0x8(%eax),%esi
    acfb:	56                   	push   %esi
    acfc:	e8 1f 24 00 00       	call   d120 <malloc@plt>
    ad01:	83 c4 10             	add    $0x10,%esp
    ad04:	89 c3                	mov    %eax,%ebx
    ad06:	85 c0                	test   %eax,%eax
    ad08:	74 76                	je     ad80 <remote_ahci_get_sata_device_name+0xa0>
    ad0a:	50                   	push   %eax
    ad0b:	8b 45 08             	mov    0x8(%ebp),%eax
    ad0e:	53                   	push   %ebx
    ad0f:	56                   	push   %esi
    ad10:	50                   	push   %eax
    ad11:	ff 17                	call   *(%edi)
    ad13:	89 c7                	mov    %eax,%edi
    ad15:	58                   	pop    %eax
    ad16:	8d 45 e0             	lea    -0x20(%ebp),%eax
    ad19:	5a                   	pop    %edx
    ad1a:	50                   	push   %eax
    ad1b:	8d 45 e4             	lea    -0x1c(%ebp),%eax
    ad1e:	50                   	push   %eax
    ad1f:	e8 4c 26 00 00       	call   d370 <async_data_read_receive@plt>
    ad24:	83 c4 10             	add    $0x10,%esp
    ad27:	84 c0                	test   %al,%al
    ad29:	74 05                	je     ad30 <remote_ahci_get_sata_device_name+0x50>
    ad2b:	3b 75 e0             	cmp    -0x20(%ebp),%esi
    ad2e:	74 20                	je     ad50 <remote_ahci_get_sata_device_name+0x70>
    ad30:	83 ec 0c             	sub    $0xc,%esp
    ad33:	53                   	push   %ebx
    ad34:	e8 d7 27 00 00       	call   d510 <free@plt>
    ad39:	8b 4d 10             	mov    0x10(%ebp),%ecx
    ad3c:	58                   	pop    %eax
    ad3d:	5a                   	pop    %edx
    ad3e:	57                   	push   %edi
    ad3f:	51                   	push   %ecx
    ad40:	e8 1b 24 00 00       	call   d160 <async_answer_0@plt>
    ad45:	83 c4 10             	add    $0x10,%esp
    ad48:	8d 65 f4             	lea    -0xc(%ebp),%esp
    ad4b:	5b                   	pop    %ebx
    ad4c:	5e                   	pop    %esi
    ad4d:	5f                   	pop    %edi
    ad4e:	5d                   	pop    %ebp
    ad4f:	c3                   	ret    
    ad50:	50                   	push   %eax
    ad51:	8b 45 e4             	mov    -0x1c(%ebp),%eax
    ad54:	56                   	push   %esi
    ad55:	53                   	push   %ebx
    ad56:	50                   	push   %eax
    ad57:	e8 84 23 00 00       	call   d0e0 <async_data_read_finalize@plt>
    ad5c:	83 c4 10             	add    $0x10,%esp
    ad5f:	eb cf                	jmp    ad30 <remote_ahci_get_sata_device_name+0x50>
    ad61:	8d b4 26 00 00 00 00 	lea    0x0(%esi,%eiz,1),%esi
    ad68:	8b 7d 10             	mov    0x10(%ebp),%edi
    ad6b:	56                   	push   %esi
    ad6c:	56                   	push   %esi
    ad6d:	6a f5                	push   $0xfffffff5
    ad6f:	57                   	push   %edi
    ad70:	e8 eb 23 00 00       	call   d160 <async_answer_0@plt>
    ad75:	83 c4 10             	add    $0x10,%esp
    ad78:	8d 65 f4             	lea    -0xc(%ebp),%esp
    ad7b:	5b                   	pop    %ebx
    ad7c:	5e                   	pop    %esi
    ad7d:	5f                   	pop    %edi
    ad7e:	5d                   	pop    %ebp
    ad7f:	c3                   	ret    
    ad80:	8b 5d 10             	mov    0x10(%ebp),%ebx
    ad83:	51                   	push   %ecx
    ad84:	51                   	push   %ecx
    ad85:	6a fe                	push   $0xfffffffe
    ad87:	53                   	push   %ebx
    ad88:	e8 d3 23 00 00       	call   d160 <async_answer_0@plt>
    ad8d:	83 c4 10             	add    $0x10,%esp
    ad90:	8d 65 f4             	lea    -0xc(%ebp),%esp
    ad93:	5b                   	pop    %ebx
    ad94:	5e                   	pop    %esi
    ad95:	5f                   	pop    %edi
    ad96:	5d                   	pop    %ebp
    ad97:	c3                   	ret    
    ad98:	90                   	nop
    ad99:	8d b4 26 00 00 00 00 	lea    0x0(%esi,%eiz,1),%esi

0000ada0 <ahci_get_sess>:
    ada0:	55                   	push   %ebp
    ada1:	89 e5                	mov    %esp,%ebp
    ada3:	57                   	push   %edi
    ada4:	56                   	push   %esi
    ada5:	53                   	push   %ebx
    ada6:	81 ec 10 04 00 00    	sub    $0x410,%esp
    adac:	8d 9d e8 fb ff ff    	lea    -0x418(%ebp),%ebx
    adb2:	8b 7d 0c             	mov    0xc(%ebp),%edi
    adb5:	8b 75 08             	mov    0x8(%ebp),%esi
    adb8:	c7 07 00 00 00 00    	movl   $0x0,(%edi)
    adbe:	68 00 04 00 00       	push   $0x400
    adc3:	53                   	push   %ebx
    adc4:	56                   	push   %esi
    adc5:	e8 56 27 00 00       	call   d520 <devman_fun_get_name@plt>
    adca:	83 c4 10             	add    $0x10,%esp
    adcd:	85 c0                	test   %eax,%eax
    adcf:	75 57                	jne    ae28 <ahci_get_sess+0x88>
    add1:	83 ec 0c             	sub    $0xc,%esp
    add4:	53                   	push   %ebx
    add5:	e8 06 26 00 00       	call   d3e0 <str_size@plt>
    adda:	83 c4 10             	add    $0x10,%esp
    addd:	83 f8 05             	cmp    $0x5,%eax
    ade0:	76 46                	jbe    ae28 <ahci_get_sess+0x88>
    ade2:	52                   	push   %edx
    ade3:	6a 05                	push   $0x5
    ade5:	68 ec cc 00 00       	push   $0xccec
    adea:	53                   	push   %ebx
    adeb:	e8 00 26 00 00       	call   d3f0 <str_lcmp@plt>
    adf0:	83 c4 10             	add    $0x10,%esp
    adf3:	85 c0                	test   %eax,%eax
    adf5:	75 31                	jne    ae28 <ahci_get_sess+0x88>
    adf7:	50                   	push   %eax
    adf8:	50                   	push   %eax
    adf9:	6a 01                	push   $0x1
    adfb:	56                   	push   %esi
    adfc:	e8 0f 22 00 00       	call   d010 <devman_device_connect@plt>
    ae01:	83 c4 10             	add    $0x10,%esp
    ae04:	89 c6                	mov    %eax,%esi
    ae06:	85 c0                	test   %eax,%eax
    ae08:	74 20                	je     ae2a <ahci_get_sess+0x8a>
    ae0a:	83 ec 0c             	sub    $0xc,%esp
    ae0d:	53                   	push   %ebx
    ae0e:	e8 8d 24 00 00       	call   d2a0 <str_dup@plt>
    ae13:	83 c4 10             	add    $0x10,%esp
    ae16:	89 07                	mov    %eax,(%edi)
    ae18:	8d 65 f4             	lea    -0xc(%ebp),%esp
    ae1b:	89 f0                	mov    %esi,%eax
    ae1d:	5b                   	pop    %ebx
    ae1e:	5e                   	pop    %esi
    ae1f:	5f                   	pop    %edi
    ae20:	5d                   	pop    %ebp
    ae21:	c3                   	ret    
    ae22:	8d b6 00 00 00 00    	lea    0x0(%esi),%esi
    ae28:	31 f6                	xor    %esi,%esi
    ae2a:	8d 65 f4             	lea    -0xc(%ebp),%esp
    ae2d:	89 f0                	mov    %esi,%eax
    ae2f:	5b                   	pop    %ebx
    ae30:	5e                   	pop    %esi
    ae31:	5f                   	pop    %edi
    ae32:	5d                   	pop    %ebp
    ae33:	c3                   	ret    
    ae34:	8d b6 00 00 00 00    	lea    0x0(%esi),%esi
    ae3a:	8d bf 00 00 00 00    	lea    0x0(%edi),%edi

0000ae40 <ahci_get_sata_device_name>:
    ae40:	55                   	push   %ebp
    ae41:	89 e5                	mov    %esp,%ebp
    ae43:	57                   	push   %edi
    ae44:	56                   	push   %esi
    ae45:	53                   	push   %ebx
    ae46:	83 ec 28             	sub    $0x28,%esp
    ae49:	8b 7d 08             	mov    0x8(%ebp),%edi
    ae4c:	8b 75 0c             	mov    0xc(%ebp),%esi
    ae4f:	57                   	push   %edi
    ae50:	e8 bb 25 00 00       	call   d410 <async_exchange_begin@plt>
    ae55:	83 c4 10             	add    $0x10,%esp
    ae58:	85 c0                	test   %eax,%eax
    ae5a:	74 44                	je     aea0 <ahci_get_sata_device_name+0x60>
    ae5c:	89 c3                	mov    %eax,%ebx
    ae5e:	50                   	push   %eax
    ae5f:	6a 00                	push   $0x0
    ae61:	6a 00                	push   $0x0
    ae63:	6a 00                	push   $0x0
    ae65:	56                   	push   %esi
    ae66:	6a 00                	push   $0x0
    ae68:	68 0e 04 00 00       	push   $0x40e
    ae6d:	53                   	push   %ebx
    ae6e:	e8 fd 22 00 00       	call   d170 <async_send_fast@plt>
    ae73:	83 c4 1c             	add    $0x1c,%esp
    ae76:	8b 55 10             	mov    0x10(%ebp),%edx
    ae79:	89 c7                	mov    %eax,%edi
    ae7b:	56                   	push   %esi
    ae7c:	52                   	push   %edx
    ae7d:	53                   	push   %ebx
    ae7e:	e8 fd 24 00 00       	call   d380 <async_data_read_start@plt>
    ae83:	8d 45 e4             	lea    -0x1c(%ebp),%eax
    ae86:	59                   	pop    %ecx
    ae87:	5b                   	pop    %ebx
    ae88:	50                   	push   %eax
    ae89:	57                   	push   %edi
    ae8a:	e8 e1 21 00 00       	call   d070 <async_wait_for@plt>
    ae8f:	8b 45 e4             	mov    -0x1c(%ebp),%eax
    ae92:	83 c4 10             	add    $0x10,%esp
    ae95:	8d 65 f4             	lea    -0xc(%ebp),%esp
    ae98:	5b                   	pop    %ebx
    ae99:	5e                   	pop    %esi
    ae9a:	5f                   	pop    %edi
    ae9b:	5d                   	pop    %ebp
    ae9c:	c3                   	ret    
    ae9d:	8d 76 00             	lea    0x0(%esi),%esi
    aea0:	b8 f2 ff ff ff       	mov    $0xfffffff2,%eax
    aea5:	eb ee                	jmp    ae95 <ahci_get_sata_device_name+0x55>
    aea7:	89 f6                	mov    %esi,%esi
    aea9:	8d bc 27 00 00 00 00 	lea    0x0(%edi,%eiz,1),%edi

0000aeb0 <ahci_get_num_blocks>:
    aeb0:	55                   	push   %ebp
    aeb1:	89 e5                	mov    %esp,%ebp
    aeb3:	57                   	push   %edi
    aeb4:	56                   	push   %esi
    aeb5:	53                   	push   %ebx
    aeb6:	83 ec 38             	sub    $0x38,%esp
    aeb9:	8b 55 08             	mov    0x8(%ebp),%edx
    aebc:	52                   	push   %edx
    aebd:	e8 4e 25 00 00       	call   d410 <async_exchange_begin@plt>
    aec2:	83 c4 10             	add    $0x10,%esp
    aec5:	85 c0                	test   %eax,%eax
    aec7:	74 57                	je     af20 <ahci_get_num_blocks+0x70>
    aec9:	89 c6                	mov    %eax,%esi
    aecb:	50                   	push   %eax
    aecc:	8d 45 e4             	lea    -0x1c(%ebp),%eax
    aecf:	6a 00                	push   $0x0
    aed1:	6a 00                	push   $0x0
    aed3:	6a 00                	push   $0x0
    aed5:	50                   	push   %eax
    aed6:	8d 45 e0             	lea    -0x20(%ebp),%eax
    aed9:	50                   	push   %eax
    aeda:	6a 00                	push   $0x0
    aedc:	6a 00                	push   $0x0
    aede:	6a 00                	push   $0x0
    aee0:	6a 01                	push   $0x1
    aee2:	68 0e 04 00 00       	push   $0x40e
    aee7:	56                   	push   %esi
    aee8:	e8 63 22 00 00       	call   d150 <async_req_fast@plt>
    aeed:	83 c4 24             	add    $0x24,%esp
    aef0:	89 45 d4             	mov    %eax,-0x2c(%ebp)
    aef3:	56                   	push   %esi
    aef4:	e8 d7 22 00 00       	call   d1d0 <async_exchange_end@plt>
    aef9:	8b 45 d4             	mov    -0x2c(%ebp),%eax
    aefc:	83 c4 10             	add    $0x10,%esp
    aeff:	85 c0                	test   %eax,%eax
    af01:	75 0e                	jne    af11 <ahci_get_num_blocks+0x61>
    af03:	8b 55 0c             	mov    0xc(%ebp),%edx
    af06:	8b 75 e0             	mov    -0x20(%ebp),%esi
    af09:	8b 4d e4             	mov    -0x1c(%ebp),%ecx
    af0c:	89 0a                	mov    %ecx,(%edx)
    af0e:	89 72 04             	mov    %esi,0x4(%edx)
    af11:	8d 65 f4             	lea    -0xc(%ebp),%esp
    af14:	5b                   	pop    %ebx
    af15:	5e                   	pop    %esi
    af16:	5f                   	pop    %edi
    af17:	5d                   	pop    %ebp
    af18:	c3                   	ret    
    af19:	8d b4 26 00 00 00 00 	lea    0x0(%esi,%eiz,1),%esi
    af20:	b8 f2 ff ff ff       	mov    $0xfffffff2,%eax
    af25:	eb ea                	jmp    af11 <ahci_get_num_blocks+0x61>
    af27:	89 f6                	mov    %esi,%esi
    af29:	8d bc 27 00 00 00 00 	lea    0x0(%edi,%eiz,1),%edi

0000af30 <ahci_get_block_size>:
    af30:	55                   	push   %ebp
    af31:	89 e5                	mov    %esp,%ebp
    af33:	53                   	push   %ebx
    af34:	83 ec 30             	sub    $0x30,%esp
    af37:	8b 55 08             	mov    0x8(%ebp),%edx
    af3a:	52                   	push   %edx
    af3b:	e8 d0 24 00 00       	call   d410 <async_exchange_begin@plt>
    af40:	83 c4 10             	add    $0x10,%esp
    af43:	85 c0                	test   %eax,%eax
    af45:	74 49                	je     af90 <ahci_get_block_size+0x60>
    af47:	89 c3                	mov    %eax,%ebx
    af49:	50                   	push   %eax
    af4a:	8d 45 f4             	lea    -0xc(%ebp),%eax
    af4d:	6a 00                	push   $0x0
    af4f:	6a 00                	push   $0x0
    af51:	6a 00                	push   $0x0
    af53:	6a 00                	push   $0x0
    af55:	50                   	push   %eax
    af56:	6a 00                	push   $0x0
    af58:	6a 00                	push   $0x0
    af5a:	6a 00                	push   $0x0
    af5c:	6a 02                	push   $0x2
    af5e:	68 0e 04 00 00       	push   $0x40e
    af63:	53                   	push   %ebx
    af64:	e8 e7 21 00 00       	call   d150 <async_req_fast@plt>
    af69:	83 c4 24             	add    $0x24,%esp
    af6c:	89 45 e4             	mov    %eax,-0x1c(%ebp)
    af6f:	53                   	push   %ebx
    af70:	e8 5b 22 00 00       	call   d1d0 <async_exchange_end@plt>
    af75:	8b 45 e4             	mov    -0x1c(%ebp),%eax
    af78:	83 c4 10             	add    $0x10,%esp
    af7b:	85 c0                	test   %eax,%eax
    af7d:	75 08                	jne    af87 <ahci_get_block_size+0x57>
    af7f:	8b 55 0c             	mov    0xc(%ebp),%edx
    af82:	8b 4d f4             	mov    -0xc(%ebp),%ecx
    af85:	89 0a                	mov    %ecx,(%edx)
    af87:	8b 5d fc             	mov    -0x4(%ebp),%ebx
    af8a:	c9                   	leave  
    af8b:	c3                   	ret    
    af8c:	8d 74 26 00          	lea    0x0(%esi,%eiz,1),%esi
    af90:	b8 f2 ff ff ff       	mov    $0xfffffff2,%eax
    af95:	eb f0                	jmp    af87 <ahci_get_block_size+0x57>
    af97:	89 f6                	mov    %esi,%esi
    af99:	8d bc 27 00 00 00 00 	lea    0x0(%edi,%eiz,1),%edi

0000afa0 <ahci_read_blocks>:
    afa0:	55                   	push   %ebp
    afa1:	89 e5                	mov    %esp,%ebp
    afa3:	56                   	push   %esi
    afa4:	53                   	push   %ebx
    afa5:	83 ec 1c             	sub    $0x1c,%esp
    afa8:	8b 45 08             	mov    0x8(%ebp),%eax
    afab:	8b 75 0c             	mov    0xc(%ebp),%esi
    afae:	50                   	push   %eax
    afaf:	e8 5c 24 00 00       	call   d410 <async_exchange_begin@plt>
    afb4:	83 c4 10             	add    $0x10,%esp
    afb7:	85 c0                	test   %eax,%eax
    afb9:	74 4d                	je     b008 <ahci_read_blocks+0x68>
    afbb:	89 c3                	mov    %eax,%ebx
    afbd:	8b 55 14             	mov    0x14(%ebp),%edx
    afc0:	50                   	push   %eax
    afc1:	6a 00                	push   $0x0
    afc3:	52                   	push   %edx
    afc4:	56                   	push   %esi
    afc5:	6a 00                	push   $0x0
    afc7:	6a 03                	push   $0x3
    afc9:	68 0e 04 00 00       	push   $0x40e
    afce:	53                   	push   %ebx
    afcf:	e8 9c 21 00 00       	call   d170 <async_send_fast@plt>
    afd4:	83 c4 1c             	add    $0x1c,%esp
    afd7:	8b 4d 18             	mov    0x18(%ebp),%ecx
    afda:	6a 03                	push   $0x3
    afdc:	51                   	push   %ecx
    afdd:	53                   	push   %ebx
    afde:	89 c6                	mov    %eax,%esi
    afe0:	e8 7b 24 00 00       	call   d460 <async_share_out_start@plt>
    afe5:	89 1c 24             	mov    %ebx,(%esp)
    afe8:	e8 e3 21 00 00       	call   d1d0 <async_exchange_end@plt>
    afed:	5b                   	pop    %ebx
    afee:	58                   	pop    %eax
    afef:	8d 45 f4             	lea    -0xc(%ebp),%eax
    aff2:	50                   	push   %eax
    aff3:	56                   	push   %esi
    aff4:	e8 77 20 00 00       	call   d070 <async_wait_for@plt>
    aff9:	8b 45 f4             	mov    -0xc(%ebp),%eax
    affc:	83 c4 10             	add    $0x10,%esp
    afff:	8d 65 f8             	lea    -0x8(%ebp),%esp
    b002:	5b                   	pop    %ebx
    b003:	5e                   	pop    %esi
    b004:	5d                   	pop    %ebp
    b005:	c3                   	ret    
    b006:	66 90                	xchg   %ax,%ax
    b008:	b8 f2 ff ff ff       	mov    $0xfffffff2,%eax
    b00d:	eb f0                	jmp    afff <ahci_read_blocks+0x5f>
    b00f:	90                   	nop

0000b010 <ahci_write_blocks>:
    b010:	55                   	push   %ebp
    b011:	89 e5                	mov    %esp,%ebp
    b013:	56                   	push   %esi
    b014:	53                   	push   %ebx
    b015:	83 ec 1c             	sub    $0x1c,%esp
    b018:	8b 45 08             	mov    0x8(%ebp),%eax
    b01b:	8b 75 0c             	mov    0xc(%ebp),%esi
    b01e:	50                   	push   %eax
    b01f:	e8 ec 23 00 00       	call   d410 <async_exchange_begin@plt>
    b024:	83 c4 10             	add    $0x10,%esp
    b027:	85 c0                	test   %eax,%eax
    b029:	74 4d                	je     b078 <ahci_write_blocks+0x68>
    b02b:	89 c3                	mov    %eax,%ebx
    b02d:	8b 55 14             	mov    0x14(%ebp),%edx
    b030:	50                   	push   %eax
    b031:	6a 00                	push   $0x0
    b033:	52                   	push   %edx
    b034:	56                   	push   %esi
    b035:	6a 00                	push   $0x0
    b037:	6a 04                	push   $0x4
    b039:	68 0e 04 00 00       	push   $0x40e
    b03e:	53                   	push   %ebx
    b03f:	e8 2c 21 00 00       	call   d170 <async_send_fast@plt>
    b044:	83 c4 1c             	add    $0x1c,%esp
    b047:	8b 4d 18             	mov    0x18(%ebp),%ecx
    b04a:	6a 03                	push   $0x3
    b04c:	51                   	push   %ecx
    b04d:	53                   	push   %ebx
    b04e:	89 c6                	mov    %eax,%esi
    b050:	e8 0b 24 00 00       	call   d460 <async_share_out_start@plt>
    b055:	89 1c 24             	mov    %ebx,(%esp)
    b058:	e8 73 21 00 00       	call   d1d0 <async_exchange_end@plt>
    b05d:	5b                   	pop    %ebx
    b05e:	58                   	pop    %eax
    b05f:	8d 45 f4             	lea    -0xc(%ebp),%eax
    b062:	50                   	push   %eax
    b063:	56                   	push   %esi
    b064:	e8 07 20 00 00       	call   d070 <async_wait_for@plt>
    b069:	8b 45 f4             	mov    -0xc(%ebp),%eax
    b06c:	83 c4 10             	add    $0x10,%esp
    b06f:	8d 65 f8             	lea    -0x8(%ebp),%esp
    b072:	5b                   	pop    %ebx
    b073:	5e                   	pop    %esi
    b074:	5d                   	pop    %ebp
    b075:	c3                   	ret    
    b076:	66 90                	xchg   %ax,%ax
    b078:	b8 f2 ff ff ff       	mov    $0xfffffff2,%eax
    b07d:	eb f0                	jmp    b06f <ahci_write_blocks+0x5f>
    b07f:	72 74                	jb     b0f5 <ahci_write_blocks+0xe5>
    b081:	63 5f 66             	arpl   %bx,0x66(%edi)
    b084:	75 6e                	jne    b0f4 <ahci_write_blocks+0xe4>
    b086:	5f                   	pop    %edi
    b087:	6f                   	outsl  %ds:(%esi),(%dx)
    b088:	66 66 6c             	data16 data16 insb (%dx),%es:(%edi)
    b08b:	69 6e 65 28 29 00 72 	imul   $0x72002928,0x65(%esi),%ebp
    b092:	74 63                	je     b0f7 <ahci_write_blocks+0xe7>
    b094:	5f                   	pop    %edi
    b095:	66 75 6e             	data16 jne b106 <ahci_write_blocks+0xf6>
    b098:	5f                   	pop    %edi
    b099:	6f                   	outsl  %ds:(%esi),(%dx)
    b09a:	6e                   	outsb  %ds:(%esi),(%dx)
    b09b:	6c                   	insb   (%dx),%es:(%edi)
    b09c:	69 6e 65 28 29 00 63 	imul   $0x63002928,0x65(%esi),%ebp
    b0a3:	6c                   	insb   (%dx),%es:(%edi)
    b0a4:	6f                   	outsl  %ds:(%esi),(%dx)
    b0a5:	63 6b 00             	arpl   %bp,0x0(%ebx)
    b0a8:	46                   	inc    %esi
    b0a9:	61                   	popa   
    b0aa:	69 6c 65 64 20 74 6f 	imul   $0x206f7420,0x64(%ebp,%eiz,2),%ebp
    b0b1:	20 
    b0b2:	6f                   	outsl  %ds:(%esi),(%dx)
    b0b3:	66 66 6c             	data16 data16 insb (%dx),%es:(%edi)
    b0b6:	69 6e 65 20 66 75 6e 	imul   $0x6e756620,0x65(%esi),%ebp
    b0bd:	63 74 69 6f          	arpl   %si,0x6f(%ecx,%ebp,2)
    b0c1:	6e                   	outsb  %ds:(%esi),(%dx)
    b0c2:	00 46 61             	add    %al,0x61(%esi)
    b0c5:	69 6c 65 64 20 74 6f 	imul   $0x206f7420,0x64(%ebp,%eiz,2),%ebp
    b0cc:	20 
    b0cd:	75 6e                	jne    b13d <ahci_write_blocks+0x12d>
    b0cf:	62 69 6e             	bound  %ebp,0x6e(%ecx)
    b0d2:	64 20 66 75          	and    %ah,%fs:0x75(%esi)
    b0d6:	6e                   	outsb  %ds:(%esi),(%dx)
    b0d7:	63 74 69 6f          	arpl   %si,0x6f(%ecx,%ebp,2)
    b0db:	6e                   	outsb  %ds:(%esi),(%dx)
    b0dc:	00 72 74             	add    %dh,0x74(%edx)
    b0df:	63 5f 64             	arpl   %bx,0x64(%edi)
    b0e2:	65 76 5f             	gs jbe b144 <ahci_write_blocks+0x134>
    b0e5:	61                   	popa   
    b0e6:	64 64 20 25 73 20 28 	fs and %ah,%fs:0x68282073
    b0ed:	68 
    b0ee:	61                   	popa   
    b0ef:	6e                   	outsb  %ds:(%esi),(%dx)
    b0f0:	64 6c                	fs insb (%dx),%es:(%edi)
    b0f2:	65 20 3d 20 25 64 29 	and    %bh,%gs:0x29642520
    b0f9:	00 72 74             	add    %dh,0x74(%edx)
    b0fc:	63 5f 64             	arpl   %bx,0x64(%edi)
    b0ff:	65 76 5f             	gs jbe b161 <ahci_write_blocks+0x151>
    b102:	69 6e 69 74 69 61 6c 	imul   $0x6c616974,0x69(%esi),%ebp
    b109:	69 7a 65 20 25 73 00 	imul   $0x732520,0x65(%edx),%edi
    b110:	46                   	inc    %esi
    b111:	61                   	popa   
    b112:	69 6c 65 64 20 63 72 	imul   $0x65726320,0x64(%ebp,%eiz,2),%ebp
    b119:	65 
    b11a:	61                   	popa   
    b11b:	74 69                	je     b186 <ahci_write_blocks+0x176>
    b11d:	6e                   	outsb  %ds:(%esi),(%dx)
    b11e:	67 20 66 75          	and    %ah,0x75(%bp)
    b122:	6e                   	outsb  %ds:(%esi),(%dx)
    b123:	63 74 69 6f          	arpl   %si,0x6f(%ecx,%ebp,2)
    b127:	6e                   	outsb  %ds:(%esi),(%dx)
    b128:	00 46 61             	add    %al,0x61(%esi)
    b12b:	69 6c 65 64 20 62 69 	imul   $0x6e696220,0x64(%ebp,%eiz,2),%ebp
    b132:	6e 
    b133:	64 69 6e 67 20 66 75 	imul   $0x6e756620,%fs:0x67(%esi),%ebp
    b13a:	6e 
    b13b:	63 74 69 6f          	arpl   %si,0x6f(%ecx,%ebp,2)
    b13f:	6e                   	outsb  %ds:(%esi),(%dx)
    b140:	00 61 00             	add    %ah,0x0(%ecx)
    b143:	63 6d 6f             	arpl   %bp,0x6f(%ebp)
    b146:	73 2d                	jae    b175 <ahci_write_blocks+0x165>
    b148:	72 74                	jb     b1be <ahci_write_blocks+0x1ae>
    b14a:	63 2e                	arpl   %bp,(%esi)
    b14c:	63 00                	arpl   %ax,(%eax)
    b14e:	72 74                	jb     b1c4 <ahci_write_blocks+0x1b4>
    b150:	63 2d 3e 63 6c 69    	arpl   %bp,0x696c633e
    b156:	65 6e                	outsb  %gs:(%esi),(%dx)
    b158:	74 73                	je     b1cd <ahci_write_blocks+0x1bd>
    b15a:	5f                   	pop    %edi
    b15b:	63 6f 6e             	arpl   %bp,0x6e(%edi)
    b15e:	6e                   	outsb  %ds:(%esi),(%dx)
    b15f:	65 63 74 65 64       	arpl   %si,%gs:0x64(%ebp,%eiz,2)
    b164:	20 3e                	and    %bh,(%esi)
    b166:	3d 20 30 00 63       	cmp    $0x63003020,%eax
    b16b:	6d                   	insl   (%dx),%es:(%edi)
    b16c:	6f                   	outsl  %ds:(%esi),(%dx)
    b16d:	73 2d                	jae    b19c <ahci_write_blocks+0x18c>
    b16f:	72 74                	jb     b1e5 <ahci_write_blocks+0x1d5>
    b171:	63 3a                	arpl   %di,(%edx)
    b173:	20 48 65             	and    %cl,0x65(%eax)
    b176:	6c                   	insb   (%dx),%es:(%edi)
    b177:	65 6e                	outsb  %gs:(%esi),(%dx)
    b179:	4f                   	dec    %edi
    b17a:	53                   	push   %ebx
    b17b:	20 52 54             	and    %dl,0x54(%edx)
    b17e:	43                   	inc    %ebx
    b17f:	20 64 72 69          	and    %ah,0x69(%edx,%esi,2)
    b183:	76 65                	jbe    b1ea <ahci_write_blocks+0x1da>
    b185:	72 0a                	jb     b191 <ahci_write_blocks+0x181>
    b187:	00 63 6d             	add    %ah,0x6d(%ebx)
    b18a:	6f                   	outsl  %ds:(%esi),(%dx)
    b18b:	73 2d                	jae    b1ba <ahci_write_blocks+0x1aa>
    b18d:	72 74                	jb     b203 <ahci_write_blocks+0x1f3>
    b18f:	63 00                	arpl   %ax,(%eax)
    b191:	66 90                	xchg   %ax,%ax
    b193:	90                   	nop
    b194:	46                   	inc    %esi
    b195:	61                   	popa   
    b196:	69 6c 65 64 20 74 6f 	imul   $0x206f7420,0x64(%ebp,%eiz,2),%ebp
    b19d:	20 
    b19e:	63 6f 6e             	arpl   %bp,0x6e(%edi)
    b1a1:	6e                   	outsb  %ds:(%esi),(%dx)
    b1a2:	65 63 74 20 74       	arpl   %si,%gs:0x74(%eax,%eiz,1)
    b1a7:	6f                   	outsl  %ds:(%esi),(%dx)
    b1a8:	20 70 61             	and    %dh,0x61(%eax)
    b1ab:	72 65                	jb     b212 <ahci_write_blocks+0x202>
    b1ad:	6e                   	outsb  %ds:(%esi),(%dx)
    b1ae:	74 20                	je     b1d0 <ahci_write_blocks+0x1c0>
    b1b0:	64 72 69             	fs jb  b21c <ahci_write_blocks+0x20c>
    b1b3:	76 65                	jbe    b21a <ahci_write_blocks+0x20a>
    b1b5:	72 09                	jb     b1c0 <ahci_write_blocks+0x1b0>
    b1b7:	09 20                	or     %esp,(%eax)
    b1b9:	20 20                	and    %ah,(%eax)
    b1bb:	20 6f 66             	and    %ch,0x66(%edi)
    b1be:	20 64 65 76          	and    %ah,0x76(%ebp,%eiz,2)
    b1c2:	69 63 65 20 25 73 2e 	imul   $0x2e732520,0x65(%ebx),%esp
    b1c9:	00 00                	add    %al,(%eax)
    b1cb:	00 46 61             	add    %al,0x61(%esi)
    b1ce:	69 6c 65 64 20 74 6f 	imul   $0x206f7420,0x64(%ebp,%eiz,2),%ebp
    b1d5:	20 
    b1d6:	67 65 74 20          	addr16 gs je b1fa <ahci_write_blocks+0x1ea>
    b1da:	48                   	dec    %eax
    b1db:	57                   	push   %edi
    b1dc:	20 72 65             	and    %dh,0x65(%edx)
    b1df:	73 6f                	jae    b250 <ahci_write_blocks+0x240>
    b1e1:	75 72                	jne    b255 <ahci_write_blocks+0x245>
    b1e3:	63 65 73             	arpl   %sp,0x73(%ebp)
    b1e6:	09 09                	or     %ecx,(%ecx)
    b1e8:	20 20                	and    %ah,(%eax)
    b1ea:	20 20                	and    %ah,(%eax)
    b1ec:	66 6f                	outsw  %ds:(%esi),(%dx)
    b1ee:	72 20                	jb     b210 <ahci_write_blocks+0x200>
    b1f0:	64 65 76 69          	fs gs jbe b25d <ahci_write_blocks+0x24d>
    b1f4:	63 65 20             	arpl   %sp,0x20(%ebp)
    b1f7:	25 73 00 00 00       	and    $0x73,%eax
    b1fc:	49                   	dec    %ecx
    b1fd:	2f                   	das    
    b1fe:	4f                   	dec    %edi
    b1ff:	20 72 61             	and    %dh,0x61(%edx)
    b202:	6e                   	outsb  %ds:(%esi),(%dx)
    b203:	67 65 20 61 73       	and    %ah,%gs:0x73(%bx,%di)
    b208:	73 69                	jae    b273 <ahci_write_blocks+0x263>
    b20a:	67 6e                	outsb  %ds:(%si),(%dx)
    b20c:	65 64 20 74 6f 20    	gs and %dh,%fs:0x20(%edi,%ebp,2)
    b212:	09 09                	or     %ecx,(%ecx)
    b214:	09 20                	or     %esp,(%eax)
    b216:	20 20                	and    %ah,(%eax)
    b218:	20 64 65 76          	and    %ah,0x76(%ebp,%eiz,2)
    b21c:	69 63 65 20 25 73 20 	imul   $0x20732520,0x65(%ebx),%esp
    b223:	69 73 20 74 6f 6f 20 	imul   $0x206f6f74,0x20(%ebx),%esi
    b22a:	73 6d                	jae    b299 <ahci_write_blocks+0x289>
    b22c:	61                   	popa   
    b22d:	6c                   	insb   (%dx),%es:(%edi)
    b22e:	6c                   	insb   (%dx),%es:(%edi)
    b22f:	00 44 65 76          	add    %al,0x76(%ebp,%eiz,2)
    b233:	69 63 65 20 25 73 20 	imul   $0x20732520,0x65(%ebx),%esp
    b23a:	77 61                	ja     b29d <ahci_write_blocks+0x28d>
    b23c:	73 20                	jae    b25e <ahci_write_blocks+0x24e>
    b23e:	61                   	popa   
    b23f:	73 73                	jae    b2b4 <ahci_write_blocks+0x2a4>
    b241:	69 67 6e 65 64 20 49 	imul   $0x49206465,0x6e(%edi),%esp
    b248:	2f                   	das    
    b249:	4f                   	dec    %edi
    b24a:	20 61 64             	and    %ah,0x64(%ecx)
    b24d:	64 72 65             	fs jb  b2b5 <ahci_write_blocks+0x2a5>
    b250:	73 73                	jae    b2c5 <ahci_write_blocks+0x2b5>
    b252:	20 30                	and    %dh,(%eax)
    b254:	78 25                	js     b27b <ahci_write_blocks+0x26b>
    b256:	6c                   	insb   (%dx),%es:(%edi)
    b257:	78 00                	js     b259 <ahci_write_blocks+0x249>
    b259:	00 00                	add    %al,(%eax)
    b25b:	00 43 61             	add    %al,0x61(%ebx)
    b25e:	6e                   	outsb  %ds:(%esi),(%dx)
    b25f:	6e                   	outsb  %ds:(%esi),(%dx)
    b260:	6f                   	outsl  %ds:(%esi),(%dx)
    b261:	74 20                	je     b283 <ahci_write_blocks+0x273>
    b263:	6d                   	insl   (%dx),%es:(%edi)
    b264:	61                   	popa   
    b265:	70 20                	jo     b287 <ahci_write_blocks+0x277>
    b267:	74 68                	je     b2d1 <ahci_write_blocks+0x2c1>
    b269:	65 20 70 6f          	and    %dh,%gs:0x6f(%eax)
    b26d:	72 74                	jb     b2e3 <ahci_write_blocks+0x2d3>
    b26f:	20 25 6c 78 20 66    	and    %ah,0x6620786c
    b275:	6f                   	outsl  %ds:(%esi),(%dx)
    b276:	72 20                	jb     b298 <ahci_write_blocks+0x288>
    b278:	64 65 76 69          	fs gs jbe b2e5 <ahci_write_blocks+0x2d5>
    b27c:	63 65 20             	arpl   %sp,0x20(%ebp)
    b27f:	25 73 00 00 00       	and    $0x73,%eax
    b284:	44                   	inc    %esp
    b285:	65 76 69             	gs jbe b2f1 <ahci_write_blocks+0x2e1>
    b288:	63 65 20             	arpl   %sp,0x20(%ebp)
    b28b:	25 73 20 73 75       	and    $0x75732073,%eax
    b290:	63 63 65             	arpl   %sp,0x65(%ebx)
    b293:	73 73                	jae    b308 <ahci_write_blocks+0x2f8>
    b295:	66 75 6c             	data16 jne b304 <ahci_write_blocks+0x2f4>
    b298:	6c                   	insb   (%dx),%es:(%edi)
    b299:	79 20                	jns    b2bb <ahci_write_blocks+0x2ab>
    b29b:	69 6e 69 74 69 61 6c 	imul   $0x6c616974,0x69(%esi),%ebp
    b2a2:	69 7a 65 64 00 00 4d 	imul   $0x4d000064,0x65(%edx),%edi
    b2a9:	69 73 73 69 6e 67 20 	imul   $0x20676e69,0x73(%ebx),%esi
    b2b0:	48                   	dec    %eax
    b2b1:	57                   	push   %edi
    b2b2:	20 72 65             	and    %dh,0x65(%edx)
    b2b5:	73 6f                	jae    b326 <ahci_write_blocks+0x316>
    b2b7:	75 72                	jne    b32b <ahci_write_blocks+0x31b>
    b2b9:	63 65 20             	arpl   %sp,0x20(%ebp)
    b2bc:	66 6f                	outsw  %ds:(%esi),(%dx)
    b2be:	72 20                	jb     b2e0 <ahci_write_blocks+0x2d0>
    b2c0:	64 65 76 69          	fs gs jbe b32d <ahci_write_blocks+0x31d>
    b2c4:	63 65 20             	arpl   %sp,0x20(%ebp)
    b2c7:	25 73 00 67 65       	and    $0x65670073,%eax
    b2cc:	6e                   	outsb  %ds:(%esi),(%dx)
    b2cd:	65 72 69             	gs jb  b339 <ahci_write_blocks+0x329>
    b2d0:	63 2f                	arpl   %bp,(%edi)
    b2d2:	64 72 69             	fs jb  b33e <ahci_write_blocks+0x32e>
    b2d5:	76 65                	jbe    b33c <ahci_write_blocks+0x32c>
    b2d7:	72 2e                	jb     b307 <ahci_write_blocks+0x2f7>
    b2d9:	63 00                	arpl   %ax,(%eax)
    b2db:	69 73 5f 76 61 6c 69 	imul   $0x696c6176,0x5f(%ebx),%esi
    b2e2:	64 5f                	fs pop %edi
    b2e4:	69 66 61 63 65 5f 69 	imul   $0x695f6563,0x61(%esi),%esp
    b2eb:	64 78 28             	fs js  b316 <ahci_write_blocks+0x306>
    b2ee:	69 64 78 29 00 72 65 	imul   $0x6d657200,0x29(%eax,%edi,2),%esp
    b2f5:	6d 
    b2f6:	5f                   	pop    %edi
    b2f7:	69 66 61 63 65 20 21 	imul   $0x21206563,0x61(%esi),%esp
    b2fe:	3d 20 4e 55 4c       	cmp    $0x4c554e20,%eax
    b303:	4c                   	dec    %esp
    b304:	00 64 65 76          	add    %ah,0x76(%ebp,%eiz,2)
    b308:	2d 3e 64 72 69       	sub    $0x6972643e,%eax
    b30d:	76 65                	jbe    b374 <ahci_write_blocks+0x364>
    b30f:	72 5f                	jb     b370 <ahci_write_blocks+0x360>
    b311:	64 61                	fs popa 
    b313:	74 61                	je     b376 <ahci_write_blocks+0x366>
    b315:	20 3d 3d 20 4e 55    	and    %bh,0x554e203d
    b31b:	4c                   	dec    %esp
    b31c:	4c                   	dec    %esp
    b31d:	00 64 65 76          	add    %ah,0x76(%ebp,%eiz,2)
    b321:	2d 3e 70 61 72       	sub    $0x7261703e,%eax
    b326:	65 6e                	outsb  %gs:(%esi),(%dx)
    b328:	74 5f                	je     b389 <ahci_write_blocks+0x379>
    b32a:	73 65                	jae    b391 <ahci_write_blocks+0x381>
    b32c:	73 73                	jae    b3a1 <ahci_write_blocks+0x391>
    b32e:	20 3d 3d 20 4e 55    	and    %bh,0x554e203d
    b334:	4c                   	dec    %esp
    b335:	4c                   	dec    %esp
    b336:	00 64 65 76          	add    %ah,0x76(%ebp,%eiz,2)
    b33a:	2d 3e 6e 61 6d       	sub    $0x6d616e3e,%eax
    b33f:	65 20 3d 3d 20 4e 55 	and    %bh,%gs:0x554e203d
    b346:	4c                   	dec    %esp
    b347:	4c                   	dec    %esp
    b348:	00 66 75             	add    %ah,0x75(%esi)
    b34b:	6e                   	outsb  %ds:(%esi),(%dx)
    b34c:	2d 3e 62 6f 75       	sub    $0x756f623e,%eax
    b351:	6e                   	outsb  %ds:(%esi),(%dx)
    b352:	64 20 3d 3d 20 66 61 	and    %bh,%fs:0x6166203d
    b359:	6c                   	insb   (%dx),%es:(%edi)
    b35a:	73 65                	jae    b3c1 <ahci_write_blocks+0x3b1>
    b35c:	00 66 75             	add    %ah,0x75(%esi)
    b35f:	6e                   	outsb  %ds:(%esi),(%dx)
    b360:	2d 3e 64 72 69       	sub    $0x6972643e,%eax
    b365:	76 65                	jbe    b3cc <ahci_write_blocks+0x3bc>
    b367:	72 5f                	jb     b3c8 <ahci_write_blocks+0x3b8>
    b369:	64 61                	fs popa 
    b36b:	74 61                	je     b3ce <ahci_write_blocks+0x3be>
    b36d:	20 3d 3d 20 4e 55    	and    %bh,0x554e203d
    b373:	4c                   	dec    %esp
    b374:	4c                   	dec    %esp
    b375:	00 66 75             	add    %ah,0x75(%esi)
    b378:	6e                   	outsb  %ds:(%esi),(%dx)
    b379:	2d 3e 6e 61 6d       	sub    $0x6d616e3e,%eax
    b37e:	65 20 21             	and    %ah,%gs:(%ecx)
    b381:	3d 20 4e 55 4c       	cmp    $0x4c554e20,%eax
    b386:	4c                   	dec    %esp
    b387:	00 66 75             	add    %ah,0x75(%esi)
    b38a:	6e                   	outsb  %ds:(%esi),(%dx)
    b38b:	2d 3e 64 65 76       	sub    $0x7665643e,%eax
    b390:	20 21                	and    %ah,(%ecx)
    b392:	3d 20 4e 55 4c       	cmp    $0x4c554e20,%eax
    b397:	4c                   	dec    %esp
    b398:	00 66 75             	add    %ah,0x75(%esi)
    b39b:	6e                   	outsb  %ds:(%esi),(%dx)
    b39c:	2d 3e 62 6f 75       	sub    $0x756f623e,%eax
    b3a1:	6e                   	outsb  %ds:(%esi),(%dx)
    b3a2:	64 20 3d 3d 20 74 72 	and    %bh,%fs:0x7274203d
    b3a9:	75 65                	jne    b410 <ahci_write_blocks+0x400>
    b3ab:	00 66 75             	add    %ah,0x75(%esi)
    b3ae:	6e                   	outsb  %ds:(%esi),(%dx)
    b3af:	2d 3e 66 74 79       	sub    $0x7974663e,%eax
    b3b4:	70 65                	jo     b41b <ahci_write_blocks+0x40b>
    b3b6:	20 3d 3d 20 66 75    	and    %bh,0x7566203d
    b3bc:	6e                   	outsb  %ds:(%esi),(%dx)
    b3bd:	5f                   	pop    %edi
    b3be:	69 6e 6e 65 72 00 66 	imul   $0x66007265,0x6e(%esi),%ebp
    b3c5:	75 6e                	jne    b435 <ahci_write_blocks+0x425>
    b3c7:	2d 3e 63 6f 6e       	sub    $0x6e6f633e,%eax
    b3cc:	6e                   	outsb  %ds:(%esi),(%dx)
    b3cd:	5f                   	pop    %edi
    b3ce:	68 61 6e 64 6c       	push   $0x6c646e61
    b3d3:	65 72 20             	gs jb  b3f6 <ahci_write_blocks+0x3e6>
    b3d6:	3d 3d 20 4e 55       	cmp    $0x554e203d,%eax
    b3db:	4c                   	dec    %esp
    b3dc:	4c                   	dec    %esp
    b3dd:	00 66 75             	add    %ah,0x75(%esi)
    b3e0:	6e                   	outsb  %ds:(%esi),(%dx)
    b3e1:	2d 3e 6f 70 73       	sub    $0x73706f3e,%eax
    b3e6:	20 3d 3d 20 4e 55    	and    %bh,0x554e203d
    b3ec:	4c                   	dec    %esp
    b3ed:	4c                   	dec    %esp
    b3ee:	00 66 75             	add    %ah,0x75(%esi)
    b3f1:	6e                   	outsb  %ds:(%esi),(%dx)
    b3f2:	2d 3e 66 74 79       	sub    $0x7974663e,%eax
    b3f7:	70 65                	jo     b45e <ahci_write_blocks+0x44e>
    b3f9:	20 3d 3d 20 66 75    	and    %bh,0x7566203d
    b3ff:	6e                   	outsb  %ds:(%esi),(%dx)
    b400:	5f                   	pop    %edi
    b401:	65 78 70             	gs js  b474 <ahci_write_blocks+0x464>
    b404:	6f                   	outsl  %ds:(%esi),(%dx)
    b405:	73 65                	jae    b46c <ahci_write_blocks+0x45c>
    b407:	64 00 64 72 69       	add    %ah,%fs:0x69(%edx,%esi,2)
    b40c:	76 65                	jbe    b473 <ahci_write_blocks+0x463>
    b40e:	72 20                	jb     b430 <ahci_write_blocks+0x420>
    b410:	61                   	popa   
    b411:	6c                   	insb   (%dx),%es:(%edi)
    b412:	72 65                	jb     b479 <ahci_write_blocks+0x469>
    b414:	61                   	popa   
    b415:	64 79 20             	fs jns b438 <ahci_write_blocks+0x428>
    b418:	73 74                	jae    b48e <ahci_write_blocks+0x47e>
    b41a:	61                   	popa   
    b41b:	72 74                	jb     b491 <ahci_write_blocks+0x481>
    b41d:	65 64 00 66 69       	gs add %ah,%fs:0x69(%esi)
    b422:	62 72 69             	bound  %esi,0x69(%edx)
    b425:	6c                   	insb   (%dx),%es:(%edi)
    b426:	5f                   	pop    %edi
    b427:	6d                   	insl   (%dx),%es:(%edi)
    b428:	75 74                	jne    b49e <ahci_write_blocks+0x48e>
    b42a:	65 78 5f             	gs js  b48c <ahci_write_blocks+0x47c>
    b42d:	69 73 5f 6c 6f 63 6b 	imul   $0x6b636f6c,0x5f(%ebx),%esi
    b434:	65 64 28 26          	gs sub %ah,%fs:(%esi)
    b438:	66 75 6e             	data16 jne b4a9 <ahci_write_blocks+0x499>
    b43b:	63 74 69 6f          	arpl   %si,0x6f(%ecx,%ebp,2)
    b43f:	6e                   	outsb  %ds:(%esi),(%dx)
    b440:	73 5f                	jae    b4a1 <ahci_write_blocks+0x491>
    b442:	6d                   	insl   (%dx),%es:(%edi)
    b443:	75 74                	jne    b4b9 <ahci_write_blocks+0x4a9>
    b445:	65 78 29             	gs js  b471 <ahci_write_blocks+0x461>
    b448:	00 00                	add    %al,(%eax)
    b44a:	00 00                	add    %al,(%eax)
    b44c:	25 73 3a 20 64       	and    $0x64203a73,%eax
    b451:	72 69                	jb     b4bc <ahci_write_blocks+0x4ac>
    b453:	76 65                	jbe    b4ba <ahci_write_blocks+0x4aa>
    b455:	72 5f                	jb     b4b6 <ahci_write_blocks+0x4a6>
    b457:	63 6f 6e             	arpl   %bp,0x6e(%edi)
    b45a:	6e                   	outsb  %ds:(%esi),(%dx)
    b45b:	65 63 74 69 6f       	arpl   %si,%gs:0x6f(%ecx,%ebp,2)
    b460:	6e                   	outsb  %ds:(%esi),(%dx)
    b461:	5f                   	pop    %edi
    b462:	67 65 6e             	outsb  %gs:(%si),(%dx)
    b465:	20 65 72             	and    %ah,0x72(%ebp)
    b468:	72 6f                	jb     b4d9 <ahci_write_blocks+0x4c9>
    b46a:	72 20                	jb     b48c <ahci_write_blocks+0x47c>
    b46c:	2d 20 69 6e 76       	sub    $0x766e6920,%eax
    b471:	61                   	popa   
    b472:	6c                   	insb   (%dx),%es:(%edi)
    b473:	69 64 20 69 6e 74 65 	imul   $0x7265746e,0x69(%eax,%eiz,1),%esp
    b47a:	72 
    b47b:	66 61                	popaw  
    b47d:	63 65 20             	arpl   %sp,0x20(%ebp)
    b480:	69 64 20 25 64 2e 00 	imul   $0x2e64,0x25(%eax,%eiz,1),%esp
    b487:	00 
    b488:	25 73 3a 20 64       	and    $0x64203a73,%eax
    b48d:	72 69                	jb     b4f8 <ahci_write_blocks+0x4e8>
    b48f:	76 65                	jbe    b4f6 <ahci_write_blocks+0x4e6>
    b491:	72 5f                	jb     b4f2 <ahci_write_blocks+0x4e2>
    b493:	63 6f 6e             	arpl   %bp,0x6e(%edi)
    b496:	6e                   	outsb  %ds:(%esi),(%dx)
    b497:	65 63 74 69 6f       	arpl   %si,%gs:0x6f(%ecx,%ebp,2)
    b49c:	6e                   	outsb  %ds:(%esi),(%dx)
    b49d:	5f                   	pop    %edi
    b49e:	67 65 6e             	outsb  %gs:(%si),(%dx)
    b4a1:	20 65 72             	and    %ah,0x72(%ebp)
    b4a4:	72 6f                	jb     b515 <ahci_write_blocks+0x505>
    b4a6:	72 20                	jb     b4c8 <ahci_write_blocks+0x4b8>
    b4a8:	2d 20 00 00 46       	sub    $0x46000020,%eax
    b4ad:	75 6e                	jne    b51d <ahci_write_blocks+0x50d>
    b4af:	63 74 69 6f          	arpl   %si,0x6f(%ecx,%ebp,2)
    b4b3:	6e                   	outsb  %ds:(%esi),(%dx)
    b4b4:	20 77 69             	and    %dh,0x69(%edi)
    b4b7:	74 68                	je     b521 <ahci_write_blocks+0x511>
    b4b9:	20 68 61             	and    %ch,0x61(%eax)
    b4bc:	6e                   	outsb  %ds:(%esi),(%dx)
    b4bd:	64 6c                	fs insb (%dx),%es:(%edi)
    b4bf:	65 20 25 75 20 68 61 	and    %ah,%gs:0x61682075
    b4c6:	73 20                	jae    b4e8 <ahci_write_blocks+0x4d8>
    b4c8:	6e                   	outsb  %ds:(%esi),(%dx)
    b4c9:	6f                   	outsl  %ds:(%esi),(%dx)
    b4ca:	20 69 6e             	and    %ch,0x6e(%ecx)
    b4cd:	74 65                	je     b534 <ahci_write_blocks+0x524>
    b4cf:	72 66                	jb     b537 <ahci_write_blocks+0x527>
    b4d1:	61                   	popa   
    b4d2:	63 65 20             	arpl   %sp,0x20(%ebp)
    b4d5:	77 69                	ja     b540 <ahci_write_blocks+0x530>
    b4d7:	74 68                	je     b541 <ahci_write_blocks+0x531>
    b4d9:	20 69 64             	and    %ch,0x64(%ecx)
    b4dc:	20 25 64 2e 0a 00    	and    %ah,0xa2e64
    b4e2:	00 00                	add    %al,(%eax)
    b4e4:	25 73 3a 20 64       	and    $0x64203a73,%eax
    b4e9:	72 69                	jb     b554 <ahci_write_blocks+0x544>
    b4eb:	76 65                	jbe    b552 <ahci_write_blocks+0x542>
    b4ed:	72 5f                	jb     b54e <ahci_write_blocks+0x53e>
    b4ef:	63 6f 6e             	arpl   %bp,0x6e(%edi)
    b4f2:	6e                   	outsb  %ds:(%esi),(%dx)
    b4f3:	65 63 74 69 6f       	arpl   %si,%gs:0x6f(%ecx,%ebp,2)
    b4f8:	6e                   	outsb  %ds:(%esi),(%dx)
    b4f9:	5f                   	pop    %edi
    b4fa:	67 65 6e             	outsb  %gs:(%si),(%dx)
    b4fd:	20 65 72             	and    %ah,0x72(%ebp)
    b500:	72 6f                	jb     b571 <ahci_write_blocks+0x561>
    b502:	72 20                	jb     b524 <ahci_write_blocks+0x514>
    b504:	2d 20 69 6e 76       	sub    $0x766e6920,%eax
    b509:	61                   	popa   
    b50a:	6c                   	insb   (%dx),%es:(%edi)
    b50b:	69 64 20 69 6e 74 65 	imul   $0x7265746e,0x69(%eax,%eiz,1),%esp
    b512:	72 
    b513:	66 61                	popaw  
    b515:	63 65 20             	arpl   %sp,0x20(%ebp)
    b518:	6d                   	insl   (%dx),%es:(%edi)
    b519:	65 74 68             	gs je  b584 <ahci_write_blocks+0x574>
    b51c:	6f                   	outsl  %ds:(%esi),(%dx)
    b51d:	64 2e 00 25 73 3a 20 	fs add %ah,%cs:0x64203a73
    b524:	64 
    b525:	72 69                	jb     b590 <ahci_write_blocks+0x580>
    b527:	76 65                	jbe    b58e <ahci_write_blocks+0x57e>
    b529:	72 5f                	jb     b58a <ahci_write_blocks+0x57a>
    b52b:	63 6f 6e             	arpl   %bp,0x6e(%edi)
    b52e:	6e                   	outsb  %ds:(%esi),(%dx)
    b52f:	65 63 74 69 6f       	arpl   %si,%gs:0x6f(%ecx,%ebp,2)
    b534:	6e                   	outsb  %ds:(%esi),(%dx)
    b535:	5f                   	pop    %edi
    b536:	67 65 6e             	outsb  %gs:(%si),(%dx)
    b539:	20 65 72             	and    %ah,0x72(%ebp)
    b53c:	72 6f                	jb     b5ad <ahci_write_blocks+0x59d>
    b53e:	72 20                	jb     b560 <ahci_write_blocks+0x550>
    b540:	2d 20 6e 6f 20       	sub    $0x206f6e20,%eax
    b545:	66 75 6e             	data16 jne b5b6 <ahci_write_blocks+0x5a6>
    b548:	63 74 69 6f          	arpl   %si,0x6f(%ecx,%ebp,2)
    b54c:	6e                   	outsb  %ds:(%esi),(%dx)
    b54d:	20 77 69             	and    %dh,0x69(%edi)
    b550:	74 68                	je     b5ba <ahci_write_blocks+0x5aa>
    b552:	20 68 61             	and    %ch,0x61(%eax)
    b555:	6e                   	outsb  %ds:(%esi),(%dx)
    b556:	64 6c                	fs insb (%dx),%es:(%edi)
    b558:	65 20 25 75 20 77 61 	and    %ah,%gs:0x61772075
    b55f:	73 20                	jae    b581 <ahci_write_blocks+0x571>
    b561:	66 6f                	outsw  %ds:(%esi),(%dx)
    b563:	75 6e                	jne    b5d3 <ahci_write_blocks+0x5c3>
    b565:	64 2e 0a 00          	fs or  %cs:(%eax),%al
    b569:	00 00                	add    %al,(%eax)
    b56b:	00 66 69             	add    %ah,0x69(%esi)
    b56e:	62 72 69             	bound  %esi,0x69(%edx)
    b571:	6c                   	insb   (%dx),%es:(%edi)
    b572:	5f                   	pop    %edi
    b573:	6d                   	insl   (%dx),%es:(%edi)
    b574:	75 74                	jne    b5ea <ahci_write_blocks+0x5da>
    b576:	65 78 5f             	gs js  b5d8 <ahci_write_blocks+0x5c8>
    b579:	69 73 5f 6c 6f 63 6b 	imul   $0x6b636f6c,0x5f(%ebx),%esi
    b580:	65 64 28 26          	gs sub %ah,%fs:(%esi)
    b584:	64 65 76 69          	fs gs jbe b5f1 <ahci_write_blocks+0x5e1>
    b588:	63 65 73             	arpl   %sp,0x73(%ebp)
    b58b:	5f                   	pop    %edi
    b58c:	6d                   	insl   (%dx),%es:(%edi)
    b58d:	75 74                	jne    b603 <remote_ifaces+0x3>
    b58f:	65 78 29             	gs js  b5bb <ahci_write_blocks+0x5ab>
    b592:	00 00                	add    %al,(%eax)
    b594:	45                   	inc    %ebp
    b595:	72 72                	jb     b609 <remote_ifaces+0x9>
    b597:	6f                   	outsl  %ds:(%esi),(%dx)
    b598:	72 3a                	jb     b5d4 <ahci_write_blocks+0x5c4>
    b59a:	20 46 61             	and    %al,0x61(%esi)
    b59d:	69 6c 65 64 20 74 6f 	imul   $0x206f7420,0x64(%ebp,%eiz,2),%ebp
    b5a4:	20 
    b5a5:	72 65                	jb     b60c <remote_ifaces+0xc>
    b5a7:	67 69 73 74 65 72 20 	imul   $0x64207265,0x74(%bp,%di),%esi
    b5ae:	64 
    b5af:	72 69                	jb     b61a <remote_ifaces+0x1a>
    b5b1:	76 65                	jbe    b618 <remote_ifaces+0x18>
    b5b3:	72 20                	jb     b5d5 <ahci_write_blocks+0x5c5>
    b5b5:	77 69                	ja     b620 <remote_ifaces+0x20>
    b5b7:	74 68                	je     b621 <remote_ifaces+0x21>
    b5b9:	20 64 65 76          	and    %ah,0x76(%ebp,%eiz,2)
    b5bd:	69 63 65 20 6d 61 6e 	imul   $0x6e616d20,0x65(%ebx),%esp
    b5c4:	61                   	popa   
    b5c5:	67 65 72 20          	addr16 gs jb b5e9 <ahci_write_blocks+0x5d9>
    b5c9:	28 25 73 29 2e 0a    	sub    %ah,0xa2e2973
    b5cf:	00 08                	add    %cl,(%eax)
    b5d1:	26 00 00             	add    %al,%es:(%eax)
    b5d4:	08 25 00 00 80 24    	or     %ah,0x24800000
    b5da:	00 00                	add    %al,(%eax)
    b5dc:	d8 23                	fsubs  (%ebx)
    b5de:	00 00                	add    %al,(%eax)
    b5e0:	e0 26                	loopne b608 <remote_ifaces+0x8>
    b5e2:	00 00                	add    %al,(%eax)
    b5e4:	67 65 6e             	outsb  %gs:(%si),(%dx)
    b5e7:	65 72 69             	gs jb  b653 <remote_audio_mixer_iface_ops+0xf>
    b5ea:	63 2f                	arpl   %bp,(%edi)
    b5ec:	64 65 76 5f          	fs gs jbe b64f <remote_audio_mixer_iface_ops+0xb>
    b5f0:	69 66 61 63 65 2e 63 	imul   $0x632e6563,0x61(%esi),%esp
    b5f7:	00 66 90             	add    %ah,-0x70(%esi)
    b5fa:	66 90                	xchg   %ax,%ax
    b5fc:	66 90                	xchg   %ax,%ax
    b5fe:	66 90                	xchg   %ax,%ax

0000b600 <remote_ifaces>:
    b600:	10 c9 00 00 28 c9 00 00 34 c9 00 00 3c b6 00 00     ....(...4...<...
    b610:	d4 c8 00 00 20 ca 00 00 70 cb 00 00 20 cc 00 00     .... ...p... ...
    b620:	c0 cb 00 00 58 cc 00 00 a8 cc 00 00 c0 cc 00 00     ....X...........
    b630:	d0 cc 00 00 dc cc 00 00 f4 cc 00 00                 ............

0000b63c <remote_audio_mixer_iface>:
    b63c:	04 00 00 00 44 b6 00 00                             ....D...

0000b644 <remote_audio_mixer_iface_ops>:
    b644:	50 33 00 00 40 32 00 00 90 31 00 00 e0 31 00 00     P3..@2...1...1..
    b654:	52 65 63 65 69 76 69 6e 67 20 73 68 61 72 65 20     Receiving share 
    b664:	72 65 71 75 65 73 74 2e 00 46 61 69 6c 65 64 20     request..Failed 
    b674:	74 6f 20 73 68 61 72 65 20 70 63 6d 20 62 75 66     to share pcm buf
    b684:	66 65 72 2e 00 43 61 6c 6c 69 6e 67 20 73 68 61     fer..Calling sha
    b694:	72 65 20 66 69 6e 61 6c 69 7a 65 2e 00 46 61 69     re finalize..Fai
    b6a4:	6c 65 64 20 74 6f 20 73 68 61 72 65 20 62 75 66     led to share buf
    b6b4:	66 65 72 2e 00 42 75 66 66 65 72 20 73 68 61 72     fer..Buffer shar
    b6c4:	65 64 20 77 69 74 68 20 73 69 7a 65 20 25 7a 75     ed with size %zu
    b6d4:	2e 00 46 61 69 6c 65 64 20 74 6f 20 73 65 74 20     ..Failed to set 
    b6e4:	65 76 65 6e 74 20 63 61 6c 6c 62 61 63 6b 2e 00     event callback..
    b6f4:	55 4e 4b 4e 4f 57 4e 20 43 41 50 00 55 4e 4b 4e     UNKNOWN CAP.UNKN
    b704:	4f 57 4e 20 45 56 45 4e 54 00 61 75 64 69 6f 2d     OWN EVENT.audio-
    b714:	70 63 6d 00 67 65 6e 65 72 69 63 2f 72 65 6d 6f     pcm.generic/remo
    b724:	74 65 5f 61 75 64 69 6f 5f 70 63 6d 2e 63 00 50     te_audio_pcm.c.P
    b734:	4c 41 59 42 41 43 4b 20 53 54 41 52 54 45 44 00     LAYBACK STARTED.
    b744:	43 41 50 54 55 52 45 20 53 54 41 52 54 45 44 00     CAPTURE STARTED.
    b754:	46 52 41 47 4d 45 4e 54 20 50 4c 41 59 45 44 00     FRAGMENT PLAYED.
    b764:	46 52 41 47 4d 45 4e 54 20 43 41 50 54 55 52 45     FRAGMENT CAPTURE
    b774:	44 00 50 4c 41 59 42 41 43 4b 20 54 45 52 4d 49     D.PLAYBACK TERMI
    b784:	4e 41 54 45 44 00 43 41 50 54 55 52 45 20 54 45     NATED.CAPTURE TE
    b794:	52 4d 49 4e 41 54 45 44 00 43 41 50 54 55 52 45     RMINATED.CAPTURE
    b7a4:	00 50 4c 41 59 42 41 43 4b 00 4d 41 58 49 4d 55     .PLAYBACK.MAXIMU
    b7b4:	4d 20 42 55 46 46 45 52 20 53 49 5a 45 00 4b 4e     M BUFFER SIZE.KN
    b7c4:	4f 57 53 20 42 55 46 46 45 52 20 50 4f 53 49 54     OWS BUFFER POSIT
    b7d4:	49 4f 4e 00 46 52 41 47 4d 45 4e 54 20 49 4e 54     ION.FRAGMENT INT
    b7e4:	45 52 52 55 50 54 53 00 4d 49 4e 49 4d 55 4d 20     ERRUPTS.MINIMUM 
    b7f4:	46 52 41 47 4d 45 4e 54 20 53 49 5a 45 00 4d 41     FRAGMENT SIZE.MA
    b804:	58 49 4d 55 4d 20 46 52 41 47 4d 45 4e 54 20 53     XIMUM FRAGMENT S
    b814:	49 5a 45 00 43 68 65 63 6b 69 6e 67 20 72 65 71     IZE.Checking req
    b824:	75 65 73 74 65 64 20 73 68 61 72 65 20 73 69 7a     uested share siz
    b834:	65 2e 00 00 49 6e 63 6f 72 72 65 63 74 20 70 63     e...Incorrect pc
    b844:	6d 20 62 75 66 66 65 72 20 73 69 7a 65 20 72 65     m buffer size re
    b854:	71 75 65 73 74 65 64 2e 00 00 00 00 46 61 69 6c     quested.....Fail
    b864:	65 64 20 74 6f 20 63 72 65 61 74 65 20 65 76 65     ed to create eve
    b874:	6e 74 20 63 61 6c 6c 62 61 63 6b 00 28 66 6f 72     nt callback.(for
    b884:	6d 61 74 20 26 20 55 49 4e 54 31 36 5f 4d 41 58     mat & UINT16_MAX
    b894:	29 20 3d 3d 20 66 6f 72 6d 61 74 00                 ) == format.

0000b8a0 <events.2836>:
	...
    c8a0:	33 b7 00 00 44 b7 00 00 54 b7 00 00 64 b7 00 00     3...D...T...d...
    c8b0:	76 b7 00 00 8a b7 00 00                             v.......

0000c8b8 <caps.2832>:
    c8b8:	9d b7 00 00 a5 b7 00 00 ae b7 00 00 c2 b7 00 00     ................
    c8c8:	d8 b7 00 00 ec b7 00 00 02 b8 00 00                 ............

0000c8d4 <remote_audio_pcm_iface>:
    c8d4:	0c 00 00 00 e0 c8 00 00 00 00 00 00                 ............

0000c8e0 <remote_audio_pcm_iface_ops>:
    c8e0:	a0 3c 00 00 60 39 00 00 c0 3b 00 00 a0 38 00 00     .<..`9...;...8..
    c8f0:	50 3b 00 00 c0 39 00 00 50 38 00 00 10 39 00 00     P;...9..P8...9..
    c900:	f0 37 00 00 90 37 00 00 30 37 00 00 d0 36 00 00     .7...7..07...6..

0000c910 <remote_hw_res_iface>:
    c910:	04 00 00 00 18 c9 00 00                             ........

0000c918 <remote_hw_res_iface_ops>:
    c918:	30 49 00 00 60 48 00 00 f0 47 00 00 d0 48 00 00     0I..`H...G...H..

0000c928 <remote_pio_window_iface>:
    c928:	01 00 00 00 30 c9 00 00                             ....0...

0000c930 <remote_pio_window_iface_ops>:
    c930:	d0 49 00 00                                         .I..

0000c934 <remote_char_dev_iface>:
    c934:	02 00 00 00 3c c9 00 00                             ....<...

0000c93c <remote_char_dev_iface_ops>:
    c93c:	60 4b 00 00 70 4a 00 00 67 65 6e 65 72 69 63 2f     `K..pJ..generic/
    c94c:	72 65 6d 6f 74 65 5f 6e 69 63 2e 63 00 6e 69 63     remote_nic.c.nic
    c95c:	5f 69 66 61 63 65 2d 3e 67 65 74 5f 61 64 64 72     _iface->get_addr
    c96c:	65 73 73 00 6e 69 63 5f 69 66 61 63 65 2d 3e 73     ess.nic_iface->s
    c97c:	65 74 5f 73 74 61 74 65 00 6e 69 63 5f 69 66 61     et_state.nic_ifa
    c98c:	63 65 2d 3e 63 61 6c 6c 62 61 63 6b 5f 63 72 65     ce->callback_cre
    c99c:	61 74 65 00 6e 69 63 5f 69 66 61 63 65 2d 3e 67     ate.nic_iface->g
    c9ac:	65 74 5f 73 74 61 74 65 00 6e 69 63 5f 69 66 61     et_state.nic_ifa
    c9bc:	63 65 2d 3e 73 65 6e 64 5f 66 72 61 6d 65 00 73     ce->send_frame.s
    c9cc:	74 61 74 73 00 64 65 76 69 63 65 5f 69 6e 66 6f     tats.device_info
    c9dc:	00 63 61 62 6c 65 5f 73 74 61 74 65 00 6d 6f 64     .cable_state.mod
    c9ec:	65 00 6d 61 73 6b 00 69 64 00 63 6f 75 6e 74 00     e.mask.id.count.
    c9fc:	6d 61 74 63 68 65 64 5f 74 79 70 65 00 73 75 70     matched_type.sup
    ca0c:	70 6f 72 74 65 64 00 61 63 74 69 76 65 00 66 90     ported.active.f.
    ca1c:	66 90 66 90                                         f.f.

0000ca20 <remote_nic_iface>:
    ca20:	29 00 00 00 40 ca 00 00 00 00 00 00 00 00 00 00     )...@...........
	...

0000ca40 <remote_nic_iface_ops>:
    ca40:	00 6c 00 00 60 6b 00 00 b0 6b 00 00 10 6b 00 00     .l..`k...k...k..
    ca50:	30 5a 00 00 90 53 00 00 50 59 00 00 50 58 00 00     0Z...S..PY..PX..
    ca60:	b0 56 00 00 20 6a 00 00 20 51 00 00 d0 50 00 00     .V.. j.. Q...P..
    ca70:	80 50 00 00 90 6a 00 00 30 50 00 00 c0 69 00 00     .P...j..0P...i..
    ca80:	d0 4f 00 00 00 68 00 00 a0 66 00 00 f0 64 00 00     .O...h...f...d..
    ca90:	90 63 00 00 50 56 00 00 80 4f 00 00 f0 55 00 00     .c..PV...O...U..
    caa0:	30 4f 00 00 10 62 00 00 c0 60 00 00 70 57 00 00     0O...b...`..pW..
    cab0:	70 52 00 00 c0 4e 00 00 50 5f 00 00 70 4e 00 00     pR...N..P_..pN..
    cac0:	d0 5d 00 00 50 5c 00 00 90 55 00 00 10 5b 00 00     .]..P\...U...[..
    cad0:	10 57 00 00 10 4e 00 00 80 54 00 00 70 51 00 00     .W...N...T..pQ..
    cae0:	c0 4d 00 00 67 65 6e 65 72 69 63 2f 72 65 6d 6f     .M..generic/remo
    caf0:	74 65 5f 69 65 65 65 38 30 32 31 31 2e 63 00 69     te_ieee80211.c.i
    cb00:	65 65 65 38 30 32 31 31 5f 69 66 61 63 65 2d 3e     eee80211_iface->
    cb10:	63 6f 6e 6e 65 63 74 00 69 65 65 65 38 30 32 31     connect.ieee8021
    cb20:	31 5f 69 66 61 63 65 2d 3e 64 69 73 63 6f 6e 6e     1_iface->disconn
    cb30:	65 63 74 00 72 65 73 75 6c 74 73 00 73 73 69 64     ect.results.ssid
    cb40:	5f 73 74 61 72 74 00 64 68 63 70 00 69 65 65 65     _start.dhcp.ieee
    cb50:	38 30 32 31 31 5f 69 66 61 63 65 2d 3e 67 65 74     80211_iface->get
    cb60:	5f 73 63 61 6e 5f 72 65 73 75 6c 74 73 00 66 90     _scan_results.f.

0000cb70 <remote_ieee80211_iface>:
    cb70:	03 00 00 00 78 cb 00 00                             ....x...

0000cb78 <remote_ieee80211_iface_ops>:
    cb78:	40 84 00 00 60 83 00 00 50 85 00 00 67 65 6e 65     @...`...P...gene
    cb88:	72 69 63 2f 72 65 6d 6f 74 65 5f 75 73 62 2e 63     ric/remote_usb.c
    cb98:	00 66 75 6e 00 69 66 61 63 65 00 63 61 6c 6c 00     .fun.iface.call.
    cba8:	66 90 66 90 66 90 66 90 66 90 66 90 66 90 66 90     f.f.f.f.f.f.f.f.
    cbb8:	66 90 66 90 66 90 66 90                             f.f.f.f.

0000cbc0 <remote_usb_iface>:
    cbc0:	0a 00 00 00 e0 cb 00 00 00 00 00 00 00 00 00 00     ................
	...

0000cbe0 <remote_usb_iface_ops>:
    cbe0:	70 8c 00 00 00 8c 00 00 b0 8b 00 00 60 8b 00 00     p...........`...
    cbf0:	10 8b 00 00 c0 8a 00 00 40 8a 00 00 f0 89 00 00     ........@.......
    cc00:	40 8f 00 00 c0 8d 00 00 67 65 6e 65 72 69 63 2f     @.......generic/
    cc10:	72 65 6d 6f 74 65 5f 70 63 69 2e 63 00 66 90 90     remote_pci.c.f..

0000cc20 <remote_pci_iface>:
    cc20:	06 00 00 00 28 cc 00 00                             ....(...

0000cc28 <remote_pci_iface_ops>:
    cc28:	00 98 00 00 80 97 00 00 00 97 00 00 60 96 00 00     ............`...
    cc38:	d0 95 00 00 50 95 00 00 67 65 6e 65 72 69 63 2f     ....P...generic/
    cc48:	72 65 6d 6f 74 65 5f 75 73 62 68 63 2e 63 00 90     remote_usbhc.c..

0000cc58 <remote_usbhc_iface>:
    cc58:	02 00 00 00 60 cc 00 00                             ....`...

0000cc60 <remote_usbhc_iface_ops>:
    cc60:	20 9d 00 00 90 9b 00 00 72 65 6d 6f 74 65 5f 75      .......remote_u
    cc70:	73 62 68 69 64 5f 67 65 74 5f 65 76 65 6e 74 5f     sbhid_get_event_
    cc80:	6c 65 6e 67 74 68 28 29 0a 00 00 00 47 65 74 20     length()....Get 
    cc90:	65 76 65 6e 74 20 6c 65 6e 67 74 68 20 6e 6f 74     event length not
    cca0:	20 73 65 74 21 0a 00 90                              set!...

0000cca8 <remote_usbhid_iface>:
    cca8:	04 00 00 00 b0 cc 00 00                             ........

0000ccb0 <remote_usbhid_iface_ops>:
    ccb0:	c0 a3 00 00 50 a2 00 00 00 a2 00 00 a0 a0 00 00     ....P...........

0000ccc0 <remote_clock_dev_iface>:
    ccc0:	02 00 00 00 c8 cc 00 00                             ........

0000ccc8 <remote_clock_dev_iface_ops>:
    ccc8:	40 a8 00 00 a0 a7 00 00                             @.......

0000ccd0 <remote_led_dev_iface>:
    ccd0:	01 00 00 00 d8 cc 00 00                             ........

0000ccd8 <remote_led_dev_iface_ops>:
    ccd8:	10 a9 00 00                                         ....

0000ccdc <remote_battery_dev_iface>:
    ccdc:	02 00 00 00 e4 cc 00 00                             ........

0000cce4 <remote_battery_dev_iface_ops>:
    cce4:	d0 a9 00 00 60 a9 00 00 61 68 63 69 5f 00 66 90     ....`...ahci_.f.

0000ccf4 <remote_ahci_iface>:
    ccf4:	05 00 00 00 fc cc 00 00                             ........

0000ccfc <remote_ahci_iface_ops>:
    ccfc:	e0 ac 00 00 70 ac 00 00 00 ac 00 00 80 ab 00 00     ....p...........
    cd0c:	00 ab 00 00                                         ....

Disassembly of section .plt:

0000cfd0 <pio_enable@plt-0x10>:
    cfd0:	ff 35 a8 f4 00 00    	pushl  0xf4a8
    cfd6:	ff 25 ac f4 00 00    	jmp    *0xf4ac
    cfdc:	00 00                	add    %al,(%eax)
	...

0000cfe0 <pio_enable@plt>:
    cfe0:	ff 25 b0 f4 00 00    	jmp    *0xf4b0
    cfe6:	68 00 00 00 00       	push   $0x0
    cfeb:	e9 e0 ff ff ff       	jmp    cfd0 <remote_ahci_iface_ops+0x2d4>

0000cff0 <__main@plt>:
    cff0:	ff 25 b4 f4 00 00    	jmp    *0xf4b4
    cff6:	68 08 00 00 00       	push   $0x8
    cffb:	e9 d0 ff ff ff       	jmp    cfd0 <remote_ahci_iface_ops+0x2d4>

0000d000 <loc_category_get_id@plt>:
    d000:	ff 25 b8 f4 00 00    	jmp    *0xf4b8
    d006:	68 10 00 00 00       	push   $0x10
    d00b:	e9 c0 ff ff ff       	jmp    cfd0 <remote_ahci_iface_ops+0x2d4>

0000d010 <devman_device_connect@plt>:
    d010:	ff 25 bc f4 00 00    	jmp    *0xf4bc
    d016:	68 18 00 00 00       	push   $0x18
    d01b:	e9 b0 ff ff ff       	jmp    cfd0 <remote_ahci_iface_ops+0x2d4>

0000d020 <task_retval@plt>:
    d020:	ff 25 c0 f4 00 00    	jmp    *0xf4c0
    d026:	68 20 00 00 00       	push   $0x20
    d02b:	e9 a0 ff ff ff       	jmp    cfd0 <remote_ahci_iface_ops+0x2d4>

0000d030 <loc_service_connect@plt>:
    d030:	ff 25 c4 f4 00 00    	jmp    *0xf4c4
    d036:	68 28 00 00 00       	push   $0x28
    d03b:	e9 90 ff ff ff       	jmp    cfd0 <remote_ahci_iface_ops+0x2d4>

0000d040 <inetcfg_sroute_get@plt>:
    d040:	ff 25 c8 f4 00 00    	jmp    *0xf4c8
    d046:	68 30 00 00 00       	push   $0x30
    d04b:	e9 80 ff ff ff       	jmp    cfd0 <remote_ahci_iface_ops+0x2d4>

0000d050 <printf@plt>:
    d050:	ff 25 cc f4 00 00    	jmp    *0xf4cc
    d056:	68 38 00 00 00       	push   $0x38
    d05b:	e9 70 ff ff ff       	jmp    cfd0 <remote_ahci_iface_ops+0x2d4>

0000d060 <async_hangup@plt>:
    d060:	ff 25 d0 f4 00 00    	jmp    *0xf4d0
    d066:	68 40 00 00 00       	push   $0x40
    d06b:	e9 60 ff ff ff       	jmp    cfd0 <remote_ahci_iface_ops+0x2d4>

0000d070 <async_wait_for@plt>:
    d070:	ff 25 d4 f4 00 00    	jmp    *0xf4d4
    d076:	68 48 00 00 00       	push   $0x48
    d07b:	e9 50 ff ff ff       	jmp    cfd0 <remote_ahci_iface_ops+0x2d4>

0000d080 <inetcfg_addr_get@plt>:
    d080:	ff 25 d8 f4 00 00    	jmp    *0xf4d8
    d086:	68 50 00 00 00       	push   $0x50
    d08b:	e9 40 ff ff ff       	jmp    cfd0 <remote_ahci_iface_ops+0x2d4>

0000d090 <devman_parent_device_connect@plt>:
    d090:	ff 25 dc f4 00 00    	jmp    *0xf4dc
    d096:	68 58 00 00 00       	push   $0x58
    d09b:	e9 30 ff ff ff       	jmp    cfd0 <remote_ahci_iface_ops+0x2d4>

0000d0a0 <log_init@plt>:
    d0a0:	ff 25 e0 f4 00 00    	jmp    *0xf4e0
    d0a6:	68 60 00 00 00       	push   $0x60
    d0ab:	e9 20 ff ff ff       	jmp    cfd0 <remote_ahci_iface_ops+0x2d4>

0000d0b0 <async_data_write_start@plt>:
    d0b0:	ff 25 e4 f4 00 00    	jmp    *0xf4e4
    d0b6:	68 68 00 00 00       	push   $0x68
    d0bb:	e9 10 ff ff ff       	jmp    cfd0 <remote_ahci_iface_ops+0x2d4>

0000d0c0 <fibril_mutex_is_locked@plt>:
    d0c0:	ff 25 e8 f4 00 00    	jmp    *0xf4e8
    d0c6:	68 70 00 00 00       	push   $0x70
    d0cb:	e9 00 ff ff ff       	jmp    cfd0 <remote_ahci_iface_ops+0x2d4>

0000d0d0 <devman_drv_fun_online@plt>:
    d0d0:	ff 25 ec f4 00 00    	jmp    *0xf4ec
    d0d6:	68 78 00 00 00       	push   $0x78
    d0db:	e9 f0 fe ff ff       	jmp    cfd0 <remote_ahci_iface_ops+0x2d4>

0000d0e0 <async_data_read_finalize@plt>:
    d0e0:	ff 25 f0 f4 00 00    	jmp    *0xf4f0
    d0e6:	68 80 00 00 00       	push   $0x80
    d0eb:	e9 e0 fe ff ff       	jmp    cfd0 <remote_ahci_iface_ops+0x2d4>

0000d0f0 <async_share_in_start@plt>:
    d0f0:	ff 25 f4 f4 00 00    	jmp    *0xf4f4
    d0f6:	68 88 00 00 00       	push   $0x88
    d0fb:	e9 d0 fe ff ff       	jmp    cfd0 <remote_ahci_iface_ops+0x2d4>

0000d100 <memcpy@plt>:
    d100:	ff 25 f8 f4 00 00    	jmp    *0xf4f8
    d106:	68 90 00 00 00       	push   $0x90
    d10b:	e9 c0 fe ff ff       	jmp    cfd0 <remote_ahci_iface_ops+0x2d4>

0000d110 <time_tv2tm@plt>:
    d110:	ff 25 fc f4 00 00    	jmp    *0xf4fc
    d116:	68 98 00 00 00       	push   $0x98
    d11b:	e9 b0 fe ff ff       	jmp    cfd0 <remote_ahci_iface_ops+0x2d4>

0000d120 <malloc@plt>:
    d120:	ff 25 00 f5 00 00    	jmp    *0xf500
    d126:	68 a0 00 00 00       	push   $0xa0
    d12b:	e9 a0 fe ff ff       	jmp    cfd0 <remote_ahci_iface_ops+0x2d4>

0000d130 <devman_add_device_to_category@plt>:
    d130:	ff 25 04 f5 00 00    	jmp    *0xf504
    d136:	68 a8 00 00 00       	push   $0xa8
    d13b:	e9 90 fe ff ff       	jmp    cfd0 <remote_ahci_iface_ops+0x2d4>

0000d140 <async_share_out_receive@plt>:
    d140:	ff 25 08 f5 00 00    	jmp    *0xf508
    d146:	68 b0 00 00 00       	push   $0xb0
    d14b:	e9 80 fe ff ff       	jmp    cfd0 <remote_ahci_iface_ops+0x2d4>

0000d150 <async_req_fast@plt>:
    d150:	ff 25 0c f5 00 00    	jmp    *0xf50c
    d156:	68 b8 00 00 00       	push   $0xb8
    d15b:	e9 70 fe ff ff       	jmp    cfd0 <remote_ahci_iface_ops+0x2d4>

0000d160 <async_answer_0@plt>:
    d160:	ff 25 10 f5 00 00    	jmp    *0xf510
    d166:	68 c0 00 00 00       	push   $0xc0
    d16b:	e9 60 fe ff ff       	jmp    cfd0 <remote_ahci_iface_ops+0x2d4>

0000d170 <async_send_fast@plt>:
    d170:	ff 25 14 f5 00 00    	jmp    *0xf514
    d176:	68 c8 00 00 00       	push   $0xc8
    d17b:	e9 50 fe ff ff       	jmp    cfd0 <remote_ahci_iface_ops+0x2d4>

0000d180 <async_data_read@plt>:
    d180:	ff 25 18 f5 00 00    	jmp    *0xf518
    d186:	68 d0 00 00 00       	push   $0xd0
    d18b:	e9 40 fe ff ff       	jmp    cfd0 <remote_ahci_iface_ops+0x2d4>

0000d190 <tv_add@plt>:
    d190:	ff 25 1c f5 00 00    	jmp    *0xf51c
    d196:	68 d8 00 00 00       	push   $0xd8
    d19b:	e9 30 fe ff ff       	jmp    cfd0 <remote_ahci_iface_ops+0x2d4>

0000d1a0 <log_msgv@plt>:
    d1a0:	ff 25 20 f5 00 00    	jmp    *0xf520
    d1a6:	68 e0 00 00 00       	push   $0xe0
    d1ab:	e9 20 fe ff ff       	jmp    cfd0 <remote_ahci_iface_ops+0x2d4>

0000d1b0 <devman_add_function@plt>:
    d1b0:	ff 25 24 f5 00 00    	jmp    *0xf524
    d1b6:	68 e8 00 00 00       	push   $0xe8
    d1bb:	e9 10 fe ff ff       	jmp    cfd0 <remote_ahci_iface_ops+0x2d4>

0000d1c0 <pio_read_8@plt>:
    d1c0:	ff 25 28 f5 00 00    	jmp    *0xf528
    d1c6:	68 f0 00 00 00       	push   $0xf0
    d1cb:	e9 00 fe ff ff       	jmp    cfd0 <remote_ahci_iface_ops+0x2d4>

0000d1d0 <async_exchange_end@plt>:
    d1d0:	ff 25 2c f5 00 00    	jmp    *0xf52c
    d1d6:	68 f8 00 00 00       	push   $0xf8
    d1db:	e9 f0 fd ff ff       	jmp    cfd0 <remote_ahci_iface_ops+0x2d4>

0000d1e0 <assert_abort@plt>:
    d1e0:	ff 25 30 f5 00 00    	jmp    *0xf530
    d1e6:	68 00 01 00 00       	push   $0x100
    d1eb:	e9 e0 fd ff ff       	jmp    cfd0 <remote_ahci_iface_ops+0x2d4>

0000d1f0 <inetcfg_get_sroute_list@plt>:
    d1f0:	ff 25 34 f5 00 00    	jmp    *0xf534
    d1f6:	68 08 01 00 00       	push   $0x108
    d1fb:	e9 d0 fd ff ff       	jmp    cfd0 <remote_ahci_iface_ops+0x2d4>

0000d200 <calloc@plt>:
    d200:	ff 25 38 f5 00 00    	jmp    *0xf538
    d206:	68 10 01 00 00       	push   $0x110
    d20b:	e9 c0 fd ff ff       	jmp    cfd0 <remote_ahci_iface_ops+0x2d4>

0000d210 <inetcfg_addr_delete@plt>:
    d210:	ff 25 3c f5 00 00    	jmp    *0xf53c
    d216:	68 18 01 00 00       	push   $0x118
    d21b:	e9 b0 fd ff ff       	jmp    cfd0 <remote_ahci_iface_ops+0x2d4>

0000d220 <devman_remove_function@plt>:
    d220:	ff 25 40 f5 00 00    	jmp    *0xf540
    d226:	68 20 01 00 00       	push   $0x120
    d22b:	e9 a0 fd ff ff       	jmp    cfd0 <remote_ahci_iface_ops+0x2d4>

0000d230 <pio_write_8@plt>:
    d230:	ff 25 44 f5 00 00    	jmp    *0xf544
    d236:	68 28 01 00 00       	push   $0x128
    d23b:	e9 90 fd ff ff       	jmp    cfd0 <remote_ahci_iface_ops+0x2d4>

0000d240 <hw_res_get_resource_list@plt>:
    d240:	ff 25 48 f5 00 00    	jmp    *0xf548
    d246:	68 30 01 00 00       	push   $0x130
    d24b:	e9 80 fd ff ff       	jmp    cfd0 <remote_ahci_iface_ops+0x2d4>

0000d250 <async_share_out_finalize@plt>:
    d250:	ff 25 4c f5 00 00    	jmp    *0xf54c
    d256:	68 38 01 00 00       	push   $0x138
    d25b:	e9 70 fd ff ff       	jmp    cfd0 <remote_ahci_iface_ops+0x2d4>

0000d260 <str_test_prefix@plt>:
    d260:	ff 25 50 f5 00 00    	jmp    *0xf550
    d266:	68 40 01 00 00       	push   $0x140
    d26b:	e9 60 fd ff ff       	jmp    cfd0 <remote_ahci_iface_ops+0x2d4>

0000d270 <async_answer_2@plt>:
    d270:	ff 25 54 f5 00 00    	jmp    *0xf554
    d276:	68 48 01 00 00       	push   $0x148
    d27b:	e9 50 fd ff ff       	jmp    cfd0 <remote_ahci_iface_ops+0x2d4>

0000d280 <fibril_mutex_unlock@plt>:
    d280:	ff 25 58 f5 00 00    	jmp    *0xf558
    d286:	68 50 01 00 00       	push   $0x150
    d28b:	e9 40 fd ff ff       	jmp    cfd0 <remote_ahci_iface_ops+0x2d4>

0000d290 <async_callback_receive_start@plt>:
    d290:	ff 25 5c f5 00 00    	jmp    *0xf55c
    d296:	68 58 01 00 00       	push   $0x158
    d29b:	e9 30 fd ff ff       	jmp    cfd0 <remote_ahci_iface_ops+0x2d4>

0000d2a0 <str_dup@plt>:
    d2a0:	ff 25 60 f5 00 00    	jmp    *0xf560
    d2a6:	68 60 01 00 00       	push   $0x160
    d2ab:	e9 20 fd ff ff       	jmp    cfd0 <remote_ahci_iface_ops+0x2d4>

0000d2b0 <fibril_mutex_initialize@plt>:
    d2b0:	ff 25 64 f5 00 00    	jmp    *0xf564
    d2b6:	68 68 01 00 00       	push   $0x168
    d2bb:	e9 10 fd ff ff       	jmp    cfd0 <remote_ahci_iface_ops+0x2d4>

0000d2c0 <async_answer_4@plt>:
    d2c0:	ff 25 68 f5 00 00    	jmp    *0xf568
    d2c6:	68 70 01 00 00       	push   $0x170
    d2cb:	e9 00 fd ff ff       	jmp    cfd0 <remote_ahci_iface_ops+0x2d4>

0000d2d0 <inetcfg_get_addr_list@plt>:
    d2d0:	ff 25 6c f5 00 00    	jmp    *0xf56c
    d2d6:	68 78 01 00 00       	push   $0x178
    d2db:	e9 f0 fc ff ff       	jmp    cfd0 <remote_ahci_iface_ops+0x2d4>

0000d2e0 <mktime@plt>:
    d2e0:	ff 25 70 f5 00 00    	jmp    *0xf570
    d2e6:	68 80 01 00 00       	push   $0x180
    d2eb:	e9 e0 fc ff ff       	jmp    cfd0 <remote_ahci_iface_ops+0x2d4>

0000d2f0 <async_send_slow@plt>:
    d2f0:	ff 25 74 f5 00 00    	jmp    *0xf574
    d2f6:	68 88 01 00 00       	push   $0x188
    d2fb:	e9 d0 fc ff ff       	jmp    cfd0 <remote_ahci_iface_ops+0x2d4>

0000d300 <inetcfg_link_get@plt>:
    d300:	ff 25 78 f5 00 00    	jmp    *0xf578
    d306:	68 90 01 00 00       	push   $0x190
    d30b:	e9 c0 fc ff ff       	jmp    cfd0 <remote_ahci_iface_ops+0x2d4>

0000d310 <devman_drv_fun_offline@plt>:
    d310:	ff 25 7c f5 00 00    	jmp    *0xf57c
    d316:	68 98 01 00 00       	push   $0x198
    d31b:	e9 b0 fc ff ff       	jmp    cfd0 <remote_ahci_iface_ops+0x2d4>

0000d320 <async_create_callback_port@plt>:
    d320:	ff 25 80 f5 00 00    	jmp    *0xf580
    d326:	68 a0 01 00 00       	push   $0x1a0
    d32b:	e9 a0 fc ff ff       	jmp    cfd0 <remote_ahci_iface_ops+0x2d4>

0000d330 <dhcp_discover@plt>:
    d330:	ff 25 84 f5 00 00    	jmp    *0xf584
    d336:	68 a8 01 00 00       	push   $0x1a8
    d33b:	e9 90 fc ff ff       	jmp    cfd0 <remote_ahci_iface_ops+0x2d4>

0000d340 <tv_sub@plt>:
    d340:	ff 25 88 f5 00 00    	jmp    *0xf588
    d346:	68 b0 01 00 00       	push   $0x1b0
    d34b:	e9 80 fc ff ff       	jmp    cfd0 <remote_ahci_iface_ops+0x2d4>

0000d350 <devman_driver_register@plt>:
    d350:	ff 25 8c f5 00 00    	jmp    *0xf58c
    d356:	68 b8 01 00 00       	push   $0x1b8
    d35b:	e9 70 fc ff ff       	jmp    cfd0 <remote_ahci_iface_ops+0x2d4>

0000d360 <memset@plt>:
    d360:	ff 25 90 f5 00 00    	jmp    *0xf590
    d366:	68 c0 01 00 00       	push   $0x1c0
    d36b:	e9 60 fc ff ff       	jmp    cfd0 <remote_ahci_iface_ops+0x2d4>

0000d370 <async_data_read_receive@plt>:
    d370:	ff 25 94 f5 00 00    	jmp    *0xf594
    d376:	68 c8 01 00 00       	push   $0x1c8
    d37b:	e9 50 fc ff ff       	jmp    cfd0 <remote_ahci_iface_ops+0x2d4>

0000d380 <async_data_read_start@plt>:
    d380:	ff 25 98 f5 00 00    	jmp    *0xf598
    d386:	68 d0 01 00 00       	push   $0x1d0
    d38b:	e9 40 fc ff ff       	jmp    cfd0 <remote_ahci_iface_ops+0x2d4>

0000d390 <async_share_in_receive@plt>:
    d390:	ff 25 9c f5 00 00    	jmp    *0xf59c
    d396:	68 d8 01 00 00       	push   $0x1d8
    d39b:	e9 30 fc ff ff       	jmp    cfd0 <remote_ahci_iface_ops+0x2d4>

0000d3a0 <getuptime@plt>:
    d3a0:	ff 25 a0 f5 00 00    	jmp    *0xf5a0
    d3a6:	68 e0 01 00 00       	push   $0x1e0
    d3ab:	e9 20 fc ff ff       	jmp    cfd0 <remote_ahci_iface_ops+0x2d4>

0000d3b0 <inetcfg_sroute_delete@plt>:
    d3b0:	ff 25 a4 f5 00 00    	jmp    *0xf5a4
    d3b6:	68 e8 01 00 00       	push   $0x1e8
    d3bb:	e9 10 fc ff ff       	jmp    cfd0 <remote_ahci_iface_ops+0x2d4>

0000d3c0 <loc_category_get_svcs@plt>:
    d3c0:	ff 25 a8 f5 00 00    	jmp    *0xf5a8
    d3c6:	68 f0 01 00 00       	push   $0x1f0
    d3cb:	e9 00 fc ff ff       	jmp    cfd0 <remote_ahci_iface_ops+0x2d4>

0000d3d0 <async_get_call_timeout@plt>:
    d3d0:	ff 25 ac f5 00 00    	jmp    *0xf5ac
    d3d6:	68 f8 01 00 00       	push   $0x1f8
    d3db:	e9 f0 fb ff ff       	jmp    cfd0 <remote_ahci_iface_ops+0x2d4>

0000d3e0 <str_size@plt>:
    d3e0:	ff 25 b0 f5 00 00    	jmp    *0xf5b0
    d3e6:	68 00 02 00 00       	push   $0x200
    d3eb:	e9 e0 fb ff ff       	jmp    cfd0 <remote_ahci_iface_ops+0x2d4>

0000d3f0 <str_lcmp@plt>:
    d3f0:	ff 25 b4 f5 00 00    	jmp    *0xf5b4
    d3f6:	68 08 02 00 00       	push   $0x208
    d3fb:	e9 d0 fb ff ff       	jmp    cfd0 <remote_ahci_iface_ops+0x2d4>

0000d400 <async_answer_1@plt>:
    d400:	ff 25 b8 f5 00 00    	jmp    *0xf5b8
    d406:	68 10 02 00 00       	push   $0x210
    d40b:	e9 c0 fb ff ff       	jmp    cfd0 <remote_ahci_iface_ops+0x2d4>

0000d410 <async_exchange_begin@plt>:
    d410:	ff 25 bc f5 00 00    	jmp    *0xf5bc
    d416:	68 18 02 00 00       	push   $0x218
    d41b:	e9 b0 fb ff ff       	jmp    cfd0 <remote_ahci_iface_ops+0x2d4>

0000d420 <str_error@plt>:
    d420:	ff 25 c0 f5 00 00    	jmp    *0xf5c0
    d426:	68 20 02 00 00       	push   $0x220
    d42b:	e9 a0 fb ff ff       	jmp    cfd0 <remote_ahci_iface_ops+0x2d4>

0000d430 <devman_fun_get_handle@plt>:
    d430:	ff 25 c4 f5 00 00    	jmp    *0xf5c4
    d436:	68 28 02 00 00       	push   $0x228
    d43b:	e9 90 fb ff ff       	jmp    cfd0 <remote_ahci_iface_ops+0x2d4>

0000d440 <async_share_in_finalize@plt>:
    d440:	ff 25 c8 f5 00 00    	jmp    *0xf5c8
    d446:	68 30 02 00 00       	push   $0x230
    d44b:	e9 80 fb ff ff       	jmp    cfd0 <remote_ahci_iface_ops+0x2d4>

0000d450 <async_answer_3@plt>:
    d450:	ff 25 cc f5 00 00    	jmp    *0xf5cc
    d456:	68 38 02 00 00       	push   $0x238
    d45b:	e9 70 fb ff ff       	jmp    cfd0 <remote_ahci_iface_ops+0x2d4>

0000d460 <async_share_out_start@plt>:
    d460:	ff 25 d0 f5 00 00    	jmp    *0xf5d0
    d466:	68 40 02 00 00       	push   $0x240
    d46b:	e9 60 fb ff ff       	jmp    cfd0 <remote_ahci_iface_ops+0x2d4>

0000d470 <async_create_port@plt>:
    d470:	ff 25 d4 f5 00 00    	jmp    *0xf5d4
    d476:	68 48 02 00 00       	push   $0x248
    d47b:	e9 50 fb ff ff       	jmp    cfd0 <remote_ahci_iface_ops+0x2d4>

0000d480 <async_data_write_finalize@plt>:
    d480:	ff 25 d8 f5 00 00    	jmp    *0xf5d8
    d486:	68 50 02 00 00       	push   $0x250
    d48b:	e9 40 fb ff ff       	jmp    cfd0 <remote_ahci_iface_ops+0x2d4>

0000d490 <async_data_write_accept@plt>:
    d490:	ff 25 dc f5 00 00    	jmp    *0xf5dc
    d496:	68 58 02 00 00       	push   $0x258
    d49b:	e9 30 fb ff ff       	jmp    cfd0 <remote_ahci_iface_ops+0x2d4>

0000d4a0 <async_forget@plt>:
    d4a0:	ff 25 e0 f5 00 00    	jmp    *0xf5e0
    d4a6:	68 60 02 00 00       	push   $0x260
    d4ab:	e9 20 fb ff ff       	jmp    cfd0 <remote_ahci_iface_ops+0x2d4>

0000d4b0 <fibril_switch@plt>:
    d4b0:	ff 25 e4 f5 00 00    	jmp    *0xf5e4
    d4b6:	68 68 02 00 00       	push   $0x268
    d4bb:	e9 10 fb ff ff       	jmp    cfd0 <remote_ahci_iface_ops+0x2d4>

0000d4c0 <inetcfg_get_link_list@plt>:
    d4c0:	ff 25 e8 f5 00 00    	jmp    *0xf5e8
    d4c6:	68 70 02 00 00       	push   $0x270
    d4cb:	e9 00 fb ff ff       	jmp    cfd0 <remote_ahci_iface_ops+0x2d4>

0000d4d0 <__syscall_fast@plt>:
    d4d0:	ff 25 ec f5 00 00    	jmp    *0xf5ec
    d4d6:	68 78 02 00 00       	push   $0x278
    d4db:	e9 f0 fa ff ff       	jmp    cfd0 <remote_ahci_iface_ops+0x2d4>

0000d4e0 <tv_gteq@plt>:
    d4e0:	ff 25 f0 f5 00 00    	jmp    *0xf5f0
    d4e6:	68 80 02 00 00       	push   $0x280
    d4eb:	e9 e0 fa ff ff       	jmp    cfd0 <remote_ahci_iface_ops+0x2d4>

0000d4f0 <async_set_fallback_port_handler@plt>:
    d4f0:	ff 25 f4 f5 00 00    	jmp    *0xf5f4
    d4f6:	68 88 02 00 00       	push   $0x288
    d4fb:	e9 d0 fa ff ff       	jmp    cfd0 <remote_ahci_iface_ops+0x2d4>

0000d500 <async_data_write_receive@plt>:
    d500:	ff 25 f8 f5 00 00    	jmp    *0xf5f8
    d506:	68 90 02 00 00       	push   $0x290
    d50b:	e9 c0 fa ff ff       	jmp    cfd0 <remote_ahci_iface_ops+0x2d4>

0000d510 <free@plt>:
    d510:	ff 25 fc f5 00 00    	jmp    *0xf5fc
    d516:	68 98 02 00 00       	push   $0x298
    d51b:	e9 b0 fa ff ff       	jmp    cfd0 <remote_ahci_iface_ops+0x2d4>

0000d520 <devman_fun_get_name@plt>:
    d520:	ff 25 00 f6 00 00    	jmp    *0xf600
    d526:	68 a0 02 00 00       	push   $0x2a0
    d52b:	e9 a0 fa ff ff       	jmp    cfd0 <remote_ahci_iface_ops+0x2d4>

0000d530 <fibril_mutex_lock@plt>:
    d530:	ff 25 04 f6 00 00    	jmp    *0xf604
    d536:	68 a8 02 00 00       	push   $0x2a8
    d53b:	e9 90 fa ff ff       	jmp    cfd0 <remote_ahci_iface_ops+0x2d4>
