
cmos-rtc:     file format elf32-i386


Disassembly of section .init:

000010f4 <__entry>:
    10f4:	66 8c d0             	mov    %ss,%ax
    10f7:	8e d8                	mov    %eax,%ds
    10f9:	8e c0                	mov    %eax,%es
    10fb:	8e e0                	mov    %eax,%fs
    10fd:	b8 01 00 00 00       	mov    $0x1,%eax
    1102:	0f a2                	cpuid  
    1104:	0f ba e2 0b          	bt     $0xb,%edx
    1108:	73 0c                	jae    1116 <__entry+0x22>
    110a:	8d 05 20 f6 00 00    	lea    0xf620,%eax
    1110:	c7 00 d0 d4 00 00    	movl   $0xd4d0,(%eax)
    1116:	6a 00                	push   $0x0
    1118:	6a 00                	push   $0x0
    111a:	89 e5                	mov    %esp,%ebp
    111c:	57                   	push   %edi
    111d:	e8 ce be 00 00       	call   cff0 <__main@plt>

Disassembly of section .text:

00001140 <rtc_fun_offline>:
    1140:	55                   	push   %ebp
    1141:	89 e5                	mov    %esp,%ebp
    1143:	53                   	push   %ebx
    1144:	83 ec 0c             	sub    $0xc,%esp
    1147:	8b 5d 08             	mov    0x8(%ebp),%ebx
    114a:	68 7f b0 00 00       	push   $0xb07f
    114f:	6a 04                	push   $0x4
    1151:	e8 1a 20 00 00       	call   3170 <ddf_msg>
    1156:	89 5d 08             	mov    %ebx,0x8(%ebp)
    1159:	83 c4 10             	add    $0x10,%esp
    115c:	8b 5d fc             	mov    -0x4(%ebp),%ebx
    115f:	c9                   	leave  
    1160:	e9 fb 1c 00 00       	jmp    2e60 <ddf_fun_offline>
    1165:	8d 74 26 00          	lea    0x0(%esi,%eiz,1),%esi
    1169:	8d bc 27 00 00 00 00 	lea    0x0(%edi,%eiz,1),%edi

00001170 <rtc_fun_online>:
    1170:	55                   	push   %ebp
    1171:	89 e5                	mov    %esp,%ebp
    1173:	56                   	push   %esi
    1174:	53                   	push   %ebx
    1175:	52                   	push   %edx
    1176:	8b 75 08             	mov    0x8(%ebp),%esi
    1179:	52                   	push   %edx
    117a:	68 91 b0 00 00       	push   $0xb091
    117f:	6a 04                	push   $0x4
    1181:	e8 ea 1f 00 00       	call   3170 <ddf_msg>
    1186:	89 34 24             	mov    %esi,(%esp)
    1189:	e8 a2 1c 00 00       	call   2e30 <ddf_fun_online>
    118e:	83 c4 10             	add    $0x10,%esp
    1191:	89 c3                	mov    %eax,%ebx
    1193:	85 c0                	test   %eax,%eax
    1195:	75 10                	jne    11a7 <rtc_fun_online+0x37>
    1197:	50                   	push   %eax
    1198:	50                   	push   %eax
    1199:	68 a2 b0 00 00       	push   $0xb0a2
    119e:	56                   	push   %esi
    119f:	e8 0c 1e 00 00       	call   2fb0 <ddf_fun_add_to_category>
    11a4:	83 c4 10             	add    $0x10,%esp
    11a7:	8d 65 f8             	lea    -0x8(%ebp),%esp
    11aa:	89 d8                	mov    %ebx,%eax
    11ac:	5b                   	pop    %ebx
    11ad:	5e                   	pop    %esi
    11ae:	5d                   	pop    %ebp
    11af:	c3                   	ret    

000011b0 <rtc_dev_remove>:
    11b0:	55                   	push   %ebp
    11b1:	89 e5                	mov    %esp,%ebp
    11b3:	56                   	push   %esi
    11b4:	53                   	push   %ebx
    11b5:	83 ec 1c             	sub    $0x1c,%esp
    11b8:	8b 4d 08             	mov    0x8(%ebp),%ecx
    11bb:	51                   	push   %ecx
    11bc:	e8 ef 16 00 00       	call   28b0 <ddf_dev_data_get>
    11c1:	89 c3                	mov    %eax,%ebx
    11c3:	8d 70 08             	lea    0x8(%eax),%esi
    11c6:	89 34 24             	mov    %esi,(%esp)
    11c9:	e8 62 c3 00 00       	call   d530 <fibril_mutex_lock@plt>
    11ce:	8b 43 24             	mov    0x24(%ebx),%eax
    11d1:	83 c4 10             	add    $0x10,%esp
    11d4:	85 c0                	test   %eax,%eax
    11d6:	0f 8f 9c 00 00 00    	jg     1278 <rtc_dev_remove+0xc8>
    11dc:	83 ec 0c             	sub    $0xc,%esp
    11df:	c6 43 20 01          	movb   $0x1,0x20(%ebx)
    11e3:	56                   	push   %esi
    11e4:	e8 97 c0 00 00       	call   d280 <fibril_mutex_unlock@plt>
    11e9:	58                   	pop    %eax
    11ea:	8b 73 04             	mov    0x4(%ebx),%esi
    11ed:	5a                   	pop    %edx
    11ee:	68 7f b0 00 00       	push   $0xb07f
    11f3:	6a 04                	push   $0x4
    11f5:	e8 76 1f 00 00       	call   3170 <ddf_msg>
    11fa:	89 34 24             	mov    %esi,(%esp)
    11fd:	e8 5e 1c 00 00       	call   2e60 <ddf_fun_offline>
    1202:	83 c4 10             	add    $0x10,%esp
    1205:	85 c0                	test   %eax,%eax
    1207:	75 4f                	jne    1258 <rtc_dev_remove+0xa8>
    1209:	83 ec 0c             	sub    $0xc,%esp
    120c:	8b 4b 04             	mov    0x4(%ebx),%ecx
    120f:	51                   	push   %ecx
    1210:	e8 7b 1b 00 00       	call   2d90 <ddf_fun_unbind>
    1215:	83 c4 10             	add    $0x10,%esp
    1218:	89 45 f4             	mov    %eax,-0xc(%ebp)
    121b:	85 c0                	test   %eax,%eax
    121d:	75 19                	jne    1238 <rtc_dev_remove+0x88>
    121f:	83 ec 0c             	sub    $0xc,%esp
    1222:	8b 43 04             	mov    0x4(%ebx),%eax
    1225:	50                   	push   %eax
    1226:	e8 05 19 00 00       	call   2b30 <ddf_fun_destroy>
    122b:	8b 45 f4             	mov    -0xc(%ebp),%eax
    122e:	83 c4 10             	add    $0x10,%esp
    1231:	8d 65 f8             	lea    -0x8(%ebp),%esp
    1234:	5b                   	pop    %ebx
    1235:	5e                   	pop    %esi
    1236:	5d                   	pop    %ebp
    1237:	c3                   	ret    
    1238:	52                   	push   %edx
    1239:	52                   	push   %edx
    123a:	68 c3 b0 00 00       	push   $0xb0c3
    123f:	6a 01                	push   $0x1
    1241:	e8 2a 1f 00 00       	call   3170 <ddf_msg>
    1246:	8b 45 f4             	mov    -0xc(%ebp),%eax
    1249:	83 c4 10             	add    $0x10,%esp
    124c:	8d 65 f8             	lea    -0x8(%ebp),%esp
    124f:	5b                   	pop    %ebx
    1250:	5e                   	pop    %esi
    1251:	5d                   	pop    %ebp
    1252:	c3                   	ret    
    1253:	90                   	nop
    1254:	8d 74 26 00          	lea    0x0(%esi,%eiz,1),%esi
    1258:	53                   	push   %ebx
    1259:	53                   	push   %ebx
    125a:	68 a8 b0 00 00       	push   $0xb0a8
    125f:	6a 01                	push   $0x1
    1261:	89 45 f4             	mov    %eax,-0xc(%ebp)
    1264:	e8 07 1f 00 00       	call   3170 <ddf_msg>
    1269:	8b 45 f4             	mov    -0xc(%ebp),%eax
    126c:	83 c4 10             	add    $0x10,%esp
    126f:	8d 65 f8             	lea    -0x8(%ebp),%esp
    1272:	5b                   	pop    %ebx
    1273:	5e                   	pop    %esi
    1274:	5d                   	pop    %ebp
    1275:	c3                   	ret    
    1276:	66 90                	xchg   %ax,%ax
    1278:	83 ec 0c             	sub    $0xc,%esp
    127b:	56                   	push   %esi
    127c:	e8 ff bf 00 00       	call   d280 <fibril_mutex_unlock@plt>
    1281:	83 c4 10             	add    $0x10,%esp
    1284:	8d 65 f8             	lea    -0x8(%ebp),%esp
    1287:	b8 f1 ff ff ff       	mov    $0xfffffff1,%eax
    128c:	5b                   	pop    %ebx
    128d:	5e                   	pop    %esi
    128e:	5d                   	pop    %ebp
    128f:	c3                   	ret    

00001290 <rtc_dev_add>:
    1290:	55                   	push   %ebp
    1291:	89 e5                	mov    %esp,%ebp
    1293:	57                   	push   %edi
    1294:	56                   	push   %esi
    1295:	53                   	push   %ebx
    1296:	83 ec 38             	sub    $0x38,%esp
    1299:	8b 75 08             	mov    0x8(%ebp),%esi
    129c:	56                   	push   %esi
    129d:	e8 1e 16 00 00       	call   28c0 <ddf_dev_get_handle>
    12a2:	89 34 24             	mov    %esi,(%esp)
    12a5:	89 c3                	mov    %eax,%ebx
    12a7:	e8 24 16 00 00       	call   28d0 <ddf_dev_get_name>
    12ac:	53                   	push   %ebx
    12ad:	50                   	push   %eax
    12ae:	68 dd b0 00 00       	push   $0xb0dd
    12b3:	6a 04                	push   $0x4
    12b5:	e8 b6 1e 00 00       	call   3170 <ddf_msg>
    12ba:	83 c4 18             	add    $0x18,%esp
    12bd:	6a 30                	push   $0x30
    12bf:	56                   	push   %esi
    12c0:	e8 ab 15 00 00       	call   2870 <ddf_dev_data_alloc>
    12c5:	83 c4 10             	add    $0x10,%esp
    12c8:	85 c0                	test   %eax,%eax
    12ca:	0f 84 80 02 00 00    	je     1550 <rtc_dev_add+0x2c0>
    12d0:	83 ec 0c             	sub    $0xc,%esp
    12d3:	89 c3                	mov    %eax,%ebx
    12d5:	89 30                	mov    %esi,(%eax)
    12d7:	8d 40 08             	lea    0x8(%eax),%eax
    12da:	50                   	push   %eax
    12db:	e8 d0 bf 00 00       	call   d2b0 <fibril_mutex_initialize@plt>
    12e0:	8b 03                	mov    (%ebx),%eax
    12e2:	5f                   	pop    %edi
    12e3:	50                   	push   %eax
    12e4:	e8 e7 15 00 00       	call   28d0 <ddf_dev_get_name>
    12e9:	83 c4 0c             	add    $0xc,%esp
    12ec:	8d 7d e0             	lea    -0x20(%ebp),%edi
    12ef:	50                   	push   %eax
    12f0:	68 fa b0 00 00       	push   $0xb0fa
    12f5:	6a 04                	push   $0x4
    12f7:	e8 74 1e 00 00       	call   3170 <ddf_msg>
    12fc:	83 c4 0c             	add    $0xc,%esp
    12ff:	c7 43 28 00 00 00 00 	movl   $0x0,0x28(%ebx)
    1306:	c7 43 2c 00 00 00 00 	movl   $0x0,0x2c(%ebx)
    130d:	c7 43 24 00 00 00 00 	movl   $0x0,0x24(%ebx)
    1314:	6a 08                	push   $0x8
    1316:	6a 00                	push   $0x0
    1318:	57                   	push   %edi
    1319:	e8 42 c0 00 00       	call   d360 <memset@plt>
    131e:	58                   	pop    %eax
    131f:	8b 03                	mov    (%ebx),%eax
    1321:	50                   	push   %eax
    1322:	e8 b9 15 00 00       	call   28e0 <ddf_dev_parent_sess_create>
    1327:	83 c4 10             	add    $0x10,%esp
    132a:	85 c0                	test   %eax,%eax
    132c:	0f 84 96 01 00 00    	je     14c8 <rtc_dev_add+0x238>
    1332:	52                   	push   %edx
    1333:	52                   	push   %edx
    1334:	57                   	push   %edi
    1335:	50                   	push   %eax
    1336:	e8 05 bf 00 00       	call   d240 <hw_res_get_resource_list@plt>
    133b:	83 c4 10             	add    $0x10,%esp
    133e:	89 c7                	mov    %eax,%edi
    1340:	85 c0                	test   %eax,%eax
    1342:	0f 85 00 01 00 00    	jne    1448 <rtc_dev_add+0x1b8>
    1348:	8b 4d e0             	mov    -0x20(%ebp),%ecx
    134b:	85 c9                	test   %ecx,%ecx
    134d:	0f 84 9d 01 00 00    	je     14f0 <rtc_dev_add+0x260>
    1353:	8b 45 e4             	mov    -0x1c(%ebp),%eax
    1356:	83 78 0c 01          	cmpl   $0x1,0xc(%eax)
    135a:	0f 86 28 01 00 00    	jbe    1488 <rtc_dev_add+0x1f8>
    1360:	83 ec 0c             	sub    $0xc,%esp
    1363:	8b 78 04             	mov    0x4(%eax),%edi
    1366:	89 7b 18             	mov    %edi,0x18(%ebx)
    1369:	8b 03                	mov    (%ebx),%eax
    136b:	50                   	push   %eax
    136c:	e8 5f 15 00 00       	call   28d0 <ddf_dev_get_name>
    1371:	57                   	push   %edi
    1372:	50                   	push   %eax
    1373:	68 30 b2 00 00       	push   $0xb230
    1378:	6a 03                	push   $0x3
    137a:	e8 f1 1d 00 00       	call   3170 <ddf_msg>
    137f:	8b 45 e4             	mov    -0x1c(%ebp),%eax
    1382:	83 c4 20             	add    $0x20,%esp
    1385:	85 c0                	test   %eax,%eax
    1387:	74 0c                	je     1395 <rtc_dev_add+0x105>
    1389:	83 ec 0c             	sub    $0xc,%esp
    138c:	50                   	push   %eax
    138d:	e8 7e c1 00 00       	call   d510 <free@plt>
    1392:	83 c4 10             	add    $0x10,%esp
    1395:	51                   	push   %ecx
    1396:	8d 43 1c             	lea    0x1c(%ebx),%eax
    1399:	8b 7b 18             	mov    0x18(%ebx),%edi
    139c:	50                   	push   %eax
    139d:	6a 02                	push   $0x2
    139f:	57                   	push   %edi
    13a0:	e8 3b bc 00 00       	call   cfe0 <pio_enable@plt>
    13a5:	83 c4 10             	add    $0x10,%esp
    13a8:	85 c0                	test   %eax,%eax
    13aa:	75 6c                	jne    1418 <rtc_dev_add+0x188>
    13ac:	52                   	push   %edx
    13ad:	68 41 b1 00 00       	push   $0xb141
    13b2:	6a 02                	push   $0x2
    13b4:	56                   	push   %esi
    13b5:	e8 e6 15 00 00       	call   29a0 <ddf_fun_create>
    13ba:	83 c4 10             	add    $0x10,%esp
    13bd:	89 45 d4             	mov    %eax,-0x2c(%ebp)
    13c0:	85 c0                	test   %eax,%eax
    13c2:	0f 84 98 01 00 00    	je     1560 <rtc_dev_add+0x2d0>
    13c8:	89 c7                	mov    %eax,%edi
    13ca:	50                   	push   %eax
    13cb:	50                   	push   %eax
    13cc:	68 40 f6 00 00       	push   $0xf640
    13d1:	57                   	push   %edi
    13d2:	e8 79 1b 00 00       	call   2f50 <ddf_fun_set_ops>
    13d7:	89 3c 24             	mov    %edi,(%esp)
    13da:	89 7d d4             	mov    %edi,-0x2c(%ebp)
    13dd:	e8 7e 18 00 00       	call   2c60 <ddf_fun_bind>
    13e2:	83 c4 10             	add    $0x10,%esp
    13e5:	89 c7                	mov    %eax,%edi
    13e7:	85 c0                	test   %eax,%eax
    13e9:	0f 84 29 01 00 00    	je     1518 <rtc_dev_add+0x288>
    13ef:	51                   	push   %ecx
    13f0:	51                   	push   %ecx
    13f1:	68 29 b1 00 00       	push   $0xb129
    13f6:	6a 01                	push   $0x1
    13f8:	e8 73 1d 00 00       	call   3170 <ddf_msg>
    13fd:	8b 75 d4             	mov    -0x2c(%ebp),%esi
    1400:	5b                   	pop    %ebx
    1401:	56                   	push   %esi
    1402:	e8 29 17 00 00       	call   2b30 <ddf_fun_destroy>
    1407:	83 c4 10             	add    $0x10,%esp
    140a:	8d 65 f4             	lea    -0xc(%ebp),%esp
    140d:	89 f8                	mov    %edi,%eax
    140f:	5b                   	pop    %ebx
    1410:	5e                   	pop    %esi
    1411:	5f                   	pop    %edi
    1412:	5d                   	pop    %ebp
    1413:	c3                   	ret    
    1414:	8d 74 26 00          	lea    0x0(%esi,%eiz,1),%esi
    1418:	83 ec 0c             	sub    $0xc,%esp
    141b:	8b 03                	mov    (%ebx),%eax
    141d:	bf f4 ff ff ff       	mov    $0xfffffff4,%edi
    1422:	50                   	push   %eax
    1423:	e8 a8 14 00 00       	call   28d0 <ddf_dev_get_name>
    1428:	50                   	push   %eax
    1429:	8b 43 18             	mov    0x18(%ebx),%eax
    142c:	50                   	push   %eax
    142d:	68 5c b2 00 00       	push   $0xb25c
    1432:	6a 01                	push   $0x1
    1434:	e8 37 1d 00 00       	call   3170 <ddf_msg>
    1439:	83 c4 20             	add    $0x20,%esp
    143c:	8d 65 f4             	lea    -0xc(%ebp),%esp
    143f:	89 f8                	mov    %edi,%eax
    1441:	5b                   	pop    %ebx
    1442:	5e                   	pop    %esi
    1443:	5f                   	pop    %edi
    1444:	5d                   	pop    %ebp
    1445:	c3                   	ret    
    1446:	66 90                	xchg   %ax,%ax
    1448:	83 ec 0c             	sub    $0xc,%esp
    144b:	8b 13                	mov    (%ebx),%edx
    144d:	52                   	push   %edx
    144e:	e8 7d 14 00 00       	call   28d0 <ddf_dev_get_name>
    1453:	83 c4 0c             	add    $0xc,%esp
    1456:	50                   	push   %eax
    1457:	68 cc b1 00 00       	push   $0xb1cc
    145c:	6a 01                	push   $0x1
    145e:	e8 0d 1d 00 00       	call   3170 <ddf_msg>
    1463:	83 c4 10             	add    $0x10,%esp
    1466:	8b 45 e4             	mov    -0x1c(%ebp),%eax
    1469:	85 c0                	test   %eax,%eax
    146b:	74 cf                	je     143c <rtc_dev_add+0x1ac>
    146d:	83 ec 0c             	sub    $0xc,%esp
    1470:	50                   	push   %eax
    1471:	e8 9a c0 00 00       	call   d510 <free@plt>
    1476:	83 c4 10             	add    $0x10,%esp
    1479:	8d 65 f4             	lea    -0xc(%ebp),%esp
    147c:	89 f8                	mov    %edi,%eax
    147e:	5b                   	pop    %ebx
    147f:	5e                   	pop    %esi
    1480:	5f                   	pop    %edi
    1481:	5d                   	pop    %ebp
    1482:	c3                   	ret    
    1483:	90                   	nop
    1484:	8d 74 26 00          	lea    0x0(%esi,%eiz,1),%esi
    1488:	31 ff                	xor    %edi,%edi
    148a:	83 ec 0c             	sub    $0xc,%esp
    148d:	8b 03                	mov    (%ebx),%eax
    148f:	47                   	inc    %edi
    1490:	50                   	push   %eax
    1491:	e8 3a 14 00 00       	call   28d0 <ddf_dev_get_name>
    1496:	83 c4 0c             	add    $0xc,%esp
    1499:	50                   	push   %eax
    149a:	68 fc b1 00 00       	push   $0xb1fc
    149f:	6a 01                	push   $0x1
    14a1:	e8 ca 1c 00 00       	call   3170 <ddf_msg>
    14a6:	83 c4 10             	add    $0x10,%esp
    14a9:	3b 7d e0             	cmp    -0x20(%ebp),%edi
    14ac:	0f 83 c7 00 00 00    	jae    1579 <rtc_dev_add+0x2e9>
    14b2:	8d 04 7f             	lea    (%edi,%edi,2),%eax
    14b5:	8b 55 e4             	mov    -0x1c(%ebp),%edx
    14b8:	8d 04 c2             	lea    (%edx,%eax,8),%eax
    14bb:	83 78 0c 01          	cmpl   $0x1,0xc(%eax)
    14bf:	0f 87 9b fe ff ff    	ja     1360 <rtc_dev_add+0xd0>
    14c5:	eb c3                	jmp    148a <rtc_dev_add+0x1fa>
    14c7:	90                   	nop
    14c8:	83 ec 0c             	sub    $0xc,%esp
    14cb:	8b 0b                	mov    (%ebx),%ecx
    14cd:	83 cf ff             	or     $0xffffffff,%edi
    14d0:	51                   	push   %ecx
    14d1:	e8 fa 13 00 00       	call   28d0 <ddf_dev_get_name>
    14d6:	83 c4 0c             	add    $0xc,%esp
    14d9:	50                   	push   %eax
    14da:	68 94 b1 00 00       	push   $0xb194
    14df:	6a 01                	push   $0x1
    14e1:	e8 8a 1c 00 00       	call   3170 <ddf_msg>
    14e6:	83 c4 10             	add    $0x10,%esp
    14e9:	e9 78 ff ff ff       	jmp    1466 <rtc_dev_add+0x1d6>
    14ee:	66 90                	xchg   %ax,%ax
    14f0:	83 ec 0c             	sub    $0xc,%esp
    14f3:	8b 03                	mov    (%ebx),%eax
    14f5:	83 cf ff             	or     $0xffffffff,%edi
    14f8:	50                   	push   %eax
    14f9:	e8 d2 13 00 00       	call   28d0 <ddf_dev_get_name>
    14fe:	83 c4 0c             	add    $0xc,%esp
    1501:	50                   	push   %eax
    1502:	68 a8 b2 00 00       	push   $0xb2a8
    1507:	6a 01                	push   $0x1
    1509:	e8 62 1c 00 00       	call   3170 <ddf_msg>
    150e:	83 c4 10             	add    $0x10,%esp
    1511:	e9 50 ff ff ff       	jmp    1466 <rtc_dev_add+0x1d6>
    1516:	66 90                	xchg   %ax,%ax
    1518:	8b 45 d4             	mov    -0x2c(%ebp),%eax
    151b:	89 43 04             	mov    %eax,0x4(%ebx)
    151e:	52                   	push   %edx
    151f:	52                   	push   %edx
    1520:	68 a2 b0 00 00       	push   $0xb0a2
    1525:	50                   	push   %eax
    1526:	e8 85 1a 00 00       	call   2fb0 <ddf_fun_add_to_category>
    152b:	89 34 24             	mov    %esi,(%esp)
    152e:	e8 9d 13 00 00       	call   28d0 <ddf_dev_get_name>
    1533:	83 c4 0c             	add    $0xc,%esp
    1536:	50                   	push   %eax
    1537:	68 84 b2 00 00       	push   $0xb284
    153c:	6a 03                	push   $0x3
    153e:	e8 2d 1c 00 00       	call   3170 <ddf_msg>
    1543:	83 c4 10             	add    $0x10,%esp
    1546:	e9 f1 fe ff ff       	jmp    143c <rtc_dev_add+0x1ac>
    154b:	90                   	nop
    154c:	8d 74 26 00          	lea    0x0(%esi,%eiz,1),%esi
    1550:	bf fe ff ff ff       	mov    $0xfffffffe,%edi
    1555:	e9 e2 fe ff ff       	jmp    143c <rtc_dev_add+0x1ac>
    155a:	8d b6 00 00 00 00    	lea    0x0(%esi),%esi
    1560:	50                   	push   %eax
    1561:	50                   	push   %eax
    1562:	68 10 b1 00 00       	push   $0xb110
    1567:	6a 01                	push   $0x1
    1569:	83 cf ff             	or     $0xffffffff,%edi
    156c:	e8 ff 1b 00 00       	call   3170 <ddf_msg>
    1571:	83 c4 10             	add    $0x10,%esp
    1574:	e9 c3 fe ff ff       	jmp    143c <rtc_dev_add+0x1ac>
    1579:	bf fd ff ff ff       	mov    $0xfffffffd,%edi
    157e:	e9 e3 fe ff ff       	jmp    1466 <rtc_dev_add+0x1d6>
    1583:	8d b6 00 00 00 00    	lea    0x0(%esi),%esi
    1589:	8d bc 27 00 00 00 00 	lea    0x0(%edi,%eiz,1),%edi

00001590 <rtc_open>:
    1590:	55                   	push   %ebp
    1591:	89 e5                	mov    %esp,%ebp
    1593:	56                   	push   %esi
    1594:	53                   	push   %ebx
    1595:	83 ec 0c             	sub    $0xc,%esp
    1598:	8b 55 08             	mov    0x8(%ebp),%edx
    159b:	52                   	push   %edx
    159c:	e8 df 13 00 00       	call   2980 <ddf_fun_get_dev>
    15a1:	89 04 24             	mov    %eax,(%esp)
    15a4:	e8 07 13 00 00       	call   28b0 <ddf_dev_data_get>
    15a9:	89 c3                	mov    %eax,%ebx
    15ab:	8d 70 08             	lea    0x8(%eax),%esi
    15ae:	89 34 24             	mov    %esi,(%esp)
    15b1:	e8 7a bf 00 00       	call   d530 <fibril_mutex_lock@plt>
    15b6:	83 c4 10             	add    $0x10,%esp
    15b9:	80 7b 20 00          	cmpb   $0x0,0x20(%ebx)
    15bd:	75 21                	jne    15e0 <rtc_open+0x50>
    15bf:	8b 43 24             	mov    0x24(%ebx),%eax
    15c2:	40                   	inc    %eax
    15c3:	89 43 24             	mov    %eax,0x24(%ebx)
    15c6:	31 db                	xor    %ebx,%ebx
    15c8:	83 ec 0c             	sub    $0xc,%esp
    15cb:	56                   	push   %esi
    15cc:	e8 af bc 00 00       	call   d280 <fibril_mutex_unlock@plt>
    15d1:	8d 65 f8             	lea    -0x8(%ebp),%esp
    15d4:	89 d8                	mov    %ebx,%eax
    15d6:	5b                   	pop    %ebx
    15d7:	5e                   	pop    %esi
    15d8:	5d                   	pop    %ebp
    15d9:	c3                   	ret    
    15da:	8d b6 00 00 00 00    	lea    0x0(%esi),%esi
    15e0:	bb f4 fe ff ff       	mov    $0xfffffef4,%ebx
    15e5:	eb e1                	jmp    15c8 <rtc_open+0x38>
    15e7:	89 f6                	mov    %esi,%esi
    15e9:	8d bc 27 00 00 00 00 	lea    0x0(%edi,%eiz,1),%edi

000015f0 <rtc_time_get>:
    15f0:	55                   	push   %ebp
    15f1:	89 e5                	mov    %esp,%ebp
    15f3:	57                   	push   %edi
    15f4:	56                   	push   %esi
    15f5:	53                   	push   %ebx
    15f6:	83 ec 38             	sub    $0x38,%esp
    15f9:	8b 4d 08             	mov    0x8(%ebp),%ecx
    15fc:	8b 75 0c             	mov    0xc(%ebp),%esi
    15ff:	51                   	push   %ecx
    1600:	e8 7b 13 00 00       	call   2980 <ddf_fun_get_dev>
    1605:	89 04 24             	mov    %eax,(%esp)
    1608:	e8 a3 12 00 00       	call   28b0 <ddf_dev_data_get>
    160d:	89 c3                	mov    %eax,%ebx
    160f:	83 c0 08             	add    $0x8,%eax
    1612:	89 04 24             	mov    %eax,(%esp)
    1615:	89 45 d4             	mov    %eax,-0x2c(%ebp)
    1618:	e8 13 bf 00 00       	call   d530 <fibril_mutex_lock@plt>
    161d:	8b 7b 28             	mov    0x28(%ebx),%edi
    1620:	83 c4 10             	add    $0x10,%esp
    1623:	85 ff                	test   %edi,%edi
    1625:	0f 85 f8 02 00 00    	jne    1923 <rtc_time_get+0x333>
    162b:	50                   	push   %eax
    162c:	50                   	push   %eax
    162d:	8b 43 1c             	mov    0x1c(%ebx),%eax
    1630:	6a 0d                	push   $0xd
    1632:	50                   	push   %eax
    1633:	e8 f8 bb 00 00       	call   d230 <pio_write_8@plt>
    1638:	8b 43 1c             	mov    0x1c(%ebx),%eax
    163b:	40                   	inc    %eax
    163c:	89 04 24             	mov    %eax,(%esp)
    163f:	e8 7c bb 00 00       	call   d1c0 <pio_read_8@plt>
    1644:	83 c4 10             	add    $0x10,%esp
    1647:	84 c0                	test   %al,%al
    1649:	0f 89 b6 02 00 00    	jns    1905 <rtc_time_get+0x315>
    164f:	c7 06 00 00 00 00    	movl   $0x0,(%esi)
    1655:	8d 76 00             	lea    0x0(%esi),%esi
    1658:	57                   	push   %edi
    1659:	57                   	push   %edi
    165a:	8b 43 1c             	mov    0x1c(%ebx),%eax
    165d:	6a 0a                	push   $0xa
    165f:	50                   	push   %eax
    1660:	e8 cb bb 00 00       	call   d230 <pio_write_8@plt>
    1665:	8b 43 1c             	mov    0x1c(%ebx),%eax
    1668:	40                   	inc    %eax
    1669:	89 04 24             	mov    %eax,(%esp)
    166c:	e8 4f bb 00 00       	call   d1c0 <pio_read_8@plt>
    1671:	83 c4 10             	add    $0x10,%esp
    1674:	84 c0                	test   %al,%al
    1676:	78 e0                	js     1658 <rtc_time_get+0x68>
    1678:	57                   	push   %edi
    1679:	57                   	push   %edi
    167a:	8b 43 1c             	mov    0x1c(%ebx),%eax
    167d:	6a 00                	push   $0x0
    167f:	50                   	push   %eax
    1680:	e8 ab bb 00 00       	call   d230 <pio_write_8@plt>
    1685:	8b 43 1c             	mov    0x1c(%ebx),%eax
    1688:	40                   	inc    %eax
    1689:	89 04 24             	mov    %eax,(%esp)
    168c:	e8 2f bb 00 00       	call   d1c0 <pio_read_8@plt>
    1691:	88 c1                	mov    %al,%cl
    1693:	31 c0                	xor    %eax,%eax
    1695:	88 c8                	mov    %cl,%al
    1697:	8b 4b 1c             	mov    0x1c(%ebx),%ecx
    169a:	89 46 04             	mov    %eax,0x4(%esi)
    169d:	58                   	pop    %eax
    169e:	5a                   	pop    %edx
    169f:	6a 02                	push   $0x2
    16a1:	51                   	push   %ecx
    16a2:	e8 89 bb 00 00       	call   d230 <pio_write_8@plt>
    16a7:	8b 43 1c             	mov    0x1c(%ebx),%eax
    16aa:	40                   	inc    %eax
    16ab:	89 04 24             	mov    %eax,(%esp)
    16ae:	e8 0d bb 00 00       	call   d1c0 <pio_read_8@plt>
    16b3:	25 ff 00 00 00       	and    $0xff,%eax
    16b8:	89 46 08             	mov    %eax,0x8(%esi)
    16bb:	5f                   	pop    %edi
    16bc:	58                   	pop    %eax
    16bd:	8b 43 1c             	mov    0x1c(%ebx),%eax
    16c0:	6a 04                	push   $0x4
    16c2:	50                   	push   %eax
    16c3:	e8 68 bb 00 00       	call   d230 <pio_write_8@plt>
    16c8:	8b 43 1c             	mov    0x1c(%ebx),%eax
    16cb:	40                   	inc    %eax
    16cc:	89 04 24             	mov    %eax,(%esp)
    16cf:	e8 ec ba 00 00       	call   d1c0 <pio_read_8@plt>
    16d4:	88 c2                	mov    %al,%dl
    16d6:	31 c0                	xor    %eax,%eax
    16d8:	88 d0                	mov    %dl,%al
    16da:	8b 4b 1c             	mov    0x1c(%ebx),%ecx
    16dd:	89 46 0c             	mov    %eax,0xc(%esi)
    16e0:	58                   	pop    %eax
    16e1:	5a                   	pop    %edx
    16e2:	6a 07                	push   $0x7
    16e4:	51                   	push   %ecx
    16e5:	e8 46 bb 00 00       	call   d230 <pio_write_8@plt>
    16ea:	8b 43 1c             	mov    0x1c(%ebx),%eax
    16ed:	40                   	inc    %eax
    16ee:	89 04 24             	mov    %eax,(%esp)
    16f1:	e8 ca ba 00 00       	call   d1c0 <pio_read_8@plt>
    16f6:	88 c1                	mov    %al,%cl
    16f8:	31 c0                	xor    %eax,%eax
    16fa:	88 c8                	mov    %cl,%al
    16fc:	89 46 10             	mov    %eax,0x10(%esi)
    16ff:	5f                   	pop    %edi
    1700:	58                   	pop    %eax
    1701:	8b 43 1c             	mov    0x1c(%ebx),%eax
    1704:	6a 08                	push   $0x8
    1706:	50                   	push   %eax
    1707:	e8 24 bb 00 00       	call   d230 <pio_write_8@plt>
    170c:	8b 43 1c             	mov    0x1c(%ebx),%eax
    170f:	40                   	inc    %eax
    1710:	89 04 24             	mov    %eax,(%esp)
    1713:	e8 a8 ba 00 00       	call   d1c0 <pio_read_8@plt>
    1718:	25 ff 00 00 00       	and    $0xff,%eax
    171d:	8b 4b 1c             	mov    0x1c(%ebx),%ecx
    1720:	89 46 14             	mov    %eax,0x14(%esi)
    1723:	58                   	pop    %eax
    1724:	5a                   	pop    %edx
    1725:	6a 09                	push   $0x9
    1727:	51                   	push   %ecx
    1728:	e8 03 bb 00 00       	call   d230 <pio_write_8@plt>
    172d:	8b 43 1c             	mov    0x1c(%ebx),%eax
    1730:	40                   	inc    %eax
    1731:	89 04 24             	mov    %eax,(%esp)
    1734:	e8 87 ba 00 00       	call   d1c0 <pio_read_8@plt>
    1739:	88 c2                	mov    %al,%dl
    173b:	31 c0                	xor    %eax,%eax
    173d:	88 d0                	mov    %dl,%al
    173f:	8b 4b 1c             	mov    0x1c(%ebx),%ecx
    1742:	89 46 18             	mov    %eax,0x18(%esi)
    1745:	8b 7e 04             	mov    0x4(%esi),%edi
    1748:	58                   	pop    %eax
    1749:	5a                   	pop    %edx
    174a:	6a 00                	push   $0x0
    174c:	51                   	push   %ecx
    174d:	e8 de ba 00 00       	call   d230 <pio_write_8@plt>
    1752:	8b 43 1c             	mov    0x1c(%ebx),%eax
    1755:	40                   	inc    %eax
    1756:	89 04 24             	mov    %eax,(%esp)
    1759:	e8 62 ba 00 00       	call   d1c0 <pio_read_8@plt>
    175e:	88 c1                	mov    %al,%cl
    1760:	31 c0                	xor    %eax,%eax
    1762:	88 c8                	mov    %cl,%al
    1764:	83 c4 10             	add    $0x10,%esp
    1767:	39 c7                	cmp    %eax,%edi
    1769:	0f 85 e9 fe ff ff    	jne    1658 <rtc_time_get+0x68>
    176f:	8b 7e 08             	mov    0x8(%esi),%edi
    1772:	52                   	push   %edx
    1773:	52                   	push   %edx
    1774:	6a 02                	push   $0x2
    1776:	8b 4b 1c             	mov    0x1c(%ebx),%ecx
    1779:	51                   	push   %ecx
    177a:	e8 b1 ba 00 00       	call   d230 <pio_write_8@plt>
    177f:	8b 43 1c             	mov    0x1c(%ebx),%eax
    1782:	40                   	inc    %eax
    1783:	89 04 24             	mov    %eax,(%esp)
    1786:	e8 35 ba 00 00       	call   d1c0 <pio_read_8@plt>
    178b:	88 c2                	mov    %al,%dl
    178d:	31 c0                	xor    %eax,%eax
    178f:	88 d0                	mov    %dl,%al
    1791:	83 c4 10             	add    $0x10,%esp
    1794:	39 c7                	cmp    %eax,%edi
    1796:	0f 85 bc fe ff ff    	jne    1658 <rtc_time_get+0x68>
    179c:	8b 7e 10             	mov    0x10(%esi),%edi
    179f:	50                   	push   %eax
    17a0:	50                   	push   %eax
    17a1:	6a 07                	push   $0x7
    17a3:	8b 43 1c             	mov    0x1c(%ebx),%eax
    17a6:	50                   	push   %eax
    17a7:	e8 84 ba 00 00       	call   d230 <pio_write_8@plt>
    17ac:	8b 43 1c             	mov    0x1c(%ebx),%eax
    17af:	40                   	inc    %eax
    17b0:	89 04 24             	mov    %eax,(%esp)
    17b3:	e8 08 ba 00 00       	call   d1c0 <pio_read_8@plt>
    17b8:	88 c2                	mov    %al,%dl
    17ba:	31 c0                	xor    %eax,%eax
    17bc:	88 d0                	mov    %dl,%al
    17be:	83 c4 10             	add    $0x10,%esp
    17c1:	39 c7                	cmp    %eax,%edi
    17c3:	0f 85 8f fe ff ff    	jne    1658 <rtc_time_get+0x68>
    17c9:	8b 7e 14             	mov    0x14(%esi),%edi
    17cc:	50                   	push   %eax
    17cd:	50                   	push   %eax
    17ce:	6a 08                	push   $0x8
    17d0:	8b 43 1c             	mov    0x1c(%ebx),%eax
    17d3:	50                   	push   %eax
    17d4:	e8 57 ba 00 00       	call   d230 <pio_write_8@plt>
    17d9:	8b 43 1c             	mov    0x1c(%ebx),%eax
    17dc:	40                   	inc    %eax
    17dd:	89 04 24             	mov    %eax,(%esp)
    17e0:	e8 db b9 00 00       	call   d1c0 <pio_read_8@plt>
    17e5:	88 c2                	mov    %al,%dl
    17e7:	31 c0                	xor    %eax,%eax
    17e9:	88 d0                	mov    %dl,%al
    17eb:	83 c4 10             	add    $0x10,%esp
    17ee:	39 c7                	cmp    %eax,%edi
    17f0:	0f 85 62 fe ff ff    	jne    1658 <rtc_time_get+0x68>
    17f6:	8b 7e 18             	mov    0x18(%esi),%edi
    17f9:	50                   	push   %eax
    17fa:	50                   	push   %eax
    17fb:	6a 09                	push   $0x9
    17fd:	8b 43 1c             	mov    0x1c(%ebx),%eax
    1800:	50                   	push   %eax
    1801:	e8 2a ba 00 00       	call   d230 <pio_write_8@plt>
    1806:	8b 43 1c             	mov    0x1c(%ebx),%eax
    1809:	40                   	inc    %eax
    180a:	89 04 24             	mov    %eax,(%esp)
    180d:	e8 ae b9 00 00       	call   d1c0 <pio_read_8@plt>
    1812:	88 c2                	mov    %al,%dl
    1814:	31 c0                	xor    %eax,%eax
    1816:	88 d0                	mov    %dl,%al
    1818:	83 c4 10             	add    $0x10,%esp
    181b:	39 c7                	cmp    %eax,%edi
    181d:	0f 85 35 fe ff ff    	jne    1658 <rtc_time_get+0x68>
    1823:	51                   	push   %ecx
    1824:	51                   	push   %ecx
    1825:	8b 7b 1c             	mov    0x1c(%ebx),%edi
    1828:	6a 0b                	push   $0xb
    182a:	57                   	push   %edi
    182b:	e8 00 ba 00 00       	call   d230 <pio_write_8@plt>
    1830:	8b 43 1c             	mov    0x1c(%ebx),%eax
    1833:	31 ff                	xor    %edi,%edi
    1835:	40                   	inc    %eax
    1836:	89 04 24             	mov    %eax,(%esp)
    1839:	e8 82 b9 00 00       	call   d1c0 <pio_read_8@plt>
    183e:	83 c4 10             	add    $0x10,%esp
    1841:	83 e0 02             	and    $0x2,%eax
    1844:	88 c1                	mov    %al,%cl
    1846:	88 45 d0             	mov    %al,-0x30(%ebp)
    1849:	75 13                	jne    185e <rtc_time_get+0x26e>
    184b:	8b 46 0c             	mov    0xc(%esi),%eax
    184e:	89 cf                	mov    %ecx,%edi
    1850:	a8 80                	test   $0x80,%al
    1852:	74 0a                	je     185e <rtc_time_get+0x26e>
    1854:	24 7f                	and    $0x7f,%al
    1856:	bf 01 00 00 00       	mov    $0x1,%edi
    185b:	89 46 0c             	mov    %eax,0xc(%esi)
    185e:	50                   	push   %eax
    185f:	50                   	push   %eax
    1860:	8b 53 1c             	mov    0x1c(%ebx),%edx
    1863:	6a 0b                	push   $0xb
    1865:	52                   	push   %edx
    1866:	e8 c5 b9 00 00       	call   d230 <pio_write_8@plt>
    186b:	8b 43 1c             	mov    0x1c(%ebx),%eax
    186e:	40                   	inc    %eax
    186f:	89 04 24             	mov    %eax,(%esp)
    1872:	e8 49 b9 00 00       	call   d1c0 <pio_read_8@plt>
    1877:	83 c4 10             	add    $0x10,%esp
    187a:	a8 04                	test   $0x4,%al
    187c:	0f 84 d3 00 00 00    	je     1955 <rtc_time_get+0x365>
    1882:	8b 46 14             	mov    0x14(%esi),%eax
    1885:	8b 56 18             	mov    0x18(%esi),%edx
    1888:	80 7d d0 00          	cmpb   $0x0,-0x30(%ebp)
    188c:	75 18                	jne    18a6 <rtc_time_get+0x2b6>
    188e:	89 f9                	mov    %edi,%ecx
    1890:	84 c9                	test   %cl,%cl
    1892:	0f 84 6e 01 00 00    	je     1a06 <rtc_time_get+0x416>
    1898:	8b 4e 0c             	mov    0xc(%esi),%ecx
    189b:	83 f9 0b             	cmp    $0xb,%ecx
    189e:	7f 06                	jg     18a6 <rtc_time_get+0x2b6>
    18a0:	83 c1 0c             	add    $0xc,%ecx
    18a3:	89 4e 0c             	mov    %ecx,0xc(%esi)
    18a6:	48                   	dec    %eax
    18a7:	83 fa 63             	cmp    $0x63,%edx
    18aa:	89 46 14             	mov    %eax,0x14(%esi)
    18ad:	7f 06                	jg     18b5 <rtc_time_get+0x2c5>
    18af:	83 c2 64             	add    $0x64,%edx
    18b2:	89 56 18             	mov    %edx,0x18(%esi)
    18b5:	83 ec 0c             	sub    $0xc,%esp
    18b8:	bf f2 ff ff ff       	mov    $0xfffffff2,%edi
    18bd:	56                   	push   %esi
    18be:	e8 1d ba 00 00       	call   d2e0 <mktime@plt>
    18c3:	83 c4 10             	add    $0x10,%esp
    18c6:	89 45 d0             	mov    %eax,-0x30(%ebp)
    18c9:	85 c0                	test   %eax,%eax
    18cb:	78 27                	js     18f4 <rtc_time_get+0x304>
    18cd:	83 ec 0c             	sub    $0xc,%esp
    18d0:	8d 7d e0             	lea    -0x20(%ebp),%edi
    18d3:	83 c3 28             	add    $0x28,%ebx
    18d6:	57                   	push   %edi
    18d7:	e8 c4 ba 00 00       	call   d3a0 <getuptime@plt>
    18dc:	8b 45 d0             	mov    -0x30(%ebp),%eax
    18df:	89 03                	mov    %eax,(%ebx)
    18e1:	8b 06                	mov    (%esi),%eax
    18e3:	89 43 04             	mov    %eax,0x4(%ebx)
    18e6:	5a                   	pop    %edx
    18e7:	59                   	pop    %ecx
    18e8:	57                   	push   %edi
    18e9:	53                   	push   %ebx
    18ea:	31 ff                	xor    %edi,%edi
    18ec:	e8 4f ba 00 00       	call   d340 <tv_sub@plt>
    18f1:	83 c4 10             	add    $0x10,%esp
    18f4:	83 ec 0c             	sub    $0xc,%esp
    18f7:	8b 45 d4             	mov    -0x2c(%ebp),%eax
    18fa:	50                   	push   %eax
    18fb:	e8 80 b9 00 00       	call   d280 <fibril_mutex_unlock@plt>
    1900:	83 c4 10             	add    $0x10,%esp
    1903:	eb 14                	jmp    1919 <rtc_time_get+0x329>
    1905:	83 ec 0c             	sub    $0xc,%esp
    1908:	8b 45 d4             	mov    -0x2c(%ebp),%eax
    190b:	bf f6 fe ff ff       	mov    $0xfffffef6,%edi
    1910:	50                   	push   %eax
    1911:	e8 6a b9 00 00       	call   d280 <fibril_mutex_unlock@plt>
    1916:	83 c4 10             	add    $0x10,%esp
    1919:	8d 65 f4             	lea    -0xc(%ebp),%esp
    191c:	89 f8                	mov    %edi,%eax
    191e:	5b                   	pop    %ebx
    191f:	5e                   	pop    %esi
    1920:	5f                   	pop    %edi
    1921:	5d                   	pop    %ebp
    1922:	c3                   	ret    
    1923:	83 ec 0c             	sub    $0xc,%esp
    1926:	8d 7d e0             	lea    -0x20(%ebp),%edi
    1929:	83 c3 28             	add    $0x28,%ebx
    192c:	57                   	push   %edi
    192d:	e8 6e ba 00 00       	call   d3a0 <getuptime@plt>
    1932:	58                   	pop    %eax
    1933:	5a                   	pop    %edx
    1934:	53                   	push   %ebx
    1935:	57                   	push   %edi
    1936:	e8 55 b8 00 00       	call   d190 <tv_add@plt>
    193b:	8b 5d d4             	mov    -0x2c(%ebp),%ebx
    193e:	59                   	pop    %ecx
    193f:	53                   	push   %ebx
    1940:	e8 3b b9 00 00       	call   d280 <fibril_mutex_unlock@plt>
    1945:	58                   	pop    %eax
    1946:	5a                   	pop    %edx
    1947:	56                   	push   %esi
    1948:	57                   	push   %edi
    1949:	e8 c2 b7 00 00       	call   d110 <time_tv2tm@plt>
    194e:	83 c4 10             	add    $0x10,%esp
    1951:	89 c7                	mov    %eax,%edi
    1953:	eb c4                	jmp    1919 <rtc_time_get+0x329>
    1955:	8b 4e 04             	mov    0x4(%esi),%ecx
    1958:	89 ca                	mov    %ecx,%edx
    195a:	89 c8                	mov    %ecx,%eax
    195c:	d1 ea                	shr    %edx
    195e:	83 e1 0f             	and    $0xf,%ecx
    1961:	c1 e8 03             	shr    $0x3,%eax
    1964:	83 e2 78             	and    $0x78,%edx
    1967:	83 e0 1e             	and    $0x1e,%eax
    196a:	01 d0                	add    %edx,%eax
    196c:	01 c8                	add    %ecx,%eax
    196e:	8b 4e 08             	mov    0x8(%esi),%ecx
    1971:	89 ca                	mov    %ecx,%edx
    1973:	89 46 04             	mov    %eax,0x4(%esi)
    1976:	d1 ea                	shr    %edx
    1978:	89 c8                	mov    %ecx,%eax
    197a:	c1 e8 03             	shr    $0x3,%eax
    197d:	83 e2 78             	and    $0x78,%edx
    1980:	83 e0 1e             	and    $0x1e,%eax
    1983:	83 e1 0f             	and    $0xf,%ecx
    1986:	01 d0                	add    %edx,%eax
    1988:	01 c8                	add    %ecx,%eax
    198a:	8b 4e 0c             	mov    0xc(%esi),%ecx
    198d:	89 ca                	mov    %ecx,%edx
    198f:	89 46 08             	mov    %eax,0x8(%esi)
    1992:	d1 ea                	shr    %edx
    1994:	89 c8                	mov    %ecx,%eax
    1996:	c1 e8 03             	shr    $0x3,%eax
    1999:	83 e2 78             	and    $0x78,%edx
    199c:	83 e0 1e             	and    $0x1e,%eax
    199f:	83 e1 0f             	and    $0xf,%ecx
    19a2:	01 d0                	add    %edx,%eax
    19a4:	01 c8                	add    %ecx,%eax
    19a6:	8b 4e 10             	mov    0x10(%esi),%ecx
    19a9:	89 ca                	mov    %ecx,%edx
    19ab:	89 46 0c             	mov    %eax,0xc(%esi)
    19ae:	d1 ea                	shr    %edx
    19b0:	89 c8                	mov    %ecx,%eax
    19b2:	c1 e8 03             	shr    $0x3,%eax
    19b5:	83 e2 78             	and    $0x78,%edx
    19b8:	83 e0 1e             	and    $0x1e,%eax
    19bb:	83 e1 0f             	and    $0xf,%ecx
    19be:	01 d0                	add    %edx,%eax
    19c0:	01 c8                	add    %ecx,%eax
    19c2:	8b 4e 14             	mov    0x14(%esi),%ecx
    19c5:	89 ca                	mov    %ecx,%edx
    19c7:	89 46 10             	mov    %eax,0x10(%esi)
    19ca:	d1 ea                	shr    %edx
    19cc:	89 c8                	mov    %ecx,%eax
    19ce:	c1 e8 03             	shr    $0x3,%eax
    19d1:	83 e2 78             	and    $0x78,%edx
    19d4:	83 e0 1e             	and    $0x1e,%eax
    19d7:	01 d0                	add    %edx,%eax
    19d9:	83 e1 0f             	and    $0xf,%ecx
    19dc:	01 c8                	add    %ecx,%eax
    19de:	8b 4e 18             	mov    0x18(%esi),%ecx
    19e1:	89 ca                	mov    %ecx,%edx
    19e3:	89 46 14             	mov    %eax,0x14(%esi)
    19e6:	d1 ea                	shr    %edx
    19e8:	83 e2 78             	and    $0x78,%edx
    19eb:	89 55 cc             	mov    %edx,-0x34(%ebp)
    19ee:	89 ca                	mov    %ecx,%edx
    19f0:	c1 ea 03             	shr    $0x3,%edx
    19f3:	83 e1 0f             	and    $0xf,%ecx
    19f6:	83 e2 1e             	and    $0x1e,%edx
    19f9:	03 55 cc             	add    -0x34(%ebp),%edx
    19fc:	01 ca                	add    %ecx,%edx
    19fe:	89 56 18             	mov    %edx,0x18(%esi)
    1a01:	e9 82 fe ff ff       	jmp    1888 <rtc_time_get+0x298>
    1a06:	83 7e 0c 0c          	cmpl   $0xc,0xc(%esi)
    1a0a:	0f 85 96 fe ff ff    	jne    18a6 <rtc_time_get+0x2b6>
    1a10:	c7 46 0c 00 00 00 00 	movl   $0x0,0xc(%esi)
    1a17:	e9 8a fe ff ff       	jmp    18a6 <rtc_time_get+0x2b6>
    1a1c:	8d 74 26 00          	lea    0x0(%esi,%eiz,1),%esi

00001a20 <rtc_close>:
    1a20:	55                   	push   %ebp
    1a21:	89 e5                	mov    %esp,%ebp
    1a23:	56                   	push   %esi
    1a24:	53                   	push   %ebx
    1a25:	83 ec 0c             	sub    $0xc,%esp
    1a28:	8b 55 08             	mov    0x8(%ebp),%edx
    1a2b:	52                   	push   %edx
    1a2c:	e8 4f 0f 00 00       	call   2980 <ddf_fun_get_dev>
    1a31:	89 04 24             	mov    %eax,(%esp)
    1a34:	e8 77 0e 00 00       	call   28b0 <ddf_dev_data_get>
    1a39:	89 c3                	mov    %eax,%ebx
    1a3b:	8d 70 08             	lea    0x8(%eax),%esi
    1a3e:	89 34 24             	mov    %esi,(%esp)
    1a41:	e8 ea ba 00 00       	call   d530 <fibril_mutex_lock@plt>
    1a46:	8b 43 24             	mov    0x24(%ebx),%eax
    1a49:	83 c4 10             	add    $0x10,%esp
    1a4c:	8d 50 ff             	lea    -0x1(%eax),%edx
    1a4f:	89 53 24             	mov    %edx,0x24(%ebx)
    1a52:	85 d2                	test   %edx,%edx
    1a54:	78 0e                	js     1a64 <rtc_close+0x44>
    1a56:	89 75 08             	mov    %esi,0x8(%ebp)
    1a59:	8d 65 f8             	lea    -0x8(%ebp),%esp
    1a5c:	5b                   	pop    %ebx
    1a5d:	5e                   	pop    %esi
    1a5e:	5d                   	pop    %ebp
    1a5f:	e9 1c b8 00 00       	jmp    d280 <fibril_mutex_unlock@plt>
    1a64:	50                   	push   %eax
    1a65:	68 ce 02 00 00       	push   $0x2ce
    1a6a:	68 43 b1 00 00       	push   $0xb143
    1a6f:	68 4e b1 00 00       	push   $0xb14e
    1a74:	e8 67 b7 00 00       	call   d1e0 <assert_abort@plt>
    1a79:	8d b4 26 00 00 00 00 	lea    0x0(%esi,%eiz,1),%esi

00001a80 <rtc_battery_status_get>:
    1a80:	55                   	push   %ebp
    1a81:	89 e5                	mov    %esp,%ebp
    1a83:	56                   	push   %esi
    1a84:	53                   	push   %ebx
    1a85:	83 ec 0c             	sub    $0xc,%esp
    1a88:	8b 45 08             	mov    0x8(%ebp),%eax
    1a8b:	50                   	push   %eax
    1a8c:	e8 ef 0e 00 00       	call   2980 <ddf_fun_get_dev>
    1a91:	89 04 24             	mov    %eax,(%esp)
    1a94:	e8 17 0e 00 00       	call   28b0 <ddf_dev_data_get>
    1a99:	89 c3                	mov    %eax,%ebx
    1a9b:	8d 70 08             	lea    0x8(%eax),%esi
    1a9e:	89 34 24             	mov    %esi,(%esp)
    1aa1:	e8 8a ba 00 00       	call   d530 <fibril_mutex_lock@plt>
    1aa6:	8b 43 1c             	mov    0x1c(%ebx),%eax
    1aa9:	5a                   	pop    %edx
    1aaa:	59                   	pop    %ecx
    1aab:	6a 0d                	push   $0xd
    1aad:	50                   	push   %eax
    1aae:	e8 7d b7 00 00       	call   d230 <pio_write_8@plt>
    1ab3:	8b 43 1c             	mov    0x1c(%ebx),%eax
    1ab6:	40                   	inc    %eax
    1ab7:	89 04 24             	mov    %eax,(%esp)
    1aba:	e8 01 b7 00 00       	call   d1c0 <pio_read_8@plt>
    1abf:	0f be d8             	movsbl %al,%ebx
    1ac2:	89 34 24             	mov    %esi,(%esp)
    1ac5:	83 f3 ff             	xor    $0xffffffff,%ebx
    1ac8:	c1 eb 1f             	shr    $0x1f,%ebx
    1acb:	e8 b0 b7 00 00       	call   d280 <fibril_mutex_unlock@plt>
    1ad0:	8b 45 0c             	mov    0xc(%ebp),%eax
    1ad3:	89 18                	mov    %ebx,(%eax)
    1ad5:	8d 65 f8             	lea    -0x8(%ebp),%esp
    1ad8:	31 c0                	xor    %eax,%eax
    1ada:	5b                   	pop    %ebx
    1adb:	5e                   	pop    %esi
    1adc:	5d                   	pop    %ebp
    1add:	c3                   	ret    
    1ade:	66 90                	xchg   %ax,%ax

00001ae0 <rtc_time_set>:
    1ae0:	55                   	push   %ebp
    1ae1:	89 e5                	mov    %esp,%ebp
    1ae3:	57                   	push   %edi
    1ae4:	56                   	push   %esi
    1ae5:	53                   	push   %ebx
    1ae6:	83 ec 38             	sub    $0x38,%esp
    1ae9:	8b 4d 08             	mov    0x8(%ebp),%ecx
    1aec:	8b 75 0c             	mov    0xc(%ebp),%esi
    1aef:	51                   	push   %ecx
    1af0:	e8 8b 0e 00 00       	call   2980 <ddf_fun_get_dev>
    1af5:	89 04 24             	mov    %eax,(%esp)
    1af8:	e8 b3 0d 00 00       	call   28b0 <ddf_dev_data_get>
    1afd:	89 34 24             	mov    %esi,(%esp)
    1b00:	89 c3                	mov    %eax,%ebx
    1b02:	e8 d9 b7 00 00       	call   d2e0 <mktime@plt>
    1b07:	83 c4 10             	add    $0x10,%esp
    1b0a:	85 c0                	test   %eax,%eax
    1b0c:	0f 88 ad 03 00 00    	js     1ebf <rtc_time_set+0x3df>
    1b12:	83 ec 0c             	sub    $0xc,%esp
    1b15:	89 45 e0             	mov    %eax,-0x20(%ebp)
    1b18:	8d 7d d8             	lea    -0x28(%ebp),%edi
    1b1b:	8b 06                	mov    (%esi),%eax
    1b1d:	89 45 e4             	mov    %eax,-0x1c(%ebp)
    1b20:	57                   	push   %edi
    1b21:	e8 7a b8 00 00       	call   d3a0 <getuptime@plt>
    1b26:	58                   	pop    %eax
    1b27:	8d 45 e0             	lea    -0x20(%ebp),%eax
    1b2a:	5a                   	pop    %edx
    1b2b:	50                   	push   %eax
    1b2c:	57                   	push   %edi
    1b2d:	e8 ae b9 00 00       	call   d4e0 <tv_gteq@plt>
    1b32:	83 c4 10             	add    $0x10,%esp
    1b35:	89 45 d0             	mov    %eax,-0x30(%ebp)
    1b38:	85 c0                	test   %eax,%eax
    1b3a:	0f 85 7f 03 00 00    	jne    1ebf <rtc_time_set+0x3df>
    1b40:	83 ec 0c             	sub    $0xc,%esp
    1b43:	8d 43 08             	lea    0x8(%ebx),%eax
    1b46:	89 45 cc             	mov    %eax,-0x34(%ebp)
    1b49:	50                   	push   %eax
    1b4a:	e8 e1 b9 00 00       	call   d530 <fibril_mutex_lock@plt>
    1b4f:	5f                   	pop    %edi
    1b50:	58                   	pop    %eax
    1b51:	8b 43 1c             	mov    0x1c(%ebx),%eax
    1b54:	6a 0d                	push   $0xd
    1b56:	50                   	push   %eax
    1b57:	e8 d4 b6 00 00       	call   d230 <pio_write_8@plt>
    1b5c:	8b 43 1c             	mov    0x1c(%ebx),%eax
    1b5f:	40                   	inc    %eax
    1b60:	89 04 24             	mov    %eax,(%esp)
    1b63:	e8 58 b6 00 00       	call   d1c0 <pio_read_8@plt>
    1b68:	83 c4 10             	add    $0x10,%esp
    1b6b:	84 c0                	test   %al,%al
    1b6d:	0f 89 65 03 00 00    	jns    1ed8 <rtc_time_set+0x3f8>
    1b73:	c7 43 28 00 00 00 00 	movl   $0x0,0x28(%ebx)
    1b7a:	c7 43 2c 00 00 00 00 	movl   $0x0,0x2c(%ebx)
    1b81:	50                   	push   %eax
    1b82:	50                   	push   %eax
    1b83:	8b 53 1c             	mov    0x1c(%ebx),%edx
    1b86:	6a 09                	push   $0x9
    1b88:	52                   	push   %edx
    1b89:	e8 a2 b6 00 00       	call   d230 <pio_write_8@plt>
    1b8e:	8b 43 1c             	mov    0x1c(%ebx),%eax
    1b91:	bf 6c 07 00 00       	mov    $0x76c,%edi
    1b96:	40                   	inc    %eax
    1b97:	89 04 24             	mov    %eax,(%esp)
    1b9a:	e8 21 b6 00 00       	call   d1c0 <pio_read_8@plt>
    1b9f:	88 c1                	mov    %al,%cl
    1ba1:	31 c0                	xor    %eax,%eax
    1ba3:	88 c8                	mov    %cl,%al
    1ba5:	83 c4 10             	add    $0x10,%esp
    1ba8:	83 f8 63             	cmp    $0x63,%eax
    1bab:	0f 8e ef 01 00 00    	jle    1da0 <rtc_time_set+0x2c0>
    1bb1:	8b 46 14             	mov    0x14(%esi),%eax
    1bb4:	40                   	inc    %eax
    1bb5:	89 46 14             	mov    %eax,0x14(%esi)
    1bb8:	50                   	push   %eax
    1bb9:	50                   	push   %eax
    1bba:	6a 0b                	push   $0xb
    1bbc:	8b 43 1c             	mov    0x1c(%ebx),%eax
    1bbf:	50                   	push   %eax
    1bc0:	e8 6b b6 00 00       	call   d230 <pio_write_8@plt>
    1bc5:	8b 43 1c             	mov    0x1c(%ebx),%eax
    1bc8:	40                   	inc    %eax
    1bc9:	89 04 24             	mov    %eax,(%esp)
    1bcc:	e8 ef b5 00 00       	call   d1c0 <pio_read_8@plt>
    1bd1:	83 c4 10             	add    $0x10,%esp
    1bd4:	a8 02                	test   $0x2,%al
    1bd6:	0f 84 8c 02 00 00    	je     1e68 <rtc_time_set+0x388>
    1bdc:	88 c1                	mov    %al,%cl
    1bde:	81 e1 ff 00 00 00    	and    $0xff,%ecx
    1be4:	81 ff d0 07 00 00    	cmp    $0x7d0,%edi
    1bea:	89 4d d4             	mov    %ecx,-0x2c(%ebp)
    1bed:	0f 84 af 02 00 00    	je     1ea2 <rtc_time_set+0x3c2>
    1bf3:	f6 45 d4 04          	testb  $0x4,-0x2c(%ebp)
    1bf7:	0f 84 bb 01 00 00    	je     1db8 <rtc_time_set+0x2d8>
    1bfd:	50                   	push   %eax
    1bfe:	50                   	push   %eax
    1bff:	8b 53 1c             	mov    0x1c(%ebx),%edx
    1c02:	6a 0b                	push   $0xb
    1c04:	52                   	push   %edx
    1c05:	e8 26 b6 00 00       	call   d230 <pio_write_8@plt>
    1c0a:	59                   	pop    %ecx
    1c0b:	8b 45 d4             	mov    -0x2c(%ebp),%eax
    1c0e:	8b 4b 1c             	mov    0x1c(%ebx),%ecx
    1c11:	0c 80                	or     $0x80,%al
    1c13:	5f                   	pop    %edi
    1c14:	50                   	push   %eax
    1c15:	8d 41 01             	lea    0x1(%ecx),%eax
    1c18:	50                   	push   %eax
    1c19:	e8 12 b6 00 00       	call   d230 <pio_write_8@plt>
    1c1e:	8b 7e 04             	mov    0x4(%esi),%edi
    1c21:	8b 4b 1c             	mov    0x1c(%ebx),%ecx
    1c24:	58                   	pop    %eax
    1c25:	5a                   	pop    %edx
    1c26:	6a 00                	push   $0x0
    1c28:	51                   	push   %ecx
    1c29:	e8 02 b6 00 00       	call   d230 <pio_write_8@plt>
    1c2e:	58                   	pop    %eax
    1c2f:	8b 4b 1c             	mov    0x1c(%ebx),%ecx
    1c32:	89 f8                	mov    %edi,%eax
    1c34:	25 ff 00 00 00       	and    $0xff,%eax
    1c39:	5a                   	pop    %edx
    1c3a:	50                   	push   %eax
    1c3b:	8d 41 01             	lea    0x1(%ecx),%eax
    1c3e:	50                   	push   %eax
    1c3f:	e8 ec b5 00 00       	call   d230 <pio_write_8@plt>
    1c44:	59                   	pop    %ecx
    1c45:	8b 7e 08             	mov    0x8(%esi),%edi
    1c48:	58                   	pop    %eax
    1c49:	8b 43 1c             	mov    0x1c(%ebx),%eax
    1c4c:	6a 02                	push   $0x2
    1c4e:	50                   	push   %eax
    1c4f:	e8 dc b5 00 00       	call   d230 <pio_write_8@plt>
    1c54:	58                   	pop    %eax
    1c55:	8b 4b 1c             	mov    0x1c(%ebx),%ecx
    1c58:	89 f8                	mov    %edi,%eax
    1c5a:	25 ff 00 00 00       	and    $0xff,%eax
    1c5f:	5a                   	pop    %edx
    1c60:	50                   	push   %eax
    1c61:	8d 41 01             	lea    0x1(%ecx),%eax
    1c64:	50                   	push   %eax
    1c65:	e8 c6 b5 00 00       	call   d230 <pio_write_8@plt>
    1c6a:	8b 7e 0c             	mov    0xc(%esi),%edi
    1c6d:	59                   	pop    %ecx
    1c6e:	58                   	pop    %eax
    1c6f:	8b 43 1c             	mov    0x1c(%ebx),%eax
    1c72:	6a 04                	push   $0x4
    1c74:	50                   	push   %eax
    1c75:	e8 b6 b5 00 00       	call   d230 <pio_write_8@plt>
    1c7a:	58                   	pop    %eax
    1c7b:	8b 4b 1c             	mov    0x1c(%ebx),%ecx
    1c7e:	89 f8                	mov    %edi,%eax
    1c80:	25 ff 00 00 00       	and    $0xff,%eax
    1c85:	5a                   	pop    %edx
    1c86:	50                   	push   %eax
    1c87:	8d 41 01             	lea    0x1(%ecx),%eax
    1c8a:	50                   	push   %eax
    1c8b:	e8 a0 b5 00 00       	call   d230 <pio_write_8@plt>
    1c90:	59                   	pop    %ecx
    1c91:	8b 7e 10             	mov    0x10(%esi),%edi
    1c94:	58                   	pop    %eax
    1c95:	8b 43 1c             	mov    0x1c(%ebx),%eax
    1c98:	6a 07                	push   $0x7
    1c9a:	50                   	push   %eax
    1c9b:	e8 90 b5 00 00       	call   d230 <pio_write_8@plt>
    1ca0:	58                   	pop    %eax
    1ca1:	8b 4b 1c             	mov    0x1c(%ebx),%ecx
    1ca4:	89 f8                	mov    %edi,%eax
    1ca6:	25 ff 00 00 00       	and    $0xff,%eax
    1cab:	5a                   	pop    %edx
    1cac:	50                   	push   %eax
    1cad:	8d 41 01             	lea    0x1(%ecx),%eax
    1cb0:	50                   	push   %eax
    1cb1:	e8 7a b5 00 00       	call   d230 <pio_write_8@plt>
    1cb6:	59                   	pop    %ecx
    1cb7:	8b 7e 14             	mov    0x14(%esi),%edi
    1cba:	58                   	pop    %eax
    1cbb:	8b 43 1c             	mov    0x1c(%ebx),%eax
    1cbe:	6a 08                	push   $0x8
    1cc0:	50                   	push   %eax
    1cc1:	e8 6a b5 00 00       	call   d230 <pio_write_8@plt>
    1cc6:	58                   	pop    %eax
    1cc7:	8b 4b 1c             	mov    0x1c(%ebx),%ecx
    1cca:	89 f8                	mov    %edi,%eax
    1ccc:	25 ff 00 00 00       	and    $0xff,%eax
    1cd1:	5a                   	pop    %edx
    1cd2:	50                   	push   %eax
    1cd3:	8d 41 01             	lea    0x1(%ecx),%eax
    1cd6:	50                   	push   %eax
    1cd7:	e8 54 b5 00 00       	call   d230 <pio_write_8@plt>
    1cdc:	8b 76 18             	mov    0x18(%esi),%esi
    1cdf:	8b 43 1c             	mov    0x1c(%ebx),%eax
    1ce2:	59                   	pop    %ecx
    1ce3:	5f                   	pop    %edi
    1ce4:	6a 09                	push   $0x9
    1ce6:	50                   	push   %eax
    1ce7:	e8 44 b5 00 00       	call   d230 <pio_write_8@plt>
    1cec:	58                   	pop    %eax
    1ced:	8b 4b 1c             	mov    0x1c(%ebx),%ecx
    1cf0:	89 f0                	mov    %esi,%eax
    1cf2:	25 ff 00 00 00       	and    $0xff,%eax
    1cf7:	5a                   	pop    %edx
    1cf8:	50                   	push   %eax
    1cf9:	8d 41 01             	lea    0x1(%ecx),%eax
    1cfc:	50                   	push   %eax
    1cfd:	e8 2e b5 00 00       	call   d230 <pio_write_8@plt>
    1d02:	8b 7b 1c             	mov    0x1c(%ebx),%edi
    1d05:	59                   	pop    %ecx
    1d06:	5e                   	pop    %esi
    1d07:	6a 0a                	push   $0xa
    1d09:	57                   	push   %edi
    1d0a:	e8 21 b5 00 00       	call   d230 <pio_write_8@plt>
    1d0f:	8b 4b 1c             	mov    0x1c(%ebx),%ecx
    1d12:	8d 41 01             	lea    0x1(%ecx),%eax
    1d15:	89 04 24             	mov    %eax,(%esp)
    1d18:	e8 a3 b4 00 00       	call   d1c0 <pio_read_8@plt>
    1d1d:	8b 4b 1c             	mov    0x1c(%ebx),%ecx
    1d20:	89 c7                	mov    %eax,%edi
    1d22:	58                   	pop    %eax
    1d23:	5a                   	pop    %edx
    1d24:	6a 0a                	push   $0xa
    1d26:	51                   	push   %ecx
    1d27:	e8 04 b5 00 00       	call   d230 <pio_write_8@plt>
    1d2c:	5e                   	pop    %esi
    1d2d:	58                   	pop    %eax
    1d2e:	89 f8                	mov    %edi,%eax
    1d30:	8b 73 1c             	mov    0x1c(%ebx),%esi
    1d33:	83 c8 70             	or     $0x70,%eax
    1d36:	25 ff 00 00 00       	and    $0xff,%eax
    1d3b:	50                   	push   %eax
    1d3c:	8d 46 01             	lea    0x1(%esi),%eax
    1d3f:	50                   	push   %eax
    1d40:	e8 eb b4 00 00       	call   d230 <pio_write_8@plt>
    1d45:	8b 4b 1c             	mov    0x1c(%ebx),%ecx
    1d48:	58                   	pop    %eax
    1d49:	5a                   	pop    %edx
    1d4a:	6a 0b                	push   $0xb
    1d4c:	51                   	push   %ecx
    1d4d:	e8 de b4 00 00       	call   d230 <pio_write_8@plt>
    1d52:	5e                   	pop    %esi
    1d53:	58                   	pop    %eax
    1d54:	8b 45 d4             	mov    -0x2c(%ebp),%eax
    1d57:	50                   	push   %eax
    1d58:	8b 43 1c             	mov    0x1c(%ebx),%eax
    1d5b:	40                   	inc    %eax
    1d5c:	50                   	push   %eax
    1d5d:	e8 ce b4 00 00       	call   d230 <pio_write_8@plt>
    1d62:	8b 4b 1c             	mov    0x1c(%ebx),%ecx
    1d65:	58                   	pop    %eax
    1d66:	5a                   	pop    %edx
    1d67:	6a 0a                	push   $0xa
    1d69:	51                   	push   %ecx
    1d6a:	e8 c1 b4 00 00       	call   d230 <pio_write_8@plt>
    1d6f:	5e                   	pop    %esi
    1d70:	89 fe                	mov    %edi,%esi
    1d72:	58                   	pop    %eax
    1d73:	8b 43 1c             	mov    0x1c(%ebx),%eax
    1d76:	81 e6 ff 00 00 00    	and    $0xff,%esi
    1d7c:	40                   	inc    %eax
    1d7d:	56                   	push   %esi
    1d7e:	50                   	push   %eax
    1d7f:	e8 ac b4 00 00       	call   d230 <pio_write_8@plt>
    1d84:	58                   	pop    %eax
    1d85:	8b 45 cc             	mov    -0x34(%ebp),%eax
    1d88:	50                   	push   %eax
    1d89:	e8 f2 b4 00 00       	call   d280 <fibril_mutex_unlock@plt>
    1d8e:	83 c4 10             	add    $0x10,%esp
    1d91:	8b 45 d0             	mov    -0x30(%ebp),%eax
    1d94:	8d 65 f4             	lea    -0xc(%ebp),%esp
    1d97:	5b                   	pop    %ebx
    1d98:	5e                   	pop    %esi
    1d99:	5f                   	pop    %edi
    1d9a:	5d                   	pop    %ebp
    1d9b:	c3                   	ret    
    1d9c:	8d 74 26 00          	lea    0x0(%esi,%eiz,1),%esi
    1da0:	83 7e 18 63          	cmpl   $0x63,0x18(%esi)
    1da4:	0f 8e 06 01 00 00    	jle    1eb0 <rtc_time_set+0x3d0>
    1daa:	bf d0 07 00 00       	mov    $0x7d0,%edi
    1daf:	e9 fd fd ff ff       	jmp    1bb1 <rtc_time_set+0xd1>
    1db4:	8d 74 26 00          	lea    0x0(%esi,%eiz,1),%esi
    1db8:	8b 7e 04             	mov    0x4(%esi),%edi
    1dbb:	b9 cd cc cc cc       	mov    $0xcccccccd,%ecx
    1dc0:	89 f8                	mov    %edi,%eax
    1dc2:	f7 e1                	mul    %ecx
    1dc4:	c1 ea 03             	shr    $0x3,%edx
    1dc7:	89 d0                	mov    %edx,%eax
    1dc9:	c1 e0 04             	shl    $0x4,%eax
    1dcc:	8d 14 92             	lea    (%edx,%edx,4),%edx
    1dcf:	01 d2                	add    %edx,%edx
    1dd1:	29 d7                	sub    %edx,%edi
    1dd3:	01 c7                	add    %eax,%edi
    1dd5:	89 7e 04             	mov    %edi,0x4(%esi)
    1dd8:	8b 7e 08             	mov    0x8(%esi),%edi
    1ddb:	89 f8                	mov    %edi,%eax
    1ddd:	f7 e1                	mul    %ecx
    1ddf:	c1 ea 03             	shr    $0x3,%edx
    1de2:	89 d0                	mov    %edx,%eax
    1de4:	c1 e0 04             	shl    $0x4,%eax
    1de7:	8d 14 92             	lea    (%edx,%edx,4),%edx
    1dea:	01 d2                	add    %edx,%edx
    1dec:	29 d7                	sub    %edx,%edi
    1dee:	01 c7                	add    %eax,%edi
    1df0:	89 7e 08             	mov    %edi,0x8(%esi)
    1df3:	8b 7e 0c             	mov    0xc(%esi),%edi
    1df6:	89 f8                	mov    %edi,%eax
    1df8:	f7 e1                	mul    %ecx
    1dfa:	c1 ea 03             	shr    $0x3,%edx
    1dfd:	89 d0                	mov    %edx,%eax
    1dff:	c1 e0 04             	shl    $0x4,%eax
    1e02:	8d 14 92             	lea    (%edx,%edx,4),%edx
    1e05:	01 d2                	add    %edx,%edx
    1e07:	29 d7                	sub    %edx,%edi
    1e09:	01 c7                	add    %eax,%edi
    1e0b:	89 7e 0c             	mov    %edi,0xc(%esi)
    1e0e:	8b 7e 10             	mov    0x10(%esi),%edi
    1e11:	89 f8                	mov    %edi,%eax
    1e13:	f7 e1                	mul    %ecx
    1e15:	c1 ea 03             	shr    $0x3,%edx
    1e18:	89 d0                	mov    %edx,%eax
    1e1a:	c1 e0 04             	shl    $0x4,%eax
    1e1d:	8d 14 92             	lea    (%edx,%edx,4),%edx
    1e20:	01 d2                	add    %edx,%edx
    1e22:	29 d7                	sub    %edx,%edi
    1e24:	01 c7                	add    %eax,%edi
    1e26:	89 7e 10             	mov    %edi,0x10(%esi)
    1e29:	8b 7e 14             	mov    0x14(%esi),%edi
    1e2c:	89 f8                	mov    %edi,%eax
    1e2e:	f7 e1                	mul    %ecx
    1e30:	c1 ea 03             	shr    $0x3,%edx
    1e33:	89 d0                	mov    %edx,%eax
    1e35:	c1 e0 04             	shl    $0x4,%eax
    1e38:	8d 14 92             	lea    (%edx,%edx,4),%edx
    1e3b:	01 d2                	add    %edx,%edx
    1e3d:	29 d7                	sub    %edx,%edi
    1e3f:	01 c7                	add    %eax,%edi
    1e41:	89 7e 14             	mov    %edi,0x14(%esi)
    1e44:	8b 7e 18             	mov    0x18(%esi),%edi
    1e47:	89 f8                	mov    %edi,%eax
    1e49:	f7 e1                	mul    %ecx
    1e4b:	c1 ea 03             	shr    $0x3,%edx
    1e4e:	89 d0                	mov    %edx,%eax
    1e50:	c1 e0 04             	shl    $0x4,%eax
    1e53:	8d 14 92             	lea    (%edx,%edx,4),%edx
    1e56:	01 d2                	add    %edx,%edx
    1e58:	29 d7                	sub    %edx,%edi
    1e5a:	01 c7                	add    %eax,%edi
    1e5c:	89 7e 18             	mov    %edi,0x18(%esi)
    1e5f:	e9 99 fd ff ff       	jmp    1bfd <rtc_time_set+0x11d>
    1e64:	8d 74 26 00          	lea    0x0(%esi,%eiz,1),%esi
    1e68:	83 c8 02             	or     $0x2,%eax
    1e6b:	88 c1                	mov    %al,%cl
    1e6d:	50                   	push   %eax
    1e6e:	50                   	push   %eax
    1e6f:	81 e1 ff 00 00 00    	and    $0xff,%ecx
    1e75:	8b 43 1c             	mov    0x1c(%ebx),%eax
    1e78:	6a 0b                	push   $0xb
    1e7a:	89 4d d4             	mov    %ecx,-0x2c(%ebp)
    1e7d:	50                   	push   %eax
    1e7e:	e8 ad b3 00 00       	call   d230 <pio_write_8@plt>
    1e83:	8b 45 d4             	mov    -0x2c(%ebp),%eax
    1e86:	5a                   	pop    %edx
    1e87:	59                   	pop    %ecx
    1e88:	50                   	push   %eax
    1e89:	8b 43 1c             	mov    0x1c(%ebx),%eax
    1e8c:	40                   	inc    %eax
    1e8d:	50                   	push   %eax
    1e8e:	e8 9d b3 00 00       	call   d230 <pio_write_8@plt>
    1e93:	83 c4 10             	add    $0x10,%esp
    1e96:	81 ff d0 07 00 00    	cmp    $0x7d0,%edi
    1e9c:	0f 85 51 fd ff ff    	jne    1bf3 <rtc_time_set+0x113>
    1ea2:	8b 46 18             	mov    0x18(%esi),%eax
    1ea5:	83 e8 64             	sub    $0x64,%eax
    1ea8:	89 46 18             	mov    %eax,0x18(%esi)
    1eab:	e9 43 fd ff ff       	jmp    1bf3 <rtc_time_set+0x113>
    1eb0:	83 ec 0c             	sub    $0xc,%esp
    1eb3:	8b 45 cc             	mov    -0x34(%ebp),%eax
    1eb6:	50                   	push   %eax
    1eb7:	e8 c4 b3 00 00       	call   d280 <fibril_mutex_unlock@plt>
    1ebc:	83 c4 10             	add    $0x10,%esp
    1ebf:	c7 45 d0 f2 ff ff ff 	movl   $0xfffffff2,-0x30(%ebp)
    1ec6:	8b 45 d0             	mov    -0x30(%ebp),%eax
    1ec9:	8d 65 f4             	lea    -0xc(%ebp),%esp
    1ecc:	5b                   	pop    %ebx
    1ecd:	5e                   	pop    %esi
    1ece:	5f                   	pop    %edi
    1ecf:	5d                   	pop    %ebp
    1ed0:	c3                   	ret    
    1ed1:	8d b4 26 00 00 00 00 	lea    0x0(%esi,%eiz,1),%esi
    1ed8:	83 ec 0c             	sub    $0xc,%esp
    1edb:	8b 4d cc             	mov    -0x34(%ebp),%ecx
    1ede:	51                   	push   %ecx
    1edf:	e8 9c b3 00 00       	call   d280 <fibril_mutex_unlock@plt>
    1ee4:	83 c4 10             	add    $0x10,%esp
    1ee7:	c7 45 d0 f6 fe ff ff 	movl   $0xfffffef6,-0x30(%ebp)
    1eee:	e9 9e fe ff ff       	jmp    1d91 <rtc_time_set+0x2b1>
    1ef3:	66 90                	xchg   %ax,%ax
    1ef5:	66 90                	xchg   %ax,%ax
    1ef7:	66 90                	xchg   %ax,%ax
    1ef9:	66 90                	xchg   %ax,%ax
    1efb:	66 90                	xchg   %ax,%ax
    1efd:	66 90                	xchg   %ax,%ax
    1eff:	90                   	nop

00001f00 <main>:
    1f00:	8d 4c 24 04          	lea    0x4(%esp),%ecx
    1f04:	83 e4 f0             	and    $0xfffffff0,%esp
    1f07:	ff 71 fc             	pushl  -0x4(%ecx)
    1f0a:	55                   	push   %ebp
    1f0b:	89 e5                	mov    %esp,%ebp
    1f0d:	51                   	push   %ecx
    1f0e:	83 ec 10             	sub    $0x10,%esp
    1f11:	68 6a b1 00 00       	push   $0xb16a
    1f16:	e8 35 b1 00 00       	call   d050 <printf@plt>
    1f1b:	c7 04 24 88 b1 00 00 	movl   $0xb188,(%esp)
    1f22:	e8 39 12 00 00       	call   3160 <ddf_log_init>
    1f27:	c7 04 24 58 f4 00 00 	movl   $0xf458,(%esp)
    1f2e:	c7 05 40 f6 00 00 90 	movl   $0x1590,0xf640
    1f35:	15 00 00 
    1f38:	c7 05 44 f6 00 00 20 	movl   $0x1a20,0xf644
    1f3f:	1a 00 00 
    1f42:	c7 05 74 f6 00 00 50 	movl   $0xf450,0xf674
    1f49:	f4 00 00 
    1f4c:	c7 05 7c f6 00 00 48 	movl   $0xf448,0xf67c
    1f53:	f4 00 00 
    1f56:	c7 05 84 f6 00 00 00 	movl   $0x0,0xf684
    1f5d:	00 00 00 
    1f60:	e8 9b 10 00 00       	call   3000 <ddf_driver_main>
    1f65:	8b 4d fc             	mov    -0x4(%ebp),%ecx
    1f68:	c9                   	leave  
    1f69:	8d 61 fc             	lea    -0x4(%ecx),%esp
    1f6c:	c3                   	ret    
    1f6d:	66 90                	xchg   %ax,%ax
    1f6f:	90                   	nop

00001f70 <fun_del_ref>:
    1f70:	55                   	push   %ebp
    1f71:	83 ca ff             	or     $0xffffffff,%edx
    1f74:	89 e5                	mov    %esp,%ebp
    1f76:	57                   	push   %edi
    1f77:	56                   	push   %esi
    1f78:	53                   	push   %ebx
    1f79:	83 ec 1c             	sub    $0x1c,%esp
    1f7c:	8b 70 0c             	mov    0xc(%eax),%esi
    1f7f:	f0 0f c1 50 08       	lock xadd %edx,0x8(%eax)
    1f84:	4a                   	dec    %edx
    1f85:	74 69                	je     1ff0 <fun_del_ref+0x80>
    1f87:	83 c8 ff             	or     $0xffffffff,%eax
    1f8a:	f0 0f c1 46 04       	lock xadd %eax,0x4(%esi)
    1f8f:	48                   	dec    %eax
    1f90:	74 0e                	je     1fa0 <fun_del_ref+0x30>
    1f92:	8d 65 f4             	lea    -0xc(%ebp),%esp
    1f95:	5b                   	pop    %ebx
    1f96:	5e                   	pop    %esi
    1f97:	5f                   	pop    %edi
    1f98:	5d                   	pop    %ebp
    1f99:	c3                   	ret    
    1f9a:	8d b6 00 00 00 00    	lea    0x0(%esi),%esi
    1fa0:	8b 46 08             	mov    0x8(%esi),%eax
    1fa3:	85 c0                	test   %eax,%eax
    1fa5:	74 0c                	je     1fb3 <fun_del_ref+0x43>
    1fa7:	83 ec 0c             	sub    $0xc,%esp
    1faa:	50                   	push   %eax
    1fab:	e8 b0 b0 00 00       	call   d060 <async_hangup@plt>
    1fb0:	83 c4 10             	add    $0x10,%esp
    1fb3:	8b 46 10             	mov    0x10(%esi),%eax
    1fb6:	85 c0                	test   %eax,%eax
    1fb8:	74 0c                	je     1fc6 <fun_del_ref+0x56>
    1fba:	83 ec 0c             	sub    $0xc,%esp
    1fbd:	50                   	push   %eax
    1fbe:	e8 4d b5 00 00       	call   d510 <free@plt>
    1fc3:	83 c4 10             	add    $0x10,%esp
    1fc6:	8b 46 0c             	mov    0xc(%esi),%eax
    1fc9:	85 c0                	test   %eax,%eax
    1fcb:	74 0c                	je     1fd9 <fun_del_ref+0x69>
    1fcd:	83 ec 0c             	sub    $0xc,%esp
    1fd0:	50                   	push   %eax
    1fd1:	e8 3a b5 00 00       	call   d510 <free@plt>
    1fd6:	83 c4 10             	add    $0x10,%esp
    1fd9:	83 ec 0c             	sub    $0xc,%esp
    1fdc:	56                   	push   %esi
    1fdd:	e8 2e b5 00 00       	call   d510 <free@plt>
    1fe2:	83 c4 10             	add    $0x10,%esp
    1fe5:	8d 65 f4             	lea    -0xc(%ebp),%esp
    1fe8:	5b                   	pop    %ebx
    1fe9:	5e                   	pop    %esi
    1fea:	5f                   	pop    %edi
    1feb:	5d                   	pop    %ebp
    1fec:	c3                   	ret    
    1fed:	8d 76 00             	lea    0x0(%esi),%esi
    1ff0:	8b 58 1c             	mov    0x1c(%eax),%ebx
    1ff3:	89 c7                	mov    %eax,%edi
    1ff5:	8d 40 18             	lea    0x18(%eax),%eax
    1ff8:	89 45 e4             	mov    %eax,-0x1c(%ebp)
    1ffb:	39 d8                	cmp    %ebx,%eax
    1ffd:	74 49                	je     2048 <fun_del_ref+0xd8>
    1fff:	90                   	nop
    2000:	8b 0b                	mov    (%ebx),%ecx
    2002:	85 c9                	test   %ecx,%ecx
    2004:	74 0e                	je     2014 <fun_del_ref+0xa4>
    2006:	8b 53 04             	mov    0x4(%ebx),%edx
    2009:	85 d2                	test   %edx,%edx
    200b:	74 07                	je     2014 <fun_del_ref+0xa4>
    200d:	89 0a                	mov    %ecx,(%edx)
    200f:	8b 0b                	mov    (%ebx),%ecx
    2011:	89 51 04             	mov    %edx,0x4(%ecx)
    2014:	8b 53 08             	mov    0x8(%ebx),%edx
    2017:	c7 03 00 00 00 00    	movl   $0x0,(%ebx)
    201d:	c7 43 04 00 00 00 00 	movl   $0x0,0x4(%ebx)
    2024:	85 d2                	test   %edx,%edx
    2026:	74 0c                	je     2034 <fun_del_ref+0xc4>
    2028:	83 ec 0c             	sub    $0xc,%esp
    202b:	52                   	push   %edx
    202c:	e8 df b4 00 00       	call   d510 <free@plt>
    2031:	83 c4 10             	add    $0x10,%esp
    2034:	83 ec 0c             	sub    $0xc,%esp
    2037:	53                   	push   %ebx
    2038:	e8 d3 b4 00 00       	call   d510 <free@plt>
    203d:	8b 5f 1c             	mov    0x1c(%edi),%ebx
    2040:	83 c4 10             	add    $0x10,%esp
    2043:	3b 5d e4             	cmp    -0x1c(%ebp),%ebx
    2046:	75 b8                	jne    2000 <fun_del_ref+0x90>
    2048:	8b 57 20             	mov    0x20(%edi),%edx
    204b:	85 d2                	test   %edx,%edx
    204d:	74 0c                	je     205b <fun_del_ref+0xeb>
    204f:	83 ec 0c             	sub    $0xc,%esp
    2052:	52                   	push   %edx
    2053:	e8 b8 b4 00 00       	call   d510 <free@plt>
    2058:	83 c4 10             	add    $0x10,%esp
    205b:	8b 57 14             	mov    0x14(%edi),%edx
    205e:	85 d2                	test   %edx,%edx
    2060:	74 0c                	je     206e <fun_del_ref+0xfe>
    2062:	83 ec 0c             	sub    $0xc,%esp
    2065:	52                   	push   %edx
    2066:	e8 a5 b4 00 00       	call   d510 <free@plt>
    206b:	83 c4 10             	add    $0x10,%esp
    206e:	83 ec 0c             	sub    $0xc,%esp
    2071:	57                   	push   %edi
    2072:	e8 99 b4 00 00       	call   d510 <free@plt>
    2077:	83 c4 10             	add    $0x10,%esp
    207a:	e9 08 ff ff ff       	jmp    1f87 <fun_del_ref+0x17>
    207f:	90                   	nop

00002080 <driver_connection_gen.constprop.7>:
    2080:	55                   	push   %ebp
    2081:	89 e5                	mov    %esp,%ebp
    2083:	57                   	push   %edi
    2084:	56                   	push   %esi
    2085:	53                   	push   %ebx
    2086:	83 ec 58             	sub    $0x58,%esp
    2089:	89 d3                	mov    %edx,%ebx
    208b:	8b 72 08             	mov    0x8(%edx),%esi
    208e:	89 45 b4             	mov    %eax,-0x4c(%ebp)
    2091:	68 74 f4 00 00       	push   $0xf474
    2096:	e8 95 b4 00 00       	call   d530 <fibril_mutex_lock@plt>
    209b:	c7 04 24 74 f4 00 00 	movl   $0xf474,(%esp)
    20a2:	e8 19 b0 00 00       	call   d0c0 <fibril_mutex_is_locked@plt>
    20a7:	83 c4 10             	add    $0x10,%esp
    20aa:	84 c0                	test   %al,%al
    20ac:	0f 84 71 02 00 00    	je     2323 <driver_connection_gen.constprop.7+0x2a3>
    20b2:	a1 88 f4 00 00       	mov    0xf488,%eax
    20b7:	3d 84 f4 00 00       	cmp    $0xf484,%eax
    20bc:	8d 78 d4             	lea    -0x2c(%eax),%edi
    20bf:	75 18                	jne    20d9 <driver_connection_gen.constprop.7+0x59>
    20c1:	e9 22 02 00 00       	jmp    22e8 <driver_connection_gen.constprop.7+0x268>
    20c6:	66 90                	xchg   %ax,%ax
    20c8:	8b 40 04             	mov    0x4(%eax),%eax
    20cb:	3d 84 f4 00 00       	cmp    $0xf484,%eax
    20d0:	8d 78 d4             	lea    -0x2c(%eax),%edi
    20d3:	0f 84 0f 02 00 00    	je     22e8 <driver_connection_gen.constprop.7+0x268>
    20d9:	3b 77 04             	cmp    0x4(%edi),%esi
    20dc:	75 ea                	jne    20c8 <driver_connection_gen.constprop.7+0x48>
    20de:	8b 47 0c             	mov    0xc(%edi),%eax
    20e1:	f0 ff 40 04          	lock incl 0x4(%eax)
    20e5:	f0 ff 47 08          	lock incl 0x8(%edi)
    20e9:	83 ec 0c             	sub    $0xc,%esp
    20ec:	68 74 f4 00 00       	push   $0xf474
    20f1:	e8 8a b1 00 00       	call   d280 <fibril_mutex_unlock@plt>
    20f6:	8b 47 28             	mov    0x28(%edi),%eax
    20f9:	83 c4 10             	add    $0x10,%esp
    20fc:	85 c0                	test   %eax,%eax
    20fe:	74 20                	je     2120 <driver_connection_gen.constprop.7+0xa0>
    2100:	8b 55 b4             	mov    -0x4c(%ebp),%edx
    2103:	56                   	push   %esi
    2104:	57                   	push   %edi
    2105:	53                   	push   %ebx
    2106:	52                   	push   %edx
    2107:	ff d0                	call   *%eax
    2109:	89 f8                	mov    %edi,%eax
    210b:	e8 60 fe ff ff       	call   1f70 <fun_del_ref>
    2110:	83 c4 10             	add    $0x10,%esp
    2113:	8d 65 f4             	lea    -0xc(%ebp),%esp
    2116:	5b                   	pop    %ebx
    2117:	5e                   	pop    %esi
    2118:	5f                   	pop    %edi
    2119:	5d                   	pop    %ebp
    211a:	c3                   	ret    
    211b:	90                   	nop
    211c:	8d 74 26 00          	lea    0x0(%esi,%eiz,1),%esi
    2120:	8b 47 24             	mov    0x24(%edi),%eax
    2123:	85 c0                	test   %eax,%eax
    2125:	0f 84 a5 01 00 00    	je     22d0 <driver_connection_gen.constprop.7+0x250>
    212b:	8b 00                	mov    (%eax),%eax
    212d:	85 c0                	test   %eax,%eax
    212f:	0f 84 9b 01 00 00    	je     22d0 <driver_connection_gen.constprop.7+0x250>
    2135:	83 ec 0c             	sub    $0xc,%esp
    2138:	57                   	push   %edi
    2139:	ff d0                	call   *%eax
    213b:	8b 4d b4             	mov    -0x4c(%ebp),%ecx
    213e:	89 c3                	mov    %eax,%ebx
    2140:	58                   	pop    %eax
    2141:	5a                   	pop    %edx
    2142:	53                   	push   %ebx
    2143:	51                   	push   %ecx
    2144:	e8 17 b0 00 00       	call   d160 <async_answer_0@plt>
    2149:	83 c4 10             	add    $0x10,%esp
    214c:	85 db                	test   %ebx,%ebx
    214e:	0f 85 70 01 00 00    	jne    22c4 <driver_connection_gen.constprop.7+0x244>
    2154:	8d 74 26 00          	lea    0x0(%esi,%eiz,1),%esi
    2158:	50                   	push   %eax
    2159:	50                   	push   %eax
    215a:	8d 45 c4             	lea    -0x3c(%ebp),%eax
    215d:	6a 00                	push   $0x0
    215f:	50                   	push   %eax
    2160:	e8 6b b2 00 00       	call   d3d0 <async_get_call_timeout@plt>
    2165:	8b 5d c4             	mov    -0x3c(%ebp),%ebx
    2168:	83 c4 10             	add    $0x10,%esp
    216b:	89 45 b4             	mov    %eax,-0x4c(%ebp)
    216e:	85 db                	test   %ebx,%ebx
    2170:	0f 84 e2 00 00 00    	je     2258 <driver_connection_gen.constprop.7+0x1d8>
    2176:	83 ec 0c             	sub    $0xc,%esp
    2179:	81 eb 00 04 00 00    	sub    $0x400,%ebx
    217f:	53                   	push   %ebx
    2180:	e8 cb 0f 00 00       	call   3150 <is_valid_iface_idx>
    2185:	83 c4 10             	add    $0x10,%esp
    2188:	84 c0                	test   %al,%al
    218a:	75 2c                	jne    21b8 <driver_connection_gen.constprop.7+0x138>
    218c:	8b 47 24             	mov    0x24(%edi),%eax
    218f:	85 c0                	test   %eax,%eax
    2191:	0f 84 91 00 00 00    	je     2228 <driver_connection_gen.constprop.7+0x1a8>
    2197:	8b 40 44             	mov    0x44(%eax),%eax
    219a:	85 c0                	test   %eax,%eax
    219c:	0f 84 86 00 00 00    	je     2228 <driver_connection_gen.constprop.7+0x1a8>
    21a2:	8d 4d c4             	lea    -0x3c(%ebp),%ecx
    21a5:	52                   	push   %edx
    21a6:	51                   	push   %ecx
    21a7:	8b 4d b4             	mov    -0x4c(%ebp),%ecx
    21aa:	51                   	push   %ecx
    21ab:	57                   	push   %edi
    21ac:	ff d0                	call   *%eax
    21ae:	83 c4 10             	add    $0x10,%esp
    21b1:	eb a5                	jmp    2158 <driver_connection_gen.constprop.7+0xd8>
    21b3:	90                   	nop
    21b4:	8d 74 26 00          	lea    0x0(%esi,%eiz,1),%esi
    21b8:	83 ec 0c             	sub    $0xc,%esp
    21bb:	53                   	push   %ebx
    21bc:	e8 8f 0f 00 00       	call   3150 <is_valid_iface_idx>
    21c1:	83 c4 10             	add    $0x10,%esp
    21c4:	84 c0                	test   %al,%al
    21c6:	0f 84 69 01 00 00    	je     2335 <driver_connection_gen.constprop.7+0x2b5>
    21cc:	8b 47 24             	mov    0x24(%edi),%eax
    21cf:	85 c0                	test   %eax,%eax
    21d1:	0f 84 b9 00 00 00    	je     2290 <driver_connection_gen.constprop.7+0x210>
    21d7:	8b 44 98 08          	mov    0x8(%eax,%ebx,4),%eax
    21db:	89 45 b0             	mov    %eax,-0x50(%ebp)
    21de:	85 c0                	test   %eax,%eax
    21e0:	0f 84 aa 00 00 00    	je     2290 <driver_connection_gen.constprop.7+0x210>
    21e6:	83 ec 0c             	sub    $0xc,%esp
    21e9:	53                   	push   %ebx
    21ea:	e8 11 0f 00 00       	call   3100 <get_remote_iface>
    21ef:	83 c4 10             	add    $0x10,%esp
    21f2:	85 c0                	test   %eax,%eax
    21f4:	0f 84 50 01 00 00    	je     234a <driver_connection_gen.constprop.7+0x2ca>
    21fa:	8b 4d c8             	mov    -0x38(%ebp),%ecx
    21fd:	52                   	push   %edx
    21fe:	52                   	push   %edx
    21ff:	51                   	push   %ecx
    2200:	50                   	push   %eax
    2201:	e8 2a 0f 00 00       	call   3130 <get_remote_method>
    2206:	83 c4 10             	add    $0x10,%esp
    2209:	85 c0                	test   %eax,%eax
    220b:	0f 84 9f 00 00 00    	je     22b0 <driver_connection_gen.constprop.7+0x230>
    2211:	8d 55 c4             	lea    -0x3c(%ebp),%edx
    2214:	8b 4d b0             	mov    -0x50(%ebp),%ecx
    2217:	52                   	push   %edx
    2218:	8b 55 b4             	mov    -0x4c(%ebp),%edx
    221b:	52                   	push   %edx
    221c:	51                   	push   %ecx
    221d:	57                   	push   %edi
    221e:	ff d0                	call   *%eax
    2220:	83 c4 10             	add    $0x10,%esp
    2223:	e9 30 ff ff ff       	jmp    2158 <driver_connection_gen.constprop.7+0xd8>
    2228:	50                   	push   %eax
    2229:	a1 88 f6 00 00       	mov    0xf688,%eax
    222e:	53                   	push   %ebx
    222f:	8b 00                	mov    (%eax),%eax
    2231:	50                   	push   %eax
    2232:	68 4c b4 00 00       	push   $0xb44c
    2237:	e8 14 ae 00 00       	call   d050 <printf@plt>
    223c:	5b                   	pop    %ebx
    223d:	58                   	pop    %eax
    223e:	8b 45 b4             	mov    -0x4c(%ebp),%eax
    2241:	6a f5                	push   $0xfffffff5
    2243:	50                   	push   %eax
    2244:	e8 17 af 00 00       	call   d160 <async_answer_0@plt>
    2249:	83 c4 10             	add    $0x10,%esp
    224c:	e9 07 ff ff ff       	jmp    2158 <driver_connection_gen.constprop.7+0xd8>
    2251:	8d b4 26 00 00 00 00 	lea    0x0(%esi,%eiz,1),%esi
    2258:	8b 47 24             	mov    0x24(%edi),%eax
    225b:	85 c0                	test   %eax,%eax
    225d:	74 10                	je     226f <driver_connection_gen.constprop.7+0x1ef>
    225f:	8b 40 04             	mov    0x4(%eax),%eax
    2262:	85 c0                	test   %eax,%eax
    2264:	74 09                	je     226f <driver_connection_gen.constprop.7+0x1ef>
    2266:	83 ec 0c             	sub    $0xc,%esp
    2269:	57                   	push   %edi
    226a:	ff d0                	call   *%eax
    226c:	83 c4 10             	add    $0x10,%esp
    226f:	8b 75 b4             	mov    -0x4c(%ebp),%esi
    2272:	53                   	push   %ebx
    2273:	53                   	push   %ebx
    2274:	6a 00                	push   $0x0
    2276:	56                   	push   %esi
    2277:	e8 e4 ae 00 00       	call   d160 <async_answer_0@plt>
    227c:	89 f8                	mov    %edi,%eax
    227e:	e8 ed fc ff ff       	call   1f70 <fun_del_ref>
    2283:	83 c4 10             	add    $0x10,%esp
    2286:	8d 65 f4             	lea    -0xc(%ebp),%esp
    2289:	5b                   	pop    %ebx
    228a:	5e                   	pop    %esi
    228b:	5f                   	pop    %edi
    228c:	5d                   	pop    %ebp
    228d:	c3                   	ret    
    228e:	66 90                	xchg   %ax,%ax
    2290:	50                   	push   %eax
    2291:	50                   	push   %eax
    2292:	a1 88 f6 00 00       	mov    0xf688,%eax
    2297:	8b 00                	mov    (%eax),%eax
    2299:	50                   	push   %eax
    229a:	68 88 b4 00 00       	push   $0xb488
    229f:	e8 ac ad 00 00       	call   d050 <printf@plt>
    22a4:	83 c4 0c             	add    $0xc,%esp
    22a7:	53                   	push   %ebx
    22a8:	56                   	push   %esi
    22a9:	68 ac b4 00 00       	push   $0xb4ac
    22ae:	eb 87                	jmp    2237 <driver_connection_gen.constprop.7+0x1b7>
    22b0:	50                   	push   %eax
    22b1:	50                   	push   %eax
    22b2:	a1 88 f6 00 00       	mov    0xf688,%eax
    22b7:	8b 00                	mov    (%eax),%eax
    22b9:	50                   	push   %eax
    22ba:	68 e4 b4 00 00       	push   $0xb4e4
    22bf:	e9 73 ff ff ff       	jmp    2237 <driver_connection_gen.constprop.7+0x1b7>
    22c4:	89 f8                	mov    %edi,%eax
    22c6:	e8 a5 fc ff ff       	call   1f70 <fun_del_ref>
    22cb:	e9 43 fe ff ff       	jmp    2113 <driver_connection_gen.constprop.7+0x93>
    22d0:	8b 55 b4             	mov    -0x4c(%ebp),%edx
    22d3:	50                   	push   %eax
    22d4:	50                   	push   %eax
    22d5:	6a 00                	push   $0x0
    22d7:	52                   	push   %edx
    22d8:	e8 83 ae 00 00       	call   d160 <async_answer_0@plt>
    22dd:	83 c4 10             	add    $0x10,%esp
    22e0:	e9 73 fe ff ff       	jmp    2158 <driver_connection_gen.constprop.7+0xd8>
    22e5:	8d 76 00             	lea    0x0(%esi),%esi
    22e8:	83 ec 0c             	sub    $0xc,%esp
    22eb:	68 74 f4 00 00       	push   $0xf474
    22f0:	e8 8b af 00 00       	call   d280 <fibril_mutex_unlock@plt>
    22f5:	a1 88 f6 00 00       	mov    0xf688,%eax
    22fa:	83 c4 0c             	add    $0xc,%esp
    22fd:	8b 08                	mov    (%eax),%ecx
    22ff:	56                   	push   %esi
    2300:	51                   	push   %ecx
    2301:	68 20 b5 00 00       	push   $0xb520
    2306:	e8 45 ad 00 00       	call   d050 <printf@plt>
    230b:	8b 7d b4             	mov    -0x4c(%ebp),%edi
    230e:	5b                   	pop    %ebx
    230f:	5e                   	pop    %esi
    2310:	6a ff                	push   $0xffffffff
    2312:	57                   	push   %edi
    2313:	e8 48 ae 00 00       	call   d160 <async_answer_0@plt>
    2318:	83 c4 10             	add    $0x10,%esp
    231b:	8d 65 f4             	lea    -0xc(%ebp),%esp
    231e:	5b                   	pop    %ebx
    231f:	5e                   	pop    %esi
    2320:	5f                   	pop    %edi
    2321:	5d                   	pop    %ebp
    2322:	c3                   	ret    
    2323:	51                   	push   %ecx
    2324:	6a 6b                	push   $0x6b
    2326:	68 ca b2 00 00       	push   $0xb2ca
    232b:	68 20 b4 00 00       	push   $0xb420
    2330:	e8 ab ae 00 00       	call   d1e0 <assert_abort@plt>
    2335:	50                   	push   %eax
    2336:	68 fb 02 00 00       	push   $0x2fb
    233b:	68 ca b2 00 00       	push   $0xb2ca
    2340:	68 db b2 00 00       	push   $0xb2db
    2345:	e8 96 ae 00 00       	call   d1e0 <assert_abort@plt>
    234a:	53                   	push   %ebx
    234b:	68 aa 01 00 00       	push   $0x1aa
    2350:	68 ca b2 00 00       	push   $0xb2ca
    2355:	68 f3 b2 00 00       	push   $0xb2f3
    235a:	e8 81 ae 00 00       	call   d1e0 <assert_abort@plt>
    235f:	90                   	nop

00002360 <driver_connection_driver>:
    2360:	55                   	push   %ebp
    2361:	89 e5                	mov    %esp,%ebp
    2363:	8b 55 0c             	mov    0xc(%ebp),%edx
    2366:	8b 45 08             	mov    0x8(%ebp),%eax
    2369:	5d                   	pop    %ebp
    236a:	e9 11 fd ff ff       	jmp    2080 <driver_connection_gen.constprop.7>
    236f:	90                   	nop

00002370 <driver_connection_client>:
    2370:	55                   	push   %ebp
    2371:	89 e5                	mov    %esp,%ebp
    2373:	8b 55 0c             	mov    0xc(%ebp),%edx
    2376:	8b 45 08             	mov    0x8(%ebp),%eax
    2379:	5d                   	pop    %ebp
    237a:	e9 01 fd ff ff       	jmp    2080 <driver_connection_gen.constprop.7>
    237f:	90                   	nop

00002380 <driver_connection_devman>:
    2380:	55                   	push   %ebp
    2381:	89 e5                	mov    %esp,%ebp
    2383:	57                   	push   %edi
    2384:	56                   	push   %esi
    2385:	53                   	push   %ebx
    2386:	83 ec 54             	sub    $0x54,%esp
    2389:	8d 75 c4             	lea    -0x3c(%ebp),%esi
    238c:	8b 45 08             	mov    0x8(%ebp),%eax
    238f:	6a 00                	push   $0x0
    2391:	50                   	push   %eax
    2392:	e8 c9 ad 00 00       	call   d160 <async_answer_0@plt>
    2397:	83 c4 10             	add    $0x10,%esp
    239a:	8d b6 00 00 00 00    	lea    0x0(%esi),%esi
    23a0:	50                   	push   %eax
    23a1:	50                   	push   %eax
    23a2:	6a 00                	push   $0x0
    23a4:	56                   	push   %esi
    23a5:	e8 26 b0 00 00       	call   d3d0 <async_get_call_timeout@plt>
    23aa:	83 c4 10             	add    $0x10,%esp
    23ad:	89 c3                	mov    %eax,%ebx
    23af:	8b 45 c4             	mov    -0x3c(%ebp),%eax
    23b2:	85 c0                	test   %eax,%eax
    23b4:	0f 84 de 03 00 00    	je     2798 <driver_connection_devman+0x418>
    23ba:	2d 00 04 00 00       	sub    $0x400,%eax
    23bf:	83 f8 04             	cmp    $0x4,%eax
    23c2:	0f 87 b8 03 00 00    	ja     2780 <driver_connection_devman+0x400>
    23c8:	8b 7d c8             	mov    -0x38(%ebp),%edi
    23cb:	ff 24 85 d0 b5 00 00 	jmp    *0xb5d0(,%eax,4)
    23d2:	8d b6 00 00 00 00    	lea    0x0(%esi),%esi
    23d8:	83 ec 0c             	sub    $0xc,%esp
    23db:	68 74 f4 00 00       	push   $0xf474
    23e0:	e8 4b b1 00 00       	call   d530 <fibril_mutex_lock@plt>
    23e5:	c7 04 24 74 f4 00 00 	movl   $0xf474,(%esp)
    23ec:	e8 cf ac 00 00       	call   d0c0 <fibril_mutex_is_locked@plt>
    23f1:	83 c4 10             	add    $0x10,%esp
    23f4:	84 c0                	test   %al,%al
    23f6:	0f 84 5a 04 00 00    	je     2856 <driver_connection_devman+0x4d6>
    23fc:	a1 88 f4 00 00       	mov    0xf488,%eax
    2401:	3d 84 f4 00 00       	cmp    $0xf484,%eax
    2406:	8d 50 d4             	lea    -0x2c(%eax),%edx
    2409:	75 16                	jne    2421 <driver_connection_devman+0xa1>
    240b:	e9 90 03 00 00       	jmp    27a0 <driver_connection_devman+0x420>
    2410:	8b 40 04             	mov    0x4(%eax),%eax
    2413:	3d 84 f4 00 00       	cmp    $0xf484,%eax
    2418:	8d 50 d4             	lea    -0x2c(%eax),%edx
    241b:	0f 84 7f 03 00 00    	je     27a0 <driver_connection_devman+0x420>
    2421:	3b 7a 04             	cmp    0x4(%edx),%edi
    2424:	75 ea                	jne    2410 <driver_connection_devman+0x90>
    2426:	8b 42 0c             	mov    0xc(%edx),%eax
    2429:	f0 ff 40 04          	lock incl 0x4(%eax)
    242d:	f0 ff 42 08          	lock incl 0x8(%edx)
    2431:	83 ec 0c             	sub    $0xc,%esp
    2434:	89 55 b4             	mov    %edx,-0x4c(%ebp)
    2437:	68 74 f4 00 00       	push   $0xf474
    243c:	e8 3f ae 00 00       	call   d280 <fibril_mutex_unlock@plt>
    2441:	a1 88 f6 00 00       	mov    0xf688,%eax
    2446:	83 c4 10             	add    $0x10,%esp
    2449:	8b 55 b4             	mov    -0x4c(%ebp),%edx
    244c:	8b 40 04             	mov    0x4(%eax),%eax
    244f:	8b 40 0c             	mov    0xc(%eax),%eax
    2452:	85 c0                	test   %eax,%eax
    2454:	0f 84 76 03 00 00    	je     27d0 <driver_connection_devman+0x450>
    245a:	83 ec 0c             	sub    $0xc,%esp
    245d:	52                   	push   %edx
    245e:	ff d0                	call   *%eax
    2460:	83 c4 10             	add    $0x10,%esp
    2463:	89 c7                	mov    %eax,%edi
    2465:	8b 55 b4             	mov    -0x4c(%ebp),%edx
    2468:	89 d0                	mov    %edx,%eax
    246a:	e8 01 fb ff ff       	call   1f70 <fun_del_ref>
    246f:	51                   	push   %ecx
    2470:	51                   	push   %ecx
    2471:	57                   	push   %edi
    2472:	53                   	push   %ebx
    2473:	e8 e8 ac 00 00       	call   d160 <async_answer_0@plt>
    2478:	83 c4 10             	add    $0x10,%esp
    247b:	e9 20 ff ff ff       	jmp    23a0 <driver_connection_devman+0x20>
    2480:	83 ec 0c             	sub    $0xc,%esp
    2483:	68 8c f4 00 00       	push   $0xf48c
    2488:	e8 a3 b0 00 00       	call   d530 <fibril_mutex_lock@plt>
    248d:	c7 04 24 8c f4 00 00 	movl   $0xf48c,(%esp)
    2494:	e8 27 ac 00 00       	call   d0c0 <fibril_mutex_is_locked@plt>
    2499:	83 c4 10             	add    $0x10,%esp
    249c:	84 c0                	test   %al,%al
    249e:	0f 84 a0 03 00 00    	je     2844 <driver_connection_devman+0x4c4>
    24a4:	a1 a0 f4 00 00       	mov    0xf4a0,%eax
    24a9:	3d 9c f4 00 00       	cmp    $0xf49c,%eax
    24ae:	8d 50 ec             	lea    -0x14(%eax),%edx
    24b1:	75 16                	jne    24c9 <driver_connection_devman+0x149>
    24b3:	e9 08 03 00 00       	jmp    27c0 <driver_connection_devman+0x440>
    24b8:	8b 40 04             	mov    0x4(%eax),%eax
    24bb:	3d 9c f4 00 00       	cmp    $0xf49c,%eax
    24c0:	8d 50 ec             	lea    -0x14(%eax),%edx
    24c3:	0f 84 f7 02 00 00    	je     27c0 <driver_connection_devman+0x440>
    24c9:	3b 78 ec             	cmp    -0x14(%eax),%edi
    24cc:	75 ea                	jne    24b8 <driver_connection_devman+0x138>
    24ce:	8d 7a 04             	lea    0x4(%edx),%edi
    24d1:	f0 ff 42 04          	lock incl 0x4(%edx)
    24d5:	83 ec 0c             	sub    $0xc,%esp
    24d8:	89 55 b4             	mov    %edx,-0x4c(%ebp)
    24db:	68 8c f4 00 00       	push   $0xf48c
    24e0:	e8 9b ad 00 00       	call   d280 <fibril_mutex_unlock@plt>
    24e5:	a1 88 f6 00 00       	mov    0xf688,%eax
    24ea:	83 c4 10             	add    $0x10,%esp
    24ed:	8b 40 04             	mov    0x4(%eax),%eax
    24f0:	8b 40 08             	mov    0x8(%eax),%eax
    24f3:	85 c0                	test   %eax,%eax
    24f5:	0f 85 88 00 00 00    	jne    2583 <driver_connection_devman+0x203>
    24fb:	b8 f5 ff ff ff       	mov    $0xfffffff5,%eax
    2500:	e9 63 02 00 00       	jmp    2768 <driver_connection_devman+0x3e8>
    2505:	8d 76 00             	lea    0x0(%esi),%esi
    2508:	83 ec 0c             	sub    $0xc,%esp
    250b:	68 8c f4 00 00       	push   $0xf48c
    2510:	e8 1b b0 00 00       	call   d530 <fibril_mutex_lock@plt>
    2515:	c7 04 24 8c f4 00 00 	movl   $0xf48c,(%esp)
    251c:	e8 9f ab 00 00       	call   d0c0 <fibril_mutex_is_locked@plt>
    2521:	83 c4 10             	add    $0x10,%esp
    2524:	84 c0                	test   %al,%al
    2526:	0f 84 18 03 00 00    	je     2844 <driver_connection_devman+0x4c4>
    252c:	a1 a0 f4 00 00       	mov    0xf4a0,%eax
    2531:	3d 9c f4 00 00       	cmp    $0xf49c,%eax
    2536:	8d 50 ec             	lea    -0x14(%eax),%edx
    2539:	75 16                	jne    2551 <driver_connection_devman+0x1d1>
    253b:	e9 80 02 00 00       	jmp    27c0 <driver_connection_devman+0x440>
    2540:	8b 40 04             	mov    0x4(%eax),%eax
    2543:	3d 9c f4 00 00       	cmp    $0xf49c,%eax
    2548:	8d 50 ec             	lea    -0x14(%eax),%edx
    254b:	0f 84 6f 02 00 00    	je     27c0 <driver_connection_devman+0x440>
    2551:	3b 78 ec             	cmp    -0x14(%eax),%edi
    2554:	75 ea                	jne    2540 <driver_connection_devman+0x1c0>
    2556:	8d 7a 04             	lea    0x4(%edx),%edi
    2559:	f0 ff 42 04          	lock incl 0x4(%edx)
    255d:	83 ec 0c             	sub    $0xc,%esp
    2560:	89 55 b4             	mov    %edx,-0x4c(%ebp)
    2563:	68 8c f4 00 00       	push   $0xf48c
    2568:	e8 13 ad 00 00       	call   d280 <fibril_mutex_unlock@plt>
    256d:	a1 88 f6 00 00       	mov    0xf688,%eax
    2572:	83 c4 10             	add    $0x10,%esp
    2575:	8b 40 04             	mov    0x4(%eax),%eax
    2578:	8b 40 04             	mov    0x4(%eax),%eax
    257b:	85 c0                	test   %eax,%eax
    257d:	0f 84 78 ff ff ff    	je     24fb <driver_connection_devman+0x17b>
    2583:	83 ec 0c             	sub    $0xc,%esp
    2586:	8b 55 b4             	mov    -0x4c(%ebp),%edx
    2589:	52                   	push   %edx
    258a:	ff d0                	call   *%eax
    258c:	83 c4 10             	add    $0x10,%esp
    258f:	8b 55 b4             	mov    -0x4c(%ebp),%edx
    2592:	85 c0                	test   %eax,%eax
    2594:	0f 85 ce 01 00 00    	jne    2768 <driver_connection_devman+0x3e8>
    259a:	83 c9 ff             	or     $0xffffffff,%ecx
    259d:	f0 0f c1 0f          	lock xadd %ecx,(%edi)
    25a1:	49                   	dec    %ecx
    25a2:	0f 85 c0 01 00 00    	jne    2768 <driver_connection_devman+0x3e8>
    25a8:	8b 42 08             	mov    0x8(%edx),%eax
    25ab:	85 c0                	test   %eax,%eax
    25ad:	74 0f                	je     25be <driver_connection_devman+0x23e>
    25af:	83 ec 0c             	sub    $0xc,%esp
    25b2:	50                   	push   %eax
    25b3:	e8 a8 aa 00 00       	call   d060 <async_hangup@plt>
    25b8:	83 c4 10             	add    $0x10,%esp
    25bb:	8b 55 b4             	mov    -0x4c(%ebp),%edx
    25be:	8b 42 10             	mov    0x10(%edx),%eax
    25c1:	85 c0                	test   %eax,%eax
    25c3:	74 12                	je     25d7 <driver_connection_devman+0x257>
    25c5:	83 ec 0c             	sub    $0xc,%esp
    25c8:	89 55 b4             	mov    %edx,-0x4c(%ebp)
    25cb:	50                   	push   %eax
    25cc:	e8 3f af 00 00       	call   d510 <free@plt>
    25d1:	83 c4 10             	add    $0x10,%esp
    25d4:	8b 55 b4             	mov    -0x4c(%ebp),%edx
    25d7:	8b 42 0c             	mov    0xc(%edx),%eax
    25da:	85 c0                	test   %eax,%eax
    25dc:	74 12                	je     25f0 <driver_connection_devman+0x270>
    25de:	83 ec 0c             	sub    $0xc,%esp
    25e1:	89 55 b4             	mov    %edx,-0x4c(%ebp)
    25e4:	50                   	push   %eax
    25e5:	e8 26 af 00 00       	call   d510 <free@plt>
    25ea:	83 c4 10             	add    $0x10,%esp
    25ed:	8b 55 b4             	mov    -0x4c(%ebp),%edx
    25f0:	83 ec 0c             	sub    $0xc,%esp
    25f3:	52                   	push   %edx
    25f4:	e8 17 af 00 00       	call   d510 <free@plt>
    25f9:	83 c4 10             	add    $0x10,%esp
    25fc:	31 c0                	xor    %eax,%eax
    25fe:	e9 65 01 00 00       	jmp    2768 <driver_connection_devman+0x3e8>
    2603:	90                   	nop
    2604:	8d 74 26 00          	lea    0x0(%esi,%eiz,1),%esi
    2608:	50                   	push   %eax
    2609:	50                   	push   %eax
    260a:	8d 45 c0             	lea    -0x40(%ebp),%eax
    260d:	6a 00                	push   $0x0
    260f:	c7 45 c0 00 00 00 00 	movl   $0x0,-0x40(%ebp)
    2616:	6a 00                	push   $0x0
    2618:	6a 00                	push   $0x0
    261a:	6a 00                	push   $0x0
    261c:	6a 01                	push   $0x1
    261e:	50                   	push   %eax
    261f:	e8 6c ae 00 00       	call   d490 <async_data_write_accept@plt>
    2624:	83 c4 20             	add    $0x20,%esp
    2627:	85 c0                	test   %eax,%eax
    2629:	0f 85 39 01 00 00    	jne    2768 <driver_connection_devman+0x3e8>
    262f:	50                   	push   %eax
    2630:	50                   	push   %eax
    2631:	6a 1c                	push   $0x1c
    2633:	6a 01                	push   $0x1
    2635:	e8 c6 ab 00 00       	call   d200 <calloc@plt>
    263a:	83 c4 10             	add    $0x10,%esp
    263d:	89 c2                	mov    %eax,%edx
    263f:	85 c0                	test   %eax,%eax
    2641:	0f 84 df 01 00 00    	je     2826 <driver_connection_devman+0x4a6>
    2647:	f0 ff 40 04          	lock incl 0x4(%eax)
    264b:	89 38                	mov    %edi,(%eax)
    264d:	8b 45 c0             	mov    -0x40(%ebp),%eax
    2650:	89 42 0c             	mov    %eax,0xc(%edx)
    2653:	a1 88 f6 00 00       	mov    0xf688,%eax
    2658:	83 ec 0c             	sub    $0xc,%esp
    265b:	89 55 b4             	mov    %edx,-0x4c(%ebp)
    265e:	8b 40 04             	mov    0x4(%eax),%eax
    2661:	52                   	push   %edx
    2662:	ff 10                	call   *(%eax)
    2664:	83 c4 10             	add    $0x10,%esp
    2667:	89 c7                	mov    %eax,%edi
    2669:	85 c0                	test   %eax,%eax
    266b:	8b 55 b4             	mov    -0x4c(%ebp),%edx
    266e:	0f 84 66 01 00 00    	je     27da <driver_connection_devman+0x45a>
    2674:	83 c8 ff             	or     $0xffffffff,%eax
    2677:	f0 0f c1 42 04       	lock xadd %eax,0x4(%edx)
    267c:	48                   	dec    %eax
    267d:	0f 85 ec fd ff ff    	jne    246f <driver_connection_devman+0xef>
    2683:	8b 42 08             	mov    0x8(%edx),%eax
    2686:	85 c0                	test   %eax,%eax
    2688:	74 12                	je     269c <driver_connection_devman+0x31c>
    268a:	83 ec 0c             	sub    $0xc,%esp
    268d:	89 55 b4             	mov    %edx,-0x4c(%ebp)
    2690:	50                   	push   %eax
    2691:	e8 ca a9 00 00       	call   d060 <async_hangup@plt>
    2696:	83 c4 10             	add    $0x10,%esp
    2699:	8b 55 b4             	mov    -0x4c(%ebp),%edx
    269c:	8b 42 10             	mov    0x10(%edx),%eax
    269f:	85 c0                	test   %eax,%eax
    26a1:	74 12                	je     26b5 <driver_connection_devman+0x335>
    26a3:	83 ec 0c             	sub    $0xc,%esp
    26a6:	89 55 b4             	mov    %edx,-0x4c(%ebp)
    26a9:	50                   	push   %eax
    26aa:	e8 61 ae 00 00       	call   d510 <free@plt>
    26af:	83 c4 10             	add    $0x10,%esp
    26b2:	8b 55 b4             	mov    -0x4c(%ebp),%edx
    26b5:	8b 42 0c             	mov    0xc(%edx),%eax
    26b8:	85 c0                	test   %eax,%eax
    26ba:	74 12                	je     26ce <driver_connection_devman+0x34e>
    26bc:	83 ec 0c             	sub    $0xc,%esp
    26bf:	89 55 b4             	mov    %edx,-0x4c(%ebp)
    26c2:	50                   	push   %eax
    26c3:	e8 48 ae 00 00       	call   d510 <free@plt>
    26c8:	83 c4 10             	add    $0x10,%esp
    26cb:	8b 55 b4             	mov    -0x4c(%ebp),%edx
    26ce:	83 ec 0c             	sub    $0xc,%esp
    26d1:	52                   	push   %edx
    26d2:	e8 39 ae 00 00       	call   d510 <free@plt>
    26d7:	83 c4 10             	add    $0x10,%esp
    26da:	e9 90 fd ff ff       	jmp    246f <driver_connection_devman+0xef>
    26df:	90                   	nop
    26e0:	83 ec 0c             	sub    $0xc,%esp
    26e3:	68 74 f4 00 00       	push   $0xf474
    26e8:	e8 43 ae 00 00       	call   d530 <fibril_mutex_lock@plt>
    26ed:	c7 04 24 74 f4 00 00 	movl   $0xf474,(%esp)
    26f4:	e8 c7 a9 00 00       	call   d0c0 <fibril_mutex_is_locked@plt>
    26f9:	83 c4 10             	add    $0x10,%esp
    26fc:	84 c0                	test   %al,%al
    26fe:	0f 84 52 01 00 00    	je     2856 <driver_connection_devman+0x4d6>
    2704:	a1 88 f4 00 00       	mov    0xf488,%eax
    2709:	3d 84 f4 00 00       	cmp    $0xf484,%eax
    270e:	8d 50 d4             	lea    -0x2c(%eax),%edx
    2711:	75 12                	jne    2725 <driver_connection_devman+0x3a5>
    2713:	e9 88 00 00 00       	jmp    27a0 <driver_connection_devman+0x420>
    2718:	8b 40 04             	mov    0x4(%eax),%eax
    271b:	3d 84 f4 00 00       	cmp    $0xf484,%eax
    2720:	8d 50 d4             	lea    -0x2c(%eax),%edx
    2723:	74 7b                	je     27a0 <driver_connection_devman+0x420>
    2725:	3b 7a 04             	cmp    0x4(%edx),%edi
    2728:	75 ee                	jne    2718 <driver_connection_devman+0x398>
    272a:	8b 42 0c             	mov    0xc(%edx),%eax
    272d:	f0 ff 40 04          	lock incl 0x4(%eax)
    2731:	f0 ff 42 08          	lock incl 0x8(%edx)
    2735:	83 ec 0c             	sub    $0xc,%esp
    2738:	89 55 b4             	mov    %edx,-0x4c(%ebp)
    273b:	68 74 f4 00 00       	push   $0xf474
    2740:	e8 3b ab 00 00       	call   d280 <fibril_mutex_unlock@plt>
    2745:	a1 88 f6 00 00       	mov    0xf688,%eax
    274a:	83 c4 10             	add    $0x10,%esp
    274d:	8b 40 04             	mov    0x4(%eax),%eax
    2750:	8b 40 10             	mov    0x10(%eax),%eax
    2753:	85 c0                	test   %eax,%eax
    2755:	0f 84 a0 fd ff ff    	je     24fb <driver_connection_devman+0x17b>
    275b:	83 ec 0c             	sub    $0xc,%esp
    275e:	8b 55 b4             	mov    -0x4c(%ebp),%edx
    2761:	52                   	push   %edx
    2762:	ff d0                	call   *%eax
    2764:	83 c4 10             	add    $0x10,%esp
    2767:	90                   	nop
    2768:	52                   	push   %edx
    2769:	52                   	push   %edx
    276a:	50                   	push   %eax
    276b:	53                   	push   %ebx
    276c:	e8 ef a9 00 00       	call   d160 <async_answer_0@plt>
    2771:	83 c4 10             	add    $0x10,%esp
    2774:	e9 27 fc ff ff       	jmp    23a0 <driver_connection_devman+0x20>
    2779:	8d b4 26 00 00 00 00 	lea    0x0(%esi,%eiz,1),%esi
    2780:	50                   	push   %eax
    2781:	50                   	push   %eax
    2782:	6a f5                	push   $0xfffffff5
    2784:	53                   	push   %ebx
    2785:	e8 d6 a9 00 00       	call   d160 <async_answer_0@plt>
    278a:	83 c4 10             	add    $0x10,%esp
    278d:	e9 0e fc ff ff       	jmp    23a0 <driver_connection_devman+0x20>
    2792:	8d b6 00 00 00 00    	lea    0x0(%esi),%esi
    2798:	8d 65 f4             	lea    -0xc(%ebp),%esp
    279b:	5b                   	pop    %ebx
    279c:	5e                   	pop    %esi
    279d:	5f                   	pop    %edi
    279e:	5d                   	pop    %ebp
    279f:	c3                   	ret    
    27a0:	83 ec 0c             	sub    $0xc,%esp
    27a3:	68 74 f4 00 00       	push   $0xf474
    27a8:	e8 d3 aa 00 00       	call   d280 <fibril_mutex_unlock@plt>
    27ad:	58                   	pop    %eax
    27ae:	5a                   	pop    %edx
    27af:	6a ff                	push   $0xffffffff
    27b1:	53                   	push   %ebx
    27b2:	e8 a9 a9 00 00       	call   d160 <async_answer_0@plt>
    27b7:	83 c4 10             	add    $0x10,%esp
    27ba:	e9 e1 fb ff ff       	jmp    23a0 <driver_connection_devman+0x20>
    27bf:	90                   	nop
    27c0:	83 ec 0c             	sub    $0xc,%esp
    27c3:	68 8c f4 00 00       	push   $0xf48c
    27c8:	eb de                	jmp    27a8 <driver_connection_devman+0x428>
    27ca:	8d b6 00 00 00 00    	lea    0x0(%esi),%esi
    27d0:	bf f5 ff ff ff       	mov    $0xfffffff5,%edi
    27d5:	e9 8e fc ff ff       	jmp    2468 <driver_connection_devman+0xe8>
    27da:	83 ec 0c             	sub    $0xc,%esp
    27dd:	89 55 b4             	mov    %edx,-0x4c(%ebp)
    27e0:	68 8c f4 00 00       	push   $0xf48c
    27e5:	e8 46 ad 00 00       	call   d530 <fibril_mutex_lock@plt>
    27ea:	8b 55 b4             	mov    -0x4c(%ebp),%edx
    27ed:	8b 0d 9c f4 00 00    	mov    0xf49c,%ecx
    27f3:	8d 42 14             	lea    0x14(%edx),%eax
    27f6:	c7 42 18 9c f4 00 00 	movl   $0xf49c,0x18(%edx)
    27fd:	89 4a 14             	mov    %ecx,0x14(%edx)
    2800:	89 41 04             	mov    %eax,0x4(%ecx)
    2803:	a3 9c f4 00 00       	mov    %eax,0xf49c
    2808:	c7 04 24 8c f4 00 00 	movl   $0xf48c,(%esp)
    280f:	e8 6c aa 00 00       	call   d280 <fibril_mutex_unlock@plt>
    2814:	5f                   	pop    %edi
    2815:	58                   	pop    %eax
    2816:	6a 00                	push   $0x0
    2818:	53                   	push   %ebx
    2819:	e8 42 a9 00 00       	call   d160 <async_answer_0@plt>
    281e:	83 c4 10             	add    $0x10,%esp
    2821:	e9 7a fb ff ff       	jmp    23a0 <driver_connection_devman+0x20>
    2826:	83 ec 0c             	sub    $0xc,%esp
    2829:	8b 4d c0             	mov    -0x40(%ebp),%ecx
    282c:	51                   	push   %ecx
    282d:	e8 de ac 00 00       	call   d510 <free@plt>
    2832:	5f                   	pop    %edi
    2833:	58                   	pop    %eax
    2834:	6a fe                	push   $0xfffffffe
    2836:	53                   	push   %ebx
    2837:	e8 24 a9 00 00       	call   d160 <async_answer_0@plt>
    283c:	83 c4 10             	add    $0x10,%esp
    283f:	e9 5c fb ff ff       	jmp    23a0 <driver_connection_devman+0x20>
    2844:	56                   	push   %esi
    2845:	6a 5f                	push   $0x5f
    2847:	68 ca b2 00 00       	push   $0xb2ca
    284c:	68 6c b5 00 00       	push   $0xb56c
    2851:	e8 8a a9 00 00       	call   d1e0 <assert_abort@plt>
    2856:	53                   	push   %ebx
    2857:	6a 6b                	push   $0x6b
    2859:	68 ca b2 00 00       	push   $0xb2ca
    285e:	68 20 b4 00 00       	push   $0xb420
    2863:	e8 78 a9 00 00       	call   d1e0 <assert_abort@plt>
    2868:	90                   	nop
    2869:	8d b4 26 00 00 00 00 	lea    0x0(%esi,%eiz,1),%esi

00002870 <ddf_dev_data_alloc>:
    2870:	55                   	push   %ebp
    2871:	89 e5                	mov    %esp,%ebp
    2873:	53                   	push   %ebx
    2874:	53                   	push   %ebx
    2875:	8b 5d 08             	mov    0x8(%ebp),%ebx
    2878:	8b 43 10             	mov    0x10(%ebx),%eax
    287b:	85 c0                	test   %eax,%eax
    287d:	75 1c                	jne    289b <ddf_dev_data_alloc+0x2b>
    287f:	8b 55 0c             	mov    0xc(%ebp),%edx
    2882:	50                   	push   %eax
    2883:	50                   	push   %eax
    2884:	52                   	push   %edx
    2885:	6a 01                	push   $0x1
    2887:	e8 74 a9 00 00       	call   d200 <calloc@plt>
    288c:	83 c4 10             	add    $0x10,%esp
    288f:	85 c0                	test   %eax,%eax
    2891:	74 03                	je     2896 <ddf_dev_data_alloc+0x26>
    2893:	89 43 10             	mov    %eax,0x10(%ebx)
    2896:	8b 5d fc             	mov    -0x4(%ebp),%ebx
    2899:	c9                   	leave  
    289a:	c3                   	ret    
    289b:	51                   	push   %ecx
    289c:	68 39 02 00 00       	push   $0x239
    28a1:	68 ca b2 00 00       	push   $0xb2ca
    28a6:	68 05 b3 00 00       	push   $0xb305
    28ab:	e8 30 a9 00 00       	call   d1e0 <assert_abort@plt>

000028b0 <ddf_dev_data_get>:
    28b0:	55                   	push   %ebp
    28b1:	89 e5                	mov    %esp,%ebp
    28b3:	8b 45 08             	mov    0x8(%ebp),%eax
    28b6:	5d                   	pop    %ebp
    28b7:	8b 40 10             	mov    0x10(%eax),%eax
    28ba:	c3                   	ret    
    28bb:	90                   	nop
    28bc:	8d 74 26 00          	lea    0x0(%esi,%eiz,1),%esi

000028c0 <ddf_dev_get_handle>:
    28c0:	55                   	push   %ebp
    28c1:	89 e5                	mov    %esp,%ebp
    28c3:	8b 45 08             	mov    0x8(%ebp),%eax
    28c6:	5d                   	pop    %ebp
    28c7:	8b 00                	mov    (%eax),%eax
    28c9:	c3                   	ret    
    28ca:	8d b6 00 00 00 00    	lea    0x0(%esi),%esi

000028d0 <ddf_dev_get_name>:
    28d0:	55                   	push   %ebp
    28d1:	89 e5                	mov    %esp,%ebp
    28d3:	8b 45 08             	mov    0x8(%ebp),%eax
    28d6:	5d                   	pop    %ebp
    28d7:	8b 40 0c             	mov    0xc(%eax),%eax
    28da:	c3                   	ret    
    28db:	90                   	nop
    28dc:	8d 74 26 00          	lea    0x0(%esi,%eiz,1),%esi

000028e0 <ddf_dev_parent_sess_create>:
    28e0:	55                   	push   %ebp
    28e1:	89 e5                	mov    %esp,%ebp
    28e3:	53                   	push   %ebx
    28e4:	53                   	push   %ebx
    28e5:	8b 5d 08             	mov    0x8(%ebp),%ebx
    28e8:	8b 43 08             	mov    0x8(%ebx),%eax
    28eb:	85 c0                	test   %eax,%eax
    28ed:	75 14                	jne    2903 <ddf_dev_parent_sess_create+0x23>
    28ef:	50                   	push   %eax
    28f0:	50                   	push   %eax
    28f1:	6a 01                	push   $0x1
    28f3:	8b 13                	mov    (%ebx),%edx
    28f5:	52                   	push   %edx
    28f6:	e8 95 a7 00 00       	call   d090 <devman_parent_device_connect@plt>
    28fb:	89 43 08             	mov    %eax,0x8(%ebx)
    28fe:	8b 5d fc             	mov    -0x4(%ebp),%ebx
    2901:	c9                   	leave  
    2902:	c3                   	ret    
    2903:	51                   	push   %ecx
    2904:	68 64 02 00 00       	push   $0x264
    2909:	68 ca b2 00 00       	push   $0xb2ca
    290e:	68 1e b3 00 00       	push   $0xb31e
    2913:	e8 c8 a8 00 00       	call   d1e0 <assert_abort@plt>
    2918:	90                   	nop
    2919:	8d b4 26 00 00 00 00 	lea    0x0(%esi,%eiz,1),%esi

00002920 <ddf_dev_parent_sess_get>:
    2920:	55                   	push   %ebp
    2921:	89 e5                	mov    %esp,%ebp
    2923:	8b 45 08             	mov    0x8(%ebp),%eax
    2926:	5d                   	pop    %ebp
    2927:	8b 40 08             	mov    0x8(%eax),%eax
    292a:	c3                   	ret    
    292b:	90                   	nop
    292c:	8d 74 26 00          	lea    0x0(%esi,%eiz,1),%esi

00002930 <ddf_fun_set_name>:
    2930:	55                   	push   %ebp
    2931:	89 e5                	mov    %esp,%ebp
    2933:	53                   	push   %ebx
    2934:	51                   	push   %ecx
    2935:	8b 5d 08             	mov    0x8(%ebp),%ebx
    2938:	8b 43 14             	mov    0x14(%ebx),%eax
    293b:	85 c0                	test   %eax,%eax
    293d:	75 23                	jne    2962 <ddf_fun_set_name+0x32>
    293f:	83 ec 0c             	sub    $0xc,%esp
    2942:	8b 45 0c             	mov    0xc(%ebp),%eax
    2945:	50                   	push   %eax
    2946:	e8 55 a9 00 00       	call   d2a0 <str_dup@plt>
    294b:	83 c4 10             	add    $0x10,%esp
    294e:	89 43 14             	mov    %eax,0x14(%ebx)
    2951:	85 c0                	test   %eax,%eax
    2953:	8b 5d fc             	mov    -0x4(%ebp),%ebx
    2956:	0f 94 c0             	sete   %al
    2959:	25 ff 00 00 00       	and    $0xff,%eax
    295e:	c9                   	leave  
    295f:	f7 d8                	neg    %eax
    2961:	c3                   	ret    
    2962:	52                   	push   %edx
    2963:	68 7d 02 00 00       	push   $0x27d
    2968:	68 ca b2 00 00       	push   $0xb2ca
    296d:	68 37 b3 00 00       	push   $0xb337
    2972:	e8 69 a8 00 00       	call   d1e0 <assert_abort@plt>
    2977:	89 f6                	mov    %esi,%esi
    2979:	8d bc 27 00 00 00 00 	lea    0x0(%edi,%eiz,1),%edi

00002980 <ddf_fun_get_dev>:
    2980:	55                   	push   %ebp
    2981:	89 e5                	mov    %esp,%ebp
    2983:	8b 45 08             	mov    0x8(%ebp),%eax
    2986:	5d                   	pop    %ebp
    2987:	8b 40 0c             	mov    0xc(%eax),%eax
    298a:	c3                   	ret    
    298b:	90                   	nop
    298c:	8d 74 26 00          	lea    0x0(%esi,%eiz,1),%esi

00002990 <ddf_fun_get_handle>:
    2990:	55                   	push   %ebp
    2991:	89 e5                	mov    %esp,%ebp
    2993:	8b 45 08             	mov    0x8(%ebp),%eax
    2996:	5d                   	pop    %ebp
    2997:	8b 40 04             	mov    0x4(%eax),%eax
    299a:	c3                   	ret    
    299b:	90                   	nop
    299c:	8d 74 26 00          	lea    0x0(%esi,%eiz,1),%esi

000029a0 <ddf_fun_create>:
    29a0:	55                   	push   %ebp
    29a1:	89 e5                	mov    %esp,%ebp
    29a3:	57                   	push   %edi
    29a4:	56                   	push   %esi
    29a5:	53                   	push   %ebx
    29a6:	83 ec 14             	sub    $0x14,%esp
    29a9:	8b 75 08             	mov    0x8(%ebp),%esi
    29ac:	6a 34                	push   $0x34
    29ae:	6a 01                	push   $0x1
    29b0:	e8 4b a8 00 00       	call   d200 <calloc@plt>
    29b5:	83 c4 10             	add    $0x10,%esp
    29b8:	89 c3                	mov    %eax,%ebx
    29ba:	85 c0                	test   %eax,%eax
    29bc:	74 48                	je     2a06 <ddf_fun_create+0x66>
    29be:	8d 78 18             	lea    0x18(%eax),%edi
    29c1:	c7 40 2c 00 00 00 00 	movl   $0x0,0x2c(%eax)
    29c8:	89 78 18             	mov    %edi,0x18(%eax)
    29cb:	89 78 1c             	mov    %edi,0x1c(%eax)
    29ce:	c7 40 30 00 00 00 00 	movl   $0x0,0x30(%eax)
    29d5:	89 70 0c             	mov    %esi,0xc(%eax)
    29d8:	f0 ff 46 04          	lock incl 0x4(%esi)
    29dc:	f0 ff 40 08          	lock incl 0x8(%eax)
    29e0:	c6 00 00             	movb   $0x0,(%eax)
    29e3:	8b 55 10             	mov    0x10(%ebp),%edx
    29e6:	8b 45 0c             	mov    0xc(%ebp),%eax
    29e9:	85 d2                	test   %edx,%edx
    29eb:	89 43 10             	mov    %eax,0x10(%ebx)
    29ee:	74 16                	je     2a06 <ddf_fun_create+0x66>
    29f0:	83 ec 0c             	sub    $0xc,%esp
    29f3:	8b 45 10             	mov    0x10(%ebp),%eax
    29f6:	50                   	push   %eax
    29f7:	e8 a4 a8 00 00       	call   d2a0 <str_dup@plt>
    29fc:	83 c4 10             	add    $0x10,%esp
    29ff:	89 43 14             	mov    %eax,0x14(%ebx)
    2a02:	85 c0                	test   %eax,%eax
    2a04:	74 0a                	je     2a10 <ddf_fun_create+0x70>
    2a06:	8d 65 f4             	lea    -0xc(%ebp),%esp
    2a09:	89 d8                	mov    %ebx,%eax
    2a0b:	5b                   	pop    %ebx
    2a0c:	5e                   	pop    %esi
    2a0d:	5f                   	pop    %edi
    2a0e:	5d                   	pop    %ebp
    2a0f:	c3                   	ret    
    2a10:	8b 73 1c             	mov    0x1c(%ebx),%esi
    2a13:	39 f7                	cmp    %esi,%edi
    2a15:	0f 84 85 00 00 00    	je     2aa0 <ddf_fun_create+0x100>
    2a1b:	90                   	nop
    2a1c:	8d 74 26 00          	lea    0x0(%esi,%eiz,1),%esi
    2a20:	8b 0e                	mov    (%esi),%ecx
    2a22:	85 c9                	test   %ecx,%ecx
    2a24:	74 0e                	je     2a34 <ddf_fun_create+0x94>
    2a26:	8b 46 04             	mov    0x4(%esi),%eax
    2a29:	85 c0                	test   %eax,%eax
    2a2b:	74 07                	je     2a34 <ddf_fun_create+0x94>
    2a2d:	89 08                	mov    %ecx,(%eax)
    2a2f:	8b 0e                	mov    (%esi),%ecx
    2a31:	89 41 04             	mov    %eax,0x4(%ecx)
    2a34:	8b 46 08             	mov    0x8(%esi),%eax
    2a37:	c7 06 00 00 00 00    	movl   $0x0,(%esi)
    2a3d:	c7 46 04 00 00 00 00 	movl   $0x0,0x4(%esi)
    2a44:	85 c0                	test   %eax,%eax
    2a46:	74 0c                	je     2a54 <ddf_fun_create+0xb4>
    2a48:	83 ec 0c             	sub    $0xc,%esp
    2a4b:	50                   	push   %eax
    2a4c:	e8 bf aa 00 00       	call   d510 <free@plt>
    2a51:	83 c4 10             	add    $0x10,%esp
    2a54:	83 ec 0c             	sub    $0xc,%esp
    2a57:	56                   	push   %esi
    2a58:	e8 b3 aa 00 00       	call   d510 <free@plt>
    2a5d:	8b 73 1c             	mov    0x1c(%ebx),%esi
    2a60:	83 c4 10             	add    $0x10,%esp
    2a63:	39 f7                	cmp    %esi,%edi
    2a65:	75 b9                	jne    2a20 <ddf_fun_create+0x80>
    2a67:	8b 43 20             	mov    0x20(%ebx),%eax
    2a6a:	85 c0                	test   %eax,%eax
    2a6c:	74 0c                	je     2a7a <ddf_fun_create+0xda>
    2a6e:	83 ec 0c             	sub    $0xc,%esp
    2a71:	50                   	push   %eax
    2a72:	e8 99 aa 00 00       	call   d510 <free@plt>
    2a77:	83 c4 10             	add    $0x10,%esp
    2a7a:	8b 43 14             	mov    0x14(%ebx),%eax
    2a7d:	85 c0                	test   %eax,%eax
    2a7f:	74 0c                	je     2a8d <ddf_fun_create+0xed>
    2a81:	83 ec 0c             	sub    $0xc,%esp
    2a84:	50                   	push   %eax
    2a85:	e8 86 aa 00 00       	call   d510 <free@plt>
    2a8a:	83 c4 10             	add    $0x10,%esp
    2a8d:	83 ec 0c             	sub    $0xc,%esp
    2a90:	53                   	push   %ebx
    2a91:	31 db                	xor    %ebx,%ebx
    2a93:	e8 78 aa 00 00       	call   d510 <free@plt>
    2a98:	83 c4 10             	add    $0x10,%esp
    2a9b:	e9 66 ff ff ff       	jmp    2a06 <ddf_fun_create+0x66>
    2aa0:	8b 43 20             	mov    0x20(%ebx),%eax
    2aa3:	85 c0                	test   %eax,%eax
    2aa5:	75 c7                	jne    2a6e <ddf_fun_create+0xce>
    2aa7:	eb e4                	jmp    2a8d <ddf_fun_create+0xed>
    2aa9:	8d b4 26 00 00 00 00 	lea    0x0(%esi,%eiz,1),%esi

00002ab0 <ddf_fun_data_alloc>:
    2ab0:	55                   	push   %ebp
    2ab1:	89 e5                	mov    %esp,%ebp
    2ab3:	53                   	push   %ebx
    2ab4:	50                   	push   %eax
    2ab5:	8b 5d 08             	mov    0x8(%ebp),%ebx
    2ab8:	80 3b 00             	cmpb   $0x0,(%ebx)
    2abb:	75 23                	jne    2ae0 <ddf_fun_data_alloc+0x30>
    2abd:	8b 43 20             	mov    0x20(%ebx),%eax
    2ac0:	85 c0                	test   %eax,%eax
    2ac2:	75 31                	jne    2af5 <ddf_fun_data_alloc+0x45>
    2ac4:	8b 55 0c             	mov    0xc(%ebp),%edx
    2ac7:	50                   	push   %eax
    2ac8:	50                   	push   %eax
    2ac9:	52                   	push   %edx
    2aca:	6a 01                	push   $0x1
    2acc:	e8 2f a7 00 00       	call   d200 <calloc@plt>
    2ad1:	83 c4 10             	add    $0x10,%esp
    2ad4:	85 c0                	test   %eax,%eax
    2ad6:	74 03                	je     2adb <ddf_fun_data_alloc+0x2b>
    2ad8:	89 43 20             	mov    %eax,0x20(%ebx)
    2adb:	8b 5d fc             	mov    -0x4(%ebp),%ebx
    2ade:	c9                   	leave  
    2adf:	c3                   	ret    
    2ae0:	50                   	push   %eax
    2ae1:	68 c9 02 00 00       	push   $0x2c9
    2ae6:	68 ca b2 00 00       	push   $0xb2ca
    2aeb:	68 49 b3 00 00       	push   $0xb349
    2af0:	e8 eb a6 00 00       	call   d1e0 <assert_abort@plt>
    2af5:	51                   	push   %ecx
    2af6:	68 ca 02 00 00       	push   $0x2ca
    2afb:	68 ca b2 00 00       	push   $0xb2ca
    2b00:	68 5d b3 00 00       	push   $0xb35d
    2b05:	e8 d6 a6 00 00       	call   d1e0 <assert_abort@plt>
    2b0a:	8d b6 00 00 00 00    	lea    0x0(%esi),%esi

00002b10 <ddf_fun_data_get>:
    2b10:	55                   	push   %ebp
    2b11:	89 e5                	mov    %esp,%ebp
    2b13:	8b 45 08             	mov    0x8(%ebp),%eax
    2b16:	5d                   	pop    %ebp
    2b17:	8b 40 20             	mov    0x20(%eax),%eax
    2b1a:	c3                   	ret    
    2b1b:	90                   	nop
    2b1c:	8d 74 26 00          	lea    0x0(%esi,%eiz,1),%esi

00002b20 <ddf_fun_get_name>:
    2b20:	55                   	push   %ebp
    2b21:	89 e5                	mov    %esp,%ebp
    2b23:	8b 45 08             	mov    0x8(%ebp),%eax
    2b26:	5d                   	pop    %ebp
    2b27:	8b 40 14             	mov    0x14(%eax),%eax
    2b2a:	c3                   	ret    
    2b2b:	90                   	nop
    2b2c:	8d 74 26 00          	lea    0x0(%esi,%eiz,1),%esi

00002b30 <ddf_fun_destroy>:
    2b30:	55                   	push   %ebp
    2b31:	89 e5                	mov    %esp,%ebp
    2b33:	57                   	push   %edi
    2b34:	56                   	push   %esi
    2b35:	53                   	push   %ebx
    2b36:	83 ec 1c             	sub    $0x1c,%esp
    2b39:	8b 7d 08             	mov    0x8(%ebp),%edi
    2b3c:	80 3f 00             	cmpb   $0x0,(%edi)
    2b3f:	0f 85 fa 00 00 00    	jne    2c3f <ddf_fun_destroy+0x10f>
    2b45:	8b 77 0c             	mov    0xc(%edi),%esi
    2b48:	83 ca ff             	or     $0xffffffff,%edx
    2b4b:	f0 0f c1 57 08       	lock xadd %edx,0x8(%edi)
    2b50:	4a                   	dec    %edx
    2b51:	74 5d                	je     2bb0 <ddf_fun_destroy+0x80>
    2b53:	83 c8 ff             	or     $0xffffffff,%eax
    2b56:	f0 0f c1 46 04       	lock xadd %eax,0x4(%esi)
    2b5b:	48                   	dec    %eax
    2b5c:	74 0a                	je     2b68 <ddf_fun_destroy+0x38>
    2b5e:	8d 65 f4             	lea    -0xc(%ebp),%esp
    2b61:	5b                   	pop    %ebx
    2b62:	5e                   	pop    %esi
    2b63:	5f                   	pop    %edi
    2b64:	5d                   	pop    %ebp
    2b65:	c3                   	ret    
    2b66:	66 90                	xchg   %ax,%ax
    2b68:	8b 46 08             	mov    0x8(%esi),%eax
    2b6b:	85 c0                	test   %eax,%eax
    2b6d:	74 0c                	je     2b7b <ddf_fun_destroy+0x4b>
    2b6f:	83 ec 0c             	sub    $0xc,%esp
    2b72:	50                   	push   %eax
    2b73:	e8 e8 a4 00 00       	call   d060 <async_hangup@plt>
    2b78:	83 c4 10             	add    $0x10,%esp
    2b7b:	8b 46 10             	mov    0x10(%esi),%eax
    2b7e:	85 c0                	test   %eax,%eax
    2b80:	74 0c                	je     2b8e <ddf_fun_destroy+0x5e>
    2b82:	83 ec 0c             	sub    $0xc,%esp
    2b85:	50                   	push   %eax
    2b86:	e8 85 a9 00 00       	call   d510 <free@plt>
    2b8b:	83 c4 10             	add    $0x10,%esp
    2b8e:	8b 46 0c             	mov    0xc(%esi),%eax
    2b91:	85 c0                	test   %eax,%eax
    2b93:	74 0c                	je     2ba1 <ddf_fun_destroy+0x71>
    2b95:	83 ec 0c             	sub    $0xc,%esp
    2b98:	50                   	push   %eax
    2b99:	e8 72 a9 00 00       	call   d510 <free@plt>
    2b9e:	83 c4 10             	add    $0x10,%esp
    2ba1:	89 75 08             	mov    %esi,0x8(%ebp)
    2ba4:	8d 65 f4             	lea    -0xc(%ebp),%esp
    2ba7:	5b                   	pop    %ebx
    2ba8:	5e                   	pop    %esi
    2ba9:	5f                   	pop    %edi
    2baa:	5d                   	pop    %ebp
    2bab:	e9 60 a9 00 00       	jmp    d510 <free@plt>
    2bb0:	8d 47 18             	lea    0x18(%edi),%eax
    2bb3:	8b 5f 1c             	mov    0x1c(%edi),%ebx
    2bb6:	89 45 e4             	mov    %eax,-0x1c(%ebp)
    2bb9:	39 d8                	cmp    %ebx,%eax
    2bbb:	74 4b                	je     2c08 <ddf_fun_destroy+0xd8>
    2bbd:	8d 76 00             	lea    0x0(%esi),%esi
    2bc0:	8b 0b                	mov    (%ebx),%ecx
    2bc2:	85 c9                	test   %ecx,%ecx
    2bc4:	74 0e                	je     2bd4 <ddf_fun_destroy+0xa4>
    2bc6:	8b 53 04             	mov    0x4(%ebx),%edx
    2bc9:	85 d2                	test   %edx,%edx
    2bcb:	74 07                	je     2bd4 <ddf_fun_destroy+0xa4>
    2bcd:	89 0a                	mov    %ecx,(%edx)
    2bcf:	8b 0b                	mov    (%ebx),%ecx
    2bd1:	89 51 04             	mov    %edx,0x4(%ecx)
    2bd4:	8b 53 08             	mov    0x8(%ebx),%edx
    2bd7:	c7 03 00 00 00 00    	movl   $0x0,(%ebx)
    2bdd:	c7 43 04 00 00 00 00 	movl   $0x0,0x4(%ebx)
    2be4:	85 d2                	test   %edx,%edx
    2be6:	74 0c                	je     2bf4 <ddf_fun_destroy+0xc4>
    2be8:	83 ec 0c             	sub    $0xc,%esp
    2beb:	52                   	push   %edx
    2bec:	e8 1f a9 00 00       	call   d510 <free@plt>
    2bf1:	83 c4 10             	add    $0x10,%esp
    2bf4:	83 ec 0c             	sub    $0xc,%esp
    2bf7:	53                   	push   %ebx
    2bf8:	e8 13 a9 00 00       	call   d510 <free@plt>
    2bfd:	8b 5f 1c             	mov    0x1c(%edi),%ebx
    2c00:	83 c4 10             	add    $0x10,%esp
    2c03:	3b 5d e4             	cmp    -0x1c(%ebp),%ebx
    2c06:	75 b8                	jne    2bc0 <ddf_fun_destroy+0x90>
    2c08:	8b 57 20             	mov    0x20(%edi),%edx
    2c0b:	85 d2                	test   %edx,%edx
    2c0d:	74 0c                	je     2c1b <ddf_fun_destroy+0xeb>
    2c0f:	83 ec 0c             	sub    $0xc,%esp
    2c12:	52                   	push   %edx
    2c13:	e8 f8 a8 00 00       	call   d510 <free@plt>
    2c18:	83 c4 10             	add    $0x10,%esp
    2c1b:	8b 57 14             	mov    0x14(%edi),%edx
    2c1e:	85 d2                	test   %edx,%edx
    2c20:	74 0c                	je     2c2e <ddf_fun_destroy+0xfe>
    2c22:	83 ec 0c             	sub    $0xc,%esp
    2c25:	52                   	push   %edx
    2c26:	e8 e5 a8 00 00       	call   d510 <free@plt>
    2c2b:	83 c4 10             	add    $0x10,%esp
    2c2e:	83 ec 0c             	sub    $0xc,%esp
    2c31:	57                   	push   %edi
    2c32:	e8 d9 a8 00 00       	call   d510 <free@plt>
    2c37:	83 c4 10             	add    $0x10,%esp
    2c3a:	e9 14 ff ff ff       	jmp    2b53 <ddf_fun_destroy+0x23>
    2c3f:	50                   	push   %eax
    2c40:	68 ee 02 00 00       	push   $0x2ee
    2c45:	68 ca b2 00 00       	push   $0xb2ca
    2c4a:	68 49 b3 00 00       	push   $0xb349
    2c4f:	e8 8c a5 00 00       	call   d1e0 <assert_abort@plt>
    2c54:	8d b6 00 00 00 00    	lea    0x0(%esi),%esi
    2c5a:	8d bf 00 00 00 00    	lea    0x0(%edi),%edi

00002c60 <ddf_fun_bind>:
    2c60:	55                   	push   %ebp
    2c61:	89 e5                	mov    %esp,%ebp
    2c63:	53                   	push   %ebx
    2c64:	83 ec 14             	sub    $0x14,%esp
    2c67:	8b 5d 08             	mov    0x8(%ebp),%ebx
    2c6a:	80 3b 00             	cmpb   $0x0,(%ebx)
    2c6d:	0f 85 d2 00 00 00    	jne    2d45 <ddf_fun_bind+0xe5>
    2c73:	8b 43 14             	mov    0x14(%ebx),%eax
    2c76:	85 c0                	test   %eax,%eax
    2c78:	0f 84 f1 00 00 00    	je     2d6f <ddf_fun_bind+0x10f>
    2c7e:	8b 43 0c             	mov    0xc(%ebx),%eax
    2c81:	85 c0                	test   %eax,%eax
    2c83:	0f 84 d1 00 00 00    	je     2d5a <ddf_fun_bind+0xfa>
    2c89:	83 ec 0c             	sub    $0xc,%esp
    2c8c:	68 74 f4 00 00       	push   $0xf474
    2c91:	e8 9a a8 00 00       	call   d530 <fibril_mutex_lock@plt>
    2c96:	8b 15 84 f4 00 00    	mov    0xf484,%edx
    2c9c:	8d 43 2c             	lea    0x2c(%ebx),%eax
    2c9f:	89 53 2c             	mov    %edx,0x2c(%ebx)
    2ca2:	c7 43 30 84 f4 00 00 	movl   $0xf484,0x30(%ebx)
    2ca9:	89 42 04             	mov    %eax,0x4(%edx)
    2cac:	a3 84 f4 00 00       	mov    %eax,0xf484
    2cb1:	c7 04 24 74 f4 00 00 	movl   $0xf474,(%esp)
    2cb8:	e8 c3 a5 00 00       	call   d280 <fibril_mutex_unlock@plt>
    2cbd:	8d 43 04             	lea    0x4(%ebx),%eax
    2cc0:	8b 53 10             	mov    0x10(%ebx),%edx
    2cc3:	89 04 24             	mov    %eax,(%esp)
    2cc6:	8b 43 0c             	mov    0xc(%ebx),%eax
    2cc9:	8b 4b 14             	mov    0x14(%ebx),%ecx
    2ccc:	8b 00                	mov    (%eax),%eax
    2cce:	50                   	push   %eax
    2ccf:	8d 43 18             	lea    0x18(%ebx),%eax
    2cd2:	50                   	push   %eax
    2cd3:	52                   	push   %edx
    2cd4:	51                   	push   %ecx
    2cd5:	e8 d6 a4 00 00       	call   d1b0 <devman_add_function@plt>
    2cda:	83 c4 20             	add    $0x20,%esp
    2cdd:	85 c0                	test   %eax,%eax
    2cdf:	75 0f                	jne    2cf0 <ddf_fun_bind+0x90>
    2ce1:	c6 03 01             	movb   $0x1,(%ebx)
    2ce4:	8b 5d fc             	mov    -0x4(%ebp),%ebx
    2ce7:	c9                   	leave  
    2ce8:	c3                   	ret    
    2ce9:	8d b4 26 00 00 00 00 	lea    0x0(%esi,%eiz,1),%esi
    2cf0:	83 ec 0c             	sub    $0xc,%esp
    2cf3:	89 45 f4             	mov    %eax,-0xc(%ebp)
    2cf6:	68 74 f4 00 00       	push   $0xf474
    2cfb:	e8 30 a8 00 00       	call   d530 <fibril_mutex_lock@plt>
    2d00:	8b 4b 2c             	mov    0x2c(%ebx),%ecx
    2d03:	83 c4 10             	add    $0x10,%esp
    2d06:	8b 45 f4             	mov    -0xc(%ebp),%eax
    2d09:	85 c9                	test   %ecx,%ecx
    2d0b:	74 0f                	je     2d1c <ddf_fun_bind+0xbc>
    2d0d:	8b 53 30             	mov    0x30(%ebx),%edx
    2d10:	85 d2                	test   %edx,%edx
    2d12:	74 08                	je     2d1c <ddf_fun_bind+0xbc>
    2d14:	89 0a                	mov    %ecx,(%edx)
    2d16:	8b 4b 2c             	mov    0x2c(%ebx),%ecx
    2d19:	89 51 04             	mov    %edx,0x4(%ecx)
    2d1c:	83 ec 0c             	sub    $0xc,%esp
    2d1f:	c7 43 2c 00 00 00 00 	movl   $0x0,0x2c(%ebx)
    2d26:	c7 43 30 00 00 00 00 	movl   $0x0,0x30(%ebx)
    2d2d:	89 45 f4             	mov    %eax,-0xc(%ebp)
    2d30:	68 74 f4 00 00       	push   $0xf474
    2d35:	e8 46 a5 00 00       	call   d280 <fibril_mutex_unlock@plt>
    2d3a:	8b 45 f4             	mov    -0xc(%ebp),%eax
    2d3d:	83 c4 10             	add    $0x10,%esp
    2d40:	8b 5d fc             	mov    -0x4(%ebp),%ebx
    2d43:	c9                   	leave  
    2d44:	c3                   	ret    
    2d45:	50                   	push   %eax
    2d46:	68 12 03 00 00       	push   $0x312
    2d4b:	68 ca b2 00 00       	push   $0xb2ca
    2d50:	68 49 b3 00 00       	push   $0xb349
    2d55:	e8 86 a4 00 00       	call   d1e0 <assert_abort@plt>
    2d5a:	53                   	push   %ebx
    2d5b:	68 14 03 00 00       	push   $0x314
    2d60:	68 ca b2 00 00       	push   $0xb2ca
    2d65:	68 88 b3 00 00       	push   $0xb388
    2d6a:	e8 71 a4 00 00       	call   d1e0 <assert_abort@plt>
    2d6f:	50                   	push   %eax
    2d70:	68 13 03 00 00       	push   $0x313
    2d75:	68 ca b2 00 00       	push   $0xb2ca
    2d7a:	68 76 b3 00 00       	push   $0xb376
    2d7f:	e8 5c a4 00 00       	call   d1e0 <assert_abort@plt>
    2d84:	8d b6 00 00 00 00    	lea    0x0(%esi),%esi
    2d8a:	8d bf 00 00 00 00    	lea    0x0(%edi),%edi

00002d90 <ddf_fun_unbind>:
    2d90:	55                   	push   %ebp
    2d91:	89 e5                	mov    %esp,%ebp
    2d93:	53                   	push   %ebx
    2d94:	83 ec 14             	sub    $0x14,%esp
    2d97:	8b 5d 08             	mov    0x8(%ebp),%ebx
    2d9a:	80 3b 00             	cmpb   $0x0,(%ebx)
    2d9d:	74 71                	je     2e10 <ddf_fun_unbind+0x80>
    2d9f:	83 ec 0c             	sub    $0xc,%esp
    2da2:	8b 43 04             	mov    0x4(%ebx),%eax
    2da5:	50                   	push   %eax
    2da6:	e8 75 a4 00 00       	call   d220 <devman_remove_function@plt>
    2dab:	83 c4 10             	add    $0x10,%esp
    2dae:	85 c0                	test   %eax,%eax
    2db0:	74 06                	je     2db8 <ddf_fun_unbind+0x28>
    2db2:	8b 5d fc             	mov    -0x4(%ebp),%ebx
    2db5:	c9                   	leave  
    2db6:	c3                   	ret    
    2db7:	90                   	nop
    2db8:	83 ec 0c             	sub    $0xc,%esp
    2dbb:	89 45 f4             	mov    %eax,-0xc(%ebp)
    2dbe:	68 74 f4 00 00       	push   $0xf474
    2dc3:	e8 68 a7 00 00       	call   d530 <fibril_mutex_lock@plt>
    2dc8:	8b 4b 2c             	mov    0x2c(%ebx),%ecx
    2dcb:	83 c4 10             	add    $0x10,%esp
    2dce:	8b 45 f4             	mov    -0xc(%ebp),%eax
    2dd1:	85 c9                	test   %ecx,%ecx
    2dd3:	74 0f                	je     2de4 <ddf_fun_unbind+0x54>
    2dd5:	8b 53 30             	mov    0x30(%ebx),%edx
    2dd8:	85 d2                	test   %edx,%edx
    2dda:	74 08                	je     2de4 <ddf_fun_unbind+0x54>
    2ddc:	89 0a                	mov    %ecx,(%edx)
    2dde:	8b 4b 2c             	mov    0x2c(%ebx),%ecx
    2de1:	89 51 04             	mov    %edx,0x4(%ecx)
    2de4:	83 ec 0c             	sub    $0xc,%esp
    2de7:	c7 43 2c 00 00 00 00 	movl   $0x0,0x2c(%ebx)
    2dee:	c7 43 30 00 00 00 00 	movl   $0x0,0x30(%ebx)
    2df5:	89 45 f4             	mov    %eax,-0xc(%ebp)
    2df8:	68 74 f4 00 00       	push   $0xf474
    2dfd:	e8 7e a4 00 00       	call   d280 <fibril_mutex_unlock@plt>
    2e02:	c6 03 00             	movb   $0x0,(%ebx)
    2e05:	8b 45 f4             	mov    -0xc(%ebp),%eax
    2e08:	83 c4 10             	add    $0x10,%esp
    2e0b:	8b 5d fc             	mov    -0x4(%ebp),%ebx
    2e0e:	c9                   	leave  
    2e0f:	c3                   	ret    
    2e10:	52                   	push   %edx
    2e11:	68 2e 03 00 00       	push   $0x32e
    2e16:	68 ca b2 00 00       	push   $0xb2ca
    2e1b:	68 99 b3 00 00       	push   $0xb399
    2e20:	e8 bb a3 00 00       	call   d1e0 <assert_abort@plt>
    2e25:	8d 74 26 00          	lea    0x0(%esi,%eiz,1),%esi
    2e29:	8d bc 27 00 00 00 00 	lea    0x0(%edi,%eiz,1),%edi

00002e30 <ddf_fun_online>:
    2e30:	55                   	push   %ebp
    2e31:	89 e5                	mov    %esp,%ebp
    2e33:	83 ec 08             	sub    $0x8,%esp
    2e36:	8b 45 08             	mov    0x8(%ebp),%eax
    2e39:	80 38 00             	cmpb   $0x0,(%eax)
    2e3c:	74 0c                	je     2e4a <ddf_fun_online+0x1a>
    2e3e:	8b 40 04             	mov    0x4(%eax),%eax
    2e41:	89 45 08             	mov    %eax,0x8(%ebp)
    2e44:	c9                   	leave  
    2e45:	e9 86 a2 00 00       	jmp    d0d0 <devman_drv_fun_online@plt>
    2e4a:	50                   	push   %eax
    2e4b:	68 43 03 00 00       	push   $0x343
    2e50:	68 ca b2 00 00       	push   $0xb2ca
    2e55:	68 99 b3 00 00       	push   $0xb399
    2e5a:	e8 81 a3 00 00       	call   d1e0 <assert_abort@plt>
    2e5f:	90                   	nop

00002e60 <ddf_fun_offline>:
    2e60:	55                   	push   %ebp
    2e61:	89 e5                	mov    %esp,%ebp
    2e63:	83 ec 08             	sub    $0x8,%esp
    2e66:	8b 45 08             	mov    0x8(%ebp),%eax
    2e69:	80 38 00             	cmpb   $0x0,(%eax)
    2e6c:	74 0c                	je     2e7a <ddf_fun_offline+0x1a>
    2e6e:	8b 40 04             	mov    0x4(%eax),%eax
    2e71:	89 45 08             	mov    %eax,0x8(%ebp)
    2e74:	c9                   	leave  
    2e75:	e9 96 a4 00 00       	jmp    d310 <devman_drv_fun_offline@plt>
    2e7a:	50                   	push   %eax
    2e7b:	68 55 03 00 00       	push   $0x355
    2e80:	68 ca b2 00 00       	push   $0xb2ca
    2e85:	68 99 b3 00 00       	push   $0xb399
    2e8a:	e8 51 a3 00 00       	call   d1e0 <assert_abort@plt>
    2e8f:	90                   	nop

00002e90 <ddf_fun_add_match_id>:
    2e90:	55                   	push   %ebp
    2e91:	89 e5                	mov    %esp,%ebp
    2e93:	57                   	push   %edi
    2e94:	56                   	push   %esi
    2e95:	53                   	push   %ebx
    2e96:	83 ec 0c             	sub    $0xc,%esp
    2e99:	8b 5d 08             	mov    0x8(%ebp),%ebx
    2e9c:	8b 75 10             	mov    0x10(%ebp),%esi
    2e9f:	80 3b 00             	cmpb   $0x0,(%ebx)
    2ea2:	0f 85 89 00 00 00    	jne    2f31 <ddf_fun_add_match_id+0xa1>
    2ea8:	83 7b 10 01          	cmpl   $0x1,0x10(%ebx)
    2eac:	75 6e                	jne    2f1c <ddf_fun_add_match_id+0x8c>
    2eae:	83 ec 0c             	sub    $0xc,%esp
    2eb1:	6a 10                	push   $0x10
    2eb3:	e8 68 a2 00 00       	call   d120 <malloc@plt>
    2eb8:	83 c4 0c             	add    $0xc,%esp
    2ebb:	89 c7                	mov    %eax,%edi
    2ebd:	6a 10                	push   $0x10
    2ebf:	6a 00                	push   $0x0
    2ec1:	50                   	push   %eax
    2ec2:	e8 99 a4 00 00       	call   d360 <memset@plt>
    2ec7:	8b 55 0c             	mov    0xc(%ebp),%edx
    2eca:	58                   	pop    %eax
    2ecb:	52                   	push   %edx
    2ecc:	e8 cf a3 00 00       	call   d2a0 <str_dup@plt>
    2ed1:	8d 53 18             	lea    0x18(%ebx),%edx
    2ed4:	89 47 08             	mov    %eax,0x8(%edi)
    2ed7:	8b 43 1c             	mov    0x1c(%ebx),%eax
    2eda:	83 c4 10             	add    $0x10,%esp
    2edd:	89 77 0c             	mov    %esi,0xc(%edi)
    2ee0:	39 c2                	cmp    %eax,%edx
    2ee2:	74 18                	je     2efc <ddf_fun_add_match_id+0x6c>
    2ee4:	39 70 0c             	cmp    %esi,0xc(%eax)
    2ee7:	73 0c                	jae    2ef5 <ddf_fun_add_match_id+0x65>
    2ee9:	eb 2d                	jmp    2f18 <ddf_fun_add_match_id+0x88>
    2eeb:	90                   	nop
    2eec:	8d 74 26 00          	lea    0x0(%esi,%eiz,1),%esi
    2ef0:	3b 70 0c             	cmp    0xc(%eax),%esi
    2ef3:	77 23                	ja     2f18 <ddf_fun_add_match_id+0x88>
    2ef5:	8b 40 04             	mov    0x4(%eax),%eax
    2ef8:	39 c2                	cmp    %eax,%edx
    2efa:	75 f4                	jne    2ef0 <ddf_fun_add_match_id+0x60>
    2efc:	8b 02                	mov    (%edx),%eax
    2efe:	89 57 04             	mov    %edx,0x4(%edi)
    2f01:	89 07                	mov    %eax,(%edi)
    2f03:	8b 02                	mov    (%edx),%eax
    2f05:	89 78 04             	mov    %edi,0x4(%eax)
    2f08:	89 3a                	mov    %edi,(%edx)
    2f0a:	8d 65 f4             	lea    -0xc(%ebp),%esp
    2f0d:	31 c0                	xor    %eax,%eax
    2f0f:	5b                   	pop    %ebx
    2f10:	5e                   	pop    %esi
    2f11:	5f                   	pop    %edi
    2f12:	5d                   	pop    %ebp
    2f13:	c3                   	ret    
    2f14:	8d 74 26 00          	lea    0x0(%esi,%eiz,1),%esi
    2f18:	89 c2                	mov    %eax,%edx
    2f1a:	eb e0                	jmp    2efc <ddf_fun_add_match_id+0x6c>
    2f1c:	51                   	push   %ecx
    2f1d:	68 6f 03 00 00       	push   $0x36f
    2f22:	68 ca b2 00 00       	push   $0xb2ca
    2f27:	68 ac b3 00 00       	push   $0xb3ac
    2f2c:	e8 af a2 00 00       	call   d1e0 <assert_abort@plt>
    2f31:	53                   	push   %ebx
    2f32:	68 6e 03 00 00       	push   $0x36e
    2f37:	68 ca b2 00 00       	push   $0xb2ca
    2f3c:	68 49 b3 00 00       	push   $0xb349
    2f41:	e8 9a a2 00 00       	call   d1e0 <assert_abort@plt>
    2f46:	8d 76 00             	lea    0x0(%esi),%esi
    2f49:	8d bc 27 00 00 00 00 	lea    0x0(%edi,%eiz,1),%edi

00002f50 <ddf_fun_set_ops>:
    2f50:	55                   	push   %ebp
    2f51:	89 e5                	mov    %esp,%ebp
    2f53:	83 ec 08             	sub    $0x8,%esp
    2f56:	8b 45 08             	mov    0x8(%ebp),%eax
    2f59:	8b 48 28             	mov    0x28(%eax),%ecx
    2f5c:	85 c9                	test   %ecx,%ecx
    2f5e:	75 08                	jne    2f68 <ddf_fun_set_ops+0x18>
    2f60:	8b 55 0c             	mov    0xc(%ebp),%edx
    2f63:	89 50 24             	mov    %edx,0x24(%eax)
    2f66:	c9                   	leave  
    2f67:	c3                   	ret    
    2f68:	50                   	push   %eax
    2f69:	68 7f 03 00 00       	push   $0x37f
    2f6e:	68 ca b2 00 00       	push   $0xb2ca
    2f73:	68 c4 b3 00 00       	push   $0xb3c4
    2f78:	e8 63 a2 00 00       	call   d1e0 <assert_abort@plt>
    2f7d:	8d 76 00             	lea    0x0(%esi),%esi

00002f80 <ddf_fun_set_conn_handler>:
    2f80:	55                   	push   %ebp
    2f81:	89 e5                	mov    %esp,%ebp
    2f83:	83 ec 08             	sub    $0x8,%esp
    2f86:	8b 45 08             	mov    0x8(%ebp),%eax
    2f89:	8b 48 24             	mov    0x24(%eax),%ecx
    2f8c:	85 c9                	test   %ecx,%ecx
    2f8e:	75 08                	jne    2f98 <ddf_fun_set_conn_handler+0x18>
    2f90:	8b 55 0c             	mov    0xc(%ebp),%edx
    2f93:	89 50 28             	mov    %edx,0x28(%eax)
    2f96:	c9                   	leave  
    2f97:	c3                   	ret    
    2f98:	50                   	push   %eax
    2f99:	68 89 03 00 00       	push   $0x389
    2f9e:	68 ca b2 00 00       	push   $0xb2ca
    2fa3:	68 de b3 00 00       	push   $0xb3de
    2fa8:	e8 33 a2 00 00       	call   d1e0 <assert_abort@plt>
    2fad:	8d 76 00             	lea    0x0(%esi),%esi

00002fb0 <ddf_fun_add_to_category>:
    2fb0:	55                   	push   %ebp
    2fb1:	89 e5                	mov    %esp,%ebp
    2fb3:	83 ec 08             	sub    $0x8,%esp
    2fb6:	8b 45 08             	mov    0x8(%ebp),%eax
    2fb9:	8b 55 0c             	mov    0xc(%ebp),%edx
    2fbc:	80 38 00             	cmpb   $0x0,(%eax)
    2fbf:	74 15                	je     2fd6 <ddf_fun_add_to_category+0x26>
    2fc1:	83 78 10 02          	cmpl   $0x2,0x10(%eax)
    2fc5:	75 24                	jne    2feb <ddf_fun_add_to_category+0x3b>
    2fc7:	89 55 0c             	mov    %edx,0xc(%ebp)
    2fca:	8b 40 04             	mov    0x4(%eax),%eax
    2fcd:	89 45 08             	mov    %eax,0x8(%ebp)
    2fd0:	c9                   	leave  
    2fd1:	e9 5a a1 00 00       	jmp    d130 <devman_add_device_to_category@plt>
    2fd6:	52                   	push   %edx
    2fd7:	68 9c 03 00 00       	push   $0x39c
    2fdc:	68 ca b2 00 00       	push   $0xb2ca
    2fe1:	68 99 b3 00 00       	push   $0xb399
    2fe6:	e8 f5 a1 00 00       	call   d1e0 <assert_abort@plt>
    2feb:	50                   	push   %eax
    2fec:	68 9d 03 00 00       	push   $0x39d
    2ff1:	68 ca b2 00 00       	push   $0xb2ca
    2ff6:	68 ef b3 00 00       	push   $0xb3ef
    2ffb:	e8 e0 a1 00 00       	call   d1e0 <assert_abort@plt>

00003000 <ddf_driver_main>:
    3000:	55                   	push   %ebp
    3001:	89 e5                	mov    %esp,%ebp
    3003:	56                   	push   %esi
    3004:	53                   	push   %ebx
    3005:	83 ec 10             	sub    $0x10,%esp
    3008:	8d 75 f4             	lea    -0xc(%ebp),%esi
    300b:	8b 45 08             	mov    0x8(%ebp),%eax
    300e:	56                   	push   %esi
    300f:	a3 88 f6 00 00       	mov    %eax,0xf688
    3014:	6a 00                	push   $0x0
    3016:	68 60 23 00 00       	push   $0x2360
    301b:	68 41 26 9b c9       	push   $0xc99b2641
    3020:	e8 4b a4 00 00       	call   d470 <async_create_port@plt>
    3025:	83 c4 10             	add    $0x10,%esp
    3028:	89 c3                	mov    %eax,%ebx
    302a:	85 c0                	test   %eax,%eax
    302c:	74 0a                	je     3038 <ddf_driver_main+0x38>
    302e:	8d 65 f8             	lea    -0x8(%ebp),%esp
    3031:	89 d8                	mov    %ebx,%eax
    3033:	5b                   	pop    %ebx
    3034:	5e                   	pop    %esi
    3035:	5d                   	pop    %ebp
    3036:	c3                   	ret    
    3037:	90                   	nop
    3038:	56                   	push   %esi
    3039:	6a 00                	push   $0x0
    303b:	68 80 23 00 00       	push   $0x2380
    3040:	68 41 26 9b db       	push   $0xdb9b2641
    3045:	e8 26 a4 00 00       	call   d470 <async_create_port@plt>
    304a:	83 c4 10             	add    $0x10,%esp
    304d:	89 c3                	mov    %eax,%ebx
    304f:	85 c0                	test   %eax,%eax
    3051:	75 db                	jne    302e <ddf_driver_main+0x2e>
    3053:	51                   	push   %ecx
    3054:	51                   	push   %ecx
    3055:	6a 00                	push   $0x0
    3057:	68 70 23 00 00       	push   $0x2370
    305c:	e8 8f a4 00 00       	call   d4f0 <async_set_fallback_port_handler@plt>
    3061:	a1 88 f6 00 00       	mov    0xf688,%eax
    3066:	8b 30                	mov    (%eax),%esi
    3068:	5b                   	pop    %ebx
    3069:	56                   	push   %esi
    306a:	e8 e1 a2 00 00       	call   d350 <devman_driver_register@plt>
    306f:	83 c4 10             	add    $0x10,%esp
    3072:	89 c3                	mov    %eax,%ebx
    3074:	85 c0                	test   %eax,%eax
    3076:	74 30                	je     30a8 <ddf_driver_main+0xa8>
    3078:	b8 09 b4 00 00       	mov    $0xb409,%eax
    307d:	83 fb f7             	cmp    $0xfffffff7,%ebx
    3080:	74 0c                	je     308e <ddf_driver_main+0x8e>
    3082:	83 ec 0c             	sub    $0xc,%esp
    3085:	53                   	push   %ebx
    3086:	e8 95 a3 00 00       	call   d420 <str_error@plt>
    308b:	83 c4 10             	add    $0x10,%esp
    308e:	52                   	push   %edx
    308f:	52                   	push   %edx
    3090:	50                   	push   %eax
    3091:	68 94 b5 00 00       	push   $0xb594
    3096:	e8 b5 9f 00 00       	call   d050 <printf@plt>
    309b:	83 c4 10             	add    $0x10,%esp
    309e:	8d 65 f8             	lea    -0x8(%ebp),%esp
    30a1:	89 d8                	mov    %ebx,%eax
    30a3:	5b                   	pop    %ebx
    30a4:	5e                   	pop    %esi
    30a5:	5d                   	pop    %ebp
    30a6:	c3                   	ret    
    30a7:	90                   	nop
    30a8:	83 ec 0c             	sub    $0xc,%esp
    30ab:	6a 00                	push   $0x0
    30ad:	e8 6e 9f 00 00       	call   d020 <task_retval@plt>
    30b2:	83 c4 10             	add    $0x10,%esp
    30b5:	89 c3                	mov    %eax,%ebx
    30b7:	85 c0                	test   %eax,%eax
    30b9:	0f 85 6f ff ff ff    	jne    302e <ddf_driver_main+0x2e>
    30bf:	83 c8 ff             	or     $0xffffffff,%eax
    30c2:	f0 0f c1 05 24 f6 00 	lock xadd %eax,0xf624
    30c9:	00 
    30ca:	48                   	dec    %eax
    30cb:	78 12                	js     30df <ddf_driver_main+0xdf>
    30cd:	83 ec 0c             	sub    $0xc,%esp
    30d0:	6a 03                	push   $0x3
    30d2:	e8 d9 a3 00 00       	call   d4b0 <fibril_switch@plt>
    30d7:	83 c4 10             	add    $0x10,%esp
    30da:	e9 4f ff ff ff       	jmp    302e <ddf_driver_main+0x2e>
    30df:	50                   	push   %eax
    30e0:	6a 0b                	push   $0xb
    30e2:	6a 00                	push   $0x0
    30e4:	6a 00                	push   $0x0
    30e6:	6a 00                	push   $0x0
    30e8:	6a 00                	push   $0x0
    30ea:	6a 00                	push   $0x0
    30ec:	68 24 f6 00 00       	push   $0xf624
    30f1:	ff 15 20 f6 00 00    	call   *0xf620
    30f7:	83 c4 20             	add    $0x20,%esp
    30fa:	eb d1                	jmp    30cd <ddf_driver_main+0xcd>
    30fc:	66 90                	xchg   %ax,%ax
    30fe:	66 90                	xchg   %ax,%ax

00003100 <get_remote_iface>:
    3100:	55                   	push   %ebp
    3101:	89 e5                	mov    %esp,%ebp
    3103:	83 ec 08             	sub    $0x8,%esp
    3106:	8b 45 08             	mov    0x8(%ebp),%eax
    3109:	83 f8 0e             	cmp    $0xe,%eax
    310c:	77 09                	ja     3117 <get_remote_iface+0x17>
    310e:	8b 04 85 00 b6 00 00 	mov    0xb600(,%eax,4),%eax
    3115:	c9                   	leave  
    3116:	c3                   	ret    
    3117:	50                   	push   %eax
    3118:	6a 4f                	push   $0x4f
    311a:	68 e4 b5 00 00       	push   $0xb5e4
    311f:	68 db b2 00 00       	push   $0xb2db
    3124:	e8 b7 a0 00 00       	call   d1e0 <assert_abort@plt>
    3129:	8d b4 26 00 00 00 00 	lea    0x0(%esi,%eiz,1),%esi

00003130 <get_remote_method>:
    3130:	55                   	push   %ebp
    3131:	89 e5                	mov    %esp,%ebp
    3133:	8b 55 08             	mov    0x8(%ebp),%edx
    3136:	8b 45 0c             	mov    0xc(%ebp),%eax
    3139:	39 02                	cmp    %eax,(%edx)
    313b:	76 0b                	jbe    3148 <get_remote_method+0x18>
    313d:	8b 52 04             	mov    0x4(%edx),%edx
    3140:	5d                   	pop    %ebp
    3141:	8b 04 82             	mov    (%edx,%eax,4),%eax
    3144:	c3                   	ret    
    3145:	8d 76 00             	lea    0x0(%esi),%esi
    3148:	31 c0                	xor    %eax,%eax
    314a:	5d                   	pop    %ebp
    314b:	c3                   	ret    
    314c:	8d 74 26 00          	lea    0x0(%esi,%eiz,1),%esi

00003150 <is_valid_iface_idx>:
    3150:	55                   	push   %ebp
    3151:	89 e5                	mov    %esp,%ebp
    3153:	83 7d 08 0e          	cmpl   $0xe,0x8(%ebp)
    3157:	5d                   	pop    %ebp
    3158:	0f 96 c0             	setbe  %al
    315b:	c3                   	ret    
    315c:	66 90                	xchg   %ax,%ax
    315e:	66 90                	xchg   %ax,%ax

00003160 <ddf_log_init>:
    3160:	55                   	push   %ebp
    3161:	89 e5                	mov    %esp,%ebp
    3163:	5d                   	pop    %ebp
    3164:	e9 37 9f 00 00       	jmp    d0a0 <log_init@plt>
    3169:	8d b4 26 00 00 00 00 	lea    0x0(%esi,%eiz,1),%esi

00003170 <ddf_msg>:
    3170:	55                   	push   %ebp
    3171:	89 e5                	mov    %esp,%ebp
    3173:	83 ec 08             	sub    $0x8,%esp
    3176:	8d 45 10             	lea    0x10(%ebp),%eax
    3179:	8b 55 0c             	mov    0xc(%ebp),%edx
    317c:	8b 4d 08             	mov    0x8(%ebp),%ecx
    317f:	50                   	push   %eax
    3180:	52                   	push   %edx
    3181:	51                   	push   %ecx
    3182:	6a ff                	push   $0xffffffff
    3184:	e8 17 a0 00 00       	call   d1a0 <log_msgv@plt>
    3189:	83 c4 10             	add    $0x10,%esp
    318c:	c9                   	leave  
    318d:	c3                   	ret    
    318e:	66 90                	xchg   %ax,%ax

00003190 <remote_audio_mixer_set_item_level>:
    3190:	55                   	push   %ebp
    3191:	89 e5                	mov    %esp,%ebp
    3193:	53                   	push   %ebx
    3194:	51                   	push   %ecx
    3195:	8b 45 0c             	mov    0xc(%ebp),%eax
    3198:	8b 4d 08             	mov    0x8(%ebp),%ecx
    319b:	8b 5d 10             	mov    0x10(%ebp),%ebx
    319e:	8b 55 14             	mov    0x14(%ebp),%edx
    31a1:	8b 40 0c             	mov    0xc(%eax),%eax
    31a4:	85 c0                	test   %eax,%eax
    31a6:	74 20                	je     31c8 <remote_audio_mixer_set_item_level+0x38>
    31a8:	83 ec 04             	sub    $0x4,%esp
    31ab:	ff 72 0c             	pushl  0xc(%edx)
    31ae:	8b 52 08             	mov    0x8(%edx),%edx
    31b1:	52                   	push   %edx
    31b2:	51                   	push   %ecx
    31b3:	ff d0                	call   *%eax
    31b5:	89 5d 08             	mov    %ebx,0x8(%ebp)
    31b8:	83 c4 10             	add    $0x10,%esp
    31bb:	8b 5d fc             	mov    -0x4(%ebp),%ebx
    31be:	89 45 0c             	mov    %eax,0xc(%ebp)
    31c1:	c9                   	leave  
    31c2:	e9 99 9f 00 00       	jmp    d160 <async_answer_0@plt>
    31c7:	90                   	nop
    31c8:	89 5d 08             	mov    %ebx,0x8(%ebp)
    31cb:	8b 5d fc             	mov    -0x4(%ebp),%ebx
    31ce:	c7 45 0c f5 ff ff ff 	movl   $0xfffffff5,0xc(%ebp)
    31d5:	c9                   	leave  
    31d6:	e9 85 9f 00 00       	jmp    d160 <async_answer_0@plt>
    31db:	90                   	nop
    31dc:	8d 74 26 00          	lea    0x0(%esi,%eiz,1),%esi

000031e0 <remote_audio_mixer_get_item_level>:
    31e0:	55                   	push   %ebp
    31e1:	89 e5                	mov    %esp,%ebp
    31e3:	83 ec 18             	sub    $0x18,%esp
    31e6:	8b 45 0c             	mov    0xc(%ebp),%eax
    31e9:	8b 40 08             	mov    0x8(%eax),%eax
    31ec:	85 c0                	test   %eax,%eax
    31ee:	74 30                	je     3220 <remote_audio_mixer_get_item_level+0x40>
    31f0:	8b 55 14             	mov    0x14(%ebp),%edx
    31f3:	c7 45 f4 00 00 00 00 	movl   $0x0,-0xc(%ebp)
    31fa:	8b 52 08             	mov    0x8(%edx),%edx
    31fd:	51                   	push   %ecx
    31fe:	8d 4d f4             	lea    -0xc(%ebp),%ecx
    3201:	51                   	push   %ecx
    3202:	52                   	push   %edx
    3203:	8b 55 08             	mov    0x8(%ebp),%edx
    3206:	52                   	push   %edx
    3207:	ff d0                	call   *%eax
    3209:	83 c4 0c             	add    $0xc,%esp
    320c:	8b 4d f4             	mov    -0xc(%ebp),%ecx
    320f:	51                   	push   %ecx
    3210:	50                   	push   %eax
    3211:	8b 45 10             	mov    0x10(%ebp),%eax
    3214:	50                   	push   %eax
    3215:	e8 e6 a1 00 00       	call   d400 <async_answer_1@plt>
    321a:	83 c4 10             	add    $0x10,%esp
    321d:	c9                   	leave  
    321e:	c3                   	ret    
    321f:	90                   	nop
    3220:	50                   	push   %eax
    3221:	50                   	push   %eax
    3222:	8b 45 10             	mov    0x10(%ebp),%eax
    3225:	6a f5                	push   $0xfffffff5
    3227:	50                   	push   %eax
    3228:	e8 33 9f 00 00       	call   d160 <async_answer_0@plt>
    322d:	83 c4 10             	add    $0x10,%esp
    3230:	c9                   	leave  
    3231:	c3                   	ret    
    3232:	8d b4 26 00 00 00 00 	lea    0x0(%esi,%eiz,1),%esi
    3239:	8d bc 27 00 00 00 00 	lea    0x0(%edi,%eiz,1),%edi

00003240 <remote_audio_mixer_get_item_info>:
    3240:	55                   	push   %ebp
    3241:	89 e5                	mov    %esp,%ebp
    3243:	56                   	push   %esi
    3244:	53                   	push   %ebx
    3245:	83 ec 10             	sub    $0x10,%esp
    3248:	8b 45 0c             	mov    0xc(%ebp),%eax
    324b:	8b 40 04             	mov    0x4(%eax),%eax
    324e:	85 c0                	test   %eax,%eax
    3250:	0f 84 c2 00 00 00    	je     3318 <remote_audio_mixer_get_item_info+0xd8>
    3256:	8b 55 14             	mov    0x14(%ebp),%edx
    3259:	8d 4d ec             	lea    -0x14(%ebp),%ecx
    325c:	c7 45 e8 00 00 00 00 	movl   $0x0,-0x18(%ebp)
    3263:	c7 45 ec 00 00 00 00 	movl   $0x0,-0x14(%ebp)
    326a:	8b 52 08             	mov    0x8(%edx),%edx
    326d:	51                   	push   %ecx
    326e:	8d 4d e8             	lea    -0x18(%ebp),%ecx
    3271:	51                   	push   %ecx
    3272:	8b 4d 08             	mov    0x8(%ebp),%ecx
    3275:	52                   	push   %edx
    3276:	51                   	push   %ecx
    3277:	ff d0                	call   *%eax
    3279:	83 c4 10             	add    $0x10,%esp
    327c:	89 c6                	mov    %eax,%esi
    327e:	8b 45 e8             	mov    -0x18(%ebp),%eax
    3281:	85 c0                	test   %eax,%eax
    3283:	74 5b                	je     32e0 <remote_audio_mixer_get_item_info+0xa0>
    3285:	83 ec 0c             	sub    $0xc,%esp
    3288:	50                   	push   %eax
    3289:	e8 52 a1 00 00       	call   d3e0 <str_size@plt>
    328e:	8b 55 10             	mov    0x10(%ebp),%edx
    3291:	8d 58 01             	lea    0x1(%eax),%ebx
    3294:	8b 45 ec             	mov    -0x14(%ebp),%eax
    3297:	50                   	push   %eax
    3298:	53                   	push   %ebx
    3299:	56                   	push   %esi
    329a:	52                   	push   %edx
    329b:	e8 d0 9f 00 00       	call   d270 <async_answer_2@plt>
    32a0:	83 c4 20             	add    $0x20,%esp
    32a3:	85 f6                	test   %esi,%esi
    32a5:	75 2f                	jne    32d6 <remote_audio_mixer_get_item_info+0x96>
    32a7:	85 db                	test   %ebx,%ebx
    32a9:	74 2b                	je     32d6 <remote_audio_mixer_get_item_info+0x96>
    32ab:	50                   	push   %eax
    32ac:	50                   	push   %eax
    32ad:	8d 45 f0             	lea    -0x10(%ebp),%eax
    32b0:	50                   	push   %eax
    32b1:	8d 45 f4             	lea    -0xc(%ebp),%eax
    32b4:	50                   	push   %eax
    32b5:	e8 b6 a0 00 00       	call   d370 <async_data_read_receive@plt>
    32ba:	83 c4 10             	add    $0x10,%esp
    32bd:	84 c0                	test   %al,%al
    32bf:	74 6f                	je     3330 <remote_audio_mixer_get_item_info+0xf0>
    32c1:	3b 5d f0             	cmp    -0x10(%ebp),%ebx
    32c4:	74 3a                	je     3300 <remote_audio_mixer_get_item_info+0xc0>
    32c6:	50                   	push   %eax
    32c7:	50                   	push   %eax
    32c8:	8b 45 f4             	mov    -0xc(%ebp),%eax
    32cb:	6a fd                	push   $0xfffffffd
    32cd:	50                   	push   %eax
    32ce:	e8 8d 9e 00 00       	call   d160 <async_answer_0@plt>
    32d3:	83 c4 10             	add    $0x10,%esp
    32d6:	8d 65 f8             	lea    -0x8(%ebp),%esp
    32d9:	5b                   	pop    %ebx
    32da:	5e                   	pop    %esi
    32db:	5d                   	pop    %ebp
    32dc:	c3                   	ret    
    32dd:	8d 76 00             	lea    0x0(%esi),%esi
    32e0:	8b 45 ec             	mov    -0x14(%ebp),%eax
    32e3:	8b 55 10             	mov    0x10(%ebp),%edx
    32e6:	50                   	push   %eax
    32e7:	6a 00                	push   $0x0
    32e9:	56                   	push   %esi
    32ea:	52                   	push   %edx
    32eb:	e8 80 9f 00 00       	call   d270 <async_answer_2@plt>
    32f0:	83 c4 10             	add    $0x10,%esp
    32f3:	8d 65 f8             	lea    -0x8(%ebp),%esp
    32f6:	5b                   	pop    %ebx
    32f7:	5e                   	pop    %esi
    32f8:	5d                   	pop    %ebp
    32f9:	c3                   	ret    
    32fa:	8d b6 00 00 00 00    	lea    0x0(%esi),%esi
    3300:	8b 75 f4             	mov    -0xc(%ebp),%esi
    3303:	51                   	push   %ecx
    3304:	53                   	push   %ebx
    3305:	8b 5d e8             	mov    -0x18(%ebp),%ebx
    3308:	53                   	push   %ebx
    3309:	56                   	push   %esi
    330a:	e8 d1 9d 00 00       	call   d0e0 <async_data_read_finalize@plt>
    330f:	83 c4 10             	add    $0x10,%esp
    3312:	eb c2                	jmp    32d6 <remote_audio_mixer_get_item_info+0x96>
    3314:	8d 74 26 00          	lea    0x0(%esi,%eiz,1),%esi
    3318:	8b 75 10             	mov    0x10(%ebp),%esi
    331b:	53                   	push   %ebx
    331c:	53                   	push   %ebx
    331d:	6a f5                	push   $0xfffffff5
    331f:	56                   	push   %esi
    3320:	e8 3b 9e 00 00       	call   d160 <async_answer_0@plt>
    3325:	83 c4 10             	add    $0x10,%esp
    3328:	8d 65 f8             	lea    -0x8(%ebp),%esp
    332b:	5b                   	pop    %ebx
    332c:	5e                   	pop    %esi
    332d:	5d                   	pop    %ebp
    332e:	c3                   	ret    
    332f:	90                   	nop
    3330:	50                   	push   %eax
    3331:	50                   	push   %eax
    3332:	8b 45 f4             	mov    -0xc(%ebp),%eax
    3335:	6a f8                	push   $0xfffffff8
    3337:	50                   	push   %eax
    3338:	e8 23 9e 00 00       	call   d160 <async_answer_0@plt>
    333d:	83 c4 10             	add    $0x10,%esp
    3340:	eb 94                	jmp    32d6 <remote_audio_mixer_get_item_info+0x96>
    3342:	8d b4 26 00 00 00 00 	lea    0x0(%esi,%eiz,1),%esi
    3349:	8d bc 27 00 00 00 00 	lea    0x0(%edi,%eiz,1),%edi

00003350 <remote_audio_mixer_get_info>:
    3350:	55                   	push   %ebp
    3351:	89 e5                	mov    %esp,%ebp
    3353:	56                   	push   %esi
    3354:	53                   	push   %ebx
    3355:	83 ec 10             	sub    $0x10,%esp
    3358:	8b 45 0c             	mov    0xc(%ebp),%eax
    335b:	8b 00                	mov    (%eax),%eax
    335d:	85 c0                	test   %eax,%eax
    335f:	0f 84 bb 00 00 00    	je     3420 <remote_audio_mixer_get_info+0xd0>
    3365:	8d 55 ec             	lea    -0x14(%ebp),%edx
    3368:	8b 5d 08             	mov    0x8(%ebp),%ebx
    336b:	c7 45 e8 00 00 00 00 	movl   $0x0,-0x18(%ebp)
    3372:	c7 45 ec 00 00 00 00 	movl   $0x0,-0x14(%ebp)
    3379:	51                   	push   %ecx
    337a:	52                   	push   %edx
    337b:	8d 55 e8             	lea    -0x18(%ebp),%edx
    337e:	52                   	push   %edx
    337f:	53                   	push   %ebx
    3380:	ff d0                	call   *%eax
    3382:	83 c4 10             	add    $0x10,%esp
    3385:	89 c6                	mov    %eax,%esi
    3387:	8b 45 e8             	mov    -0x18(%ebp),%eax
    338a:	85 c0                	test   %eax,%eax
    338c:	74 5a                	je     33e8 <remote_audio_mixer_get_info+0x98>
    338e:	83 ec 0c             	sub    $0xc,%esp
    3391:	50                   	push   %eax
    3392:	e8 49 a0 00 00       	call   d3e0 <str_size@plt>
    3397:	8b 55 10             	mov    0x10(%ebp),%edx
    339a:	8d 58 01             	lea    0x1(%eax),%ebx
    339d:	8b 45 ec             	mov    -0x14(%ebp),%eax
    33a0:	50                   	push   %eax
    33a1:	53                   	push   %ebx
    33a2:	56                   	push   %esi
    33a3:	52                   	push   %edx
    33a4:	e8 c7 9e 00 00       	call   d270 <async_answer_2@plt>
    33a9:	83 c4 20             	add    $0x20,%esp
    33ac:	85 f6                	test   %esi,%esi
    33ae:	75 2f                	jne    33df <remote_audio_mixer_get_info+0x8f>
    33b0:	85 db                	test   %ebx,%ebx
    33b2:	74 2b                	je     33df <remote_audio_mixer_get_info+0x8f>
    33b4:	50                   	push   %eax
    33b5:	50                   	push   %eax
    33b6:	8d 45 f0             	lea    -0x10(%ebp),%eax
    33b9:	50                   	push   %eax
    33ba:	8d 45 f4             	lea    -0xc(%ebp),%eax
    33bd:	50                   	push   %eax
    33be:	e8 ad 9f 00 00       	call   d370 <async_data_read_receive@plt>
    33c3:	83 c4 10             	add    $0x10,%esp
    33c6:	84 c0                	test   %al,%al
    33c8:	74 6e                	je     3438 <remote_audio_mixer_get_info+0xe8>
    33ca:	3b 5d f0             	cmp    -0x10(%ebp),%ebx
    33cd:	74 39                	je     3408 <remote_audio_mixer_get_info+0xb8>
    33cf:	50                   	push   %eax
    33d0:	50                   	push   %eax
    33d1:	8b 45 f4             	mov    -0xc(%ebp),%eax
    33d4:	6a fd                	push   $0xfffffffd
    33d6:	50                   	push   %eax
    33d7:	e8 84 9d 00 00       	call   d160 <async_answer_0@plt>
    33dc:	83 c4 10             	add    $0x10,%esp
    33df:	8d 65 f8             	lea    -0x8(%ebp),%esp
    33e2:	5b                   	pop    %ebx
    33e3:	5e                   	pop    %esi
    33e4:	5d                   	pop    %ebp
    33e5:	c3                   	ret    
    33e6:	66 90                	xchg   %ax,%ax
    33e8:	8b 45 ec             	mov    -0x14(%ebp),%eax
    33eb:	8b 55 10             	mov    0x10(%ebp),%edx
    33ee:	50                   	push   %eax
    33ef:	6a 00                	push   $0x0
    33f1:	56                   	push   %esi
    33f2:	52                   	push   %edx
    33f3:	e8 78 9e 00 00       	call   d270 <async_answer_2@plt>
    33f8:	83 c4 10             	add    $0x10,%esp
    33fb:	8d 65 f8             	lea    -0x8(%ebp),%esp
    33fe:	5b                   	pop    %ebx
    33ff:	5e                   	pop    %esi
    3400:	5d                   	pop    %ebp
    3401:	c3                   	ret    
    3402:	8d b6 00 00 00 00    	lea    0x0(%esi),%esi
    3408:	8b 75 f4             	mov    -0xc(%ebp),%esi
    340b:	51                   	push   %ecx
    340c:	53                   	push   %ebx
    340d:	8b 5d e8             	mov    -0x18(%ebp),%ebx
    3410:	53                   	push   %ebx
    3411:	56                   	push   %esi
    3412:	e8 c9 9c 00 00       	call   d0e0 <async_data_read_finalize@plt>
    3417:	83 c4 10             	add    $0x10,%esp
    341a:	eb c3                	jmp    33df <remote_audio_mixer_get_info+0x8f>
    341c:	8d 74 26 00          	lea    0x0(%esi,%eiz,1),%esi
    3420:	8b 45 10             	mov    0x10(%ebp),%eax
    3423:	56                   	push   %esi
    3424:	56                   	push   %esi
    3425:	6a f5                	push   $0xfffffff5
    3427:	50                   	push   %eax
    3428:	e8 33 9d 00 00       	call   d160 <async_answer_0@plt>
    342d:	83 c4 10             	add    $0x10,%esp
    3430:	8d 65 f8             	lea    -0x8(%ebp),%esp
    3433:	5b                   	pop    %ebx
    3434:	5e                   	pop    %esi
    3435:	5d                   	pop    %ebp
    3436:	c3                   	ret    
    3437:	90                   	nop
    3438:	50                   	push   %eax
    3439:	50                   	push   %eax
    343a:	8b 45 f4             	mov    -0xc(%ebp),%eax
    343d:	6a f8                	push   $0xfffffff8
    343f:	50                   	push   %eax
    3440:	e8 1b 9d 00 00       	call   d160 <async_answer_0@plt>
    3445:	83 c4 10             	add    $0x10,%esp
    3448:	eb 95                	jmp    33df <remote_audio_mixer_get_info+0x8f>
    344a:	8d b6 00 00 00 00    	lea    0x0(%esi),%esi

00003450 <audio_mixer_get_info>:
    3450:	55                   	push   %ebp
    3451:	89 e5                	mov    %esp,%ebp
    3453:	57                   	push   %edi
    3454:	56                   	push   %esi
    3455:	53                   	push   %ebx
    3456:	83 ec 2c             	sub    $0x2c,%esp
    3459:	8b 75 08             	mov    0x8(%ebp),%esi
    345c:	85 f6                	test   %esi,%esi
    345e:	0f 84 bc 00 00 00    	je     3520 <audio_mixer_get_info+0xd0>
    3464:	50                   	push   %eax
    3465:	8d 45 e4             	lea    -0x1c(%ebp),%eax
    3468:	6a 00                	push   $0x0
    346a:	6a 00                	push   $0x0
    346c:	6a 00                	push   $0x0
    346e:	50                   	push   %eax
    346f:	8d 45 e0             	lea    -0x20(%ebp),%eax
    3472:	50                   	push   %eax
    3473:	6a 00                	push   $0x0
    3475:	6a 00                	push   $0x0
    3477:	6a 00                	push   $0x0
    3479:	6a 00                	push   $0x0
    347b:	68 03 04 00 00       	push   $0x403
    3480:	56                   	push   %esi
    3481:	e8 ca 9c 00 00       	call   d150 <async_req_fast@plt>
    3486:	83 c4 30             	add    $0x30,%esp
    3489:	89 c3                	mov    %eax,%ebx
    348b:	85 c0                	test   %eax,%eax
    348d:	8b 45 0c             	mov    0xc(%ebp),%eax
    3490:	0f 94 c2             	sete   %dl
    3493:	85 c0                	test   %eax,%eax
    3495:	74 04                	je     349b <audio_mixer_get_info+0x4b>
    3497:	84 d2                	test   %dl,%dl
    3499:	75 1d                	jne    34b8 <audio_mixer_get_info+0x68>
    349b:	8b 45 10             	mov    0x10(%ebp),%eax
    349e:	85 c0                	test   %eax,%eax
    34a0:	74 57                	je     34f9 <audio_mixer_get_info+0xa9>
    34a2:	84 d2                	test   %dl,%dl
    34a4:	74 53                	je     34f9 <audio_mixer_get_info+0xa9>
    34a6:	8b 4d 10             	mov    0x10(%ebp),%ecx
    34a9:	8b 45 e4             	mov    -0x1c(%ebp),%eax
    34ac:	89 01                	mov    %eax,(%ecx)
    34ae:	89 d8                	mov    %ebx,%eax
    34b0:	8d 65 f4             	lea    -0xc(%ebp),%esp
    34b3:	5b                   	pop    %ebx
    34b4:	5e                   	pop    %esi
    34b5:	5f                   	pop    %edi
    34b6:	5d                   	pop    %ebp
    34b7:	c3                   	ret    
    34b8:	8b 45 e0             	mov    -0x20(%ebp),%eax
    34bb:	88 55 d4             	mov    %dl,-0x2c(%ebp)
    34be:	57                   	push   %edi
    34bf:	57                   	push   %edi
    34c0:	50                   	push   %eax
    34c1:	6a 01                	push   $0x1
    34c3:	e8 38 9d 00 00       	call   d200 <calloc@plt>
    34c8:	83 c4 10             	add    $0x10,%esp
    34cb:	89 c7                	mov    %eax,%edi
    34cd:	85 c0                	test   %eax,%eax
    34cf:	8a 55 d4             	mov    -0x2c(%ebp),%dl
    34d2:	74 53                	je     3527 <audio_mixer_get_info+0xd7>
    34d4:	8b 4d e0             	mov    -0x20(%ebp),%ecx
    34d7:	88 55 d4             	mov    %dl,-0x2c(%ebp)
    34da:	52                   	push   %edx
    34db:	51                   	push   %ecx
    34dc:	50                   	push   %eax
    34dd:	56                   	push   %esi
    34de:	e8 9d 9e 00 00       	call   d380 <async_data_read_start@plt>
    34e3:	83 c4 10             	add    $0x10,%esp
    34e6:	8a 55 d4             	mov    -0x2c(%ebp),%dl
    34e9:	85 c0                	test   %eax,%eax
    34eb:	75 1b                	jne    3508 <audio_mixer_get_info+0xb8>
    34ed:	8b 45 0c             	mov    0xc(%ebp),%eax
    34f0:	89 38                	mov    %edi,(%eax)
    34f2:	8b 45 10             	mov    0x10(%ebp),%eax
    34f5:	85 c0                	test   %eax,%eax
    34f7:	75 a9                	jne    34a2 <audio_mixer_get_info+0x52>
    34f9:	8d 65 f4             	lea    -0xc(%ebp),%esp
    34fc:	89 d8                	mov    %ebx,%eax
    34fe:	5b                   	pop    %ebx
    34ff:	5e                   	pop    %esi
    3500:	5f                   	pop    %edi
    3501:	5d                   	pop    %ebp
    3502:	c3                   	ret    
    3503:	90                   	nop
    3504:	8d 74 26 00          	lea    0x0(%esi,%eiz,1),%esi
    3508:	83 ec 0c             	sub    $0xc,%esp
    350b:	89 45 d4             	mov    %eax,-0x2c(%ebp)
    350e:	57                   	push   %edi
    350f:	e8 fc 9f 00 00       	call   d510 <free@plt>
    3514:	83 c4 10             	add    $0x10,%esp
    3517:	8b 45 d4             	mov    -0x2c(%ebp),%eax
    351a:	eb 94                	jmp    34b0 <audio_mixer_get_info+0x60>
    351c:	8d 74 26 00          	lea    0x0(%esi,%eiz,1),%esi
    3520:	b8 f2 ff ff ff       	mov    $0xfffffff2,%eax
    3525:	eb 89                	jmp    34b0 <audio_mixer_get_info+0x60>
    3527:	53                   	push   %ebx
    3528:	6a 00                	push   $0x0
    352a:	6a ff                	push   $0xffffffff
    352c:	56                   	push   %esi
    352d:	e8 4e 9e 00 00       	call   d380 <async_data_read_start@plt>
    3532:	83 c4 10             	add    $0x10,%esp
    3535:	b8 fe ff ff ff       	mov    $0xfffffffe,%eax
    353a:	e9 71 ff ff ff       	jmp    34b0 <audio_mixer_get_info+0x60>
    353f:	90                   	nop

00003540 <audio_mixer_get_item_info>:
    3540:	55                   	push   %ebp
    3541:	89 e5                	mov    %esp,%ebp
    3543:	57                   	push   %edi
    3544:	56                   	push   %esi
    3545:	53                   	push   %ebx
    3546:	83 ec 2c             	sub    $0x2c,%esp
    3549:	8b 75 08             	mov    0x8(%ebp),%esi
    354c:	85 f6                	test   %esi,%esi
    354e:	0f 84 c4 00 00 00    	je     3618 <audio_mixer_get_item_info+0xd8>
    3554:	50                   	push   %eax
    3555:	8d 45 e4             	lea    -0x1c(%ebp),%eax
    3558:	6a 00                	push   $0x0
    355a:	6a 00                	push   $0x0
    355c:	6a 00                	push   $0x0
    355e:	50                   	push   %eax
    355f:	8d 45 e0             	lea    -0x20(%ebp),%eax
    3562:	50                   	push   %eax
    3563:	8b 45 0c             	mov    0xc(%ebp),%eax
    3566:	6a 00                	push   $0x0
    3568:	6a 00                	push   $0x0
    356a:	50                   	push   %eax
    356b:	6a 01                	push   $0x1
    356d:	68 03 04 00 00       	push   $0x403
    3572:	56                   	push   %esi
    3573:	e8 d8 9b 00 00       	call   d150 <async_req_fast@plt>
    3578:	83 c4 30             	add    $0x30,%esp
    357b:	89 c3                	mov    %eax,%ebx
    357d:	85 c0                	test   %eax,%eax
    357f:	8b 45 10             	mov    0x10(%ebp),%eax
    3582:	0f 94 c2             	sete   %dl
    3585:	85 c0                	test   %eax,%eax
    3587:	74 04                	je     358d <audio_mixer_get_item_info+0x4d>
    3589:	84 d2                	test   %dl,%dl
    358b:	75 23                	jne    35b0 <audio_mixer_get_item_info+0x70>
    358d:	8b 45 14             	mov    0x14(%ebp),%eax
    3590:	85 c0                	test   %eax,%eax
    3592:	74 5d                	je     35f1 <audio_mixer_get_item_info+0xb1>
    3594:	84 d2                	test   %dl,%dl
    3596:	74 59                	je     35f1 <audio_mixer_get_item_info+0xb1>
    3598:	8b 4d 14             	mov    0x14(%ebp),%ecx
    359b:	8b 45 e4             	mov    -0x1c(%ebp),%eax
    359e:	89 01                	mov    %eax,(%ecx)
    35a0:	89 d8                	mov    %ebx,%eax
    35a2:	8d 65 f4             	lea    -0xc(%ebp),%esp
    35a5:	5b                   	pop    %ebx
    35a6:	5e                   	pop    %esi
    35a7:	5f                   	pop    %edi
    35a8:	5d                   	pop    %ebp
    35a9:	c3                   	ret    
    35aa:	8d b6 00 00 00 00    	lea    0x0(%esi),%esi
    35b0:	8b 45 e0             	mov    -0x20(%ebp),%eax
    35b3:	88 55 d4             	mov    %dl,-0x2c(%ebp)
    35b6:	57                   	push   %edi
    35b7:	57                   	push   %edi
    35b8:	50                   	push   %eax
    35b9:	6a 01                	push   $0x1
    35bb:	e8 40 9c 00 00       	call   d200 <calloc@plt>
    35c0:	83 c4 10             	add    $0x10,%esp
    35c3:	89 c7                	mov    %eax,%edi
    35c5:	85 c0                	test   %eax,%eax
    35c7:	8a 55 d4             	mov    -0x2c(%ebp),%dl
    35ca:	74 53                	je     361f <audio_mixer_get_item_info+0xdf>
    35cc:	8b 4d e0             	mov    -0x20(%ebp),%ecx
    35cf:	88 55 d4             	mov    %dl,-0x2c(%ebp)
    35d2:	52                   	push   %edx
    35d3:	51                   	push   %ecx
    35d4:	50                   	push   %eax
    35d5:	56                   	push   %esi
    35d6:	e8 a5 9d 00 00       	call   d380 <async_data_read_start@plt>
    35db:	83 c4 10             	add    $0x10,%esp
    35de:	8a 55 d4             	mov    -0x2c(%ebp),%dl
    35e1:	85 c0                	test   %eax,%eax
    35e3:	75 1b                	jne    3600 <audio_mixer_get_item_info+0xc0>
    35e5:	8b 45 10             	mov    0x10(%ebp),%eax
    35e8:	89 38                	mov    %edi,(%eax)
    35ea:	8b 45 14             	mov    0x14(%ebp),%eax
    35ed:	85 c0                	test   %eax,%eax
    35ef:	75 a3                	jne    3594 <audio_mixer_get_item_info+0x54>
    35f1:	8d 65 f4             	lea    -0xc(%ebp),%esp
    35f4:	89 d8                	mov    %ebx,%eax
    35f6:	5b                   	pop    %ebx
    35f7:	5e                   	pop    %esi
    35f8:	5f                   	pop    %edi
    35f9:	5d                   	pop    %ebp
    35fa:	c3                   	ret    
    35fb:	90                   	nop
    35fc:	8d 74 26 00          	lea    0x0(%esi,%eiz,1),%esi
    3600:	83 ec 0c             	sub    $0xc,%esp
    3603:	89 45 d4             	mov    %eax,-0x2c(%ebp)
    3606:	57                   	push   %edi
    3607:	e8 04 9f 00 00       	call   d510 <free@plt>
    360c:	83 c4 10             	add    $0x10,%esp
    360f:	8b 45 d4             	mov    -0x2c(%ebp),%eax
    3612:	eb 8e                	jmp    35a2 <audio_mixer_get_item_info+0x62>
    3614:	8d 74 26 00          	lea    0x0(%esi,%eiz,1),%esi
    3618:	b8 f2 ff ff ff       	mov    $0xfffffff2,%eax
    361d:	eb 83                	jmp    35a2 <audio_mixer_get_item_info+0x62>
    361f:	53                   	push   %ebx
    3620:	6a 00                	push   $0x0
    3622:	6a ff                	push   $0xffffffff
    3624:	56                   	push   %esi
    3625:	e8 56 9d 00 00       	call   d380 <async_data_read_start@plt>
    362a:	83 c4 10             	add    $0x10,%esp
    362d:	b8 fe ff ff ff       	mov    $0xfffffffe,%eax
    3632:	e9 6b ff ff ff       	jmp    35a2 <audio_mixer_get_item_info+0x62>
    3637:	89 f6                	mov    %esi,%esi
    3639:	8d bc 27 00 00 00 00 	lea    0x0(%edi,%eiz,1),%edi

00003640 <audio_mixer_set_item_level>:
    3640:	55                   	push   %ebp
    3641:	89 e5                	mov    %esp,%ebp
    3643:	83 ec 08             	sub    $0x8,%esp
    3646:	8b 45 08             	mov    0x8(%ebp),%eax
    3649:	85 c0                	test   %eax,%eax
    364b:	74 2b                	je     3678 <audio_mixer_set_item_level+0x38>
    364d:	8b 4d 10             	mov    0x10(%ebp),%ecx
    3650:	52                   	push   %edx
    3651:	8b 55 0c             	mov    0xc(%ebp),%edx
    3654:	6a 00                	push   $0x0
    3656:	6a 00                	push   $0x0
    3658:	6a 00                	push   $0x0
    365a:	6a 00                	push   $0x0
    365c:	6a 00                	push   $0x0
    365e:	6a 00                	push   $0x0
    3660:	51                   	push   %ecx
    3661:	52                   	push   %edx
    3662:	6a 02                	push   $0x2
    3664:	68 03 04 00 00       	push   $0x403
    3669:	50                   	push   %eax
    366a:	e8 e1 9a 00 00       	call   d150 <async_req_fast@plt>
    366f:	83 c4 30             	add    $0x30,%esp
    3672:	c9                   	leave  
    3673:	c3                   	ret    
    3674:	8d 74 26 00          	lea    0x0(%esi,%eiz,1),%esi
    3678:	b8 f2 ff ff ff       	mov    $0xfffffff2,%eax
    367d:	c9                   	leave  
    367e:	c3                   	ret    
    367f:	90                   	nop

00003680 <audio_mixer_get_item_level>:
    3680:	55                   	push   %ebp
    3681:	89 e5                	mov    %esp,%ebp
    3683:	53                   	push   %ebx
    3684:	83 ec 14             	sub    $0x14,%esp
    3687:	8b 45 08             	mov    0x8(%ebp),%eax
    368a:	8b 5d 10             	mov    0x10(%ebp),%ebx
    368d:	85 c0                	test   %eax,%eax
    368f:	74 37                	je     36c8 <audio_mixer_get_item_level+0x48>
    3691:	8b 4d 0c             	mov    0xc(%ebp),%ecx
    3694:	52                   	push   %edx
    3695:	8d 55 f4             	lea    -0xc(%ebp),%edx
    3698:	6a 00                	push   $0x0
    369a:	6a 00                	push   $0x0
    369c:	6a 00                	push   $0x0
    369e:	6a 00                	push   $0x0
    36a0:	52                   	push   %edx
    36a1:	6a 00                	push   $0x0
    36a3:	6a 00                	push   $0x0
    36a5:	51                   	push   %ecx
    36a6:	6a 03                	push   $0x3
    36a8:	68 03 04 00 00       	push   $0x403
    36ad:	50                   	push   %eax
    36ae:	e8 9d 9a 00 00       	call   d150 <async_req_fast@plt>
    36b3:	83 c4 30             	add    $0x30,%esp
    36b6:	85 c0                	test   %eax,%eax
    36b8:	75 09                	jne    36c3 <audio_mixer_get_item_level+0x43>
    36ba:	85 db                	test   %ebx,%ebx
    36bc:	74 05                	je     36c3 <audio_mixer_get_item_level+0x43>
    36be:	8b 55 f4             	mov    -0xc(%ebp),%edx
    36c1:	89 13                	mov    %edx,(%ebx)
    36c3:	8b 5d fc             	mov    -0x4(%ebp),%ebx
    36c6:	c9                   	leave  
    36c7:	c3                   	ret    
    36c8:	b8 f2 ff ff ff       	mov    $0xfffffff2,%eax
    36cd:	eb f4                	jmp    36c3 <audio_mixer_get_item_level+0x43>
    36cf:	90                   	nop

000036d0 <remote_audio_pcm_stop_capture>:
    36d0:	55                   	push   %ebp
    36d1:	89 e5                	mov    %esp,%ebp
    36d3:	53                   	push   %ebx
    36d4:	50                   	push   %eax
    36d5:	8b 45 14             	mov    0x14(%ebp),%eax
    36d8:	8b 4d 08             	mov    0x8(%ebp),%ecx
    36db:	8b 5d 10             	mov    0x10(%ebp),%ebx
    36de:	8b 50 08             	mov    0x8(%eax),%edx
    36e1:	85 d2                	test   %edx,%edx
    36e3:	8b 55 0c             	mov    0xc(%ebp),%edx
    36e6:	0f 95 c0             	setne  %al
    36e9:	8b 52 2c             	mov    0x2c(%edx),%edx
    36ec:	85 d2                	test   %edx,%edx
    36ee:	74 20                	je     3710 <remote_audio_pcm_stop_capture+0x40>
    36f0:	83 ec 08             	sub    $0x8,%esp
    36f3:	25 ff 00 00 00       	and    $0xff,%eax
    36f8:	50                   	push   %eax
    36f9:	51                   	push   %ecx
    36fa:	ff d2                	call   *%edx
    36fc:	89 5d 08             	mov    %ebx,0x8(%ebp)
    36ff:	83 c4 10             	add    $0x10,%esp
    3702:	8b 5d fc             	mov    -0x4(%ebp),%ebx
    3705:	89 45 0c             	mov    %eax,0xc(%ebp)
    3708:	c9                   	leave  
    3709:	e9 52 9a 00 00       	jmp    d160 <async_answer_0@plt>
    370e:	66 90                	xchg   %ax,%ax
    3710:	89 5d 08             	mov    %ebx,0x8(%ebp)
    3713:	b8 f5 ff ff ff       	mov    $0xfffffff5,%eax
    3718:	8b 5d fc             	mov    -0x4(%ebp),%ebx
    371b:	89 45 0c             	mov    %eax,0xc(%ebp)
    371e:	c9                   	leave  
    371f:	e9 3c 9a 00 00       	jmp    d160 <async_answer_0@plt>
    3724:	8d b6 00 00 00 00    	lea    0x0(%esi),%esi
    372a:	8d bf 00 00 00 00    	lea    0x0(%edi),%edi

00003730 <remote_audio_pcm_start_capture>:
    3730:	55                   	push   %ebp
    3731:	89 e5                	mov    %esp,%ebp
    3733:	57                   	push   %edi
    3734:	56                   	push   %esi
    3735:	53                   	push   %ebx
    3736:	83 ec 0c             	sub    $0xc,%esp
    3739:	8b 55 14             	mov    0x14(%ebp),%edx
    373c:	8b 7d 0c             	mov    0xc(%ebp),%edi
    373f:	8b 4d 08             	mov    0x8(%ebp),%ecx
    3742:	8b 5d 10             	mov    0x10(%ebp),%ebx
    3745:	8b 42 10             	mov    0x10(%edx),%eax
    3748:	8b 7f 28             	mov    0x28(%edi),%edi
    374b:	89 c6                	mov    %eax,%esi
    374d:	25 ff ff 00 00       	and    $0xffff,%eax
    3752:	c1 ee 10             	shr    $0x10,%esi
    3755:	85 ff                	test   %edi,%edi
    3757:	74 27                	je     3780 <remote_audio_pcm_start_capture+0x50>
    3759:	83 ec 0c             	sub    $0xc,%esp
    375c:	50                   	push   %eax
    375d:	8b 42 0c             	mov    0xc(%edx),%eax
    3760:	50                   	push   %eax
    3761:	56                   	push   %esi
    3762:	8b 52 08             	mov    0x8(%edx),%edx
    3765:	52                   	push   %edx
    3766:	51                   	push   %ecx
    3767:	ff d7                	call   *%edi
    3769:	83 c4 20             	add    $0x20,%esp
    376c:	89 5d 08             	mov    %ebx,0x8(%ebp)
    376f:	89 45 0c             	mov    %eax,0xc(%ebp)
    3772:	8d 65 f4             	lea    -0xc(%ebp),%esp
    3775:	5b                   	pop    %ebx
    3776:	5e                   	pop    %esi
    3777:	5f                   	pop    %edi
    3778:	5d                   	pop    %ebp
    3779:	e9 e2 99 00 00       	jmp    d160 <async_answer_0@plt>
    377e:	66 90                	xchg   %ax,%ax
    3780:	b8 f5 ff ff ff       	mov    $0xfffffff5,%eax
    3785:	eb e5                	jmp    376c <remote_audio_pcm_start_capture+0x3c>
    3787:	89 f6                	mov    %esi,%esi
    3789:	8d bc 27 00 00 00 00 	lea    0x0(%edi,%eiz,1),%edi

00003790 <remote_audio_pcm_stop_playback>:
    3790:	55                   	push   %ebp
    3791:	89 e5                	mov    %esp,%ebp
    3793:	53                   	push   %ebx
    3794:	50                   	push   %eax
    3795:	8b 45 14             	mov    0x14(%ebp),%eax
    3798:	8b 4d 08             	mov    0x8(%ebp),%ecx
    379b:	8b 5d 10             	mov    0x10(%ebp),%ebx
    379e:	8b 50 08             	mov    0x8(%eax),%edx
    37a1:	85 d2                	test   %edx,%edx
    37a3:	8b 55 0c             	mov    0xc(%ebp),%edx
    37a6:	0f 95 c0             	setne  %al
    37a9:	8b 52 24             	mov    0x24(%edx),%edx
    37ac:	85 d2                	test   %edx,%edx
    37ae:	74 20                	je     37d0 <remote_audio_pcm_stop_playback+0x40>
    37b0:	83 ec 08             	sub    $0x8,%esp
    37b3:	25 ff 00 00 00       	and    $0xff,%eax
    37b8:	50                   	push   %eax
    37b9:	51                   	push   %ecx
    37ba:	ff d2                	call   *%edx
    37bc:	89 5d 08             	mov    %ebx,0x8(%ebp)
    37bf:	83 c4 10             	add    $0x10,%esp
    37c2:	8b 5d fc             	mov    -0x4(%ebp),%ebx
    37c5:	89 45 0c             	mov    %eax,0xc(%ebp)
    37c8:	c9                   	leave  
    37c9:	e9 92 99 00 00       	jmp    d160 <async_answer_0@plt>
    37ce:	66 90                	xchg   %ax,%ax
    37d0:	89 5d 08             	mov    %ebx,0x8(%ebp)
    37d3:	b8 f5 ff ff ff       	mov    $0xfffffff5,%eax
    37d8:	8b 5d fc             	mov    -0x4(%ebp),%ebx
    37db:	89 45 0c             	mov    %eax,0xc(%ebp)
    37de:	c9                   	leave  
    37df:	e9 7c 99 00 00       	jmp    d160 <async_answer_0@plt>
    37e4:	8d b6 00 00 00 00    	lea    0x0(%esi),%esi
    37ea:	8d bf 00 00 00 00    	lea    0x0(%edi),%edi

000037f0 <remote_audio_pcm_start_playback>:
    37f0:	55                   	push   %ebp
    37f1:	89 e5                	mov    %esp,%ebp
    37f3:	57                   	push   %edi
    37f4:	56                   	push   %esi
    37f5:	53                   	push   %ebx
    37f6:	83 ec 0c             	sub    $0xc,%esp
    37f9:	8b 4d 14             	mov    0x14(%ebp),%ecx
    37fc:	8b 7d 0c             	mov    0xc(%ebp),%edi
    37ff:	8b 75 08             	mov    0x8(%ebp),%esi
    3802:	8b 5d 10             	mov    0x10(%ebp),%ebx
    3805:	8b 41 10             	mov    0x10(%ecx),%eax
    3808:	8b 7f 20             	mov    0x20(%edi),%edi
    380b:	89 c2                	mov    %eax,%edx
    380d:	25 ff ff 00 00       	and    $0xffff,%eax
    3812:	c1 ea 10             	shr    $0x10,%edx
    3815:	81 e2 ff 00 00 00    	and    $0xff,%edx
    381b:	85 ff                	test   %edi,%edi
    381d:	74 29                	je     3848 <remote_audio_pcm_start_playback+0x58>
    381f:	83 ec 0c             	sub    $0xc,%esp
    3822:	50                   	push   %eax
    3823:	8b 41 0c             	mov    0xc(%ecx),%eax
    3826:	50                   	push   %eax
    3827:	52                   	push   %edx
    3828:	8b 51 08             	mov    0x8(%ecx),%edx
    382b:	52                   	push   %edx
    382c:	56                   	push   %esi
    382d:	ff d7                	call   *%edi
    382f:	83 c4 20             	add    $0x20,%esp
    3832:	89 5d 08             	mov    %ebx,0x8(%ebp)
    3835:	89 45 0c             	mov    %eax,0xc(%ebp)
    3838:	8d 65 f4             	lea    -0xc(%ebp),%esp
    383b:	5b                   	pop    %ebx
    383c:	5e                   	pop    %esi
    383d:	5f                   	pop    %edi
    383e:	5d                   	pop    %ebp
    383f:	e9 1c 99 00 00       	jmp    d160 <async_answer_0@plt>
    3844:	8d 74 26 00          	lea    0x0(%esi,%eiz,1),%esi
    3848:	b8 f5 ff ff ff       	mov    $0xfffffff5,%eax
    384d:	eb e3                	jmp    3832 <remote_audio_pcm_start_playback+0x42>
    384f:	90                   	nop

00003850 <remote_audio_pcm_release_buffer>:
    3850:	55                   	push   %ebp
    3851:	89 e5                	mov    %esp,%ebp
    3853:	53                   	push   %ebx
    3854:	50                   	push   %eax
    3855:	8b 45 0c             	mov    0xc(%ebp),%eax
    3858:	8b 55 08             	mov    0x8(%ebp),%edx
    385b:	8b 5d 10             	mov    0x10(%ebp),%ebx
    385e:	8b 40 14             	mov    0x14(%eax),%eax
    3861:	85 c0                	test   %eax,%eax
    3863:	74 1b                	je     3880 <remote_audio_pcm_release_buffer+0x30>
    3865:	83 ec 0c             	sub    $0xc,%esp
    3868:	52                   	push   %edx
    3869:	ff d0                	call   *%eax
    386b:	89 5d 08             	mov    %ebx,0x8(%ebp)
    386e:	83 c4 10             	add    $0x10,%esp
    3871:	8b 5d fc             	mov    -0x4(%ebp),%ebx
    3874:	89 45 0c             	mov    %eax,0xc(%ebp)
    3877:	c9                   	leave  
    3878:	e9 e3 98 00 00       	jmp    d160 <async_answer_0@plt>
    387d:	8d 76 00             	lea    0x0(%esi),%esi
    3880:	89 5d 08             	mov    %ebx,0x8(%ebp)
    3883:	b8 f5 ff ff ff       	mov    $0xfffffff5,%eax
    3888:	8b 5d fc             	mov    -0x4(%ebp),%ebx
    388b:	89 45 0c             	mov    %eax,0xc(%ebp)
    388e:	c9                   	leave  
    388f:	e9 cc 98 00 00       	jmp    d160 <async_answer_0@plt>
    3894:	8d b6 00 00 00 00    	lea    0x0(%esi),%esi
    389a:	8d bf 00 00 00 00    	lea    0x0(%edi),%edi

000038a0 <remote_audio_pcm_events_unregister>:
    38a0:	55                   	push   %ebp
    38a1:	89 e5                	mov    %esp,%ebp
    38a3:	57                   	push   %edi
    38a4:	56                   	push   %esi
    38a5:	53                   	push   %ebx
    38a6:	83 ec 0c             	sub    $0xc,%esp
    38a9:	8b 5d 0c             	mov    0xc(%ebp),%ebx
    38ac:	8b 75 08             	mov    0x8(%ebp),%esi
    38af:	8b 7d 10             	mov    0x10(%ebp),%edi
    38b2:	8b 43 1c             	mov    0x1c(%ebx),%eax
    38b5:	85 c0                	test   %eax,%eax
    38b7:	74 3f                	je     38f8 <remote_audio_pcm_events_unregister+0x58>
    38b9:	8b 4b 18             	mov    0x18(%ebx),%ecx
    38bc:	85 c9                	test   %ecx,%ecx
    38be:	74 38                	je     38f8 <remote_audio_pcm_events_unregister+0x58>
    38c0:	83 ec 0c             	sub    $0xc,%esp
    38c3:	56                   	push   %esi
    38c4:	ff d0                	call   *%eax
    38c6:	83 c4 10             	add    $0x10,%esp
    38c9:	85 c0                	test   %eax,%eax
    38cb:	74 14                	je     38e1 <remote_audio_pcm_events_unregister+0x41>
    38cd:	83 ec 0c             	sub    $0xc,%esp
    38d0:	50                   	push   %eax
    38d1:	e8 8a 97 00 00       	call   d060 <async_hangup@plt>
    38d6:	58                   	pop    %eax
    38d7:	5a                   	pop    %edx
    38d8:	6a 00                	push   $0x0
    38da:	56                   	push   %esi
    38db:	ff 53 18             	call   *0x18(%ebx)
    38de:	83 c4 10             	add    $0x10,%esp
    38e1:	89 7d 08             	mov    %edi,0x8(%ebp)
    38e4:	c7 45 0c 00 00 00 00 	movl   $0x0,0xc(%ebp)
    38eb:	8d 65 f4             	lea    -0xc(%ebp),%esp
    38ee:	5b                   	pop    %ebx
    38ef:	5e                   	pop    %esi
    38f0:	5f                   	pop    %edi
    38f1:	5d                   	pop    %ebp
    38f2:	e9 69 98 00 00       	jmp    d160 <async_answer_0@plt>
    38f7:	90                   	nop
    38f8:	89 7d 08             	mov    %edi,0x8(%ebp)
    38fb:	c7 45 0c f5 ff ff ff 	movl   $0xfffffff5,0xc(%ebp)
    3902:	8d 65 f4             	lea    -0xc(%ebp),%esp
    3905:	5b                   	pop    %ebx
    3906:	5e                   	pop    %esi
    3907:	5f                   	pop    %edi
    3908:	5d                   	pop    %ebp
    3909:	e9 52 98 00 00       	jmp    d160 <async_answer_0@plt>
    390e:	66 90                	xchg   %ax,%ax

00003910 <remote_audio_pcm_get_buffer_pos>:
    3910:	55                   	push   %ebp
    3911:	89 e5                	mov    %esp,%ebp
    3913:	83 ec 18             	sub    $0x18,%esp
    3916:	8b 45 0c             	mov    0xc(%ebp),%eax
    3919:	c7 45 f4 00 00 00 00 	movl   $0x0,-0xc(%ebp)
    3920:	8b 40 0c             	mov    0xc(%eax),%eax
    3923:	85 c0                	test   %eax,%eax
    3925:	74 29                	je     3950 <remote_audio_pcm_get_buffer_pos+0x40>
    3927:	8b 4d 08             	mov    0x8(%ebp),%ecx
    392a:	52                   	push   %edx
    392b:	52                   	push   %edx
    392c:	8d 55 f4             	lea    -0xc(%ebp),%edx
    392f:	52                   	push   %edx
    3930:	51                   	push   %ecx
    3931:	ff d0                	call   *%eax
    3933:	8b 55 f4             	mov    -0xc(%ebp),%edx
    3936:	83 c4 10             	add    $0x10,%esp
    3939:	51                   	push   %ecx
    393a:	52                   	push   %edx
    393b:	50                   	push   %eax
    393c:	8b 45 10             	mov    0x10(%ebp),%eax
    393f:	50                   	push   %eax
    3940:	e8 bb 9a 00 00       	call   d400 <async_answer_1@plt>
    3945:	83 c4 10             	add    $0x10,%esp
    3948:	c9                   	leave  
    3949:	c3                   	ret    
    394a:	8d b6 00 00 00 00    	lea    0x0(%esi),%esi
    3950:	b8 f5 ff ff ff       	mov    $0xfffffff5,%eax
    3955:	31 d2                	xor    %edx,%edx
    3957:	eb e0                	jmp    3939 <remote_audio_pcm_get_buffer_pos+0x29>
    3959:	8d b4 26 00 00 00 00 	lea    0x0(%esi,%eiz,1),%esi

00003960 <remote_audio_pcm_query_caps>:
    3960:	55                   	push   %ebp
    3961:	89 e5                	mov    %esp,%ebp
    3963:	53                   	push   %ebx
    3964:	53                   	push   %ebx
    3965:	8b 45 0c             	mov    0xc(%ebp),%eax
    3968:	8b 55 08             	mov    0x8(%ebp),%edx
    396b:	8b 5d 10             	mov    0x10(%ebp),%ebx
    396e:	8b 4d 14             	mov    0x14(%ebp),%ecx
    3971:	8b 40 08             	mov    0x8(%eax),%eax
    3974:	85 c0                	test   %eax,%eax
    3976:	74 28                	je     39a0 <remote_audio_pcm_query_caps+0x40>
    3978:	83 ec 08             	sub    $0x8,%esp
    397b:	8b 49 08             	mov    0x8(%ecx),%ecx
    397e:	51                   	push   %ecx
    397f:	52                   	push   %edx
    3980:	ff d0                	call   *%eax
    3982:	89 5d 08             	mov    %ebx,0x8(%ebp)
    3985:	83 c4 10             	add    $0x10,%esp
    3988:	8b 5d fc             	mov    -0x4(%ebp),%ebx
    398b:	89 45 10             	mov    %eax,0x10(%ebp)
    398e:	c7 45 0c 00 00 00 00 	movl   $0x0,0xc(%ebp)
    3995:	c9                   	leave  
    3996:	e9 65 9a 00 00       	jmp    d400 <async_answer_1@plt>
    399b:	90                   	nop
    399c:	8d 74 26 00          	lea    0x0(%esi,%eiz,1),%esi
    39a0:	89 5d 08             	mov    %ebx,0x8(%ebp)
    39a3:	8b 5d fc             	mov    -0x4(%ebp),%ebx
    39a6:	c7 45 0c f5 ff ff ff 	movl   $0xfffffff5,0xc(%ebp)
    39ad:	c9                   	leave  
    39ae:	e9 ad 97 00 00       	jmp    d160 <async_answer_0@plt>
    39b3:	8d b6 00 00 00 00    	lea    0x0(%esi),%esi
    39b9:	8d bc 27 00 00 00 00 	lea    0x0(%edi,%eiz,1),%edi

000039c0 <remote_audio_pcm_get_buffer>:
    39c0:	55                   	push   %ebp
    39c1:	89 e5                	mov    %esp,%ebp
    39c3:	56                   	push   %esi
    39c4:	53                   	push   %ebx
    39c5:	83 ec 10             	sub    $0x10,%esp
    39c8:	8b 5d 0c             	mov    0xc(%ebp),%ebx
    39cb:	8b 43 10             	mov    0x10(%ebx),%eax
    39ce:	85 c0                	test   %eax,%eax
    39d0:	0f 84 d2 00 00 00    	je     3aa8 <remote_audio_pcm_get_buffer+0xe8>
    39d6:	8b 53 14             	mov    0x14(%ebx),%edx
    39d9:	85 d2                	test   %edx,%edx
    39db:	0f 84 c7 00 00 00    	je     3aa8 <remote_audio_pcm_get_buffer+0xe8>
    39e1:	8b 55 14             	mov    0x14(%ebp),%edx
    39e4:	c7 45 e8 00 00 00 00 	movl   $0x0,-0x18(%ebp)
    39eb:	8b 52 08             	mov    0x8(%edx),%edx
    39ee:	56                   	push   %esi
    39ef:	89 55 ec             	mov    %edx,-0x14(%ebp)
    39f2:	8d 55 ec             	lea    -0x14(%ebp),%edx
    39f5:	52                   	push   %edx
    39f6:	8d 55 e8             	lea    -0x18(%ebp),%edx
    39f9:	52                   	push   %edx
    39fa:	8b 55 08             	mov    0x8(%ebp),%edx
    39fd:	52                   	push   %edx
    39fe:	ff d0                	call   *%eax
    3a00:	83 c4 0c             	add    $0xc,%esp
    3a03:	8b 4d ec             	mov    -0x14(%ebp),%ecx
    3a06:	89 c6                	mov    %eax,%esi
    3a08:	51                   	push   %ecx
    3a09:	50                   	push   %eax
    3a0a:	8b 45 10             	mov    0x10(%ebp),%eax
    3a0d:	50                   	push   %eax
    3a0e:	e8 ed 99 00 00       	call   d400 <async_answer_1@plt>
    3a13:	83 c4 10             	add    $0x10,%esp
    3a16:	85 f6                	test   %esi,%esi
    3a18:	74 0e                	je     3a28 <remote_audio_pcm_get_buffer+0x68>
    3a1a:	8d 65 f8             	lea    -0x8(%ebp),%esp
    3a1d:	5b                   	pop    %ebx
    3a1e:	5e                   	pop    %esi
    3a1f:	5d                   	pop    %ebp
    3a20:	c3                   	ret    
    3a21:	8d b4 26 00 00 00 00 	lea    0x0(%esi,%eiz,1),%esi
    3a28:	8b 4d ec             	mov    -0x14(%ebp),%ecx
    3a2b:	85 c9                	test   %ecx,%ecx
    3a2d:	74 eb                	je     3a1a <remote_audio_pcm_get_buffer+0x5a>
    3a2f:	c7 45 f0 00 00 00 00 	movl   $0x0,-0x10(%ebp)
    3a36:	56                   	push   %esi
    3a37:	c7 45 f4 00 00 00 00 	movl   $0x0,-0xc(%ebp)
    3a3e:	56                   	push   %esi
    3a3f:	68 54 b6 00 00       	push   $0xb654
    3a44:	6a 05                	push   $0x5
    3a46:	e8 25 f7 ff ff       	call   3170 <ddf_msg>
    3a4b:	58                   	pop    %eax
    3a4c:	8d 45 f0             	lea    -0x10(%ebp),%eax
    3a4f:	5a                   	pop    %edx
    3a50:	50                   	push   %eax
    3a51:	8d 45 f4             	lea    -0xc(%ebp),%eax
    3a54:	50                   	push   %eax
    3a55:	e8 36 99 00 00       	call   d390 <async_share_in_receive@plt>
    3a5a:	83 c4 10             	add    $0x10,%esp
    3a5d:	84 c0                	test   %al,%al
    3a5f:	74 5f                	je     3ac0 <remote_audio_pcm_get_buffer+0x100>
    3a61:	50                   	push   %eax
    3a62:	50                   	push   %eax
    3a63:	68 18 b8 00 00       	push   $0xb818
    3a68:	6a 05                	push   $0x5
    3a6a:	e8 01 f7 ff ff       	call   3170 <ddf_msg>
    3a6f:	8b 45 ec             	mov    -0x14(%ebp),%eax
    3a72:	83 c4 10             	add    $0x10,%esp
    3a75:	39 45 f0             	cmp    %eax,-0x10(%ebp)
    3a78:	74 76                	je     3af0 <remote_audio_pcm_get_buffer+0x130>
    3a7a:	50                   	push   %eax
    3a7b:	50                   	push   %eax
    3a7c:	68 38 b8 00 00       	push   $0xb838
    3a81:	6a 04                	push   $0x4
    3a83:	e8 e8 f6 ff ff       	call   3170 <ddf_msg>
    3a88:	8b 55 08             	mov    0x8(%ebp),%edx
    3a8b:	58                   	pop    %eax
    3a8c:	52                   	push   %edx
    3a8d:	ff 53 14             	call   *0x14(%ebx)
    3a90:	8b 75 f4             	mov    -0xc(%ebp),%esi
    3a93:	59                   	pop    %ecx
    3a94:	5b                   	pop    %ebx
    3a95:	6a fd                	push   $0xfffffffd
    3a97:	56                   	push   %esi
    3a98:	e8 c3 96 00 00       	call   d160 <async_answer_0@plt>
    3a9d:	83 c4 10             	add    $0x10,%esp
    3aa0:	e9 75 ff ff ff       	jmp    3a1a <remote_audio_pcm_get_buffer+0x5a>
    3aa5:	8d 76 00             	lea    0x0(%esi),%esi
    3aa8:	50                   	push   %eax
    3aa9:	50                   	push   %eax
    3aaa:	8b 45 10             	mov    0x10(%ebp),%eax
    3aad:	6a f5                	push   $0xfffffff5
    3aaf:	50                   	push   %eax
    3ab0:	e8 ab 96 00 00       	call   d160 <async_answer_0@plt>
    3ab5:	83 c4 10             	add    $0x10,%esp
    3ab8:	8d 65 f8             	lea    -0x8(%ebp),%esp
    3abb:	5b                   	pop    %ebx
    3abc:	5e                   	pop    %esi
    3abd:	5d                   	pop    %ebp
    3abe:	c3                   	ret    
    3abf:	90                   	nop
    3ac0:	50                   	push   %eax
    3ac1:	50                   	push   %eax
    3ac2:	68 6d b6 00 00       	push   $0xb66d
    3ac7:	6a 04                	push   $0x4
    3ac9:	e8 a2 f6 ff ff       	call   3170 <ddf_msg>
    3ace:	58                   	pop    %eax
    3acf:	8b 45 08             	mov    0x8(%ebp),%eax
    3ad2:	50                   	push   %eax
    3ad3:	ff 53 14             	call   *0x14(%ebx)
    3ad6:	8b 4d f4             	mov    -0xc(%ebp),%ecx
    3ad9:	58                   	pop    %eax
    3ada:	5a                   	pop    %edx
    3adb:	6a f8                	push   $0xfffffff8
    3add:	51                   	push   %ecx
    3ade:	e8 7d 96 00 00       	call   d160 <async_answer_0@plt>
    3ae3:	83 c4 10             	add    $0x10,%esp
    3ae6:	e9 2f ff ff ff       	jmp    3a1a <remote_audio_pcm_get_buffer+0x5a>
    3aeb:	90                   	nop
    3aec:	8d 74 26 00          	lea    0x0(%esi,%eiz,1),%esi
    3af0:	50                   	push   %eax
    3af1:	50                   	push   %eax
    3af2:	68 89 b6 00 00       	push   $0xb689
    3af7:	6a 05                	push   $0x5
    3af9:	e8 72 f6 ff ff       	call   3170 <ddf_msg>
    3afe:	83 c4 0c             	add    $0xc,%esp
    3b01:	8b 45 e8             	mov    -0x18(%ebp),%eax
    3b04:	6a 03                	push   $0x3
    3b06:	50                   	push   %eax
    3b07:	8b 45 f4             	mov    -0xc(%ebp),%eax
    3b0a:	50                   	push   %eax
    3b0b:	e8 30 99 00 00       	call   d440 <async_share_in_finalize@plt>
    3b10:	83 c4 10             	add    $0x10,%esp
    3b13:	85 c0                	test   %eax,%eax
    3b15:	74 1e                	je     3b35 <remote_audio_pcm_get_buffer+0x175>
    3b17:	51                   	push   %ecx
    3b18:	51                   	push   %ecx
    3b19:	68 a1 b6 00 00       	push   $0xb6a1
    3b1e:	6a 04                	push   $0x4
    3b20:	e8 4b f6 ff ff       	call   3170 <ddf_msg>
    3b25:	8b 45 08             	mov    0x8(%ebp),%eax
    3b28:	5e                   	pop    %esi
    3b29:	50                   	push   %eax
    3b2a:	ff 53 14             	call   *0x14(%ebx)
    3b2d:	83 c4 10             	add    $0x10,%esp
    3b30:	e9 e5 fe ff ff       	jmp    3a1a <remote_audio_pcm_get_buffer+0x5a>
    3b35:	8b 55 f0             	mov    -0x10(%ebp),%edx
    3b38:	50                   	push   %eax
    3b39:	52                   	push   %edx
    3b3a:	68 b9 b6 00 00       	push   $0xb6b9
    3b3f:	6a 05                	push   $0x5
    3b41:	e8 2a f6 ff ff       	call   3170 <ddf_msg>
    3b46:	83 c4 10             	add    $0x10,%esp
    3b49:	e9 cc fe ff ff       	jmp    3a1a <remote_audio_pcm_get_buffer+0x5a>
    3b4e:	66 90                	xchg   %ax,%ax

00003b50 <remote_audio_pcm_test_format>:
    3b50:	55                   	push   %ebp
    3b51:	89 e5                	mov    %esp,%ebp
    3b53:	53                   	push   %ebx
    3b54:	83 ec 14             	sub    $0x14,%esp
    3b57:	8b 45 14             	mov    0x14(%ebp),%eax
    3b5a:	8b 55 0c             	mov    0xc(%ebp),%edx
    3b5d:	8b 48 08             	mov    0x8(%eax),%ecx
    3b60:	8b 58 0c             	mov    0xc(%eax),%ebx
    3b63:	8b 52 04             	mov    0x4(%edx),%edx
    3b66:	8b 40 10             	mov    0x10(%eax),%eax
    3b69:	89 4d ec             	mov    %ecx,-0x14(%ebp)
    3b6c:	89 5d f0             	mov    %ebx,-0x10(%ebp)
    3b6f:	89 45 f4             	mov    %eax,-0xc(%ebp)
    3b72:	85 d2                	test   %edx,%edx
    3b74:	74 3a                	je     3bb0 <remote_audio_pcm_test_format+0x60>
    3b76:	8d 45 f4             	lea    -0xc(%ebp),%eax
    3b79:	8b 4d 08             	mov    0x8(%ebp),%ecx
    3b7c:	50                   	push   %eax
    3b7d:	8d 45 f0             	lea    -0x10(%ebp),%eax
    3b80:	50                   	push   %eax
    3b81:	8d 45 ec             	lea    -0x14(%ebp),%eax
    3b84:	50                   	push   %eax
    3b85:	51                   	push   %ecx
    3b86:	ff d2                	call   *%edx
    3b88:	8b 55 f4             	mov    -0xc(%ebp),%edx
    3b8b:	8b 5d f0             	mov    -0x10(%ebp),%ebx
    3b8e:	8b 4d ec             	mov    -0x14(%ebp),%ecx
    3b91:	83 c4 10             	add    $0x10,%esp
    3b94:	83 ec 0c             	sub    $0xc,%esp
    3b97:	52                   	push   %edx
    3b98:	53                   	push   %ebx
    3b99:	51                   	push   %ecx
    3b9a:	50                   	push   %eax
    3b9b:	8b 45 10             	mov    0x10(%ebp),%eax
    3b9e:	50                   	push   %eax
    3b9f:	e8 ac 98 00 00       	call   d450 <async_answer_3@plt>
    3ba4:	83 c4 20             	add    $0x20,%esp
    3ba7:	8b 5d fc             	mov    -0x4(%ebp),%ebx
    3baa:	c9                   	leave  
    3bab:	c3                   	ret    
    3bac:	8d 74 26 00          	lea    0x0(%esi,%eiz,1),%esi
    3bb0:	89 c2                	mov    %eax,%edx
    3bb2:	b8 f5 ff ff ff       	mov    $0xfffffff5,%eax
    3bb7:	eb db                	jmp    3b94 <remote_audio_pcm_test_format+0x44>
    3bb9:	8d b4 26 00 00 00 00 	lea    0x0(%esi,%eiz,1),%esi

00003bc0 <remote_audio_pcm_events_register>:
    3bc0:	55                   	push   %ebp
    3bc1:	89 e5                	mov    %esp,%ebp
    3bc3:	57                   	push   %edi
    3bc4:	56                   	push   %esi
    3bc5:	53                   	push   %ebx
    3bc6:	83 ec 3c             	sub    $0x3c,%esp
    3bc9:	8b 5d 0c             	mov    0xc(%ebp),%ebx
    3bcc:	8b 7b 1c             	mov    0x1c(%ebx),%edi
    3bcf:	85 ff                	test   %edi,%edi
    3bd1:	0f 84 91 00 00 00    	je     3c68 <remote_audio_pcm_events_register+0xa8>
    3bd7:	8b 73 18             	mov    0x18(%ebx),%esi
    3bda:	85 f6                	test   %esi,%esi
    3bdc:	0f 84 86 00 00 00    	je     3c68 <remote_audio_pcm_events_register+0xa8>
    3be2:	8b 75 10             	mov    0x10(%ebp),%esi
    3be5:	51                   	push   %ecx
    3be6:	51                   	push   %ecx
    3be7:	6a 00                	push   $0x0
    3be9:	56                   	push   %esi
    3bea:	8d 75 c4             	lea    -0x3c(%ebp),%esi
    3bed:	e8 6e 95 00 00       	call   d160 <async_answer_0@plt>
    3bf2:	5f                   	pop    %edi
    3bf3:	58                   	pop    %eax
    3bf4:	6a 00                	push   $0x0
    3bf6:	56                   	push   %esi
    3bf7:	e8 d4 97 00 00       	call   d3d0 <async_get_call_timeout@plt>
    3bfc:	89 c7                	mov    %eax,%edi
    3bfe:	58                   	pop    %eax
    3bff:	5a                   	pop    %edx
    3c00:	56                   	push   %esi
    3c01:	6a 00                	push   $0x0
    3c03:	e8 88 96 00 00       	call   d290 <async_callback_receive_start@plt>
    3c08:	83 c4 10             	add    $0x10,%esp
    3c0b:	89 c6                	mov    %eax,%esi
    3c0d:	85 c0                	test   %eax,%eax
    3c0f:	74 6f                	je     3c80 <remote_audio_pcm_events_register+0xc0>
    3c11:	50                   	push   %eax
    3c12:	50                   	push   %eax
    3c13:	8b 45 08             	mov    0x8(%ebp),%eax
    3c16:	56                   	push   %esi
    3c17:	50                   	push   %eax
    3c18:	ff 53 18             	call   *0x18(%ebx)
    3c1b:	83 c4 10             	add    $0x10,%esp
    3c1e:	89 c3                	mov    %eax,%ebx
    3c20:	85 c0                	test   %eax,%eax
    3c22:	74 2c                	je     3c50 <remote_audio_pcm_events_register+0x90>
    3c24:	52                   	push   %edx
    3c25:	52                   	push   %edx
    3c26:	68 d6 b6 00 00       	push   $0xb6d6
    3c2b:	6a 04                	push   $0x4
    3c2d:	e8 3e f5 ff ff       	call   3170 <ddf_msg>
    3c32:	89 34 24             	mov    %esi,(%esp)
    3c35:	e8 26 94 00 00       	call   d060 <async_hangup@plt>
    3c3a:	59                   	pop    %ecx
    3c3b:	5e                   	pop    %esi
    3c3c:	53                   	push   %ebx
    3c3d:	57                   	push   %edi
    3c3e:	e8 1d 95 00 00       	call   d160 <async_answer_0@plt>
    3c43:	83 c4 10             	add    $0x10,%esp
    3c46:	8d 65 f4             	lea    -0xc(%ebp),%esp
    3c49:	5b                   	pop    %ebx
    3c4a:	5e                   	pop    %esi
    3c4b:	5f                   	pop    %edi
    3c4c:	5d                   	pop    %ebp
    3c4d:	c3                   	ret    
    3c4e:	66 90                	xchg   %ax,%ax
    3c50:	50                   	push   %eax
    3c51:	50                   	push   %eax
    3c52:	6a 00                	push   $0x0
    3c54:	57                   	push   %edi
    3c55:	e8 06 95 00 00       	call   d160 <async_answer_0@plt>
    3c5a:	83 c4 10             	add    $0x10,%esp
    3c5d:	8d 65 f4             	lea    -0xc(%ebp),%esp
    3c60:	5b                   	pop    %ebx
    3c61:	5e                   	pop    %esi
    3c62:	5f                   	pop    %edi
    3c63:	5d                   	pop    %ebp
    3c64:	c3                   	ret    
    3c65:	8d 76 00             	lea    0x0(%esi),%esi
    3c68:	8b 5d 10             	mov    0x10(%ebp),%ebx
    3c6b:	51                   	push   %ecx
    3c6c:	51                   	push   %ecx
    3c6d:	6a f5                	push   $0xfffffff5
    3c6f:	53                   	push   %ebx
    3c70:	e8 eb 94 00 00       	call   d160 <async_answer_0@plt>
    3c75:	83 c4 10             	add    $0x10,%esp
    3c78:	8d 65 f4             	lea    -0xc(%ebp),%esp
    3c7b:	5b                   	pop    %ebx
    3c7c:	5e                   	pop    %esi
    3c7d:	5f                   	pop    %edi
    3c7e:	5d                   	pop    %ebp
    3c7f:	c3                   	ret    
    3c80:	50                   	push   %eax
    3c81:	50                   	push   %eax
    3c82:	68 60 b8 00 00       	push   $0xb860
    3c87:	6a 04                	push   $0x4
    3c89:	e8 e2 f4 ff ff       	call   3170 <ddf_msg>
    3c8e:	58                   	pop    %eax
    3c8f:	5a                   	pop    %edx
    3c90:	68 06 d5 ff ff       	push   $0xffffd506
    3c95:	57                   	push   %edi
    3c96:	e8 c5 94 00 00       	call   d160 <async_answer_0@plt>
    3c9b:	83 c4 10             	add    $0x10,%esp
    3c9e:	eb a6                	jmp    3c46 <remote_audio_pcm_events_register+0x86>

00003ca0 <remote_audio_pcm_get_info_str>:
    3ca0:	55                   	push   %ebp
    3ca1:	89 e5                	mov    %esp,%ebp
    3ca3:	56                   	push   %esi
    3ca4:	53                   	push   %ebx
    3ca5:	83 ec 10             	sub    $0x10,%esp
    3ca8:	8b 45 0c             	mov    0xc(%ebp),%eax
    3cab:	8b 00                	mov    (%eax),%eax
    3cad:	85 c0                	test   %eax,%eax
    3caf:	0f 84 ab 00 00 00    	je     3d60 <remote_audio_pcm_get_info_str+0xc0>
    3cb5:	8b 4d 08             	mov    0x8(%ebp),%ecx
    3cb8:	52                   	push   %edx
    3cb9:	c7 45 ec 00 00 00 00 	movl   $0x0,-0x14(%ebp)
    3cc0:	52                   	push   %edx
    3cc1:	8d 55 ec             	lea    -0x14(%ebp),%edx
    3cc4:	52                   	push   %edx
    3cc5:	51                   	push   %ecx
    3cc6:	ff d0                	call   *%eax
    3cc8:	83 c4 10             	add    $0x10,%esp
    3ccb:	89 c6                	mov    %eax,%esi
    3ccd:	8b 45 ec             	mov    -0x14(%ebp),%eax
    3cd0:	85 c0                	test   %eax,%eax
    3cd2:	74 5c                	je     3d30 <remote_audio_pcm_get_info_str+0x90>
    3cd4:	83 ec 0c             	sub    $0xc,%esp
    3cd7:	50                   	push   %eax
    3cd8:	e8 03 97 00 00       	call   d3e0 <str_size@plt>
    3cdd:	83 c4 0c             	add    $0xc,%esp
    3ce0:	8d 58 01             	lea    0x1(%eax),%ebx
    3ce3:	8b 45 10             	mov    0x10(%ebp),%eax
    3ce6:	53                   	push   %ebx
    3ce7:	56                   	push   %esi
    3ce8:	50                   	push   %eax
    3ce9:	e8 12 97 00 00       	call   d400 <async_answer_1@plt>
    3cee:	83 c4 10             	add    $0x10,%esp
    3cf1:	85 f6                	test   %esi,%esi
    3cf3:	75 2f                	jne    3d24 <remote_audio_pcm_get_info_str+0x84>
    3cf5:	85 db                	test   %ebx,%ebx
    3cf7:	74 2b                	je     3d24 <remote_audio_pcm_get_info_str+0x84>
    3cf9:	50                   	push   %eax
    3cfa:	50                   	push   %eax
    3cfb:	8d 45 f0             	lea    -0x10(%ebp),%eax
    3cfe:	50                   	push   %eax
    3cff:	8d 45 f4             	lea    -0xc(%ebp),%eax
    3d02:	50                   	push   %eax
    3d03:	e8 68 96 00 00       	call   d370 <async_data_read_receive@plt>
    3d08:	83 c4 10             	add    $0x10,%esp
    3d0b:	84 c0                	test   %al,%al
    3d0d:	74 69                	je     3d78 <remote_audio_pcm_get_info_str+0xd8>
    3d0f:	3b 5d f0             	cmp    -0x10(%ebp),%ebx
    3d12:	74 34                	je     3d48 <remote_audio_pcm_get_info_str+0xa8>
    3d14:	50                   	push   %eax
    3d15:	50                   	push   %eax
    3d16:	8b 45 f4             	mov    -0xc(%ebp),%eax
    3d19:	6a fd                	push   $0xfffffffd
    3d1b:	50                   	push   %eax
    3d1c:	e8 3f 94 00 00       	call   d160 <async_answer_0@plt>
    3d21:	83 c4 10             	add    $0x10,%esp
    3d24:	8d 65 f8             	lea    -0x8(%ebp),%esp
    3d27:	5b                   	pop    %ebx
    3d28:	5e                   	pop    %esi
    3d29:	5d                   	pop    %ebp
    3d2a:	c3                   	ret    
    3d2b:	90                   	nop
    3d2c:	8d 74 26 00          	lea    0x0(%esi,%eiz,1),%esi
    3d30:	8b 55 10             	mov    0x10(%ebp),%edx
    3d33:	50                   	push   %eax
    3d34:	6a 00                	push   $0x0
    3d36:	56                   	push   %esi
    3d37:	52                   	push   %edx
    3d38:	e8 c3 96 00 00       	call   d400 <async_answer_1@plt>
    3d3d:	83 c4 10             	add    $0x10,%esp
    3d40:	8d 65 f8             	lea    -0x8(%ebp),%esp
    3d43:	5b                   	pop    %ebx
    3d44:	5e                   	pop    %esi
    3d45:	5d                   	pop    %ebp
    3d46:	c3                   	ret    
    3d47:	90                   	nop
    3d48:	8b 75 f4             	mov    -0xc(%ebp),%esi
    3d4b:	51                   	push   %ecx
    3d4c:	53                   	push   %ebx
    3d4d:	8b 5d ec             	mov    -0x14(%ebp),%ebx
    3d50:	53                   	push   %ebx
    3d51:	56                   	push   %esi
    3d52:	e8 89 93 00 00       	call   d0e0 <async_data_read_finalize@plt>
    3d57:	83 c4 10             	add    $0x10,%esp
    3d5a:	eb c8                	jmp    3d24 <remote_audio_pcm_get_info_str+0x84>
    3d5c:	8d 74 26 00          	lea    0x0(%esi,%eiz,1),%esi
    3d60:	8b 75 10             	mov    0x10(%ebp),%esi
    3d63:	53                   	push   %ebx
    3d64:	53                   	push   %ebx
    3d65:	6a f5                	push   $0xfffffff5
    3d67:	56                   	push   %esi
    3d68:	e8 f3 93 00 00       	call   d160 <async_answer_0@plt>
    3d6d:	83 c4 10             	add    $0x10,%esp
    3d70:	8d 65 f8             	lea    -0x8(%ebp),%esp
    3d73:	5b                   	pop    %ebx
    3d74:	5e                   	pop    %esi
    3d75:	5d                   	pop    %ebp
    3d76:	c3                   	ret    
    3d77:	90                   	nop
    3d78:	50                   	push   %eax
    3d79:	50                   	push   %eax
    3d7a:	8b 45 f4             	mov    -0xc(%ebp),%eax
    3d7d:	6a f8                	push   $0xfffffff8
    3d7f:	50                   	push   %eax
    3d80:	e8 db 93 00 00       	call   d160 <async_answer_0@plt>
    3d85:	83 c4 10             	add    $0x10,%esp
    3d88:	eb 9a                	jmp    3d24 <remote_audio_pcm_get_info_str+0x84>
    3d8a:	8d b6 00 00 00 00    	lea    0x0(%esi),%esi

00003d90 <audio_pcm_cap_str>:
    3d90:	55                   	push   %ebp
    3d91:	b8 f4 b6 00 00       	mov    $0xb6f4,%eax
    3d96:	89 e5                	mov    %esp,%ebp
    3d98:	8b 55 08             	mov    0x8(%ebp),%edx
    3d9b:	83 fa 06             	cmp    $0x6,%edx
    3d9e:	77 07                	ja     3da7 <audio_pcm_cap_str+0x17>
    3da0:	8b 04 95 b8 c8 00 00 	mov    0xc8b8(,%edx,4),%eax
    3da7:	5d                   	pop    %ebp
    3da8:	c3                   	ret    
    3da9:	8d b4 26 00 00 00 00 	lea    0x0(%esi,%eiz,1),%esi

00003db0 <audio_pcm_event_str>:
    3db0:	55                   	push   %ebp
    3db1:	b8 00 b7 00 00       	mov    $0xb700,%eax
    3db6:	89 e5                	mov    %esp,%ebp
    3db8:	8b 55 08             	mov    0x8(%ebp),%edx
    3dbb:	81 fa 05 04 00 00    	cmp    $0x405,%edx
    3dc1:	77 07                	ja     3dca <audio_pcm_event_str+0x1a>
    3dc3:	8b 04 95 a0 b8 00 00 	mov    0xb8a0(,%edx,4),%eax
    3dca:	5d                   	pop    %ebp
    3dcb:	c3                   	ret    
    3dcc:	8d 74 26 00          	lea    0x0(%esi,%eiz,1),%esi

00003dd0 <audio_pcm_open_default>:
    3dd0:	55                   	push   %ebp
    3dd1:	89 e5                	mov    %esp,%ebp
    3dd3:	83 ec 28             	sub    $0x28,%esp
    3dd6:	80 3d 90 f6 00 00 00 	cmpb   $0x0,0xf690
    3ddd:	75 20                	jne    3dff <audio_pcm_open_default+0x2f>
    3ddf:	50                   	push   %eax
    3de0:	6a 01                	push   $0x1
    3de2:	68 8c f6 00 00       	push   $0xf68c
    3de7:	68 0e b7 00 00       	push   $0xb70e
    3dec:	e8 0f 92 00 00       	call   d000 <loc_category_get_id@plt>
    3df1:	83 c4 10             	add    $0x10,%esp
    3df4:	85 c0                	test   %eax,%eax
    3df6:	75 68                	jne    3e60 <audio_pcm_open_default+0x90>
    3df8:	c6 05 90 f6 00 00 01 	movb   $0x1,0xf690
    3dff:	8d 45 f4             	lea    -0xc(%ebp),%eax
    3e02:	51                   	push   %ecx
    3e03:	50                   	push   %eax
    3e04:	8d 45 f0             	lea    -0x10(%ebp),%eax
    3e07:	50                   	push   %eax
    3e08:	a1 8c f6 00 00       	mov    0xf68c,%eax
    3e0d:	50                   	push   %eax
    3e0e:	c7 45 f0 00 00 00 00 	movl   $0x0,-0x10(%ebp)
    3e15:	c7 45 f4 00 00 00 00 	movl   $0x0,-0xc(%ebp)
    3e1c:	e8 9f 95 00 00       	call   d3c0 <loc_category_get_svcs@plt>
    3e21:	83 c4 10             	add    $0x10,%esp
    3e24:	85 c0                	test   %eax,%eax
    3e26:	75 38                	jne    3e60 <audio_pcm_open_default+0x90>
    3e28:	8b 55 f4             	mov    -0xc(%ebp),%edx
    3e2b:	85 d2                	test   %edx,%edx
    3e2d:	75 19                	jne    3e48 <audio_pcm_open_default+0x78>
    3e2f:	83 ec 0c             	sub    $0xc,%esp
    3e32:	89 45 e4             	mov    %eax,-0x1c(%ebp)
    3e35:	8b 45 f0             	mov    -0x10(%ebp),%eax
    3e38:	50                   	push   %eax
    3e39:	e8 d2 96 00 00       	call   d510 <free@plt>
    3e3e:	8b 45 e4             	mov    -0x1c(%ebp),%eax
    3e41:	83 c4 10             	add    $0x10,%esp
    3e44:	c9                   	leave  
    3e45:	c3                   	ret    
    3e46:	66 90                	xchg   %ax,%ax
    3e48:	8b 45 f0             	mov    -0x10(%ebp),%eax
    3e4b:	52                   	push   %edx
    3e4c:	6a 01                	push   $0x1
    3e4e:	68 41 26 9b 41       	push   $0x419b2641
    3e53:	8b 08                	mov    (%eax),%ecx
    3e55:	51                   	push   %ecx
    3e56:	e8 d5 91 00 00       	call   d030 <loc_service_connect@plt>
    3e5b:	83 c4 10             	add    $0x10,%esp
    3e5e:	eb cf                	jmp    3e2f <audio_pcm_open_default+0x5f>
    3e60:	31 c0                	xor    %eax,%eax
    3e62:	c9                   	leave  
    3e63:	c3                   	ret    
    3e64:	8d b6 00 00 00 00    	lea    0x0(%esi),%esi
    3e6a:	8d bf 00 00 00 00    	lea    0x0(%edi),%edi

00003e70 <audio_pcm_open>:
    3e70:	55                   	push   %ebp
    3e71:	89 e5                	mov    %esp,%ebp
    3e73:	83 ec 1c             	sub    $0x1c,%esp
    3e76:	8d 45 f4             	lea    -0xc(%ebp),%eax
    3e79:	8b 4d 08             	mov    0x8(%ebp),%ecx
    3e7c:	6a 00                	push   $0x0
    3e7e:	c7 45 f4 00 00 00 00 	movl   $0x0,-0xc(%ebp)
    3e85:	50                   	push   %eax
    3e86:	51                   	push   %ecx
    3e87:	e8 a4 95 00 00       	call   d430 <devman_fun_get_handle@plt>
    3e8c:	83 c4 10             	add    $0x10,%esp
    3e8f:	85 c0                	test   %eax,%eax
    3e91:	75 15                	jne    3ea8 <audio_pcm_open+0x38>
    3e93:	8b 55 f4             	mov    -0xc(%ebp),%edx
    3e96:	50                   	push   %eax
    3e97:	50                   	push   %eax
    3e98:	6a 01                	push   $0x1
    3e9a:	52                   	push   %edx
    3e9b:	e8 70 91 00 00       	call   d010 <devman_device_connect@plt>
    3ea0:	83 c4 10             	add    $0x10,%esp
    3ea3:	c9                   	leave  
    3ea4:	c3                   	ret    
    3ea5:	8d 76 00             	lea    0x0(%esi),%esi
    3ea8:	31 c0                	xor    %eax,%eax
    3eaa:	c9                   	leave  
    3eab:	c3                   	ret    
    3eac:	8d 74 26 00          	lea    0x0(%esi,%eiz,1),%esi

00003eb0 <audio_pcm_open_service>:
    3eb0:	55                   	push   %ebp
    3eb1:	89 e5                	mov    %esp,%ebp
    3eb3:	83 ec 0c             	sub    $0xc,%esp
    3eb6:	8b 45 08             	mov    0x8(%ebp),%eax
    3eb9:	6a 01                	push   $0x1
    3ebb:	68 41 26 9b 41       	push   $0x419b2641
    3ec0:	50                   	push   %eax
    3ec1:	e8 6a 91 00 00       	call   d030 <loc_service_connect@plt>
    3ec6:	c9                   	leave  
    3ec7:	c3                   	ret    
    3ec8:	90                   	nop
    3ec9:	8d b4 26 00 00 00 00 	lea    0x0(%esi,%eiz,1),%esi

00003ed0 <audio_pcm_close>:
    3ed0:	55                   	push   %ebp
    3ed1:	89 e5                	mov    %esp,%ebp
    3ed3:	8b 45 08             	mov    0x8(%ebp),%eax
    3ed6:	85 c0                	test   %eax,%eax
    3ed8:	74 06                	je     3ee0 <audio_pcm_close+0x10>
    3eda:	5d                   	pop    %ebp
    3edb:	e9 80 91 00 00       	jmp    d060 <async_hangup@plt>
    3ee0:	5d                   	pop    %ebp
    3ee1:	c3                   	ret    
    3ee2:	8d b4 26 00 00 00 00 	lea    0x0(%esi,%eiz,1),%esi
    3ee9:	8d bc 27 00 00 00 00 	lea    0x0(%edi,%eiz,1),%edi

00003ef0 <audio_pcm_get_info_str>:
    3ef0:	55                   	push   %ebp
    3ef1:	89 e5                	mov    %esp,%ebp
    3ef3:	57                   	push   %edi
    3ef4:	56                   	push   %esi
    3ef5:	53                   	push   %ebx
    3ef6:	83 ec 2c             	sub    $0x2c,%esp
    3ef9:	8b 45 0c             	mov    0xc(%ebp),%eax
    3efc:	85 c0                	test   %eax,%eax
    3efe:	0f 84 ac 00 00 00    	je     3fb0 <audio_pcm_get_info_str+0xc0>
    3f04:	83 ec 0c             	sub    $0xc,%esp
    3f07:	8b 45 08             	mov    0x8(%ebp),%eax
    3f0a:	50                   	push   %eax
    3f0b:	e8 00 95 00 00       	call   d410 <async_exchange_begin@plt>
    3f10:	83 c4 0c             	add    $0xc,%esp
    3f13:	89 c6                	mov    %eax,%esi
    3f15:	8d 45 e4             	lea    -0x1c(%ebp),%eax
    3f18:	6a 00                	push   $0x0
    3f1a:	6a 00                	push   $0x0
    3f1c:	6a 00                	push   $0x0
    3f1e:	6a 00                	push   $0x0
    3f20:	50                   	push   %eax
    3f21:	6a 00                	push   $0x0
    3f23:	6a 00                	push   $0x0
    3f25:	6a 00                	push   $0x0
    3f27:	6a 00                	push   $0x0
    3f29:	68 04 04 00 00       	push   $0x404
    3f2e:	56                   	push   %esi
    3f2f:	e8 1c 92 00 00       	call   d150 <async_req_fast@plt>
    3f34:	83 c4 30             	add    $0x30,%esp
    3f37:	89 c3                	mov    %eax,%ebx
    3f39:	85 c0                	test   %eax,%eax
    3f3b:	75 2e                	jne    3f6b <audio_pcm_get_info_str+0x7b>
    3f3d:	8b 45 e4             	mov    -0x1c(%ebp),%eax
    3f40:	57                   	push   %edi
    3f41:	57                   	push   %edi
    3f42:	50                   	push   %eax
    3f43:	6a 01                	push   $0x1
    3f45:	e8 b6 92 00 00       	call   d200 <calloc@plt>
    3f4a:	83 c4 10             	add    $0x10,%esp
    3f4d:	89 c7                	mov    %eax,%edi
    3f4f:	85 c0                	test   %eax,%eax
    3f51:	74 64                	je     3fb7 <audio_pcm_get_info_str+0xc7>
    3f53:	8b 55 e4             	mov    -0x1c(%ebp),%edx
    3f56:	50                   	push   %eax
    3f57:	52                   	push   %edx
    3f58:	57                   	push   %edi
    3f59:	56                   	push   %esi
    3f5a:	e8 21 94 00 00       	call   d380 <async_data_read_start@plt>
    3f5f:	83 c4 10             	add    $0x10,%esp
    3f62:	85 c0                	test   %eax,%eax
    3f64:	75 22                	jne    3f88 <audio_pcm_get_info_str+0x98>
    3f66:	8b 45 0c             	mov    0xc(%ebp),%eax
    3f69:	89 38                	mov    %edi,(%eax)
    3f6b:	83 ec 0c             	sub    $0xc,%esp
    3f6e:	56                   	push   %esi
    3f6f:	e8 5c 92 00 00       	call   d1d0 <async_exchange_end@plt>
    3f74:	83 c4 10             	add    $0x10,%esp
    3f77:	89 d8                	mov    %ebx,%eax
    3f79:	8d 65 f4             	lea    -0xc(%ebp),%esp
    3f7c:	5b                   	pop    %ebx
    3f7d:	5e                   	pop    %esi
    3f7e:	5f                   	pop    %edi
    3f7f:	5d                   	pop    %ebp
    3f80:	c3                   	ret    
    3f81:	8d b4 26 00 00 00 00 	lea    0x0(%esi,%eiz,1),%esi
    3f88:	83 ec 0c             	sub    $0xc,%esp
    3f8b:	89 45 d4             	mov    %eax,-0x2c(%ebp)
    3f8e:	57                   	push   %edi
    3f8f:	e8 7c 95 00 00       	call   d510 <free@plt>
    3f94:	89 34 24             	mov    %esi,(%esp)
    3f97:	e8 34 92 00 00       	call   d1d0 <async_exchange_end@plt>
    3f9c:	8b 45 d4             	mov    -0x2c(%ebp),%eax
    3f9f:	83 c4 10             	add    $0x10,%esp
    3fa2:	8d 65 f4             	lea    -0xc(%ebp),%esp
    3fa5:	5b                   	pop    %ebx
    3fa6:	5e                   	pop    %esi
    3fa7:	5f                   	pop    %edi
    3fa8:	5d                   	pop    %ebp
    3fa9:	c3                   	ret    
    3faa:	8d b6 00 00 00 00    	lea    0x0(%esi),%esi
    3fb0:	b8 f2 ff ff ff       	mov    $0xfffffff2,%eax
    3fb5:	eb c2                	jmp    3f79 <audio_pcm_get_info_str+0x89>
    3fb7:	51                   	push   %ecx
    3fb8:	6a 00                	push   $0x0
    3fba:	6a ff                	push   $0xffffffff
    3fbc:	56                   	push   %esi
    3fbd:	e8 be 93 00 00       	call   d380 <async_data_read_start@plt>
    3fc2:	89 34 24             	mov    %esi,(%esp)
    3fc5:	e8 06 92 00 00       	call   d1d0 <async_exchange_end@plt>
    3fca:	83 c4 10             	add    $0x10,%esp
    3fcd:	b8 fe ff ff ff       	mov    $0xfffffffe,%eax
    3fd2:	eb a5                	jmp    3f79 <audio_pcm_get_info_str+0x89>
    3fd4:	8d b6 00 00 00 00    	lea    0x0(%esi),%esi
    3fda:	8d bf 00 00 00 00    	lea    0x0(%edi),%edi

00003fe0 <audio_pcm_query_cap>:
    3fe0:	55                   	push   %ebp
    3fe1:	89 e5                	mov    %esp,%ebp
    3fe3:	53                   	push   %ebx
    3fe4:	83 ec 30             	sub    $0x30,%esp
    3fe7:	8b 45 08             	mov    0x8(%ebp),%eax
    3fea:	50                   	push   %eax
    3feb:	e8 20 94 00 00       	call   d410 <async_exchange_begin@plt>
    3ff0:	83 c4 0c             	add    $0xc,%esp
    3ff3:	89 c3                	mov    %eax,%ebx
    3ff5:	8b 55 0c             	mov    0xc(%ebp),%edx
    3ff8:	8d 45 f4             	lea    -0xc(%ebp),%eax
    3ffb:	6a 00                	push   $0x0
    3ffd:	c7 45 f4 00 00 00 00 	movl   $0x0,-0xc(%ebp)
    4004:	6a 00                	push   $0x0
    4006:	6a 00                	push   $0x0
    4008:	6a 00                	push   $0x0
    400a:	50                   	push   %eax
    400b:	6a 00                	push   $0x0
    400d:	6a 00                	push   $0x0
    400f:	52                   	push   %edx
    4010:	6a 01                	push   $0x1
    4012:	68 04 04 00 00       	push   $0x404
    4017:	53                   	push   %ebx
    4018:	e8 33 91 00 00       	call   d150 <async_req_fast@plt>
    401d:	83 c4 24             	add    $0x24,%esp
    4020:	89 45 e4             	mov    %eax,-0x1c(%ebp)
    4023:	53                   	push   %ebx
    4024:	e8 a7 91 00 00       	call   d1d0 <async_exchange_end@plt>
    4029:	8b 45 e4             	mov    -0x1c(%ebp),%eax
    402c:	83 c4 10             	add    $0x10,%esp
    402f:	85 c0                	test   %eax,%eax
    4031:	75 03                	jne    4036 <audio_pcm_query_cap+0x56>
    4033:	8b 45 f4             	mov    -0xc(%ebp),%eax
    4036:	8b 5d fc             	mov    -0x4(%ebp),%ebx
    4039:	c9                   	leave  
    403a:	c3                   	ret    
    403b:	90                   	nop
    403c:	8d 74 26 00          	lea    0x0(%esi,%eiz,1),%esi

00004040 <audio_pcm_get_buffer_pos>:
    4040:	55                   	push   %ebp
    4041:	89 e5                	mov    %esp,%ebp
    4043:	56                   	push   %esi
    4044:	53                   	push   %ebx
    4045:	83 ec 20             	sub    $0x20,%esp
    4048:	8b 75 0c             	mov    0xc(%ebp),%esi
    404b:	85 f6                	test   %esi,%esi
    404d:	74 61                	je     40b0 <audio_pcm_get_buffer_pos+0x70>
    404f:	83 ec 0c             	sub    $0xc,%esp
    4052:	8b 45 08             	mov    0x8(%ebp),%eax
    4055:	50                   	push   %eax
    4056:	e8 b5 93 00 00       	call   d410 <async_exchange_begin@plt>
    405b:	83 c4 0c             	add    $0xc,%esp
    405e:	89 c3                	mov    %eax,%ebx
    4060:	8d 45 f4             	lea    -0xc(%ebp),%eax
    4063:	c7 45 f4 00 00 00 00 	movl   $0x0,-0xc(%ebp)
    406a:	6a 00                	push   $0x0
    406c:	6a 00                	push   $0x0
    406e:	6a 00                	push   $0x0
    4070:	6a 00                	push   $0x0
    4072:	50                   	push   %eax
    4073:	6a 00                	push   $0x0
    4075:	6a 00                	push   $0x0
    4077:	6a 00                	push   $0x0
    4079:	6a 07                	push   $0x7
    407b:	68 04 04 00 00       	push   $0x404
    4080:	53                   	push   %ebx
    4081:	e8 ca 90 00 00       	call   d150 <async_req_fast@plt>
    4086:	83 c4 30             	add    $0x30,%esp
    4089:	85 c0                	test   %eax,%eax
    408b:	74 1b                	je     40a8 <audio_pcm_get_buffer_pos+0x68>
    408d:	83 ec 0c             	sub    $0xc,%esp
    4090:	89 45 e4             	mov    %eax,-0x1c(%ebp)
    4093:	53                   	push   %ebx
    4094:	e8 37 91 00 00       	call   d1d0 <async_exchange_end@plt>
    4099:	83 c4 10             	add    $0x10,%esp
    409c:	8b 45 e4             	mov    -0x1c(%ebp),%eax
    409f:	8d 65 f8             	lea    -0x8(%ebp),%esp
    40a2:	5b                   	pop    %ebx
    40a3:	5e                   	pop    %esi
    40a4:	5d                   	pop    %ebp
    40a5:	c3                   	ret    
    40a6:	66 90                	xchg   %ax,%ax
    40a8:	8b 55 f4             	mov    -0xc(%ebp),%edx
    40ab:	89 16                	mov    %edx,(%esi)
    40ad:	eb de                	jmp    408d <audio_pcm_get_buffer_pos+0x4d>
    40af:	90                   	nop
    40b0:	b8 f2 ff ff ff       	mov    $0xfffffff2,%eax
    40b5:	eb e8                	jmp    409f <audio_pcm_get_buffer_pos+0x5f>
    40b7:	89 f6                	mov    %esi,%esi
    40b9:	8d bc 27 00 00 00 00 	lea    0x0(%edi,%eiz,1),%edi

000040c0 <audio_pcm_test_format>:
    40c0:	55                   	push   %ebp
    40c1:	89 e5                	mov    %esp,%ebp
    40c3:	57                   	push   %edi
    40c4:	56                   	push   %esi
    40c5:	53                   	push   %ebx
    40c6:	83 ec 38             	sub    $0x38,%esp
    40c9:	8b 45 08             	mov    0x8(%ebp),%eax
    40cc:	8b 5d 0c             	mov    0xc(%ebp),%ebx
    40cf:	50                   	push   %eax
    40d0:	e8 3b 93 00 00       	call   d410 <async_exchange_begin@plt>
    40d5:	83 c4 10             	add    $0x10,%esp
    40d8:	89 c6                	mov    %eax,%esi
    40da:	85 db                	test   %ebx,%ebx
    40dc:	0f 84 be 00 00 00    	je     41a0 <audio_pcm_test_format+0xe0>
    40e2:	8b 03                	mov    (%ebx),%eax
    40e4:	8b 7d 10             	mov    0x10(%ebp),%edi
    40e7:	89 45 dc             	mov    %eax,-0x24(%ebp)
    40ea:	85 ff                	test   %edi,%edi
    40ec:	0f 84 be 00 00 00    	je     41b0 <audio_pcm_test_format+0xf0>
    40f2:	8b 4d 10             	mov    0x10(%ebp),%ecx
    40f5:	8b 11                	mov    (%ecx),%edx
    40f7:	8b 4d 14             	mov    0x14(%ebp),%ecx
    40fa:	89 55 e0             	mov    %edx,-0x20(%ebp)
    40fd:	85 c9                	test   %ecx,%ecx
    40ff:	0f 84 bb 00 00 00    	je     41c0 <audio_pcm_test_format+0x100>
    4105:	8b 7d 14             	mov    0x14(%ebp),%edi
    4108:	8b 0f                	mov    (%edi),%ecx
    410a:	57                   	push   %edi
    410b:	8d 7d e4             	lea    -0x1c(%ebp),%edi
    410e:	6a 00                	push   $0x0
    4110:	6a 00                	push   $0x0
    4112:	57                   	push   %edi
    4113:	8d 7d e0             	lea    -0x20(%ebp),%edi
    4116:	57                   	push   %edi
    4117:	8d 7d dc             	lea    -0x24(%ebp),%edi
    411a:	57                   	push   %edi
    411b:	89 4d e4             	mov    %ecx,-0x1c(%ebp)
    411e:	51                   	push   %ecx
    411f:	52                   	push   %edx
    4120:	50                   	push   %eax
    4121:	6a 04                	push   $0x4
    4123:	68 04 04 00 00       	push   $0x404
    4128:	56                   	push   %esi
    4129:	e8 22 90 00 00       	call   d150 <async_req_fast@plt>
    412e:	83 c4 24             	add    $0x24,%esp
    4131:	89 45 d4             	mov    %eax,-0x2c(%ebp)
    4134:	56                   	push   %esi
    4135:	e8 96 90 00 00       	call   d1d0 <async_exchange_end@plt>
    413a:	8b 45 d4             	mov    -0x2c(%ebp),%eax
    413d:	83 c4 10             	add    $0x10,%esp
    4140:	85 c0                	test   %eax,%eax
    4142:	74 34                	je     4178 <audio_pcm_test_format+0xb8>
    4144:	83 f8 fd             	cmp    $0xfffffffd,%eax
    4147:	74 2f                	je     4178 <audio_pcm_test_format+0xb8>
    4149:	85 db                	test   %ebx,%ebx
    414b:	74 05                	je     4152 <audio_pcm_test_format+0x92>
    414d:	8b 55 dc             	mov    -0x24(%ebp),%edx
    4150:	89 13                	mov    %edx,(%ebx)
    4152:	8b 4d 10             	mov    0x10(%ebp),%ecx
    4155:	85 c9                	test   %ecx,%ecx
    4157:	74 08                	je     4161 <audio_pcm_test_format+0xa1>
    4159:	8b 55 e0             	mov    -0x20(%ebp),%edx
    415c:	8b 75 10             	mov    0x10(%ebp),%esi
    415f:	89 16                	mov    %edx,(%esi)
    4161:	8b 55 14             	mov    0x14(%ebp),%edx
    4164:	85 d2                	test   %edx,%edx
    4166:	74 08                	je     4170 <audio_pcm_test_format+0xb0>
    4168:	8b 4d 14             	mov    0x14(%ebp),%ecx
    416b:	8b 55 e4             	mov    -0x1c(%ebp),%edx
    416e:	89 11                	mov    %edx,(%ecx)
    4170:	8d 65 f4             	lea    -0xc(%ebp),%esp
    4173:	5b                   	pop    %ebx
    4174:	5e                   	pop    %esi
    4175:	5f                   	pop    %edi
    4176:	5d                   	pop    %ebp
    4177:	c3                   	ret    
    4178:	85 db                	test   %ebx,%ebx
    417a:	74 07                	je     4183 <audio_pcm_test_format+0xc3>
    417c:	8b 55 dc             	mov    -0x24(%ebp),%edx
    417f:	39 13                	cmp    %edx,(%ebx)
    4181:	75 cd                	jne    4150 <audio_pcm_test_format+0x90>
    4183:	8b 7d 10             	mov    0x10(%ebp),%edi
    4186:	85 ff                	test   %edi,%edi
    4188:	74 3e                	je     41c8 <audio_pcm_test_format+0x108>
    418a:	8b 75 10             	mov    0x10(%ebp),%esi
    418d:	8b 55 e0             	mov    -0x20(%ebp),%edx
    4190:	39 16                	cmp    %edx,(%esi)
    4192:	74 34                	je     41c8 <audio_pcm_test_format+0x108>
    4194:	85 db                	test   %ebx,%ebx
    4196:	75 b5                	jne    414d <audio_pcm_test_format+0x8d>
    4198:	eb c5                	jmp    415f <audio_pcm_test_format+0x9f>
    419a:	8d b6 00 00 00 00    	lea    0x0(%esi),%esi
    41a0:	31 c0                	xor    %eax,%eax
    41a2:	8b 7d 10             	mov    0x10(%ebp),%edi
    41a5:	89 45 dc             	mov    %eax,-0x24(%ebp)
    41a8:	85 ff                	test   %edi,%edi
    41aa:	0f 85 42 ff ff ff    	jne    40f2 <audio_pcm_test_format+0x32>
    41b0:	31 d2                	xor    %edx,%edx
    41b2:	8b 4d 14             	mov    0x14(%ebp),%ecx
    41b5:	89 55 e0             	mov    %edx,-0x20(%ebp)
    41b8:	85 c9                	test   %ecx,%ecx
    41ba:	0f 85 45 ff ff ff    	jne    4105 <audio_pcm_test_format+0x45>
    41c0:	31 c9                	xor    %ecx,%ecx
    41c2:	e9 43 ff ff ff       	jmp    410a <audio_pcm_test_format+0x4a>
    41c7:	90                   	nop
    41c8:	8b 75 14             	mov    0x14(%ebp),%esi
    41cb:	85 f6                	test   %esi,%esi
    41cd:	74 0e                	je     41dd <audio_pcm_test_format+0x11d>
    41cf:	8b 75 14             	mov    0x14(%ebp),%esi
    41d2:	8b 4d e4             	mov    -0x1c(%ebp),%ecx
    41d5:	39 0e                	cmp    %ecx,(%esi)
    41d7:	0f 85 6c ff ff ff    	jne    4149 <audio_pcm_test_format+0x89>
    41dd:	31 c0                	xor    %eax,%eax
    41df:	eb 8f                	jmp    4170 <audio_pcm_test_format+0xb0>
    41e1:	eb 0d                	jmp    41f0 <audio_pcm_register_event_callback>
    41e3:	90                   	nop
    41e4:	90                   	nop
    41e5:	90                   	nop
    41e6:	90                   	nop
    41e7:	90                   	nop
    41e8:	90                   	nop
    41e9:	90                   	nop
    41ea:	90                   	nop
    41eb:	90                   	nop
    41ec:	90                   	nop
    41ed:	90                   	nop
    41ee:	90                   	nop
    41ef:	90                   	nop

000041f0 <audio_pcm_register_event_callback>:
    41f0:	55                   	push   %ebp
    41f1:	89 e5                	mov    %esp,%ebp
    41f3:	56                   	push   %esi
    41f4:	53                   	push   %ebx
    41f5:	83 ec 20             	sub    $0x20,%esp
    41f8:	8b 75 0c             	mov    0xc(%ebp),%esi
    41fb:	85 f6                	test   %esi,%esi
    41fd:	74 71                	je     4270 <audio_pcm_register_event_callback+0x80>
    41ff:	83 ec 0c             	sub    $0xc,%esp
    4202:	8b 4d 08             	mov    0x8(%ebp),%ecx
    4205:	51                   	push   %ecx
    4206:	e8 05 92 00 00       	call   d410 <async_exchange_begin@plt>
    420b:	83 c4 0c             	add    $0xc,%esp
    420e:	89 c3                	mov    %eax,%ebx
    4210:	6a 00                	push   $0x0
    4212:	6a 00                	push   $0x0
    4214:	6a 00                	push   $0x0
    4216:	6a 00                	push   $0x0
    4218:	6a 00                	push   $0x0
    421a:	6a 00                	push   $0x0
    421c:	6a 00                	push   $0x0
    421e:	6a 00                	push   $0x0
    4220:	6a 02                	push   $0x2
    4222:	68 04 04 00 00       	push   $0x404
    4227:	50                   	push   %eax
    4228:	e8 23 8f 00 00       	call   d150 <async_req_fast@plt>
    422d:	83 c4 30             	add    $0x30,%esp
    4230:	85 c0                	test   %eax,%eax
    4232:	74 1c                	je     4250 <audio_pcm_register_event_callback+0x60>
    4234:	83 ec 0c             	sub    $0xc,%esp
    4237:	89 45 e4             	mov    %eax,-0x1c(%ebp)
    423a:	53                   	push   %ebx
    423b:	e8 90 8f 00 00       	call   d1d0 <async_exchange_end@plt>
    4240:	83 c4 10             	add    $0x10,%esp
    4243:	8b 45 e4             	mov    -0x1c(%ebp),%eax
    4246:	8d 65 f8             	lea    -0x8(%ebp),%esp
    4249:	5b                   	pop    %ebx
    424a:	5e                   	pop    %esi
    424b:	5d                   	pop    %ebp
    424c:	c3                   	ret    
    424d:	8d 76 00             	lea    0x0(%esi),%esi
    4250:	8b 55 10             	mov    0x10(%ebp),%edx
    4253:	50                   	push   %eax
    4254:	8d 45 f4             	lea    -0xc(%ebp),%eax
    4257:	50                   	push   %eax
    4258:	52                   	push   %edx
    4259:	56                   	push   %esi
    425a:	6a 00                	push   $0x0
    425c:	6a 00                	push   $0x0
    425e:	68 16 86 8f db       	push   $0xdb8f8616
    4263:	53                   	push   %ebx
    4264:	e8 b7 90 00 00       	call   d320 <async_create_callback_port@plt>
    4269:	83 c4 20             	add    $0x20,%esp
    426c:	eb c6                	jmp    4234 <audio_pcm_register_event_callback+0x44>
    426e:	66 90                	xchg   %ax,%ax
    4270:	b8 f2 ff ff ff       	mov    $0xfffffff2,%eax
    4275:	eb cf                	jmp    4246 <audio_pcm_register_event_callback+0x56>
    4277:	89 f6                	mov    %esi,%esi
    4279:	8d bc 27 00 00 00 00 	lea    0x0(%edi,%eiz,1),%edi

00004280 <audio_pcm_unregister_event_callback>:
    4280:	55                   	push   %ebp
    4281:	89 e5                	mov    %esp,%ebp
    4283:	53                   	push   %ebx
    4284:	83 ec 20             	sub    $0x20,%esp
    4287:	8b 45 08             	mov    0x8(%ebp),%eax
    428a:	50                   	push   %eax
    428b:	e8 80 91 00 00       	call   d410 <async_exchange_begin@plt>
    4290:	83 c4 0c             	add    $0xc,%esp
    4293:	89 c3                	mov    %eax,%ebx
    4295:	6a 00                	push   $0x0
    4297:	6a 00                	push   $0x0
    4299:	6a 00                	push   $0x0
    429b:	6a 00                	push   $0x0
    429d:	6a 00                	push   $0x0
    429f:	6a 00                	push   $0x0
    42a1:	6a 00                	push   $0x0
    42a3:	6a 00                	push   $0x0
    42a5:	6a 03                	push   $0x3
    42a7:	68 04 04 00 00       	push   $0x404
    42ac:	50                   	push   %eax
    42ad:	e8 9e 8e 00 00       	call   d150 <async_req_fast@plt>
    42b2:	83 c4 24             	add    $0x24,%esp
    42b5:	89 45 f4             	mov    %eax,-0xc(%ebp)
    42b8:	53                   	push   %ebx
    42b9:	e8 12 8f 00 00       	call   d1d0 <async_exchange_end@plt>
    42be:	8b 45 f4             	mov    -0xc(%ebp),%eax
    42c1:	8b 5d fc             	mov    -0x4(%ebp),%ebx
    42c4:	c9                   	leave  
    42c5:	c3                   	ret    
    42c6:	8d 76 00             	lea    0x0(%esi),%esi
    42c9:	8d bc 27 00 00 00 00 	lea    0x0(%edi,%eiz,1),%edi

000042d0 <audio_pcm_get_buffer>:
    42d0:	55                   	push   %ebp
    42d1:	89 e5                	mov    %esp,%ebp
    42d3:	57                   	push   %edi
    42d4:	56                   	push   %esi
    42d5:	53                   	push   %ebx
    42d6:	83 ec 2c             	sub    $0x2c,%esp
    42d9:	8b 75 0c             	mov    0xc(%ebp),%esi
    42dc:	8b 5d 10             	mov    0x10(%ebp),%ebx
    42df:	85 f6                	test   %esi,%esi
    42e1:	0f 84 91 00 00 00    	je     4378 <audio_pcm_get_buffer+0xa8>
    42e7:	85 db                	test   %ebx,%ebx
    42e9:	0f 84 89 00 00 00    	je     4378 <audio_pcm_get_buffer+0xa8>
    42ef:	83 ec 0c             	sub    $0xc,%esp
    42f2:	8b 55 08             	mov    0x8(%ebp),%edx
    42f5:	52                   	push   %edx
    42f6:	e8 15 91 00 00       	call   d410 <async_exchange_begin@plt>
    42fb:	83 c4 0c             	add    $0xc,%esp
    42fe:	89 c7                	mov    %eax,%edi
    4300:	8d 55 e0             	lea    -0x20(%ebp),%edx
    4303:	8b 03                	mov    (%ebx),%eax
    4305:	89 45 e0             	mov    %eax,-0x20(%ebp)
    4308:	6a 00                	push   $0x0
    430a:	6a 00                	push   $0x0
    430c:	6a 00                	push   $0x0
    430e:	6a 00                	push   $0x0
    4310:	52                   	push   %edx
    4311:	6a 00                	push   $0x0
    4313:	6a 00                	push   $0x0
    4315:	50                   	push   %eax
    4316:	6a 05                	push   $0x5
    4318:	68 04 04 00 00       	push   $0x404
    431d:	57                   	push   %edi
    431e:	e8 2d 8e 00 00       	call   d150 <async_req_fast@plt>
    4323:	83 c4 30             	add    $0x30,%esp
    4326:	85 c0                	test   %eax,%eax
    4328:	75 2d                	jne    4357 <audio_pcm_get_buffer+0x87>
    432a:	83 ec 0c             	sub    $0xc,%esp
    432d:	8d 45 e4             	lea    -0x1c(%ebp),%eax
    4330:	c7 45 e4 00 00 00 00 	movl   $0x0,-0x1c(%ebp)
    4337:	50                   	push   %eax
    4338:	8b 45 e0             	mov    -0x20(%ebp),%eax
    433b:	6a 00                	push   $0x0
    433d:	6a 00                	push   $0x0
    433f:	50                   	push   %eax
