
top:     file format elf32-i386


Disassembly of section .init:

000010f4 <__entry>:
    10f4:	66 8c d0             	mov    %ss,%ax
    10f7:	8e d8                	mov    %eax,%ds
    10f9:	8e c0                	mov    %eax,%es
    10fb:	8e e0                	mov    %eax,%fs
    10fd:	b8 01 00 00 00       	mov    $0x1,%eax
    1102:	0f a2                	cpuid  
    1104:	0f ba e2 0b          	bt     $0xb,%edx
    1108:	73 0c                	jae    1116 <__entry+0x22>
    110a:	8d 05 78 66 00 00    	lea    0x6678,%eax
    1110:	c7 00 f0 4e 00 00    	movl   $0x4ef0,(%eax)
    1116:	6a 00                	push   $0x0
    1118:	6a 00                	push   $0x0
    111a:	89 e5                	mov    %esp,%ebp
    111c:	57                   	push   %edi
    111d:	e8 2e 3c 00 00       	call   4d50 <__main@plt>

Disassembly of section .text:

00001140 <compute_percentages>:
    1140:	55                   	push   %ebp
    1141:	89 e5                	mov    %esp,%ebp
    1143:	57                   	push   %edi
    1144:	56                   	push   %esi
    1145:	53                   	push   %ebx
    1146:	83 ec 54             	sub    $0x54,%esp
    1149:	89 45 d4             	mov    %eax,-0x2c(%ebp)
    114c:	8b 42 24             	mov    0x24(%edx),%eax
    114f:	89 55 e4             	mov    %edx,-0x1c(%ebp)
    1152:	89 45 cc             	mov    %eax,-0x34(%ebp)
    1155:	85 c0                	test   %eax,%eax
    1157:	0f 84 f3 00 00 00    	je     1250 <compute_percentages+0x110>
    115d:	8b 45 e4             	mov    -0x1c(%ebp),%eax
    1160:	c7 45 ec 00 00 00 00 	movl   $0x0,-0x14(%ebp)
    1167:	8b 78 28             	mov    0x28(%eax),%edi
    116a:	8b 40 2c             	mov    0x2c(%eax),%eax
    116d:	83 c7 08             	add    $0x8,%edi
    1170:	89 45 d0             	mov    %eax,-0x30(%ebp)
    1173:	89 7d e8             	mov    %edi,-0x18(%ebp)
    1176:	8b 7d d4             	mov    -0x2c(%ebp),%edi
    1179:	8b 7f 28             	mov    0x28(%edi),%edi
    117c:	83 c7 08             	add    $0x8,%edi
    117f:	89 7d e0             	mov    %edi,-0x20(%ebp)
    1182:	8d b6 00 00 00 00    	lea    0x0(%esi),%esi
    1188:	8b 45 e8             	mov    -0x18(%ebp),%eax
    118b:	8b 55 e0             	mov    -0x20(%ebp),%edx
    118e:	8b 08                	mov    (%eax),%ecx
    1190:	8b 58 04             	mov    0x4(%eax),%ebx
    1193:	2b 0a                	sub    (%edx),%ecx
    1195:	8b 70 08             	mov    0x8(%eax),%esi
    1198:	1b 5a 04             	sbb    0x4(%edx),%ebx
    119b:	2b 72 08             	sub    0x8(%edx),%esi
    119e:	8b 78 0c             	mov    0xc(%eax),%edi
    11a1:	89 c8                	mov    %ecx,%eax
    11a3:	1b 7a 0c             	sbb    0xc(%edx),%edi
    11a6:	01 f0                	add    %esi,%eax
    11a8:	89 da                	mov    %ebx,%edx
    11aa:	89 45 d8             	mov    %eax,-0x28(%ebp)
    11ad:	11 fa                	adc    %edi,%edx
    11af:	89 55 dc             	mov    %edx,-0x24(%ebp)
    11b2:	8b 55 dc             	mov    -0x24(%ebp),%edx
    11b5:	09 c2                	or     %eax,%edx
    11b7:	0f 84 9b 05 00 00    	je     1758 <compute_percentages+0x618>
    11bd:	89 c8                	mov    %ecx,%eax
    11bf:	89 da                	mov    %ebx,%edx
    11c1:	0f a4 c2 01          	shld   $0x1,%eax,%edx
    11c5:	01 c0                	add    %eax,%eax
    11c7:	01 c8                	add    %ecx,%eax
    11c9:	11 da                	adc    %ebx,%edx
    11cb:	0f a4 c2 03          	shld   $0x3,%eax,%edx
    11cf:	c1 e0 03             	shl    $0x3,%eax
    11d2:	01 c8                	add    %ecx,%eax
    11d4:	11 da                	adc    %ebx,%edx
    11d6:	8b 5d d0             	mov    -0x30(%ebp),%ebx
    11d9:	0f a4 c2 02          	shld   $0x2,%eax,%edx
    11dd:	c1 e0 02             	shl    $0x2,%eax
    11e0:	89 53 04             	mov    %edx,0x4(%ebx)
    11e3:	89 03                	mov    %eax,(%ebx)
    11e5:	8b 55 dc             	mov    -0x24(%ebp),%edx
    11e8:	8b 45 d8             	mov    -0x28(%ebp),%eax
    11eb:	89 53 0c             	mov    %edx,0xc(%ebx)
    11ee:	89 43 08             	mov    %eax,0x8(%ebx)
    11f1:	89 fa                	mov    %edi,%edx
    11f3:	89 f0                	mov    %esi,%eax
    11f5:	0f a4 c2 01          	shld   $0x1,%eax,%edx
    11f9:	01 c0                	add    %eax,%eax
    11fb:	01 f0                	add    %esi,%eax
    11fd:	11 fa                	adc    %edi,%edx
    11ff:	0f a4 c2 03          	shld   $0x3,%eax,%edx
    1203:	c1 e0 03             	shl    $0x3,%eax
    1206:	01 c6                	add    %eax,%esi
    1208:	8b 45 d8             	mov    -0x28(%ebp),%eax
    120b:	11 d7                	adc    %edx,%edi
    120d:	89 43 18             	mov    %eax,0x18(%ebx)
    1210:	8b 45 e8             	mov    -0x18(%ebp),%eax
    1213:	8b 55 dc             	mov    -0x24(%ebp),%edx
    1216:	0f a4 f7 02          	shld   $0x2,%esi,%edi
    121a:	83 c0 18             	add    $0x18,%eax
    121d:	89 7b 14             	mov    %edi,0x14(%ebx)
    1220:	c1 e6 02             	shl    $0x2,%esi
    1223:	89 45 e8             	mov    %eax,-0x18(%ebp)
    1226:	89 73 10             	mov    %esi,0x10(%ebx)
    1229:	8b 45 e0             	mov    -0x20(%ebp),%eax
    122c:	8b 75 ec             	mov    -0x14(%ebp),%esi
    122f:	83 c0 18             	add    $0x18,%eax
    1232:	46                   	inc    %esi
    1233:	89 45 e0             	mov    %eax,-0x20(%ebp)
    1236:	89 75 ec             	mov    %esi,-0x14(%ebp)
    1239:	89 d8                	mov    %ebx,%eax
    123b:	83 c0 20             	add    $0x20,%eax
    123e:	8b 75 ec             	mov    -0x14(%ebp),%esi
    1241:	89 53 1c             	mov    %edx,0x1c(%ebx)
    1244:	89 45 d0             	mov    %eax,-0x30(%ebp)
    1247:	3b 75 cc             	cmp    -0x34(%ebp),%esi
    124a:	0f 82 38 ff ff ff    	jb     1188 <compute_percentages+0x48>
    1250:	8b 45 e4             	mov    -0x1c(%ebp),%eax
    1253:	8b 40 30             	mov    0x30(%eax),%eax
    1256:	89 45 d8             	mov    %eax,-0x28(%ebp)
    1259:	85 c0                	test   %eax,%eax
    125b:	0f 84 48 02 00 00    	je     14a9 <compute_percentages+0x369>
    1261:	8b 45 e4             	mov    -0x1c(%ebp),%eax
    1264:	c7 45 a0 00 00 00 00 	movl   $0x0,-0x60(%ebp)
    126b:	c7 45 a4 00 00 00 00 	movl   $0x0,-0x5c(%ebp)
    1272:	c7 45 a8 00 00 00 00 	movl   $0x0,-0x58(%ebp)
    1279:	8b 78 54             	mov    0x54(%eax),%edi
    127c:	8b 40 58             	mov    0x58(%eax),%eax
    127f:	89 45 cc             	mov    %eax,-0x34(%ebp)
    1282:	8b 45 d4             	mov    -0x2c(%ebp),%eax
    1285:	89 7d e0             	mov    %edi,-0x20(%ebp)
    1288:	c7 45 ac 00 00 00 00 	movl   $0x0,-0x54(%ebp)
    128f:	8b 40 30             	mov    0x30(%eax),%eax
    1292:	c7 45 b0 00 00 00 00 	movl   $0x0,-0x50(%ebp)
    1299:	89 45 ec             	mov    %eax,-0x14(%ebp)
    129c:	c7 45 b4 00 00 00 00 	movl   $0x0,-0x4c(%ebp)
    12a3:	c7 45 b8 00 00 00 00 	movl   $0x0,-0x48(%ebp)
    12aa:	c7 45 bc 00 00 00 00 	movl   $0x0,-0x44(%ebp)
    12b1:	31 ff                	xor    %edi,%edi
    12b3:	90                   	nop
    12b4:	8d 74 26 00          	lea    0x0(%esi,%eiz,1),%esi
    12b8:	8b 45 ec             	mov    -0x14(%ebp),%eax
    12bb:	85 c0                	test   %eax,%eax
    12bd:	74 62                	je     1321 <compute_percentages+0x1e1>
    12bf:	8d 04 7f             	lea    (%edi,%edi,2),%eax
    12c2:	8d 14 87             	lea    (%edi,%eax,4),%edx
    12c5:	8b 45 e4             	mov    -0x1c(%ebp),%eax
    12c8:	8b 40 34             	mov    0x34(%eax),%eax
    12cb:	8d 04 d0             	lea    (%eax,%edx,8),%eax
    12ce:	89 45 c0             	mov    %eax,-0x40(%ebp)
    12d1:	8b 10                	mov    (%eax),%edx
    12d3:	8b 40 04             	mov    0x4(%eax),%eax
    12d6:	89 c1                	mov    %eax,%ecx
    12d8:	89 45 e8             	mov    %eax,-0x18(%ebp)
    12db:	8b 45 d4             	mov    -0x2c(%ebp),%eax
    12de:	89 d3                	mov    %edx,%ebx
    12e0:	8b 70 34             	mov    0x34(%eax),%esi
    12e3:	8b 06                	mov    (%esi),%eax
    12e5:	31 d0                	xor    %edx,%eax
    12e7:	8b 56 04             	mov    0x4(%esi),%edx
    12ea:	31 ca                	xor    %ecx,%edx
    12ec:	09 c2                	or     %eax,%edx
    12ee:	0f 84 ff 03 00 00    	je     16f3 <compute_percentages+0x5b3>
    12f4:	89 7d d0             	mov    %edi,-0x30(%ebp)
    12f7:	8d 46 68             	lea    0x68(%esi),%eax
    12fa:	31 d2                	xor    %edx,%edx
    12fc:	89 df                	mov    %ebx,%edi
    12fe:	eb 18                	jmp    1318 <compute_percentages+0x1d8>
    1300:	89 c6                	mov    %eax,%esi
    1302:	83 c0 68             	add    $0x68,%eax
    1305:	8b 5d e8             	mov    -0x18(%ebp),%ebx
    1308:	8b 48 98             	mov    -0x68(%eax),%ecx
    130b:	33 58 9c             	xor    -0x64(%eax),%ebx
    130e:	31 f9                	xor    %edi,%ecx
    1310:	09 cb                	or     %ecx,%ebx
    1312:	0f 84 d8 03 00 00    	je     16f0 <compute_percentages+0x5b0>
    1318:	42                   	inc    %edx
    1319:	3b 55 ec             	cmp    -0x14(%ebp),%edx
    131c:	75 e2                	jne    1300 <compute_percentages+0x1c0>
    131e:	8b 7d d0             	mov    -0x30(%ebp),%edi
    1321:	8b 45 e0             	mov    -0x20(%ebp),%eax
    1324:	c7 04 f8 00 00 00 00 	movl   $0x0,(%eax,%edi,8)
    132b:	c7 44 f8 04 00 00 00 	movl   $0x0,0x4(%eax,%edi,8)
    1332:	00 
    1333:	8b 45 cc             	mov    -0x34(%ebp),%eax
    1336:	c7 04 f8 00 00 00 00 	movl   $0x0,(%eax,%edi,8)
    133d:	c7 44 f8 04 00 00 00 	movl   $0x0,0x4(%eax,%edi,8)
    1344:	00 
    1345:	47                   	inc    %edi
    1346:	3b 7d d8             	cmp    -0x28(%ebp),%edi
    1349:	0f 85 69 ff ff ff    	jne    12b8 <compute_percentages+0x178>
    134f:	8b 5d bc             	mov    -0x44(%ebp),%ebx
    1352:	8b 4d b8             	mov    -0x48(%ebp),%ecx
    1355:	89 da                	mov    %ebx,%edx
    1357:	8b 5d b4             	mov    -0x4c(%ebp),%ebx
    135a:	09 ca                	or     %ecx,%edx
    135c:	8b 4d b0             	mov    -0x50(%ebp),%ecx
    135f:	89 55 e8             	mov    %edx,-0x18(%ebp)
    1362:	89 da                	mov    %ebx,%edx
    1364:	09 ca                	or     %ecx,%edx
    1366:	8b 5d ac             	mov    -0x54(%ebp),%ebx
    1369:	8b 4d a8             	mov    -0x58(%ebp),%ecx
    136c:	89 55 d0             	mov    %edx,-0x30(%ebp)
    136f:	89 da                	mov    %ebx,%edx
    1371:	8b 5d a4             	mov    -0x5c(%ebp),%ebx
    1374:	09 ca                	or     %ecx,%edx
    1376:	8b 45 e4             	mov    -0x1c(%ebp),%eax
    1379:	89 55 c0             	mov    %edx,-0x40(%ebp)
    137c:	8b 4d a0             	mov    -0x60(%ebp),%ecx
    137f:	89 da                	mov    %ebx,%edx
    1381:	8b 70 38             	mov    0x38(%eax),%esi
    1384:	09 ca                	or     %ecx,%edx
    1386:	c7 45 ec 00 00 00 00 	movl   $0x0,-0x14(%ebp)
    138d:	31 ff                	xor    %edi,%edi
    138f:	89 55 c8             	mov    %edx,-0x38(%ebp)
    1392:	8d b6 00 00 00 00    	lea    0x0(%esi),%esi
    1398:	8b 45 e8             	mov    -0x18(%ebp),%eax
    139b:	85 c0                	test   %eax,%eax
    139d:	0f 84 da 02 00 00    	je     167d <compute_percentages+0x53d>
    13a3:	8b 45 e4             	mov    -0x1c(%ebp),%eax
    13a6:	8b 4d ec             	mov    -0x14(%ebp),%ecx
    13a9:	8b 55 bc             	mov    -0x44(%ebp),%edx
    13ac:	8b 40 34             	mov    0x34(%eax),%eax
    13af:	8b 44 08 1c          	mov    0x1c(%eax,%ecx,1),%eax
    13b3:	c7 46 04 00 00 00 00 	movl   $0x0,0x4(%esi)
    13ba:	89 56 0c             	mov    %edx,0xc(%esi)
    13bd:	8d 04 80             	lea    (%eax,%eax,4),%eax
    13c0:	8d 04 80             	lea    (%eax,%eax,4),%eax
    13c3:	c1 e0 02             	shl    $0x2,%eax
    13c6:	89 06                	mov    %eax,(%esi)
    13c8:	8b 45 b8             	mov    -0x48(%ebp),%eax
    13cb:	89 46 08             	mov    %eax,0x8(%esi)
    13ce:	8b 45 d0             	mov    -0x30(%ebp),%eax
    13d1:	85 c0                	test   %eax,%eax
    13d3:	0f 84 ca 02 00 00    	je     16a3 <compute_percentages+0x563>
    13d9:	8b 45 e4             	mov    -0x1c(%ebp),%eax
    13dc:	8b 4d ec             	mov    -0x14(%ebp),%ecx
    13df:	8b 55 b4             	mov    -0x4c(%ebp),%edx
    13e2:	8b 40 34             	mov    0x34(%eax),%eax
    13e5:	8b 44 08 20          	mov    0x20(%eax,%ecx,1),%eax
    13e9:	c7 46 14 00 00 00 00 	movl   $0x0,0x14(%esi)
    13f0:	89 56 1c             	mov    %edx,0x1c(%esi)
    13f3:	8d 04 80             	lea    (%eax,%eax,4),%eax
    13f6:	8d 04 80             	lea    (%eax,%eax,4),%eax
    13f9:	c1 e0 02             	shl    $0x2,%eax
    13fc:	89 46 10             	mov    %eax,0x10(%esi)
    13ff:	8b 45 b0             	mov    -0x50(%ebp),%eax
    1402:	89 46 18             	mov    %eax,0x18(%esi)
    1405:	8b 45 c0             	mov    -0x40(%ebp),%eax
    1408:	85 c0                	test   %eax,%eax
    140a:	0f 84 ba 02 00 00    	je     16ca <compute_percentages+0x58a>
    1410:	8b 45 e0             	mov    -0x20(%ebp),%eax
    1413:	8b 5c f8 04          	mov    0x4(%eax,%edi,8),%ebx
    1417:	8b 0c f8             	mov    (%eax,%edi,8),%ecx
    141a:	89 c8                	mov    %ecx,%eax
    141c:	89 da                	mov    %ebx,%edx
    141e:	0f a4 c2 01          	shld   $0x1,%eax,%edx
    1422:	01 c0                	add    %eax,%eax
    1424:	01 c8                	add    %ecx,%eax
    1426:	11 da                	adc    %ebx,%edx
    1428:	0f a4 c2 03          	shld   $0x3,%eax,%edx
    142c:	c1 e0 03             	shl    $0x3,%eax
    142f:	01 c8                	add    %ecx,%eax
    1431:	11 da                	adc    %ebx,%edx
    1433:	0f a4 c2 02          	shld   $0x2,%eax,%edx
    1437:	c1 e0 02             	shl    $0x2,%eax
    143a:	89 56 24             	mov    %edx,0x24(%esi)
    143d:	89 46 20             	mov    %eax,0x20(%esi)
    1440:	8b 55 ac             	mov    -0x54(%ebp),%edx
    1443:	8b 45 a8             	mov    -0x58(%ebp),%eax
    1446:	89 56 2c             	mov    %edx,0x2c(%esi)
    1449:	89 46 28             	mov    %eax,0x28(%esi)
    144c:	8b 45 c8             	mov    -0x38(%ebp),%eax
    144f:	85 c0                	test   %eax,%eax
    1451:	0f 84 e9 01 00 00    	je     1640 <compute_percentages+0x500>
    1457:	8b 45 cc             	mov    -0x34(%ebp),%eax
    145a:	8b 5c f8 04          	mov    0x4(%eax,%edi,8),%ebx
    145e:	8b 0c f8             	mov    (%eax,%edi,8),%ecx
    1461:	89 c8                	mov    %ecx,%eax
    1463:	89 da                	mov    %ebx,%edx
    1465:	0f a4 c2 01          	shld   $0x1,%eax,%edx
    1469:	01 c0                	add    %eax,%eax
    146b:	01 c8                	add    %ecx,%eax
    146d:	11 da                	adc    %ebx,%edx
    146f:	0f a4 c2 03          	shld   $0x3,%eax,%edx
    1473:	c1 e0 03             	shl    $0x3,%eax
    1476:	01 c8                	add    %ecx,%eax
    1478:	11 da                	adc    %ebx,%edx
    147a:	8b 5d ec             	mov    -0x14(%ebp),%ebx
    147d:	0f a4 c2 02          	shld   $0x2,%eax,%edx
    1481:	c1 e0 02             	shl    $0x2,%eax
    1484:	89 56 34             	mov    %edx,0x34(%esi)
    1487:	89 46 30             	mov    %eax,0x30(%esi)
    148a:	83 c3 68             	add    $0x68,%ebx
    148d:	8b 45 a0             	mov    -0x60(%ebp),%eax
    1490:	8b 55 a4             	mov    -0x5c(%ebp),%edx
    1493:	47                   	inc    %edi
    1494:	89 46 38             	mov    %eax,0x38(%esi)
    1497:	89 56 3c             	mov    %edx,0x3c(%esi)
    149a:	89 5d ec             	mov    %ebx,-0x14(%ebp)
    149d:	83 c6 40             	add    $0x40,%esi
    14a0:	3b 7d d8             	cmp    -0x28(%ebp),%edi
    14a3:	0f 82 ef fe ff ff    	jb     1398 <compute_percentages+0x258>
    14a9:	8b 45 e4             	mov    -0x1c(%ebp),%eax
    14ac:	8b 40 44             	mov    0x44(%eax),%eax
    14af:	89 45 e0             	mov    %eax,-0x20(%ebp)
    14b2:	85 c0                	test   %eax,%eax
    14b4:	0f 84 1d 01 00 00    	je     15d7 <compute_percentages+0x497>
    14ba:	8b 45 d4             	mov    -0x2c(%ebp),%eax
    14bd:	c7 45 c0 00 00 00 00 	movl   $0x0,-0x40(%ebp)
    14c4:	c7 45 c4 00 00 00 00 	movl   $0x0,-0x3c(%ebp)
    14cb:	c7 45 b8 00 00 00 00 	movl   $0x0,-0x48(%ebp)
    14d2:	8b 70 44             	mov    0x44(%eax),%esi
    14d5:	8b 45 e4             	mov    -0x1c(%ebp),%eax
    14d8:	c7 45 bc 00 00 00 00 	movl   $0x0,-0x44(%ebp)
    14df:	8b 78 5c             	mov    0x5c(%eax),%edi
    14e2:	8b 40 60             	mov    0x60(%eax),%eax
    14e5:	89 7d e8             	mov    %edi,-0x18(%ebp)
    14e8:	89 45 d8             	mov    %eax,-0x28(%ebp)
    14eb:	31 ff                	xor    %edi,%edi
    14ed:	8d 76 00             	lea    0x0(%esi),%esi
    14f0:	85 f6                	test   %esi,%esi
    14f2:	74 47                	je     153b <compute_percentages+0x3fb>
    14f4:	8d 04 bf             	lea    (%edi,%edi,4),%eax
    14f7:	8b 5d e4             	mov    -0x1c(%ebp),%ebx
    14fa:	8d 04 47             	lea    (%edi,%eax,2),%eax
    14fd:	8b 53 48             	mov    0x48(%ebx),%edx
    1500:	c1 e0 02             	shl    $0x2,%eax
    1503:	89 45 cc             	mov    %eax,-0x34(%ebp)
    1506:	01 d0                	add    %edx,%eax
    1508:	89 45 d0             	mov    %eax,-0x30(%ebp)
    150b:	8b 08                	mov    (%eax),%ecx
    150d:	8b 45 d4             	mov    -0x2c(%ebp),%eax
    1510:	8b 40 48             	mov    0x48(%eax),%eax
    1513:	89 45 ec             	mov    %eax,-0x14(%ebp)
    1516:	3b 08                	cmp    (%eax),%ecx
    1518:	0f 84 c1 00 00 00    	je     15df <compute_percentages+0x49f>
    151e:	83 c0 2c             	add    $0x2c,%eax
    1521:	31 d2                	xor    %edx,%edx
    1523:	eb 11                	jmp    1536 <compute_percentages+0x3f6>
    1525:	8d 76 00             	lea    0x0(%esi),%esi
    1528:	89 c3                	mov    %eax,%ebx
    152a:	83 c0 2c             	add    $0x2c,%eax
    152d:	3b 48 d4             	cmp    -0x2c(%eax),%ecx
    1530:	0f 84 b2 00 00 00    	je     15e8 <compute_percentages+0x4a8>
    1536:	42                   	inc    %edx
    1537:	39 f2                	cmp    %esi,%edx
    1539:	75 ed                	jne    1528 <compute_percentages+0x3e8>
    153b:	8b 45 e8             	mov    -0x18(%ebp),%eax
    153e:	c7 04 f8 00 00 00 00 	movl   $0x0,(%eax,%edi,8)
    1545:	c7 44 f8 04 00 00 00 	movl   $0x0,0x4(%eax,%edi,8)
    154c:	00 
    154d:	8b 45 d8             	mov    -0x28(%ebp),%eax
    1550:	c7 04 f8 00 00 00 00 	movl   $0x0,(%eax,%edi,8)
    1557:	c7 44 f8 04 00 00 00 	movl   $0x0,0x4(%eax,%edi,8)
    155e:	00 
    155f:	47                   	inc    %edi
    1560:	3b 7d e0             	cmp    -0x20(%ebp),%edi
    1563:	75 8b                	jne    14f0 <compute_percentages+0x3b0>
    1565:	8b 45 e4             	mov    -0x1c(%ebp),%eax
    1568:	8b 5d b8             	mov    -0x48(%ebp),%ebx
    156b:	8b 75 bc             	mov    -0x44(%ebp),%esi
    156e:	89 f2                	mov    %esi,%edx
    1570:	8b 78 4c             	mov    0x4c(%eax),%edi
    1573:	8b 75 c4             	mov    -0x3c(%ebp),%esi
    1576:	89 d8                	mov    %ebx,%eax
    1578:	09 c2                	or     %eax,%edx
    157a:	8b 5d c0             	mov    -0x40(%ebp),%ebx
    157d:	89 f2                	mov    %esi,%edx
    157f:	0f 85 3d 02 00 00    	jne    17c2 <compute_percentages+0x682>
    1585:	89 fe                	mov    %edi,%esi
    1587:	09 da                	or     %ebx,%edx
    1589:	0f 85 56 03 00 00    	jne    18e5 <compute_percentages+0x7a5>
    158f:	31 c0                	xor    %eax,%eax
    1591:	8b 55 e0             	mov    -0x20(%ebp),%edx
    1594:	8d 74 26 00          	lea    0x0(%esi,%eiz,1),%esi
    1598:	40                   	inc    %eax
    1599:	c7 06 00 00 00 00    	movl   $0x0,(%esi)
    159f:	c7 46 04 00 00 00 00 	movl   $0x0,0x4(%esi)
    15a6:	c7 46 08 01 00 00 00 	movl   $0x1,0x8(%esi)
    15ad:	c7 46 0c 00 00 00 00 	movl   $0x0,0xc(%esi)
    15b4:	c7 46 10 00 00 00 00 	movl   $0x0,0x10(%esi)
    15bb:	c7 46 14 00 00 00 00 	movl   $0x0,0x14(%esi)
    15c2:	c7 46 18 01 00 00 00 	movl   $0x1,0x18(%esi)
    15c9:	c7 46 1c 00 00 00 00 	movl   $0x0,0x1c(%esi)
    15d0:	83 c6 20             	add    $0x20,%esi
    15d3:	39 c2                	cmp    %eax,%edx
    15d5:	77 c1                	ja     1598 <compute_percentages+0x458>
    15d7:	83 c4 54             	add    $0x54,%esp
    15da:	5b                   	pop    %ebx
    15db:	5e                   	pop    %esi
    15dc:	5f                   	pop    %edi
    15dd:	5d                   	pop    %ebp
    15de:	c3                   	ret    
    15df:	89 c3                	mov    %eax,%ebx
    15e1:	8d b4 26 00 00 00 00 	lea    0x0(%esi,%eiz,1),%esi
    15e8:	8b 4d d0             	mov    -0x30(%ebp),%ecx
    15eb:	8b 41 1c             	mov    0x1c(%ecx),%eax
    15ee:	8b 51 20             	mov    0x20(%ecx),%edx
    15f1:	2b 43 1c             	sub    0x1c(%ebx),%eax
    15f4:	1b 53 20             	sbb    0x20(%ebx),%edx
    15f7:	8b 5d e8             	mov    -0x18(%ebp),%ebx
    15fa:	89 04 fb             	mov    %eax,(%ebx,%edi,8)
    15fd:	89 54 fb 04          	mov    %edx,0x4(%ebx,%edi,8)
    1601:	8b 41 24             	mov    0x24(%ecx),%eax
    1604:	8b 51 28             	mov    0x28(%ecx),%edx
    1607:	8b 5d cc             	mov    -0x34(%ebp),%ebx
    160a:	8b 4d ec             	mov    -0x14(%ebp),%ecx
    160d:	2b 44 19 24          	sub    0x24(%ecx,%ebx,1),%eax
    1611:	1b 54 19 28          	sbb    0x28(%ecx,%ebx,1),%edx
    1615:	8b 5d d8             	mov    -0x28(%ebp),%ebx
    1618:	89 04 fb             	mov    %eax,(%ebx,%edi,8)
    161b:	89 54 fb 04          	mov    %edx,0x4(%ebx,%edi,8)
    161f:	8b 5d e8             	mov    -0x18(%ebp),%ebx
    1622:	8b 0c fb             	mov    (%ebx,%edi,8),%ecx
    1625:	8b 5c fb 04          	mov    0x4(%ebx,%edi,8),%ebx
    1629:	01 4d b8             	add    %ecx,-0x48(%ebp)
    162c:	11 5d bc             	adc    %ebx,-0x44(%ebp)
    162f:	01 45 c0             	add    %eax,-0x40(%ebp)
    1632:	11 55 c4             	adc    %edx,-0x3c(%ebp)
    1635:	e9 25 ff ff ff       	jmp    155f <compute_percentages+0x41f>
    163a:	8d b6 00 00 00 00    	lea    0x0(%esi),%esi
    1640:	8b 4d ec             	mov    -0x14(%ebp),%ecx
    1643:	47                   	inc    %edi
    1644:	83 c1 68             	add    $0x68,%ecx
    1647:	c7 46 30 00 00 00 00 	movl   $0x0,0x30(%esi)
    164e:	c7 46 34 00 00 00 00 	movl   $0x0,0x34(%esi)
    1655:	c7 46 38 01 00 00 00 	movl   $0x1,0x38(%esi)
    165c:	c7 46 3c 00 00 00 00 	movl   $0x0,0x3c(%esi)
    1663:	89 4d ec             	mov    %ecx,-0x14(%ebp)
    1666:	83 c6 40             	add    $0x40,%esi
    1669:	39 7d d8             	cmp    %edi,-0x28(%ebp)
    166c:	0f 86 37 fe ff ff    	jbe    14a9 <compute_percentages+0x369>
    1672:	8b 45 e8             	mov    -0x18(%ebp),%eax
    1675:	85 c0                	test   %eax,%eax
    1677:	0f 85 26 fd ff ff    	jne    13a3 <compute_percentages+0x263>
    167d:	8b 45 d0             	mov    -0x30(%ebp),%eax
    1680:	c7 06 00 00 00 00    	movl   $0x0,(%esi)
    1686:	c7 46 04 00 00 00 00 	movl   $0x0,0x4(%esi)
    168d:	c7 46 08 01 00 00 00 	movl   $0x1,0x8(%esi)
    1694:	c7 46 0c 00 00 00 00 	movl   $0x0,0xc(%esi)
    169b:	85 c0                	test   %eax,%eax
    169d:	0f 85 36 fd ff ff    	jne    13d9 <compute_percentages+0x299>
    16a3:	8b 45 c0             	mov    -0x40(%ebp),%eax
    16a6:	c7 46 10 00 00 00 00 	movl   $0x0,0x10(%esi)
    16ad:	c7 46 14 00 00 00 00 	movl   $0x0,0x14(%esi)
    16b4:	c7 46 18 01 00 00 00 	movl   $0x1,0x18(%esi)
    16bb:	c7 46 1c 00 00 00 00 	movl   $0x0,0x1c(%esi)
    16c2:	85 c0                	test   %eax,%eax
    16c4:	0f 85 46 fd ff ff    	jne    1410 <compute_percentages+0x2d0>
    16ca:	c7 46 20 00 00 00 00 	movl   $0x0,0x20(%esi)
    16d1:	c7 46 24 00 00 00 00 	movl   $0x0,0x24(%esi)
    16d8:	c7 46 28 01 00 00 00 	movl   $0x1,0x28(%esi)
    16df:	c7 46 2c 00 00 00 00 	movl   $0x0,0x2c(%esi)
    16e6:	e9 61 fd ff ff       	jmp    144c <compute_percentages+0x30c>
    16eb:	90                   	nop
    16ec:	8d 74 26 00          	lea    0x0(%esi,%eiz,1),%esi
    16f0:	8b 7d d0             	mov    -0x30(%ebp),%edi
    16f3:	8b 4d c0             	mov    -0x40(%ebp),%ecx
    16f6:	8b 5d e0             	mov    -0x20(%ebp),%ebx
    16f9:	8b 41 28             	mov    0x28(%ecx),%eax
    16fc:	8b 51 2c             	mov    0x2c(%ecx),%edx
    16ff:	2b 46 28             	sub    0x28(%esi),%eax
    1702:	1b 56 2c             	sbb    0x2c(%esi),%edx
    1705:	89 04 fb             	mov    %eax,(%ebx,%edi,8)
    1708:	89 54 fb 04          	mov    %edx,0x4(%ebx,%edi,8)
    170c:	89 c8                	mov    %ecx,%eax
    170e:	8b 49 30             	mov    0x30(%ecx),%ecx
    1711:	2b 4e 30             	sub    0x30(%esi),%ecx
    1714:	8b 58 34             	mov    0x34(%eax),%ebx
    1717:	1b 5e 34             	sbb    0x34(%esi),%ebx
    171a:	8b 75 cc             	mov    -0x34(%ebp),%esi
    171d:	89 0c fe             	mov    %ecx,(%esi,%edi,8)
    1720:	89 5c fe 04          	mov    %ebx,0x4(%esi,%edi,8)
    1724:	89 c6                	mov    %eax,%esi
    1726:	8b 40 1c             	mov    0x1c(%eax),%eax
    1729:	31 d2                	xor    %edx,%edx
    172b:	01 45 b8             	add    %eax,-0x48(%ebp)
    172e:	11 55 bc             	adc    %edx,-0x44(%ebp)
    1731:	8b 46 20             	mov    0x20(%esi),%eax
    1734:	31 d2                	xor    %edx,%edx
    1736:	01 45 b0             	add    %eax,-0x50(%ebp)
    1739:	11 55 b4             	adc    %edx,-0x4c(%ebp)
    173c:	8b 45 e0             	mov    -0x20(%ebp),%eax
    173f:	8b 54 f8 04          	mov    0x4(%eax,%edi,8),%edx
    1743:	8b 04 f8             	mov    (%eax,%edi,8),%eax
    1746:	01 45 a8             	add    %eax,-0x58(%ebp)
    1749:	11 55 ac             	adc    %edx,-0x54(%ebp)
    174c:	01 4d a0             	add    %ecx,-0x60(%ebp)
    174f:	11 5d a4             	adc    %ebx,-0x5c(%ebp)
    1752:	e9 ee fb ff ff       	jmp    1345 <compute_percentages+0x205>
    1757:	90                   	nop
    1758:	8b 55 ec             	mov    -0x14(%ebp),%edx
    175b:	8b 45 d0             	mov    -0x30(%ebp),%eax
    175e:	42                   	inc    %edx
    175f:	8b 4d e8             	mov    -0x18(%ebp),%ecx
    1762:	8b 5d e0             	mov    -0x20(%ebp),%ebx
    1765:	89 55 ec             	mov    %edx,-0x14(%ebp)
    1768:	c7 00 00 00 00 00    	movl   $0x0,(%eax)
    176e:	c7 40 04 00 00 00 00 	movl   $0x0,0x4(%eax)
    1775:	c7 40 08 01 00 00 00 	movl   $0x1,0x8(%eax)
    177c:	c7 40 0c 00 00 00 00 	movl   $0x0,0xc(%eax)
    1783:	c7 40 10 00 00 00 00 	movl   $0x0,0x10(%eax)
    178a:	c7 40 14 00 00 00 00 	movl   $0x0,0x14(%eax)
    1791:	c7 40 18 01 00 00 00 	movl   $0x1,0x18(%eax)
    1798:	c7 40 1c 00 00 00 00 	movl   $0x0,0x1c(%eax)
    179f:	83 c1 18             	add    $0x18,%ecx
    17a2:	83 c3 18             	add    $0x18,%ebx
    17a5:	83 c0 20             	add    $0x20,%eax
    17a8:	8b 7d ec             	mov    -0x14(%ebp),%edi
    17ab:	89 4d e8             	mov    %ecx,-0x18(%ebp)
    17ae:	89 5d e0             	mov    %ebx,-0x20(%ebp)
    17b1:	89 45 d0             	mov    %eax,-0x30(%ebp)
    17b4:	3b 7d cc             	cmp    -0x34(%ebp),%edi
    17b7:	0f 82 cb f9 ff ff    	jb     1188 <compute_percentages+0x48>
    17bd:	e9 8e fa ff ff       	jmp    1250 <compute_percentages+0x110>
    17c2:	09 da                	or     %ebx,%edx
    17c4:	75 72                	jne    1838 <compute_percentages+0x6f8>
    17c6:	89 fe                	mov    %edi,%esi
    17c8:	31 ff                	xor    %edi,%edi
    17ca:	8d b6 00 00 00 00    	lea    0x0(%esi),%esi
    17d0:	8b 45 e8             	mov    -0x18(%ebp),%eax
    17d3:	8b 5c f8 04          	mov    0x4(%eax,%edi,8),%ebx
    17d7:	8b 0c f8             	mov    (%eax,%edi,8),%ecx
    17da:	89 c8                	mov    %ecx,%eax
    17dc:	89 da                	mov    %ebx,%edx
    17de:	0f a4 c2 01          	shld   $0x1,%eax,%edx
    17e2:	01 c0                	add    %eax,%eax
    17e4:	c7 46 10 00 00 00 00 	movl   $0x0,0x10(%esi)
    17eb:	01 c8                	add    %ecx,%eax
    17ed:	c7 46 14 00 00 00 00 	movl   $0x0,0x14(%esi)
    17f4:	11 da                	adc    %ebx,%edx
    17f6:	c7 46 18 01 00 00 00 	movl   $0x1,0x18(%esi)
    17fd:	0f a4 c2 03          	shld   $0x3,%eax,%edx
    1801:	c1 e0 03             	shl    $0x3,%eax
    1804:	c7 46 1c 00 00 00 00 	movl   $0x0,0x1c(%esi)
    180b:	01 c8                	add    %ecx,%eax
    180d:	11 da                	adc    %ebx,%edx
    180f:	47                   	inc    %edi
    1810:	0f a4 c2 02          	shld   $0x2,%eax,%edx
    1814:	c1 e0 02             	shl    $0x2,%eax
    1817:	89 56 04             	mov    %edx,0x4(%esi)
    181a:	89 06                	mov    %eax,(%esi)
    181c:	8b 55 bc             	mov    -0x44(%ebp),%edx
    181f:	8b 45 b8             	mov    -0x48(%ebp),%eax
    1822:	89 56 0c             	mov    %edx,0xc(%esi)
    1825:	89 46 08             	mov    %eax,0x8(%esi)
    1828:	83 c6 20             	add    $0x20,%esi
    182b:	3b 7d e0             	cmp    -0x20(%ebp),%edi
    182e:	72 a0                	jb     17d0 <compute_percentages+0x690>
    1830:	83 c4 54             	add    $0x54,%esp
    1833:	5b                   	pop    %ebx
    1834:	5e                   	pop    %esi
    1835:	5f                   	pop    %edi
    1836:	5d                   	pop    %ebp
    1837:	c3                   	ret    
    1838:	31 f6                	xor    %esi,%esi
    183a:	c7 45 ec 00 00 00 00 	movl   $0x0,-0x14(%ebp)
    1841:	8d b4 26 00 00 00 00 	lea    0x0(%esi,%eiz,1),%esi
    1848:	8b 45 e8             	mov    -0x18(%ebp),%eax
    184b:	8b 5c 30 04          	mov    0x4(%eax,%esi,1),%ebx
    184f:	8b 0c 30             	mov    (%eax,%esi,1),%ecx
    1852:	89 c8                	mov    %ecx,%eax
    1854:	89 da                	mov    %ebx,%edx
    1856:	0f a4 c2 01          	shld   $0x1,%eax,%edx
    185a:	01 c0                	add    %eax,%eax
    185c:	01 c8                	add    %ecx,%eax
    185e:	11 da                	adc    %ebx,%edx
    1860:	0f a4 c2 03          	shld   $0x3,%eax,%edx
    1864:	c1 e0 03             	shl    $0x3,%eax
    1867:	01 c8                	add    %ecx,%eax
    1869:	11 da                	adc    %ebx,%edx
    186b:	0f a4 c2 02          	shld   $0x2,%eax,%edx
    186f:	c1 e0 02             	shl    $0x2,%eax
    1872:	89 54 b7 04          	mov    %edx,0x4(%edi,%esi,4)
    1876:	89 04 b7             	mov    %eax,(%edi,%esi,4)
    1879:	8b 45 b8             	mov    -0x48(%ebp),%eax
    187c:	89 44 b7 08          	mov    %eax,0x8(%edi,%esi,4)
    1880:	8b 55 bc             	mov    -0x44(%ebp),%edx
    1883:	8b 45 d8             	mov    -0x28(%ebp),%eax
    1886:	89 54 b7 0c          	mov    %edx,0xc(%edi,%esi,4)
    188a:	8b 5c 30 04          	mov    0x4(%eax,%esi,1),%ebx
    188e:	8b 0c 30             	mov    (%eax,%esi,1),%ecx
    1891:	89 c8                	mov    %ecx,%eax
    1893:	89 da                	mov    %ebx,%edx
    1895:	0f a4 c2 01          	shld   $0x1,%eax,%edx
    1899:	01 c0                	add    %eax,%eax
    189b:	01 c8                	add    %ecx,%eax
    189d:	11 da                	adc    %ebx,%edx
    189f:	0f a4 c2 03          	shld   $0x3,%eax,%edx
    18a3:	c1 e0 03             	shl    $0x3,%eax
    18a6:	01 c8                	add    %ecx,%eax
    18a8:	11 da                	adc    %ebx,%edx
    18aa:	0f a4 c2 02          	shld   $0x2,%eax,%edx
    18ae:	c1 e0 02             	shl    $0x2,%eax
    18b1:	89 54 b7 14          	mov    %edx,0x14(%edi,%esi,4)
    18b5:	89 44 b7 10          	mov    %eax,0x10(%edi,%esi,4)
    18b9:	8b 45 c0             	mov    -0x40(%ebp),%eax
    18bc:	89 44 b7 18          	mov    %eax,0x18(%edi,%esi,4)
    18c0:	8b 45 ec             	mov    -0x14(%ebp),%eax
    18c3:	40                   	inc    %eax
    18c4:	8b 55 c4             	mov    -0x3c(%ebp),%edx
    18c7:	89 45 ec             	mov    %eax,-0x14(%ebp)
    18ca:	89 54 b7 1c          	mov    %edx,0x1c(%edi,%esi,4)
    18ce:	8b 45 ec             	mov    -0x14(%ebp),%eax
    18d1:	83 c6 08             	add    $0x8,%esi
    18d4:	39 45 e0             	cmp    %eax,-0x20(%ebp)
    18d7:	0f 87 6b ff ff ff    	ja     1848 <compute_percentages+0x708>
    18dd:	83 c4 54             	add    $0x54,%esp
    18e0:	5b                   	pop    %ebx
    18e1:	5e                   	pop    %esi
    18e2:	5f                   	pop    %edi
    18e3:	5d                   	pop    %ebp
    18e4:	c3                   	ret    
    18e5:	31 ff                	xor    %edi,%edi
    18e7:	90                   	nop
    18e8:	8b 45 d8             	mov    -0x28(%ebp),%eax
    18eb:	c7 06 00 00 00 00    	movl   $0x0,(%esi)
    18f1:	c7 46 04 00 00 00 00 	movl   $0x0,0x4(%esi)
    18f8:	c7 46 08 01 00 00 00 	movl   $0x1,0x8(%esi)
    18ff:	c7 46 0c 00 00 00 00 	movl   $0x0,0xc(%esi)
    1906:	8b 5c f8 04          	mov    0x4(%eax,%edi,8),%ebx
    190a:	8b 0c f8             	mov    (%eax,%edi,8),%ecx
    190d:	89 c8                	mov    %ecx,%eax
    190f:	89 da                	mov    %ebx,%edx
    1911:	0f a4 c2 01          	shld   $0x1,%eax,%edx
    1915:	01 c0                	add    %eax,%eax
    1917:	01 c8                	add    %ecx,%eax
    1919:	11 da                	adc    %ebx,%edx
    191b:	0f a4 c2 03          	shld   $0x3,%eax,%edx
    191f:	c1 e0 03             	shl    $0x3,%eax
    1922:	01 c8                	add    %ecx,%eax
    1924:	11 da                	adc    %ebx,%edx
    1926:	47                   	inc    %edi
    1927:	0f a4 c2 02          	shld   $0x2,%eax,%edx
    192b:	c1 e0 02             	shl    $0x2,%eax
    192e:	89 56 14             	mov    %edx,0x14(%esi)
    1931:	89 46 10             	mov    %eax,0x10(%esi)
    1934:	8b 55 c4             	mov    -0x3c(%ebp),%edx
    1937:	8b 45 c0             	mov    -0x40(%ebp),%eax
    193a:	89 56 1c             	mov    %edx,0x1c(%esi)
    193d:	89 46 18             	mov    %eax,0x18(%esi)
    1940:	83 c6 20             	add    $0x20,%esi
    1943:	39 7d e0             	cmp    %edi,-0x20(%ebp)
    1946:	77 a0                	ja     18e8 <compute_percentages+0x7a8>
    1948:	83 c4 54             	add    $0x54,%esp
    194b:	5b                   	pop    %ebx
    194c:	5e                   	pop    %esi
    194d:	5f                   	pop    %edi
    194e:	5d                   	pop    %ebp
    194f:	c3                   	ret    

00001950 <read_data>:
    1950:	55                   	push   %ebp
    1951:	89 e5                	mov    %esp,%ebp
    1953:	57                   	push   %edi
    1954:	56                   	push   %esi
    1955:	53                   	push   %ebx
    1956:	83 ec 24             	sub    $0x24,%esp
    1959:	89 c3                	mov    %eax,%ebx
    195b:	c7 40 20 00 00 00 00 	movl   $0x0,0x20(%eax)
    1962:	c7 40 28 00 00 00 00 	movl   $0x0,0x28(%eax)
    1969:	c7 40 2c 00 00 00 00 	movl   $0x0,0x2c(%eax)
    1970:	c7 40 34 00 00 00 00 	movl   $0x0,0x34(%eax)
    1977:	c7 40 38 00 00 00 00 	movl   $0x0,0x38(%eax)
    197e:	c7 40 40 00 00 00 00 	movl   $0x0,0x40(%eax)
    1985:	c7 40 48 00 00 00 00 	movl   $0x0,0x48(%eax)
    198c:	c7 40 4c 00 00 00 00 	movl   $0x0,0x4c(%eax)
    1993:	c7 40 50 00 00 00 00 	movl   $0x0,0x50(%eax)
    199a:	c7 40 54 00 00 00 00 	movl   $0x0,0x54(%eax)
    19a1:	c7 40 58 00 00 00 00 	movl   $0x0,0x58(%eax)
    19a8:	c7 40 5c 00 00 00 00 	movl   $0x0,0x5c(%eax)
    19af:	c7 40 60 00 00 00 00 	movl   $0x0,0x60(%eax)
    19b6:	c7 40 64 00 00 00 00 	movl   $0x0,0x64(%eax)
    19bd:	c7 40 68 00 00 00 00 	movl   $0x0,0x68(%eax)
    19c4:	c7 40 6c 00 00 00 00 	movl   $0x0,0x6c(%eax)
    19cb:	c7 40 70 00 00 00 00 	movl   $0x0,0x70(%eax)
    19d2:	c7 40 74 00 00 00 00 	movl   $0x0,0x74(%eax)
    19d9:	8d 45 d8             	lea    -0x28(%ebp),%eax
    19dc:	6a 00                	push   $0x0
    19de:	50                   	push   %eax
    19df:	e8 ac 34 00 00       	call   4e90 <gettimeofday@plt>
    19e4:	8b 4d d8             	mov    -0x28(%ebp),%ecx
    19e7:	bf 80 51 01 00       	mov    $0x15180,%edi
    19ec:	89 ca                	mov    %ecx,%edx
    19ee:	89 c8                	mov    %ecx,%eax
    19f0:	c1 fa 1f             	sar    $0x1f,%edx
    19f3:	f7 ff                	idiv   %edi
    19f5:	b8 c5 b3 a2 91       	mov    $0x91a2b3c5,%eax
    19fa:	89 d6                	mov    %edx,%esi
    19fc:	f7 ea                	imul   %edx
    19fe:	01 f2                	add    %esi,%edx
    1a00:	b8 c5 b3 a2 91       	mov    $0x91a2b3c5,%eax
    1a05:	c1 fe 1f             	sar    $0x1f,%esi
    1a08:	89 cf                	mov    %ecx,%edi
    1a0a:	c1 fa 0b             	sar    $0xb,%edx
    1a0d:	c1 ff 1f             	sar    $0x1f,%edi
    1a10:	29 f2                	sub    %esi,%edx
    1a12:	89 13                	mov    %edx,(%ebx)
    1a14:	89 ce                	mov    %ecx,%esi
    1a16:	f7 e9                	imul   %ecx
    1a18:	01 ca                	add    %ecx,%edx
    1a1a:	89 d0                	mov    %edx,%eax
    1a1c:	c1 f8 0b             	sar    $0xb,%eax
    1a1f:	29 f8                	sub    %edi,%eax
    1a21:	89 c2                	mov    %eax,%edx
    1a23:	c1 e0 03             	shl    $0x3,%eax
    1a26:	29 d0                	sub    %edx,%eax
    1a28:	c1 e0 05             	shl    $0x5,%eax
    1a2b:	01 d0                	add    %edx,%eax
    1a2d:	c1 e0 04             	shl    $0x4,%eax
    1a30:	29 c6                	sub    %eax,%esi
    1a32:	b8 89 88 88 88       	mov    $0x88888889,%eax
    1a37:	f7 ee                	imul   %esi
    1a39:	01 f2                	add    %esi,%edx
    1a3b:	b8 89 88 88 88       	mov    $0x88888889,%eax
    1a40:	c1 fe 1f             	sar    $0x1f,%esi
    1a43:	c1 fa 05             	sar    $0x5,%edx
    1a46:	29 f2                	sub    %esi,%edx
    1a48:	89 53 04             	mov    %edx,0x4(%ebx)
    1a4b:	f7 e9                	imul   %ecx
    1a4d:	01 ca                	add    %ecx,%edx
    1a4f:	c1 fa 05             	sar    $0x5,%edx
    1a52:	29 fa                	sub    %edi,%edx
    1a54:	89 d0                	mov    %edx,%eax
    1a56:	c1 e0 04             	shl    $0x4,%eax
    1a59:	29 d0                	sub    %edx,%eax
    1a5b:	c1 e0 02             	shl    $0x2,%eax
    1a5e:	29 c1                	sub    %eax,%ecx
    1a60:	8d 45 e0             	lea    -0x20(%ebp),%eax
    1a63:	89 4b 08             	mov    %ecx,0x8(%ebx)
    1a66:	89 04 24             	mov    %eax,(%esp)
    1a69:	e8 32 34 00 00       	call   4ea0 <getuptime@plt>
    1a6e:	8b 4d e0             	mov    -0x20(%ebp),%ecx
    1a71:	89 c8                	mov    %ecx,%eax
    1a73:	ba 07 45 2e c2       	mov    $0xc22e4507,%edx
    1a78:	f7 ea                	imul   %edx
    1a7a:	89 cf                	mov    %ecx,%edi
    1a7c:	01 ca                	add    %ecx,%edx
    1a7e:	c1 ff 1f             	sar    $0x1f,%edi
    1a81:	89 ce                	mov    %ecx,%esi
    1a83:	c1 fa 10             	sar    $0x10,%edx
    1a86:	29 fa                	sub    %edi,%edx
    1a88:	89 53 0c             	mov    %edx,0xc(%ebx)
    1a8b:	8d 04 92             	lea    (%edx,%edx,4),%eax
    1a8e:	8d 04 82             	lea    (%edx,%eax,4),%eax
    1a91:	8d 04 c2             	lea    (%edx,%eax,8),%eax
    1a94:	c1 e0 02             	shl    $0x2,%eax
    1a97:	29 d0                	sub    %edx,%eax
    1a99:	c1 e0 07             	shl    $0x7,%eax
    1a9c:	29 c6                	sub    %eax,%esi
    1a9e:	b8 c5 b3 a2 91       	mov    $0x91a2b3c5,%eax
    1aa3:	f7 ee                	imul   %esi
    1aa5:	01 f2                	add    %esi,%edx
    1aa7:	b8 c5 b3 a2 91       	mov    $0x91a2b3c5,%eax
    1aac:	c1 fe 1f             	sar    $0x1f,%esi
    1aaf:	c1 fa 0b             	sar    $0xb,%edx
    1ab2:	29 f2                	sub    %esi,%edx
    1ab4:	89 ce                	mov    %ecx,%esi
    1ab6:	89 53 10             	mov    %edx,0x10(%ebx)
    1ab9:	f7 e9                	imul   %ecx
    1abb:	01 ca                	add    %ecx,%edx
    1abd:	c1 fa 0b             	sar    $0xb,%edx
    1ac0:	29 fa                	sub    %edi,%edx
    1ac2:	8d 04 d5 00 00 00 00 	lea    0x0(,%edx,8),%eax
    1ac9:	29 d0                	sub    %edx,%eax
    1acb:	c1 e0 05             	shl    $0x5,%eax
    1ace:	01 c2                	add    %eax,%edx
    1ad0:	b8 89 88 88 88       	mov    $0x88888889,%eax
    1ad5:	c1 e2 04             	shl    $0x4,%edx
    1ad8:	29 d6                	sub    %edx,%esi
    1ada:	f7 ee                	imul   %esi
    1adc:	01 f2                	add    %esi,%edx
    1ade:	b8 89 88 88 88       	mov    $0x88888889,%eax
    1ae3:	c1 fa 05             	sar    $0x5,%edx
    1ae6:	c1 fe 1f             	sar    $0x1f,%esi
    1ae9:	29 f2                	sub    %esi,%edx
    1aeb:	89 53 14             	mov    %edx,0x14(%ebx)
    1aee:	f7 e9                	imul   %ecx
    1af0:	01 ca                	add    %ecx,%edx
    1af2:	c1 fa 05             	sar    $0x5,%edx
    1af5:	29 fa                	sub    %edi,%edx
    1af7:	89 d0                	mov    %edx,%eax
    1af9:	c1 e0 04             	shl    $0x4,%eax
    1afc:	29 d0                	sub    %edx,%eax
    1afe:	c1 e0 02             	shl    $0x2,%eax
    1b01:	29 c1                	sub    %eax,%ecx
    1b03:	8d 43 1c             	lea    0x1c(%ebx),%eax
    1b06:	89 4b 18             	mov    %ecx,0x18(%ebx)
    1b09:	89 04 24             	mov    %eax,(%esp)
    1b0c:	e8 ef 33 00 00       	call   4f00 <stats_get_load@plt>
    1b11:	83 c4 10             	add    $0x10,%esp
    1b14:	89 43 20             	mov    %eax,0x20(%ebx)
    1b17:	85 c0                	test   %eax,%eax
    1b19:	0f 84 41 01 00 00    	je     1c60 <read_data+0x310>
    1b1f:	83 ec 0c             	sub    $0xc,%esp
    1b22:	8d 43 24             	lea    0x24(%ebx),%eax
    1b25:	50                   	push   %eax
    1b26:	e8 05 33 00 00       	call   4e30 <stats_get_cpus@plt>
    1b2b:	83 c4 10             	add    $0x10,%esp
    1b2e:	89 43 28             	mov    %eax,0x28(%ebx)
    1b31:	85 c0                	test   %eax,%eax
    1b33:	0f 84 4f 01 00 00    	je     1c88 <read_data+0x338>
    1b39:	8b 73 24             	mov    0x24(%ebx),%esi
    1b3c:	51                   	push   %ecx
    1b3d:	51                   	push   %ecx
    1b3e:	6a 20                	push   $0x20
    1b40:	56                   	push   %esi
    1b41:	e8 ca 32 00 00       	call   4e10 <calloc@plt>
    1b46:	83 c4 10             	add    $0x10,%esp
    1b49:	89 43 2c             	mov    %eax,0x2c(%ebx)
    1b4c:	85 c0                	test   %eax,%eax
    1b4e:	0f 84 1c 01 00 00    	je     1c70 <read_data+0x320>
    1b54:	83 ec 0c             	sub    $0xc,%esp
    1b57:	8d 43 30             	lea    0x30(%ebx),%eax
    1b5a:	50                   	push   %eax
    1b5b:	e8 70 33 00 00       	call   4ed0 <stats_get_tasks@plt>
    1b60:	83 c4 10             	add    $0x10,%esp
    1b63:	89 43 34             	mov    %eax,0x34(%ebx)
    1b66:	85 c0                	test   %eax,%eax
    1b68:	0f 84 2a 01 00 00    	je     1c98 <read_data+0x348>
    1b6e:	8b 53 30             	mov    0x30(%ebx),%edx
    1b71:	50                   	push   %eax
    1b72:	50                   	push   %eax
    1b73:	6a 40                	push   $0x40
    1b75:	52                   	push   %edx
    1b76:	e8 95 32 00 00       	call   4e10 <calloc@plt>
    1b7b:	83 c4 10             	add    $0x10,%esp
    1b7e:	89 43 38             	mov    %eax,0x38(%ebx)
    1b81:	85 c0                	test   %eax,%eax
    1b83:	0f 84 1f 01 00 00    	je     1ca8 <read_data+0x358>
    1b89:	83 ec 0c             	sub    $0xc,%esp
    1b8c:	8d 43 3c             	lea    0x3c(%ebx),%eax
    1b8f:	50                   	push   %eax
    1b90:	e8 8b 33 00 00       	call   4f20 <stats_get_threads@plt>
    1b95:	83 c4 10             	add    $0x10,%esp
    1b98:	89 43 40             	mov    %eax,0x40(%ebx)
    1b9b:	85 c0                	test   %eax,%eax
    1b9d:	0f 84 0d 01 00 00    	je     1cb0 <read_data+0x360>
    1ba3:	83 ec 0c             	sub    $0xc,%esp
    1ba6:	8d 43 44             	lea    0x44(%ebx),%eax
    1ba9:	50                   	push   %eax
    1baa:	e8 01 33 00 00       	call   4eb0 <stats_get_exceptions@plt>
    1baf:	83 c4 10             	add    $0x10,%esp
    1bb2:	89 43 48             	mov    %eax,0x48(%ebx)
    1bb5:	85 c0                	test   %eax,%eax
    1bb7:	0f 84 c3 00 00 00    	je     1c80 <read_data+0x330>
    1bbd:	50                   	push   %eax
    1bbe:	50                   	push   %eax
    1bbf:	8b 43 44             	mov    0x44(%ebx),%eax
    1bc2:	6a 20                	push   $0x20
    1bc4:	50                   	push   %eax
    1bc5:	e8 46 32 00 00       	call   4e10 <calloc@plt>
    1bca:	83 c4 10             	add    $0x10,%esp
    1bcd:	89 43 4c             	mov    %eax,0x4c(%ebx)
    1bd0:	85 c0                	test   %eax,%eax
    1bd2:	0f 84 e0 00 00 00    	je     1cb8 <read_data+0x368>
    1bd8:	e8 73 32 00 00       	call   4e50 <stats_get_physmem@plt>
    1bdd:	89 43 50             	mov    %eax,0x50(%ebx)
    1be0:	85 c0                	test   %eax,%eax
    1be2:	0f 84 d8 00 00 00    	je     1cc0 <read_data+0x370>
    1be8:	50                   	push   %eax
    1be9:	50                   	push   %eax
    1bea:	8b 43 30             	mov    0x30(%ebx),%eax
    1bed:	6a 08                	push   $0x8
    1bef:	50                   	push   %eax
    1bf0:	e8 1b 32 00 00       	call   4e10 <calloc@plt>
    1bf5:	83 c4 10             	add    $0x10,%esp
    1bf8:	89 43 54             	mov    %eax,0x54(%ebx)
    1bfb:	85 c0                	test   %eax,%eax
    1bfd:	0f 84 c5 00 00 00    	je     1cc8 <read_data+0x378>
    1c03:	8b 43 30             	mov    0x30(%ebx),%eax
    1c06:	57                   	push   %edi
    1c07:	57                   	push   %edi
    1c08:	6a 08                	push   $0x8
    1c0a:	50                   	push   %eax
    1c0b:	e8 00 32 00 00       	call   4e10 <calloc@plt>
    1c10:	83 c4 10             	add    $0x10,%esp
    1c13:	89 43 58             	mov    %eax,0x58(%ebx)
    1c16:	85 c0                	test   %eax,%eax
    1c18:	0f 84 b2 00 00 00    	je     1cd0 <read_data+0x380>
    1c1e:	8b 73 44             	mov    0x44(%ebx),%esi
    1c21:	51                   	push   %ecx
    1c22:	51                   	push   %ecx
    1c23:	6a 08                	push   $0x8
    1c25:	56                   	push   %esi
    1c26:	e8 e5 31 00 00       	call   4e10 <calloc@plt>
    1c2b:	83 c4 10             	add    $0x10,%esp
    1c2e:	89 43 5c             	mov    %eax,0x5c(%ebx)
    1c31:	85 c0                	test   %eax,%eax
    1c33:	0f 84 9f 00 00 00    	je     1cd8 <read_data+0x388>
    1c39:	8b 53 44             	mov    0x44(%ebx),%edx
    1c3c:	50                   	push   %eax
    1c3d:	50                   	push   %eax
    1c3e:	6a 08                	push   $0x8
    1c40:	52                   	push   %edx
    1c41:	e8 ca 31 00 00       	call   4e10 <calloc@plt>
    1c46:	89 c2                	mov    %eax,%edx
    1c48:	89 43 60             	mov    %eax,0x60(%ebx)
    1c4b:	83 c4 10             	add    $0x10,%esp
    1c4e:	b8 80 47 00 00       	mov    $0x4780,%eax
    1c53:	85 d2                	test   %edx,%edx
    1c55:	74 0e                	je     1c65 <read_data+0x315>
    1c57:	31 c0                	xor    %eax,%eax
    1c59:	eb 0a                	jmp    1c65 <read_data+0x315>
    1c5b:	90                   	nop
    1c5c:	8d 74 26 00          	lea    0x0(%esi,%eiz,1),%esi
    1c60:	b8 0e 45 00 00       	mov    $0x450e,%eax
    1c65:	8d 65 f4             	lea    -0xc(%ebp),%esp
    1c68:	5b                   	pop    %ebx
    1c69:	5e                   	pop    %esi
    1c6a:	5f                   	pop    %edi
    1c6b:	5d                   	pop    %ebp
    1c6c:	c3                   	ret    
    1c6d:	8d 76 00             	lea    0x0(%esi),%esi
    1c70:	8d 65 f4             	lea    -0xc(%ebp),%esp
    1c73:	b8 7c 46 00 00       	mov    $0x467c,%eax
    1c78:	5b                   	pop    %ebx
    1c79:	5e                   	pop    %esi
    1c7a:	5f                   	pop    %edi
    1c7b:	5d                   	pop    %ebp
    1c7c:	c3                   	ret    
    1c7d:	8d 76 00             	lea    0x0(%esi),%esi
    1c80:	b8 59 45 00 00       	mov    $0x4559,%eax
    1c85:	eb de                	jmp    1c65 <read_data+0x315>
    1c87:	90                   	nop
    1c88:	8d 65 f4             	lea    -0xc(%ebp),%esp
    1c8b:	b8 25 45 00 00       	mov    $0x4525,%eax
    1c90:	5b                   	pop    %ebx
    1c91:	5e                   	pop    %esi
    1c92:	5f                   	pop    %edi
    1c93:	5d                   	pop    %ebp
    1c94:	c3                   	ret    
    1c95:	8d 76 00             	lea    0x0(%esi),%esi
    1c98:	8d 65 f4             	lea    -0xc(%ebp),%esp
    1c9b:	b8 35 45 00 00       	mov    $0x4535,%eax
    1ca0:	5b                   	pop    %ebx
    1ca1:	5e                   	pop    %esi
    1ca2:	5f                   	pop    %edi
    1ca3:	5d                   	pop    %ebp
    1ca4:	c3                   	ret    
    1ca5:	8d 76 00             	lea    0x0(%esi),%esi
    1ca8:	b8 a4 46 00 00       	mov    $0x46a4,%eax
    1cad:	eb b6                	jmp    1c65 <read_data+0x315>
    1caf:	90                   	nop
    1cb0:	b8 46 45 00 00       	mov    $0x4546,%eax
    1cb5:	eb ae                	jmp    1c65 <read_data+0x315>
    1cb7:	90                   	nop
    1cb8:	b8 cc 46 00 00       	mov    $0x46cc,%eax
    1cbd:	eb a6                	jmp    1c65 <read_data+0x315>
    1cbf:	90                   	nop
    1cc0:	b8 6f 45 00 00       	mov    $0x456f,%eax
    1cc5:	eb 9e                	jmp    1c65 <read_data+0x315>
    1cc7:	90                   	nop
    1cc8:	b8 f8 46 00 00       	mov    $0x46f8,%eax
    1ccd:	eb 96                	jmp    1c65 <read_data+0x315>
    1ccf:	90                   	nop
    1cd0:	b8 20 47 00 00       	mov    $0x4720,%eax
    1cd5:	eb 8e                	jmp    1c65 <read_data+0x315>
    1cd7:	90                   	nop
    1cd8:	b8 4c 47 00 00       	mov    $0x474c,%eax
    1cdd:	eb 86                	jmp    1c65 <read_data+0x315>
    1cdf:	90                   	nop

00001ce0 <free_data>:
    1ce0:	55                   	push   %ebp
    1ce1:	89 e5                	mov    %esp,%ebp
    1ce3:	53                   	push   %ebx
    1ce4:	52                   	push   %edx
    1ce5:	89 c3                	mov    %eax,%ebx
    1ce7:	8b 40 20             	mov    0x20(%eax),%eax
    1cea:	85 c0                	test   %eax,%eax
    1cec:	74 0c                	je     1cfa <free_data+0x1a>
    1cee:	83 ec 0c             	sub    $0xc,%esp
    1cf1:	50                   	push   %eax
    1cf2:	e8 39 32 00 00       	call   4f30 <free@plt>
    1cf7:	83 c4 10             	add    $0x10,%esp
    1cfa:	8b 43 28             	mov    0x28(%ebx),%eax
    1cfd:	85 c0                	test   %eax,%eax
    1cff:	74 0c                	je     1d0d <free_data+0x2d>
    1d01:	83 ec 0c             	sub    $0xc,%esp
    1d04:	50                   	push   %eax
    1d05:	e8 26 32 00 00       	call   4f30 <free@plt>
    1d0a:	83 c4 10             	add    $0x10,%esp
    1d0d:	8b 43 2c             	mov    0x2c(%ebx),%eax
    1d10:	85 c0                	test   %eax,%eax
    1d12:	74 0c                	je     1d20 <free_data+0x40>
    1d14:	83 ec 0c             	sub    $0xc,%esp
    1d17:	50                   	push   %eax
    1d18:	e8 13 32 00 00       	call   4f30 <free@plt>
    1d1d:	83 c4 10             	add    $0x10,%esp
    1d20:	8b 43 34             	mov    0x34(%ebx),%eax
    1d23:	85 c0                	test   %eax,%eax
    1d25:	74 0c                	je     1d33 <free_data+0x53>
    1d27:	83 ec 0c             	sub    $0xc,%esp
    1d2a:	50                   	push   %eax
    1d2b:	e8 00 32 00 00       	call   4f30 <free@plt>
    1d30:	83 c4 10             	add    $0x10,%esp
    1d33:	8b 43 38             	mov    0x38(%ebx),%eax
    1d36:	85 c0                	test   %eax,%eax
    1d38:	74 0c                	je     1d46 <free_data+0x66>
    1d3a:	83 ec 0c             	sub    $0xc,%esp
    1d3d:	50                   	push   %eax
    1d3e:	e8 ed 31 00 00       	call   4f30 <free@plt>
    1d43:	83 c4 10             	add    $0x10,%esp
    1d46:	8b 43 40             	mov    0x40(%ebx),%eax
    1d49:	85 c0                	test   %eax,%eax
    1d4b:	74 0c                	je     1d59 <free_data+0x79>
    1d4d:	83 ec 0c             	sub    $0xc,%esp
    1d50:	50                   	push   %eax
    1d51:	e8 da 31 00 00       	call   4f30 <free@plt>
    1d56:	83 c4 10             	add    $0x10,%esp
    1d59:	8b 43 48             	mov    0x48(%ebx),%eax
    1d5c:	85 c0                	test   %eax,%eax
    1d5e:	74 0c                	je     1d6c <free_data+0x8c>
    1d60:	83 ec 0c             	sub    $0xc,%esp
    1d63:	50                   	push   %eax
    1d64:	e8 c7 31 00 00       	call   4f30 <free@plt>
    1d69:	83 c4 10             	add    $0x10,%esp
    1d6c:	8b 43 4c             	mov    0x4c(%ebx),%eax
    1d6f:	85 c0                	test   %eax,%eax
    1d71:	74 0c                	je     1d7f <free_data+0x9f>
    1d73:	83 ec 0c             	sub    $0xc,%esp
    1d76:	50                   	push   %eax
    1d77:	e8 b4 31 00 00       	call   4f30 <free@plt>
    1d7c:	83 c4 10             	add    $0x10,%esp
    1d7f:	8b 43 50             	mov    0x50(%ebx),%eax
    1d82:	85 c0                	test   %eax,%eax
    1d84:	74 0c                	je     1d92 <free_data+0xb2>
    1d86:	83 ec 0c             	sub    $0xc,%esp
    1d89:	50                   	push   %eax
    1d8a:	e8 a1 31 00 00       	call   4f30 <free@plt>
    1d8f:	83 c4 10             	add    $0x10,%esp
    1d92:	8b 43 54             	mov    0x54(%ebx),%eax
    1d95:	85 c0                	test   %eax,%eax
    1d97:	74 0c                	je     1da5 <free_data+0xc5>
    1d99:	83 ec 0c             	sub    $0xc,%esp
    1d9c:	50                   	push   %eax
    1d9d:	e8 8e 31 00 00       	call   4f30 <free@plt>
    1da2:	83 c4 10             	add    $0x10,%esp
    1da5:	8b 43 58             	mov    0x58(%ebx),%eax
    1da8:	85 c0                	test   %eax,%eax
    1daa:	74 0c                	je     1db8 <free_data+0xd8>
    1dac:	83 ec 0c             	sub    $0xc,%esp
    1daf:	50                   	push   %eax
    1db0:	e8 7b 31 00 00       	call   4f30 <free@plt>
    1db5:	83 c4 10             	add    $0x10,%esp
    1db8:	8b 43 5c             	mov    0x5c(%ebx),%eax
    1dbb:	85 c0                	test   %eax,%eax
    1dbd:	74 0c                	je     1dcb <free_data+0xeb>
    1dbf:	83 ec 0c             	sub    $0xc,%esp
    1dc2:	50                   	push   %eax
    1dc3:	e8 68 31 00 00       	call   4f30 <free@plt>
    1dc8:	83 c4 10             	add    $0x10,%esp
    1dcb:	8b 43 60             	mov    0x60(%ebx),%eax
    1dce:	85 c0                	test   %eax,%eax
    1dd0:	74 0c                	je     1dde <free_data+0xfe>
    1dd2:	83 ec 0c             	sub    $0xc,%esp
    1dd5:	50                   	push   %eax
    1dd6:	e8 55 31 00 00       	call   4f30 <free@plt>
    1ddb:	83 c4 10             	add    $0x10,%esp
    1dde:	8b 43 74             	mov    0x74(%ebx),%eax
    1de1:	85 c0                	test   %eax,%eax
    1de3:	74 0c                	je     1df1 <free_data+0x111>
    1de5:	83 ec 0c             	sub    $0xc,%esp
    1de8:	50                   	push   %eax
    1de9:	e8 42 31 00 00       	call   4f30 <free@plt>
    1dee:	83 c4 10             	add    $0x10,%esp
    1df1:	8b 5d fc             	mov    -0x4(%ebp),%ebx
    1df4:	c9                   	leave  
    1df5:	c3                   	ret    
    1df6:	8d 76 00             	lea    0x0(%esi),%esi
    1df9:	8d bc 27 00 00 00 00 	lea    0x0(%edi,%eiz,1),%edi

00001e00 <cmp_data>:
    1e00:	55                   	push   %ebp
    1e01:	89 e5                	mov    %esp,%ebp
    1e03:	57                   	push   %edi
    1e04:	56                   	push   %esi
    1e05:	53                   	push   %ebx
    1e06:	83 ec 1c             	sub    $0x1c,%esp
    1e09:	a1 c4 65 00 00       	mov    0x65c4,%eax
    1e0e:	8b 5d 08             	mov    0x8(%ebp),%ebx
    1e11:	8b 75 0c             	mov    0xc(%ebp),%esi
    1e14:	8d 0c 80             	lea    (%eax,%eax,4),%ecx
    1e17:	c1 e1 02             	shl    $0x2,%ecx
    1e1a:	01 cb                	add    %ecx,%ebx
    1e1c:	01 f1                	add    %esi,%ecx
    1e1e:	8b 03                	mov    (%ebx),%eax
    1e20:	3b 01                	cmp    (%ecx),%eax
    1e22:	0f 87 bd 00 00 00    	ja     1ee5 <cmp_data+0xe5>
    1e28:	0f 82 92 00 00 00    	jb     1ec0 <cmp_data+0xc0>
    1e2e:	83 f8 04             	cmp    $0x4,%eax
    1e31:	74 2d                	je     1e60 <cmp_data+0x60>
    1e33:	0f 86 97 00 00 00    	jbe    1ed0 <cmp_data+0xd0>
    1e39:	83 f8 05             	cmp    $0x5,%eax
    1e3c:	0f 85 c4 00 00 00    	jne    1f06 <cmp_data+0x106>
    1e42:	50                   	push   %eax
    1e43:	50                   	push   %eax
    1e44:	8b 51 04             	mov    0x4(%ecx),%edx
    1e47:	52                   	push   %edx
    1e48:	8b 4b 04             	mov    0x4(%ebx),%ecx
    1e4b:	51                   	push   %ecx
    1e4c:	e8 1f 30 00 00       	call   4e70 <str_cmp@plt>
    1e51:	8b 1d c0 65 00 00    	mov    0x65c0,%ebx
    1e57:	83 c4 10             	add    $0x10,%esp
    1e5a:	0f af c3             	imul   %ebx,%eax
    1e5d:	eb 68                	jmp    1ec7 <cmp_data+0xc7>
    1e5f:	90                   	nop
    1e60:	8b 71 0c             	mov    0xc(%ecx),%esi
    1e63:	8b 41 10             	mov    0x10(%ecx),%eax
    1e66:	8b 7b 04             	mov    0x4(%ebx),%edi
    1e69:	8b 53 08             	mov    0x8(%ebx),%edx
    1e6c:	0f af d6             	imul   %esi,%edx
    1e6f:	0f af c7             	imul   %edi,%eax
    1e72:	8b 79 0c             	mov    0xc(%ecx),%edi
    1e75:	01 d0                	add    %edx,%eax
    1e77:	89 45 e4             	mov    %eax,-0x1c(%ebp)
    1e7a:	89 f8                	mov    %edi,%eax
    1e7c:	f7 63 04             	mull   0x4(%ebx)
    1e7f:	89 7d e0             	mov    %edi,-0x20(%ebp)
    1e82:	8b 7d e4             	mov    -0x1c(%ebp),%edi
    1e85:	01 d7                	add    %edx,%edi
    1e87:	89 c6                	mov    %eax,%esi
    1e89:	8b 51 08             	mov    0x8(%ecx),%edx
    1e8c:	8b 43 0c             	mov    0xc(%ebx),%eax
    1e8f:	0f af d0             	imul   %eax,%edx
    1e92:	8b 43 10             	mov    0x10(%ebx),%eax
    1e95:	0f af 41 04          	imul   0x4(%ecx),%eax
    1e99:	01 d0                	add    %edx,%eax
    1e9b:	89 45 e4             	mov    %eax,-0x1c(%ebp)
    1e9e:	8b 43 0c             	mov    0xc(%ebx),%eax
    1ea1:	f7 61 04             	mull   0x4(%ecx)
    1ea4:	8b 4d e4             	mov    -0x1c(%ebp),%ecx
    1ea7:	01 ca                	add    %ecx,%edx
    1ea9:	39 d7                	cmp    %edx,%edi
    1eab:	77 38                	ja     1ee5 <cmp_data+0xe5>
    1ead:	72 11                	jb     1ec0 <cmp_data+0xc0>
    1eaf:	39 c6                	cmp    %eax,%esi
    1eb1:	77 32                	ja     1ee5 <cmp_data+0xe5>
    1eb3:	39 d7                	cmp    %edx,%edi
    1eb5:	72 09                	jb     1ec0 <cmp_data+0xc0>
    1eb7:	77 4d                	ja     1f06 <cmp_data+0x106>
    1eb9:	39 c6                	cmp    %eax,%esi
    1ebb:	73 49                	jae    1f06 <cmp_data+0x106>
    1ebd:	8d 76 00             	lea    0x0(%esi),%esi
    1ec0:	a1 c0 65 00 00       	mov    0x65c0,%eax
    1ec5:	f7 d8                	neg    %eax
    1ec7:	8d 65 f4             	lea    -0xc(%ebp),%esp
    1eca:	5b                   	pop    %ebx
    1ecb:	5e                   	pop    %esi
    1ecc:	5f                   	pop    %edi
    1ecd:	5d                   	pop    %ebp
    1ece:	c3                   	ret    
    1ecf:	90                   	nop
    1ed0:	83 f8 01             	cmp    $0x1,%eax
    1ed3:	72 31                	jb     1f06 <cmp_data+0x106>
    1ed5:	8b 53 08             	mov    0x8(%ebx),%edx
    1ed8:	8b 41 08             	mov    0x8(%ecx),%eax
    1edb:	8b 73 04             	mov    0x4(%ebx),%esi
    1ede:	39 c2                	cmp    %eax,%edx
    1ee0:	8b 59 04             	mov    0x4(%ecx),%ebx
    1ee3:	76 13                	jbe    1ef8 <cmp_data+0xf8>
    1ee5:	a1 c0 65 00 00       	mov    0x65c0,%eax
    1eea:	8d 65 f4             	lea    -0xc(%ebp),%esp
    1eed:	5b                   	pop    %ebx
    1eee:	5e                   	pop    %esi
    1eef:	5f                   	pop    %edi
    1ef0:	5d                   	pop    %ebp
    1ef1:	c3                   	ret    
    1ef2:	8d b6 00 00 00 00    	lea    0x0(%esi),%esi
    1ef8:	72 c6                	jb     1ec0 <cmp_data+0xc0>
    1efa:	39 de                	cmp    %ebx,%esi
    1efc:	77 e7                	ja     1ee5 <cmp_data+0xe5>
    1efe:	39 c2                	cmp    %eax,%edx
    1f00:	77 04                	ja     1f06 <cmp_data+0x106>
    1f02:	39 de                	cmp    %ebx,%esi
    1f04:	72 ba                	jb     1ec0 <cmp_data+0xc0>
    1f06:	8d 65 f4             	lea    -0xc(%ebp),%esp
    1f09:	31 c0                	xor    %eax,%eax
    1f0b:	5b                   	pop    %ebx
    1f0c:	5e                   	pop    %esi
    1f0d:	5f                   	pop    %edi
    1f0e:	5d                   	pop    %ebp
    1f0f:	c3                   	ret    

00001f10 <main>:
    1f10:	8d 4c 24 04          	lea    0x4(%esp),%ecx
    1f14:	83 e4 f0             	and    $0xfffffff0,%esp
    1f17:	ff 71 fc             	pushl  -0x4(%ecx)
    1f1a:	55                   	push   %ebp
    1f1b:	89 e5                	mov    %esp,%ebp
    1f1d:	57                   	push   %edi
    1f1e:	56                   	push   %esi
    1f1f:	53                   	push   %ebx
    1f20:	51                   	push   %ecx
    1f21:	81 ec 08 01 00 00    	sub    $0x108,%esp
    1f27:	e8 14 07 00 00       	call   2640 <screen_init>
    1f2c:	83 ec 0c             	sub    $0xc,%esp
    1f2f:	68 8a 45 00 00       	push   $0x458a
    1f34:	e8 27 2e 00 00       	call   4d60 <printf@plt>
    1f39:	8d 85 f8 fe ff ff    	lea    -0x108(%ebp),%eax
    1f3f:	89 85 f4 fe ff ff    	mov    %eax,-0x10c(%ebp)
    1f45:	e8 06 fa ff ff       	call   1950 <read_data>
    1f4a:	83 c4 10             	add    $0x10,%esp
    1f4d:	89 c3                	mov    %eax,%ebx
    1f4f:	85 c0                	test   %eax,%eax
    1f51:	74 3a                	je     1f8d <main+0x7d>
    1f53:	e8 78 07 00 00       	call   26d0 <screen_done>
    1f58:	8b 85 f4 fe ff ff    	mov    -0x10c(%ebp),%eax
    1f5e:	e8 7d fd ff ff       	call   1ce0 <free_data>
    1f63:	a1 80 66 00 00       	mov    0x6680,%eax
    1f68:	53                   	push   %ebx
    1f69:	68 eb 45 00 00       	push   $0x45eb
    1f6e:	68 ef 45 00 00       	push   $0x45ef
    1f73:	50                   	push   %eax
    1f74:	e8 a7 2e 00 00       	call   4e20 <fprintf@plt>
    1f79:	83 c4 10             	add    $0x10,%esp
    1f7c:	b8 01 00 00 00       	mov    $0x1,%eax
    1f81:	8d 65 f0             	lea    -0x10(%ebp),%esp
    1f84:	59                   	pop    %ecx
    1f85:	5b                   	pop    %ebx
    1f86:	5e                   	pop    %esi
    1f87:	5f                   	pop    %edi
    1f88:	5d                   	pop    %ebp
    1f89:	8d 61 fc             	lea    -0x4(%ecx),%esp
    1f8c:	c3                   	ret    
    1f8d:	8b 85 f4 fe ff ff    	mov    -0x10c(%ebp),%eax
    1f93:	89 c2                	mov    %eax,%edx
    1f95:	e8 a6 f1 ff ff       	call   1140 <compute_percentages>
    1f9a:	83 ec 0c             	sub    $0xc,%esp
    1f9d:	6a 01                	push   $0x1
    1f9f:	e8 bc 24 00 00       	call   4460 <tgetchar>
    1fa4:	83 c4 10             	add    $0x10,%esp
    1fa7:	85 c0                	test   %eax,%eax
    1fa9:	0f 88 ff 03 00 00    	js     23ae <main+0x49e>
    1faf:	8b 35 88 66 00 00    	mov    0x6688,%esi
    1fb5:	83 fe 02             	cmp    $0x2,%esi
    1fb8:	0f 84 38 02 00 00    	je     21f6 <main+0x2e6>
    1fbe:	83 fe 01             	cmp    $0x1,%esi
    1fc1:	0f 84 61 04 00 00    	je     2428 <main+0x518>
    1fc7:	83 f8 69             	cmp    $0x69,%eax
    1fca:	0f 84 47 02 00 00    	je     2217 <main+0x307>
    1fd0:	0f 8e 52 03 00 00    	jle    2328 <main+0x418>
    1fd6:	83 f8 72             	cmp    $0x72,%eax
    1fd9:	0f 84 82 01 00 00    	je     2161 <main+0x251>
    1fdf:	0f 8e e2 05 00 00    	jle    25c7 <main+0x6b7>
    1fe5:	83 f8 73             	cmp    $0x73,%eax
    1fe8:	0f 84 2b 04 00 00    	je     2419 <main+0x509>
    1fee:	83 f8 74             	cmp    $0x74,%eax
    1ff1:	0f 85 0d 04 00 00    	jne    2404 <main+0x4f4>
    1ff7:	8b 85 6c ff ff ff    	mov    -0x94(%ebp),%eax
    1ffd:	c7 05 90 66 00 00 00 	movl   $0x0,0x6690
    2004:	00 00 00 
    2007:	85 c0                	test   %eax,%eax
    2009:	0f 85 62 01 00 00    	jne    2171 <main+0x261>
    200f:	6b 85 28 ff ff ff 09 	imul   $0x9,-0xd8(%ebp),%eax
    2016:	c7 85 5c ff ff ff d6 	movl   $0x45d6,-0xa4(%ebp)
    201d:	45 00 00 
    2020:	53                   	push   %ebx
    2021:	c7 85 60 ff ff ff 09 	movl   $0x9,-0xa0(%ebp)
    2028:	00 00 00 
    202b:	53                   	push   %ebx
    202c:	c7 85 64 ff ff ff c0 	movl   $0x48c0,-0x9c(%ebp)
    2033:	48 00 00 
    2036:	6a 14                	push   $0x14
    2038:	89 85 68 ff ff ff    	mov    %eax,-0x98(%ebp)
    203e:	50                   	push   %eax
    203f:	e8 cc 2d 00 00       	call   4e10 <calloc@plt>
    2044:	83 c4 10             	add    $0x10,%esp
    2047:	89 85 6c ff ff ff    	mov    %eax,-0x94(%ebp)
    204d:	85 c0                	test   %eax,%eax
    204f:	0f 84 4f 03 00 00    	je     23a4 <main+0x494>
    2055:	8b bd 28 ff ff ff    	mov    -0xd8(%ebp),%edi
    205b:	85 ff                	test   %edi,%edi
    205d:	0f 84 41 01 00 00    	je     21a4 <main+0x294>
    2063:	8b 95 30 ff ff ff    	mov    -0xd0(%ebp),%edx
    2069:	8b b5 2c ff ff ff    	mov    -0xd4(%ebp),%esi
    206f:	c1 e7 06             	shl    $0x6,%edi
    2072:	83 c6 08             	add    $0x8,%esi
    2075:	01 d7                	add    %edx,%edi
    2077:	90                   	nop
    2078:	8b 4e f8             	mov    -0x8(%esi),%ecx
    207b:	8b 5e fc             	mov    -0x4(%esi),%ebx
    207e:	89 58 08             	mov    %ebx,0x8(%eax)
    2081:	89 48 04             	mov    %ecx,0x4(%eax)
    2084:	8b 5e 1c             	mov    0x1c(%esi),%ebx
    2087:	c7 40 1c 00 00 00 00 	movl   $0x0,0x1c(%eax)
    208e:	89 58 18             	mov    %ebx,0x18(%eax)
    2091:	c7 00 01 00 00 00    	movl   $0x1,(%eax)
    2097:	8b 5e 18             	mov    0x18(%esi),%ebx
    209a:	c7 40 30 00 00 00 00 	movl   $0x0,0x30(%eax)
    20a1:	89 58 2c             	mov    %ebx,0x2c(%eax)
    20a4:	c7 40 14 01 00 00 00 	movl   $0x1,0x14(%eax)
    20ab:	8b 4a 10             	mov    0x10(%edx),%ecx
    20ae:	c7 40 28 02 00 00 00 	movl   $0x2,0x28(%eax)
    20b5:	89 48 40             	mov    %ecx,0x40(%eax)
    20b8:	c7 40 3c 04 00 00 00 	movl   $0x4,0x3c(%eax)
    20bf:	8b 4a 14             	mov    0x14(%edx),%ecx
    20c2:	83 c2 40             	add    $0x40,%edx
    20c5:	89 48 44             	mov    %ecx,0x44(%eax)
    20c8:	05 b4 00 00 00       	add    $0xb4,%eax
    20cd:	8b 4a d8             	mov    -0x28(%edx),%ecx
    20d0:	89 48 94             	mov    %ecx,-0x6c(%eax)
    20d3:	8b 4a dc             	mov    -0x24(%edx),%ecx
    20d6:	c7 40 9c 02 00 00 00 	movl   $0x2,-0x64(%eax)
    20dd:	89 48 98             	mov    %ecx,-0x68(%eax)
    20e0:	8b 5e 14             	mov    0x14(%esi),%ebx
    20e3:	c7 40 a4 00 00 00 00 	movl   $0x0,-0x5c(%eax)
    20ea:	89 58 a0             	mov    %ebx,-0x60(%eax)
    20ed:	c7 40 b0 04 00 00 00 	movl   $0x4,-0x50(%eax)
    20f4:	8b 4a c0             	mov    -0x40(%edx),%ecx
    20f7:	89 48 b4             	mov    %ecx,-0x4c(%eax)
    20fa:	8b 4a c4             	mov    -0x3c(%edx),%ecx
    20fd:	89 48 b8             	mov    %ecx,-0x48(%eax)
    2100:	8b 4a c8             	mov    -0x38(%edx),%ecx
    2103:	89 48 bc             	mov    %ecx,-0x44(%eax)
    2106:	8b 4a cc             	mov    -0x34(%edx),%ecx
    2109:	89 48 c0             	mov    %ecx,-0x40(%eax)
    210c:	c7 40 c4 04 00 00 00 	movl   $0x4,-0x3c(%eax)
    2113:	8b 4a e0             	mov    -0x20(%edx),%ecx
    2116:	89 48 c8             	mov    %ecx,-0x38(%eax)
    2119:	8b 4a e4             	mov    -0x1c(%edx),%ecx
    211c:	89 48 cc             	mov    %ecx,-0x34(%eax)
    211f:	8b 4a e8             	mov    -0x18(%edx),%ecx
    2122:	89 48 d0             	mov    %ecx,-0x30(%eax)
    2125:	8b 4a ec             	mov    -0x14(%edx),%ecx
    2128:	c7 40 d8 04 00 00 00 	movl   $0x4,-0x28(%eax)
    212f:	89 48 d4             	mov    %ecx,-0x2c(%eax)
    2132:	8b 4a f0             	mov    -0x10(%edx),%ecx
    2135:	89 48 dc             	mov    %ecx,-0x24(%eax)
    2138:	8b 4a f4             	mov    -0xc(%edx),%ecx
    213b:	89 48 e0             	mov    %ecx,-0x20(%eax)
    213e:	8b 4a f8             	mov    -0x8(%edx),%ecx
    2141:	89 48 e4             	mov    %ecx,-0x1c(%eax)
    2144:	8b 4a fc             	mov    -0x4(%edx),%ecx
    2147:	89 70 f0             	mov    %esi,-0x10(%eax)
    214a:	89 48 e8             	mov    %ecx,-0x18(%eax)
    214d:	c7 40 ec 05 00 00 00 	movl   $0x5,-0x14(%eax)
    2154:	83 c6 68             	add    $0x68,%esi
    2157:	39 d7                	cmp    %edx,%edi
    2159:	0f 85 19 ff ff ff    	jne    2078 <main+0x168>
    215f:	eb 43                	jmp    21a4 <main+0x294>
    2161:	f7 1d c0 65 00 00    	negl   0x65c0
    2167:	8b 85 6c ff ff ff    	mov    -0x94(%ebp),%eax
    216d:	85 c0                	test   %eax,%eax
    216f:	74 16                	je     2187 <main+0x277>
    2171:	83 ec 0c             	sub    $0xc,%esp
    2174:	50                   	push   %eax
    2175:	e8 b6 2d 00 00       	call   4f30 <free@plt>
    217a:	c7 85 6c ff ff ff 00 	movl   $0x0,-0x94(%ebp)
    2181:	00 00 00 
    2184:	83 c4 10             	add    $0x10,%esp
    2187:	a1 90 66 00 00       	mov    0x6690,%eax
    218c:	83 f8 01             	cmp    $0x1,%eax
    218f:	0f 84 9a 00 00 00    	je     222f <main+0x31f>
    2195:	0f 82 74 fe ff ff    	jb     200f <main+0xff>
    219b:	83 f8 02             	cmp    $0x2,%eax
    219e:	0f 84 b4 01 00 00    	je     2358 <main+0x448>
    21a4:	8b 8d 60 ff ff ff    	mov    -0xa0(%ebp),%ecx
    21aa:	3b 0d c4 65 00 00    	cmp    0x65c4,%ecx
    21b0:	77 0a                	ja     21bc <main+0x2ac>
    21b2:	c7 05 c4 65 00 00 00 	movl   $0x0,0x65c4
    21b9:	00 00 00 
    21bc:	6b c1 14             	imul   $0x14,%ecx,%eax
    21bf:	83 ec 0c             	sub    $0xc,%esp
    21c2:	31 d2                	xor    %edx,%edx
    21c4:	6a 00                	push   $0x0
    21c6:	68 00 1e 00 00       	push   $0x1e00
    21cb:	50                   	push   %eax
    21cc:	8b 85 68 ff ff ff    	mov    -0x98(%ebp),%eax
    21d2:	f7 f1                	div    %ecx
    21d4:	50                   	push   %eax
    21d5:	ff b5 6c ff ff ff    	pushl  -0x94(%ebp)
    21db:	e8 a0 2b 00 00       	call   4d80 <gsort@plt>
    21e0:	83 c4 14             	add    $0x14,%esp
    21e3:	ff b5 f4 fe ff ff    	pushl  -0x10c(%ebp)
    21e9:	e8 72 05 00 00       	call   2760 <print_data>
    21ee:	83 c4 10             	add    $0x10,%esp
    21f1:	e9 a4 fd ff ff       	jmp    1f9a <main+0x8a>
    21f6:	c7 05 88 66 00 00 00 	movl   $0x0,0x6688
    21fd:	00 00 00 
    2200:	83 f8 68             	cmp    $0x68,%eax
    2203:	0f 84 5e ff ff ff    	je     2167 <main+0x257>
    2209:	83 f8 3f             	cmp    $0x3f,%eax
    220c:	0f 85 b5 fd ff ff    	jne    1fc7 <main+0xb7>
    2212:	e9 50 ff ff ff       	jmp    2167 <main+0x257>
    2217:	8b 85 6c ff ff ff    	mov    -0x94(%ebp),%eax
    221d:	c7 05 90 66 00 00 01 	movl   $0x1,0x6690
    2224:	00 00 00 
    2227:	85 c0                	test   %eax,%eax
    2229:	0f 85 42 ff ff ff    	jne    2171 <main+0x261>
    222f:	6b 85 28 ff ff ff 07 	imul   $0x7,-0xd8(%ebp),%eax
    2236:	c7 85 5c ff ff ff dc 	movl   $0x45dc,-0xa4(%ebp)
    223d:	45 00 00 
    2240:	51                   	push   %ecx
    2241:	c7 85 60 ff ff ff 07 	movl   $0x7,-0xa0(%ebp)
    2248:	00 00 00 
    224b:	51                   	push   %ecx
    224c:	c7 85 64 ff ff ff 60 	movl   $0x4860,-0x9c(%ebp)
    2253:	48 00 00 
    2256:	6a 14                	push   $0x14
    2258:	89 85 68 ff ff ff    	mov    %eax,-0x98(%ebp)
    225e:	50                   	push   %eax
    225f:	e8 ac 2b 00 00       	call   4e10 <calloc@plt>
    2264:	83 c4 10             	add    $0x10,%esp
    2267:	89 85 6c ff ff ff    	mov    %eax,-0x94(%ebp)
    226d:	85 c0                	test   %eax,%eax
    226f:	0f 84 2f 01 00 00    	je     23a4 <main+0x494>
    2275:	8b b5 28 ff ff ff    	mov    -0xd8(%ebp),%esi
    227b:	85 f6                	test   %esi,%esi
    227d:	0f 84 21 ff ff ff    	je     21a4 <main+0x294>
    2283:	69 f6 8c 00 00 00    	imul   $0x8c,%esi,%esi
    2289:	8b bd 2c ff ff ff    	mov    -0xd4(%ebp),%edi
    228f:	01 c6                	add    %eax,%esi
    2291:	8d 57 08             	lea    0x8(%edi),%edx
    2294:	8d 74 26 00          	lea    0x0(%esi,%eiz,1),%esi
    2298:	8b 4a f8             	mov    -0x8(%edx),%ecx
    229b:	8b 5a fc             	mov    -0x4(%edx),%ebx
    229e:	89 58 08             	mov    %ebx,0x8(%eax)
    22a1:	89 48 04             	mov    %ecx,0x4(%eax)
    22a4:	8b 4a 30             	mov    0x30(%edx),%ecx
    22a7:	8b 5a 34             	mov    0x34(%edx),%ebx
    22aa:	89 58 1c             	mov    %ebx,0x1c(%eax)
    22ad:	89 48 18             	mov    %ecx,0x18(%eax)
    22b0:	8b 4a 38             	mov    0x38(%edx),%ecx
    22b3:	8b 5a 3c             	mov    0x3c(%edx),%ebx
    22b6:	89 58 30             	mov    %ebx,0x30(%eax)
    22b9:	89 48 2c             	mov    %ecx,0x2c(%eax)
    22bc:	8b 4a 40             	mov    0x40(%edx),%ecx
    22bf:	8b 5a 44             	mov    0x44(%edx),%ebx
    22c2:	89 58 44             	mov    %ebx,0x44(%eax)
    22c5:	89 48 40             	mov    %ecx,0x40(%eax)
    22c8:	8b 4a 48             	mov    0x48(%edx),%ecx
    22cb:	8b 5a 4c             	mov    0x4c(%edx),%ebx
    22ce:	89 58 58             	mov    %ebx,0x58(%eax)
    22d1:	89 48 54             	mov    %ecx,0x54(%eax)
    22d4:	8b 4a 58             	mov    0x58(%edx),%ecx
    22d7:	8b 5a 5c             	mov    0x5c(%edx),%ebx
    22da:	c7 00 01 00 00 00    	movl   $0x1,(%eax)
    22e0:	89 50 7c             	mov    %edx,0x7c(%eax)
    22e3:	c7 40 14 03 00 00 00 	movl   $0x3,0x14(%eax)
    22ea:	c7 40 28 03 00 00 00 	movl   $0x3,0x28(%eax)
    22f1:	c7 40 3c 03 00 00 00 	movl   $0x3,0x3c(%eax)
    22f8:	c7 40 50 03 00 00 00 	movl   $0x3,0x50(%eax)
    22ff:	c7 40 64 03 00 00 00 	movl   $0x3,0x64(%eax)
    2306:	89 48 68             	mov    %ecx,0x68(%eax)
    2309:	89 58 6c             	mov    %ebx,0x6c(%eax)
    230c:	c7 40 78 05 00 00 00 	movl   $0x5,0x78(%eax)
    2313:	05 8c 00 00 00       	add    $0x8c,%eax
    2318:	83 c2 68             	add    $0x68,%edx
    231b:	39 f0                	cmp    %esi,%eax
    231d:	0f 85 75 ff ff ff    	jne    2298 <main+0x388>
    2323:	e9 7c fe ff ff       	jmp    21a4 <main+0x294>
    2328:	83 f8 61             	cmp    $0x61,%eax
    232b:	0f 84 7b 01 00 00    	je     24ac <main+0x59c>
    2331:	0f 8e c4 00 00 00    	jle    23fb <main+0x4eb>
    2337:	83 f8 65             	cmp    $0x65,%eax
    233a:	0f 85 a7 02 00 00    	jne    25e7 <main+0x6d7>
    2340:	8b 85 6c ff ff ff    	mov    -0x94(%ebp),%eax
    2346:	c7 05 90 66 00 00 02 	movl   $0x2,0x6690
    234d:	00 00 00 
    2350:	85 c0                	test   %eax,%eax
    2352:	0f 85 19 fe ff ff    	jne    2171 <main+0x261>
    2358:	6b 85 3c ff ff ff 06 	imul   $0x6,-0xc4(%ebp),%eax
    235f:	c7 85 5c ff ff ff e0 	movl   $0x45e0,-0xa4(%ebp)
    2366:	45 00 00 
    2369:	52                   	push   %edx
    236a:	c7 85 60 ff ff ff 06 	movl   $0x6,-0xa0(%ebp)
    2371:	00 00 00 
    2374:	52                   	push   %edx
    2375:	c7 85 64 ff ff ff 00 	movl   $0x4800,-0x9c(%ebp)
    237c:	48 00 00 
    237f:	6a 14                	push   $0x14
    2381:	89 85 68 ff ff ff    	mov    %eax,-0x98(%ebp)
    2387:	50                   	push   %eax
    2388:	e8 83 2a 00 00       	call   4e10 <calloc@plt>
    238d:	83 c4 10             	add    $0x10,%esp
    2390:	89 85 e8 fe ff ff    	mov    %eax,-0x118(%ebp)
    2396:	89 85 6c ff ff ff    	mov    %eax,-0x94(%ebp)
    239c:	85 c0                	test   %eax,%eax
    239e:	0f 85 37 01 00 00    	jne    24db <main+0x5cb>
    23a4:	bb b4 47 00 00       	mov    $0x47b4,%ebx
    23a9:	e9 a5 fb ff ff       	jmp    1f53 <main+0x43>
    23ae:	8b b5 f4 fe ff ff    	mov    -0x10c(%ebp),%esi
    23b4:	8d 85 f8 fe ff ff    	lea    -0x108(%ebp),%eax
    23ba:	b9 1e 00 00 00       	mov    $0x1e,%ecx
    23bf:	8d bd 70 ff ff ff    	lea    -0x90(%ebp),%edi
    23c5:	f3 a5                	rep movsl %ds:(%esi),%es:(%edi)
    23c7:	89 85 f4 fe ff ff    	mov    %eax,-0x10c(%ebp)
    23cd:	e8 7e f5 ff ff       	call   1950 <read_data>
    23d2:	85 c0                	test   %eax,%eax
    23d4:	0f 85 3a 02 00 00    	jne    2614 <main+0x704>
    23da:	8d 85 70 ff ff ff    	lea    -0x90(%ebp),%eax
    23e0:	8d 95 f8 fe ff ff    	lea    -0x108(%ebp),%edx
    23e6:	e8 55 ed ff ff       	call   1140 <compute_percentages>
    23eb:	8d 85 70 ff ff ff    	lea    -0x90(%ebp),%eax
    23f1:	e8 ea f8 ff ff       	call   1ce0 <free_data>
    23f6:	e9 6c fd ff ff       	jmp    2167 <main+0x257>
    23fb:	83 f8 3f             	cmp    $0x3f,%eax
    23fe:	0f 84 ec 01 00 00    	je     25f0 <main+0x6e0>
    2404:	56                   	push   %esi
    2405:	56                   	push   %esi
    2406:	50                   	push   %eax
    2407:	68 d8 47 00 00       	push   $0x47d8
    240c:	e8 0f 1e 00 00       	call   4220 <show_warning>
    2411:	83 c4 10             	add    $0x10,%esp
    2414:	e9 81 fb ff ff       	jmp    1f9a <main+0x8a>
    2419:	c7 05 88 66 00 00 01 	movl   $0x1,0x6688
    2420:	00 00 00 
    2423:	e9 3f fd ff ff       	jmp    2167 <main+0x257>
    2428:	8b bd 60 ff ff ff    	mov    -0xa0(%ebp),%edi
    242e:	85 ff                	test   %edi,%edi
    2430:	0f 84 31 fd ff ff    	je     2167 <main+0x257>
    2436:	8b 1d c4 65 00 00    	mov    0x65c4,%ebx
    243c:	c6 85 ec fe ff ff 00 	movb   $0x0,-0x114(%ebp)
    2443:	89 9d e8 fe ff ff    	mov    %ebx,-0x118(%ebp)
    2449:	8b 9d 64 ff ff ff    	mov    -0x9c(%ebp),%ebx
    244f:	c6 85 f0 fe ff ff 00 	movb   $0x0,-0x110(%ebp)
    2456:	31 d2                	xor    %edx,%edx
    2458:	8d 4b 04             	lea    0x4(%ebx),%ecx
    245b:	eb 0b                	jmp    2468 <main+0x558>
    245d:	8d 76 00             	lea    0x0(%esi),%esi
    2460:	42                   	inc    %edx
    2461:	83 c1 0c             	add    $0xc,%ecx
    2464:	39 fa                	cmp    %edi,%edx
    2466:	74 1f                	je     2487 <main+0x577>
    2468:	0f be 19             	movsbl (%ecx),%ebx
    246b:	39 d8                	cmp    %ebx,%eax
    246d:	75 f1                	jne    2460 <main+0x550>
    246f:	89 95 e8 fe ff ff    	mov    %edx,-0x118(%ebp)
    2475:	c6 85 ec fe ff ff 01 	movb   $0x1,-0x114(%ebp)
    247c:	31 f6                	xor    %esi,%esi
    247e:	c6 85 f0 fe ff ff 01 	movb   $0x1,-0x110(%ebp)
    2485:	eb d9                	jmp    2460 <main+0x550>
    2487:	80 bd f0 fe ff ff 00 	cmpb   $0x0,-0x110(%ebp)
    248e:	0f 85 92 01 00 00    	jne    2626 <main+0x716>
    2494:	80 bd ec fe ff ff 00 	cmpb   $0x0,-0x114(%ebp)
    249b:	0f 84 c6 fc ff ff    	je     2167 <main+0x257>
    24a1:	89 35 88 66 00 00    	mov    %esi,0x6688
    24a7:	e9 bb fc ff ff       	jmp    2167 <main+0x257>
    24ac:	83 3d 90 66 00 00 02 	cmpl   $0x2,0x6690
    24b3:	0f 85 4b ff ff ff    	jne    2404 <main+0x4f4>
    24b9:	80 35 8c 66 00 00 01 	xorb   $0x1,0x668c
    24c0:	0f 84 39 01 00 00    	je     25ff <main+0x6ef>
    24c6:	83 ec 0c             	sub    $0xc,%esp
    24c9:	68 a3 45 00 00       	push   $0x45a3
    24ce:	e8 4d 1d 00 00       	call   4220 <show_warning>
    24d3:	83 c4 10             	add    $0x10,%esp
    24d6:	e9 8c fc ff ff       	jmp    2167 <main+0x257>
    24db:	89 c3                	mov    %eax,%ebx
    24dd:	c7 85 f0 fe ff ff 00 	movl   $0x0,-0x110(%ebp)
    24e4:	00 00 00 
    24e7:	31 d2                	xor    %edx,%edx
    24e9:	e9 b3 00 00 00       	jmp    25a1 <main+0x691>
    24ee:	8b 85 40 ff ff ff    	mov    -0xc0(%ebp),%eax
    24f4:	80 3d 8c 66 00 00 00 	cmpb   $0x0,0x668c
    24fb:	75 11                	jne    250e <main+0x5fe>
    24fd:	8b bd f0 fe ff ff    	mov    -0x110(%ebp),%edi
    2503:	80 7c 38 18 00       	cmpb   $0x0,0x18(%eax,%edi,1)
    2508:	0f 84 8b 00 00 00    	je     2599 <main+0x689>
    250e:	03 85 f0 fe ff ff    	add    -0x110(%ebp),%eax
    2514:	b9 04 00 00 00       	mov    $0x4,%ecx
    2519:	c7 03 01 00 00 00    	movl   $0x1,(%ebx)
    251f:	83 c0 04             	add    $0x4,%eax
    2522:	8b 78 fc             	mov    -0x4(%eax),%edi
    2525:	c7 43 08 00 00 00 00 	movl   $0x0,0x8(%ebx)
    252c:	89 7b 04             	mov    %edi,0x4(%ebx)
    252f:	c7 43 14 03 00 00 00 	movl   $0x3,0x14(%ebx)
    2536:	8b 70 20             	mov    0x20(%eax),%esi
    2539:	8b 78 24             	mov    0x24(%eax),%edi
    253c:	89 73 18             	mov    %esi,0x18(%ebx)
    253f:	89 d6                	mov    %edx,%esi
    2541:	c1 e6 05             	shl    $0x5,%esi
    2544:	89 7b 1c             	mov    %edi,0x1c(%ebx)
    2547:	03 b5 44 ff ff ff    	add    -0xbc(%ebp),%esi
    254d:	8d 7b 2c             	lea    0x2c(%ebx),%edi
    2550:	89 b5 ec fe ff ff    	mov    %esi,-0x114(%ebp)
    2556:	83 c6 10             	add    $0x10,%esi
    2559:	c7 43 28 04 00 00 00 	movl   $0x4,0x28(%ebx)
    2560:	f3 a5                	rep movsl %ds:(%esi),%es:(%edi)
    2562:	8b 70 18             	mov    0x18(%eax),%esi
    2565:	8b 78 1c             	mov    0x1c(%eax),%edi
    2568:	89 7b 44             	mov    %edi,0x44(%ebx)
    256b:	89 73 40             	mov    %esi,0x40(%ebx)
    256e:	8d 7b 54             	lea    0x54(%ebx),%edi
    2571:	b9 04 00 00 00       	mov    $0x4,%ecx
    2576:	8b b5 ec fe ff ff    	mov    -0x114(%ebp),%esi
    257c:	c7 43 3c 03 00 00 00 	movl   $0x3,0x3c(%ebx)
    2583:	c7 43 50 04 00 00 00 	movl   $0x4,0x50(%ebx)
    258a:	83 c3 78             	add    $0x78,%ebx
    258d:	f3 a5                	rep movsl %ds:(%esi),%es:(%edi)
    258f:	c7 43 ec 05 00 00 00 	movl   $0x5,-0x14(%ebx)
    2596:	89 43 f0             	mov    %eax,-0x10(%ebx)
    2599:	83 85 f0 fe ff ff 2c 	addl   $0x2c,-0x110(%ebp)
    25a0:	42                   	inc    %edx
    25a1:	3b 95 3c ff ff ff    	cmp    -0xc4(%ebp),%edx
    25a7:	0f 82 41 ff ff ff    	jb     24ee <main+0x5de>
    25ad:	2b 9d e8 fe ff ff    	sub    -0x118(%ebp),%ebx
    25b3:	c1 fb 02             	sar    $0x2,%ebx
    25b6:	69 c3 cd cc cc cc    	imul   $0xcccccccd,%ebx,%eax
    25bc:	89 85 68 ff ff ff    	mov    %eax,-0x98(%ebp)
    25c2:	e9 dd fb ff ff       	jmp    21a4 <main+0x294>
    25c7:	83 f8 71             	cmp    $0x71,%eax
    25ca:	0f 85 34 fe ff ff    	jne    2404 <main+0x4f4>
    25d0:	e8 fb 00 00 00       	call   26d0 <screen_done>
    25d5:	8b 85 f4 fe ff ff    	mov    -0x10c(%ebp),%eax
    25db:	e8 00 f7 ff ff       	call   1ce0 <free_data>
    25e0:	31 c0                	xor    %eax,%eax
    25e2:	e9 9a f9 ff ff       	jmp    1f81 <main+0x71>
    25e7:	83 f8 68             	cmp    $0x68,%eax
    25ea:	0f 85 14 fe ff ff    	jne    2404 <main+0x4f4>
    25f0:	c7 05 88 66 00 00 02 	movl   $0x2,0x6688
    25f7:	00 00 00 
    25fa:	e9 68 fb ff ff       	jmp    2167 <main+0x257>
    25ff:	83 ec 0c             	sub    $0xc,%esp
    2602:	68 ba 45 00 00       	push   $0x45ba
    2607:	e8 14 1c 00 00       	call   4220 <show_warning>
    260c:	83 c4 10             	add    $0x10,%esp
    260f:	e9 53 fb ff ff       	jmp    2167 <main+0x257>
    2614:	89 c3                	mov    %eax,%ebx
    2616:	8d 85 70 ff ff ff    	lea    -0x90(%ebp),%eax
    261c:	e8 bf f6 ff ff       	call   1ce0 <free_data>
    2621:	e9 2d f9 ff ff       	jmp    1f53 <main+0x43>
    2626:	8b 85 e8 fe ff ff    	mov    -0x118(%ebp),%eax
    262c:	a3 c4 65 00 00       	mov    %eax,0x65c4
    2631:	e9 5e fe ff ff       	jmp    2494 <main+0x584>
    2636:	66 90                	xchg   %ax,%ax
    2638:	66 90                	xchg   %ax,%ax
    263a:	66 90                	xchg   %ax,%ax
    263c:	66 90                	xchg   %ax,%ax
    263e:	66 90                	xchg   %ax,%ax

00002640 <screen_init>:
    2640:	55                   	push   %ebp
    2641:	89 e5                	mov    %esp,%ebp
    2643:	83 ec 10             	sub    $0x10,%esp
    2646:	8b 15 70 66 00 00    	mov    0x6670,%edx
    264c:	a1 60 66 00 00       	mov    0x6660,%eax
    2651:	50                   	push   %eax
    2652:	52                   	push   %edx
    2653:	e8 98 27 00 00       	call   4df0 <console_init@plt>
    2658:	89 04 24             	mov    %eax,(%esp)
    265b:	a3 84 66 00 00       	mov    %eax,0x6684
    2660:	e8 5b 28 00 00       	call   4ec0 <console_flush@plt>
    2665:	59                   	pop    %ecx
    2666:	58                   	pop    %eax
    2667:	a1 84 66 00 00       	mov    0x6684,%eax
    266c:	6a 00                	push   $0x0
    266e:	50                   	push   %eax
    266f:	e8 6c 27 00 00       	call   4de0 <console_cursor_visibility@plt>
    2674:	58                   	pop    %eax
    2675:	a1 84 66 00 00       	mov    0x6684,%eax
    267a:	50                   	push   %eax
    267b:	e8 40 28 00 00       	call   4ec0 <console_flush@plt>
    2680:	8b 0d 84 66 00 00    	mov    0x6684,%ecx
    2686:	58                   	pop    %eax
    2687:	5a                   	pop    %edx
    2688:	6a 00                	push   $0x0
    268a:	51                   	push   %ecx
    268b:	e8 f0 27 00 00       	call   4e80 <console_set_style@plt>
    2690:	58                   	pop    %eax
    2691:	a1 84 66 00 00       	mov    0x6684,%eax
    2696:	50                   	push   %eax
    2697:	e8 24 28 00 00       	call   4ec0 <console_flush@plt>
    269c:	58                   	pop    %eax
    269d:	a1 84 66 00 00       	mov    0x6684,%eax
    26a2:	50                   	push   %eax
    26a3:	e8 98 27 00 00       	call   4e40 <console_clear@plt>
    26a8:	58                   	pop    %eax
    26a9:	a1 84 66 00 00       	mov    0x6684,%eax
    26ae:	50                   	push   %eax
    26af:	e8 0c 28 00 00       	call   4ec0 <console_flush@plt>
    26b4:	83 c4 0c             	add    $0xc,%esp
    26b7:	8b 15 84 66 00 00    	mov    0x6684,%edx
    26bd:	6a 00                	push   $0x0
    26bf:	6a 00                	push   $0x0
    26c1:	52                   	push   %edx
    26c2:	e8 19 28 00 00       	call   4ee0 <console_set_pos@plt>
    26c7:	83 c4 10             	add    $0x10,%esp
    26ca:	c9                   	leave  
    26cb:	c3                   	ret    
    26cc:	8d 74 26 00          	lea    0x0(%esi,%eiz,1),%esi

000026d0 <screen_done>:
    26d0:	55                   	push   %ebp
    26d1:	89 e5                	mov    %esp,%ebp
    26d3:	83 ec 14             	sub    $0x14,%esp
    26d6:	a1 94 66 00 00       	mov    0x6694,%eax
    26db:	50                   	push   %eax
    26dc:	e8 4f 28 00 00       	call   4f30 <free@plt>
    26e1:	8b 0d 84 66 00 00    	mov    0x6684,%ecx
    26e7:	5a                   	pop    %edx
    26e8:	c7 05 94 66 00 00 00 	movl   $0x0,0x6694
    26ef:	00 00 00 
    26f2:	51                   	push   %ecx
    26f3:	e8 c8 27 00 00       	call   4ec0 <console_flush@plt>
    26f8:	8b 0d 84 66 00 00    	mov    0x6684,%ecx
    26fe:	58                   	pop    %eax
    26ff:	5a                   	pop    %edx
    2700:	6a 00                	push   $0x0
    2702:	51                   	push   %ecx
    2703:	e8 78 27 00 00       	call   4e80 <console_set_style@plt>
    2708:	58                   	pop    %eax
    2709:	a1 84 66 00 00       	mov    0x6684,%eax
    270e:	50                   	push   %eax
    270f:	e8 ac 27 00 00       	call   4ec0 <console_flush@plt>
    2714:	58                   	pop    %eax
    2715:	a1 84 66 00 00       	mov    0x6684,%eax
    271a:	50                   	push   %eax
    271b:	e8 20 27 00 00       	call   4e40 <console_clear@plt>
    2720:	58                   	pop    %eax
    2721:	a1 84 66 00 00       	mov    0x6684,%eax
    2726:	50                   	push   %eax
    2727:	e8 94 27 00 00       	call   4ec0 <console_flush@plt>
    272c:	83 c4 0c             	add    $0xc,%esp
    272f:	8b 15 84 66 00 00    	mov    0x6684,%edx
    2735:	6a 00                	push   $0x0
    2737:	6a 00                	push   $0x0
    2739:	52                   	push   %edx
    273a:	e8 a1 27 00 00       	call   4ee0 <console_set_pos@plt>
    273f:	a1 84 66 00 00       	mov    0x6684,%eax
    2744:	59                   	pop    %ecx
    2745:	50                   	push   %eax
    2746:	e8 75 27 00 00       	call   4ec0 <console_flush@plt>
    274b:	8b 0d 84 66 00 00    	mov    0x6684,%ecx
    2751:	58                   	pop    %eax
    2752:	5a                   	pop    %edx
    2753:	6a 01                	push   $0x1
    2755:	51                   	push   %ecx
    2756:	e8 85 26 00 00       	call   4de0 <console_cursor_visibility@plt>
    275b:	83 c4 10             	add    $0x10,%esp
    275e:	c9                   	leave  
    275f:	c3                   	ret    

00002760 <print_data>:
    2760:	55                   	push   %ebp
    2761:	89 e5                	mov    %esp,%ebp
    2763:	57                   	push   %edi
    2764:	56                   	push   %esi
    2765:	53                   	push   %ebx
    2766:	83 ec 78             	sub    $0x78,%esp
    2769:	a1 84 66 00 00       	mov    0x6684,%eax
    276e:	50                   	push   %eax
    276f:	e8 4c 27 00 00       	call   4ec0 <console_flush@plt>
    2774:	8b 1d 84 66 00 00    	mov    0x6684,%ebx
    277a:	5a                   	pop    %edx
    277b:	59                   	pop    %ecx
    277c:	6a 00                	push   $0x0
    277e:	53                   	push   %ebx
    277f:	e8 fc 26 00 00       	call   4e80 <console_set_style@plt>
    2784:	8b 3d 84 66 00 00    	mov    0x6684,%edi
    278a:	5e                   	pop    %esi
    278b:	57                   	push   %edi
    278c:	e8 2f 27 00 00       	call   4ec0 <console_flush@plt>
    2791:	83 c4 0c             	add    $0xc,%esp
    2794:	a1 84 66 00 00       	mov    0x6684,%eax
    2799:	6a 00                	push   $0x0
    279b:	6a 00                	push   $0x0
    279d:	50                   	push   %eax
    279e:	e8 3d 27 00 00       	call   4ee0 <console_set_pos@plt>
    27a3:	8b 45 08             	mov    0x8(%ebp),%eax
    27a6:	8b 50 18             	mov    0x18(%eax),%edx
    27a9:	8b 78 08             	mov    0x8(%eax),%edi
    27ac:	52                   	push   %edx
    27ad:	8b 48 14             	mov    0x14(%eax),%ecx
    27b0:	51                   	push   %ecx
    27b1:	8b 58 10             	mov    0x10(%eax),%ebx
    27b4:	53                   	push   %ebx
    27b5:	8b 70 0c             	mov    0xc(%eax),%esi
    27b8:	56                   	push   %esi
    27b9:	57                   	push   %edi
    27ba:	8b 50 04             	mov    0x4(%eax),%edx
    27bd:	52                   	push   %edx
    27be:	8b 08                	mov    (%eax),%ecx
    27c0:	51                   	push   %ecx
    27c1:	68 2c 49 00 00       	push   $0x492c
    27c6:	e8 95 25 00 00       	call   4d60 <printf@plt>
    27cb:	8b 45 08             	mov    0x8(%ebp),%eax
    27ce:	8b 58 1c             	mov    0x1c(%eax),%ebx
    27d1:	83 c4 30             	add    $0x30,%esp
    27d4:	85 db                	test   %ebx,%ebx
    27d6:	74 2e                	je     2806 <print_data+0xa6>
    27d8:	31 db                	xor    %ebx,%ebx
    27da:	89 c6                	mov    %eax,%esi
    27dc:	8d 74 26 00          	lea    0x0(%esi,%eiz,1),%esi
    27e0:	83 ec 0c             	sub    $0xc,%esp
    27e3:	68 b4 4a 00 00       	push   $0x4ab4
    27e8:	e8 a3 25 00 00       	call   4d90 <puts@plt>
    27ed:	8b 46 20             	mov    0x20(%esi),%eax
    27f0:	5a                   	pop    %edx
    27f1:	59                   	pop    %ecx
    27f2:	6a 02                	push   $0x2
    27f4:	8b 3c 98             	mov    (%eax,%ebx,4),%edi
    27f7:	43                   	inc    %ebx
    27f8:	57                   	push   %edi
    27f9:	e8 42 27 00 00       	call   4f40 <stats_print_load_fragment@plt>
    27fe:	83 c4 10             	add    $0x10,%esp
    2801:	3b 5e 1c             	cmp    0x1c(%esi),%ebx
    2804:	72 da                	jb     27e0 <print_data+0x80>
    2806:	83 ec 0c             	sub    $0xc,%esp
    2809:	a1 84 66 00 00       	mov    0x6684,%eax
    280e:	50                   	push   %eax
    280f:	e8 ac 26 00 00       	call   4ec0 <console_flush@plt>
    2814:	83 c4 0c             	add    $0xc,%esp
    2817:	8d 45 d0             	lea    -0x30(%ebp),%eax
    281a:	50                   	push   %eax
    281b:	8d 45 c8             	lea    -0x38(%ebp),%eax
    281e:	50                   	push   %eax
    281f:	a1 84 66 00 00       	mov    0x6684,%eax
    2824:	50                   	push   %eax
    2825:	e8 16 25 00 00       	call   4d40 <console_get_size@plt>
    282a:	58                   	pop    %eax
    282b:	a1 84 66 00 00       	mov    0x6684,%eax
    2830:	50                   	push   %eax
    2831:	e8 8a 26 00 00       	call   4ec0 <console_flush@plt>
    2836:	83 c4 0c             	add    $0xc,%esp
    2839:	8d 45 e0             	lea    -0x20(%ebp),%eax
    283c:	50                   	push   %eax
    283d:	8d 45 d8             	lea    -0x28(%ebp),%eax
    2840:	50                   	push   %eax
    2841:	a1 84 66 00 00       	mov    0x6684,%eax
    2846:	50                   	push   %eax
    2847:	e8 24 25 00 00       	call   4d70 <console_get_pos@plt>
    284c:	8b 45 d8             	mov    -0x28(%ebp),%eax
    284f:	83 c4 10             	add    $0x10,%esp
    2852:	8d 58 01             	lea    0x1(%eax),%ebx
    2855:	3b 5d c8             	cmp    -0x38(%ebp),%ebx
    2858:	73 1c                	jae    2876 <print_data+0x116>
    285a:	8d b6 00 00 00 00    	lea    0x0(%esi),%esi
    2860:	83 ec 0c             	sub    $0xc,%esp
    2863:	43                   	inc    %ebx
    2864:	68 b4 4a 00 00       	push   $0x4ab4
    2869:	e8 22 25 00 00       	call   4d90 <puts@plt>
    286e:	83 c4 10             	add    $0x10,%esp
    2871:	3b 5d c8             	cmp    -0x38(%ebp),%ebx
    2874:	72 ea                	jb     2860 <print_data+0x100>
    2876:	8b 45 e0             	mov    -0x20(%ebp),%eax
    2879:	40                   	inc    %eax
    287a:	3b 45 d0             	cmp    -0x30(%ebp),%eax
    287d:	73 10                	jae    288f <print_data+0x12f>
    287f:	83 ec 0c             	sub    $0xc,%esp
    2882:	68 a1 45 00 00       	push   $0x45a1
    2887:	e8 04 25 00 00       	call   4d90 <puts@plt>
    288c:	83 c4 10             	add    $0x10,%esp
    288f:	8b 45 08             	mov    0x8(%ebp),%eax
    2892:	56                   	push   %esi
    2893:	56                   	push   %esi
    2894:	8b 78 30             	mov    0x30(%eax),%edi
    2897:	57                   	push   %edi
    2898:	68 9c 4a 00 00       	push   $0x4a9c
    289d:	e8 be 24 00 00       	call   4d60 <printf@plt>
    28a2:	58                   	pop    %eax
    28a3:	a1 84 66 00 00       	mov    0x6684,%eax
    28a8:	50                   	push   %eax
    28a9:	e8 12 26 00 00       	call   4ec0 <console_flush@plt>
    28ae:	83 c4 0c             	add    $0xc,%esp
    28b1:	8d 45 d0             	lea    -0x30(%ebp),%eax
    28b4:	50                   	push   %eax
    28b5:	8d 45 c8             	lea    -0x38(%ebp),%eax
    28b8:	50                   	push   %eax
    28b9:	a1 84 66 00 00       	mov    0x6684,%eax
    28be:	50                   	push   %eax
    28bf:	e8 7c 24 00 00       	call   4d40 <console_get_size@plt>
    28c4:	58                   	pop    %eax
    28c5:	a1 84 66 00 00       	mov    0x6684,%eax
    28ca:	50                   	push   %eax
    28cb:	e8 f0 25 00 00       	call   4ec0 <console_flush@plt>
    28d0:	83 c4 0c             	add    $0xc,%esp
    28d3:	8d 45 e0             	lea    -0x20(%ebp),%eax
    28d6:	50                   	push   %eax
    28d7:	8d 45 d8             	lea    -0x28(%ebp),%eax
    28da:	50                   	push   %eax
    28db:	a1 84 66 00 00       	mov    0x6684,%eax
    28e0:	50                   	push   %eax
    28e1:	e8 8a 24 00 00       	call   4d70 <console_get_pos@plt>
    28e6:	8b 45 d8             	mov    -0x28(%ebp),%eax
    28e9:	83 c4 10             	add    $0x10,%esp
    28ec:	8d 58 01             	lea    0x1(%eax),%ebx
    28ef:	3b 5d c8             	cmp    -0x38(%ebp),%ebx
    28f2:	73 1a                	jae    290e <print_data+0x1ae>
    28f4:	8d 74 26 00          	lea    0x0(%esi,%eiz,1),%esi
    28f8:	83 ec 0c             	sub    $0xc,%esp
    28fb:	43                   	inc    %ebx
    28fc:	68 b4 4a 00 00       	push   $0x4ab4
    2901:	e8 8a 24 00 00       	call   4d90 <puts@plt>
    2906:	83 c4 10             	add    $0x10,%esp
    2909:	3b 5d c8             	cmp    -0x38(%ebp),%ebx
    290c:	72 ea                	jb     28f8 <print_data+0x198>
    290e:	8b 45 e0             	mov    -0x20(%ebp),%eax
    2911:	40                   	inc    %eax
    2912:	3b 45 d0             	cmp    -0x30(%ebp),%eax
    2915:	73 10                	jae    2927 <print_data+0x1c7>
    2917:	83 ec 0c             	sub    $0xc,%esp
    291a:	68 a1 45 00 00       	push   $0x45a1
    291f:	e8 6c 24 00 00       	call   4d90 <puts@plt>
    2924:	83 c4 10             	add    $0x10,%esp
    2927:	8b 45 08             	mov    0x8(%ebp),%eax
    292a:	8b 58 3c             	mov    0x3c(%eax),%ebx
    292d:	85 db                	test   %ebx,%ebx
    292f:	0f 84 c1 18 00 00    	je     41f6 <print_data+0x1a96>
    2935:	8d 0c 5b             	lea    (%ebx,%ebx,2),%ecx
    2938:	8b 40 40             	mov    0x40(%eax),%eax
    293b:	c1 e1 04             	shl    $0x4,%ecx
    293e:	31 f6                	xor    %esi,%esi
    2940:	01 c1                	add    %eax,%ecx
    2942:	31 ff                	xor    %edi,%edi
    2944:	c7 45 a0 00 00 00 00 	movl   $0x0,-0x60(%ebp)
    294b:	c7 45 98 00 00 00 00 	movl   $0x0,-0x68(%ebp)
    2952:	c7 45 a4 00 00 00 00 	movl   $0x0,-0x5c(%ebp)
    2959:	31 d2                	xor    %edx,%edx
    295b:	89 5d 90             	mov    %ebx,-0x70(%ebp)
    295e:	66 90                	xchg   %ax,%ax
    2960:	83 78 10 06          	cmpl   $0x6,0x10(%eax)
    2964:	0f 87 ce 0e 00 00    	ja     3838 <print_data+0x10d8>
    296a:	8b 58 10             	mov    0x10(%eax),%ebx
    296d:	ff 24 9d c8 4b 00 00 	jmp    *0x4bc8(,%ebx,4)
    2974:	8d 74 26 00          	lea    0x0(%esi,%eiz,1),%esi
    2978:	8b 5d a0             	mov    -0x60(%ebp),%ebx
    297b:	43                   	inc    %ebx
    297c:	89 5d a0             	mov    %ebx,-0x60(%ebp)
    297f:	90                   	nop
    2980:	83 c0 30             	add    $0x30,%eax
    2983:	39 c1                	cmp    %eax,%ecx
    2985:	75 d9                	jne    2960 <print_data+0x200>
    2987:	8b 5d 90             	mov    -0x70(%ebp),%ebx
    298a:	8b 45 a0             	mov    -0x60(%ebp),%eax
    298d:	56                   	push   %esi
    298e:	8b 4d a4             	mov    -0x5c(%ebp),%ecx
    2991:	57                   	push   %edi
    2992:	50                   	push   %eax
    2993:	8b 45 98             	mov    -0x68(%ebp),%eax
    2996:	50                   	push   %eax
    2997:	51                   	push   %ecx
    2998:	52                   	push   %edx
    2999:	53                   	push   %ebx
    299a:	68 70 49 00 00       	push   $0x4970
    299f:	e8 bc 23 00 00       	call   4d60 <printf@plt>
    29a4:	83 c4 14             	add    $0x14,%esp
    29a7:	8b 1d 84 66 00 00    	mov    0x6684,%ebx
    29ad:	53                   	push   %ebx
    29ae:	e8 0d 25 00 00       	call   4ec0 <console_flush@plt>
    29b3:	83 c4 0c             	add    $0xc,%esp
    29b6:	8d 45 d0             	lea    -0x30(%ebp),%eax
    29b9:	8b 35 84 66 00 00    	mov    0x6684,%esi
    29bf:	50                   	push   %eax
    29c0:	8d 45 c8             	lea    -0x38(%ebp),%eax
    29c3:	50                   	push   %eax
    29c4:	56                   	push   %esi
    29c5:	e8 76 23 00 00       	call   4d40 <console_get_size@plt>
    29ca:	a1 84 66 00 00       	mov    0x6684,%eax
    29cf:	5f                   	pop    %edi
    29d0:	50                   	push   %eax
    29d1:	e8 ea 24 00 00       	call   4ec0 <console_flush@plt>
    29d6:	83 c4 0c             	add    $0xc,%esp
    29d9:	8d 45 e0             	lea    -0x20(%ebp),%eax
    29dc:	50                   	push   %eax
    29dd:	8d 45 d8             	lea    -0x28(%ebp),%eax
    29e0:	50                   	push   %eax
    29e1:	a1 84 66 00 00       	mov    0x6684,%eax
    29e6:	50                   	push   %eax
    29e7:	e8 84 23 00 00       	call   4d70 <console_get_pos@plt>
    29ec:	8b 45 d8             	mov    -0x28(%ebp),%eax
    29ef:	83 c4 10             	add    $0x10,%esp
    29f2:	8d 58 01             	lea    0x1(%eax),%ebx
    29f5:	3b 5d c8             	cmp    -0x38(%ebp),%ebx
    29f8:	73 1c                	jae    2a16 <print_data+0x2b6>
    29fa:	8d b6 00 00 00 00    	lea    0x0(%esi),%esi
    2a00:	83 ec 0c             	sub    $0xc,%esp
    2a03:	43                   	inc    %ebx
    2a04:	68 b4 4a 00 00       	push   $0x4ab4
    2a09:	e8 82 23 00 00       	call   4d90 <puts@plt>
    2a0e:	83 c4 10             	add    $0x10,%esp
    2a11:	3b 5d c8             	cmp    -0x38(%ebp),%ebx
    2a14:	72 ea                	jb     2a00 <print_data+0x2a0>
    2a16:	8b 45 e0             	mov    -0x20(%ebp),%eax
    2a19:	40                   	inc    %eax
    2a1a:	3b 45 d0             	cmp    -0x30(%ebp),%eax
    2a1d:	73 10                	jae    2a2f <print_data+0x2cf>
    2a1f:	83 ec 0c             	sub    $0xc,%esp
    2a22:	68 a1 45 00 00       	push   $0x45a1
    2a27:	e8 64 23 00 00       	call   4d90 <puts@plt>
    2a2c:	83 c4 10             	add    $0x10,%esp
    2a2f:	8b 45 08             	mov    0x8(%ebp),%eax
    2a32:	c7 45 a4 00 00 00 00 	movl   $0x0,-0x5c(%ebp)
    2a39:	8b 40 24             	mov    0x24(%eax),%eax
    2a3c:	85 c0                	test   %eax,%eax
    2a3e:	0f 84 f1 02 00 00    	je     2d35 <print_data+0x5d5>
    2a44:	8d 74 26 00          	lea    0x0(%esi,%eiz,1),%esi
    2a48:	8b 7d a4             	mov    -0x5c(%ebp),%edi
    2a4b:	8b 55 08             	mov    0x8(%ebp),%edx
    2a4e:	8d 1c 7f             	lea    (%edi,%edi,2),%ebx
    2a51:	8b 42 28             	mov    0x28(%edx),%eax
    2a54:	c1 e3 03             	shl    $0x3,%ebx
    2a57:	01 d8                	add    %ebx,%eax
    2a59:	80 78 04 00          	cmpb   $0x0,0x4(%eax)
    2a5d:	0f 84 dd 0d 00 00    	je     3840 <print_data+0x10e0>
    2a63:	8b 70 14             	mov    0x14(%eax),%esi
    2a66:	8d 55 c8             	lea    -0x38(%ebp),%edx
    2a69:	8d 4d d8             	lea    -0x28(%ebp),%ecx
    2a6c:	52                   	push   %edx
    2a6d:	51                   	push   %ecx
    2a6e:	56                   	push   %esi
    2a6f:	8b 40 10             	mov    0x10(%eax),%eax
    2a72:	50                   	push   %eax
    2a73:	e8 e8 23 00 00       	call   4e60 <order_suffix@plt>
    2a78:	8d 45 d0             	lea    -0x30(%ebp),%eax
    2a7b:	50                   	push   %eax
    2a7c:	8d 45 e0             	lea    -0x20(%ebp),%eax
    2a7f:	50                   	push   %eax
    2a80:	8b 45 08             	mov    0x8(%ebp),%eax
    2a83:	8b 40 28             	mov    0x28(%eax),%eax
    2a86:	8b 54 18 0c          	mov    0xc(%eax,%ebx,1),%edx
    2a8a:	52                   	push   %edx
    2a8b:	8b 4c 18 08          	mov    0x8(%eax,%ebx,1),%ecx
    2a8f:	51                   	push   %ecx
    2a90:	e8 cb 23 00 00       	call   4e60 <order_suffix@plt>
    2a95:	8b 45 08             	mov    0x8(%ebp),%eax
    2a98:	83 c4 14             	add    $0x14,%esp
    2a9b:	8b 70 28             	mov    0x28(%eax),%esi
    2a9e:	0f be 45 d0          	movsbl -0x30(%ebp),%eax
    2aa2:	50                   	push   %eax
    2aa3:	8b 45 e4             	mov    -0x1c(%ebp),%eax
    2aa6:	50                   	push   %eax
    2aa7:	8b 45 e0             	mov    -0x20(%ebp),%eax
    2aaa:	50                   	push   %eax
    2aab:	01 f3                	add    %esi,%ebx
    2aad:	0f be 45 c8          	movsbl -0x38(%ebp),%eax
    2ab1:	50                   	push   %eax
    2ab2:	8b 45 dc             	mov    -0x24(%ebp),%eax
    2ab5:	50                   	push   %eax
    2ab6:	8b 45 d8             	mov    -0x28(%ebp),%eax
    2ab9:	50                   	push   %eax
    2aba:	31 c0                	xor    %eax,%eax
    2abc:	66 8b 43 06          	mov    0x6(%ebx),%ax
    2ac0:	50                   	push   %eax
    2ac1:	8b 03                	mov    (%ebx),%eax
    2ac3:	50                   	push   %eax
    2ac4:	68 10 4a 00 00       	push   $0x4a10
    2ac9:	e8 92 22 00 00       	call   4d60 <printf@plt>
    2ace:	83 c4 24             	add    $0x24,%esp
    2ad1:	68 ad 4a 00 00       	push   $0x4aad
    2ad6:	e8 b5 22 00 00       	call   4d90 <puts@plt>
    2adb:	89 f8                	mov    %edi,%eax
    2add:	8b 7d 08             	mov    0x8(%ebp),%edi
    2ae0:	c1 e0 05             	shl    $0x5,%eax
    2ae3:	8b 57 2c             	mov    0x2c(%edi),%edx
    2ae6:	89 45 a0             	mov    %eax,-0x60(%ebp)
    2ae9:	01 d0                	add    %edx,%eax
    2aeb:	8b 30                	mov    (%eax),%esi
    2aed:	8b 78 04             	mov    0x4(%eax),%edi
    2af0:	8b 48 0c             	mov    0xc(%eax),%ecx
    2af3:	8b 50 08             	mov    0x8(%eax),%edx
    2af6:	89 4d 9c             	mov    %ecx,-0x64(%ebp)
    2af9:	51                   	push   %ecx
    2afa:	89 55 98             	mov    %edx,-0x68(%ebp)
    2afd:	52                   	push   %edx
    2afe:	57                   	push   %edi
    2aff:	56                   	push   %esi
    2b00:	e8 cb 22 00 00       	call   4dd0 <__udivdi3@plt>
    2b05:	83 c4 1c             	add    $0x1c,%esp
    2b08:	52                   	push   %edx
    2b09:	50                   	push   %eax
    2b0a:	68 b6 4a 00 00       	push   $0x4ab6
    2b0f:	e8 4c 22 00 00       	call   4d60 <printf@plt>
    2b14:	8b 4d 9c             	mov    -0x64(%ebp),%ecx
    2b17:	8b 5d 98             	mov    -0x68(%ebp),%ebx
    2b1a:	51                   	push   %ecx
    2b1b:	53                   	push   %ebx
    2b1c:	57                   	push   %edi
    2b1d:	56                   	push   %esi
    2b1e:	e8 9d 22 00 00       	call   4dc0 <__umoddi3@plt>
    2b23:	89 c1                	mov    %eax,%ecx
    2b25:	89 d3                	mov    %edx,%ebx
    2b27:	0f a4 cb 02          	shld   $0x2,%ecx,%ebx
    2b2b:	c1 e1 02             	shl    $0x2,%ecx
    2b2e:	89 df                	mov    %ebx,%edi
    2b30:	89 ce                	mov    %ecx,%esi
    2b32:	01 c6                	add    %eax,%esi
    2b34:	11 d7                	adc    %edx,%edi
    2b36:	83 c4 10             	add    $0x10,%esp
    2b39:	0f a4 f7 01          	shld   $0x1,%esi,%edi
    2b3d:	01 f6                	add    %esi,%esi
    2b3f:	89 fa                	mov    %edi,%edx
    2b41:	89 f0                	mov    %esi,%eax
    2b43:	8b 7d 9c             	mov    -0x64(%ebp),%edi
    2b46:	8b 75 98             	mov    -0x68(%ebp),%esi
    2b49:	57                   	push   %edi
    2b4a:	89 45 98             	mov    %eax,-0x68(%ebp)
    2b4d:	56                   	push   %esi
    2b4e:	89 55 9c             	mov    %edx,-0x64(%ebp)
    2b51:	52                   	push   %edx
    2b52:	50                   	push   %eax
    2b53:	e8 78 22 00 00       	call   4dd0 <__udivdi3@plt>
    2b58:	83 c4 1c             	add    $0x1c,%esp
    2b5b:	52                   	push   %edx
    2b5c:	50                   	push   %eax
    2b5d:	68 bd 4a 00 00       	push   $0x4abd
    2b62:	e8 f9 21 00 00       	call   4d60 <printf@plt>
    2b67:	8b 45 9c             	mov    -0x64(%ebp),%eax
    2b6a:	57                   	push   %edi
    2b6b:	56                   	push   %esi
    2b6c:	50                   	push   %eax
    2b6d:	8b 45 98             	mov    -0x68(%ebp),%eax
    2b70:	50                   	push   %eax
    2b71:	e8 4a 22 00 00       	call   4dc0 <__umoddi3@plt>
    2b76:	89 c1                	mov    %eax,%ecx
    2b78:	89 d3                	mov    %edx,%ebx
    2b7a:	0f a4 cb 02          	shld   $0x2,%ecx,%ebx
    2b7e:	c1 e1 02             	shl    $0x2,%ecx
    2b81:	83 c4 10             	add    $0x10,%esp
    2b84:	01 c8                	add    %ecx,%eax
    2b86:	11 da                	adc    %ebx,%edx
    2b88:	57                   	push   %edi
    2b89:	0f a4 c2 01          	shld   $0x1,%eax,%edx
    2b8d:	01 c0                	add    %eax,%eax
    2b8f:	56                   	push   %esi
    2b90:	52                   	push   %edx
    2b91:	50                   	push   %eax
    2b92:	e8 39 22 00 00       	call   4dd0 <__udivdi3@plt>
    2b97:	83 c4 1c             	add    $0x1c,%esp
    2b9a:	52                   	push   %edx
    2b9b:	50                   	push   %eax
    2b9c:	68 bd 4a 00 00       	push   $0x4abd
    2ba1:	e8 ba 21 00 00       	call   4d60 <printf@plt>
    2ba6:	c7 04 24 c2 4a 00 00 	movl   $0x4ac2,(%esp)
    2bad:	e8 ae 21 00 00       	call   4d60 <printf@plt>
    2bb2:	c7 04 24 c5 4a 00 00 	movl   $0x4ac5,(%esp)
    2bb9:	e8 d2 21 00 00       	call   4d90 <puts@plt>
    2bbe:	8b 7d 08             	mov    0x8(%ebp),%edi
    2bc1:	8b 45 a0             	mov    -0x60(%ebp),%eax
    2bc4:	8b 57 2c             	mov    0x2c(%edi),%edx
    2bc7:	01 d0                	add    %edx,%eax
    2bc9:	8b 70 10             	mov    0x10(%eax),%esi
    2bcc:	8b 78 14             	mov    0x14(%eax),%edi
    2bcf:	8b 50 1c             	mov    0x1c(%eax),%edx
    2bd2:	8b 40 18             	mov    0x18(%eax),%eax
    2bd5:	89 45 98             	mov    %eax,-0x68(%ebp)
    2bd8:	52                   	push   %edx
    2bd9:	89 55 9c             	mov    %edx,-0x64(%ebp)
    2bdc:	50                   	push   %eax
    2bdd:	57                   	push   %edi
    2bde:	56                   	push   %esi
    2bdf:	e8 ec 21 00 00       	call   4dd0 <__udivdi3@plt>
    2be4:	83 c4 1c             	add    $0x1c,%esp
    2be7:	52                   	push   %edx
    2be8:	50                   	push   %eax
    2be9:	68 b6 4a 00 00       	push   $0x4ab6
    2bee:	e8 6d 21 00 00       	call   4d60 <printf@plt>
    2bf3:	8b 4d 9c             	mov    -0x64(%ebp),%ecx
    2bf6:	8b 5d 98             	mov    -0x68(%ebp),%ebx
    2bf9:	51                   	push   %ecx
    2bfa:	53                   	push   %ebx
    2bfb:	57                   	push   %edi
    2bfc:	56                   	push   %esi
    2bfd:	e8 be 21 00 00       	call   4dc0 <__umoddi3@plt>
    2c02:	89 c1                	mov    %eax,%ecx
    2c04:	89 d3                	mov    %edx,%ebx
    2c06:	0f a4 cb 02          	shld   $0x2,%ecx,%ebx
    2c0a:	c1 e1 02             	shl    $0x2,%ecx
    2c0d:	89 df                	mov    %ebx,%edi
    2c0f:	89 ce                	mov    %ecx,%esi
    2c11:	01 c6                	add    %eax,%esi
    2c13:	11 d7                	adc    %edx,%edi
    2c15:	83 c4 10             	add    $0x10,%esp
    2c18:	0f a4 f7 01          	shld   $0x1,%esi,%edi
    2c1c:	01 f6                	add    %esi,%esi
    2c1e:	89 fa                	mov    %edi,%edx
    2c20:	89 f0                	mov    %esi,%eax
    2c22:	8b 7d 9c             	mov    -0x64(%ebp),%edi
    2c25:	8b 75 98             	mov    -0x68(%ebp),%esi
    2c28:	57                   	push   %edi
    2c29:	89 45 98             	mov    %eax,-0x68(%ebp)
    2c2c:	56                   	push   %esi
    2c2d:	89 55 9c             	mov    %edx,-0x64(%ebp)
    2c30:	52                   	push   %edx
    2c31:	50                   	push   %eax
    2c32:	e8 99 21 00 00       	call   4dd0 <__udivdi3@plt>
    2c37:	83 c4 1c             	add    $0x1c,%esp
    2c3a:	52                   	push   %edx
    2c3b:	50                   	push   %eax
    2c3c:	68 bd 4a 00 00       	push   $0x4abd
    2c41:	e8 1a 21 00 00       	call   4d60 <printf@plt>
    2c46:	8b 45 9c             	mov    -0x64(%ebp),%eax
    2c49:	57                   	push   %edi
    2c4a:	56                   	push   %esi
    2c4b:	50                   	push   %eax
    2c4c:	8b 45 98             	mov    -0x68(%ebp),%eax
    2c4f:	50                   	push   %eax
    2c50:	e8 6b 21 00 00       	call   4dc0 <__umoddi3@plt>
    2c55:	89 c1                	mov    %eax,%ecx
    2c57:	89 d3                	mov    %edx,%ebx
    2c59:	0f a4 cb 02          	shld   $0x2,%ecx,%ebx
    2c5d:	c1 e1 02             	shl    $0x2,%ecx
    2c60:	83 c4 10             	add    $0x10,%esp
    2c63:	01 c8                	add    %ecx,%eax
    2c65:	11 da                	adc    %ebx,%edx
    2c67:	57                   	push   %edi
    2c68:	0f a4 c2 01          	shld   $0x1,%eax,%edx
    2c6c:	01 c0                	add    %eax,%eax
    2c6e:	56                   	push   %esi
    2c6f:	52                   	push   %edx
    2c70:	50                   	push   %eax
    2c71:	e8 5a 21 00 00       	call   4dd0 <__udivdi3@plt>
    2c76:	83 c4 1c             	add    $0x1c,%esp
    2c79:	52                   	push   %edx
    2c7a:	50                   	push   %eax
    2c7b:	68 bd 4a 00 00       	push   $0x4abd
    2c80:	e8 db 20 00 00       	call   4d60 <printf@plt>
    2c85:	c7 04 24 c2 4a 00 00 	movl   $0x4ac2,(%esp)
    2c8c:	e8 cf 20 00 00       	call   4d60 <printf@plt>
    2c91:	83 c4 10             	add    $0x10,%esp
    2c94:	83 ec 0c             	sub    $0xc,%esp
    2c97:	8b 1d 84 66 00 00    	mov    0x6684,%ebx
    2c9d:	53                   	push   %ebx
    2c9e:	e8 1d 22 00 00       	call   4ec0 <console_flush@plt>
    2ca3:	83 c4 0c             	add    $0xc,%esp
    2ca6:	8d 45 d0             	lea    -0x30(%ebp),%eax
    2ca9:	8b 35 84 66 00 00    	mov    0x6684,%esi
    2caf:	50                   	push   %eax
    2cb0:	8d 45 c8             	lea    -0x38(%ebp),%eax
    2cb3:	50                   	push   %eax
    2cb4:	56                   	push   %esi
    2cb5:	e8 86 20 00 00       	call   4d40 <console_get_size@plt>
    2cba:	a1 84 66 00 00       	mov    0x6684,%eax
    2cbf:	5f                   	pop    %edi
    2cc0:	50                   	push   %eax
    2cc1:	e8 fa 21 00 00       	call   4ec0 <console_flush@plt>
    2cc6:	83 c4 0c             	add    $0xc,%esp
    2cc9:	8d 45 e0             	lea    -0x20(%ebp),%eax
    2ccc:	50                   	push   %eax
    2ccd:	8d 45 d8             	lea    -0x28(%ebp),%eax
    2cd0:	50                   	push   %eax
    2cd1:	a1 84 66 00 00       	mov    0x6684,%eax
    2cd6:	50                   	push   %eax
    2cd7:	e8 94 20 00 00       	call   4d70 <console_get_pos@plt>
    2cdc:	8b 45 d8             	mov    -0x28(%ebp),%eax
    2cdf:	83 c4 10             	add    $0x10,%esp
    2ce2:	8d 58 01             	lea    0x1(%eax),%ebx
    2ce5:	3b 5d c8             	cmp    -0x38(%ebp),%ebx
    2ce8:	73 1c                	jae    2d06 <print_data+0x5a6>
    2cea:	8d b6 00 00 00 00    	lea    0x0(%esi),%esi
    2cf0:	83 ec 0c             	sub    $0xc,%esp
    2cf3:	43                   	inc    %ebx
    2cf4:	68 b4 4a 00 00       	push   $0x4ab4
    2cf9:	e8 92 20 00 00       	call   4d90 <puts@plt>
    2cfe:	83 c4 10             	add    $0x10,%esp
    2d01:	3b 5d c8             	cmp    -0x38(%ebp),%ebx
    2d04:	72 ea                	jb     2cf0 <print_data+0x590>
    2d06:	8b 45 e0             	mov    -0x20(%ebp),%eax
    2d09:	40                   	inc    %eax
    2d0a:	3b 45 d0             	cmp    -0x30(%ebp),%eax
    2d0d:	73 10                	jae    2d1f <print_data+0x5bf>
    2d0f:	83 ec 0c             	sub    $0xc,%esp
    2d12:	68 a1 45 00 00       	push   $0x45a1
    2d17:	e8 74 20 00 00       	call   4d90 <puts@plt>
    2d1c:	83 c4 10             	add    $0x10,%esp
    2d1f:	8b 4d a4             	mov    -0x5c(%ebp),%ecx
    2d22:	8b 55 08             	mov    0x8(%ebp),%edx
    2d25:	41                   	inc    %ecx
    2d26:	89 4d a4             	mov    %ecx,-0x5c(%ebp)
    2d29:	8b 45 a4             	mov    -0x5c(%ebp),%eax
    2d2c:	3b 42 24             	cmp    0x24(%edx),%eax
    2d2f:	0f 82 13 fd ff ff    	jb     2a48 <print_data+0x2e8>
    2d35:	83 ec 0c             	sub    $0xc,%esp
    2d38:	8d 45 a8             	lea    -0x58(%ebp),%eax
    2d3b:	6a 00                	push   $0x0
    2d3d:	50                   	push   %eax
    2d3e:	8d 45 c8             	lea    -0x38(%ebp),%eax
    2d41:	50                   	push   %eax
    2d42:	8b 45 08             	mov    0x8(%ebp),%eax
    2d45:	8b 40 50             	mov    0x50(%eax),%eax
    2d48:	8b 50 04             	mov    0x4(%eax),%edx
    2d4b:	52                   	push   %edx
    2d4c:	8b 08                	mov    (%eax),%ecx
    2d4e:	51                   	push   %ecx
    2d4f:	e8 ac 20 00 00       	call   4e00 <bin_order_suffix@plt>
    2d54:	83 c4 14             	add    $0x14,%esp
    2d57:	8d 45 ac             	lea    -0x54(%ebp),%eax
    2d5a:	6a 00                	push   $0x0
    2d5c:	50                   	push   %eax
    2d5d:	8d 45 d0             	lea    -0x30(%ebp),%eax
    2d60:	50                   	push   %eax
    2d61:	8b 45 08             	mov    0x8(%ebp),%eax
    2d64:	8b 40 50             	mov    0x50(%eax),%eax
    2d67:	8b 58 0c             	mov    0xc(%eax),%ebx
    2d6a:	53                   	push   %ebx
    2d6b:	8b 70 08             	mov    0x8(%eax),%esi
    2d6e:	56                   	push   %esi
    2d6f:	e8 8c 20 00 00       	call   4e00 <bin_order_suffix@plt>
    2d74:	83 c4 14             	add    $0x14,%esp
    2d77:	8d 45 b0             	lea    -0x50(%ebp),%eax
    2d7a:	6a 00                	push   $0x0
    2d7c:	50                   	push   %eax
    2d7d:	8d 45 d8             	lea    -0x28(%ebp),%eax
    2d80:	50                   	push   %eax
    2d81:	8b 45 08             	mov    0x8(%ebp),%eax
    2d84:	8b 40 50             	mov    0x50(%eax),%eax
    2d87:	8b 78 14             	mov    0x14(%eax),%edi
    2d8a:	57                   	push   %edi
    2d8b:	8b 40 10             	mov    0x10(%eax),%eax
    2d8e:	50                   	push   %eax
    2d8f:	e8 6c 20 00 00       	call   4e00 <bin_order_suffix@plt>
    2d94:	83 c4 14             	add    $0x14,%esp
    2d97:	8d 45 b4             	lea    -0x4c(%ebp),%eax
    2d9a:	6a 00                	push   $0x0
    2d9c:	50                   	push   %eax
    2d9d:	8d 45 e0             	lea    -0x20(%ebp),%eax
    2da0:	50                   	push   %eax
    2da1:	8b 45 08             	mov    0x8(%ebp),%eax
    2da4:	8b 40 50             	mov    0x50(%eax),%eax
    2da7:	8b 50 1c             	mov    0x1c(%eax),%edx
    2daa:	52                   	push   %edx
    2dab:	8b 48 18             	mov    0x18(%eax),%ecx
    2dae:	51                   	push   %ecx
    2daf:	e8 4c 20 00 00       	call   4e00 <bin_order_suffix@plt>
    2db4:	83 c4 14             	add    $0x14,%esp
    2db7:	8b 5d b4             	mov    -0x4c(%ebp),%ebx
    2dba:	8b 75 e4             	mov    -0x1c(%ebp),%esi
    2dbd:	8b 7d e0             	mov    -0x20(%ebp),%edi
    2dc0:	8b 45 b0             	mov    -0x50(%ebp),%eax
    2dc3:	53                   	push   %ebx
    2dc4:	56                   	push   %esi
    2dc5:	57                   	push   %edi
    2dc6:	50                   	push   %eax
    2dc7:	8b 45 dc             	mov    -0x24(%ebp),%eax
    2dca:	50                   	push   %eax
    2dcb:	8b 45 d8             	mov    -0x28(%ebp),%eax
    2dce:	50                   	push   %eax
    2dcf:	8b 45 ac             	mov    -0x54(%ebp),%eax
    2dd2:	50                   	push   %eax
    2dd3:	8b 45 d4             	mov    -0x2c(%ebp),%eax
    2dd6:	50                   	push   %eax
    2dd7:	8b 55 a8             	mov    -0x58(%ebp),%edx
    2dda:	8b 4d cc             	mov    -0x34(%ebp),%ecx
    2ddd:	8b 5d c8             	mov    -0x38(%ebp),%ebx
    2de0:	8b 45 d0             	mov    -0x30(%ebp),%eax
    2de3:	50                   	push   %eax
    2de4:	52                   	push   %edx
    2de5:	51                   	push   %ecx
    2de6:	53                   	push   %ebx
    2de7:	68 d0 49 00 00       	push   $0x49d0
    2dec:	e8 6f 1f 00 00       	call   4d60 <printf@plt>
    2df1:	83 c4 34             	add    $0x34,%esp
    2df4:	8b 35 84 66 00 00    	mov    0x6684,%esi
    2dfa:	56                   	push   %esi
    2dfb:	e8 c0 20 00 00       	call   4ec0 <console_flush@plt>
    2e00:	83 c4 0c             	add    $0xc,%esp
    2e03:	8d 45 bc             	lea    -0x44(%ebp),%eax
    2e06:	8b 3d 84 66 00 00    	mov    0x6684,%edi
    2e0c:	50                   	push   %eax
    2e0d:	8d 45 b8             	lea    -0x48(%ebp),%eax
    2e10:	50                   	push   %eax
    2e11:	57                   	push   %edi
    2e12:	e8 29 1f 00 00       	call   4d40 <console_get_size@plt>
    2e17:	58                   	pop    %eax
    2e18:	a1 84 66 00 00       	mov    0x6684,%eax
    2e1d:	50                   	push   %eax
    2e1e:	e8 9d 20 00 00       	call   4ec0 <console_flush@plt>
    2e23:	83 c4 0c             	add    $0xc,%esp
    2e26:	8d 45 c4             	lea    -0x3c(%ebp),%eax
    2e29:	50                   	push   %eax
    2e2a:	8d 45 c0             	lea    -0x40(%ebp),%eax
    2e2d:	50                   	push   %eax
    2e2e:	a1 84 66 00 00       	mov    0x6684,%eax
    2e33:	50                   	push   %eax
    2e34:	e8 37 1f 00 00       	call   4d70 <console_get_pos@plt>
    2e39:	8b 45 c0             	mov    -0x40(%ebp),%eax
    2e3c:	83 c4 10             	add    $0x10,%esp
    2e3f:	8d 58 01             	lea    0x1(%eax),%ebx
    2e42:	3b 5d b8             	cmp    -0x48(%ebp),%ebx
    2e45:	73 17                	jae    2e5e <print_data+0x6fe>
    2e47:	90                   	nop
    2e48:	83 ec 0c             	sub    $0xc,%esp
    2e4b:	43                   	inc    %ebx
    2e4c:	68 b4 4a 00 00       	push   $0x4ab4
    2e51:	e8 3a 1f 00 00       	call   4d90 <puts@plt>
    2e56:	83 c4 10             	add    $0x10,%esp
    2e59:	3b 5d b8             	cmp    -0x48(%ebp),%ebx
    2e5c:	72 ea                	jb     2e48 <print_data+0x6e8>
    2e5e:	8b 45 c4             	mov    -0x3c(%ebp),%eax
    2e61:	40                   	inc    %eax
    2e62:	3b 45 bc             	cmp    -0x44(%ebp),%eax
    2e65:	73 10                	jae    2e77 <print_data+0x717>
    2e67:	83 ec 0c             	sub    $0xc,%esp
    2e6a:	68 a1 45 00 00       	push   $0x45a1
    2e6f:	e8 1c 1f 00 00       	call   4d90 <puts@plt>
    2e74:	83 c4 10             	add    $0x10,%esp
    2e77:	83 ec 0c             	sub    $0xc,%esp
    2e7a:	a1 84 66 00 00       	mov    0x6684,%eax
    2e7f:	50                   	push   %eax
    2e80:	e8 3b 20 00 00       	call   4ec0 <console_flush@plt>
    2e85:	83 c4 0c             	add    $0xc,%esp
    2e88:	a1 84 66 00 00       	mov    0x6684,%eax
    2e8d:	68 9c 66 00 00       	push   $0x669c
    2e92:	68 a0 66 00 00       	push   $0x66a0
    2e97:	50                   	push   %eax
    2e98:	e8 d3 1e 00 00       	call   4d70 <console_get_pos@plt>
    2e9d:	8b 15 98 66 00 00    	mov    0x6698,%edx
    2ea3:	83 c4 10             	add    $0x10,%esp
    2ea6:	85 d2                	test   %edx,%edx
    2ea8:	0f 8e c1 09 00 00    	jle    386f <print_data+0x110f>
    2eae:	83 ec 0c             	sub    $0xc,%esp
    2eb1:	8b 3d 84 66 00 00    	mov    0x6684,%edi
    2eb7:	57                   	push   %edi
    2eb8:	e8 03 20 00 00       	call   4ec0 <console_flush@plt>
    2ebd:	8b 0d 84 66 00 00    	mov    0x6684,%ecx
    2ec3:	58                   	pop    %eax
    2ec4:	5a                   	pop    %edx
    2ec5:	6a 01                	push   $0x1
    2ec7:	51                   	push   %ecx
    2ec8:	e8 b3 1f 00 00       	call   4e80 <console_set_style@plt>
    2ecd:	8b 3d 84 66 00 00    	mov    0x6684,%edi
    2ed3:	5e                   	pop    %esi
    2ed4:	57                   	push   %edi
    2ed5:	8b 1d 94 66 00 00    	mov    0x6694,%ebx
    2edb:	e8 e0 1f 00 00       	call   4ec0 <console_flush@plt>
    2ee0:	83 c4 0c             	add    $0xc,%esp
    2ee3:	8d 45 d0             	lea    -0x30(%ebp),%eax
    2ee6:	50                   	push   %eax
    2ee7:	8d 45 c8             	lea    -0x38(%ebp),%eax
    2eea:	50                   	push   %eax
    2eeb:	a1 84 66 00 00       	mov    0x6684,%eax
    2ef0:	50                   	push   %eax
    2ef1:	e8 4a 1e 00 00       	call   4d40 <console_get_size@plt>
    2ef6:	58                   	pop    %eax
    2ef7:	a1 84 66 00 00       	mov    0x6684,%eax
    2efc:	50                   	push   %eax
    2efd:	e8 be 1f 00 00       	call   4ec0 <console_flush@plt>
    2f02:	83 c4 0c             	add    $0xc,%esp
    2f05:	8d 45 e0             	lea    -0x20(%ebp),%eax
    2f08:	50                   	push   %eax
    2f09:	8d 45 d8             	lea    -0x28(%ebp),%eax
    2f0c:	50                   	push   %eax
    2f0d:	a1 84 66 00 00       	mov    0x6684,%eax
    2f12:	50                   	push   %eax
    2f13:	e8 58 1e 00 00       	call   4d70 <console_get_pos@plt>
    2f18:	8b 55 d8             	mov    -0x28(%ebp),%edx
    2f1b:	8b 45 c8             	mov    -0x38(%ebp),%eax
    2f1e:	83 c4 10             	add    $0x10,%esp
    2f21:	39 c2                	cmp    %eax,%edx
    2f23:	0f 82 2e 09 00 00    	jb     3857 <print_data+0x10f7>
    2f29:	83 ec 0c             	sub    $0xc,%esp
    2f2c:	a1 84 66 00 00       	mov    0x6684,%eax
    2f31:	50                   	push   %eax
    2f32:	e8 89 1f 00 00       	call   4ec0 <console_flush@plt>
    2f37:	8b 0d 84 66 00 00    	mov    0x6684,%ecx
    2f3d:	58                   	pop    %eax
    2f3e:	5a                   	pop    %edx
    2f3f:	6a 00                	push   $0x0
    2f41:	51                   	push   %ecx
    2f42:	e8 39 1f 00 00       	call   4e80 <console_set_style@plt>
    2f47:	83 c4 10             	add    $0x10,%esp
    2f4a:	83 ec 0c             	sub    $0xc,%esp
    2f4d:	8b 0d 84 66 00 00    	mov    0x6684,%ecx
    2f53:	51                   	push   %ecx
    2f54:	e8 67 1f 00 00       	call   4ec0 <console_flush@plt>
    2f59:	83 c4 0c             	add    $0xc,%esp
    2f5c:	8d 45 d0             	lea    -0x30(%ebp),%eax
    2f5f:	8b 1d 84 66 00 00    	mov    0x6684,%ebx
    2f65:	50                   	push   %eax
    2f66:	8d 45 c8             	lea    -0x38(%ebp),%eax
    2f69:	50                   	push   %eax
    2f6a:	53                   	push   %ebx
    2f6b:	e8 d0 1d 00 00       	call   4d40 <console_get_size@plt>
    2f70:	8b 3d 84 66 00 00    	mov    0x6684,%edi
    2f76:	5e                   	pop    %esi
    2f77:	57                   	push   %edi
    2f78:	e8 43 1f 00 00       	call   4ec0 <console_flush@plt>
    2f7d:	83 c4 0c             	add    $0xc,%esp
    2f80:	8d 45 e0             	lea    -0x20(%ebp),%eax
    2f83:	50                   	push   %eax
    2f84:	8d 45 d8             	lea    -0x28(%ebp),%eax
    2f87:	50                   	push   %eax
    2f88:	a1 84 66 00 00       	mov    0x6684,%eax
    2f8d:	50                   	push   %eax
    2f8e:	e8 dd 1d 00 00       	call   4d70 <console_get_pos@plt>
    2f93:	8b 45 d8             	mov    -0x28(%ebp),%eax
    2f96:	83 c4 10             	add    $0x10,%esp
    2f99:	8d 58 01             	lea    0x1(%eax),%ebx
    2f9c:	3b 5d c8             	cmp    -0x38(%ebp),%ebx
    2f9f:	73 1d                	jae    2fbe <print_data+0x85e>
    2fa1:	8d b4 26 00 00 00 00 	lea    0x0(%esi,%eiz,1),%esi
    2fa8:	83 ec 0c             	sub    $0xc,%esp
    2fab:	43                   	inc    %ebx
    2fac:	68 b4 4a 00 00       	push   $0x4ab4
    2fb1:	e8 da 1d 00 00       	call   4d90 <puts@plt>
    2fb6:	83 c4 10             	add    $0x10,%esp
    2fb9:	3b 5d c8             	cmp    -0x38(%ebp),%ebx
    2fbc:	72 ea                	jb     2fa8 <print_data+0x848>
    2fbe:	8b 45 e0             	mov    -0x20(%ebp),%eax
    2fc1:	40                   	inc    %eax
    2fc2:	3b 45 d0             	cmp    -0x30(%ebp),%eax
    2fc5:	73 10                	jae    2fd7 <print_data+0x877>
    2fc7:	83 ec 0c             	sub    $0xc,%esp
    2fca:	68 a1 45 00 00       	push   $0x45a1
    2fcf:	e8 bc 1d 00 00       	call   4d90 <puts@plt>
    2fd4:	83 c4 10             	add    $0x10,%esp
    2fd7:	a1 88 66 00 00       	mov    0x6688,%eax
    2fdc:	83 f8 01             	cmp    $0x1,%eax
    2fdf:	0f 84 8c 0e 00 00    	je     3e71 <print_data+0x1711>
    2fe5:	0f 82 a4 08 00 00    	jb     388f <print_data+0x112f>
    2feb:	83 f8 02             	cmp    $0x2,%eax
    2fee:	0f 85 fb 07 00 00    	jne    37ef <print_data+0x108f>
    2ff4:	83 ec 0c             	sub    $0xc,%esp
    2ff7:	8b 15 84 66 00 00    	mov    0x6684,%edx
    2ffd:	52                   	push   %edx
    2ffe:	e8 bd 1e 00 00       	call   4ec0 <console_flush@plt>
    3003:	8b 35 84 66 00 00    	mov    0x6684,%esi
    3009:	59                   	pop    %ecx
    300a:	5b                   	pop    %ebx
    300b:	6a 02                	push   $0x2
    300d:	56                   	push   %esi
    300e:	e8 6d 1e 00 00       	call   4e80 <console_set_style@plt>
    3013:	c7 04 24 14 4b 00 00 	movl   $0x4b14,(%esp)
    301a:	e8 41 1d 00 00       	call   4d60 <printf@plt>
    301f:	a1 84 66 00 00       	mov    0x6684,%eax
    3024:	5f                   	pop    %edi
    3025:	50                   	push   %eax
    3026:	e8 95 1e 00 00       	call   4ec0 <console_flush@plt>
    302b:	83 c4 0c             	add    $0xc,%esp
    302e:	8d 45 d0             	lea    -0x30(%ebp),%eax
    3031:	50                   	push   %eax
    3032:	8d 45 c8             	lea    -0x38(%ebp),%eax
    3035:	50                   	push   %eax
    3036:	a1 84 66 00 00       	mov    0x6684,%eax
    303b:	50                   	push   %eax
    303c:	e8 ff 1c 00 00       	call   4d40 <console_get_size@plt>
    3041:	58                   	pop    %eax
    3042:	a1 84 66 00 00       	mov    0x6684,%eax
    3047:	50                   	push   %eax
    3048:	e8 73 1e 00 00       	call   4ec0 <console_flush@plt>
    304d:	83 c4 0c             	add    $0xc,%esp
    3050:	8d 45 e0             	lea    -0x20(%ebp),%eax
    3053:	50                   	push   %eax
    3054:	8d 45 d8             	lea    -0x28(%ebp),%eax
    3057:	50                   	push   %eax
    3058:	a1 84 66 00 00       	mov    0x6684,%eax
    305d:	50                   	push   %eax
    305e:	e8 0d 1d 00 00       	call   4d70 <console_get_pos@plt>
    3063:	8b 45 d8             	mov    -0x28(%ebp),%eax
    3066:	83 c4 10             	add    $0x10,%esp
    3069:	8d 58 01             	lea    0x1(%eax),%ebx
    306c:	3b 5d c8             	cmp    -0x38(%ebp),%ebx
    306f:	73 1d                	jae    308e <print_data+0x92e>
    3071:	8d b4 26 00 00 00 00 	lea    0x0(%esi,%eiz,1),%esi
    3078:	83 ec 0c             	sub    $0xc,%esp
    307b:	43                   	inc    %ebx
    307c:	68 b4 4a 00 00       	push   $0x4ab4
    3081:	e8 0a 1d 00 00       	call   4d90 <puts@plt>
    3086:	83 c4 10             	add    $0x10,%esp
    3089:	3b 5d c8             	cmp    -0x38(%ebp),%ebx
    308c:	72 ea                	jb     3078 <print_data+0x918>
    308e:	8b 45 e0             	mov    -0x20(%ebp),%eax
    3091:	40                   	inc    %eax
    3092:	3b 45 d0             	cmp    -0x30(%ebp),%eax
    3095:	0f 82 c1 10 00 00    	jb     415c <print_data+0x19fc>
    309b:	83 ec 0c             	sub    $0xc,%esp
    309e:	a1 84 66 00 00       	mov    0x6684,%eax
    30a3:	50                   	push   %eax
    30a4:	e8 17 1e 00 00       	call   4ec0 <console_flush@plt>
    30a9:	8b 0d 84 66 00 00    	mov    0x6684,%ecx
    30af:	58                   	pop    %eax
    30b0:	5a                   	pop    %edx
    30b1:	6a 00                	push   $0x0
    30b3:	51                   	push   %ecx
    30b4:	e8 c7 1d 00 00       	call   4e80 <console_set_style@plt>
    30b9:	8b 35 84 66 00 00    	mov    0x6684,%esi
    30bf:	5b                   	pop    %ebx
    30c0:	56                   	push   %esi
    30c1:	e8 fa 1d 00 00       	call   4ec0 <console_flush@plt>
    30c6:	83 c4 0c             	add    $0xc,%esp
    30c9:	8d 45 bc             	lea    -0x44(%ebp),%eax
    30cc:	8b 3d 84 66 00 00    	mov    0x6684,%edi
    30d2:	50                   	push   %eax
    30d3:	8d 45 b8             	lea    -0x48(%ebp),%eax
    30d6:	50                   	push   %eax
    30d7:	57                   	push   %edi
    30d8:	e8 63 1c 00 00       	call   4d40 <console_get_size@plt>
    30dd:	58                   	pop    %eax
    30de:	a1 84 66 00 00       	mov    0x6684,%eax
    30e3:	50                   	push   %eax
    30e4:	e8 d7 1d 00 00       	call   4ec0 <console_flush@plt>
    30e9:	83 c4 0c             	add    $0xc,%esp
    30ec:	8d 45 d0             	lea    -0x30(%ebp),%eax
    30ef:	50                   	push   %eax
    30f0:	8d 45 c8             	lea    -0x38(%ebp),%eax
    30f3:	50                   	push   %eax
    30f4:	a1 84 66 00 00       	mov    0x6684,%eax
    30f9:	50                   	push   %eax
    30fa:	e8 41 1c 00 00       	call   4d40 <console_get_size@plt>
    30ff:	58                   	pop    %eax
    3100:	a1 84 66 00 00       	mov    0x6684,%eax
    3105:	50                   	push   %eax
    3106:	e8 b5 1d 00 00       	call   4ec0 <console_flush@plt>
    310b:	83 c4 0c             	add    $0xc,%esp
    310e:	8d 45 e0             	lea    -0x20(%ebp),%eax
    3111:	50                   	push   %eax
    3112:	8d 45 d8             	lea    -0x28(%ebp),%eax
    3115:	50                   	push   %eax
    3116:	a1 84 66 00 00       	mov    0x6684,%eax
    311b:	50                   	push   %eax
    311c:	e8 4f 1c 00 00       	call   4d70 <console_get_pos@plt>
    3121:	8b 45 d8             	mov    -0x28(%ebp),%eax
    3124:	83 c4 10             	add    $0x10,%esp
    3127:	8d 58 01             	lea    0x1(%eax),%ebx
    312a:	3b 5d c8             	cmp    -0x38(%ebp),%ebx
    312d:	73 17                	jae    3146 <print_data+0x9e6>
    312f:	90                   	nop
    3130:	83 ec 0c             	sub    $0xc,%esp
    3133:	43                   	inc    %ebx
    3134:	68 b4 4a 00 00       	push   $0x4ab4
    3139:	e8 52 1c 00 00       	call   4d90 <puts@plt>
    313e:	83 c4 10             	add    $0x10,%esp
    3141:	3b 5d c8             	cmp    -0x38(%ebp),%ebx
    3144:	72 ea                	jb     3130 <print_data+0x9d0>
    3146:	8b 45 e0             	mov    -0x20(%ebp),%eax
    3149:	40                   	inc    %eax
    314a:	3b 45 d0             	cmp    -0x30(%ebp),%eax
    314d:	0f 82 f4 0f 00 00    	jb     4147 <print_data+0x19e7>
    3153:	83 ec 0c             	sub    $0xc,%esp
    3156:	68 19 4b 00 00       	push   $0x4b19
    315b:	e8 00 1c 00 00       	call   4d60 <printf@plt>
    3160:	8b 0d 84 66 00 00    	mov    0x6684,%ecx
    3166:	5a                   	pop    %edx
    3167:	51                   	push   %ecx
    3168:	e8 53 1d 00 00       	call   4ec0 <console_flush@plt>
    316d:	83 c4 0c             	add    $0xc,%esp
    3170:	8d 45 d0             	lea    -0x30(%ebp),%eax
    3173:	8b 1d 84 66 00 00    	mov    0x6684,%ebx
    3179:	50                   	push   %eax
    317a:	8d 45 c8             	lea    -0x38(%ebp),%eax
    317d:	50                   	push   %eax
    317e:	53                   	push   %ebx
    317f:	e8 bc 1b 00 00       	call   4d40 <console_get_size@plt>
    3184:	8b 3d 84 66 00 00    	mov    0x6684,%edi
    318a:	5e                   	pop    %esi
    318b:	57                   	push   %edi
    318c:	e8 2f 1d 00 00       	call   4ec0 <console_flush@plt>
    3191:	83 c4 0c             	add    $0xc,%esp
    3194:	8d 45 e0             	lea    -0x20(%ebp),%eax
    3197:	50                   	push   %eax
    3198:	8d 45 d8             	lea    -0x28(%ebp),%eax
    319b:	50                   	push   %eax
    319c:	a1 84 66 00 00       	mov    0x6684,%eax
    31a1:	50                   	push   %eax
    31a2:	e8 c9 1b 00 00       	call   4d70 <console_get_pos@plt>
    31a7:	8b 45 d8             	mov    -0x28(%ebp),%eax
    31aa:	83 c4 10             	add    $0x10,%esp
    31ad:	8d 58 01             	lea    0x1(%eax),%ebx
    31b0:	3b 5d c8             	cmp    -0x38(%ebp),%ebx
    31b3:	73 19                	jae    31ce <print_data+0xa6e>
    31b5:	8d 76 00             	lea    0x0(%esi),%esi
    31b8:	83 ec 0c             	sub    $0xc,%esp
    31bb:	43                   	inc    %ebx
    31bc:	68 b4 4a 00 00       	push   $0x4ab4
    31c1:	e8 ca 1b 00 00       	call   4d90 <puts@plt>
    31c6:	83 c4 10             	add    $0x10,%esp
    31c9:	3b 5d c8             	cmp    -0x38(%ebp),%ebx
    31cc:	72 ea                	jb     31b8 <print_data+0xa58>
    31ce:	8b 45 e0             	mov    -0x20(%ebp),%eax
    31d1:	40                   	inc    %eax
    31d2:	3b 45 d0             	cmp    -0x30(%ebp),%eax
    31d5:	0f 82 57 0f 00 00    	jb     4132 <print_data+0x19d2>
    31db:	83 ec 0c             	sub    $0xc,%esp
    31de:	68 2a 4b 00 00       	push   $0x4b2a
    31e3:	e8 78 1b 00 00       	call   4d60 <printf@plt>
    31e8:	58                   	pop    %eax
    31e9:	a1 84 66 00 00       	mov    0x6684,%eax
    31ee:	50                   	push   %eax
    31ef:	e8 cc 1c 00 00       	call   4ec0 <console_flush@plt>
    31f4:	83 c4 0c             	add    $0xc,%esp
    31f7:	8d 45 d0             	lea    -0x30(%ebp),%eax
    31fa:	50                   	push   %eax
    31fb:	8d 45 c8             	lea    -0x38(%ebp),%eax
    31fe:	50                   	push   %eax
    31ff:	a1 84 66 00 00       	mov    0x6684,%eax
    3204:	50                   	push   %eax
    3205:	e8 36 1b 00 00       	call   4d40 <console_get_size@plt>
    320a:	58                   	pop    %eax
    320b:	a1 84 66 00 00       	mov    0x6684,%eax
    3210:	50                   	push   %eax
    3211:	e8 aa 1c 00 00       	call   4ec0 <console_flush@plt>
    3216:	83 c4 0c             	add    $0xc,%esp
    3219:	8d 45 e0             	lea    -0x20(%ebp),%eax
    321c:	50                   	push   %eax
    321d:	8d 45 d8             	lea    -0x28(%ebp),%eax
    3220:	50                   	push   %eax
    3221:	a1 84 66 00 00       	mov    0x6684,%eax
    3226:	50                   	push   %eax
    3227:	e8 44 1b 00 00       	call   4d70 <console_get_pos@plt>
    322c:	8b 45 d8             	mov    -0x28(%ebp),%eax
    322f:	83 c4 10             	add    $0x10,%esp
    3232:	8d 58 01             	lea    0x1(%eax),%ebx
    3235:	3b 5d c8             	cmp    -0x38(%ebp),%ebx
    3238:	73 1c                	jae    3256 <print_data+0xaf6>
    323a:	8d b6 00 00 00 00    	lea    0x0(%esi),%esi
    3240:	83 ec 0c             	sub    $0xc,%esp
    3243:	43                   	inc    %ebx
    3244:	68 b4 4a 00 00       	push   $0x4ab4
    3249:	e8 42 1b 00 00       	call   4d90 <puts@plt>
    324e:	83 c4 10             	add    $0x10,%esp
    3251:	3b 5d c8             	cmp    -0x38(%ebp),%ebx
    3254:	72 ea                	jb     3240 <print_data+0xae0>
    3256:	8b 45 e0             	mov    -0x20(%ebp),%eax
    3259:	40                   	inc    %eax
    325a:	3b 45 d0             	cmp    -0x30(%ebp),%eax
    325d:	0f 82 ba 0e 00 00    	jb     411d <print_data+0x19bd>
    3263:	83 ec 0c             	sub    $0xc,%esp
    3266:	68 41 4b 00 00       	push   $0x4b41
    326b:	e8 f0 1a 00 00       	call   4d60 <printf@plt>
    3270:	8b 15 84 66 00 00    	mov    0x6684,%edx
    3276:	58                   	pop    %eax
    3277:	52                   	push   %edx
    3278:	e8 43 1c 00 00       	call   4ec0 <console_flush@plt>
    327d:	83 c4 0c             	add    $0xc,%esp
    3280:	8d 45 d0             	lea    -0x30(%ebp),%eax
    3283:	8b 0d 84 66 00 00    	mov    0x6684,%ecx
    3289:	50                   	push   %eax
    328a:	8d 45 c8             	lea    -0x38(%ebp),%eax
    328d:	50                   	push   %eax
    328e:	51                   	push   %ecx
    328f:	e8 ac 1a 00 00       	call   4d40 <console_get_size@plt>
    3294:	8b 35 84 66 00 00    	mov    0x6684,%esi
    329a:	5b                   	pop    %ebx
    329b:	56                   	push   %esi
    329c:	e8 1f 1c 00 00       	call   4ec0 <console_flush@plt>
    32a1:	83 c4 0c             	add    $0xc,%esp
    32a4:	8d 45 e0             	lea    -0x20(%ebp),%eax
    32a7:	8b 3d 84 66 00 00    	mov    0x6684,%edi
    32ad:	50                   	push   %eax
    32ae:	8d 45 d8             	lea    -0x28(%ebp),%eax
    32b1:	50                   	push   %eax
    32b2:	57                   	push   %edi
    32b3:	e8 b8 1a 00 00       	call   4d70 <console_get_pos@plt>
    32b8:	8b 45 d8             	mov    -0x28(%ebp),%eax
    32bb:	8d 58 01             	lea    0x1(%eax),%ebx
    32be:	83 c4 10             	add    $0x10,%esp
    32c1:	3b 5d c8             	cmp    -0x38(%ebp),%ebx
    32c4:	73 18                	jae    32de <print_data+0xb7e>
    32c6:	66 90                	xchg   %ax,%ax
    32c8:	83 ec 0c             	sub    $0xc,%esp
    32cb:	43                   	inc    %ebx
    32cc:	68 b4 4a 00 00       	push   $0x4ab4
    32d1:	e8 ba 1a 00 00       	call   4d90 <puts@plt>
    32d6:	83 c4 10             	add    $0x10,%esp
    32d9:	3b 5d c8             	cmp    -0x38(%ebp),%ebx
    32dc:	72 ea                	jb     32c8 <print_data+0xb68>
    32de:	8b 45 e0             	mov    -0x20(%ebp),%eax
    32e1:	40                   	inc    %eax
    32e2:	3b 45 d0             	cmp    -0x30(%ebp),%eax
    32e5:	0f 82 1d 0e 00 00    	jb     4108 <print_data+0x19a8>
    32eb:	83 ec 0c             	sub    $0xc,%esp
    32ee:	68 56 4b 00 00       	push   $0x4b56
    32f3:	e8 68 1a 00 00       	call   4d60 <printf@plt>
    32f8:	a1 84 66 00 00       	mov    0x6684,%eax
    32fd:	5f                   	pop    %edi
    32fe:	50                   	push   %eax
    32ff:	e8 bc 1b 00 00       	call   4ec0 <console_flush@plt>
    3304:	83 c4 0c             	add    $0xc,%esp
    3307:	8d 45 d0             	lea    -0x30(%ebp),%eax
    330a:	50                   	push   %eax
    330b:	8d 45 c8             	lea    -0x38(%ebp),%eax
    330e:	50                   	push   %eax
    330f:	a1 84 66 00 00       	mov    0x6684,%eax
    3314:	50                   	push   %eax
    3315:	e8 26 1a 00 00       	call   4d40 <console_get_size@plt>
    331a:	58                   	pop    %eax
    331b:	a1 84 66 00 00       	mov    0x6684,%eax
    3320:	50                   	push   %eax
    3321:	e8 9a 1b 00 00       	call   4ec0 <console_flush@plt>
    3326:	83 c4 0c             	add    $0xc,%esp
    3329:	8d 45 e0             	lea    -0x20(%ebp),%eax
    332c:	50                   	push   %eax
    332d:	8d 45 d8             	lea    -0x28(%ebp),%eax
    3330:	50                   	push   %eax
    3331:	a1 84 66 00 00       	mov    0x6684,%eax
    3336:	50                   	push   %eax
    3337:	e8 34 1a 00 00       	call   4d70 <console_get_pos@plt>
    333c:	8b 45 d8             	mov    -0x28(%ebp),%eax
    333f:	83 c4 10             	add    $0x10,%esp
    3342:	8d 58 01             	lea    0x1(%eax),%ebx
    3345:	39 5d c8             	cmp    %ebx,-0x38(%ebp)
    3348:	76 1c                	jbe    3366 <print_data+0xc06>
    334a:	8d b6 00 00 00 00    	lea    0x0(%esi),%esi
    3350:	83 ec 0c             	sub    $0xc,%esp
    3353:	43                   	inc    %ebx
    3354:	68 b4 4a 00 00       	push   $0x4ab4
    3359:	e8 32 1a 00 00       	call   4d90 <puts@plt>
    335e:	83 c4 10             	add    $0x10,%esp
    3361:	3b 5d c8             	cmp    -0x38(%ebp),%ebx
    3364:	72 ea                	jb     3350 <print_data+0xbf0>
    3366:	8b 45 e0             	mov    -0x20(%ebp),%eax
    3369:	40                   	inc    %eax
    336a:	3b 45 d0             	cmp    -0x30(%ebp),%eax
    336d:	0f 82 80 0d 00 00    	jb     40f3 <print_data+0x1993>
    3373:	83 ec 0c             	sub    $0xc,%esp
    3376:	68 4c 4a 00 00       	push   $0x4a4c
    337b:	e8 e0 19 00 00       	call   4d60 <printf@plt>
    3380:	58                   	pop    %eax
    3381:	a1 84 66 00 00       	mov    0x6684,%eax
    3386:	50                   	push   %eax
    3387:	e8 34 1b 00 00       	call   4ec0 <console_flush@plt>
    338c:	83 c4 0c             	add    $0xc,%esp
    338f:	8d 45 d0             	lea    -0x30(%ebp),%eax
    3392:	8b 15 84 66 00 00    	mov    0x6684,%edx
    3398:	50                   	push   %eax
    3399:	8d 45 c8             	lea    -0x38(%ebp),%eax
    339c:	50                   	push   %eax
    339d:	52                   	push   %edx
    339e:	e8 9d 19 00 00       	call   4d40 <console_get_size@plt>
    33a3:	8b 1d 84 66 00 00    	mov    0x6684,%ebx
    33a9:	59                   	pop    %ecx
    33aa:	53                   	push   %ebx
    33ab:	e8 10 1b 00 00       	call   4ec0 <console_flush@plt>
    33b0:	83 c4 0c             	add    $0xc,%esp
    33b3:	8d 45 e0             	lea    -0x20(%ebp),%eax
    33b6:	8b 35 84 66 00 00    	mov    0x6684,%esi
    33bc:	50                   	push   %eax
    33bd:	8d 45 d8             	lea    -0x28(%ebp),%eax
    33c0:	50                   	push   %eax
    33c1:	56                   	push   %esi
    33c2:	e8 a9 19 00 00       	call   4d70 <console_get_pos@plt>
    33c7:	8b 45 d8             	mov    -0x28(%ebp),%eax
    33ca:	8d 58 01             	lea    0x1(%eax),%ebx
    33cd:	83 c4 10             	add    $0x10,%esp
    33d0:	3b 5d c8             	cmp    -0x38(%ebp),%ebx
    33d3:	73 19                	jae    33ee <print_data+0xc8e>
    33d5:	8d 76 00             	lea    0x0(%esi),%esi
    33d8:	83 ec 0c             	sub    $0xc,%esp
    33db:	43                   	inc    %ebx
    33dc:	68 b4 4a 00 00       	push   $0x4ab4
    33e1:	e8 aa 19 00 00       	call   4d90 <puts@plt>
    33e6:	83 c4 10             	add    $0x10,%esp
    33e9:	3b 5d c8             	cmp    -0x38(%ebp),%ebx
    33ec:	72 ea                	jb     33d8 <print_data+0xc78>
    33ee:	8b 45 e0             	mov    -0x20(%ebp),%eax
    33f1:	40                   	inc    %eax
    33f2:	3b 45 d0             	cmp    -0x30(%ebp),%eax
    33f5:	0f 82 e3 0c 00 00    	jb     40de <print_data+0x197e>
    33fb:	83 ec 0c             	sub    $0xc,%esp
    33fe:	68 72 4b 00 00       	push   $0x4b72
    3403:	e8 58 19 00 00       	call   4d60 <printf@plt>
    3408:	8b 3d 84 66 00 00    	mov    0x6684,%edi
    340e:	5e                   	pop    %esi
    340f:	57                   	push   %edi
    3410:	e8 ab 1a 00 00       	call   4ec0 <console_flush@plt>
    3415:	83 c4 0c             	add    $0xc,%esp
    3418:	8d 45 d0             	lea    -0x30(%ebp),%eax
    341b:	50                   	push   %eax
    341c:	8d 45 c8             	lea    -0x38(%ebp),%eax
    341f:	50                   	push   %eax
    3420:	a1 84 66 00 00       	mov    0x6684,%eax
    3425:	50                   	push   %eax
    3426:	e8 15 19 00 00       	call   4d40 <console_get_size@plt>
    342b:	58                   	pop    %eax
    342c:	a1 84 66 00 00       	mov    0x6684,%eax
    3431:	50                   	push   %eax
    3432:	e8 89 1a 00 00       	call   4ec0 <console_flush@plt>
    3437:	83 c4 0c             	add    $0xc,%esp
    343a:	8d 45 e0             	lea    -0x20(%ebp),%eax
    343d:	50                   	push   %eax
    343e:	8d 45 d8             	lea    -0x28(%ebp),%eax
    3441:	50                   	push   %eax
    3442:	a1 84 66 00 00       	mov    0x6684,%eax
    3447:	50                   	push   %eax
    3448:	e8 23 19 00 00       	call   4d70 <console_get_pos@plt>
    344d:	8b 45 d8             	mov    -0x28(%ebp),%eax
    3450:	83 c4 10             	add    $0x10,%esp
    3453:	8d 58 01             	lea    0x1(%eax),%ebx
    3456:	39 5d c8             	cmp    %ebx,-0x38(%ebp)
    3459:	76 1b                	jbe    3476 <print_data+0xd16>
    345b:	90                   	nop
    345c:	8d 74 26 00          	lea    0x0(%esi,%eiz,1),%esi
    3460:	83 ec 0c             	sub    $0xc,%esp
    3463:	43                   	inc    %ebx
    3464:	68 b4 4a 00 00       	push   $0x4ab4
    3469:	e8 22 19 00 00       	call   4d90 <puts@plt>
    346e:	83 c4 10             	add    $0x10,%esp
    3471:	3b 5d c8             	cmp    -0x38(%ebp),%ebx
    3474:	72 ea                	jb     3460 <print_data+0xd00>
    3476:	8b 45 e0             	mov    -0x20(%ebp),%eax
    3479:	40                   	inc    %eax
    347a:	3b 45 d0             	cmp    -0x30(%ebp),%eax
    347d:	0f 82 46 0c 00 00    	jb     40c9 <print_data+0x1969>
    3483:	83 ec 0c             	sub    $0xc,%esp
    3486:	a1 84 66 00 00       	mov    0x6684,%eax
    348b:	50                   	push   %eax
    348c:	e8 2f 1a 00 00       	call   4ec0 <console_flush@plt>
    3491:	83 c4 0c             	add    $0xc,%esp
    3494:	8d 45 d0             	lea    -0x30(%ebp),%eax
    3497:	50                   	push   %eax
    3498:	8d 45 c8             	lea    -0x38(%ebp),%eax
    349b:	50                   	push   %eax
    349c:	a1 84 66 00 00       	mov    0x6684,%eax
    34a1:	50                   	push   %eax
    34a2:	e8 99 18 00 00       	call   4d40 <console_get_size@plt>
    34a7:	8b 0d 84 66 00 00    	mov    0x6684,%ecx
    34ad:	5a                   	pop    %edx
    34ae:	51                   	push   %ecx
    34af:	e8 0c 1a 00 00       	call   4ec0 <console_flush@plt>
    34b4:	83 c4 0c             	add    $0xc,%esp
    34b7:	8d 45 e0             	lea    -0x20(%ebp),%eax
    34ba:	8b 1d 84 66 00 00    	mov    0x6684,%ebx
    34c0:	50                   	push   %eax
    34c1:	8d 45 d8             	lea    -0x28(%ebp),%eax
    34c4:	50                   	push   %eax
    34c5:	53                   	push   %ebx
    34c6:	e8 a5 18 00 00       	call   4d70 <console_get_pos@plt>
    34cb:	8b 45 d8             	mov    -0x28(%ebp),%eax
    34ce:	8d 58 01             	lea    0x1(%eax),%ebx
    34d1:	83 c4 10             	add    $0x10,%esp
    34d4:	3b 5d c8             	cmp    -0x38(%ebp),%ebx
    34d7:	73 1d                	jae    34f6 <print_data+0xd96>
    34d9:	8d b4 26 00 00 00 00 	lea    0x0(%esi,%eiz,1),%esi
    34e0:	83 ec 0c             	sub    $0xc,%esp
    34e3:	43                   	inc    %ebx
    34e4:	68 b4 4a 00 00       	push   $0x4ab4
    34e9:	e8 a2 18 00 00       	call   4d90 <puts@plt>
    34ee:	83 c4 10             	add    $0x10,%esp
    34f1:	3b 5d c8             	cmp    -0x38(%ebp),%ebx
    34f4:	72 ea                	jb     34e0 <print_data+0xd80>
    34f6:	8b 45 e0             	mov    -0x20(%ebp),%eax
    34f9:	40                   	inc    %eax
    34fa:	3b 45 d0             	cmp    -0x30(%ebp),%eax
    34fd:	0f 82 b1 0b 00 00    	jb     40b4 <print_data+0x1954>
    3503:	83 ec 0c             	sub    $0xc,%esp
    3506:	68 90 4b 00 00       	push   $0x4b90
    350b:	e8 50 18 00 00       	call   4d60 <printf@plt>
    3510:	8b 3d 84 66 00 00    	mov    0x6684,%edi
    3516:	5e                   	pop    %esi
    3517:	57                   	push   %edi
    3518:	e8 a3 19 00 00       	call   4ec0 <console_flush@plt>
    351d:	83 c4 0c             	add    $0xc,%esp
    3520:	8d 45 d0             	lea    -0x30(%ebp),%eax
    3523:	50                   	push   %eax
    3524:	8d 45 c8             	lea    -0x38(%ebp),%eax
    3527:	50                   	push   %eax
    3528:	a1 84 66 00 00       	mov    0x6684,%eax
    352d:	50                   	push   %eax
    352e:	e8 0d 18 00 00       	call   4d40 <console_get_size@plt>
    3533:	58                   	pop    %eax
    3534:	a1 84 66 00 00       	mov    0x6684,%eax
    3539:	50                   	push   %eax
    353a:	e8 81 19 00 00       	call   4ec0 <console_flush@plt>
    353f:	83 c4 0c             	add    $0xc,%esp
    3542:	8d 45 e0             	lea    -0x20(%ebp),%eax
    3545:	50                   	push   %eax
    3546:	8d 45 d8             	lea    -0x28(%ebp),%eax
    3549:	50                   	push   %eax
    354a:	a1 84 66 00 00       	mov    0x6684,%eax
    354f:	50                   	push   %eax
    3550:	e8 1b 18 00 00       	call   4d70 <console_get_pos@plt>
    3555:	8b 45 d8             	mov    -0x28(%ebp),%eax
    3558:	83 c4 10             	add    $0x10,%esp
    355b:	8d 58 01             	lea    0x1(%eax),%ebx
    355e:	39 5d c8             	cmp    %ebx,-0x38(%ebp)
    3561:	76 1b                	jbe    357e <print_data+0xe1e>
    3563:	90                   	nop
    3564:	8d 74 26 00          	lea    0x0(%esi,%eiz,1),%esi
    3568:	83 ec 0c             	sub    $0xc,%esp
    356b:	43                   	inc    %ebx
    356c:	68 b4 4a 00 00       	push   $0x4ab4
    3571:	e8 1a 18 00 00       	call   4d90 <puts@plt>
    3576:	83 c4 10             	add    $0x10,%esp
    3579:	3b 5d c8             	cmp    -0x38(%ebp),%ebx
    357c:	72 ea                	jb     3568 <print_data+0xe08>
    357e:	8b 45 e0             	mov    -0x20(%ebp),%eax
    3581:	40                   	inc    %eax
    3582:	3b 45 d0             	cmp    -0x30(%ebp),%eax
    3585:	0f 82 14 0b 00 00    	jb     409f <print_data+0x193f>
    358b:	83 ec 0c             	sub    $0xc,%esp
    358e:	68 7c 4a 00 00       	push   $0x4a7c
    3593:	e8 c8 17 00 00       	call   4d60 <printf@plt>
    3598:	58                   	pop    %eax
    3599:	a1 84 66 00 00       	mov    0x6684,%eax
    359e:	50                   	push   %eax
    359f:	e8 1c 19 00 00       	call   4ec0 <console_flush@plt>
    35a4:	83 c4 0c             	add    $0xc,%esp
    35a7:	8d 45 d0             	lea    -0x30(%ebp),%eax
    35aa:	50                   	push   %eax
    35ab:	8d 45 c8             	lea    -0x38(%ebp),%eax
    35ae:	50                   	push   %eax
    35af:	a1 84 66 00 00       	mov    0x6684,%eax
    35b4:	50                   	push   %eax
    35b5:	e8 86 17 00 00       	call   4d40 <console_get_size@plt>
    35ba:	8b 0d 84 66 00 00    	mov    0x6684,%ecx
    35c0:	5a                   	pop    %edx
    35c1:	51                   	push   %ecx
    35c2:	e8 f9 18 00 00       	call   4ec0 <console_flush@plt>
    35c7:	83 c4 0c             	add    $0xc,%esp
    35ca:	8d 45 e0             	lea    -0x20(%ebp),%eax
    35cd:	8b 1d 84 66 00 00    	mov    0x6684,%ebx
    35d3:	50                   	push   %eax
    35d4:	8d 45 d8             	lea    -0x28(%ebp),%eax
    35d7:	50                   	push   %eax
    35d8:	53                   	push   %ebx
    35d9:	e8 92 17 00 00       	call   4d70 <console_get_pos@plt>
    35de:	8b 45 d8             	mov    -0x28(%ebp),%eax
    35e1:	8d 58 01             	lea    0x1(%eax),%ebx
    35e4:	83 c4 10             	add    $0x10,%esp
    35e7:	39 5d c8             	cmp    %ebx,-0x38(%ebp)
    35ea:	76 1a                	jbe    3606 <print_data+0xea6>
    35ec:	8d 74 26 00          	lea    0x0(%esi,%eiz,1),%esi
    35f0:	83 ec 0c             	sub    $0xc,%esp
    35f3:	43                   	inc    %ebx
    35f4:	68 b4 4a 00 00       	push   $0x4ab4
    35f9:	e8 92 17 00 00       	call   4d90 <puts@plt>
    35fe:	83 c4 10             	add    $0x10,%esp
    3601:	3b 5d c8             	cmp    -0x38(%ebp),%ebx
    3604:	72 ea                	jb     35f0 <print_data+0xe90>
    3606:	8b 45 e0             	mov    -0x20(%ebp),%eax
    3609:	40                   	inc    %eax
    360a:	3b 45 d0             	cmp    -0x30(%ebp),%eax
    360d:	0f 82 77 0a 00 00    	jb     408a <print_data+0x192a>
    3613:	83 ec 0c             	sub    $0xc,%esp
    3616:	68 9c 4b 00 00       	push   $0x4b9c
    361b:	e8 40 17 00 00       	call   4d60 <printf@plt>
    3620:	8b 35 84 66 00 00    	mov    0x6684,%esi
    3626:	5b                   	pop    %ebx
    3627:	56                   	push   %esi
    3628:	e8 93 18 00 00       	call   4ec0 <console_flush@plt>
    362d:	83 c4 0c             	add    $0xc,%esp
    3630:	8d 45 d0             	lea    -0x30(%ebp),%eax
    3633:	8b 3d 84 66 00 00    	mov    0x6684,%edi
    3639:	50                   	push   %eax
    363a:	8d 45 c8             	lea    -0x38(%ebp),%eax
    363d:	50                   	push   %eax
    363e:	57                   	push   %edi
    363f:	e8 fc 16 00 00       	call   4d40 <console_get_size@plt>
    3644:	58                   	pop    %eax
    3645:	a1 84 66 00 00       	mov    0x6684,%eax
    364a:	50                   	push   %eax
    364b:	e8 70 18 00 00       	call   4ec0 <console_flush@plt>
    3650:	83 c4 0c             	add    $0xc,%esp
    3653:	8d 45 e0             	lea    -0x20(%ebp),%eax
    3656:	50                   	push   %eax
    3657:	8d 45 d8             	lea    -0x28(%ebp),%eax
    365a:	50                   	push   %eax
    365b:	a1 84 66 00 00       	mov    0x6684,%eax
    3660:	50                   	push   %eax
    3661:	e8 0a 17 00 00       	call   4d70 <console_get_pos@plt>
    3666:	8b 45 d8             	mov    -0x28(%ebp),%eax
    3669:	83 c4 10             	add    $0x10,%esp
    366c:	8d 58 01             	lea    0x1(%eax),%ebx
    366f:	39 5d c8             	cmp    %ebx,-0x38(%ebp)
    3672:	76 1a                	jbe    368e <print_data+0xf2e>
    3674:	8d 74 26 00          	lea    0x0(%esi,%eiz,1),%esi
    3678:	83 ec 0c             	sub    $0xc,%esp
    367b:	43                   	inc    %ebx
    367c:	68 b4 4a 00 00       	push   $0x4ab4
    3681:	e8 0a 17 00 00       	call   4d90 <puts@plt>
    3686:	83 c4 10             	add    $0x10,%esp
    3689:	3b 5d c8             	cmp    -0x38(%ebp),%ebx
    368c:	72 ea                	jb     3678 <print_data+0xf18>
    368e:	8b 45 e0             	mov    -0x20(%ebp),%eax
    3691:	40                   	inc    %eax
    3692:	3b 45 d0             	cmp    -0x30(%ebp),%eax
    3695:	0f 82 da 09 00 00    	jb     4075 <print_data+0x1915>
    369b:	83 ec 0c             	sub    $0xc,%esp
    369e:	68 ba 4b 00 00       	push   $0x4bba
    36a3:	e8 b8 16 00 00       	call   4d60 <printf@plt>
    36a8:	58                   	pop    %eax
    36a9:	a1 84 66 00 00       	mov    0x6684,%eax
    36ae:	50                   	push   %eax
    36af:	e8 0c 18 00 00       	call   4ec0 <console_flush@plt>
    36b4:	83 c4 0c             	add    $0xc,%esp
    36b7:	8d 45 d0             	lea    -0x30(%ebp),%eax
    36ba:	50                   	push   %eax
    36bb:	8d 45 c8             	lea    -0x38(%ebp),%eax
    36be:	50                   	push   %eax
    36bf:	a1 84 66 00 00       	mov    0x6684,%eax
    36c4:	50                   	push   %eax
    36c5:	e8 76 16 00 00       	call   4d40 <console_get_size@plt>
    36ca:	8b 15 84 66 00 00    	mov    0x6684,%edx
    36d0:	58                   	pop    %eax
    36d1:	52                   	push   %edx
    36d2:	e8 e9 17 00 00       	call   4ec0 <console_flush@plt>
    36d7:	83 c4 0c             	add    $0xc,%esp
    36da:	8d 45 e0             	lea    -0x20(%ebp),%eax
    36dd:	8b 0d 84 66 00 00    	mov    0x6684,%ecx
    36e3:	50                   	push   %eax
    36e4:	8d 45 d8             	lea    -0x28(%ebp),%eax
    36e7:	50                   	push   %eax
    36e8:	51                   	push   %ecx
    36e9:	e8 82 16 00 00       	call   4d70 <console_get_pos@plt>
    36ee:	8b 45 d8             	mov    -0x28(%ebp),%eax
    36f1:	8d 58 01             	lea    0x1(%eax),%ebx
    36f4:	83 c4 10             	add    $0x10,%esp
    36f7:	3b 5d c8             	cmp    -0x38(%ebp),%ebx
    36fa:	73 1a                	jae    3716 <print_data+0xfb6>
    36fc:	8d 74 26 00          	lea    0x0(%esi,%eiz,1),%esi
    3700:	83 ec 0c             	sub    $0xc,%esp
    3703:	43                   	inc    %ebx
    3704:	68 b4 4a 00 00       	push   $0x4ab4
    3709:	e8 82 16 00 00       	call   4d90 <puts@plt>
    370e:	83 c4 10             	add    $0x10,%esp
    3711:	3b 5d c8             	cmp    -0x38(%ebp),%ebx
    3714:	72 ea                	jb     3700 <print_data+0xfa0>
    3716:	8b 45 e0             	mov    -0x20(%ebp),%eax
    3719:	40                   	inc    %eax
    371a:	3b 45 d0             	cmp    -0x30(%ebp),%eax
    371d:	0f 82 3d 09 00 00    	jb     4060 <print_data+0x1900>
    3723:	83 ec 0c             	sub    $0xc,%esp
    3726:	a1 84 66 00 00       	mov    0x6684,%eax
    372b:	50                   	push   %eax
    372c:	e8 8f 17 00 00       	call   4ec0 <console_flush@plt>
    3731:	83 c4 0c             	add    $0xc,%esp
    3734:	8d 45 c4             	lea    -0x3c(%ebp),%eax
    3737:	50                   	push   %eax
    3738:	8d 45 c0             	lea    -0x40(%ebp),%eax
    373b:	50                   	push   %eax
    373c:	a1 84 66 00 00       	mov    0x6684,%eax
    3741:	50                   	push   %eax
    3742:	e8 29 16 00 00       	call   4d70 <console_get_pos@plt>
    3747:	8b 45 bc             	mov    -0x44(%ebp),%eax
    374a:	83 c4 10             	add    $0x10,%esp
    374d:	39 45 c4             	cmp    %eax,-0x3c(%ebp)
    3750:	0f 83 99 00 00 00    	jae    37ef <print_data+0x108f>
    3756:	66 90                	xchg   %ax,%ax
    3758:	83 ec 0c             	sub    $0xc,%esp
    375b:	8b 15 84 66 00 00    	mov    0x6684,%edx
    3761:	52                   	push   %edx
    3762:	e8 59 17 00 00       	call   4ec0 <console_flush@plt>
    3767:	83 c4 0c             	add    $0xc,%esp
    376a:	8d 45 d0             	lea    -0x30(%ebp),%eax
    376d:	8b 0d 84 66 00 00    	mov    0x6684,%ecx
    3773:	50                   	push   %eax
    3774:	8d 45 c8             	lea    -0x38(%ebp),%eax
    3777:	50                   	push   %eax
    3778:	51                   	push   %ecx
    3779:	e8 c2 15 00 00       	call   4d40 <console_get_size@plt>
    377e:	8b 35 84 66 00 00    	mov    0x6684,%esi
    3784:	5b                   	pop    %ebx
    3785:	56                   	push   %esi
    3786:	e8 35 17 00 00       	call   4ec0 <console_flush@plt>
    378b:	83 c4 0c             	add    $0xc,%esp
    378e:	8d 45 e0             	lea    -0x20(%ebp),%eax
    3791:	8b 3d 84 66 00 00    	mov    0x6684,%edi
    3797:	50                   	push   %eax
    3798:	8d 45 d8             	lea    -0x28(%ebp),%eax
    379b:	50                   	push   %eax
    379c:	57                   	push   %edi
    379d:	e8 ce 15 00 00       	call   4d70 <console_get_pos@plt>
    37a2:	8b 45 d8             	mov    -0x28(%ebp),%eax
    37a5:	8d 58 01             	lea    0x1(%eax),%ebx
    37a8:	83 c4 10             	add    $0x10,%esp
    37ab:	39 5d c8             	cmp    %ebx,-0x38(%ebp)
    37ae:	76 16                	jbe    37c6 <print_data+0x1066>
    37b0:	83 ec 0c             	sub    $0xc,%esp
    37b3:	43                   	inc    %ebx
    37b4:	68 b4 4a 00 00       	push   $0x4ab4
    37b9:	e8 d2 15 00 00       	call   4d90 <puts@plt>
    37be:	83 c4 10             	add    $0x10,%esp
    37c1:	3b 5d c8             	cmp    -0x38(%ebp),%ebx
    37c4:	72 ea                	jb     37b0 <print_data+0x1050>
    37c6:	8b 45 e0             	mov    -0x20(%ebp),%eax
    37c9:	40                   	inc    %eax
    37ca:	3b 45 d0             	cmp    -0x30(%ebp),%eax
    37cd:	73 10                	jae    37df <print_data+0x107f>
    37cf:	83 ec 0c             	sub    $0xc,%esp
    37d2:	68 a1 45 00 00       	push   $0x45a1
    37d7:	e8 b4 15 00 00       	call   4d90 <puts@plt>
    37dc:	83 c4 10             	add    $0x10,%esp
    37df:	8b 45 c4             	mov    -0x3c(%ebp),%eax
    37e2:	40                   	inc    %eax
    37e3:	89 45 c4             	mov    %eax,-0x3c(%ebp)
    37e6:	3b 45 bc             	cmp    -0x44(%ebp),%eax
    37e9:	0f 82 69 ff ff ff    	jb     3758 <print_data+0xff8>
    37ef:	83 ec 0c             	sub    $0xc,%esp
    37f2:	a1 84 66 00 00       	mov    0x6684,%eax
    37f7:	50                   	push   %eax
    37f8:	e8 c3 16 00 00       	call   4ec0 <console_flush@plt>
    37fd:	8d 65 f4             	lea    -0xc(%ebp),%esp
    3800:	5b                   	pop    %ebx
    3801:	5e                   	pop    %esi
    3802:	5f                   	pop    %edi
    3803:	5d                   	pop    %ebp
    3804:	c3                   	ret    
    3805:	8d 76 00             	lea    0x0(%esi),%esi
    3808:	47                   	inc    %edi
    3809:	e9 72 f1 ff ff       	jmp    2980 <print_data+0x220>
    380e:	66 90                	xchg   %ax,%ax
    3810:	8b 5d a4             	mov    -0x5c(%ebp),%ebx
    3813:	43                   	inc    %ebx
    3814:	89 5d a4             	mov    %ebx,-0x5c(%ebp)
    3817:	e9 64 f1 ff ff       	jmp    2980 <print_data+0x220>
    381c:	8d 74 26 00          	lea    0x0(%esi,%eiz,1),%esi
    3820:	8b 5d 98             	mov    -0x68(%ebp),%ebx
    3823:	43                   	inc    %ebx
    3824:	89 5d 98             	mov    %ebx,-0x68(%ebp)
    3827:	e9 54 f1 ff ff       	jmp    2980 <print_data+0x220>
    382c:	8d 74 26 00          	lea    0x0(%esi,%eiz,1),%esi
    3830:	42                   	inc    %edx
    3831:	e9 4a f1 ff ff       	jmp    2980 <print_data+0x220>
    3836:	66 90                	xchg   %ax,%ax
    3838:	46                   	inc    %esi
    3839:	e9 42 f1 ff ff       	jmp    2980 <print_data+0x220>
    383e:	66 90                	xchg   %ax,%ax
    3840:	52                   	push   %edx
    3841:	52                   	push   %edx
    3842:	8b 08                	mov    (%eax),%ecx
    3844:	51                   	push   %ecx
    3845:	68 ce 4a 00 00       	push   $0x4ace
    384a:	e8 11 15 00 00       	call   4d60 <printf@plt>
    384f:	83 c4 10             	add    $0x10,%esp
    3852:	e9 3d f4 ff ff       	jmp    2c94 <print_data+0x534>
    3857:	48                   	dec    %eax
    3858:	56                   	push   %esi
    3859:	29 d0                	sub    %edx,%eax
    385b:	53                   	push   %ebx
    385c:	50                   	push   %eax
    385d:	68 dd 4a 00 00       	push   $0x4add
    3862:	e8 f9 14 00 00       	call   4d60 <printf@plt>
    3867:	83 c4 10             	add    $0x10,%esp
    386a:	e9 ba f6 ff ff       	jmp    2f29 <print_data+0x7c9>
    386f:	83 ec 0c             	sub    $0xc,%esp
    3872:	a1 94 66 00 00       	mov    0x6694,%eax
    3877:	50                   	push   %eax
    3878:	e8 b3 16 00 00       	call   4f30 <free@plt>
    387d:	c7 05 94 66 00 00 00 	movl   $0x0,0x6694
    3884:	00 00 00 
    3887:	83 c4 10             	add    $0x10,%esp
    388a:	e9 bb f6 ff ff       	jmp    2f4a <print_data+0x7ea>
    388f:	83 ec 0c             	sub    $0xc,%esp
    3892:	8b 15 84 66 00 00    	mov    0x6684,%edx
    3898:	52                   	push   %edx
    3899:	e8 22 16 00 00       	call   4ec0 <console_flush@plt>
    389e:	83 c4 0c             	add    $0xc,%esp
    38a1:	8d 45 c4             	lea    -0x3c(%ebp),%eax
    38a4:	8b 0d 84 66 00 00    	mov    0x6684,%ecx
    38aa:	50                   	push   %eax
    38ab:	8d 45 c0             	lea    -0x40(%ebp),%eax
    38ae:	50                   	push   %eax
    38af:	51                   	push   %ecx
    38b0:	e8 8b 14 00 00       	call   4d40 <console_get_size@plt>
    38b5:	8b 35 84 66 00 00    	mov    0x6684,%esi
    38bb:	5b                   	pop    %ebx
    38bc:	56                   	push   %esi
    38bd:	e8 fe 15 00 00       	call   4ec0 <console_flush@plt>
    38c2:	5f                   	pop    %edi
    38c3:	58                   	pop    %eax
    38c4:	a1 84 66 00 00       	mov    0x6684,%eax
    38c9:	6a 02                	push   $0x2
    38cb:	50                   	push   %eax
    38cc:	e8 af 15 00 00       	call   4e80 <console_set_style@plt>
    38d1:	8b 45 08             	mov    0x8(%ebp),%eax
    38d4:	8b 50 68             	mov    0x68(%eax),%edx
    38d7:	83 c4 10             	add    $0x10,%esp
    38da:	85 d2                	test   %edx,%edx
    38dc:	0f 84 9e 00 00 00    	je     3980 <print_data+0x1220>
    38e2:	8b 40 6c             	mov    0x6c(%eax),%eax
    38e5:	31 f6                	xor    %esi,%esi
    38e7:	8b 38                	mov    (%eax),%edi
    38e9:	8b 58 08             	mov    0x8(%eax),%ebx
    38ec:	89 fa                	mov    %edi,%edx
    38ee:	89 f7                	mov    %esi,%edi
    38f0:	8b 75 08             	mov    0x8(%ebp),%esi
    38f3:	90                   	nop
    38f4:	8d 74 26 00          	lea    0x0(%esi,%eiz,1),%esi
    38f8:	85 db                	test   %ebx,%ebx
    38fa:	74 45                	je     3941 <print_data+0x11e1>
    38fc:	83 eb 02             	sub    $0x2,%ebx
    38ff:	52                   	push   %edx
    3900:	47                   	inc    %edi
    3901:	53                   	push   %ebx
    3902:	53                   	push   %ebx
    3903:	68 e2 4a 00 00       	push   $0x4ae2
    3908:	e8 53 14 00 00       	call   4d60 <printf@plt>
    390d:	83 c4 10             	add    $0x10,%esp
    3910:	3b 7e 68             	cmp    0x68(%esi),%edi
    3913:	73 6b                	jae    3980 <print_data+0x1220>
    3915:	8b 56 6c             	mov    0x6c(%esi),%edx
    3918:	8d 04 7f             	lea    (%edi,%edi,2),%eax
    391b:	85 ff                	test   %edi,%edi
    391d:	8d 04 82             	lea    (%edx,%eax,4),%eax
    3920:	8b 10                	mov    (%eax),%edx
    3922:	8b 58 08             	mov    0x8(%eax),%ebx
    3925:	74 d1                	je     38f8 <print_data+0x1198>
    3927:	83 ec 0c             	sub    $0xc,%esp
    392a:	89 55 a4             	mov    %edx,-0x5c(%ebp)
    392d:	68 b4 4a 00 00       	push   $0x4ab4
    3932:	e8 59 14 00 00       	call   4d90 <puts@plt>
    3937:	83 c4 10             	add    $0x10,%esp
    393a:	8b 55 a4             	mov    -0x5c(%ebp),%edx
    393d:	85 db                	test   %ebx,%ebx
    393f:	75 bb                	jne    38fc <print_data+0x119c>
    3941:	83 ec 0c             	sub    $0xc,%esp
    3944:	8b 0d 84 66 00 00    	mov    0x6684,%ecx
    394a:	89 55 a4             	mov    %edx,-0x5c(%ebp)
    394d:	51                   	push   %ecx
    394e:	e8 6d 15 00 00       	call   4ec0 <console_flush@plt>
    3953:	83 c4 0c             	add    $0xc,%esp
    3956:	8d 45 e0             	lea    -0x20(%ebp),%eax
    3959:	8b 1d 84 66 00 00    	mov    0x6684,%ebx
    395f:	50                   	push   %eax
    3960:	8d 45 d8             	lea    -0x28(%ebp),%eax
    3963:	50                   	push   %eax
    3964:	53                   	push   %ebx
    3965:	e8 06 14 00 00       	call   4d70 <console_get_pos@plt>
    396a:	8b 45 c0             	mov    -0x40(%ebp),%eax
    396d:	8d 58 ff             	lea    -0x1(%eax),%ebx
    3970:	8b 45 d8             	mov    -0x28(%ebp),%eax
    3973:	29 c3                	sub    %eax,%ebx
    3975:	83 c4 10             	add    $0x10,%esp
    3978:	8b 55 a4             	mov    -0x5c(%ebp),%edx
    397b:	e9 7c ff ff ff       	jmp    38fc <print_data+0x119c>
    3980:	83 ec 0c             	sub    $0xc,%esp
    3983:	a1 84 66 00 00       	mov    0x6684,%eax
    3988:	50                   	push   %eax
    3989:	e8 32 15 00 00       	call   4ec0 <console_flush@plt>
    398e:	83 c4 0c             	add    $0xc,%esp
    3991:	8d 45 d0             	lea    -0x30(%ebp),%eax
    3994:	50                   	push   %eax
    3995:	8d 45 c8             	lea    -0x38(%ebp),%eax
    3998:	50                   	push   %eax
    3999:	a1 84 66 00 00       	mov    0x6684,%eax
    399e:	50                   	push   %eax
    399f:	e8 9c 13 00 00       	call   4d40 <console_get_size@plt>
    39a4:	58                   	pop    %eax
    39a5:	a1 84 66 00 00       	mov    0x6684,%eax
    39aa:	50                   	push   %eax
    39ab:	e8 10 15 00 00       	call   4ec0 <console_flush@plt>
    39b0:	83 c4 0c             	add    $0xc,%esp
    39b3:	8d 45 e0             	lea    -0x20(%ebp),%eax
    39b6:	50                   	push   %eax
    39b7:	8d 45 d8             	lea    -0x28(%ebp),%eax
    39ba:	50                   	push   %eax
    39bb:	a1 84 66 00 00       	mov    0x6684,%eax
    39c0:	50                   	push   %eax
    39c1:	e8 aa 13 00 00       	call   4d70 <console_get_pos@plt>
    39c6:	8b 45 d8             	mov    -0x28(%ebp),%eax
    39c9:	83 c4 10             	add    $0x10,%esp
    39cc:	8d 58 01             	lea    0x1(%eax),%ebx
    39cf:	3b 5d c8             	cmp    -0x38(%ebp),%ebx
    39d2:	73 1a                	jae    39ee <print_data+0x128e>
    39d4:	8d 74 26 00          	lea    0x0(%esi,%eiz,1),%esi
    39d8:	83 ec 0c             	sub    $0xc,%esp
    39db:	43                   	inc    %ebx
    39dc:	68 b4 4a 00 00       	push   $0x4ab4
    39e1:	e8 aa 13 00 00       	call   4d90 <puts@plt>
    39e6:	83 c4 10             	add    $0x10,%esp
    39e9:	3b 5d c8             	cmp    -0x38(%ebp),%ebx
    39ec:	72 ea                	jb     39d8 <print_data+0x1278>
    39ee:	8b 45 e0             	mov    -0x20(%ebp),%eax
    39f1:	40                   	inc    %eax
    39f2:	3b 45 d0             	cmp    -0x30(%ebp),%eax
    39f5:	0f 82 50 06 00 00    	jb     404b <print_data+0x18eb>
    39fb:	83 ec 0c             	sub    $0xc,%esp
    39fe:	8b 0d 84 66 00 00    	mov    0x6684,%ecx
    3a04:	51                   	push   %ecx
    3a05:	e8 b6 14 00 00       	call   4ec0 <console_flush@plt>
    3a0a:	8b 3d 84 66 00 00    	mov    0x6684,%edi
    3a10:	5b                   	pop    %ebx
    3a11:	5e                   	pop    %esi
    3a12:	6a 00                	push   $0x0
    3a14:	57                   	push   %edi
    3a15:	e8 66 14 00 00       	call   4e80 <console_set_style@plt>
    3a1a:	58                   	pop    %eax
    3a1b:	a1 84 66 00 00       	mov    0x6684,%eax
    3a20:	50                   	push   %eax
    3a21:	e8 9a 14 00 00       	call   4ec0 <console_flush@plt>
    3a26:	83 c4 0c             	add    $0xc,%esp
    3a29:	8d 45 bc             	lea    -0x44(%ebp),%eax
    3a2c:	50                   	push   %eax
    3a2d:	8d 45 b8             	lea    -0x48(%ebp),%eax
    3a30:	50                   	push   %eax
    3a31:	a1 84 66 00 00       	mov    0x6684,%eax
    3a36:	50                   	push   %eax
    3a37:	e8 04 13 00 00       	call   4d40 <console_get_size@plt>
    3a3c:	58                   	pop    %eax
    3a3d:	a1 84 66 00 00       	mov    0x6684,%eax
    3a42:	50                   	push   %eax
    3a43:	e8 78 14 00 00       	call   4ec0 <console_flush@plt>
    3a48:	83 c4 0c             	add    $0xc,%esp
    3a4b:	8d 45 c4             	lea    -0x3c(%ebp),%eax
    3a4e:	50                   	push   %eax
    3a4f:	8d 45 c0             	lea    -0x40(%ebp),%eax
    3a52:	50                   	push   %eax
    3a53:	a1 84 66 00 00       	mov    0x6684,%eax
    3a58:	50                   	push   %eax
    3a59:	e8 12 13 00 00       	call   4d70 <console_get_pos@plt>
    3a5e:	8b 45 08             	mov    0x8(%ebp),%eax
    3a61:	83 c4 10             	add    $0x10,%esp
    3a64:	8b 50 70             	mov    0x70(%eax),%edx
    3a67:	8b 45 c4             	mov    -0x3c(%ebp),%eax
    3a6a:	85 d2                	test   %edx,%edx
    3a6c:	0f 84 df 01 00 00    	je     3c51 <print_data+0x14f1>
    3a72:	8b 45 bc             	mov    -0x44(%ebp),%eax
    3a75:	39 45 c4             	cmp    %eax,-0x3c(%ebp)
    3a78:	0f 83 71 fd ff ff    	jae    37ef <print_data+0x108f>
    3a7e:	8b 45 08             	mov    0x8(%ebp),%eax
    3a81:	c7 45 a4 00 00 00 00 	movl   $0x0,-0x5c(%ebp)
    3a88:	c7 45 a0 00 00 00 00 	movl   $0x0,-0x60(%ebp)
    3a8f:	8b 40 6c             	mov    0x6c(%eax),%eax
    3a92:	8b 70 08             	mov    0x8(%eax),%esi
    3a95:	8b 45 08             	mov    0x8(%ebp),%eax
    3a98:	89 c7                	mov    %eax,%edi
    3a9a:	8b 58 74             	mov    0x74(%eax),%ebx
    3a9d:	8d 76 00             	lea    0x0(%esi),%esi
    3aa0:	85 f6                	test   %esi,%esi
    3aa2:	0f 84 00 03 00 00    	je     3da8 <print_data+0x1648>
    3aa8:	83 3b 05             	cmpl   $0x5,(%ebx)
    3aab:	0f 87 87 02 00 00    	ja     3d38 <print_data+0x15d8>
    3ab1:	8b 03                	mov    (%ebx),%eax
    3ab3:	ff 24 85 e4 4b 00 00 	jmp    *0x4be4(,%eax,4)
    3aba:	8d 46 fb             	lea    -0x5(%esi),%eax
    3abd:	83 f8 02             	cmp    $0x2,%eax
    3ac0:	0f 8f ab 06 00 00    	jg     4171 <print_data+0x1a11>
    3ac6:	8b 53 04             	mov    0x4(%ebx),%edx
    3ac9:	8b 4b 08             	mov    0x8(%ebx),%ecx
    3acc:	83 ec 10             	sub    $0x10,%esp
    3acf:	89 55 88             	mov    %edx,-0x78(%ebp)
    3ad2:	89 4d 8c             	mov    %ecx,-0x74(%ebp)
    3ad5:	8b 4b 10             	mov    0x10(%ebx),%ecx
    3ad8:	8b 53 0c             	mov    0xc(%ebx),%edx
    3adb:	89 ce                	mov    %ecx,%esi
    3add:	51                   	push   %ecx
    3ade:	89 45 90             	mov    %eax,-0x70(%ebp)
    3ae1:	89 4d 9c             	mov    %ecx,-0x64(%ebp)
    3ae4:	8b 45 88             	mov    -0x78(%ebp),%eax
    3ae7:	8b 4d 8c             	mov    -0x74(%ebp),%ecx
    3aea:	52                   	push   %edx
    3aeb:	89 d3                	mov    %edx,%ebx
    3aed:	51                   	push   %ecx
    3aee:	89 55 98             	mov    %edx,-0x68(%ebp)
    3af1:	50                   	push   %eax
    3af2:	e8 d9 12 00 00       	call   4dd0 <__udivdi3@plt>
    3af7:	83 c4 1c             	add    $0x1c,%esp
    3afa:	52                   	push   %edx
    3afb:	50                   	push   %eax
    3afc:	68 b6 4a 00 00       	push   $0x4ab6
    3b01:	e8 5a 12 00 00       	call   4d60 <printf@plt>
    3b06:	8b 45 8c             	mov    -0x74(%ebp),%eax
    3b09:	56                   	push   %esi
    3b0a:	53                   	push   %ebx
    3b0b:	50                   	push   %eax
    3b0c:	8b 45 88             	mov    -0x78(%ebp),%eax
    3b0f:	50                   	push   %eax
    3b10:	e8 ab 12 00 00       	call   4dc0 <__umoddi3@plt>
    3b15:	89 c1                	mov    %eax,%ecx
    3b17:	89 d3                	mov    %edx,%ebx
    3b19:	0f a4 cb 02          	shld   $0x2,%ecx,%ebx
    3b1d:	c1 e1 02             	shl    $0x2,%ecx
    3b20:	01 c1                	add    %eax,%ecx
    3b22:	8b 45 90             	mov    -0x70(%ebp),%eax
    3b25:	11 d3                	adc    %edx,%ebx
    3b27:	83 c4 20             	add    $0x20,%esp
    3b2a:	0f a4 cb 01          	shld   $0x1,%ecx,%ebx
    3b2e:	01 c9                	add    %ecx,%ecx
    3b30:	89 de                	mov    %ebx,%esi
    3b32:	85 c0                	test   %eax,%eax
    3b34:	89 cb                	mov    %ecx,%ebx
    3b36:	74 5d                	je     3b95 <print_data+0x1435>
    3b38:	31 c0                	xor    %eax,%eax
    3b3a:	89 7d 88             	mov    %edi,-0x78(%ebp)
    3b3d:	89 c7                	mov    %eax,%edi
    3b3f:	90                   	nop
    3b40:	83 ec 10             	sub    $0x10,%esp
    3b43:	8b 45 9c             	mov    -0x64(%ebp),%eax
    3b46:	50                   	push   %eax
    3b47:	8b 45 98             	mov    -0x68(%ebp),%eax
    3b4a:	50                   	push   %eax
    3b4b:	56                   	push   %esi
    3b4c:	53                   	push   %ebx
    3b4d:	e8 7e 12 00 00       	call   4dd0 <__udivdi3@plt>
    3b52:	83 c4 1c             	add    $0x1c,%esp
    3b55:	52                   	push   %edx
    3b56:	50                   	push   %eax
    3b57:	68 bd 4a 00 00       	push   $0x4abd
    3b5c:	e8 ff 11 00 00       	call   4d60 <printf@plt>
    3b61:	8b 45 9c             	mov    -0x64(%ebp),%eax
    3b64:	8b 55 98             	mov    -0x68(%ebp),%edx
    3b67:	50                   	push   %eax
    3b68:	52                   	push   %edx
    3b69:	56                   	push   %esi
    3b6a:	53                   	push   %ebx
    3b6b:	e8 50 12 00 00       	call   4dc0 <__umoddi3@plt>
    3b70:	89 c1                	mov    %eax,%ecx
    3b72:	89 d3                	mov    %edx,%ebx
    3b74:	0f a4 cb 02          	shld   $0x2,%ecx,%ebx
    3b78:	c1 e1 02             	shl    $0x2,%ecx
    3b7b:	01 c8                	add    %ecx,%eax
    3b7d:	11 da                	adc    %ebx,%edx
    3b7f:	47                   	inc    %edi
    3b80:	0f a4 c2 01          	shld   $0x1,%eax,%edx
    3b84:	01 c0                	add    %eax,%eax
    3b86:	83 c4 20             	add    $0x20,%esp
    3b89:	89 c3                	mov    %eax,%ebx
    3b8b:	89 d6                	mov    %edx,%esi
    3b8d:	3b 7d 90             	cmp    -0x70(%ebp),%edi
    3b90:	72 ae                	jb     3b40 <print_data+0x13e0>
    3b92:	8b 7d 88             	mov    -0x78(%ebp),%edi
    3b95:	83 ec 0c             	sub    $0xc,%esp
    3b98:	68 c2 4a 00 00       	push   $0x4ac2
    3b9d:	e8 be 11 00 00       	call   4d60 <printf@plt>
    3ba2:	8b 47 68             	mov    0x68(%edi),%eax
    3ba5:	83 c4 10             	add    $0x10,%esp
    3ba8:	48                   	dec    %eax
    3ba9:	3b 45 a0             	cmp    -0x60(%ebp),%eax
    3bac:	0f 85 93 01 00 00    	jne    3d45 <print_data+0x15e5>
    3bb2:	83 ec 0c             	sub    $0xc,%esp
    3bb5:	8b 0d 84 66 00 00    	mov    0x6684,%ecx
    3bbb:	51                   	push   %ecx
    3bbc:	e8 ff 12 00 00       	call   4ec0 <console_flush@plt>
    3bc1:	83 c4 0c             	add    $0xc,%esp
    3bc4:	8d 45 d0             	lea    -0x30(%ebp),%eax
    3bc7:	8b 1d 84 66 00 00    	mov    0x6684,%ebx
    3bcd:	50                   	push   %eax
    3bce:	8d 45 c8             	lea    -0x38(%ebp),%eax
    3bd1:	50                   	push   %eax
    3bd2:	53                   	push   %ebx
    3bd3:	e8 68 11 00 00       	call   4d40 <console_get_size@plt>
    3bd8:	a1 84 66 00 00       	mov    0x6684,%eax
    3bdd:	5e                   	pop    %esi
    3bde:	50                   	push   %eax
    3bdf:	e8 dc 12 00 00       	call   4ec0 <console_flush@plt>
    3be4:	83 c4 0c             	add    $0xc,%esp
    3be7:	8d 45 e0             	lea    -0x20(%ebp),%eax
    3bea:	50                   	push   %eax
    3beb:	8d 45 d8             	lea    -0x28(%ebp),%eax
    3bee:	50                   	push   %eax
    3bef:	a1 84 66 00 00       	mov    0x6684,%eax
    3bf4:	50                   	push   %eax
    3bf5:	e8 76 11 00 00       	call   4d70 <console_get_pos@plt>
    3bfa:	8b 45 d8             	mov    -0x28(%ebp),%eax
    3bfd:	83 c4 10             	add    $0x10,%esp
    3c00:	8d 58 01             	lea    0x1(%eax),%ebx
    3c03:	3b 5d c8             	cmp    -0x38(%ebp),%ebx
    3c06:	73 16                	jae    3c1e <print_data+0x14be>
    3c08:	83 ec 0c             	sub    $0xc,%esp
    3c0b:	43                   	inc    %ebx
    3c0c:	68 b4 4a 00 00       	push   $0x4ab4
    3c11:	e8 7a 11 00 00       	call   4d90 <puts@plt>
    3c16:	83 c4 10             	add    $0x10,%esp
    3c19:	3b 5d c8             	cmp    -0x38(%ebp),%ebx
    3c1c:	72 ea                	jb     3c08 <print_data+0x14a8>
    3c1e:	8b 45 e0             	mov    -0x20(%ebp),%eax
    3c21:	40                   	inc    %eax
    3c22:	3b 45 d0             	cmp    -0x30(%ebp),%eax
    3c25:	73 10                	jae    3c37 <print_data+0x14d7>
    3c27:	83 ec 0c             	sub    $0xc,%esp
    3c2a:	68 a1 45 00 00       	push   $0x45a1
    3c2f:	e8 5c 11 00 00       	call   4d90 <puts@plt>
    3c34:	83 c4 10             	add    $0x10,%esp
    3c37:	8b 55 a4             	mov    -0x5c(%ebp),%edx
    3c3a:	8b 45 c4             	mov    -0x3c(%ebp),%eax
    3c3d:	42                   	inc    %edx
    3c3e:	40                   	inc    %eax
    3c3f:	89 55 a4             	mov    %edx,-0x5c(%ebp)
    3c42:	89 45 c4             	mov    %eax,-0x3c(%ebp)
    3c45:	8b 55 a4             	mov    -0x5c(%ebp),%edx
    3c48:	3b 57 70             	cmp    0x70(%edi),%edx
    3c4b:	0f 82 0a 01 00 00    	jb     3d5b <print_data+0x15fb>
    3c51:	39 45 bc             	cmp    %eax,-0x44(%ebp)
    3c54:	0f 86 95 fb ff ff    	jbe    37ef <print_data+0x108f>
    3c5a:	8d b6 00 00 00 00    	lea    0x0(%esi),%esi
    3c60:	83 ec 0c             	sub    $0xc,%esp
    3c63:	8b 3d 84 66 00 00    	mov    0x6684,%edi
    3c69:	57                   	push   %edi
    3c6a:	e8 51 12 00 00       	call   4ec0 <console_flush@plt>
    3c6f:	83 c4 0c             	add    $0xc,%esp
    3c72:	8d 45 d0             	lea    -0x30(%ebp),%eax
    3c75:	50                   	push   %eax
    3c76:	8d 45 c8             	lea    -0x38(%ebp),%eax
    3c79:	50                   	push   %eax
    3c7a:	a1 84 66 00 00       	mov    0x6684,%eax
    3c7f:	50                   	push   %eax
    3c80:	e8 bb 10 00 00       	call   4d40 <console_get_size@plt>
    3c85:	58                   	pop    %eax
    3c86:	a1 84 66 00 00       	mov    0x6684,%eax
    3c8b:	50                   	push   %eax
    3c8c:	e8 2f 12 00 00       	call   4ec0 <console_flush@plt>
    3c91:	83 c4 0c             	add    $0xc,%esp
    3c94:	8d 45 e0             	lea    -0x20(%ebp),%eax
    3c97:	50                   	push   %eax
    3c98:	8d 45 d8             	lea    -0x28(%ebp),%eax
    3c9b:	50                   	push   %eax
    3c9c:	a1 84 66 00 00       	mov    0x6684,%eax
    3ca1:	50                   	push   %eax
    3ca2:	e8 c9 10 00 00       	call   4d70 <console_get_pos@plt>
    3ca7:	8b 45 d8             	mov    -0x28(%ebp),%eax
    3caa:	83 c4 10             	add    $0x10,%esp
    3cad:	8d 58 01             	lea    0x1(%eax),%ebx
    3cb0:	39 5d c8             	cmp    %ebx,-0x38(%ebp)
    3cb3:	76 19                	jbe    3cce <print_data+0x156e>
    3cb5:	8d 76 00             	lea    0x0(%esi),%esi
    3cb8:	83 ec 0c             	sub    $0xc,%esp
    3cbb:	43                   	inc    %ebx
    3cbc:	68 b4 4a 00 00       	push   $0x4ab4
    3cc1:	e8 ca 10 00 00       	call   4d90 <puts@plt>
    3cc6:	83 c4 10             	add    $0x10,%esp
    3cc9:	3b 5d c8             	cmp    -0x38(%ebp),%ebx
    3ccc:	72 ea                	jb     3cb8 <print_data+0x1558>
    3cce:	8b 45 e0             	mov    -0x20(%ebp),%eax
    3cd1:	40                   	inc    %eax
    3cd2:	3b 45 d0             	cmp    -0x30(%ebp),%eax
    3cd5:	73 10                	jae    3ce7 <print_data+0x1587>
    3cd7:	83 ec 0c             	sub    $0xc,%esp
    3cda:	68 a1 45 00 00       	push   $0x45a1
    3cdf:	e8 ac 10 00 00       	call   4d90 <puts@plt>
    3ce4:	83 c4 10             	add    $0x10,%esp
    3ce7:	8b 45 c4             	mov    -0x3c(%ebp),%eax
    3cea:	40                   	inc    %eax
    3ceb:	89 45 c4             	mov    %eax,-0x3c(%ebp)
    3cee:	3b 45 bc             	cmp    -0x44(%ebp),%eax
    3cf1:	0f 82 69 ff ff ff    	jb     3c60 <print_data+0x1500>
    3cf7:	e9 f3 fa ff ff       	jmp    37ef <print_data+0x108f>
    3cfc:	8d 4d d8             	lea    -0x28(%ebp),%ecx
    3cff:	8b 43 04             	mov    0x4(%ebx),%eax
    3d02:	8b 53 08             	mov    0x8(%ebx),%edx
    3d05:	51                   	push   %ecx
    3d06:	8d 4d e0             	lea    -0x20(%ebp),%ecx
    3d09:	89 45 e0             	mov    %eax,-0x20(%ebp)
    3d0c:	51                   	push   %ecx
    3d0d:	89 55 e4             	mov    %edx,-0x1c(%ebp)
    3d10:	52                   	push   %edx
    3d11:	50                   	push   %eax
    3d12:	e8 49 11 00 00       	call   4e60 <order_suffix@plt>
    3d17:	4e                   	dec    %esi
    3d18:	0f be 45 d8          	movsbl -0x28(%ebp),%eax
    3d1c:	89 04 24             	mov    %eax,(%esp)
    3d1f:	8b 45 e4             	mov    -0x1c(%ebp),%eax
    3d22:	50                   	push   %eax
    3d23:	8b 45 e0             	mov    -0x20(%ebp),%eax
    3d26:	50                   	push   %eax
    3d27:	56                   	push   %esi
    3d28:	68 fd 4a 00 00       	push   $0x4afd
    3d2d:	e8 2e 10 00 00       	call   4d60 <printf@plt>
    3d32:	83 c4 20             	add    $0x20,%esp
    3d35:	8d 76 00             	lea    0x0(%esi),%esi
    3d38:	8b 47 68             	mov    0x68(%edi),%eax
    3d3b:	48                   	dec    %eax
    3d3c:	3b 45 a0             	cmp    -0x60(%ebp),%eax
    3d3f:	0f 84 6d fe ff ff    	je     3bb2 <print_data+0x1452>
    3d45:	8b 55 a4             	mov    -0x5c(%ebp),%edx
    3d48:	8b 45 c4             	mov    -0x3c(%ebp),%eax
    3d4b:	42                   	inc    %edx
    3d4c:	89 55 a4             	mov    %edx,-0x5c(%ebp)
    3d4f:	8b 55 a4             	mov    -0x5c(%ebp),%edx
    3d52:	3b 57 70             	cmp    0x70(%edi),%edx
    3d55:	0f 83 f6 fe ff ff    	jae    3c51 <print_data+0x14f1>
    3d5b:	39 45 bc             	cmp    %eax,-0x44(%ebp)
    3d5e:	0f 86 8b fa ff ff    	jbe    37ef <print_data+0x108f>
    3d64:	89 d0                	mov    %edx,%eax
    3d66:	31 d2                	xor    %edx,%edx
    3d68:	f7 77 68             	divl   0x68(%edi)
    3d6b:	89 d1                	mov    %edx,%ecx
    3d6d:	89 55 a0             	mov    %edx,-0x60(%ebp)
    3d70:	8d 04 52             	lea    (%edx,%edx,2),%eax
    3d73:	8b 57 6c             	mov    0x6c(%edi),%edx
    3d76:	85 c9                	test   %ecx,%ecx
    3d78:	8d 04 82             	lea    (%edx,%eax,4),%eax
    3d7b:	8b 57 74             	mov    0x74(%edi),%edx
    3d7e:	8b 70 08             	mov    0x8(%eax),%esi
    3d81:	8b 45 a4             	mov    -0x5c(%ebp),%eax
    3d84:	8d 04 80             	lea    (%eax,%eax,4),%eax
    3d87:	8d 1c 82             	lea    (%edx,%eax,4),%ebx
    3d8a:	0f 84 10 fd ff ff    	je     3aa0 <print_data+0x1340>
    3d90:	83 ec 0c             	sub    $0xc,%esp
    3d93:	68 b4 4a 00 00       	push   $0x4ab4
    3d98:	e8 f3 0f 00 00       	call   4d90 <puts@plt>
    3d9d:	83 c4 10             	add    $0x10,%esp
    3da0:	85 f6                	test   %esi,%esi
    3da2:	0f 85 00 fd ff ff    	jne    3aa8 <print_data+0x1348>
    3da8:	83 ec 0c             	sub    $0xc,%esp
    3dab:	8b 35 84 66 00 00    	mov    0x6684,%esi
    3db1:	56                   	push   %esi
    3db2:	e8 09 11 00 00       	call   4ec0 <console_flush@plt>
    3db7:	83 c4 0c             	add    $0xc,%esp
    3dba:	8d 45 c4             	lea    -0x3c(%ebp),%eax
    3dbd:	50                   	push   %eax
    3dbe:	8d 45 c0             	lea    -0x40(%ebp),%eax
    3dc1:	50                   	push   %eax
    3dc2:	a1 84 66 00 00       	mov    0x6684,%eax
    3dc7:	50                   	push   %eax
    3dc8:	e8 a3 0f 00 00       	call   4d70 <console_get_pos@plt>
    3dcd:	8b 45 b8             	mov    -0x48(%ebp),%eax
    3dd0:	83 c4 10             	add    $0x10,%esp
    3dd3:	8d 70 ff             	lea    -0x1(%eax),%esi
    3dd6:	8b 45 c0             	mov    -0x40(%ebp),%eax
    3dd9:	29 c6                	sub    %eax,%esi
    3ddb:	e9 c8 fc ff ff       	jmp    3aa8 <print_data+0x1348>
    3de0:	83 ec 0c             	sub    $0xc,%esp
    3de3:	8d 4d d8             	lea    -0x28(%ebp),%ecx
    3de6:	8b 43 04             	mov    0x4(%ebx),%eax
    3de9:	8b 53 08             	mov    0x8(%ebx),%edx
    3dec:	6a 01                	push   $0x1
    3dee:	51                   	push   %ecx
    3def:	8d 4d e0             	lea    -0x20(%ebp),%ecx
    3df2:	89 45 e0             	mov    %eax,-0x20(%ebp)
    3df5:	51                   	push   %ecx
    3df6:	52                   	push   %edx
    3df7:	50                   	push   %eax
    3df8:	89 55 e4             	mov    %edx,-0x1c(%ebp)
    3dfb:	e8 00 10 00 00       	call   4e00 <bin_order_suffix@plt>
    3e00:	83 c4 14             	add    $0x14,%esp
    3e03:	8b 45 d8             	mov    -0x28(%ebp),%eax
    3e06:	83 ee 03             	sub    $0x3,%esi
    3e09:	50                   	push   %eax
    3e0a:	8b 45 e4             	mov    -0x1c(%ebp),%eax
    3e0d:	50                   	push   %eax
    3e0e:	8b 45 e0             	mov    -0x20(%ebp),%eax
    3e11:	50                   	push   %eax
    3e12:	56                   	push   %esi
    3e13:	68 f5 4a 00 00       	push   $0x4af5
    3e18:	e8 43 0f 00 00       	call   4d60 <printf@plt>
    3e1d:	83 c4 20             	add    $0x20,%esp
    3e20:	e9 13 ff ff ff       	jmp    3d38 <print_data+0x15d8>
    3e25:	51                   	push   %ecx
    3e26:	68 a2 45 00 00       	push   $0x45a2
    3e2b:	56                   	push   %esi
    3e2c:	68 eb 4a 00 00       	push   $0x4aeb
    3e31:	e8 2a 0f 00 00       	call   4d60 <printf@plt>
    3e36:	83 c4 10             	add    $0x10,%esp
    3e39:	e9 fa fe ff ff       	jmp    3d38 <print_data+0x15d8>
    3e3e:	8b 43 04             	mov    0x4(%ebx),%eax
    3e41:	50                   	push   %eax
    3e42:	56                   	push   %esi
    3e43:	56                   	push   %esi
    3e44:	68 05 4b 00 00       	push   $0x4b05
    3e49:	e8 12 0f 00 00       	call   4d60 <printf@plt>
    3e4e:	83 c4 10             	add    $0x10,%esp
    3e51:	e9 e2 fe ff ff       	jmp    3d38 <print_data+0x15d8>
    3e56:	8b 43 08             	mov    0x8(%ebx),%eax
    3e59:	50                   	push   %eax
    3e5a:	8b 53 04             	mov    0x4(%ebx),%edx
    3e5d:	52                   	push   %edx
    3e5e:	56                   	push   %esi
    3e5f:	68 ef 4a 00 00       	push   $0x4aef
    3e64:	e8 f7 0e 00 00       	call   4d60 <printf@plt>
    3e69:	83 c4 10             	add    $0x10,%esp
    3e6c:	e9 c7 fe ff ff       	jmp    3d38 <print_data+0x15d8>
    3e71:	83 ec 0c             	sub    $0xc,%esp
    3e74:	a1 84 66 00 00       	mov    0x6684,%eax
    3e79:	50                   	push   %eax
    3e7a:	e8 41 10 00 00       	call   4ec0 <console_flush@plt>
    3e7f:	83 c4 0c             	add    $0xc,%esp
    3e82:	8d 45 bc             	lea    -0x44(%ebp),%eax
    3e85:	8b 15 84 66 00 00    	mov    0x6684,%edx
    3e8b:	50                   	push   %eax
    3e8c:	8d 45 b8             	lea    -0x48(%ebp),%eax
    3e8f:	50                   	push   %eax
    3e90:	52                   	push   %edx
    3e91:	e8 aa 0e 00 00       	call   4d40 <console_get_size@plt>
    3e96:	8b 1d 84 66 00 00    	mov    0x6684,%ebx
    3e9c:	59                   	pop    %ecx
    3e9d:	53                   	push   %ebx
    3e9e:	e8 1d 10 00 00       	call   4ec0 <console_flush@plt>
    3ea3:	83 c4 0c             	add    $0xc,%esp
    3ea6:	8d 45 c4             	lea    -0x3c(%ebp),%eax
    3ea9:	8b 35 84 66 00 00    	mov    0x6684,%esi
    3eaf:	50                   	push   %eax
    3eb0:	8d 45 c0             	lea    -0x40(%ebp),%eax
    3eb3:	50                   	push   %eax
    3eb4:	56                   	push   %esi
    3eb5:	e8 b6 0e 00 00       	call   4d70 <console_get_pos@plt>
    3eba:	8b 55 bc             	mov    -0x44(%ebp),%edx
    3ebd:	8b 7d 08             	mov    0x8(%ebp),%edi
    3ec0:	8b 45 c4             	mov    -0x3c(%ebp),%eax
    3ec3:	89 d6                	mov    %edx,%esi
    3ec5:	83 c4 10             	add    $0x10,%esp
    3ec8:	8b 4f 68             	mov    0x68(%edi),%ecx
    3ecb:	29 c6                	sub    %eax,%esi
    3ecd:	39 ce                	cmp    %ecx,%esi
    3ecf:	0f 87 6f 01 00 00    	ja     4044 <print_data+0x18e4>
    3ed5:	85 f6                	test   %esi,%esi
    3ed7:	0f 84 be 00 00 00    	je     3f9b <print_data+0x183b>
    3edd:	31 db                	xor    %ebx,%ebx
    3edf:	89 75 a4             	mov    %esi,-0x5c(%ebp)
    3ee2:	8b 7d 08             	mov    0x8(%ebp),%edi
    3ee5:	8d 76 00             	lea    0x0(%esi),%esi
    3ee8:	8b 57 6c             	mov    0x6c(%edi),%edx
    3eeb:	8d 04 5b             	lea    (%ebx,%ebx,2),%eax
    3eee:	8d 04 82             	lea    (%edx,%eax,4),%eax
    3ef1:	52                   	push   %edx
    3ef2:	8b 08                	mov    (%eax),%ecx
    3ef4:	51                   	push   %ecx
    3ef5:	0f be 40 04          	movsbl 0x4(%eax),%eax
    3ef9:	50                   	push   %eax
    3efa:	68 0c 4b 00 00       	push   $0x4b0c
    3eff:	e8 5c 0e 00 00       	call   4d60 <printf@plt>
    3f04:	a1 84 66 00 00       	mov    0x6684,%eax
    3f09:	5e                   	pop    %esi
    3f0a:	50                   	push   %eax
    3f0b:	e8 b0 0f 00 00       	call   4ec0 <console_flush@plt>
    3f10:	83 c4 0c             	add    $0xc,%esp
    3f13:	8d 45 d0             	lea    -0x30(%ebp),%eax
    3f16:	50                   	push   %eax
    3f17:	8d 45 c8             	lea    -0x38(%ebp),%eax
    3f1a:	50                   	push   %eax
    3f1b:	a1 84 66 00 00       	mov    0x6684,%eax
    3f20:	50                   	push   %eax
    3f21:	e8 1a 0e 00 00       	call   4d40 <console_get_size@plt>
    3f26:	58                   	pop    %eax
    3f27:	a1 84 66 00 00       	mov    0x6684,%eax
    3f2c:	50                   	push   %eax
    3f2d:	e8 8e 0f 00 00       	call   4ec0 <console_flush@plt>
    3f32:	83 c4 0c             	add    $0xc,%esp
    3f35:	8d 45 e0             	lea    -0x20(%ebp),%eax
    3f38:	50                   	push   %eax
    3f39:	8d 45 d8             	lea    -0x28(%ebp),%eax
    3f3c:	50                   	push   %eax
    3f3d:	a1 84 66 00 00       	mov    0x6684,%eax
    3f42:	50                   	push   %eax
    3f43:	e8 28 0e 00 00       	call   4d70 <console_get_pos@plt>
    3f48:	8b 45 d8             	mov    -0x28(%ebp),%eax
    3f4b:	83 c4 10             	add    $0x10,%esp
    3f4e:	8d 70 01             	lea    0x1(%eax),%esi
    3f51:	3b 75 c8             	cmp    -0x38(%ebp),%esi
    3f54:	73 18                	jae    3f6e <print_data+0x180e>
    3f56:	66 90                	xchg   %ax,%ax
    3f58:	83 ec 0c             	sub    $0xc,%esp
    3f5b:	46                   	inc    %esi
    3f5c:	68 b4 4a 00 00       	push   $0x4ab4
    3f61:	e8 2a 0e 00 00       	call   4d90 <puts@plt>
    3f66:	83 c4 10             	add    $0x10,%esp
    3f69:	3b 75 c8             	cmp    -0x38(%ebp),%esi
    3f6c:	72 ea                	jb     3f58 <print_data+0x17f8>
    3f6e:	8b 45 e0             	mov    -0x20(%ebp),%eax
    3f71:	40                   	inc    %eax
    3f72:	3b 45 d0             	cmp    -0x30(%ebp),%eax
    3f75:	73 10                	jae    3f87 <print_data+0x1827>
    3f77:	83 ec 0c             	sub    $0xc,%esp
    3f7a:	68 a1 45 00 00       	push   $0x45a1
    3f7f:	e8 0c 0e 00 00       	call   4d90 <puts@plt>
    3f84:	83 c4 10             	add    $0x10,%esp
    3f87:	8b 45 c4             	mov    -0x3c(%ebp),%eax
    3f8a:	43                   	inc    %ebx
    3f8b:	40                   	inc    %eax
    3f8c:	39 5d a4             	cmp    %ebx,-0x5c(%ebp)
    3f8f:	89 45 c4             	mov    %eax,-0x3c(%ebp)
    3f92:	0f 85 50 ff ff ff    	jne    3ee8 <print_data+0x1788>
    3f98:	8b 55 bc             	mov    -0x44(%ebp),%edx
    3f9b:	39 c2                	cmp    %eax,%edx
    3f9d:	0f 86 4c f8 ff ff    	jbe    37ef <print_data+0x108f>
    3fa3:	90                   	nop
    3fa4:	8d 74 26 00          	lea    0x0(%esi,%eiz,1),%esi
    3fa8:	83 ec 0c             	sub    $0xc,%esp
    3fab:	a1 84 66 00 00       	mov    0x6684,%eax
    3fb0:	50                   	push   %eax
    3fb1:	e8 0a 0f 00 00       	call   4ec0 <console_flush@plt>
    3fb6:	83 c4 0c             	add    $0xc,%esp
    3fb9:	8d 45 d0             	lea    -0x30(%ebp),%eax
    3fbc:	8b 15 84 66 00 00    	mov    0x6684,%edx
    3fc2:	50                   	push   %eax
    3fc3:	8d 45 c8             	lea    -0x38(%ebp),%eax
    3fc6:	50                   	push   %eax
    3fc7:	52                   	push   %edx
    3fc8:	e8 73 0d 00 00       	call   4d40 <console_get_size@plt>
    3fcd:	8b 1d 84 66 00 00    	mov    0x6684,%ebx
    3fd3:	59                   	pop    %ecx
    3fd4:	53                   	push   %ebx
    3fd5:	e8 e6 0e 00 00       	call   4ec0 <console_flush@plt>
    3fda:	83 c4 0c             	add    $0xc,%esp
    3fdd:	8d 45 e0             	lea    -0x20(%ebp),%eax
    3fe0:	8b 35 84 66 00 00    	mov    0x6684,%esi
    3fe6:	50                   	push   %eax
    3fe7:	8d 45 d8             	lea    -0x28(%ebp),%eax
    3fea:	50                   	push   %eax
    3feb:	56                   	push   %esi
    3fec:	e8 7f 0d 00 00       	call   4d70 <console_get_pos@plt>
    3ff1:	8b 45 d8             	mov    -0x28(%ebp),%eax
    3ff4:	8d 58 01             	lea    0x1(%eax),%ebx
    3ff7:	83 c4 10             	add    $0x10,%esp
    3ffa:	3b 5d c8             	cmp    -0x38(%ebp),%ebx
    3ffd:	73 17                	jae    4016 <print_data+0x18b6>
    3fff:	90                   	nop
    4000:	83 ec 0c             	sub    $0xc,%esp
    4003:	43                   	inc    %ebx
    4004:	68 b4 4a 00 00       	push   $0x4ab4
    4009:	e8 82 0d 00 00       	call   4d90 <puts@plt>
    400e:	83 c4 10             	add    $0x10,%esp
    4011:	3b 5d c8             	cmp    -0x38(%ebp),%ebx
    4014:	72 ea                	jb     4000 <print_data+0x18a0>
    4016:	8b 45 e0             	mov    -0x20(%ebp),%eax
    4019:	40                   	inc    %eax
    401a:	3b 45 d0             	cmp    -0x30(%ebp),%eax
    401d:	73 10                	jae    402f <print_data+0x18cf>
    401f:	83 ec 0c             	sub    $0xc,%esp
    4022:	68 a1 45 00 00       	push   $0x45a1
    4027:	e8 64 0d 00 00       	call   4d90 <puts@plt>
    402c:	83 c4 10             	add    $0x10,%esp
    402f:	8b 45 c4             	mov    -0x3c(%ebp),%eax
    4032:	40                   	inc    %eax
    4033:	89 45 c4             	mov    %eax,-0x3c(%ebp)
    4036:	3b 45 bc             	cmp    -0x44(%ebp),%eax
    4039:	0f 82 69 ff ff ff    	jb     3fa8 <print_data+0x1848>
    403f:	e9 ab f7 ff ff       	jmp    37ef <print_data+0x108f>
    4044:	89 ce                	mov    %ecx,%esi
    4046:	e9 8a fe ff ff       	jmp    3ed5 <print_data+0x1775>
    404b:	83 ec 0c             	sub    $0xc,%esp
    404e:	68 a1 45 00 00       	push   $0x45a1
    4053:	e8 38 0d 00 00       	call   4d90 <puts@plt>
    4058:	83 c4 10             	add    $0x10,%esp
    405b:	e9 9b f9 ff ff       	jmp    39fb <print_data+0x129b>
    4060:	83 ec 0c             	sub    $0xc,%esp
    4063:	68 a1 45 00 00       	push   $0x45a1
    4068:	e8 23 0d 00 00       	call   4d90 <puts@plt>
    406d:	83 c4 10             	add    $0x10,%esp
    4070:	e9 ae f6 ff ff       	jmp    3723 <print_data+0xfc3>
    4075:	83 ec 0c             	sub    $0xc,%esp
    4078:	68 a1 45 00 00       	push   $0x45a1
    407d:	e8 0e 0d 00 00       	call   4d90 <puts@plt>
    4082:	83 c4 10             	add    $0x10,%esp
    4085:	e9 11 f6 ff ff       	jmp    369b <print_data+0xf3b>
    408a:	83 ec 0c             	sub    $0xc,%esp
    408d:	68 a1 45 00 00       	push   $0x45a1
    4092:	e8 f9 0c 00 00       	call   4d90 <puts@plt>
    4097:	83 c4 10             	add    $0x10,%esp
    409a:	e9 74 f5 ff ff       	jmp    3613 <print_data+0xeb3>
    409f:	83 ec 0c             	sub    $0xc,%esp
    40a2:	68 a1 45 00 00       	push   $0x45a1
    40a7:	e8 e4 0c 00 00       	call   4d90 <puts@plt>
    40ac:	83 c4 10             	add    $0x10,%esp
    40af:	e9 d7 f4 ff ff       	jmp    358b <print_data+0xe2b>
    40b4:	83 ec 0c             	sub    $0xc,%esp
    40b7:	68 a1 45 00 00       	push   $0x45a1
    40bc:	e8 cf 0c 00 00       	call   4d90 <puts@plt>
    40c1:	83 c4 10             	add    $0x10,%esp
    40c4:	e9 3a f4 ff ff       	jmp    3503 <print_data+0xda3>
    40c9:	83 ec 0c             	sub    $0xc,%esp
    40cc:	68 a1 45 00 00       	push   $0x45a1
    40d1:	e8 ba 0c 00 00       	call   4d90 <puts@plt>
    40d6:	83 c4 10             	add    $0x10,%esp
    40d9:	e9 a5 f3 ff ff       	jmp    3483 <print_data+0xd23>
    40de:	83 ec 0c             	sub    $0xc,%esp
    40e1:	68 a1 45 00 00       	push   $0x45a1
    40e6:	e8 a5 0c 00 00       	call   4d90 <puts@plt>
    40eb:	83 c4 10             	add    $0x10,%esp
    40ee:	e9 08 f3 ff ff       	jmp    33fb <print_data+0xc9b>
    40f3:	83 ec 0c             	sub    $0xc,%esp
    40f6:	68 a1 45 00 00       	push   $0x45a1
    40fb:	e8 90 0c 00 00       	call   4d90 <puts@plt>
    4100:	83 c4 10             	add    $0x10,%esp
    4103:	e9 6b f2 ff ff       	jmp    3373 <print_data+0xc13>
    4108:	83 ec 0c             	sub    $0xc,%esp
    410b:	68 a1 45 00 00       	push   $0x45a1
    4110:	e8 7b 0c 00 00       	call   4d90 <puts@plt>
    4115:	83 c4 10             	add    $0x10,%esp
    4118:	e9 ce f1 ff ff       	jmp    32eb <print_data+0xb8b>
    411d:	83 ec 0c             	sub    $0xc,%esp
    4120:	68 a1 45 00 00       	push   $0x45a1
    4125:	e8 66 0c 00 00       	call   4d90 <puts@plt>
    412a:	83 c4 10             	add    $0x10,%esp
    412d:	e9 31 f1 ff ff       	jmp    3263 <print_data+0xb03>
    4132:	83 ec 0c             	sub    $0xc,%esp
    4135:	68 a1 45 00 00       	push   $0x45a1
    413a:	e8 51 0c 00 00       	call   4d90 <puts@plt>
    413f:	83 c4 10             	add    $0x10,%esp
    4142:	e9 94 f0 ff ff       	jmp    31db <print_data+0xa7b>
    4147:	83 ec 0c             	sub    $0xc,%esp
    414a:	68 a1 45 00 00       	push   $0x45a1
    414f:	e8 3c 0c 00 00       	call   4d90 <puts@plt>
    4154:	83 c4 10             	add    $0x10,%esp
    4157:	e9 f7 ef ff ff       	jmp    3153 <print_data+0x9f3>
    415c:	83 ec 0c             	sub    $0xc,%esp
    415f:	68 a1 45 00 00       	push   $0x45a1
    4164:	e8 27 0c 00 00       	call   4d90 <puts@plt>
    4169:	83 c4 10             	add    $0x10,%esp
    416c:	e9 2a ef ff ff       	jmp    309b <print_data+0x93b>
    4171:	83 ee 07             	sub    $0x7,%esi
    4174:	50                   	push   %eax
    4175:	68 a2 45 00 00       	push   $0x45a2
    417a:	56                   	push   %esi
    417b:	68 eb 4a 00 00       	push   $0x4aeb
    4180:	e8 db 0b 00 00       	call   4d60 <printf@plt>
    4185:	8b 43 04             	mov    0x4(%ebx),%eax
    4188:	8b 53 08             	mov    0x8(%ebx),%edx
    418b:	89 45 90             	mov    %eax,-0x70(%ebp)
    418e:	89 55 94             	mov    %edx,-0x6c(%ebp)
    4191:	8b 43 0c             	mov    0xc(%ebx),%eax
    4194:	8b 53 10             	mov    0x10(%ebx),%edx
    4197:	52                   	push   %edx
    4198:	89 c3                	mov    %eax,%ebx
    419a:	50                   	push   %eax
    419b:	89 d6                	mov    %edx,%esi
    419d:	89 45 98             	mov    %eax,-0x68(%ebp)
    41a0:	89 55 9c             	mov    %edx,-0x64(%ebp)
    41a3:	8b 45 94             	mov    -0x6c(%ebp),%eax
    41a6:	8b 55 90             	mov    -0x70(%ebp),%edx
    41a9:	50                   	push   %eax
    41aa:	52                   	push   %edx
    41ab:	e8 20 0c 00 00       	call   4dd0 <__udivdi3@plt>
    41b0:	83 c4 1c             	add    $0x1c,%esp
    41b3:	52                   	push   %edx
    41b4:	50                   	push   %eax
    41b5:	68 b6 4a 00 00       	push   $0x4ab6
    41ba:	e8 a1 0b 00 00       	call   4d60 <printf@plt>
    41bf:	56                   	push   %esi
    41c0:	8b 4d 94             	mov    -0x6c(%ebp),%ecx
    41c3:	53                   	push   %ebx
    41c4:	8b 5d 90             	mov    -0x70(%ebp),%ebx
    41c7:	51                   	push   %ecx
    41c8:	53                   	push   %ebx
    41c9:	e8 f2 0b 00 00       	call   4dc0 <__umoddi3@plt>
    41ce:	c7 45 90 02 00 00 00 	movl   $0x2,-0x70(%ebp)
    41d5:	89 c1                	mov    %eax,%ecx
    41d7:	89 d3                	mov    %edx,%ebx
    41d9:	0f a4 cb 02          	shld   $0x2,%ecx,%ebx
    41dd:	c1 e1 02             	shl    $0x2,%ecx
    41e0:	01 c1                	add    %eax,%ecx
    41e2:	11 d3                	adc    %edx,%ebx
    41e4:	83 c4 20             	add    $0x20,%esp
    41e7:	0f a4 cb 01          	shld   $0x1,%ecx,%ebx
    41eb:	01 c9                	add    %ecx,%ecx
    41ed:	89 de                	mov    %ebx,%esi
    41ef:	89 cb                	mov    %ecx,%ebx
    41f1:	e9 42 f9 ff ff       	jmp    3b38 <print_data+0x13d8>
    41f6:	31 f6                	xor    %esi,%esi
    41f8:	31 ff                	xor    %edi,%edi
    41fa:	c7 45 a0 00 00 00 00 	movl   $0x0,-0x60(%ebp)
    4201:	c7 45 98 00 00 00 00 	movl   $0x0,-0x68(%ebp)
    4208:	c7 45 a4 00 00 00 00 	movl   $0x0,-0x5c(%ebp)
    420f:	31 d2                	xor    %edx,%edx
    4211:	e9 74 e7 ff ff       	jmp    298a <print_data+0x22a>
    4216:	8d 76 00             	lea    0x0(%esi),%esi
    4219:	8d bc 27 00 00 00 00 	lea    0x0(%edi,%eiz,1),%edi

00004220 <show_warning>:
    4220:	55                   	push   %ebp
    4221:	89 e5                	mov    %esp,%ebp
    4223:	57                   	push   %edi
    4224:	56                   	push   %esi
    4225:	53                   	push   %ebx
    4226:	83 ec 48             	sub    $0x48,%esp
    4229:	8b 15 84 66 00 00    	mov    0x6684,%edx
    422f:	52                   	push   %edx
    4230:	e8 8b 0c 00 00       	call   4ec0 <console_flush@plt>
    4235:	83 c4 0c             	add    $0xc,%esp
    4238:	8d 45 d4             	lea    -0x2c(%ebp),%eax
    423b:	8b 0d 84 66 00 00    	mov    0x6684,%ecx
    4241:	50                   	push   %eax
    4242:	8d 45 d0             	lea    -0x30(%ebp),%eax
    4245:	50                   	push   %eax
    4246:	51                   	push   %ecx
    4247:	e8 f4 0a 00 00       	call   4d40 <console_get_size@plt>
    424c:	8b 45 d0             	mov    -0x30(%ebp),%eax
    424f:	8b 3d 94 66 00 00    	mov    0x6694,%edi
    4255:	5e                   	pop    %esi
    4256:	8d 58 01             	lea    0x1(%eax),%ebx
    4259:	57                   	push   %edi
    425a:	e8 d1 0c 00 00       	call   4f30 <free@plt>
    425f:	89 1c 24             	mov    %ebx,(%esp)
    4262:	e8 39 0b 00 00       	call   4da0 <malloc@plt>
    4267:	83 c4 10             	add    $0x10,%esp
    426a:	a3 94 66 00 00       	mov    %eax,0x6694
    426f:	85 c0                	test   %eax,%eax
    4271:	0f 84 e1 01 00 00    	je     4458 <show_warning+0x238>
    4277:	8d 55 0c             	lea    0xc(%ebp),%edx
    427a:	8b 4d 08             	mov    0x8(%ebp),%ecx
    427d:	52                   	push   %edx
    427e:	51                   	push   %ecx
    427f:	53                   	push   %ebx
    4280:	50                   	push   %eax
    4281:	e8 2a 0b 00 00       	call   4db0 <vsnprintf@plt>
    4286:	a1 84 66 00 00       	mov    0x6684,%eax
    428b:	5f                   	pop    %edi
    428c:	50                   	push   %eax
    428d:	8b 35 9c 66 00 00    	mov    0x669c,%esi
    4293:	8b 1d a0 66 00 00    	mov    0x66a0,%ebx
    4299:	c7 05 98 66 00 00 80 	movl   $0x1e8480,0x6698
    42a0:	84 1e 00 
    42a3:	e8 18 0c 00 00       	call   4ec0 <console_flush@plt>
    42a8:	83 c4 0c             	add    $0xc,%esp
    42ab:	a1 84 66 00 00       	mov    0x6684,%eax
    42b0:	56                   	push   %esi
    42b1:	53                   	push   %ebx
    42b2:	50                   	push   %eax
    42b3:	e8 28 0c 00 00       	call   4ee0 <console_set_pos@plt>
    42b8:	58                   	pop    %eax
    42b9:	a1 84 66 00 00       	mov    0x6684,%eax
    42be:	50                   	push   %eax
    42bf:	e8 fc 0b 00 00       	call   4ec0 <console_flush@plt>
    42c4:	83 c4 0c             	add    $0xc,%esp
    42c7:	a1 84 66 00 00       	mov    0x6684,%eax
    42cc:	68 9c 66 00 00       	push   $0x669c
    42d1:	68 a0 66 00 00       	push   $0x66a0
    42d6:	50                   	push   %eax
    42d7:	e8 94 0a 00 00       	call   4d70 <console_get_pos@plt>
    42dc:	a1 98 66 00 00       	mov    0x6698,%eax
    42e1:	83 c4 10             	add    $0x10,%esp
    42e4:	85 c0                	test   %eax,%eax
    42e6:	0f 8e b4 00 00 00    	jle    43a0 <show_warning+0x180>
    42ec:	83 ec 0c             	sub    $0xc,%esp
    42ef:	8b 1d 84 66 00 00    	mov    0x6684,%ebx
    42f5:	53                   	push   %ebx
    42f6:	e8 c5 0b 00 00       	call   4ec0 <console_flush@plt>
    42fb:	a1 84 66 00 00       	mov    0x6684,%eax
    4300:	5e                   	pop    %esi
    4301:	5f                   	pop    %edi
    4302:	6a 01                	push   $0x1
    4304:	50                   	push   %eax
    4305:	e8 76 0b 00 00       	call   4e80 <console_set_style@plt>
    430a:	a1 94 66 00 00       	mov    0x6694,%eax
    430f:	8d 75 dc             	lea    -0x24(%ebp),%esi
    4312:	89 45 c0             	mov    %eax,-0x40(%ebp)
    4315:	58                   	pop    %eax
    4316:	a1 84 66 00 00       	mov    0x6684,%eax
    431b:	8d 5d d8             	lea    -0x28(%ebp),%ebx
    431e:	50                   	push   %eax
    431f:	e8 9c 0b 00 00       	call   4ec0 <console_flush@plt>
    4324:	83 c4 0c             	add    $0xc,%esp
    4327:	a1 84 66 00 00       	mov    0x6684,%eax
    432c:	8d 7d e0             	lea    -0x20(%ebp),%edi
    432f:	56                   	push   %esi
    4330:	53                   	push   %ebx
    4331:	50                   	push   %eax
    4332:	e8 09 0a 00 00       	call   4d40 <console_get_size@plt>
    4337:	58                   	pop    %eax
    4338:	a1 84 66 00 00       	mov    0x6684,%eax
    433d:	50                   	push   %eax
    433e:	e8 7d 0b 00 00       	call   4ec0 <console_flush@plt>
    4343:	83 c4 0c             	add    $0xc,%esp
    4346:	8d 45 e4             	lea    -0x1c(%ebp),%eax
    4349:	8b 15 84 66 00 00    	mov    0x6684,%edx
    434f:	89 45 c4             	mov    %eax,-0x3c(%ebp)
    4352:	50                   	push   %eax
    4353:	57                   	push   %edi
    4354:	52                   	push   %edx
    4355:	e8 16 0a 00 00       	call   4d70 <console_get_pos@plt>
    435a:	8b 55 e0             	mov    -0x20(%ebp),%edx
    435d:	8b 45 d8             	mov    -0x28(%ebp),%eax
    4360:	83 c4 10             	add    $0x10,%esp
    4363:	39 c2                	cmp    %eax,%edx
    4365:	73 16                	jae    437d <show_warning+0x15d>
    4367:	48                   	dec    %eax
    4368:	51                   	push   %ecx
    4369:	29 d0                	sub    %edx,%eax
    436b:	8b 4d c0             	mov    -0x40(%ebp),%ecx
    436e:	51                   	push   %ecx
    436f:	50                   	push   %eax
    4370:	68 dd 4a 00 00       	push   $0x4add
    4375:	e8 e6 09 00 00       	call   4d60 <printf@plt>
    437a:	83 c4 10             	add    $0x10,%esp
    437d:	83 ec 0c             	sub    $0xc,%esp
    4380:	a1 84 66 00 00       	mov    0x6684,%eax
    4385:	50                   	push   %eax
    4386:	e8 35 0b 00 00       	call   4ec0 <console_flush@plt>
    438b:	8b 0d 84 66 00 00    	mov    0x6684,%ecx
    4391:	58                   	pop    %eax
    4392:	5a                   	pop    %edx
    4393:	6a 00                	push   $0x0
    4395:	51                   	push   %ecx
    4396:	e8 e5 0a 00 00       	call   4e80 <console_set_style@plt>
    439b:	83 c4 10             	add    $0x10,%esp
    439e:	eb 2a                	jmp    43ca <show_warning+0x1aa>
    43a0:	83 ec 0c             	sub    $0xc,%esp
    43a3:	a1 94 66 00 00       	mov    0x6694,%eax
    43a8:	8d 75 dc             	lea    -0x24(%ebp),%esi
    43ab:	8d 5d d8             	lea    -0x28(%ebp),%ebx
    43ae:	50                   	push   %eax
    43af:	e8 7c 0b 00 00       	call   4f30 <free@plt>
    43b4:	8d 45 e4             	lea    -0x1c(%ebp),%eax
    43b7:	c7 05 94 66 00 00 00 	movl   $0x0,0x6694
    43be:	00 00 00 
    43c1:	83 c4 10             	add    $0x10,%esp
    43c4:	89 45 c4             	mov    %eax,-0x3c(%ebp)
    43c7:	8d 7d e0             	lea    -0x20(%ebp),%edi
    43ca:	83 ec 0c             	sub    $0xc,%esp
    43cd:	8b 15 84 66 00 00    	mov    0x6684,%edx
    43d3:	52                   	push   %edx
    43d4:	e8 e7 0a 00 00       	call   4ec0 <console_flush@plt>
    43d9:	83 c4 0c             	add    $0xc,%esp
    43dc:	8b 0d 84 66 00 00    	mov    0x6684,%ecx
    43e2:	56                   	push   %esi
    43e3:	53                   	push   %ebx
    43e4:	51                   	push   %ecx
    43e5:	e8 56 09 00 00       	call   4d40 <console_get_size@plt>
    43ea:	8b 35 84 66 00 00    	mov    0x6684,%esi
    43f0:	5b                   	pop    %ebx
    43f1:	56                   	push   %esi
    43f2:	e8 c9 0a 00 00       	call   4ec0 <console_flush@plt>
    43f7:	83 c4 0c             	add    $0xc,%esp
    43fa:	8b 45 c4             	mov    -0x3c(%ebp),%eax
    43fd:	50                   	push   %eax
    43fe:	a1 84 66 00 00       	mov    0x6684,%eax
    4403:	57                   	push   %edi
    4404:	50                   	push   %eax
    4405:	e8 66 09 00 00       	call   4d70 <console_get_pos@plt>
    440a:	8b 45 e0             	mov    -0x20(%ebp),%eax
    440d:	8d 58 01             	lea    0x1(%eax),%ebx
    4410:	83 c4 10             	add    $0x10,%esp
    4413:	39 5d d8             	cmp    %ebx,-0x28(%ebp)
    4416:	76 16                	jbe    442e <show_warning+0x20e>
    4418:	83 ec 0c             	sub    $0xc,%esp
    441b:	43                   	inc    %ebx
    441c:	68 b4 4a 00 00       	push   $0x4ab4
    4421:	e8 6a 09 00 00       	call   4d90 <puts@plt>
    4426:	83 c4 10             	add    $0x10,%esp
    4429:	3b 5d d8             	cmp    -0x28(%ebp),%ebx
    442c:	72 ea                	jb     4418 <show_warning+0x1f8>
    442e:	8b 45 e4             	mov    -0x1c(%ebp),%eax
    4431:	40                   	inc    %eax
    4432:	3b 45 dc             	cmp    -0x24(%ebp),%eax
    4435:	73 10                	jae    4447 <show_warning+0x227>
    4437:	83 ec 0c             	sub    $0xc,%esp
    443a:	68 a1 45 00 00       	push   $0x45a1
    443f:	e8 4c 09 00 00       	call   4d90 <puts@plt>
    4444:	83 c4 10             	add    $0x10,%esp
    4447:	83 ec 0c             	sub    $0xc,%esp
    444a:	a1 84 66 00 00       	mov    0x6684,%eax
    444f:	50                   	push   %eax
    4450:	e8 6b 0a 00 00       	call   4ec0 <console_flush@plt>
    4455:	83 c4 10             	add    $0x10,%esp
    4458:	8d 65 f4             	lea    -0xc(%ebp),%esp
    445b:	5b                   	pop    %ebx
    445c:	5e                   	pop    %esi
    445d:	5f                   	pop    %edi
    445e:	5d                   	pop    %ebp
    445f:	c3                   	ret    

00004460 <tgetchar>:
    4460:	55                   	push   %ebp
    4461:	89 e5                	mov    %esp,%ebp
    4463:	53                   	push   %ebx
    4464:	83 ec 34             	sub    $0x34,%esp
    4467:	8b 0d a4 66 00 00    	mov    0x66a4,%ecx
    446d:	85 c9                	test   %ecx,%ecx
    446f:	7e 77                	jle    44e8 <tgetchar+0x88>
    4471:	8b 15 98 66 00 00    	mov    0x6698,%edx
    4477:	8d 5d d4             	lea    -0x2c(%ebp),%ebx
    447a:	8d b6 00 00 00 00    	lea    0x0(%esi),%esi
    4480:	29 ca                	sub    %ecx,%edx
    4482:	50                   	push   %eax
    4483:	a1 84 66 00 00       	mov    0x6684,%eax
    4488:	68 a4 66 00 00       	push   $0x66a4
    448d:	89 15 98 66 00 00    	mov    %edx,0x6698
    4493:	53                   	push   %ebx
    4494:	50                   	push   %eax
    4495:	e8 76 0a 00 00       	call   4f10 <console_get_event_timeout@plt>
    449a:	83 c4 10             	add    $0x10,%esp
    449d:	84 c0                	test   %al,%al
    449f:	74 2f                	je     44d0 <tgetchar+0x70>
    44a1:	8b 15 98 66 00 00    	mov    0x6698,%edx
    44a7:	8b 0d a4 66 00 00    	mov    0x66a4,%ecx
    44ad:	01 ca                	add    %ecx,%edx
    44af:	8b 45 dc             	mov    -0x24(%ebp),%eax
    44b2:	89 15 98 66 00 00    	mov    %edx,0x6698
    44b8:	85 c0                	test   %eax,%eax
    44ba:	75 c4                	jne    4480 <tgetchar+0x20>
    44bc:	8b 45 e8             	mov    -0x18(%ebp),%eax
    44bf:	85 c0                	test   %eax,%eax
    44c1:	75 bd                	jne    4480 <tgetchar+0x20>
    44c3:	8b 45 f4             	mov    -0xc(%ebp),%eax
    44c6:	85 c0                	test   %eax,%eax
    44c8:	74 b6                	je     4480 <tgetchar+0x20>
    44ca:	8b 5d fc             	mov    -0x4(%ebp),%ebx
    44cd:	c9                   	leave  
    44ce:	c3                   	ret    
    44cf:	90                   	nop
    44d0:	c7 05 a4 66 00 00 00 	movl   $0x0,0x66a4
    44d7:	00 00 00 
    44da:	83 c8 ff             	or     $0xffffffff,%eax
    44dd:	8b 5d fc             	mov    -0x4(%ebp),%ebx
    44e0:	c9                   	leave  
    44e1:	c3                   	ret    
    44e2:	8d b6 00 00 00 00    	lea    0x0(%esi),%esi
    44e8:	8b 45 08             	mov    0x8(%ebp),%eax
    44eb:	8b 55 08             	mov    0x8(%ebp),%edx
    44ee:	c1 e0 05             	shl    $0x5,%eax
    44f1:	8b 5d 08             	mov    0x8(%ebp),%ebx
    44f4:	29 d0                	sub    %edx,%eax
    44f6:	89 c2                	mov    %eax,%edx
    44f8:	c1 e2 06             	shl    $0x6,%edx
    44fb:	29 c2                	sub    %eax,%edx
    44fd:	8d 0c d3             	lea    (%ebx,%edx,8),%ecx
    4500:	c1 e1 06             	shl    $0x6,%ecx
    4503:	89 0d a4 66 00 00    	mov    %ecx,0x66a4
    4509:	e9 63 ff ff ff       	jmp    4471 <tgetchar+0x11>
    450e:	43                   	inc    %ebx
    450f:	61                   	popa   
    4510:	6e                   	outsb  %ds:(%esi),(%dx)
    4511:	6e                   	outsb  %ds:(%esi),(%dx)
    4512:	6f                   	outsl  %ds:(%esi),(%dx)
    4513:	74 20                	je     4535 <tgetchar+0xd5>
    4515:	67 65 74 20          	addr16 gs je 4539 <tgetchar+0xd9>
    4519:	73 79                	jae    4594 <tgetchar+0x134>
    451b:	73 74                	jae    4591 <tgetchar+0x131>
    451d:	65 6d                	gs insl (%dx),%es:(%edi)
    451f:	20 6c 6f 61          	and    %ch,0x61(%edi,%ebp,2)
    4523:	64 00 43 61          	add    %al,%fs:0x61(%ebx)
    4527:	6e                   	outsb  %ds:(%esi),(%dx)
    4528:	6e                   	outsb  %ds:(%esi),(%dx)
    4529:	6f                   	outsl  %ds:(%esi),(%dx)
    452a:	74 20                	je     454c <tgetchar+0xec>
    452c:	67 65 74 20          	addr16 gs je 4550 <tgetchar+0xf0>
    4530:	43                   	inc    %ebx
    4531:	50                   	push   %eax
    4532:	55                   	push   %ebp
    4533:	73 00                	jae    4535 <tgetchar+0xd5>
    4535:	43                   	inc    %ebx
    4536:	61                   	popa   
    4537:	6e                   	outsb  %ds:(%esi),(%dx)
    4538:	6e                   	outsb  %ds:(%esi),(%dx)
    4539:	6f                   	outsl  %ds:(%esi),(%dx)
    453a:	74 20                	je     455c <tgetchar+0xfc>
    453c:	67 65 74 20          	addr16 gs je 4560 <tgetchar+0x100>
    4540:	74 61                	je     45a3 <tgetchar+0x143>
    4542:	73 6b                	jae    45af <tgetchar+0x14f>
    4544:	73 00                	jae    4546 <tgetchar+0xe6>
    4546:	43                   	inc    %ebx
    4547:	61                   	popa   
    4548:	6e                   	outsb  %ds:(%esi),(%dx)
    4549:	6e                   	outsb  %ds:(%esi),(%dx)
    454a:	6f                   	outsl  %ds:(%esi),(%dx)
    454b:	74 20                	je     456d <tgetchar+0x10d>
    454d:	67 65 74 20          	addr16 gs je 4571 <tgetchar+0x111>
    4551:	74 68                	je     45bb <tgetchar+0x15b>
    4553:	72 65                	jb     45ba <tgetchar+0x15a>
    4555:	61                   	popa   
    4556:	64 73 00             	fs jae 4559 <tgetchar+0xf9>
    4559:	43                   	inc    %ebx
    455a:	61                   	popa   
    455b:	6e                   	outsb  %ds:(%esi),(%dx)
    455c:	6e                   	outsb  %ds:(%esi),(%dx)
    455d:	6f                   	outsl  %ds:(%esi),(%dx)
    455e:	74 20                	je     4580 <tgetchar+0x120>
    4560:	67 65 74 20          	addr16 gs je 4584 <tgetchar+0x124>
    4564:	65 78 63             	gs js  45ca <tgetchar+0x16a>
    4567:	65 70 74             	gs jo  45de <tgetchar+0x17e>
    456a:	69 6f 6e 73 00 43 61 	imul   $0x61430073,0x6e(%edi),%ebp
    4571:	6e                   	outsb  %ds:(%esi),(%dx)
    4572:	6e                   	outsb  %ds:(%esi),(%dx)
    4573:	6f                   	outsl  %ds:(%esi),(%dx)
    4574:	74 20                	je     4596 <tgetchar+0x136>
    4576:	67 65 74 20          	addr16 gs je 459a <tgetchar+0x13a>
    457a:	70 68                	jo     45e4 <tgetchar+0x184>
    457c:	79 73                	jns    45f1 <tgetchar+0x191>
    457e:	69 63 61 6c 20 6d 65 	imul   $0x656d206c,0x61(%ebx),%esp
    4585:	6d                   	insl   (%dx),%es:(%edi)
    4586:	6f                   	outsl  %ds:(%esi),(%dx)
    4587:	72 79                	jb     4602 <tgetchar+0x1a2>
    4589:	00 52 65             	add    %dl,0x65(%edx)
    458c:	61                   	popa   
    458d:	64 69 6e 67 20 69 6e 	imul   $0x696e6920,%fs:0x67(%esi),%ebp
    4594:	69 
    4595:	74 69                	je     4600 <tgetchar+0x1a0>
    4597:	61                   	popa   
    4598:	6c                   	insb   (%dx),%es:(%edi)
    4599:	20 64 61 74          	and    %ah,0x74(%ecx,%eiz,2)
    459d:	61                   	popa   
    459e:	2e 2e 2e 0a 00       	cs cs or %cs:(%eax),%al
    45a3:	53                   	push   %ebx
    45a4:	68 6f 77 69 6e       	push   $0x6e69776f
    45a9:	67 20 61 6c          	and    %ah,0x6c(%bx,%di)
    45ad:	6c                   	insb   (%dx),%es:(%edi)
    45ae:	20 65 78             	and    %ah,0x78(%ebp)
    45b1:	63 65 70             	arpl   %sp,0x70(%ebp)
    45b4:	74 69                	je     461f <tgetchar+0x1bf>
    45b6:	6f                   	outsl  %ds:(%esi),(%dx)
    45b7:	6e                   	outsb  %ds:(%esi),(%dx)
    45b8:	73 00                	jae    45ba <tgetchar+0x15a>
    45ba:	53                   	push   %ebx
    45bb:	68 6f 77 69 6e       	push   $0x6e69776f
    45c0:	67 20 6f 6e          	and    %ch,0x6e(%bx)
    45c4:	6c                   	insb   (%dx),%es:(%edi)
    45c5:	79 20                	jns    45e7 <tgetchar+0x187>
    45c7:	68 6f 74 20 65       	push   $0x6520746f
    45cc:	78 63                	js     4631 <tgetchar+0x1d1>
    45ce:	65 70 74             	gs jo  4645 <tgetchar+0x1e5>
    45d1:	69 6f 6e 73 00 54 61 	imul   $0x61540073,0x6e(%edi),%ebp
    45d8:	73 6b                	jae    4645 <tgetchar+0x1e5>
    45da:	73 00                	jae    45dc <tgetchar+0x17c>
    45dc:	49                   	dec    %ecx
    45dd:	50                   	push   %eax
    45de:	43                   	inc    %ebx
    45df:	00 45 78             	add    %al,0x78(%ebp)
    45e2:	63 65 70             	arpl   %sp,0x70(%ebp)
    45e5:	74 69                	je     4650 <tgetchar+0x1f0>
    45e7:	6f                   	outsl  %ds:(%esi),(%dx)
    45e8:	6e                   	outsb  %ds:(%esi),(%dx)
    45e9:	73 00                	jae    45eb <tgetchar+0x18b>
    45eb:	74 6f                	je     465c <tgetchar+0x1fc>
    45ed:	70 00                	jo     45ef <tgetchar+0x18f>
    45ef:	25 73 3a 20 25       	and    $0x25203a73,%eax
    45f4:	73 0a                	jae    4600 <tgetchar+0x1a0>
    45f6:	00 65 78             	add    %ah,0x78(%ebp)
    45f9:	63 00                	arpl   %ax,(%eax)
    45fb:	25 63 6f 75 6e       	and    $0x6e756f63,%eax
    4600:	74 00                	je     4602 <tgetchar+0x1a2>
    4602:	25 63 79 63 6c       	and    $0x6c637963,%eax
    4607:	65 73 00             	gs jae 460a <tgetchar+0x1aa>
    460a:	64 65 73 63          	fs gs jae 4671 <tgetchar+0x211>
    460e:	72 69                	jb     4679 <tgetchar+0x219>
    4610:	70 74                	jo     4686 <tgetchar+0x226>
    4612:	69 6f 6e 00 74 61 73 	imul   $0x73617400,0x6e(%edi),%ebp
    4619:	6b 69 64 00          	imul   $0x0,0x64(%ecx),%ebp
    461d:	63 6c 73 20          	arpl   %bp,0x20(%ebx,%esi,2)
    4621:	73 6e                	jae    4691 <tgetchar+0x231>
    4623:	74 00                	je     4625 <tgetchar+0x1c5>
    4625:	63 6c 73 20          	arpl   %bp,0x20(%ebx,%esi,2)
    4629:	72 63                	jb     468e <tgetchar+0x22e>
    462b:	76 00                	jbe    462d <tgetchar+0x1cd>
    462d:	61                   	popa   
    462e:	6e                   	outsb  %ds:(%esi),(%dx)
    462f:	73 20                	jae    4651 <tgetchar+0x1f1>
    4631:	73 6e                	jae    46a1 <tgetchar+0x241>
    4633:	74 00                	je     4635 <tgetchar+0x1d5>
    4635:	61                   	popa   
    4636:	6e                   	outsb  %ds:(%esi),(%dx)
    4637:	73 20                	jae    4659 <tgetchar+0x1f9>
    4639:	72 63                	jb     469e <tgetchar+0x23e>
    463b:	76 00                	jbe    463d <tgetchar+0x1dd>
    463d:	66 6f                	outsw  %ds:(%esi),(%dx)
    463f:	72 77                	jb     46b8 <tgetchar+0x258>
    4641:	61                   	popa   
    4642:	72 64                	jb     46a8 <tgetchar+0x248>
    4644:	00 6e 61             	add    %ch,0x61(%esi)
    4647:	6d                   	insl   (%dx),%es:(%edi)
    4648:	65 00 74 68 72       	add    %dh,%gs:0x72(%eax,%ebp,2)
    464d:	64 73 00             	fs jae 4650 <tgetchar+0x1f0>
    4650:	72 65                	jb     46b7 <tgetchar+0x257>
    4652:	73 69                	jae    46bd <tgetchar+0x25d>
    4654:	64 65 6e             	fs outsb %gs:(%esi),(%dx)
    4657:	74 00                	je     4659 <tgetchar+0x1f9>
    4659:	25 72 65 73 69       	and    $0x69736572,%eax
    465e:	00 76 69             	add    %dh,0x69(%esi)
    4661:	72 74                	jb     46d7 <tgetchar+0x277>
    4663:	75 61                	jne    46c6 <tgetchar+0x266>
    4665:	6c                   	insb   (%dx),%es:(%edi)
    4666:	00 25 76 69 72 74    	add    %ah,0x74726976
    466c:	00 25 75 73 65 72    	add    %ah,0x72657375
    4672:	00 25 6b 65 72 6e    	add    %ah,0x6e72656b
    4678:	00 66 90             	add    %ah,-0x70(%esi)
    467b:	90                   	nop
    467c:	4e                   	dec    %esi
    467d:	6f                   	outsl  %ds:(%esi),(%dx)
    467e:	74 20                	je     46a0 <tgetchar+0x240>
    4680:	65 6e                	outsb  %gs:(%esi),(%dx)
    4682:	6f                   	outsl  %ds:(%esi),(%dx)
    4683:	75 67                	jne    46ec <tgetchar+0x28c>
    4685:	68 20 6d 65 6d       	push   $0x6d656d20
    468a:	6f                   	outsl  %ds:(%esi),(%dx)
    468b:	72 79                	jb     4706 <tgetchar+0x2a6>
    468d:	20 66 6f             	and    %ah,0x6f(%esi)
    4690:	72 20                	jb     46b2 <tgetchar+0x252>
    4692:	43                   	inc    %ebx
    4693:	50                   	push   %eax
    4694:	55                   	push   %ebp
    4695:	20 75 74             	and    %dh,0x74(%ebp)
    4698:	69 6c 69 7a 61 74 69 	imul   $0x6f697461,0x7a(%ecx,%ebp,2),%ebp
    469f:	6f 
    46a0:	6e                   	outsb  %ds:(%esi),(%dx)
    46a1:	00 00                	add    %al,(%eax)
    46a3:	00 4e 6f             	add    %cl,0x6f(%esi)
    46a6:	74 20                	je     46c8 <tgetchar+0x268>
    46a8:	65 6e                	outsb  %gs:(%esi),(%dx)
    46aa:	6f                   	outsl  %ds:(%esi),(%dx)
    46ab:	75 67                	jne    4714 <tgetchar+0x2b4>
    46ad:	68 20 6d 65 6d       	push   $0x6d656d20
    46b2:	6f                   	outsl  %ds:(%esi),(%dx)
    46b3:	72 79                	jb     472e <tgetchar+0x2ce>
    46b5:	20 66 6f             	and    %ah,0x6f(%esi)
    46b8:	72 20                	jb     46da <tgetchar+0x27a>
    46ba:	74 61                	je     471d <tgetchar+0x2bd>
    46bc:	73 6b                	jae    4729 <tgetchar+0x2c9>
    46be:	20 75 74             	and    %dh,0x74(%ebp)
    46c1:	69 6c 69 7a 61 74 69 	imul   $0x6f697461,0x7a(%ecx,%ebp,2),%ebp
    46c8:	6f 
    46c9:	6e                   	outsb  %ds:(%esi),(%dx)
    46ca:	00 00                	add    %al,(%eax)
    46cc:	4e                   	dec    %esi
    46cd:	6f                   	outsl  %ds:(%esi),(%dx)
    46ce:	74 20                	je     46f0 <tgetchar+0x290>
    46d0:	65 6e                	outsb  %gs:(%esi),(%dx)
    46d2:	6f                   	outsl  %ds:(%esi),(%dx)
    46d3:	75 67                	jne    473c <tgetchar+0x2dc>
    46d5:	68 20 6d 65 6d       	push   $0x6d656d20
    46da:	6f                   	outsl  %ds:(%esi),(%dx)
    46db:	72 79                	jb     4756 <tgetchar+0x2f6>
    46dd:	20 66 6f             	and    %ah,0x6f(%esi)
    46e0:	72 20                	jb     4702 <tgetchar+0x2a2>
    46e2:	65 78 63             	gs js  4748 <tgetchar+0x2e8>
    46e5:	65 70 74             	gs jo  475c <tgetchar+0x2fc>
    46e8:	69 6f 6e 20 75 74 69 	imul   $0x69747520,0x6e(%edi),%ebp
    46ef:	6c                   	insb   (%dx),%es:(%edi)
    46f0:	69 7a 61 74 69 6f 6e 	imul   $0x6e6f6974,0x61(%edx),%edi
    46f7:	00 4e 6f             	add    %cl,0x6f(%esi)
    46fa:	74 20                	je     471c <tgetchar+0x2bc>
    46fc:	65 6e                	outsb  %gs:(%esi),(%dx)
    46fe:	6f                   	outsl  %ds:(%esi),(%dx)
    46ff:	75 67                	jne    4768 <tgetchar+0x308>
    4701:	68 20 6d 65 6d       	push   $0x6d656d20
    4706:	6f                   	outsl  %ds:(%esi),(%dx)
    4707:	72 79                	jb     4782 <tgetchar+0x322>
    4709:	20 66 6f             	and    %ah,0x6f(%esi)
    470c:	72 20                	jb     472e <tgetchar+0x2ce>
    470e:	75 73                	jne    4783 <tgetchar+0x323>
    4710:	65 72 20             	gs jb  4733 <tgetchar+0x2d3>
    4713:	75 74                	jne    4789 <tgetchar+0x329>
    4715:	69 6c 69 7a 61 74 69 	imul   $0x6f697461,0x7a(%ecx,%ebp,2),%ebp
    471c:	6f 
    471d:	6e                   	outsb  %ds:(%esi),(%dx)
    471e:	00 00                	add    %al,(%eax)
    4720:	4e                   	dec    %esi
    4721:	6f                   	outsl  %ds:(%esi),(%dx)
    4722:	74 20                	je     4744 <tgetchar+0x2e4>
    4724:	65 6e                	outsb  %gs:(%esi),(%dx)
    4726:	6f                   	outsl  %ds:(%esi),(%dx)
    4727:	75 67                	jne    4790 <tgetchar+0x330>
    4729:	68 20 6d 65 6d       	push   $0x6d656d20
    472e:	6f                   	outsl  %ds:(%esi),(%dx)
    472f:	72 79                	jb     47aa <tgetchar+0x34a>
    4731:	20 66 6f             	and    %ah,0x6f(%esi)
    4734:	72 20                	jb     4756 <tgetchar+0x2f6>
    4736:	6b 65 72 6e          	imul   $0x6e,0x72(%ebp),%esp
    473a:	65 6c                	gs insb (%dx),%es:(%edi)
    473c:	20 75 74             	and    %dh,0x74(%ebp)
    473f:	69 6c 69 7a 61 74 69 	imul   $0x6f697461,0x7a(%ecx,%ebp,2),%ebp
    4746:	6f 
    4747:	6e                   	outsb  %ds:(%esi),(%dx)
    4748:	00 00                	add    %al,(%eax)
    474a:	00 00                	add    %al,(%eax)
    474c:	4e                   	dec    %esi
    474d:	6f                   	outsl  %ds:(%esi),(%dx)
    474e:	74 20                	je     4770 <tgetchar+0x310>
    4750:	65 6e                	outsb  %gs:(%esi),(%dx)
    4752:	6f                   	outsl  %ds:(%esi),(%dx)
    4753:	75 67                	jne    47bc <tgetchar+0x35c>
    4755:	68 20 6d 65 6d       	push   $0x6d656d20
    475a:	6f                   	outsl  %ds:(%esi),(%dx)
    475b:	72 79                	jb     47d6 <tgetchar+0x376>
    475d:	20 66 6f             	and    %ah,0x6f(%esi)
    4760:	72 20                	jb     4782 <tgetchar+0x322>
    4762:	65 78 63             	gs js  47c8 <tgetchar+0x368>
    4765:	65 70 74             	gs jo  47dc <tgetchar+0x37c>
    4768:	69 6f 6e 20 63 79 63 	imul   $0x63796320,0x6e(%edi),%ebp
    476f:	6c                   	insb   (%dx),%es:(%edi)
    4770:	65 73 20             	gs jae 4793 <tgetchar+0x333>
    4773:	75 74                	jne    47e9 <tgetchar+0x389>
    4775:	69 6c 69 7a 61 74 69 	imul   $0x6f697461,0x7a(%ecx,%ebp,2),%ebp
    477c:	6f 
    477d:	6e                   	outsb  %ds:(%esi),(%dx)
    477e:	00 00                	add    %al,(%eax)
    4780:	4e                   	dec    %esi
    4781:	6f                   	outsl  %ds:(%esi),(%dx)
    4782:	74 20                	je     47a4 <tgetchar+0x344>
    4784:	65 6e                	outsb  %gs:(%esi),(%dx)
    4786:	6f                   	outsl  %ds:(%esi),(%dx)
    4787:	75 67                	jne    47f0 <tgetchar+0x390>
    4789:	68 20 6d 65 6d       	push   $0x6d656d20
    478e:	6f                   	outsl  %ds:(%esi),(%dx)
    478f:	72 79                	jb     480a <exception_columns+0xa>
    4791:	20 66 6f             	and    %ah,0x6f(%esi)
    4794:	72 20                	jb     47b6 <tgetchar+0x356>
    4796:	65 78 63             	gs js  47fc <tgetchar+0x39c>
    4799:	65 70 74             	gs jo  4810 <exception_columns+0x10>
    479c:	69 6f 6e 20 63 6f 75 	imul   $0x756f6320,0x6e(%edi),%ebp
    47a3:	6e                   	outsb  %ds:(%esi),(%dx)
    47a4:	74 20                	je     47c6 <tgetchar+0x366>
    47a6:	75 74                	jne    481c <exception_columns+0x1c>
    47a8:	69 6c 69 7a 61 74 69 	imul   $0x6f697461,0x7a(%ecx,%ebp,2),%ebp
    47af:	6f 
    47b0:	6e                   	outsb  %ds:(%esi),(%dx)
    47b1:	00 00                	add    %al,(%eax)
    47b3:	00 4e 6f             	add    %cl,0x6f(%esi)
    47b6:	74 20                	je     47d8 <tgetchar+0x378>
    47b8:	65 6e                	outsb  %gs:(%esi),(%dx)
    47ba:	6f                   	outsl  %ds:(%esi),(%dx)
    47bb:	75 67                	jne    4824 <exception_columns+0x24>
    47bd:	68 20 6d 65 6d       	push   $0x6d656d20
    47c2:	6f                   	outsl  %ds:(%esi),(%dx)
    47c3:	72 79                	jb     483e <exception_columns+0x3e>
    47c5:	20 66 6f             	and    %ah,0x6f(%esi)
    47c8:	72 20                	jb     47ea <tgetchar+0x38a>
    47ca:	74 61                	je     482d <exception_columns+0x2d>
    47cc:	62 6c 65 20          	bound  %ebp,0x20(%ebp,%eiz,2)
    47d0:	66 69 65 6c 64 73    	imul   $0x7364,0x6c(%ebp),%sp
    47d6:	00 00                	add    %al,(%eax)
    47d8:	55                   	push   %ebp
    47d9:	6e                   	outsb  %ds:(%esi),(%dx)
    47da:	6b 6e 6f 77          	imul   $0x77,0x6f(%esi),%ebp
    47de:	6e                   	outsb  %ds:(%esi),(%dx)
    47df:	20 63 6f             	and    %ah,0x6f(%ebx)
    47e2:	6d                   	insl   (%dx),%es:(%edi)
    47e3:	6d                   	insl   (%dx),%es:(%edi)
    47e4:	61                   	popa   
    47e5:	6e                   	outsb  %ds:(%esi),(%dx)
    47e6:	64 20 22             	and    %ah,%fs:(%edx)
    47e9:	25 63 22 2c 20       	and    $0x202c2263,%eax
    47ee:	75 73                	jne    4863 <ipc_columns+0x3>
    47f0:	65 20 22             	and    %ah,%gs:(%edx)
    47f3:	68 22 20 66 6f       	push   $0x6f662022
    47f8:	72 20                	jb     481a <exception_columns+0x1a>
    47fa:	68 65 6c 70 00       	push   $0x706c65
    47ff:	90                   	nop

00004800 <exception_columns>:
    4800:	f7 45 00 00 65 00 00 00 08 00 00 00 fc 45 00 00     .E..e........E..
    4810:	6e 00 00 00 0a 00 00 00 fb 45 00 00 4e 00 00 00     n........E..N...
    4820:	08 00 00 00 03 46 00 00 63 00 00 00 0a 00 00 00     .....F..c.......
    4830:	02 46 00 00 43 00 00 00 09 00 00 00 0a 46 00 00     .F..C........F..
    4840:	64 00 00 00 00 00 00 00 00 00 00 00 00 00 00 00     d...............
	...

00004860 <ipc_columns>:
    4860:	16 46 00 00 74 00 00 00 08 00 00 00 1d 46 00 00     .F..t........F..
    4870:	63 00 00 00 09 00 00 00 25 46 00 00 43 00 00 00     c.......%F..C...
    4880:	09 00 00 00 2d 46 00 00 61 00 00 00 09 00 00 00     ....-F..a.......
    4890:	35 46 00 00 41 00 00 00 09 00 00 00 3d 46 00 00     5F..A.......=F..
    48a0:	66 00 00 00 09 00 00 00 45 46 00 00 64 00 00 00     f.......EF..d...
	...

000048c0 <task_columns>:
    48c0:	16 46 00 00 74 00 00 00 08 00 00 00 4a 46 00 00     .F..t.......JF..
    48d0:	68 00 00 00 07 00 00 00 50 46 00 00 72 00 00 00     h.......PF..r...
    48e0:	0a 00 00 00 59 46 00 00 52 00 00 00 07 00 00 00     ....YF..R.......
    48f0:	5f 46 00 00 76 00 00 00 09 00 00 00 67 46 00 00     _F..v.......gF..
    4900:	56 00 00 00 07 00 00 00 6d 46 00 00 55 00 00 00     V.......mF..U...
    4910:	07 00 00 00 73 46 00 00 4b 00 00 00 07 00 00 00     ....sF..K.......
    4920:	45 46 00 00 64 00 00 00 00 00 00 00 74 6f 70 20     EF..d.......top 
    4930:	2d 20 25 30 32 6c 75 3a 25 30 32 6c 75 3a 25 30     - %02lu:%02lu:%0
    4940:	32 6c 75 20 75 70 20 25 75 20 64 61 79 73 2c 20     2lu up %u days, 
    4950:	25 30 32 75 3a 25 30 32 75 3a 25 30 32 75 2c 20     %02u:%02u:%02u, 
    4960:	6c 6f 61 64 20 61 76 65 72 61 67 65 3a 00 00 00     load average:...
    4970:	74 68 72 65 61 64 73 3a 20 25 7a 75 20 74 6f 74     threads: %zu tot
    4980:	61 6c 2c 20 25 7a 75 20 72 75 6e 6e 69 6e 67 2c     al, %zu running,
    4990:	20 25 7a 75 20 72 65 61 64 79 2c 20 25 7a 75 20      %zu ready, %zu 
    49a0:	73 6c 65 65 70 69 6e 67 2c 20 25 7a 75 20 6c 69     sleeping, %zu li
    49b0:	6e 67 65 72 69 6e 67 2c 20 25 7a 75 20 6f 74 68     ngering, %zu oth
    49c0:	65 72 2c 20 25 7a 75 20 69 6e 76 61 6c 69 64 00     er, %zu invalid.
    49d0:	6d 65 6d 6f 72 79 3a 20 25 6c 6c 75 25 73 20 74     memory: %llu%s t
    49e0:	6f 74 61 6c 2c 20 25 6c 6c 75 25 73 20 75 6e 61     otal, %llu%s una
    49f0:	76 61 69 6c 2c 20 25 6c 6c 75 25 73 20 75 73 65     vail, %llu%s use
    4a00:	64 2c 20 25 6c 6c 75 25 73 20 66 72 65 65 00 00     d, %llu%s free..
    4a10:	63 70 75 25 75 20 28 25 34 68 75 20 4d 48 7a 29     cpu%u (%4hu MHz)
    4a20:	3a 20 62 75 73 79 20 63 79 63 6c 65 73 3a 20 25     : busy cycles: %
    4a30:	6c 6c 75 25 63 2c 20 69 64 6c 65 20 63 79 63 6c     llu%c, idle cycl
    4a40:	65 73 3a 20 25 6c 6c 75 25 63 00 00 20 20 20 20     es: %llu%c..    
    4a50:	20 20 61 20 2e 2e 20 74 6f 67 67 6c 65 20 64 69       a .. toggle di
    4a60:	73 70 6c 61 79 20 6f 66 20 61 6c 6c 2f 68 6f 74     splay of all/hot
    4a70:	20 65 78 63 65 70 74 69 6f 6e 73 00 20 73 20 2e      exceptions. s .
    4a80:	2e 20 63 68 6f 6f 73 65 20 63 6f 6c 75 6d 6e 20     . choose column 
    4a90:	74 6f 20 73 6f 72 74 20 62 79 00 00 74 61 73 6b     to sort by..task
    4aa0:	73 3a 20 25 7a 75 20 74 6f 74 61 6c 00 2c 20 69     s: %zu total., i
    4ab0:	64 6c 65 3a 20 00 25 33 6c 6c 75 2e 00 25 6c 6c     dle: .%3llu..%ll
    4ac0:	75 00 25 25 00 2c 20 62 75 73 79 3a 20 00 63 70     u.%%., busy: .cp
    4ad0:	75 25 75 20 69 6e 61 63 74 69 76 65 00 25 2e 2a     u%u inactive.%.*
    4ae0:	73 00 5b 25 2d 2a 2e 2a 73 5d 00 25 2a 73 00 25     s.[%-*.*s].%*s.%
    4af0:	2a 6c 6c 75 00 25 2a 6c 6c 75 25 73 00 25 2a 6c     *llu.%*llu%s.%*l
    4b00:	6c 75 25 63 00 25 2d 2a 2e 2a 73 00 25 63 20 2d     lu%c.%-*.*s.%c -
    4b10:	20 25 73 00 48 65 6c 70 00 4f 70 65 72 61 74 69      %s.Help.Operati
    4b20:	6f 6e 20 6d 6f 64 65 73 3a 00 20 74 20 2e 2e 20     on modes:. t .. 
    4b30:	74 61 73 6b 73 20 73 74 61 74 69 73 74 69 63 73     tasks statistics
    4b40:	00 20 69 20 2e 2e 20 49 50 43 20 73 74 61 74 69     . i .. IPC stati
    4b50:	73 74 69 63 73 00 20 65 20 2e 2e 20 65 78 63 65     stics. e .. exce
    4b60:	70 74 69 6f 6e 73 20 73 74 61 74 69 73 74 69 63     ptions statistic
    4b70:	73 00 20 68 20 2e 2e 20 74 6f 67 67 6c 65 20 74     s. h .. toggle t
    4b80:	68 69 73 20 68 65 6c 70 20 73 63 72 65 65 6e 00     his help screen.
    4b90:	4f 74 68 65 72 20 6b 65 79 73 3a 00 20 72 20 2e     Other keys:. r .
    4ba0:	2e 20 74 6f 67 67 6c 65 20 72 65 76 65 72 73 65     . toggle reverse
    4bb0:	64 20 73 6f 72 74 69 6e 67 00 20 71 20 2e 2e 20     d sorting. q .. 
    4bc0:	71 75 69 74 00 66 90 90 38 38 00 00 30 38 00 00     quit.f..88..08..
    4bd0:	20 38 00 00 10 38 00 00 08 38 00 00 08 38 00 00      8...8...8...8..
    4be0:	78 29 00 00 25 3e 00 00 56 3e 00 00 e0 3d 00 00     x)..%>..V>...=..
    4bf0:	fc 3c 00 00 ba 3a 00 00 3e 3e 00 00                 .<...:..>>..

Disassembly of section .plt:

00004d30 <console_get_size@plt-0x10>:
    4d30:	ff 35 cc 65 00 00    	pushl  0x65cc
    4d36:	ff 25 d0 65 00 00    	jmp    *0x65d0
    4d3c:	00 00                	add    %al,(%eax)
	...

00004d40 <console_get_size@plt>:
    4d40:	ff 25 d4 65 00 00    	jmp    *0x65d4
    4d46:	68 00 00 00 00       	push   $0x0
    4d4b:	e9 e0 ff ff ff       	jmp    4d30 <task_columns+0x470>

00004d50 <__main@plt>:
    4d50:	ff 25 d8 65 00 00    	jmp    *0x65d8
    4d56:	68 08 00 00 00       	push   $0x8
    4d5b:	e9 d0 ff ff ff       	jmp    4d30 <task_columns+0x470>

00004d60 <printf@plt>:
    4d60:	ff 25 dc 65 00 00    	jmp    *0x65dc
    4d66:	68 10 00 00 00       	push   $0x10
    4d6b:	e9 c0 ff ff ff       	jmp    4d30 <task_columns+0x470>

00004d70 <console_get_pos@plt>:
    4d70:	ff 25 e0 65 00 00    	jmp    *0x65e0
    4d76:	68 18 00 00 00       	push   $0x18
    4d7b:	e9 b0 ff ff ff       	jmp    4d30 <task_columns+0x470>

00004d80 <gsort@plt>:
    4d80:	ff 25 e4 65 00 00    	jmp    *0x65e4
    4d86:	68 20 00 00 00       	push   $0x20
    4d8b:	e9 a0 ff ff ff       	jmp    4d30 <task_columns+0x470>

00004d90 <puts@plt>:
    4d90:	ff 25 e8 65 00 00    	jmp    *0x65e8
    4d96:	68 28 00 00 00       	push   $0x28
    4d9b:	e9 90 ff ff ff       	jmp    4d30 <task_columns+0x470>

00004da0 <malloc@plt>:
    4da0:	ff 25 ec 65 00 00    	jmp    *0x65ec
    4da6:	68 30 00 00 00       	push   $0x30
    4dab:	e9 80 ff ff ff       	jmp    4d30 <task_columns+0x470>

00004db0 <vsnprintf@plt>:
    4db0:	ff 25 f0 65 00 00    	jmp    *0x65f0
    4db6:	68 38 00 00 00       	push   $0x38
    4dbb:	e9 70 ff ff ff       	jmp    4d30 <task_columns+0x470>

00004dc0 <__umoddi3@plt>:
    4dc0:	ff 25 f4 65 00 00    	jmp    *0x65f4
    4dc6:	68 40 00 00 00       	push   $0x40
    4dcb:	e9 60 ff ff ff       	jmp    4d30 <task_columns+0x470>

00004dd0 <__udivdi3@plt>:
    4dd0:	ff 25 f8 65 00 00    	jmp    *0x65f8
    4dd6:	68 48 00 00 00       	push   $0x48
    4ddb:	e9 50 ff ff ff       	jmp    4d30 <task_columns+0x470>

00004de0 <console_cursor_visibility@plt>:
    4de0:	ff 25 fc 65 00 00    	jmp    *0x65fc
    4de6:	68 50 00 00 00       	push   $0x50
    4deb:	e9 40 ff ff ff       	jmp    4d30 <task_columns+0x470>

00004df0 <console_init@plt>:
    4df0:	ff 25 00 66 00 00    	jmp    *0x6600
    4df6:	68 58 00 00 00       	push   $0x58
    4dfb:	e9 30 ff ff ff       	jmp    4d30 <task_columns+0x470>

00004e00 <bin_order_suffix@plt>:
    4e00:	ff 25 04 66 00 00    	jmp    *0x6604
    4e06:	68 60 00 00 00       	push   $0x60
    4e0b:	e9 20 ff ff ff       	jmp    4d30 <task_columns+0x470>

00004e10 <calloc@plt>:
    4e10:	ff 25 08 66 00 00    	jmp    *0x6608
    4e16:	68 68 00 00 00       	push   $0x68
    4e1b:	e9 10 ff ff ff       	jmp    4d30 <task_columns+0x470>

00004e20 <fprintf@plt>:
    4e20:	ff 25 0c 66 00 00    	jmp    *0x660c
    4e26:	68 70 00 00 00       	push   $0x70
    4e2b:	e9 00 ff ff ff       	jmp    4d30 <task_columns+0x470>

00004e30 <stats_get_cpus@plt>:
    4e30:	ff 25 10 66 00 00    	jmp    *0x6610
    4e36:	68 78 00 00 00       	push   $0x78
    4e3b:	e9 f0 fe ff ff       	jmp    4d30 <task_columns+0x470>

00004e40 <console_clear@plt>:
    4e40:	ff 25 14 66 00 00    	jmp    *0x6614
    4e46:	68 80 00 00 00       	push   $0x80
    4e4b:	e9 e0 fe ff ff       	jmp    4d30 <task_columns+0x470>

00004e50 <stats_get_physmem@plt>:
    4e50:	ff 25 18 66 00 00    	jmp    *0x6618
    4e56:	68 88 00 00 00       	push   $0x88
    4e5b:	e9 d0 fe ff ff       	jmp    4d30 <task_columns+0x470>

00004e60 <order_suffix@plt>:
    4e60:	ff 25 1c 66 00 00    	jmp    *0x661c
    4e66:	68 90 00 00 00       	push   $0x90
    4e6b:	e9 c0 fe ff ff       	jmp    4d30 <task_columns+0x470>

00004e70 <str_cmp@plt>:
    4e70:	ff 25 20 66 00 00    	jmp    *0x6620
    4e76:	68 98 00 00 00       	push   $0x98
    4e7b:	e9 b0 fe ff ff       	jmp    4d30 <task_columns+0x470>

00004e80 <console_set_style@plt>:
    4e80:	ff 25 24 66 00 00    	jmp    *0x6624
    4e86:	68 a0 00 00 00       	push   $0xa0
    4e8b:	e9 a0 fe ff ff       	jmp    4d30 <task_columns+0x470>

00004e90 <gettimeofday@plt>:
    4e90:	ff 25 28 66 00 00    	jmp    *0x6628
    4e96:	68 a8 00 00 00       	push   $0xa8
    4e9b:	e9 90 fe ff ff       	jmp    4d30 <task_columns+0x470>

00004ea0 <getuptime@plt>:
    4ea0:	ff 25 2c 66 00 00    	jmp    *0x662c
    4ea6:	68 b0 00 00 00       	push   $0xb0
    4eab:	e9 80 fe ff ff       	jmp    4d30 <task_columns+0x470>

00004eb0 <stats_get_exceptions@plt>:
    4eb0:	ff 25 30 66 00 00    	jmp    *0x6630
    4eb6:	68 b8 00 00 00       	push   $0xb8
    4ebb:	e9 70 fe ff ff       	jmp    4d30 <task_columns+0x470>

00004ec0 <console_flush@plt>:
    4ec0:	ff 25 34 66 00 00    	jmp    *0x6634
    4ec6:	68 c0 00 00 00       	push   $0xc0
    4ecb:	e9 60 fe ff ff       	jmp    4d30 <task_columns+0x470>

00004ed0 <stats_get_tasks@plt>:
    4ed0:	ff 25 38 66 00 00    	jmp    *0x6638
    4ed6:	68 c8 00 00 00       	push   $0xc8
    4edb:	e9 50 fe ff ff       	jmp    4d30 <task_columns+0x470>

00004ee0 <console_set_pos@plt>:
    4ee0:	ff 25 3c 66 00 00    	jmp    *0x663c
    4ee6:	68 d0 00 00 00       	push   $0xd0
    4eeb:	e9 40 fe ff ff       	jmp    4d30 <task_columns+0x470>

00004ef0 <__syscall_fast@plt>:
    4ef0:	ff 25 40 66 00 00    	jmp    *0x6640
    4ef6:	68 d8 00 00 00       	push   $0xd8
    4efb:	e9 30 fe ff ff       	jmp    4d30 <task_columns+0x470>

00004f00 <stats_get_load@plt>:
    4f00:	ff 25 44 66 00 00    	jmp    *0x6644
    4f06:	68 e0 00 00 00       	push   $0xe0
    4f0b:	e9 20 fe ff ff       	jmp    4d30 <task_columns+0x470>

00004f10 <console_get_event_timeout@plt>:
    4f10:	ff 25 48 66 00 00    	jmp    *0x6648
    4f16:	68 e8 00 00 00       	push   $0xe8
    4f1b:	e9 10 fe ff ff       	jmp    4d30 <task_columns+0x470>

00004f20 <stats_get_threads@plt>:
    4f20:	ff 25 4c 66 00 00    	jmp    *0x664c
    4f26:	68 f0 00 00 00       	push   $0xf0
    4f2b:	e9 00 fe ff ff       	jmp    4d30 <task_columns+0x470>

00004f30 <free@plt>:
    4f30:	ff 25 50 66 00 00    	jmp    *0x6650
    4f36:	68 f8 00 00 00       	push   $0xf8
    4f3b:	e9 f0 fd ff ff       	jmp    4d30 <task_columns+0x470>

00004f40 <stats_print_load_fragment@plt>:
    4f40:	ff 25 54 66 00 00    	jmp    *0x6654
