
inetsrv:     file format elf32-i386


Disassembly of section .init:

000010f4 <__entry>:
    10f4:	66 8c d0             	mov    %ss,%ax
    10f7:	8e d8                	mov    %eax,%ds
    10f9:	8e c0                	mov    %eax,%es
    10fb:	8e e0                	mov    %eax,%fs
    10fd:	b8 01 00 00 00       	mov    $0x1,%eax
    1102:	0f a2                	cpuid  
    1104:	0f ba e2 0b          	bt     $0xb,%edx
    1108:	73 0c                	jae    1116 <__entry+0x22>
    110a:	8d 05 70 93 00 00    	lea    0x9370,%eax
    1110:	c7 00 70 74 00 00    	movl   $0x7470,(%eax)
    1116:	6a 00                	push   $0x0
    1118:	6a 00                	push   $0x0
    111a:	89 e5                	mov    %esp,%ebp
    111c:	57                   	push   %edi
    111d:	e8 3e 5f 00 00       	call   7060 <__main@plt>

Disassembly of section .text:

00001130 <inet_addrobj_new>:
    1130:	55                   	push   %ebp
    1131:	89 e5                	mov    %esp,%ebp
    1133:	53                   	push   %ebx
    1134:	83 ec 0c             	sub    $0xc,%esp
    1137:	6a 2c                	push   $0x2c
    1139:	6a 01                	push   $0x1
    113b:	e8 00 61 00 00       	call   7240 <calloc@plt>
    1140:	83 c4 10             	add    $0x10,%esp
    1143:	89 c3                	mov    %eax,%ebx
    1145:	85 c0                	test   %eax,%eax
    1147:	74 3f                	je     1188 <inet_addrobj_new+0x58>
    1149:	83 ec 0c             	sub    $0xc,%esp
    114c:	c7 00 00 00 00 00    	movl   $0x0,(%eax)
    1152:	c7 40 04 00 00 00 00 	movl   $0x0,0x4(%eax)
    1159:	68 28 91 00 00       	push   $0x9128
    115e:	e8 4d 63 00 00       	call   74b0 <fibril_mutex_lock@plt>
    1163:	a1 78 93 00 00       	mov    0x9378,%eax
    1168:	c7 04 24 28 91 00 00 	movl   $0x9128,(%esp)
    116f:	40                   	inc    %eax
    1170:	a3 78 93 00 00       	mov    %eax,0x9378
    1175:	89 43 08             	mov    %eax,0x8(%ebx)
    1178:	e8 23 61 00 00       	call   72a0 <fibril_mutex_unlock@plt>
    117d:	83 c4 10             	add    $0x10,%esp
    1180:	89 d8                	mov    %ebx,%eax
    1182:	8b 5d fc             	mov    -0x4(%ebp),%ebx
    1185:	c9                   	leave  
    1186:	c3                   	ret    
    1187:	90                   	nop
    1188:	50                   	push   %eax
    1189:	68 84 61 00 00       	push   $0x6184
    118e:	6a 01                	push   $0x1
    1190:	6a ff                	push   $0xffffffff
    1192:	e8 49 60 00 00       	call   71e0 <log_msg@plt>
    1197:	83 c4 10             	add    $0x10,%esp
    119a:	eb e4                	jmp    1180 <inet_addrobj_new+0x50>
    119c:	8d 74 26 00          	lea    0x0(%esi,%eiz,1),%esi

000011a0 <inet_addrobj_delete>:
    11a0:	55                   	push   %ebp
    11a1:	89 e5                	mov    %esp,%ebp
    11a3:	53                   	push   %ebx
    11a4:	50                   	push   %eax
    11a5:	8b 5d 08             	mov    0x8(%ebp),%ebx
    11a8:	8b 43 28             	mov    0x28(%ebx),%eax
    11ab:	85 c0                	test   %eax,%eax
    11ad:	74 0c                	je     11bb <inet_addrobj_delete+0x1b>
    11af:	83 ec 0c             	sub    $0xc,%esp
    11b2:	50                   	push   %eax
    11b3:	e8 e8 62 00 00       	call   74a0 <free@plt>
    11b8:	83 c4 10             	add    $0x10,%esp
    11bb:	89 5d 08             	mov    %ebx,0x8(%ebp)
    11be:	8b 5d fc             	mov    -0x4(%ebp),%ebx
    11c1:	c9                   	leave  
    11c2:	e9 d9 62 00 00       	jmp    74a0 <free@plt>
    11c7:	89 f6                	mov    %esi,%esi
    11c9:	8d bc 27 00 00 00 00 	lea    0x0(%edi,%eiz,1),%edi

000011d0 <inet_addrobj_add>:
    11d0:	55                   	push   %ebp
    11d1:	89 e5                	mov    %esp,%ebp
    11d3:	57                   	push   %edi
    11d4:	56                   	push   %esi
    11d5:	53                   	push   %ebx
    11d6:	83 ec 28             	sub    $0x28,%esp
    11d9:	8b 75 08             	mov    0x8(%ebp),%esi
    11dc:	68 28 91 00 00       	push   $0x9128
    11e1:	e8 ca 62 00 00       	call   74b0 <fibril_mutex_lock@plt>
    11e6:	8b 46 28             	mov    0x28(%esi),%eax
    11e9:	8b 7e 24             	mov    0x24(%esi),%edi
    11ec:	89 45 e4             	mov    %eax,-0x1c(%ebp)
    11ef:	c7 04 24 28 91 00 00 	movl   $0x9128,(%esp)
    11f6:	e8 05 5f 00 00       	call   7100 <fibril_mutex_is_locked@plt>
    11fb:	83 c4 10             	add    $0x10,%esp
    11fe:	84 c0                	test   %al,%al
    1200:	0f 84 ce 00 00 00    	je     12d4 <inet_addrobj_add+0x104>
    1206:	83 ec 0c             	sub    $0xc,%esp
    1209:	8b 47 0c             	mov    0xc(%edi),%eax
    120c:	50                   	push   %eax
    120d:	8b 45 e4             	mov    -0x1c(%ebp),%eax
    1210:	50                   	push   %eax
    1211:	68 e0 61 00 00       	push   $0x61e0
    1216:	6a 04                	push   $0x4
    1218:	6a ff                	push   $0xffffffff
    121a:	e8 c1 5f 00 00       	call   71e0 <log_msg@plt>
    121f:	8b 1d 24 91 00 00    	mov    0x9124,%ebx
    1225:	83 c4 20             	add    $0x20,%esp
    1228:	81 fb 20 91 00 00    	cmp    $0x9120,%ebx
    122e:	75 13                	jne    1243 <inet_addrobj_add+0x73>
    1230:	eb 5e                	jmp    1290 <inet_addrobj_add+0xc0>
    1232:	8d b6 00 00 00 00    	lea    0x0(%esi),%esi
    1238:	8b 5b 04             	mov    0x4(%ebx),%ebx
    123b:	81 fb 20 91 00 00    	cmp    $0x9120,%ebx
    1241:	74 4d                	je     1290 <inet_addrobj_add+0xc0>
    1243:	3b 7b 24             	cmp    0x24(%ebx),%edi
    1246:	75 f0                	jne    1238 <inet_addrobj_add+0x68>
    1248:	8b 55 e4             	mov    -0x1c(%ebp),%edx
    124b:	50                   	push   %eax
    124c:	50                   	push   %eax
    124d:	52                   	push   %edx
    124e:	8b 4b 28             	mov    0x28(%ebx),%ecx
    1251:	51                   	push   %ecx
    1252:	e8 79 60 00 00       	call   72d0 <str_cmp@plt>
    1257:	83 c4 10             	add    $0x10,%esp
    125a:	85 c0                	test   %eax,%eax
    125c:	75 da                	jne    1238 <inet_addrobj_add+0x68>
    125e:	53                   	push   %ebx
    125f:	68 3c 62 00 00       	push   $0x623c
    1264:	6a 04                	push   $0x4
    1266:	6a ff                	push   $0xffffffff
    1268:	e8 73 5f 00 00       	call   71e0 <log_msg@plt>
    126d:	c7 04 24 28 91 00 00 	movl   $0x9128,(%esp)
    1274:	e8 27 60 00 00       	call   72a0 <fibril_mutex_unlock@plt>
    1279:	83 c4 10             	add    $0x10,%esp
    127c:	8d 65 f4             	lea    -0xc(%ebp),%esp
    127f:	b8 f7 ff ff ff       	mov    $0xfffffff7,%eax
    1284:	5b                   	pop    %ebx
    1285:	5e                   	pop    %esi
    1286:	5f                   	pop    %edi
    1287:	5d                   	pop    %ebp
    1288:	c3                   	ret    
    1289:	8d b4 26 00 00 00 00 	lea    0x0(%esi,%eiz,1),%esi
    1290:	53                   	push   %ebx
    1291:	68 10 62 00 00       	push   $0x6210
    1296:	6a 04                	push   $0x4
    1298:	6a ff                	push   $0xffffffff
    129a:	e8 41 5f 00 00       	call   71e0 <log_msg@plt>
    129f:	a1 20 91 00 00       	mov    0x9120,%eax
    12a4:	89 06                	mov    %eax,(%esi)
    12a6:	c7 46 04 20 91 00 00 	movl   $0x9120,0x4(%esi)
    12ad:	a1 20 91 00 00       	mov    0x9120,%eax
    12b2:	89 35 20 91 00 00    	mov    %esi,0x9120
    12b8:	89 70 04             	mov    %esi,0x4(%eax)
    12bb:	c7 04 24 28 91 00 00 	movl   $0x9128,(%esp)
    12c2:	e8 d9 5f 00 00       	call   72a0 <fibril_mutex_unlock@plt>
    12c7:	83 c4 10             	add    $0x10,%esp
    12ca:	8d 65 f4             	lea    -0xc(%ebp),%esp
    12cd:	31 c0                	xor    %eax,%eax
    12cf:	5b                   	pop    %ebx
    12d0:	5e                   	pop    %esi
    12d1:	5f                   	pop    %edi
    12d2:	5d                   	pop    %ebp
    12d3:	c3                   	ret    
    12d4:	50                   	push   %eax
    12d5:	68 97 00 00 00       	push   $0x97
    12da:	68 8e 62 00 00       	push   $0x628e
    12df:	68 b8 61 00 00       	push   $0x61b8
    12e4:	e8 47 5f 00 00       	call   7230 <assert_abort@plt>
    12e9:	8d b4 26 00 00 00 00 	lea    0x0(%esi,%eiz,1),%esi

000012f0 <inet_addrobj_remove>:
    12f0:	55                   	push   %ebp
    12f1:	89 e5                	mov    %esp,%ebp
    12f3:	53                   	push   %ebx
    12f4:	83 ec 10             	sub    $0x10,%esp
    12f7:	8b 5d 08             	mov    0x8(%ebp),%ebx
    12fa:	68 28 91 00 00       	push   $0x9128
    12ff:	e8 ac 61 00 00       	call   74b0 <fibril_mutex_lock@plt>
    1304:	8b 13                	mov    (%ebx),%edx
    1306:	83 c4 10             	add    $0x10,%esp
    1309:	85 d2                	test   %edx,%edx
    130b:	74 0e                	je     131b <inet_addrobj_remove+0x2b>
    130d:	8b 43 04             	mov    0x4(%ebx),%eax
    1310:	85 c0                	test   %eax,%eax
    1312:	74 07                	je     131b <inet_addrobj_remove+0x2b>
    1314:	89 10                	mov    %edx,(%eax)
    1316:	8b 13                	mov    (%ebx),%edx
    1318:	89 42 04             	mov    %eax,0x4(%edx)
    131b:	c7 03 00 00 00 00    	movl   $0x0,(%ebx)
    1321:	c7 43 04 00 00 00 00 	movl   $0x0,0x4(%ebx)
    1328:	8b 5d fc             	mov    -0x4(%ebp),%ebx
    132b:	c7 45 08 28 91 00 00 	movl   $0x9128,0x8(%ebp)
    1332:	c9                   	leave  
    1333:	e9 68 5f 00 00       	jmp    72a0 <fibril_mutex_unlock@plt>
    1338:	90                   	nop
    1339:	8d b4 26 00 00 00 00 	lea    0x0(%esi,%eiz,1),%esi

00001340 <inet_addrobj_find>:
    1340:	55                   	push   %ebp
    1341:	89 e5                	mov    %esp,%ebp
    1343:	57                   	push   %edi
    1344:	56                   	push   %esi
    1345:	53                   	push   %ebx
    1346:	83 ec 18             	sub    $0x18,%esp
    1349:	8b 7d 08             	mov    0x8(%ebp),%edi
    134c:	8b 75 0c             	mov    0xc(%ebp),%esi
    134f:	68 28 91 00 00       	push   $0x9128
    1354:	e8 57 61 00 00       	call   74b0 <fibril_mutex_lock@plt>
    1359:	8b 1d 24 91 00 00    	mov    0x9124,%ebx
    135f:	83 c4 10             	add    $0x10,%esp
    1362:	81 fb 20 91 00 00    	cmp    $0x9120,%ebx
    1368:	75 29                	jne    1393 <inet_addrobj_find+0x53>
    136a:	eb 6c                	jmp    13d8 <inet_addrobj_find+0x98>
    136c:	8d 74 26 00          	lea    0x0(%esi,%eiz,1),%esi
    1370:	83 fe 01             	cmp    $0x1,%esi
    1373:	75 13                	jne    1388 <inet_addrobj_find+0x48>
    1375:	50                   	push   %eax
    1376:	50                   	push   %eax
    1377:	8d 43 0c             	lea    0xc(%ebx),%eax
    137a:	57                   	push   %edi
    137b:	50                   	push   %eax
    137c:	e8 2f 60 00 00       	call   73b0 <inet_naddr_compare@plt>
    1381:	83 c4 10             	add    $0x10,%esp
    1384:	85 c0                	test   %eax,%eax
    1386:	75 22                	jne    13aa <inet_addrobj_find+0x6a>
    1388:	8b 5b 04             	mov    0x4(%ebx),%ebx
    138b:	81 fb 20 91 00 00    	cmp    $0x9120,%ebx
    1391:	74 45                	je     13d8 <inet_addrobj_find+0x98>
    1393:	85 f6                	test   %esi,%esi
    1395:	75 d9                	jne    1370 <inet_addrobj_find+0x30>
    1397:	8d 43 0c             	lea    0xc(%ebx),%eax
    139a:	52                   	push   %edx
    139b:	52                   	push   %edx
    139c:	57                   	push   %edi
    139d:	50                   	push   %eax
    139e:	e8 9d 5d 00 00       	call   7140 <inet_naddr_compare_mask@plt>
    13a3:	83 c4 10             	add    $0x10,%esp
    13a6:	85 c0                	test   %eax,%eax
    13a8:	74 de                	je     1388 <inet_addrobj_find+0x48>
    13aa:	83 ec 0c             	sub    $0xc,%esp
    13ad:	68 28 91 00 00       	push   $0x9128
    13b2:	e8 e9 5e 00 00       	call   72a0 <fibril_mutex_unlock@plt>
    13b7:	53                   	push   %ebx
    13b8:	68 b5 62 00 00       	push   $0x62b5
    13bd:	6a 04                	push   $0x4
    13bf:	6a ff                	push   $0xffffffff
    13c1:	e8 1a 5e 00 00       	call   71e0 <log_msg@plt>
    13c6:	83 c4 20             	add    $0x20,%esp
    13c9:	8d 65 f4             	lea    -0xc(%ebp),%esp
    13cc:	89 d8                	mov    %ebx,%eax
    13ce:	5b                   	pop    %ebx
    13cf:	5e                   	pop    %esi
    13d0:	5f                   	pop    %edi
    13d1:	5d                   	pop    %ebp
    13d2:	c3                   	ret    
    13d3:	90                   	nop
    13d4:	8d 74 26 00          	lea    0x0(%esi,%eiz,1),%esi
    13d8:	51                   	push   %ecx
    13d9:	68 98 62 00 00       	push   $0x6298
    13de:	6a 04                	push   $0x4
    13e0:	6a ff                	push   $0xffffffff
    13e2:	e8 f9 5d 00 00       	call   71e0 <log_msg@plt>
    13e7:	c7 04 24 28 91 00 00 	movl   $0x9128,(%esp)
    13ee:	e8 ad 5e 00 00       	call   72a0 <fibril_mutex_unlock@plt>
    13f3:	83 c4 10             	add    $0x10,%esp
    13f6:	8d 65 f4             	lea    -0xc(%ebp),%esp
    13f9:	31 c0                	xor    %eax,%eax
    13fb:	5b                   	pop    %ebx
    13fc:	5e                   	pop    %esi
    13fd:	5f                   	pop    %edi
    13fe:	5d                   	pop    %ebp
    13ff:	c3                   	ret    

00001400 <inet_addrobj_find_by_name>:
    1400:	55                   	push   %ebp
    1401:	89 e5                	mov    %esp,%ebp
    1403:	57                   	push   %edi
    1404:	56                   	push   %esi
    1405:	53                   	push   %ebx
    1406:	83 ec 18             	sub    $0x18,%esp
    1409:	8b 75 0c             	mov    0xc(%ebp),%esi
    140c:	8b 7d 08             	mov    0x8(%ebp),%edi
    140f:	8b 46 0c             	mov    0xc(%esi),%eax
    1412:	50                   	push   %eax
    1413:	57                   	push   %edi
    1414:	68 68 62 00 00       	push   $0x6268
    1419:	6a 04                	push   $0x4
    141b:	6a ff                	push   $0xffffffff
    141d:	e8 be 5d 00 00       	call   71e0 <log_msg@plt>
    1422:	83 c4 14             	add    $0x14,%esp
    1425:	68 28 91 00 00       	push   $0x9128
    142a:	e8 81 60 00 00       	call   74b0 <fibril_mutex_lock@plt>
    142f:	c7 04 24 28 91 00 00 	movl   $0x9128,(%esp)
    1436:	e8 c5 5c 00 00       	call   7100 <fibril_mutex_is_locked@plt>
    143b:	83 c4 10             	add    $0x10,%esp
    143e:	84 c0                	test   %al,%al
    1440:	0f 84 90 00 00 00    	je     14d6 <inet_addrobj_find_by_name+0xd6>
    1446:	83 ec 0c             	sub    $0xc,%esp
    1449:	8b 5e 0c             	mov    0xc(%esi),%ebx
    144c:	53                   	push   %ebx
    144d:	57                   	push   %edi
    144e:	68 e0 61 00 00       	push   $0x61e0
    1453:	6a 04                	push   $0x4
    1455:	6a ff                	push   $0xffffffff
    1457:	e8 84 5d 00 00       	call   71e0 <log_msg@plt>
    145c:	8b 1d 24 91 00 00    	mov    0x9124,%ebx
    1462:	83 c4 20             	add    $0x20,%esp
    1465:	81 fb 20 91 00 00    	cmp    $0x9120,%ebx
    146b:	75 0e                	jne    147b <inet_addrobj_find_by_name+0x7b>
    146d:	eb 51                	jmp    14c0 <inet_addrobj_find_by_name+0xc0>
    146f:	90                   	nop
    1470:	8b 5b 04             	mov    0x4(%ebx),%ebx
    1473:	81 fb 20 91 00 00    	cmp    $0x9120,%ebx
    1479:	74 45                	je     14c0 <inet_addrobj_find_by_name+0xc0>
    147b:	3b 73 24             	cmp    0x24(%ebx),%esi
    147e:	75 f0                	jne    1470 <inet_addrobj_find_by_name+0x70>
    1480:	50                   	push   %eax
    1481:	50                   	push   %eax
    1482:	57                   	push   %edi
    1483:	8b 53 28             	mov    0x28(%ebx),%edx
    1486:	52                   	push   %edx
    1487:	e8 44 5e 00 00       	call   72d0 <str_cmp@plt>
    148c:	83 c4 10             	add    $0x10,%esp
    148f:	85 c0                	test   %eax,%eax
    1491:	75 dd                	jne    1470 <inet_addrobj_find_by_name+0x70>
    1493:	53                   	push   %ebx
    1494:	68 3c 62 00 00       	push   $0x623c
    1499:	6a 04                	push   $0x4
    149b:	6a ff                	push   $0xffffffff
    149d:	e8 3e 5d 00 00       	call   71e0 <log_msg@plt>
    14a2:	83 c4 10             	add    $0x10,%esp
    14a5:	83 ec 0c             	sub    $0xc,%esp
    14a8:	68 28 91 00 00       	push   $0x9128
    14ad:	e8 ee 5d 00 00       	call   72a0 <fibril_mutex_unlock@plt>
    14b2:	8d 65 f4             	lea    -0xc(%ebp),%esp
    14b5:	89 d8                	mov    %ebx,%eax
    14b7:	5b                   	pop    %ebx
    14b8:	5e                   	pop    %esi
    14b9:	5f                   	pop    %edi
    14ba:	5d                   	pop    %ebp
    14bb:	c3                   	ret    
    14bc:	8d 74 26 00          	lea    0x0(%esi,%eiz,1),%esi
    14c0:	51                   	push   %ecx
    14c1:	68 10 62 00 00       	push   $0x6210
    14c6:	6a 04                	push   $0x4
    14c8:	6a ff                	push   $0xffffffff
    14ca:	31 db                	xor    %ebx,%ebx
    14cc:	e8 0f 5d 00 00       	call   71e0 <log_msg@plt>
    14d1:	83 c4 10             	add    $0x10,%esp
    14d4:	eb cf                	jmp    14a5 <inet_addrobj_find_by_name+0xa5>
    14d6:	56                   	push   %esi
    14d7:	68 97 00 00 00       	push   $0x97
    14dc:	68 8e 62 00 00       	push   $0x628e
    14e1:	68 b8 61 00 00       	push   $0x61b8
    14e6:	e8 45 5d 00 00       	call   7230 <assert_abort@plt>
    14eb:	90                   	nop
    14ec:	8d 74 26 00          	lea    0x0(%esi,%eiz,1),%esi

000014f0 <inet_addrobj_get_by_id>:
    14f0:	55                   	push   %ebp
    14f1:	89 e5                	mov    %esp,%ebp
    14f3:	56                   	push   %esi
    14f4:	53                   	push   %ebx
    14f5:	8b 75 08             	mov    0x8(%ebp),%esi
    14f8:	56                   	push   %esi
    14f9:	68 d1 62 00 00       	push   $0x62d1
    14fe:	6a 04                	push   $0x4
    1500:	6a ff                	push   $0xffffffff
    1502:	e8 d9 5c 00 00       	call   71e0 <log_msg@plt>
    1507:	c7 04 24 28 91 00 00 	movl   $0x9128,(%esp)
    150e:	e8 9d 5f 00 00       	call   74b0 <fibril_mutex_lock@plt>
    1513:	8b 1d 24 91 00 00    	mov    0x9124,%ebx
    1519:	83 c4 10             	add    $0x10,%esp
    151c:	81 fb 20 91 00 00    	cmp    $0x9120,%ebx
    1522:	75 0f                	jne    1533 <inet_addrobj_get_by_id+0x43>
    1524:	eb 32                	jmp    1558 <inet_addrobj_get_by_id+0x68>
    1526:	66 90                	xchg   %ax,%ax
    1528:	8b 5b 04             	mov    0x4(%ebx),%ebx
    152b:	81 fb 20 91 00 00    	cmp    $0x9120,%ebx
    1531:	74 25                	je     1558 <inet_addrobj_get_by_id+0x68>
    1533:	3b 73 08             	cmp    0x8(%ebx),%esi
    1536:	75 f0                	jne    1528 <inet_addrobj_get_by_id+0x38>
    1538:	83 ec 0c             	sub    $0xc,%esp
    153b:	68 28 91 00 00       	push   $0x9128
    1540:	e8 5b 5d 00 00       	call   72a0 <fibril_mutex_unlock@plt>
    1545:	83 c4 10             	add    $0x10,%esp
    1548:	8d 65 f8             	lea    -0x8(%ebp),%esp
    154b:	89 d8                	mov    %ebx,%eax
    154d:	5b                   	pop    %ebx
    154e:	5e                   	pop    %esi
    154f:	5d                   	pop    %ebp
    1550:	c3                   	ret    
    1551:	8d b4 26 00 00 00 00 	lea    0x0(%esi,%eiz,1),%esi
    1558:	83 ec 0c             	sub    $0xc,%esp
    155b:	68 28 91 00 00       	push   $0x9128
    1560:	e8 3b 5d 00 00       	call   72a0 <fibril_mutex_unlock@plt>
    1565:	83 c4 10             	add    $0x10,%esp
    1568:	8d 65 f8             	lea    -0x8(%ebp),%esp
    156b:	31 c0                	xor    %eax,%eax
    156d:	5b                   	pop    %ebx
    156e:	5e                   	pop    %esi
    156f:	5d                   	pop    %ebp
    1570:	c3                   	ret    
    1571:	eb 0d                	jmp    1580 <inet_addrobj_send_dgram>
    1573:	90                   	nop
    1574:	90                   	nop
    1575:	90                   	nop
    1576:	90                   	nop
    1577:	90                   	nop
    1578:	90                   	nop
    1579:	90                   	nop
    157a:	90                   	nop
    157b:	90                   	nop
    157c:	90                   	nop
    157d:	90                   	nop
    157e:	90                   	nop
    157f:	90                   	nop

00001580 <inet_addrobj_send_dgram>:
    1580:	55                   	push   %ebp
    1581:	89 e5                	mov    %esp,%ebp
    1583:	57                   	push   %edi
    1584:	56                   	push   %esi
    1585:	53                   	push   %ebx
    1586:	83 ec 74             	sub    $0x74,%esp
    1589:	8d 5d d4             	lea    -0x2c(%ebp),%ebx
    158c:	8b 45 14             	mov    0x14(%ebp),%eax
    158f:	8d 75 b4             	lea    -0x4c(%ebp),%esi
    1592:	89 45 94             	mov    %eax,-0x6c(%ebp)
    1595:	8b 45 18             	mov    0x18(%ebp),%eax
    1598:	89 45 90             	mov    %eax,-0x70(%ebp)
    159b:	8b 45 08             	mov    0x8(%ebp),%eax
    159e:	83 c0 0c             	add    $0xc,%eax
    15a1:	53                   	push   %ebx
    15a2:	50                   	push   %eax
    15a3:	e8 b8 5b 00 00       	call   7160 <inet_naddr_addr@plt>
    15a8:	83 c4 0c             	add    $0xc,%esp
    15ab:	8d 45 a4             	lea    -0x5c(%ebp),%eax
    15ae:	8d 7d c4             	lea    -0x3c(%ebp),%edi
    15b1:	56                   	push   %esi
    15b2:	50                   	push   %eax
    15b3:	53                   	push   %ebx
    15b4:	e8 37 5d 00 00       	call   72f0 <inet_addr_get@plt>
    15b9:	83 c4 0c             	add    $0xc,%esp
    15bc:	89 c3                	mov    %eax,%ebx
    15be:	8b 4d 0c             	mov    0xc(%ebp),%ecx
    15c1:	8d 45 a8             	lea    -0x58(%ebp),%eax
    15c4:	57                   	push   %edi
    15c5:	50                   	push   %eax
    15c6:	51                   	push   %ecx
    15c7:	e8 24 5d 00 00       	call   72f0 <inet_addr_get@plt>
    15cc:	83 c4 10             	add    $0x10,%esp
    15cf:	39 c3                	cmp    %eax,%ebx
    15d1:	0f 85 89 00 00 00    	jne    1660 <inet_addrobj_send_dgram+0xe0>
    15d7:	83 fb 01             	cmp    $0x1,%ebx
    15da:	74 44                	je     1620 <inet_addrobj_send_dgram+0xa0>
    15dc:	83 fb 02             	cmp    $0x2,%ebx
    15df:	75 27                	jne    1608 <inet_addrobj_send_dgram+0x88>
    15e1:	8b 45 08             	mov    0x8(%ebp),%eax
    15e4:	8d 5d ae             	lea    -0x52(%ebp),%ebx
    15e7:	8b 40 24             	mov    0x24(%eax),%eax
    15ea:	50                   	push   %eax
    15eb:	53                   	push   %ebx
    15ec:	57                   	push   %edi
    15ed:	56                   	push   %esi
    15ee:	e8 4d 33 00 00       	call   4940 <ndp_translate>
    15f3:	83 c4 10             	add    $0x10,%esp
    15f6:	85 c0                	test   %eax,%eax
    15f8:	74 6e                	je     1668 <inet_addrobj_send_dgram+0xe8>
    15fa:	8d 65 f4             	lea    -0xc(%ebp),%esp
    15fd:	5b                   	pop    %ebx
    15fe:	5e                   	pop    %esi
    15ff:	5f                   	pop    %edi
    1600:	5d                   	pop    %ebp
    1601:	c3                   	ret    
    1602:	8d b6 00 00 00 00    	lea    0x0(%esi),%esi
    1608:	50                   	push   %eax
    1609:	68 f9 00 00 00       	push   $0xf9
    160e:	68 8e 62 00 00       	push   $0x628e
    1613:	68 ed 62 00 00       	push   $0x62ed
    1618:	e8 13 5c 00 00       	call   7230 <assert_abort@plt>
    161d:	8d 76 00             	lea    0x0(%esi),%esi
    1620:	0f b6 7d 90          	movzbl -0x70(%ebp),%edi
    1624:	0f b6 75 94          	movzbl -0x6c(%ebp),%esi
    1628:	50                   	push   %eax
    1629:	8b 45 1c             	mov    0x1c(%ebp),%eax
    162c:	50                   	push   %eax
    162d:	81 e7 ff 00 00 00    	and    $0xff,%edi
    1633:	8b 45 10             	mov    0x10(%ebp),%eax
    1636:	81 e6 ff 00 00 00    	and    $0xff,%esi
    163c:	57                   	push   %edi
    163d:	56                   	push   %esi
    163e:	50                   	push   %eax
    163f:	8b 45 a8             	mov    -0x58(%ebp),%eax
    1642:	50                   	push   %eax
    1643:	8b 45 a4             	mov    -0x5c(%ebp),%eax
    1646:	50                   	push   %eax
    1647:	8b 45 08             	mov    0x8(%ebp),%eax
    164a:	8b 50 24             	mov    0x24(%eax),%edx
    164d:	52                   	push   %edx
    164e:	e8 8d 1a 00 00       	call   30e0 <inet_link_send_dgram>
    1653:	83 c4 20             	add    $0x20,%esp
    1656:	8d 65 f4             	lea    -0xc(%ebp),%esp
    1659:	5b                   	pop    %ebx
    165a:	5e                   	pop    %esi
    165b:	5f                   	pop    %edi
    165c:	5d                   	pop    %ebp
    165d:	c3                   	ret    
    165e:	66 90                	xchg   %ax,%ax
    1660:	b8 f2 ff ff ff       	mov    $0xfffffff2,%eax
    1665:	eb 93                	jmp    15fa <inet_addrobj_send_dgram+0x7a>
    1667:	90                   	nop
    1668:	0f b6 7d 90          	movzbl -0x70(%ebp),%edi
    166c:	0f b6 75 94          	movzbl -0x6c(%ebp),%esi
    1670:	8b 45 08             	mov    0x8(%ebp),%eax
    1673:	52                   	push   %edx
    1674:	8b 4d 1c             	mov    0x1c(%ebp),%ecx
    1677:	52                   	push   %edx
    1678:	81 e7 ff 00 00 00    	and    $0xff,%edi
    167e:	81 e6 ff 00 00 00    	and    $0xff,%esi
    1684:	51                   	push   %ecx
    1685:	57                   	push   %edi
    1686:	8b 78 24             	mov    0x24(%eax),%edi
    1689:	56                   	push   %esi
    168a:	8b 75 10             	mov    0x10(%ebp),%esi
    168d:	56                   	push   %esi
    168e:	53                   	push   %ebx
    168f:	57                   	push   %edi
    1690:	e8 ab 1b 00 00       	call   3240 <inet_link_send_dgram6>
    1695:	83 c4 20             	add    $0x20,%esp
    1698:	e9 5d ff ff ff       	jmp    15fa <inet_addrobj_send_dgram+0x7a>
    169d:	8d 76 00             	lea    0x0(%esi),%esi

000016a0 <inet_addrobj_get_id_list>:
    16a0:	55                   	push   %ebp
    16a1:	89 e5                	mov    %esp,%ebp
    16a3:	56                   	push   %esi
    16a4:	53                   	push   %ebx
    16a5:	83 ec 0c             	sub    $0xc,%esp
    16a8:	68 28 91 00 00       	push   $0x9128
    16ad:	e8 fe 5d 00 00       	call   74b0 <fibril_mutex_lock@plt>
    16b2:	c7 04 24 20 91 00 00 	movl   $0x9120,(%esp)
    16b9:	e8 e2 5c 00 00       	call   73a0 <list_count@plt>
    16be:	5a                   	pop    %edx
    16bf:	89 c6                	mov    %eax,%esi
    16c1:	59                   	pop    %ecx
    16c2:	6a 04                	push   $0x4
    16c4:	50                   	push   %eax
    16c5:	e8 76 5b 00 00       	call   7240 <calloc@plt>
    16ca:	83 c4 10             	add    $0x10,%esp
    16cd:	85 c0                	test   %eax,%eax
    16cf:	74 4c                	je     171d <inet_addrobj_get_id_list+0x7d>
    16d1:	89 c3                	mov    %eax,%ebx
    16d3:	a1 24 91 00 00       	mov    0x9124,%eax
    16d8:	3d 20 91 00 00       	cmp    $0x9120,%eax
    16dd:	74 1b                	je     16fa <inet_addrobj_get_id_list+0x5a>
    16df:	89 da                	mov    %ebx,%edx
    16e1:	8d b4 26 00 00 00 00 	lea    0x0(%esi,%eiz,1),%esi
    16e8:	8b 48 08             	mov    0x8(%eax),%ecx
    16eb:	8b 40 04             	mov    0x4(%eax),%eax
    16ee:	89 0a                	mov    %ecx,(%edx)
    16f0:	83 c2 04             	add    $0x4,%edx
    16f3:	3d 20 91 00 00       	cmp    $0x9120,%eax
    16f8:	75 ee                	jne    16e8 <inet_addrobj_get_id_list+0x48>
    16fa:	83 ec 0c             	sub    $0xc,%esp
    16fd:	68 28 91 00 00       	push   $0x9128
    1702:	e8 99 5b 00 00       	call   72a0 <fibril_mutex_unlock@plt>
    1707:	8b 45 08             	mov    0x8(%ebp),%eax
    170a:	83 c4 10             	add    $0x10,%esp
    170d:	89 18                	mov    %ebx,(%eax)
    170f:	8b 45 0c             	mov    0xc(%ebp),%eax
    1712:	89 30                	mov    %esi,(%eax)
    1714:	31 c0                	xor    %eax,%eax
    1716:	8d 65 f8             	lea    -0x8(%ebp),%esp
    1719:	5b                   	pop    %ebx
    171a:	5e                   	pop    %esi
    171b:	5d                   	pop    %ebp
    171c:	c3                   	ret    
    171d:	83 ec 0c             	sub    $0xc,%esp
    1720:	68 28 91 00 00       	push   $0x9128
    1725:	e8 76 5b 00 00       	call   72a0 <fibril_mutex_unlock@plt>
    172a:	83 c4 10             	add    $0x10,%esp
    172d:	b8 fe ff ff ff       	mov    $0xfffffffe,%eax
    1732:	eb e2                	jmp    1716 <inet_addrobj_get_id_list+0x76>
    1734:	66 90                	xchg   %ax,%ax
    1736:	66 90                	xchg   %ax,%ax
    1738:	66 90                	xchg   %ax,%ax
    173a:	66 90                	xchg   %ax,%ax
    173c:	66 90                	xchg   %ax,%ax
    173e:	66 90                	xchg   %ax,%ax

00001740 <icmp_recv>:
    1740:	55                   	push   %ebp
    1741:	89 e5                	mov    %esp,%ebp
    1743:	57                   	push   %edi
    1744:	56                   	push   %esi
    1745:	53                   	push   %ebx
    1746:	83 ec 60             	sub    $0x60,%esp
    1749:	8b 5d 08             	mov    0x8(%ebp),%ebx
    174c:	68 f3 62 00 00       	push   $0x62f3
    1751:	6a 04                	push   $0x4
    1753:	6a ff                	push   $0xffffffff
    1755:	e8 86 5a 00 00       	call   71e0 <log_msg@plt>
    175a:	8b 43 34             	mov    0x34(%ebx),%eax
    175d:	83 c4 10             	add    $0x10,%esp
    1760:	85 c0                	test   %eax,%eax
    1762:	0f 84 00 01 00 00    	je     1868 <icmp_recv+0x128>
    1768:	8b 43 30             	mov    0x30(%ebx),%eax
    176b:	8a 00                	mov    (%eax),%al
    176d:	84 c0                	test   %al,%al
    176f:	0f 84 03 01 00 00    	je     1878 <icmp_recv+0x138>
    1775:	3c 08                	cmp    $0x8,%al
    1777:	0f 85 eb 00 00 00    	jne    1868 <icmp_recv+0x128>
    177d:	50                   	push   %eax
    177e:	68 ff 62 00 00       	push   $0x62ff
    1783:	6a 04                	push   $0x4
    1785:	6a ff                	push   $0xffffffff
    1787:	e8 54 5a 00 00       	call   71e0 <log_msg@plt>
    178c:	8b 73 34             	mov    0x34(%ebx),%esi
    178f:	83 c4 10             	add    $0x10,%esp
    1792:	83 fe 07             	cmp    $0x7,%esi
    1795:	0f 86 cd 00 00 00    	jbe    1868 <icmp_recv+0x128>
    179b:	8b 43 30             	mov    0x30(%ebx),%eax
    179e:	89 45 a4             	mov    %eax,-0x5c(%ebp)
    17a1:	50                   	push   %eax
    17a2:	50                   	push   %eax
    17a3:	6a 01                	push   $0x1
    17a5:	56                   	push   %esi
    17a6:	e8 95 5a 00 00       	call   7240 <calloc@plt>
    17ab:	83 c4 10             	add    $0x10,%esp
    17ae:	89 c7                	mov    %eax,%edi
    17b0:	85 c0                	test   %eax,%eax
    17b2:	0f 84 57 01 00 00    	je     190f <icmp_recv+0x1cf>
    17b8:	50                   	push   %eax
    17b9:	8b 45 a4             	mov    -0x5c(%ebp),%eax
    17bc:	56                   	push   %esi
    17bd:	50                   	push   %eax
    17be:	57                   	push   %edi
    17bf:	e8 8c 59 00 00       	call   7150 <memcpy@plt>
    17c4:	83 c4 0c             	add    $0xc,%esp
    17c7:	c6 07 00             	movb   $0x0,(%edi)
    17ca:	c6 47 01 00          	movb   $0x0,0x1(%edi)
    17ce:	66 c7 47 02 00 00    	movw   $0x0,0x2(%edi)
    17d4:	56                   	push   %esi
    17d5:	57                   	push   %edi
    17d6:	68 ff ff 00 00       	push   $0xffff
    17db:	e8 20 35 00 00       	call   4d00 <inet_checksum_calc>
    17e0:	66 c1 c0 08          	rol    $0x8,%ax
    17e4:	66 89 47 02          	mov    %ax,0x2(%edi)
    17e8:	8b 43 18             	mov    0x18(%ebx),%eax
    17eb:	89 45 b4             	mov    %eax,-0x4c(%ebp)
    17ee:	8b 43 1c             	mov    0x1c(%ebx),%eax
    17f1:	89 45 b8             	mov    %eax,-0x48(%ebp)
    17f4:	8b 43 20             	mov    0x20(%ebx),%eax
    17f7:	89 45 bc             	mov    %eax,-0x44(%ebp)
    17fa:	8b 43 24             	mov    0x24(%ebx),%eax
    17fd:	89 45 c0             	mov    %eax,-0x40(%ebp)
    1800:	8b 43 28             	mov    0x28(%ebx),%eax
    1803:	89 45 c4             	mov    %eax,-0x3c(%ebp)
    1806:	8b 43 04             	mov    0x4(%ebx),%eax
    1809:	89 45 c8             	mov    %eax,-0x38(%ebp)
    180c:	8b 43 08             	mov    0x8(%ebx),%eax
    180f:	89 45 cc             	mov    %eax,-0x34(%ebp)
    1812:	8b 43 0c             	mov    0xc(%ebx),%eax
    1815:	89 45 d0             	mov    %eax,-0x30(%ebp)
    1818:	8b 43 10             	mov    0x10(%ebx),%eax
    181b:	89 45 d4             	mov    %eax,-0x2c(%ebp)
    181e:	8b 43 14             	mov    0x14(%ebx),%eax
    1821:	89 45 d8             	mov    %eax,-0x28(%ebp)
    1824:	8d 45 b0             	lea    -0x50(%ebp),%eax
    1827:	6a 00                	push   $0x0
    1829:	89 7d e0             	mov    %edi,-0x20(%ebp)
    182c:	68 ff 00 00 00       	push   $0xff
    1831:	89 75 e4             	mov    %esi,-0x1c(%ebp)
    1834:	6a 01                	push   $0x1
    1836:	c7 45 b0 00 00 00 00 	movl   $0x0,-0x50(%ebp)
    183d:	c6 45 dc 00          	movb   $0x0,-0x24(%ebp)
    1841:	50                   	push   %eax
    1842:	e8 39 06 00 00       	call   1e80 <inet_route_packet>
    1847:	83 c4 14             	add    $0x14,%esp
    184a:	57                   	push   %edi
    184b:	89 45 a4             	mov    %eax,-0x5c(%ebp)
    184e:	e8 4d 5c 00 00       	call   74a0 <free@plt>
    1853:	8b 45 a4             	mov    -0x5c(%ebp),%eax
    1856:	83 c4 10             	add    $0x10,%esp
    1859:	8d 65 f4             	lea    -0xc(%ebp),%esp
    185c:	5b                   	pop    %ebx
    185d:	5e                   	pop    %esi
    185e:	5f                   	pop    %edi
    185f:	5d                   	pop    %ebp
    1860:	c3                   	ret    
    1861:	8d b4 26 00 00 00 00 	lea    0x0(%esi,%eiz,1),%esi
    1868:	b8 f2 ff ff ff       	mov    $0xfffffff2,%eax
    186d:	8d 65 f4             	lea    -0xc(%ebp),%esp
    1870:	5b                   	pop    %ebx
    1871:	5e                   	pop    %esi
    1872:	5f                   	pop    %edi
    1873:	5d                   	pop    %ebp
    1874:	c3                   	ret    
    1875:	8d 76 00             	lea    0x0(%esi),%esi
    1878:	51                   	push   %ecx
    1879:	68 18 63 00 00       	push   $0x6318
    187e:	6a 04                	push   $0x4
    1880:	6a ff                	push   $0xffffffff
    1882:	e8 59 59 00 00       	call   71e0 <log_msg@plt>
    1887:	8b 43 34             	mov    0x34(%ebx),%eax
    188a:	83 c4 10             	add    $0x10,%esp
    188d:	83 f8 07             	cmp    $0x7,%eax
    1890:	76 d6                	jbe    1868 <icmp_recv+0x128>
    1892:	8b 4b 04             	mov    0x4(%ebx),%ecx
    1895:	8b 53 30             	mov    0x30(%ebx),%edx
    1898:	89 4d b0             	mov    %ecx,-0x50(%ebp)
    189b:	8b 4b 08             	mov    0x8(%ebx),%ecx
    189e:	89 4d b4             	mov    %ecx,-0x4c(%ebp)
    18a1:	8b 4b 0c             	mov    0xc(%ebx),%ecx
    18a4:	89 4d b8             	mov    %ecx,-0x48(%ebp)
    18a7:	8b 4b 10             	mov    0x10(%ebx),%ecx
    18aa:	89 4d bc             	mov    %ecx,-0x44(%ebp)
    18ad:	8b 4b 14             	mov    0x14(%ebx),%ecx
    18b0:	89 4d c0             	mov    %ecx,-0x40(%ebp)
    18b3:	8b 4b 18             	mov    0x18(%ebx),%ecx
    18b6:	89 4d c4             	mov    %ecx,-0x3c(%ebp)
    18b9:	8b 4b 1c             	mov    0x1c(%ebx),%ecx
    18bc:	89 4d c8             	mov    %ecx,-0x38(%ebp)
    18bf:	8b 4b 20             	mov    0x20(%ebx),%ecx
    18c2:	89 4d cc             	mov    %ecx,-0x34(%ebp)
    18c5:	8b 4b 24             	mov    0x24(%ebx),%ecx
    18c8:	89 4d d0             	mov    %ecx,-0x30(%ebp)
    18cb:	8b 4b 28             	mov    0x28(%ebx),%ecx
    18ce:	89 4d d4             	mov    %ecx,-0x2c(%ebp)
    18d1:	83 e8 08             	sub    $0x8,%eax
    18d4:	66 8b 4a 06          	mov    0x6(%edx),%cx
    18d8:	89 45 e0             	mov    %eax,-0x20(%ebp)
    18db:	66 c1 c1 08          	rol    $0x8,%cx
    18df:	66 8b 42 04          	mov    0x4(%edx),%ax
    18e3:	66 89 4d d8          	mov    %cx,-0x28(%ebp)
    18e7:	66 c1 c0 08          	rol    $0x8,%ax
    18eb:	8d 4a 40             	lea    0x40(%edx),%ecx
    18ee:	52                   	push   %edx
    18ef:	52                   	push   %edx
    18f0:	8d 55 b0             	lea    -0x50(%ebp),%edx
    18f3:	52                   	push   %edx
    18f4:	89 c2                	mov    %eax,%edx
    18f6:	31 c0                	xor    %eax,%eax
    18f8:	89 4d dc             	mov    %ecx,-0x24(%ebp)
    18fb:	66 89 d0             	mov    %dx,%ax
    18fe:	50                   	push   %eax
    18ff:	e8 9c 28 00 00       	call   41a0 <inetping_recv>
    1904:	83 c4 10             	add    $0x10,%esp
    1907:	8d 65 f4             	lea    -0xc(%ebp),%esp
    190a:	5b                   	pop    %ebx
    190b:	5e                   	pop    %esi
    190c:	5f                   	pop    %edi
    190d:	5d                   	pop    %ebp
    190e:	c3                   	ret    
    190f:	b8 fe ff ff ff       	mov    $0xfffffffe,%eax
    1914:	e9 54 ff ff ff       	jmp    186d <icmp_recv+0x12d>
    1919:	8d b4 26 00 00 00 00 	lea    0x0(%esi,%eiz,1),%esi

00001920 <icmp_ping_send>:
    1920:	55                   	push   %ebp
    1921:	89 e5                	mov    %esp,%ebp
    1923:	57                   	push   %edi
    1924:	56                   	push   %esi
    1925:	53                   	push   %ebx
    1926:	83 ec 64             	sub    $0x64,%esp
    1929:	8b 5d 0c             	mov    0xc(%ebp),%ebx
    192c:	8b 55 08             	mov    0x8(%ebp),%edx
    192f:	89 55 a4             	mov    %edx,-0x5c(%ebp)
    1932:	8b 43 30             	mov    0x30(%ebx),%eax
    1935:	6a 01                	push   $0x1
    1937:	8d 78 08             	lea    0x8(%eax),%edi
    193a:	57                   	push   %edi
    193b:	e8 00 59 00 00       	call   7240 <calloc@plt>
    1940:	83 c4 10             	add    $0x10,%esp
    1943:	85 c0                	test   %eax,%eax
    1945:	0f 84 cd 00 00 00    	je     1a18 <icmp_ping_send+0xf8>
    194b:	8b 55 a4             	mov    -0x5c(%ebp),%edx
    194e:	89 c6                	mov    %eax,%esi
    1950:	66 c1 c2 08          	rol    $0x8,%dx
    1954:	66 89 50 04          	mov    %dx,0x4(%eax)
    1958:	c6 00 08             	movb   $0x8,(%eax)
    195b:	c6 40 01 00          	movb   $0x0,0x1(%eax)
    195f:	66 c7 40 02 00 00    	movw   $0x0,0x2(%eax)
    1965:	8b 43 28             	mov    0x28(%ebx),%eax
    1968:	66 c1 c0 08          	rol    $0x8,%ax
    196c:	66 89 46 06          	mov    %ax,0x6(%esi)
    1970:	50                   	push   %eax
    1971:	8b 53 30             	mov    0x30(%ebx),%edx
    1974:	8b 4b 2c             	mov    0x2c(%ebx),%ecx
    1977:	8d 46 08             	lea    0x8(%esi),%eax
    197a:	52                   	push   %edx
    197b:	51                   	push   %ecx
    197c:	50                   	push   %eax
    197d:	e8 ce 57 00 00       	call   7150 <memcpy@plt>
    1982:	83 c4 0c             	add    $0xc,%esp
    1985:	57                   	push   %edi
    1986:	56                   	push   %esi
    1987:	68 ff ff 00 00       	push   $0xffff
    198c:	e8 6f 33 00 00       	call   4d00 <inet_checksum_calc>
    1991:	66 c1 c0 08          	rol    $0x8,%ax
    1995:	66 89 46 02          	mov    %ax,0x2(%esi)
    1999:	8b 03                	mov    (%ebx),%eax
    199b:	89 45 b4             	mov    %eax,-0x4c(%ebp)
    199e:	8b 43 04             	mov    0x4(%ebx),%eax
    19a1:	89 45 b8             	mov    %eax,-0x48(%ebp)
    19a4:	8b 43 08             	mov    0x8(%ebx),%eax
    19a7:	89 45 bc             	mov    %eax,-0x44(%ebp)
    19aa:	8b 43 0c             	mov    0xc(%ebx),%eax
    19ad:	89 45 c0             	mov    %eax,-0x40(%ebp)
    19b0:	8b 43 10             	mov    0x10(%ebx),%eax
    19b3:	89 45 c4             	mov    %eax,-0x3c(%ebp)
    19b6:	8b 43 14             	mov    0x14(%ebx),%eax
    19b9:	89 45 c8             	mov    %eax,-0x38(%ebp)
    19bc:	8b 43 18             	mov    0x18(%ebx),%eax
    19bf:	89 45 cc             	mov    %eax,-0x34(%ebp)
    19c2:	8b 43 1c             	mov    0x1c(%ebx),%eax
    19c5:	89 45 d0             	mov    %eax,-0x30(%ebp)
    19c8:	8b 43 20             	mov    0x20(%ebx),%eax
    19cb:	89 45 d4             	mov    %eax,-0x2c(%ebp)
    19ce:	8b 43 24             	mov    0x24(%ebx),%eax
    19d1:	89 45 d8             	mov    %eax,-0x28(%ebp)
    19d4:	8d 45 b0             	lea    -0x50(%ebp),%eax
    19d7:	6a 00                	push   $0x0
    19d9:	c7 45 b0 00 00 00 00 	movl   $0x0,-0x50(%ebp)
    19e0:	68 ff 00 00 00       	push   $0xff
    19e5:	c6 45 dc 00          	movb   $0x0,-0x24(%ebp)
    19e9:	6a 01                	push   $0x1
    19eb:	89 75 e0             	mov    %esi,-0x20(%ebp)
    19ee:	50                   	push   %eax
    19ef:	89 7d e4             	mov    %edi,-0x1c(%ebp)
    19f2:	e8 89 04 00 00       	call   1e80 <inet_route_packet>
    19f7:	83 c4 14             	add    $0x14,%esp
    19fa:	56                   	push   %esi
    19fb:	89 45 a4             	mov    %eax,-0x5c(%ebp)
    19fe:	e8 9d 5a 00 00       	call   74a0 <free@plt>
    1a03:	83 c4 10             	add    $0x10,%esp
    1a06:	8b 45 a4             	mov    -0x5c(%ebp),%eax
    1a09:	8d 65 f4             	lea    -0xc(%ebp),%esp
    1a0c:	5b                   	pop    %ebx
    1a0d:	5e                   	pop    %esi
    1a0e:	5f                   	pop    %edi
    1a0f:	5d                   	pop    %ebp
    1a10:	c3                   	ret    
    1a11:	8d b4 26 00 00 00 00 	lea    0x0(%esi,%eiz,1),%esi
    1a18:	b8 fe ff ff ff       	mov    $0xfffffffe,%eax
    1a1d:	eb ea                	jmp    1a09 <icmp_ping_send+0xe9>
    1a1f:	90                   	nop

00001a20 <icmpv6_recv>:
    1a20:	55                   	push   %ebp
    1a21:	89 e5                	mov    %esp,%ebp
    1a23:	57                   	push   %edi
    1a24:	56                   	push   %esi
    1a25:	53                   	push   %ebx
    1a26:	81 ec a0 00 00 00    	sub    $0xa0,%esp
    1a2c:	8b 5d 08             	mov    0x8(%ebp),%ebx
    1a2f:	68 2f 63 00 00       	push   $0x632f
    1a34:	6a 04                	push   $0x4
    1a36:	6a ff                	push   $0xffffffff
    1a38:	e8 a3 57 00 00       	call   71e0 <log_msg@plt>
    1a3d:	8b 53 34             	mov    0x34(%ebx),%edx
    1a40:	83 c4 10             	add    $0x10,%esp
    1a43:	85 d2                	test   %edx,%edx
    1a45:	0f 84 dd 01 00 00    	je     1c28 <icmpv6_recv+0x208>
    1a4b:	8b 43 30             	mov    0x30(%ebx),%eax
    1a4e:	8a 00                	mov    (%eax),%al
    1a50:	3c 81                	cmp    $0x81,%al
    1a52:	0f 84 e0 01 00 00    	je     1c38 <icmpv6_recv+0x218>
    1a58:	0f 87 aa 01 00 00    	ja     1c08 <icmpv6_recv+0x1e8>
    1a5e:	3c 80                	cmp    $0x80,%al
    1a60:	0f 85 c2 01 00 00    	jne    1c28 <icmpv6_recv+0x208>
    1a66:	50                   	push   %eax
    1a67:	68 3d 63 00 00       	push   $0x633d
    1a6c:	6a 04                	push   $0x4
    1a6e:	6a ff                	push   $0xffffffff
    1a70:	e8 6b 57 00 00       	call   71e0 <log_msg@plt>
    1a75:	8b 43 34             	mov    0x34(%ebx),%eax
    1a78:	83 c4 10             	add    $0x10,%esp
    1a7b:	89 85 64 ff ff ff    	mov    %eax,-0x9c(%ebp)
    1a81:	83 f8 07             	cmp    $0x7,%eax
    1a84:	0f 86 9e 01 00 00    	jbe    1c28 <icmpv6_recv+0x208>
    1a8a:	8b 43 30             	mov    0x30(%ebx),%eax
    1a8d:	8d 7b 04             	lea    0x4(%ebx),%edi
    1a90:	89 85 60 ff ff ff    	mov    %eax,-0xa0(%ebp)
    1a96:	50                   	push   %eax
    1a97:	8d 85 68 ff ff ff    	lea    -0x98(%ebp),%eax
    1a9d:	50                   	push   %eax
    1a9e:	6a 00                	push   $0x0
    1aa0:	57                   	push   %edi
    1aa1:	e8 4a 58 00 00       	call   72f0 <inet_addr_get@plt>
    1aa6:	83 c4 0c             	add    $0xc,%esp
    1aa9:	89 c6                	mov    %eax,%esi
    1aab:	8d 85 78 ff ff ff    	lea    -0x88(%ebp),%eax
    1ab1:	50                   	push   %eax
    1ab2:	8d 43 18             	lea    0x18(%ebx),%eax
    1ab5:	6a 00                	push   $0x0
    1ab7:	50                   	push   %eax
    1ab8:	e8 33 58 00 00       	call   72f0 <inet_addr_get@plt>
    1abd:	83 c4 10             	add    $0x10,%esp
    1ac0:	39 c6                	cmp    %eax,%esi
    1ac2:	0f 85 60 01 00 00    	jne    1c28 <icmpv6_recv+0x208>
    1ac8:	83 fe 02             	cmp    $0x2,%esi
    1acb:	0f 85 57 01 00 00    	jne    1c28 <icmpv6_recv+0x208>
    1ad1:	50                   	push   %eax
    1ad2:	50                   	push   %eax
    1ad3:	8b 85 64 ff ff ff    	mov    -0x9c(%ebp),%eax
    1ad9:	50                   	push   %eax
    1ada:	6a 01                	push   $0x1
    1adc:	e8 5f 57 00 00       	call   7240 <calloc@plt>
    1ae1:	83 c4 10             	add    $0x10,%esp
    1ae4:	89 c6                	mov    %eax,%esi
    1ae6:	85 c0                	test   %eax,%eax
    1ae8:	0f 84 e1 01 00 00    	je     1ccf <icmpv6_recv+0x2af>
    1aee:	50                   	push   %eax
    1aef:	8b 85 64 ff ff ff    	mov    -0x9c(%ebp),%eax
    1af5:	50                   	push   %eax
    1af6:	8b 85 60 ff ff ff    	mov    -0xa0(%ebp),%eax
    1afc:	50                   	push   %eax
    1afd:	56                   	push   %esi
    1afe:	e8 4d 56 00 00       	call   7150 <memcpy@plt>
    1b03:	83 c4 0c             	add    $0xc,%esp
    1b06:	c6 06 81             	movb   $0x81,(%esi)
    1b09:	c6 46 01 00          	movb   $0x0,0x1(%esi)
    1b0d:	66 c7 46 02 00 00    	movw   $0x0,0x2(%esi)
    1b13:	8d 4d b0             	lea    -0x50(%ebp),%ecx
    1b16:	8d 45 b4             	lea    -0x4c(%ebp),%eax
    1b19:	89 8d 60 ff ff ff    	mov    %ecx,-0xa0(%ebp)
    1b1f:	50                   	push   %eax
    1b20:	6a 00                	push   $0x0
    1b22:	57                   	push   %edi
    1b23:	e8 f8 04 00 00       	call   2020 <inet_get_srcaddr>
    1b28:	8b 43 04             	mov    0x4(%ebx),%eax
    1b2b:	8d 7d 88             	lea    -0x78(%ebp),%edi
    1b2e:	89 45 c8             	mov    %eax,-0x38(%ebp)
    1b31:	8b 43 08             	mov    0x8(%ebx),%eax
    1b34:	89 45 cc             	mov    %eax,-0x34(%ebp)
    1b37:	8b 43 0c             	mov    0xc(%ebx),%eax
    1b3a:	89 45 d0             	mov    %eax,-0x30(%ebp)
    1b3d:	8b 43 10             	mov    0x10(%ebx),%eax
    1b40:	89 45 d4             	mov    %eax,-0x2c(%ebp)
    1b43:	8b 43 14             	mov    0x14(%ebx),%eax
    1b46:	89 45 d8             	mov    %eax,-0x28(%ebp)
    1b49:	8b 85 64 ff ff ff    	mov    -0x9c(%ebp),%eax
    1b4f:	89 45 e4             	mov    %eax,-0x1c(%ebp)
    1b52:	58                   	pop    %eax
    1b53:	5a                   	pop    %edx
    1b54:	8d 95 78 ff ff ff    	lea    -0x88(%ebp),%edx
    1b5a:	57                   	push   %edi
    1b5b:	89 75 e0             	mov    %esi,-0x20(%ebp)
    1b5e:	52                   	push   %edx
    1b5f:	c7 45 b0 00 00 00 00 	movl   $0x0,-0x50(%ebp)
    1b66:	c6 45 dc 00          	movb   $0x0,-0x24(%ebp)
    1b6a:	e8 41 56 00 00       	call   71b0 <host2addr128_t_be@plt>
    1b6f:	59                   	pop    %ecx
    1b70:	8d 95 68 ff ff ff    	lea    -0x98(%ebp),%edx
    1b76:	58                   	pop    %eax
    1b77:	8d 45 98             	lea    -0x68(%ebp),%eax
    1b7a:	50                   	push   %eax
    1b7b:	52                   	push   %edx
    1b7c:	e8 2f 56 00 00       	call   71b0 <host2addr128_t_be@plt>
    1b81:	8b 43 34             	mov    0x34(%ebx),%eax
    1b84:	83 c4 0c             	add    $0xc,%esp
    1b87:	0f c8                	bswap  %eax
    1b89:	89 45 a8             	mov    %eax,-0x58(%ebp)
    1b8c:	8d 45 ac             	lea    -0x54(%ebp),%eax
    1b8f:	6a 03                	push   $0x3
    1b91:	6a 00                	push   $0x0
    1b93:	50                   	push   %eax
    1b94:	e8 67 57 00 00       	call   7300 <memset@plt>
    1b99:	83 c4 0c             	add    $0xc,%esp
    1b9c:	c6 45 af 3a          	movb   $0x3a,-0x51(%ebp)
    1ba0:	6a 28                	push   $0x28
    1ba2:	57                   	push   %edi
    1ba3:	68 ff ff 00 00       	push   $0xffff
    1ba8:	e8 53 31 00 00       	call   4d00 <inet_checksum_calc>
    1bad:	83 c4 0c             	add    $0xc,%esp
    1bb0:	89 c7                	mov    %eax,%edi
    1bb2:	8b 85 64 ff ff ff    	mov    -0x9c(%ebp),%eax
    1bb8:	50                   	push   %eax
    1bb9:	31 c0                	xor    %eax,%eax
    1bbb:	66 89 f8             	mov    %di,%ax
    1bbe:	56                   	push   %esi
    1bbf:	50                   	push   %eax
    1bc0:	e8 3b 31 00 00       	call   4d00 <inet_checksum_calc>
    1bc5:	66 c1 c0 08          	rol    $0x8,%ax
    1bc9:	66 89 46 02          	mov    %ax,0x2(%esi)
    1bcd:	8b 8d 60 ff ff ff    	mov    -0xa0(%ebp),%ecx
    1bd3:	6a 00                	push   $0x0
    1bd5:	68 ff 00 00 00       	push   $0xff
    1bda:	6a 3a                	push   $0x3a
    1bdc:	51                   	push   %ecx
    1bdd:	e8 9e 02 00 00       	call   1e80 <inet_route_packet>
    1be2:	83 c4 14             	add    $0x14,%esp
    1be5:	56                   	push   %esi
    1be6:	89 85 64 ff ff ff    	mov    %eax,-0x9c(%ebp)
    1bec:	e8 af 58 00 00       	call   74a0 <free@plt>
    1bf1:	8b 85 64 ff ff ff    	mov    -0x9c(%ebp),%eax
    1bf7:	83 c4 10             	add    $0x10,%esp
    1bfa:	8d 65 f4             	lea    -0xc(%ebp),%esp
    1bfd:	5b                   	pop    %ebx
    1bfe:	5e                   	pop    %esi
    1bff:	5f                   	pop    %edi
    1c00:	5d                   	pop    %ebp
    1c01:	c3                   	ret    
    1c02:	8d b6 00 00 00 00    	lea    0x0(%esi),%esi
    1c08:	83 c0 7a             	add    $0x7a,%eax
    1c0b:	3c 02                	cmp    $0x2,%al
    1c0d:	77 19                	ja     1c28 <icmpv6_recv+0x208>
    1c0f:	83 ec 0c             	sub    $0xc,%esp
    1c12:	53                   	push   %ebx
    1c13:	e8 68 2b 00 00       	call   4780 <ndp_received>
    1c18:	83 c4 10             	add    $0x10,%esp
    1c1b:	8d 65 f4             	lea    -0xc(%ebp),%esp
    1c1e:	5b                   	pop    %ebx
    1c1f:	5e                   	pop    %esi
    1c20:	5f                   	pop    %edi
    1c21:	5d                   	pop    %ebp
    1c22:	c3                   	ret    
    1c23:	90                   	nop
    1c24:	8d 74 26 00          	lea    0x0(%esi,%eiz,1),%esi
    1c28:	8d 65 f4             	lea    -0xc(%ebp),%esp
    1c2b:	b8 f2 ff ff ff       	mov    $0xfffffff2,%eax
    1c30:	5b                   	pop    %ebx
    1c31:	5e                   	pop    %esi
    1c32:	5f                   	pop    %edi
    1c33:	5d                   	pop    %ebp
    1c34:	c3                   	ret    
    1c35:	8d 76 00             	lea    0x0(%esi),%esi
    1c38:	51                   	push   %ecx
    1c39:	68 58 63 00 00       	push   $0x6358
    1c3e:	6a 04                	push   $0x4
    1c40:	6a ff                	push   $0xffffffff
    1c42:	e8 99 55 00 00       	call   71e0 <log_msg@plt>
    1c47:	8b 43 34             	mov    0x34(%ebx),%eax
    1c4a:	83 c4 10             	add    $0x10,%esp
    1c4d:	83 f8 07             	cmp    $0x7,%eax
    1c50:	76 d6                	jbe    1c28 <icmpv6_recv+0x208>
    1c52:	8b 4b 04             	mov    0x4(%ebx),%ecx
    1c55:	8b 53 30             	mov    0x30(%ebx),%edx
    1c58:	89 4d b0             	mov    %ecx,-0x50(%ebp)
    1c5b:	8b 4b 08             	mov    0x8(%ebx),%ecx
    1c5e:	89 4d b4             	mov    %ecx,-0x4c(%ebp)
    1c61:	8b 4b 0c             	mov    0xc(%ebx),%ecx
    1c64:	89 4d b8             	mov    %ecx,-0x48(%ebp)
    1c67:	8b 4b 10             	mov    0x10(%ebx),%ecx
    1c6a:	89 4d bc             	mov    %ecx,-0x44(%ebp)
    1c6d:	8b 4b 14             	mov    0x14(%ebx),%ecx
    1c70:	89 4d c0             	mov    %ecx,-0x40(%ebp)
    1c73:	8b 4b 18             	mov    0x18(%ebx),%ecx
    1c76:	89 4d c4             	mov    %ecx,-0x3c(%ebp)
    1c79:	8b 4b 1c             	mov    0x1c(%ebx),%ecx
    1c7c:	89 4d c8             	mov    %ecx,-0x38(%ebp)
    1c7f:	8b 4b 20             	mov    0x20(%ebx),%ecx
    1c82:	89 4d cc             	mov    %ecx,-0x34(%ebp)
    1c85:	8b 4b 24             	mov    0x24(%ebx),%ecx
    1c88:	89 4d d0             	mov    %ecx,-0x30(%ebp)
    1c8b:	8b 4b 28             	mov    0x28(%ebx),%ecx
    1c8e:	89 4d d4             	mov    %ecx,-0x2c(%ebp)
    1c91:	83 e8 08             	sub    $0x8,%eax
    1c94:	66 8b 4a 06          	mov    0x6(%edx),%cx
    1c98:	89 45 e0             	mov    %eax,-0x20(%ebp)
    1c9b:	66 c1 c1 08          	rol    $0x8,%cx
    1c9f:	66 89 4d d8          	mov    %cx,-0x28(%ebp)
    1ca3:	8d 4a 40             	lea    0x40(%edx),%ecx
    1ca6:	89 4d dc             	mov    %ecx,-0x24(%ebp)
    1ca9:	66 8b 42 04          	mov    0x4(%edx),%ax
    1cad:	52                   	push   %edx
    1cae:	66 c1 c0 08          	rol    $0x8,%ax
    1cb2:	89 c7                	mov    %eax,%edi
    1cb4:	31 c0                	xor    %eax,%eax
    1cb6:	52                   	push   %edx
    1cb7:	66 89 f8             	mov    %di,%ax
    1cba:	8d 55 b0             	lea    -0x50(%ebp),%edx
    1cbd:	52                   	push   %edx
    1cbe:	50                   	push   %eax
    1cbf:	e8 dc 24 00 00       	call   41a0 <inetping_recv>
    1cc4:	83 c4 10             	add    $0x10,%esp
    1cc7:	8d 65 f4             	lea    -0xc(%ebp),%esp
    1cca:	5b                   	pop    %ebx
    1ccb:	5e                   	pop    %esi
    1ccc:	5f                   	pop    %edi
    1ccd:	5d                   	pop    %ebp
    1cce:	c3                   	ret    
    1ccf:	b8 fe ff ff ff       	mov    $0xfffffffe,%eax
    1cd4:	e9 42 ff ff ff       	jmp    1c1b <icmpv6_recv+0x1fb>
    1cd9:	8d b4 26 00 00 00 00 	lea    0x0(%esi,%eiz,1),%esi

00001ce0 <icmpv6_ping_send>:
    1ce0:	55                   	push   %ebp
    1ce1:	89 e5                	mov    %esp,%ebp
    1ce3:	57                   	push   %edi
    1ce4:	56                   	push   %esi
    1ce5:	53                   	push   %ebx
    1ce6:	81 ec 84 00 00 00    	sub    $0x84,%esp
    1cec:	8b 5d 0c             	mov    0xc(%ebp),%ebx
    1cef:	8b 55 08             	mov    0x8(%ebp),%edx
    1cf2:	89 55 84             	mov    %edx,-0x7c(%ebp)
    1cf5:	8b 43 30             	mov    0x30(%ebx),%eax
    1cf8:	8d 70 08             	lea    0x8(%eax),%esi
    1cfb:	56                   	push   %esi
    1cfc:	6a 01                	push   $0x1
    1cfe:	e8 3d 55 00 00       	call   7240 <calloc@plt>
    1d03:	83 c4 10             	add    $0x10,%esp
    1d06:	85 c0                	test   %eax,%eax
    1d08:	0f 84 32 01 00 00    	je     1e40 <icmpv6_ping_send+0x160>
    1d0e:	8b 55 84             	mov    -0x7c(%ebp),%edx
    1d11:	c6 00 80             	movb   $0x80,(%eax)
    1d14:	66 c1 c2 08          	rol    $0x8,%dx
    1d18:	c6 40 01 00          	movb   $0x0,0x1(%eax)
    1d1c:	66 c7 40 02 00 00    	movw   $0x0,0x2(%eax)
    1d22:	66 89 50 04          	mov    %dx,0x4(%eax)
    1d26:	89 c7                	mov    %eax,%edi
    1d28:	8b 43 28             	mov    0x28(%ebx),%eax
    1d2b:	66 c1 c0 08          	rol    $0x8,%ax
    1d2f:	66 89 47 06          	mov    %ax,0x6(%edi)
    1d33:	50                   	push   %eax
    1d34:	8b 43 30             	mov    0x30(%ebx),%eax
    1d37:	50                   	push   %eax
    1d38:	8b 43 2c             	mov    0x2c(%ebx),%eax
    1d3b:	50                   	push   %eax
    1d3c:	8d 47 08             	lea    0x8(%edi),%eax
    1d3f:	50                   	push   %eax
    1d40:	e8 0b 54 00 00       	call   7150 <memcpy@plt>
    1d45:	8b 03                	mov    (%ebx),%eax
    1d47:	83 c4 10             	add    $0x10,%esp
    1d4a:	89 45 b4             	mov    %eax,-0x4c(%ebp)
    1d4d:	8b 43 04             	mov    0x4(%ebx),%eax
    1d50:	89 45 b8             	mov    %eax,-0x48(%ebp)
    1d53:	8b 43 08             	mov    0x8(%ebx),%eax
    1d56:	89 45 bc             	mov    %eax,-0x44(%ebp)
    1d59:	8b 43 0c             	mov    0xc(%ebx),%eax
    1d5c:	89 45 c0             	mov    %eax,-0x40(%ebp)
    1d5f:	8b 43 10             	mov    0x10(%ebx),%eax
    1d62:	89 45 c4             	mov    %eax,-0x3c(%ebp)
    1d65:	8b 43 14             	mov    0x14(%ebx),%eax
    1d68:	89 45 c8             	mov    %eax,-0x38(%ebp)
    1d6b:	8b 43 18             	mov    0x18(%ebx),%eax
    1d6e:	89 45 cc             	mov    %eax,-0x34(%ebp)
    1d71:	8b 43 1c             	mov    0x1c(%ebx),%eax
    1d74:	89 45 d0             	mov    %eax,-0x30(%ebp)
    1d77:	8b 43 20             	mov    0x20(%ebx),%eax
    1d7a:	89 45 d4             	mov    %eax,-0x2c(%ebp)
    1d7d:	8b 43 24             	mov    0x24(%ebx),%eax
    1d80:	89 45 d8             	mov    %eax,-0x28(%ebp)
    1d83:	c7 45 b0 00 00 00 00 	movl   $0x0,-0x50(%ebp)
    1d8a:	c6 45 dc 00          	movb   $0x0,-0x24(%ebp)
    1d8e:	89 7d e0             	mov    %edi,-0x20(%ebp)
    1d91:	89 75 e4             	mov    %esi,-0x1c(%ebp)
    1d94:	83 3b 02             	cmpl   $0x2,(%ebx)
    1d97:	0f 85 bf 00 00 00    	jne    1e5c <icmpv6_ping_send+0x17c>
    1d9d:	83 7b 14 02          	cmpl   $0x2,0x14(%ebx)
    1da1:	0f 85 a0 00 00 00    	jne    1e47 <icmpv6_ping_send+0x167>
    1da7:	8d 55 88             	lea    -0x78(%ebp),%edx
    1daa:	50                   	push   %eax
    1dab:	50                   	push   %eax
    1dac:	8d 43 04             	lea    0x4(%ebx),%eax
    1daf:	52                   	push   %edx
    1db0:	89 55 84             	mov    %edx,-0x7c(%ebp)
    1db3:	50                   	push   %eax
    1db4:	83 c3 18             	add    $0x18,%ebx
    1db7:	e8 f4 53 00 00       	call   71b0 <host2addr128_t_be@plt>
    1dbc:	8d 45 98             	lea    -0x68(%ebp),%eax
    1dbf:	5a                   	pop    %edx
    1dc0:	59                   	pop    %ecx
    1dc1:	50                   	push   %eax
    1dc2:	53                   	push   %ebx
    1dc3:	e8 e8 53 00 00       	call   71b0 <host2addr128_t_be@plt>
    1dc8:	8b 45 e4             	mov    -0x1c(%ebp),%eax
    1dcb:	83 c4 0c             	add    $0xc,%esp
    1dce:	0f c8                	bswap  %eax
    1dd0:	89 45 a8             	mov    %eax,-0x58(%ebp)
    1dd3:	8d 45 ac             	lea    -0x54(%ebp),%eax
    1dd6:	6a 03                	push   $0x3
    1dd8:	6a 00                	push   $0x0
    1dda:	50                   	push   %eax
    1ddb:	e8 20 55 00 00       	call   7300 <memset@plt>
    1de0:	83 c4 0c             	add    $0xc,%esp
    1de3:	8b 55 84             	mov    -0x7c(%ebp),%edx
    1de6:	c6 45 af 3a          	movb   $0x3a,-0x51(%ebp)
    1dea:	6a 28                	push   $0x28
    1dec:	52                   	push   %edx
    1ded:	68 ff ff 00 00       	push   $0xffff
    1df2:	e8 09 2f 00 00       	call   4d00 <inet_checksum_calc>
    1df7:	83 c4 0c             	add    $0xc,%esp
    1dfa:	89 c1                	mov    %eax,%ecx
    1dfc:	31 c0                	xor    %eax,%eax
    1dfe:	66 89 c8             	mov    %cx,%ax
    1e01:	56                   	push   %esi
    1e02:	57                   	push   %edi
    1e03:	50                   	push   %eax
    1e04:	e8 f7 2e 00 00       	call   4d00 <inet_checksum_calc>
    1e09:	66 c1 c0 08          	rol    $0x8,%ax
    1e0d:	66 89 47 02          	mov    %ax,0x2(%edi)
    1e11:	8d 45 b0             	lea    -0x50(%ebp),%eax
    1e14:	6a 00                	push   $0x0
    1e16:	68 ff 00 00 00       	push   $0xff
    1e1b:	6a 3a                	push   $0x3a
    1e1d:	50                   	push   %eax
    1e1e:	e8 5d 00 00 00       	call   1e80 <inet_route_packet>
    1e23:	83 c4 14             	add    $0x14,%esp
    1e26:	57                   	push   %edi
    1e27:	89 45 84             	mov    %eax,-0x7c(%ebp)
    1e2a:	e8 71 56 00 00       	call   74a0 <free@plt>
    1e2f:	83 c4 10             	add    $0x10,%esp
    1e32:	8b 45 84             	mov    -0x7c(%ebp),%eax
    1e35:	8d 65 f4             	lea    -0xc(%ebp),%esp
    1e38:	5b                   	pop    %ebx
    1e39:	5e                   	pop    %esi
    1e3a:	5f                   	pop    %edi
    1e3b:	5d                   	pop    %ebp
    1e3c:	c3                   	ret    
    1e3d:	8d 76 00             	lea    0x0(%esi),%esi
    1e40:	b8 fe ff ff ff       	mov    $0xfffffffe,%eax
    1e45:	eb ee                	jmp    1e35 <icmpv6_ping_send+0x155>
    1e47:	53                   	push   %ebx
    1e48:	68 bc 00 00 00       	push   $0xbc
    1e4d:	68 71 63 00 00       	push   $0x6371
    1e52:	68 94 63 00 00       	push   $0x6394
    1e57:	e8 d4 53 00 00       	call   7230 <assert_abort@plt>
    1e5c:	56                   	push   %esi
    1e5d:	68 bb 00 00 00       	push   $0xbb
    1e62:	68 71 63 00 00       	push   $0x6371
    1e67:	68 7a 63 00 00       	push   $0x637a
    1e6c:	e8 bf 53 00 00       	call   7230 <assert_abort@plt>
    1e71:	66 90                	xchg   %ax,%ax
    1e73:	66 90                	xchg   %ax,%ax
    1e75:	66 90                	xchg   %ax,%ax
    1e77:	66 90                	xchg   %ax,%ax
    1e79:	66 90                	xchg   %ax,%ax
    1e7b:	66 90                	xchg   %ax,%ax
    1e7d:	66 90                	xchg   %ax,%ax
    1e7f:	90                   	nop

00001e80 <inet_route_packet>:
    1e80:	55                   	push   %ebp
    1e81:	89 e5                	mov    %esp,%ebp
    1e83:	57                   	push   %edi
    1e84:	56                   	push   %esi
    1e85:	53                   	push   %ebx
    1e86:	83 ec 3c             	sub    $0x3c,%esp
    1e89:	8b 5d 08             	mov    0x8(%ebp),%ebx
    1e8c:	8b 75 0c             	mov    0xc(%ebp),%esi
    1e8f:	8b 7d 10             	mov    0x10(%ebp),%edi
    1e92:	8b 03                	mov    (%ebx),%eax
    1e94:	85 c0                	test   %eax,%eax
    1e96:	74 68                	je     1f00 <inet_route_packet+0x80>
    1e98:	50                   	push   %eax
    1e99:	68 af 63 00 00       	push   $0x63af
    1e9e:	6a 04                	push   $0x4
    1ea0:	6a ff                	push   $0xffffffff
    1ea2:	e8 39 53 00 00       	call   71e0 <log_msg@plt>
    1ea7:	58                   	pop    %eax
    1ea8:	8b 03                	mov    (%ebx),%eax
    1eaa:	50                   	push   %eax
    1eab:	e8 20 15 00 00       	call   33d0 <inet_link_get_by_id>
    1eb0:	83 c4 10             	add    $0x10,%esp
    1eb3:	85 c0                	test   %eax,%eax
    1eb5:	0f 84 47 01 00 00    	je     2002 <inet_route_packet+0x182>
    1ebb:	83 7b 04 01          	cmpl   $0x1,0x4(%ebx)
    1ebf:	0f 85 bb 00 00 00    	jne    1f80 <inet_route_packet+0x100>
    1ec5:	83 7b 18 01          	cmpl   $0x1,0x18(%ebx)
    1ec9:	0f 85 b1 00 00 00    	jne    1f80 <inet_route_packet+0x100>
    1ecf:	8b 4d 14             	mov    0x14(%ebp),%ecx
    1ed2:	81 e7 ff 00 00 00    	and    $0xff,%edi
    1ed8:	81 e6 ff 00 00 00    	and    $0xff,%esi
    1ede:	52                   	push   %edx
    1edf:	51                   	push   %ecx
    1ee0:	57                   	push   %edi
    1ee1:	56                   	push   %esi
    1ee2:	53                   	push   %ebx
    1ee3:	8b 73 1c             	mov    0x1c(%ebx),%esi
    1ee6:	56                   	push   %esi
    1ee7:	8b 7b 08             	mov    0x8(%ebx),%edi
    1eea:	57                   	push   %edi
    1eeb:	50                   	push   %eax
    1eec:	e8 ef 11 00 00       	call   30e0 <inet_link_send_dgram>
    1ef1:	83 c4 20             	add    $0x20,%esp
    1ef4:	8d 65 f4             	lea    -0xc(%ebp),%esp
    1ef7:	5b                   	pop    %ebx
    1ef8:	5e                   	pop    %esi
    1ef9:	5f                   	pop    %edi
    1efa:	5d                   	pop    %ebp
    1efb:	c3                   	ret    
    1efc:	8d 74 26 00          	lea    0x0(%esi,%eiz,1),%esi
    1f00:	50                   	push   %eax
    1f01:	68 cc 63 00 00       	push   $0x63cc
    1f06:	6a 04                	push   $0x4
    1f08:	6a ff                	push   $0xffffffff
    1f0a:	e8 d1 52 00 00       	call   71e0 <log_msg@plt>
    1f0f:	8d 53 18             	lea    0x18(%ebx),%edx
    1f12:	58                   	pop    %eax
    1f13:	89 55 c4             	mov    %edx,-0x3c(%ebp)
    1f16:	59                   	pop    %ecx
    1f17:	6a 00                	push   $0x0
    1f19:	52                   	push   %edx
    1f1a:	e8 21 f4 ff ff       	call   1340 <inet_addrobj_find>
    1f1f:	81 e6 ff 00 00 00    	and    $0xff,%esi
    1f25:	81 e7 ff 00 00 00    	and    $0xff,%edi
    1f2b:	83 c4 10             	add    $0x10,%esp
    1f2e:	89 45 d0             	mov    %eax,-0x30(%ebp)
    1f31:	85 c0                	test   %eax,%eax
    1f33:	8b 55 c4             	mov    -0x3c(%ebp),%edx
    1f36:	74 58                	je     1f90 <inet_route_packet+0x110>
    1f38:	8b 53 18             	mov    0x18(%ebx),%edx
    1f3b:	c7 45 cc 01 00 00 00 	movl   $0x1,-0x34(%ebp)
    1f42:	89 55 d4             	mov    %edx,-0x2c(%ebp)
    1f45:	8b 53 1c             	mov    0x1c(%ebx),%edx
    1f48:	89 55 d8             	mov    %edx,-0x28(%ebp)
    1f4b:	8b 53 20             	mov    0x20(%ebx),%edx
    1f4e:	89 55 dc             	mov    %edx,-0x24(%ebp)
    1f51:	8b 53 24             	mov    0x24(%ebx),%edx
    1f54:	89 55 e0             	mov    %edx,-0x20(%ebp)
    1f57:	8b 53 28             	mov    0x28(%ebx),%edx
    1f5a:	89 55 e4             	mov    %edx,-0x1c(%ebp)
    1f5d:	8b 4d 14             	mov    0x14(%ebp),%ecx
    1f60:	52                   	push   %edx
    1f61:	52                   	push   %edx
    1f62:	8d 55 d4             	lea    -0x2c(%ebp),%edx
    1f65:	51                   	push   %ecx
    1f66:	57                   	push   %edi
    1f67:	56                   	push   %esi
    1f68:	53                   	push   %ebx
    1f69:	52                   	push   %edx
    1f6a:	50                   	push   %eax
    1f6b:	e8 10 f6 ff ff       	call   1580 <inet_addrobj_send_dgram>
    1f70:	83 c4 20             	add    $0x20,%esp
    1f73:	8d 65 f4             	lea    -0xc(%ebp),%esp
    1f76:	5b                   	pop    %ebx
    1f77:	5e                   	pop    %esi
    1f78:	5f                   	pop    %edi
    1f79:	5d                   	pop    %ebp
    1f7a:	c3                   	ret    
    1f7b:	90                   	nop
    1f7c:	8d 74 26 00          	lea    0x0(%esi,%eiz,1),%esi
    1f80:	8d 65 f4             	lea    -0xc(%ebp),%esp
    1f83:	b8 f2 ff ff ff       	mov    $0xfffffff2,%eax
    1f88:	5b                   	pop    %ebx
    1f89:	5e                   	pop    %esi
    1f8a:	5f                   	pop    %edi
    1f8b:	5d                   	pop    %ebp
    1f8c:	c3                   	ret    
    1f8d:	8d 76 00             	lea    0x0(%esi),%esi
    1f90:	83 ec 0c             	sub    $0xc,%esp
    1f93:	52                   	push   %edx
    1f94:	e8 17 3f 00 00       	call   5eb0 <inet_sroute_find>
    1f99:	83 c4 10             	add    $0x10,%esp
    1f9c:	89 c2                	mov    %eax,%edx
    1f9e:	85 c0                	test   %eax,%eax
    1fa0:	74 6e                	je     2010 <inet_route_packet+0x190>
    1fa2:	50                   	push   %eax
    1fa3:	50                   	push   %eax
    1fa4:	8d 42 24             	lea    0x24(%edx),%eax
    1fa7:	6a 00                	push   $0x0
    1fa9:	89 55 c4             	mov    %edx,-0x3c(%ebp)
    1fac:	50                   	push   %eax
    1fad:	e8 8e f3 ff ff       	call   1340 <inet_addrobj_find>
    1fb2:	8b 55 c4             	mov    -0x3c(%ebp),%edx
    1fb5:	8b 4a 24             	mov    0x24(%edx),%ecx
    1fb8:	89 45 d0             	mov    %eax,-0x30(%ebp)
    1fbb:	89 4d d4             	mov    %ecx,-0x2c(%ebp)
    1fbe:	8b 4a 28             	mov    0x28(%edx),%ecx
    1fc1:	89 4d d8             	mov    %ecx,-0x28(%ebp)
    1fc4:	8b 4a 2c             	mov    0x2c(%edx),%ecx
    1fc7:	89 4d dc             	mov    %ecx,-0x24(%ebp)
    1fca:	8b 4a 30             	mov    0x30(%edx),%ecx
    1fcd:	8b 52 34             	mov    0x34(%edx),%edx
    1fd0:	89 4d e0             	mov    %ecx,-0x20(%ebp)
    1fd3:	89 55 e4             	mov    %edx,-0x1c(%ebp)
    1fd6:	c7 45 cc 02 00 00 00 	movl   $0x2,-0x34(%ebp)
    1fdd:	83 c4 10             	add    $0x10,%esp
    1fe0:	85 c0                	test   %eax,%eax
    1fe2:	0f 85 75 ff ff ff    	jne    1f5d <inet_route_packet+0xdd>
    1fe8:	53                   	push   %ebx
    1fe9:	68 9c 64 00 00       	push   $0x649c
    1fee:	6a 04                	push   $0x4
    1ff0:	6a ff                	push   $0xffffffff
    1ff2:	e8 e9 51 00 00       	call   71e0 <log_msg@plt>
    1ff7:	83 c4 10             	add    $0x10,%esp
    1ffa:	83 c8 ff             	or     $0xffffffff,%eax
    1ffd:	e9 f2 fe ff ff       	jmp    1ef4 <inet_route_packet+0x74>
    2002:	83 c8 ff             	or     $0xffffffff,%eax
    2005:	e9 ea fe ff ff       	jmp    1ef4 <inet_route_packet+0x74>
    200a:	8d b6 00 00 00 00    	lea    0x0(%esi),%esi
    2010:	8b 45 d0             	mov    -0x30(%ebp),%eax
    2013:	eb cb                	jmp    1fe0 <inet_route_packet+0x160>
    2015:	8d 74 26 00          	lea    0x0(%esi,%eiz,1),%esi
    2019:	8d bc 27 00 00 00 00 	lea    0x0(%edi,%eiz,1),%edi

00002020 <inet_get_srcaddr>:
    2020:	55                   	push   %ebp
    2021:	89 e5                	mov    %esp,%ebp
    2023:	53                   	push   %ebx
    2024:	83 ec 0c             	sub    $0xc,%esp
    2027:	8b 5d 08             	mov    0x8(%ebp),%ebx
    202a:	6a 00                	push   $0x0
    202c:	53                   	push   %ebx
    202d:	e8 0e f3 ff ff       	call   1340 <inet_addrobj_find>
    2032:	83 c4 10             	add    $0x10,%esp
    2035:	85 c0                	test   %eax,%eax
    2037:	74 3f                	je     2078 <inet_get_srcaddr+0x58>
    2039:	83 3b 01             	cmpl   $0x1,(%ebx)
    203c:	74 1a                	je     2058 <inet_get_srcaddr+0x38>
    203e:	83 c0 0c             	add    $0xc,%eax
    2041:	8b 4d 10             	mov    0x10(%ebp),%ecx
    2044:	52                   	push   %edx
    2045:	52                   	push   %edx
    2046:	51                   	push   %ecx
    2047:	50                   	push   %eax
    2048:	e8 13 51 00 00       	call   7160 <inet_naddr_addr@plt>
    204d:	83 c4 10             	add    $0x10,%esp
    2050:	31 c0                	xor    %eax,%eax
    2052:	8b 5d fc             	mov    -0x4(%ebp),%ebx
    2055:	c9                   	leave  
    2056:	c3                   	ret    
    2057:	90                   	nop
    2058:	83 7b 04 ff          	cmpl   $0xffffffff,0x4(%ebx)
    205c:	75 e0                	jne    203e <inet_get_srcaddr+0x1e>
    205e:	8b 45 10             	mov    0x10(%ebp),%eax
    2061:	c7 00 01 00 00 00    	movl   $0x1,(%eax)
    2067:	c7 40 04 00 00 00 00 	movl   $0x0,0x4(%eax)
    206e:	31 c0                	xor    %eax,%eax
    2070:	eb e0                	jmp    2052 <inet_get_srcaddr+0x32>
    2072:	8d b6 00 00 00 00    	lea    0x0(%esi),%esi
    2078:	83 ec 0c             	sub    $0xc,%esp
    207b:	53                   	push   %ebx
    207c:	e8 2f 3e 00 00       	call   5eb0 <inet_sroute_find>
    2081:	83 c4 10             	add    $0x10,%esp
    2084:	85 c0                	test   %eax,%eax
    2086:	74 18                	je     20a0 <inet_get_srcaddr+0x80>
    2088:	83 c0 24             	add    $0x24,%eax
    208b:	52                   	push   %edx
    208c:	52                   	push   %edx
    208d:	6a 00                	push   $0x0
    208f:	50                   	push   %eax
    2090:	e8 ab f2 ff ff       	call   1340 <inet_addrobj_find>
    2095:	83 c4 10             	add    $0x10,%esp
    2098:	85 c0                	test   %eax,%eax
    209a:	75 9d                	jne    2039 <inet_get_srcaddr+0x19>
    209c:	8d 74 26 00          	lea    0x0(%esi,%eiz,1),%esi
    20a0:	51                   	push   %ecx
    20a1:	68 9c 64 00 00       	push   $0x649c
    20a6:	6a 04                	push   $0x4
    20a8:	6a ff                	push   $0xffffffff
    20aa:	e8 31 51 00 00       	call   71e0 <log_msg@plt>
    20af:	83 c4 10             	add    $0x10,%esp
    20b2:	83 c8 ff             	or     $0xffffffff,%eax
    20b5:	eb 9b                	jmp    2052 <inet_get_srcaddr+0x32>
    20b7:	89 f6                	mov    %esi,%esi
    20b9:	8d bc 27 00 00 00 00 	lea    0x0(%edi,%eiz,1),%edi

000020c0 <inet_default_conn>:
    20c0:	55                   	push   %ebp
    20c1:	89 e5                	mov    %esp,%ebp
    20c3:	57                   	push   %edi
    20c4:	56                   	push   %esi
    20c5:	53                   	push   %ebx
    20c6:	81 ec b0 00 00 00    	sub    $0xb0,%esp
    20cc:	8d 75 8c             	lea    -0x74(%ebp),%esi
    20cf:	68 df 63 00 00       	push   $0x63df
    20d4:	6a 04                	push   $0x4
    20d6:	6a ff                	push   $0xffffffff
    20d8:	e8 03 51 00 00       	call   71e0 <log_msg@plt>
    20dd:	8b 4d 08             	mov    0x8(%ebp),%ecx
    20e0:	58                   	pop    %eax
    20e1:	5a                   	pop    %edx
    20e2:	6a 00                	push   $0x0
    20e4:	51                   	push   %ecx
    20e5:	e8 d6 50 00 00       	call   71c0 <async_answer_0@plt>
    20ea:	c7 04 24 40 91 00 00 	movl   $0x9140,(%esp)
    20f1:	c7 85 68 ff ff ff 00 	movl   $0x0,-0x98(%ebp)
    20f8:	00 00 00 
    20fb:	e8 b0 53 00 00       	call   74b0 <fibril_mutex_lock@plt>
    2100:	8b 15 38 91 00 00    	mov    0x9138,%edx
    2106:	8d 85 70 ff ff ff    	lea    -0x90(%ebp),%eax
    210c:	c7 85 74 ff ff ff 38 	movl   $0x9138,-0x8c(%ebp)
    2113:	91 00 00 
    2116:	89 95 70 ff ff ff    	mov    %edx,-0x90(%ebp)
    211c:	89 42 04             	mov    %eax,0x4(%edx)
    211f:	a3 38 91 00 00       	mov    %eax,0x9138
    2124:	c7 04 24 40 91 00 00 	movl   $0x9140,(%esp)
    212b:	e8 70 51 00 00       	call   72a0 <fibril_mutex_unlock@plt>
    2130:	83 c4 10             	add    $0x10,%esp
    2133:	90                   	nop
    2134:	8d 74 26 00          	lea    0x0(%esi,%eiz,1),%esi
    2138:	57                   	push   %edi
    2139:	57                   	push   %edi
    213a:	6a 00                	push   $0x0
    213c:	56                   	push   %esi
    213d:	e8 3e 52 00 00       	call   7380 <async_get_call_timeout@plt>
    2142:	83 c4 10             	add    $0x10,%esp
    2145:	89 c7                	mov    %eax,%edi
    2147:	8b 45 8c             	mov    -0x74(%ebp),%eax
    214a:	85 c0                	test   %eax,%eax
    214c:	0f 84 76 01 00 00    	je     22c8 <inet_default_conn+0x208>
    2152:	3d 01 04 00 00       	cmp    $0x401,%eax
    2157:	0f 84 1b 01 00 00    	je     2278 <inet_default_conn+0x1b8>
    215d:	76 49                	jbe    21a8 <inet_default_conn+0xe8>
    215f:	3d 02 04 00 00       	cmp    $0x402,%eax
    2164:	0f 84 8e 00 00 00    	je     21f8 <inet_default_conn+0x138>
    216a:	3d 03 04 00 00       	cmp    $0x403,%eax
    216f:	75 6f                	jne    21e0 <inet_default_conn+0x120>
    2171:	8b 5d 90             	mov    -0x70(%ebp),%ebx
    2174:	53                   	push   %ebx
    2175:	68 35 64 00 00       	push   $0x6435
    217a:	6a 04                	push   $0x4
    217c:	6a ff                	push   $0xffffffff
    217e:	e8 5d 50 00 00       	call   71e0 <log_msg@plt>
    2183:	83 c4 10             	add    $0x10,%esp
    2186:	81 fb ff 00 00 00    	cmp    $0xff,%ebx
    218c:	77 52                	ja     21e0 <inet_default_conn+0x120>
    218e:	88 9d 6c ff ff ff    	mov    %bl,-0x94(%ebp)
    2194:	52                   	push   %edx
    2195:	52                   	push   %edx
    2196:	6a 00                	push   $0x0
    2198:	57                   	push   %edi
    2199:	e8 22 50 00 00       	call   71c0 <async_answer_0@plt>
    219e:	83 c4 10             	add    $0x10,%esp
    21a1:	eb 95                	jmp    2138 <inet_default_conn+0x78>
    21a3:	90                   	nop
    21a4:	8d 74 26 00          	lea    0x0(%esi,%eiz,1),%esi
    21a8:	3d 00 04 00 00       	cmp    $0x400,%eax
    21ad:	75 31                	jne    21e0 <inet_default_conn+0x120>
    21af:	53                   	push   %ebx
    21b0:	68 f3 63 00 00       	push   $0x63f3
    21b5:	6a 04                	push   $0x4
    21b7:	6a ff                	push   $0xffffffff
    21b9:	e8 22 50 00 00       	call   71e0 <log_msg@plt>
    21be:	c7 04 24 01 00 00 00 	movl   $0x1,(%esp)
    21c5:	e8 c6 52 00 00       	call   7490 <async_callback_receive@plt>
    21ca:	83 c4 10             	add    $0x10,%esp
    21cd:	85 c0                	test   %eax,%eax
    21cf:	0f 84 4b 02 00 00    	je     2420 <inet_default_conn+0x360>
    21d5:	89 85 68 ff ff ff    	mov    %eax,-0x98(%ebp)
    21db:	eb b7                	jmp    2194 <inet_default_conn+0xd4>
    21dd:	8d 76 00             	lea    0x0(%esi),%esi
    21e0:	50                   	push   %eax
    21e1:	50                   	push   %eax
    21e2:	6a f2                	push   $0xfffffff2
    21e4:	57                   	push   %edi
    21e5:	e8 d6 4f 00 00       	call   71c0 <async_answer_0@plt>
    21ea:	83 c4 10             	add    $0x10,%esp
    21ed:	e9 46 ff ff ff       	jmp    2138 <inet_default_conn+0x78>
    21f2:	8d b6 00 00 00 00    	lea    0x0(%esi),%esi
    21f8:	50                   	push   %eax
    21f9:	68 25 64 00 00       	push   $0x6425
    21fe:	6a 04                	push   $0x4
    2200:	6a ff                	push   $0xffffffff
    2202:	e8 d9 4f 00 00       	call   71e0 <log_msg@plt>
    2207:	8b 45 90             	mov    -0x70(%ebp),%eax
    220a:	89 45 b0             	mov    %eax,-0x50(%ebp)
    220d:	8b 45 94             	mov    -0x6c(%ebp),%eax
    2210:	88 45 dc             	mov    %al,-0x24(%ebp)
    2213:	8b 45 98             	mov    -0x68(%ebp),%eax
    2216:	89 85 54 ff ff ff    	mov    %eax,-0xac(%ebp)
    221c:	8b 45 9c             	mov    -0x64(%ebp),%eax
    221f:	89 85 50 ff ff ff    	mov    %eax,-0xb0(%ebp)
    2225:	8d 9d 78 ff ff ff    	lea    -0x88(%ebp),%ebx
    222b:	58                   	pop    %eax
    222c:	8d 85 64 ff ff ff    	lea    -0x9c(%ebp),%eax
    2232:	5a                   	pop    %edx
    2233:	53                   	push   %ebx
    2234:	50                   	push   %eax
    2235:	e8 46 52 00 00       	call   7480 <async_data_write_receive@plt>
    223a:	83 c4 10             	add    $0x10,%esp
    223d:	84 c0                	test   %al,%al
    223f:	0f 84 9b 00 00 00    	je     22e0 <inet_default_conn+0x220>
    2245:	83 bd 78 ff ff ff 14 	cmpl   $0x14,-0x88(%ebp)
    224c:	0f 84 2e 01 00 00    	je     2380 <inet_default_conn+0x2c0>
    2252:	8b 9d 64 ff ff ff    	mov    -0x9c(%ebp),%ebx
    2258:	51                   	push   %ecx
    2259:	51                   	push   %ecx
    225a:	6a f2                	push   $0xfffffff2
    225c:	53                   	push   %ebx
    225d:	e8 5e 4f 00 00       	call   71c0 <async_answer_0@plt>
    2262:	58                   	pop    %eax
    2263:	5a                   	pop    %edx
    2264:	6a f2                	push   $0xfffffff2
    2266:	57                   	push   %edi
    2267:	e8 54 4f 00 00       	call   71c0 <async_answer_0@plt>
    226c:	83 c4 10             	add    $0x10,%esp
    226f:	e9 c4 fe ff ff       	jmp    2138 <inet_default_conn+0x78>
    2274:	8d 74 26 00          	lea    0x0(%esi,%eiz,1),%esi
    2278:	50                   	push   %eax
    2279:	68 0e 64 00 00       	push   $0x640e
    227e:	6a 04                	push   $0x4
    2280:	6a ff                	push   $0xffffffff
    2282:	e8 59 4f 00 00       	call   71e0 <log_msg@plt>
    2287:	8b 45 90             	mov    -0x70(%ebp),%eax
    228a:	89 85 54 ff ff ff    	mov    %eax,-0xac(%ebp)
    2290:	58                   	pop    %eax
    2291:	8d 85 64 ff ff ff    	lea    -0x9c(%ebp),%eax
    2297:	5a                   	pop    %edx
    2298:	50                   	push   %eax
    2299:	8d 85 60 ff ff ff    	lea    -0xa0(%ebp),%eax
    229f:	50                   	push   %eax
    22a0:	e8 db 51 00 00       	call   7480 <async_data_write_receive@plt>
    22a5:	83 c4 10             	add    $0x10,%esp
    22a8:	84 c0                	test   %al,%al
    22aa:	0f 84 c0 00 00 00    	je     2370 <inet_default_conn+0x2b0>
    22b0:	83 bd 64 ff ff ff 14 	cmpl   $0x14,-0x9c(%ebp)
    22b7:	74 4f                	je     2308 <inet_default_conn+0x248>
    22b9:	50                   	push   %eax
    22ba:	50                   	push   %eax
    22bb:	8b 85 60 ff ff ff    	mov    -0xa0(%ebp),%eax
    22c1:	6a f2                	push   $0xfffffff2
    22c3:	50                   	push   %eax
    22c4:	eb 97                	jmp    225d <inet_default_conn+0x19d>
    22c6:	66 90                	xchg   %ax,%ax
    22c8:	56                   	push   %esi
    22c9:	56                   	push   %esi
    22ca:	6a 00                	push   $0x0
    22cc:	57                   	push   %edi
    22cd:	e8 ee 4e 00 00       	call   71c0 <async_answer_0@plt>
    22d2:	8d 65 f4             	lea    -0xc(%ebp),%esp
    22d5:	5b                   	pop    %ebx
    22d6:	5e                   	pop    %esi
    22d7:	5f                   	pop    %edi
    22d8:	5d                   	pop    %ebp
    22d9:	c3                   	ret    
    22da:	8d b6 00 00 00 00    	lea    0x0(%esi),%esi
    22e0:	8b 9d 64 ff ff ff    	mov    -0x9c(%ebp),%ebx
    22e6:	51                   	push   %ecx
    22e7:	51                   	push   %ecx
    22e8:	6a fc                	push   $0xfffffffc
    22ea:	53                   	push   %ebx
    22eb:	e8 d0 4e 00 00       	call   71c0 <async_answer_0@plt>
    22f0:	58                   	pop    %eax
    22f1:	5a                   	pop    %edx
    22f2:	6a fc                	push   $0xfffffffc
    22f4:	57                   	push   %edi
    22f5:	e8 c6 4e 00 00       	call   71c0 <async_answer_0@plt>
    22fa:	83 c4 10             	add    $0x10,%esp
    22fd:	e9 36 fe ff ff       	jmp    2138 <inet_default_conn+0x78>
    2302:	8d b6 00 00 00 00    	lea    0x0(%esi),%esi
    2308:	8b 85 60 ff ff ff    	mov    -0xa0(%ebp),%eax
    230e:	8d 9d 78 ff ff ff    	lea    -0x88(%ebp),%ebx
    2314:	51                   	push   %ecx
    2315:	6a 14                	push   $0x14
    2317:	53                   	push   %ebx
    2318:	50                   	push   %eax
    2319:	e8 e2 50 00 00       	call   7400 <async_data_write_finalize@plt>
    231e:	83 c4 10             	add    $0x10,%esp
    2321:	89 c2                	mov    %eax,%edx
    2323:	85 c0                	test   %eax,%eax
    2325:	0f 85 5d 01 00 00    	jne    2488 <inet_default_conn+0x3c8>
    232b:	50                   	push   %eax
    232c:	8d 45 b0             	lea    -0x50(%ebp),%eax
    232f:	50                   	push   %eax
    2330:	31 c0                	xor    %eax,%eax
    2332:	8a 85 54 ff ff ff    	mov    -0xac(%ebp),%al
    2338:	50                   	push   %eax
    2339:	53                   	push   %ebx
    233a:	e8 e1 fc ff ff       	call   2020 <inet_get_srcaddr>
    233f:	83 c4 10             	add    $0x10,%esp
    2342:	85 c0                	test   %eax,%eax
    2344:	0f 85 be 00 00 00    	jne    2408 <inet_default_conn+0x348>
    234a:	8d 85 64 ff ff ff    	lea    -0x9c(%ebp),%eax
    2350:	51                   	push   %ecx
    2351:	51                   	push   %ecx
    2352:	50                   	push   %eax
    2353:	8d 85 60 ff ff ff    	lea    -0xa0(%ebp),%eax
    2359:	50                   	push   %eax
    235a:	e8 b1 4f 00 00       	call   7310 <async_data_read_receive@plt>
    235f:	83 c4 10             	add    $0x10,%esp
    2362:	84 c0                	test   %al,%al
    2364:	0f 85 ce 00 00 00    	jne    2438 <inet_default_conn+0x378>
    236a:	8d b6 00 00 00 00    	lea    0x0(%esi),%esi
    2370:	8b 95 60 ff ff ff    	mov    -0xa0(%ebp),%edx
    2376:	50                   	push   %eax
    2377:	50                   	push   %eax
    2378:	6a fc                	push   $0xfffffffc
    237a:	52                   	push   %edx
    237b:	e9 6b ff ff ff       	jmp    22eb <inet_default_conn+0x22b>
    2380:	8d 45 b4             	lea    -0x4c(%ebp),%eax
    2383:	51                   	push   %ecx
    2384:	6a 14                	push   $0x14
    2386:	50                   	push   %eax
    2387:	8b 85 64 ff ff ff    	mov    -0x9c(%ebp),%eax
    238d:	50                   	push   %eax
    238e:	e8 6d 50 00 00       	call   7400 <async_data_write_finalize@plt>
    2393:	83 c4 10             	add    $0x10,%esp
    2396:	89 c2                	mov    %eax,%edx
    2398:	85 c0                	test   %eax,%eax
    239a:	0f 85 18 01 00 00    	jne    24b8 <inet_default_conn+0x3f8>
    23a0:	50                   	push   %eax
    23a1:	50                   	push   %eax
    23a2:	8d 85 64 ff ff ff    	lea    -0x9c(%ebp),%eax
    23a8:	53                   	push   %ebx
    23a9:	50                   	push   %eax
    23aa:	e8 d1 50 00 00       	call   7480 <async_data_write_receive@plt>
    23af:	83 c4 10             	add    $0x10,%esp
    23b2:	84 c0                	test   %al,%al
    23b4:	0f 84 26 ff ff ff    	je     22e0 <inet_default_conn+0x220>
    23ba:	83 bd 78 ff ff ff 14 	cmpl   $0x14,-0x88(%ebp)
    23c1:	0f 85 8b fe ff ff    	jne    2252 <inet_default_conn+0x192>
    23c7:	8d 45 c8             	lea    -0x38(%ebp),%eax
    23ca:	8b 9d 64 ff ff ff    	mov    -0x9c(%ebp),%ebx
    23d0:	51                   	push   %ecx
    23d1:	6a 14                	push   $0x14
    23d3:	50                   	push   %eax
    23d4:	53                   	push   %ebx
    23d5:	e8 26 50 00 00       	call   7400 <async_data_write_finalize@plt>
    23da:	83 c4 10             	add    $0x10,%esp
    23dd:	85 c0                	test   %eax,%eax
    23df:	0f 85 32 01 00 00    	jne    2517 <inet_default_conn+0x457>
    23e5:	8d 45 e4             	lea    -0x1c(%ebp),%eax
    23e8:	51                   	push   %ecx
    23e9:	51                   	push   %ecx
    23ea:	50                   	push   %eax
    23eb:	8d 45 e0             	lea    -0x20(%ebp),%eax
    23ee:	6a 00                	push   $0x0
    23f0:	6a 00                	push   $0x0
    23f2:	6a 00                	push   $0x0
    23f4:	6a 00                	push   $0x0
    23f6:	50                   	push   %eax
    23f7:	e8 14 50 00 00       	call   7410 <async_data_write_accept@plt>
    23fc:	83 c4 20             	add    $0x20,%esp
    23ff:	85 c0                	test   %eax,%eax
    2401:	0f 84 dd 00 00 00    	je     24e4 <inet_default_conn+0x424>
    2407:	90                   	nop
    2408:	52                   	push   %edx
    2409:	52                   	push   %edx
    240a:	50                   	push   %eax
    240b:	57                   	push   %edi
    240c:	e8 af 4d 00 00       	call   71c0 <async_answer_0@plt>
    2411:	83 c4 10             	add    $0x10,%esp
    2414:	e9 1f fd ff ff       	jmp    2138 <inet_default_conn+0x78>
    2419:	8d b4 26 00 00 00 00 	lea    0x0(%esi,%eiz,1),%esi
    2420:	51                   	push   %ecx
    2421:	51                   	push   %ecx
    2422:	6a fe                	push   $0xfffffffe
    2424:	57                   	push   %edi
    2425:	e8 96 4d 00 00       	call   71c0 <async_answer_0@plt>
    242a:	83 c4 10             	add    $0x10,%esp
    242d:	e9 06 fd ff ff       	jmp    2138 <inet_default_conn+0x78>
    2432:	8d b6 00 00 00 00    	lea    0x0(%esi),%esi
    2438:	83 bd 64 ff ff ff 14 	cmpl   $0x14,-0x9c(%ebp)
    243f:	0f 85 74 fe ff ff    	jne    22b9 <inet_default_conn+0x1f9>
    2445:	50                   	push   %eax
    2446:	8d 45 b0             	lea    -0x50(%ebp),%eax
    2449:	6a 14                	push   $0x14
    244b:	50                   	push   %eax
    244c:	8b 85 60 ff ff ff    	mov    -0xa0(%ebp),%eax
    2452:	50                   	push   %eax
    2453:	e8 c8 4c 00 00       	call   7120 <async_data_read_finalize@plt>
    2458:	83 c4 10             	add    $0x10,%esp
    245b:	89 c3                	mov    %eax,%ebx
    245d:	85 c0                	test   %eax,%eax
    245f:	0f 84 2f fd ff ff    	je     2194 <inet_default_conn+0xd4>
    2465:	51                   	push   %ecx
    2466:	51                   	push   %ecx
    2467:	50                   	push   %eax
    2468:	8b 85 60 ff ff ff    	mov    -0xa0(%ebp),%eax
    246e:	50                   	push   %eax
    246f:	e8 4c 4d 00 00       	call   71c0 <async_answer_0@plt>
    2474:	59                   	pop    %ecx
    2475:	58                   	pop    %eax
    2476:	53                   	push   %ebx
    2477:	57                   	push   %edi
    2478:	e8 43 4d 00 00       	call   71c0 <async_answer_0@plt>
    247d:	83 c4 10             	add    $0x10,%esp
    2480:	e9 b3 fc ff ff       	jmp    2138 <inet_default_conn+0x78>
    2485:	8d 76 00             	lea    0x0(%esi),%esi
    2488:	50                   	push   %eax
    2489:	50                   	push   %eax
    248a:	8b 85 60 ff ff ff    	mov    -0xa0(%ebp),%eax
    2490:	52                   	push   %edx
    2491:	89 95 50 ff ff ff    	mov    %edx,-0xb0(%ebp)
    2497:	50                   	push   %eax
    2498:	e8 23 4d 00 00       	call   71c0 <async_answer_0@plt>
    249d:	58                   	pop    %eax
    249e:	5a                   	pop    %edx
    249f:	8b 95 50 ff ff ff    	mov    -0xb0(%ebp),%edx
    24a5:	52                   	push   %edx
    24a6:	57                   	push   %edi
    24a7:	e8 14 4d 00 00       	call   71c0 <async_answer_0@plt>
    24ac:	83 c4 10             	add    $0x10,%esp
    24af:	e9 77 fe ff ff       	jmp    232b <inet_default_conn+0x26b>
    24b4:	8d 74 26 00          	lea    0x0(%esi,%eiz,1),%esi
    24b8:	50                   	push   %eax
    24b9:	50                   	push   %eax
    24ba:	8b 85 64 ff ff ff    	mov    -0x9c(%ebp),%eax
    24c0:	52                   	push   %edx
    24c1:	89 95 4c ff ff ff    	mov    %edx,-0xb4(%ebp)
    24c7:	50                   	push   %eax
    24c8:	e8 f3 4c 00 00       	call   71c0 <async_answer_0@plt>
    24cd:	58                   	pop    %eax
    24ce:	5a                   	pop    %edx
    24cf:	8b 95 4c ff ff ff    	mov    -0xb4(%ebp),%edx
    24d5:	52                   	push   %edx
    24d6:	57                   	push   %edi
    24d7:	e8 e4 4c 00 00       	call   71c0 <async_answer_0@plt>
    24dc:	83 c4 10             	add    $0x10,%esp
    24df:	e9 bc fe ff ff       	jmp    23a0 <inet_default_conn+0x2e0>
    24e4:	8b 85 50 ff ff ff    	mov    -0xb0(%ebp),%eax
    24ea:	31 db                	xor    %ebx,%ebx
    24ec:	50                   	push   %eax
    24ed:	31 c0                	xor    %eax,%eax
    24ef:	8a 9d 54 ff ff ff    	mov    -0xac(%ebp),%bl
    24f5:	8a 85 6c ff ff ff    	mov    -0x94(%ebp),%al
    24fb:	53                   	push   %ebx
    24fc:	50                   	push   %eax
    24fd:	8d 45 b0             	lea    -0x50(%ebp),%eax
    2500:	50                   	push   %eax
    2501:	e8 7a f9 ff ff       	call   1e80 <inet_route_packet>
    2506:	89 c3                	mov    %eax,%ebx
    2508:	58                   	pop    %eax
    2509:	8b 45 e0             	mov    -0x20(%ebp),%eax
    250c:	50                   	push   %eax
    250d:	e8 8e 4f 00 00       	call   74a0 <free@plt>
    2512:	e9 5d ff ff ff       	jmp    2474 <inet_default_conn+0x3b4>
    2517:	89 85 4c ff ff ff    	mov    %eax,-0xb4(%ebp)
    251d:	53                   	push   %ebx
    251e:	53                   	push   %ebx
    251f:	50                   	push   %eax
    2520:	8b 85 64 ff ff ff    	mov    -0x9c(%ebp),%eax
    2526:	50                   	push   %eax
    2527:	e8 94 4c 00 00       	call   71c0 <async_answer_0@plt>
    252c:	58                   	pop    %eax
    252d:	5a                   	pop    %edx
    252e:	8b 95 4c ff ff ff    	mov    -0xb4(%ebp),%edx
    2534:	52                   	push   %edx
    2535:	57                   	push   %edi
    2536:	e8 85 4c 00 00       	call   71c0 <async_answer_0@plt>
    253b:	83 c4 10             	add    $0x10,%esp
    253e:	e9 a2 fe ff ff       	jmp    23e5 <inet_default_conn+0x325>
    2543:	8d b6 00 00 00 00    	lea    0x0(%esi),%esi
    2549:	8d bc 27 00 00 00 00 	lea    0x0(%edi,%eiz,1),%edi

00002550 <inet_ev_recv>:
    2550:	55                   	push   %ebp
    2551:	89 e5                	mov    %esp,%ebp
    2553:	57                   	push   %edi
    2554:	56                   	push   %esi
    2555:	53                   	push   %ebx
    2556:	83 ec 58             	sub    $0x58,%esp
    2559:	8b 45 08             	mov    0x8(%ebp),%eax
    255c:	8b 5d 0c             	mov    0xc(%ebp),%ebx
    255f:	8b 00                	mov    (%eax),%eax
    2561:	50                   	push   %eax
    2562:	e8 69 4e 00 00       	call   73d0 <async_exchange_begin@plt>
    2567:	89 c6                	mov    %eax,%esi
    2569:	8b 03                	mov    (%ebx),%eax
    256b:	50                   	push   %eax
    256c:	68 4d 64 00 00       	push   $0x644d
    2571:	6a 03                	push   $0x3
    2573:	6a ff                	push   $0xffffffff
    2575:	e8 66 4c 00 00       	call   71e0 <log_msg@plt>
    257a:	83 c4 1c             	add    $0x1c,%esp
    257d:	8d 45 c4             	lea    -0x3c(%ebp),%eax
    2580:	50                   	push   %eax
    2581:	6a 00                	push   $0x0
    2583:	6a 00                	push   $0x0
    2585:	8b 03                	mov    (%ebx),%eax
    2587:	50                   	push   %eax
    2588:	31 c0                	xor    %eax,%eax
    258a:	8a 43 2c             	mov    0x2c(%ebx),%al
    258d:	50                   	push   %eax
    258e:	68 00 04 00 00       	push   $0x400
    2593:	56                   	push   %esi
    2594:	e8 37 4c 00 00       	call   71d0 <async_send_fast@plt>
    2599:	83 c4 1c             	add    $0x1c,%esp
    259c:	89 c7                	mov    %eax,%edi
    259e:	8d 43 04             	lea    0x4(%ebx),%eax
    25a1:	6a 14                	push   $0x14
    25a3:	50                   	push   %eax
    25a4:	56                   	push   %esi
    25a5:	e8 36 4b 00 00       	call   70e0 <async_data_write_start@plt>
    25aa:	83 c4 10             	add    $0x10,%esp
    25ad:	85 c0                	test   %eax,%eax
    25af:	75 57                	jne    2608 <inet_ev_recv+0xb8>
    25b1:	50                   	push   %eax
    25b2:	8d 43 18             	lea    0x18(%ebx),%eax
    25b5:	6a 14                	push   $0x14
    25b7:	50                   	push   %eax
    25b8:	56                   	push   %esi
    25b9:	e8 22 4b 00 00       	call   70e0 <async_data_write_start@plt>
    25be:	83 c4 10             	add    $0x10,%esp
    25c1:	85 c0                	test   %eax,%eax
    25c3:	75 43                	jne    2608 <inet_ev_recv+0xb8>
    25c5:	52                   	push   %edx
    25c6:	8b 4b 34             	mov    0x34(%ebx),%ecx
    25c9:	8b 5b 30             	mov    0x30(%ebx),%ebx
    25cc:	51                   	push   %ecx
    25cd:	53                   	push   %ebx
    25ce:	56                   	push   %esi
    25cf:	e8 0c 4b 00 00       	call   70e0 <async_data_write_start@plt>
    25d4:	89 34 24             	mov    %esi,(%esp)
    25d7:	89 45 b4             	mov    %eax,-0x4c(%ebp)
    25da:	e8 21 4c 00 00       	call   7200 <async_exchange_end@plt>
    25df:	8b 45 b4             	mov    -0x4c(%ebp),%eax
    25e2:	83 c4 10             	add    $0x10,%esp
    25e5:	85 c0                	test   %eax,%eax
    25e7:	75 47                	jne    2630 <inet_ev_recv+0xe0>
    25e9:	50                   	push   %eax
    25ea:	50                   	push   %eax
    25eb:	8d 45 c0             	lea    -0x40(%ebp),%eax
    25ee:	50                   	push   %eax
    25ef:	57                   	push   %edi
    25f0:	e8 cb 4a 00 00       	call   70c0 <async_wait_for@plt>
    25f5:	8b 45 c0             	mov    -0x40(%ebp),%eax
    25f8:	83 c4 10             	add    $0x10,%esp
    25fb:	8d 65 f4             	lea    -0xc(%ebp),%esp
    25fe:	5b                   	pop    %ebx
    25ff:	5e                   	pop    %esi
    2600:	5f                   	pop    %edi
    2601:	5d                   	pop    %ebp
    2602:	c3                   	ret    
    2603:	90                   	nop
    2604:	8d 74 26 00          	lea    0x0(%esi,%eiz,1),%esi
    2608:	83 ec 0c             	sub    $0xc,%esp
    260b:	89 45 b4             	mov    %eax,-0x4c(%ebp)
    260e:	56                   	push   %esi
    260f:	e8 ec 4b 00 00       	call   7200 <async_exchange_end@plt>
    2614:	89 3c 24             	mov    %edi,(%esp)
    2617:	e8 14 4e 00 00       	call   7430 <async_forget@plt>
    261c:	8b 45 b4             	mov    -0x4c(%ebp),%eax
    261f:	83 c4 10             	add    $0x10,%esp
    2622:	8d 65 f4             	lea    -0xc(%ebp),%esp
    2625:	5b                   	pop    %ebx
    2626:	5e                   	pop    %esi
    2627:	5f                   	pop    %edi
    2628:	5d                   	pop    %ebp
    2629:	c3                   	ret    
    262a:	8d b6 00 00 00 00    	lea    0x0(%esi),%esi
    2630:	83 ec 0c             	sub    $0xc,%esp
    2633:	57                   	push   %edi
    2634:	e8 f7 4d 00 00       	call   7430 <async_forget@plt>
    2639:	8b 45 b4             	mov    -0x4c(%ebp),%eax
    263c:	83 c4 10             	add    $0x10,%esp
    263f:	8d 65 f4             	lea    -0xc(%ebp),%esp
    2642:	5b                   	pop    %ebx
    2643:	5e                   	pop    %esi
    2644:	5f                   	pop    %edi
    2645:	5d                   	pop    %ebp
    2646:	c3                   	ret    
    2647:	89 f6                	mov    %esi,%esi
    2649:	8d bc 27 00 00 00 00 	lea    0x0(%edi,%eiz,1),%edi

00002650 <inet_recv_dgram_local>:
    2650:	55                   	push   %ebp
    2651:	89 e5                	mov    %esp,%ebp
    2653:	57                   	push   %edi
    2654:	56                   	push   %esi
    2655:	53                   	push   %ebx
    2656:	83 ec 20             	sub    $0x20,%esp
    2659:	8b 5d 0c             	mov    0xc(%ebp),%ebx
    265c:	8b 75 08             	mov    0x8(%ebp),%esi
    265f:	68 66 64 00 00       	push   $0x6466
    2664:	6a 04                	push   $0x4
    2666:	6a ff                	push   $0xffffffff
    2668:	88 5d e7             	mov    %bl,-0x19(%ebp)
    266b:	e8 70 4b 00 00       	call   71e0 <log_msg@plt>
    2670:	83 c4 10             	add    $0x10,%esp
    2673:	8a 55 e7             	mov    -0x19(%ebp),%dl
    2676:	80 fb 01             	cmp    $0x1,%bl
    2679:	0f 84 b8 00 00 00    	je     2737 <inet_recv_dgram_local+0xe7>
    267f:	80 fb 3a             	cmp    $0x3a,%bl
    2682:	0f 84 a0 00 00 00    	je     2728 <inet_recv_dgram_local+0xd8>
    2688:	83 ec 0c             	sub    $0xc,%esp
    268b:	88 55 e7             	mov    %dl,-0x19(%ebp)
    268e:	68 40 91 00 00       	push   $0x9140
    2693:	e8 18 4e 00 00       	call   74b0 <fibril_mutex_lock@plt>
    2698:	a1 3c 91 00 00       	mov    0x913c,%eax
    269d:	83 c4 10             	add    $0x10,%esp
    26a0:	3d 38 91 00 00       	cmp    $0x9138,%eax
    26a5:	8d 78 f8             	lea    -0x8(%eax),%edi
    26a8:	74 20                	je     26ca <inet_recv_dgram_local+0x7a>
    26aa:	3a 5f 04             	cmp    0x4(%edi),%bl
    26ad:	8a 55 e7             	mov    -0x19(%ebp),%dl
    26b0:	75 0b                	jne    26bd <inet_recv_dgram_local+0x6d>
    26b2:	eb 4c                	jmp    2700 <inet_recv_dgram_local+0xb0>
    26b4:	8d 74 26 00          	lea    0x0(%esi,%eiz,1),%esi
    26b8:	3a 57 04             	cmp    0x4(%edi),%dl
    26bb:	74 43                	je     2700 <inet_recv_dgram_local+0xb0>
    26bd:	8b 40 04             	mov    0x4(%eax),%eax
    26c0:	3d 38 91 00 00       	cmp    $0x9138,%eax
    26c5:	8d 78 f8             	lea    -0x8(%eax),%edi
    26c8:	75 ee                	jne    26b8 <inet_recv_dgram_local+0x68>
    26ca:	83 ec 0c             	sub    $0xc,%esp
    26cd:	81 e3 ff 00 00 00    	and    $0xff,%ebx
    26d3:	68 40 91 00 00       	push   $0x9140
    26d8:	e8 c3 4b 00 00       	call   72a0 <fibril_mutex_unlock@plt>
    26dd:	53                   	push   %ebx
    26de:	68 c0 64 00 00       	push   $0x64c0
    26e3:	6a 04                	push   $0x4
    26e5:	6a ff                	push   $0xffffffff
    26e7:	e8 f4 4a 00 00       	call   71e0 <log_msg@plt>
    26ec:	83 c4 20             	add    $0x20,%esp
    26ef:	8d 65 f4             	lea    -0xc(%ebp),%esp
    26f2:	83 c8 ff             	or     $0xffffffff,%eax
    26f5:	5b                   	pop    %ebx
    26f6:	5e                   	pop    %esi
    26f7:	5f                   	pop    %edi
    26f8:	5d                   	pop    %ebp
    26f9:	c3                   	ret    
    26fa:	8d b6 00 00 00 00    	lea    0x0(%esi),%esi
    2700:	83 ec 0c             	sub    $0xc,%esp
    2703:	68 40 91 00 00       	push   $0x9140
    2708:	e8 93 4b 00 00       	call   72a0 <fibril_mutex_unlock@plt>
    270d:	89 75 0c             	mov    %esi,0xc(%ebp)
    2710:	89 7d 08             	mov    %edi,0x8(%ebp)
    2713:	83 c4 10             	add    $0x10,%esp
    2716:	8d 65 f4             	lea    -0xc(%ebp),%esp
    2719:	5b                   	pop    %ebx
    271a:	5e                   	pop    %esi
    271b:	5f                   	pop    %edi
    271c:	5d                   	pop    %ebp
    271d:	e9 2e fe ff ff       	jmp    2550 <inet_ev_recv>
    2722:	8d b6 00 00 00 00    	lea    0x0(%esi),%esi
    2728:	89 75 08             	mov    %esi,0x8(%ebp)
    272b:	8d 65 f4             	lea    -0xc(%ebp),%esp
    272e:	5b                   	pop    %ebx
    272f:	5e                   	pop    %esi
    2730:	5f                   	pop    %edi
    2731:	5d                   	pop    %ebp
    2732:	e9 e9 f2 ff ff       	jmp    1a20 <icmpv6_recv>
    2737:	89 75 08             	mov    %esi,0x8(%ebp)
    273a:	8d 65 f4             	lea    -0xc(%ebp),%esp
    273d:	5b                   	pop    %ebx
    273e:	5e                   	pop    %esi
    273f:	5f                   	pop    %edi
    2740:	5d                   	pop    %ebp
    2741:	e9 fa ef ff ff       	jmp    1740 <icmp_recv>
    2746:	8d 76 00             	lea    0x0(%esi),%esi
    2749:	8d bc 27 00 00 00 00 	lea    0x0(%edi,%eiz,1),%edi

00002750 <inet_recv_packet>:
    2750:	55                   	push   %ebp
    2751:	89 e5                	mov    %esp,%ebp
    2753:	56                   	push   %esi
    2754:	53                   	push   %ebx
    2755:	83 ec 58             	sub    $0x58,%esp
    2758:	8b 5d 08             	mov    0x8(%ebp),%ebx
    275b:	6a 01                	push   $0x1
    275d:	8d 73 18             	lea    0x18(%ebx),%esi
    2760:	56                   	push   %esi
    2761:	e8 da eb ff ff       	call   1340 <inet_addrobj_find>
    2766:	83 c4 10             	add    $0x10,%esp
    2769:	85 c0                	test   %eax,%eax
    276b:	0f 84 6c 01 00 00    	je     28dd <inet_recv_packet+0x18d>
    2771:	8b 43 38             	mov    0x38(%ebx),%eax
    2774:	85 c0                	test   %eax,%eax
    2776:	0f 85 3a 01 00 00    	jne    28b6 <inet_recv_packet+0x166>
    277c:	80 7b 35 00          	cmpb   $0x0,0x35(%ebx)
    2780:	0f 85 30 01 00 00    	jne    28b6 <inet_recv_packet+0x166>
    2786:	8b 03                	mov    (%ebx),%eax
    2788:	8a 4b 2d             	mov    0x2d(%ebx),%cl
    278b:	89 45 c0             	mov    %eax,-0x40(%ebp)
    278e:	8b 43 04             	mov    0x4(%ebx),%eax
    2791:	89 45 c4             	mov    %eax,-0x3c(%ebp)
    2794:	8b 43 08             	mov    0x8(%ebx),%eax
    2797:	89 45 c8             	mov    %eax,-0x38(%ebp)
    279a:	8b 43 0c             	mov    0xc(%ebx),%eax
    279d:	89 45 cc             	mov    %eax,-0x34(%ebp)
    27a0:	8b 43 10             	mov    0x10(%ebx),%eax
    27a3:	89 45 d0             	mov    %eax,-0x30(%ebp)
    27a6:	8b 43 14             	mov    0x14(%ebx),%eax
    27a9:	89 45 d4             	mov    %eax,-0x2c(%ebp)
    27ac:	8b 43 18             	mov    0x18(%ebx),%eax
    27af:	89 45 d8             	mov    %eax,-0x28(%ebp)
    27b2:	8b 43 1c             	mov    0x1c(%ebx),%eax
    27b5:	89 45 dc             	mov    %eax,-0x24(%ebp)
    27b8:	8b 43 20             	mov    0x20(%ebx),%eax
    27bb:	89 45 e0             	mov    %eax,-0x20(%ebp)
    27be:	8b 43 24             	mov    0x24(%ebx),%eax
    27c1:	89 45 e4             	mov    %eax,-0x1c(%ebp)
    27c4:	8b 43 28             	mov    0x28(%ebx),%eax
    27c7:	89 45 e8             	mov    %eax,-0x18(%ebp)
    27ca:	8a 43 2c             	mov    0x2c(%ebx),%al
    27cd:	88 45 ec             	mov    %al,-0x14(%ebp)
    27d0:	8b 43 3c             	mov    0x3c(%ebx),%eax
    27d3:	89 45 f0             	mov    %eax,-0x10(%ebp)
    27d6:	8b 43 40             	mov    0x40(%ebx),%eax
    27d9:	88 4d b7             	mov    %cl,-0x49(%ebp)
    27dc:	89 45 f4             	mov    %eax,-0xc(%ebp)
    27df:	51                   	push   %ecx
    27e0:	68 66 64 00 00       	push   $0x6466
    27e5:	6a 04                	push   $0x4
    27e7:	6a ff                	push   $0xffffffff
    27e9:	e8 f2 49 00 00       	call   71e0 <log_msg@plt>
    27ee:	8a 4d b7             	mov    -0x49(%ebp),%cl
    27f1:	83 c4 10             	add    $0x10,%esp
    27f4:	80 f9 01             	cmp    $0x1,%cl
    27f7:	0f 84 cf 00 00 00    	je     28cc <inet_recv_packet+0x17c>
    27fd:	80 f9 3a             	cmp    $0x3a,%cl
    2800:	0f 84 9a 00 00 00    	je     28a0 <inet_recv_packet+0x150>
    2806:	83 ec 0c             	sub    $0xc,%esp
    2809:	88 4d b7             	mov    %cl,-0x49(%ebp)
    280c:	68 40 91 00 00       	push   $0x9140
    2811:	e8 9a 4c 00 00       	call   74b0 <fibril_mutex_lock@plt>
    2816:	a1 3c 91 00 00       	mov    0x913c,%eax
    281b:	83 c4 10             	add    $0x10,%esp
    281e:	8a 4d b7             	mov    -0x49(%ebp),%cl
    2821:	3d 38 91 00 00       	cmp    $0x9138,%eax
    2826:	8d 58 f8             	lea    -0x8(%eax),%ebx
    2829:	75 12                	jne    283d <inet_recv_packet+0xed>
    282b:	eb 3b                	jmp    2868 <inet_recv_packet+0x118>
    282d:	8d 76 00             	lea    0x0(%esi),%esi
    2830:	8b 40 04             	mov    0x4(%eax),%eax
    2833:	3d 38 91 00 00       	cmp    $0x9138,%eax
    2838:	8d 58 f8             	lea    -0x8(%eax),%ebx
    283b:	74 2b                	je     2868 <inet_recv_packet+0x118>
    283d:	3a 4b 04             	cmp    0x4(%ebx),%cl
    2840:	75 ee                	jne    2830 <inet_recv_packet+0xe0>
    2842:	83 ec 0c             	sub    $0xc,%esp
    2845:	68 40 91 00 00       	push   $0x9140
    284a:	e8 51 4a 00 00       	call   72a0 <fibril_mutex_unlock@plt>
    284f:	58                   	pop    %eax
    2850:	8d 45 c0             	lea    -0x40(%ebp),%eax
    2853:	5a                   	pop    %edx
    2854:	50                   	push   %eax
    2855:	53                   	push   %ebx
    2856:	e8 f5 fc ff ff       	call   2550 <inet_ev_recv>
    285b:	83 c4 10             	add    $0x10,%esp
    285e:	8d 65 f8             	lea    -0x8(%ebp),%esp
    2861:	5b                   	pop    %ebx
    2862:	5e                   	pop    %esi
    2863:	5d                   	pop    %ebp
    2864:	c3                   	ret    
    2865:	8d 76 00             	lea    0x0(%esi),%esi
    2868:	83 ec 0c             	sub    $0xc,%esp
    286b:	88 4d b7             	mov    %cl,-0x49(%ebp)
    286e:	68 40 91 00 00       	push   $0x9140
    2873:	e8 28 4a 00 00       	call   72a0 <fibril_mutex_unlock@plt>
    2878:	8a 4d b7             	mov    -0x49(%ebp),%cl
    287b:	31 d2                	xor    %edx,%edx
    287d:	88 ca                	mov    %cl,%dl
    287f:	52                   	push   %edx
    2880:	68 c0 64 00 00       	push   $0x64c0
    2885:	6a 04                	push   $0x4
    2887:	6a ff                	push   $0xffffffff
    2889:	e8 52 49 00 00       	call   71e0 <log_msg@plt>
    288e:	83 c4 20             	add    $0x20,%esp
    2891:	8d 65 f8             	lea    -0x8(%ebp),%esp
    2894:	83 c8 ff             	or     $0xffffffff,%eax
    2897:	5b                   	pop    %ebx
    2898:	5e                   	pop    %esi
    2899:	5d                   	pop    %ebp
    289a:	c3                   	ret    
    289b:	90                   	nop
    289c:	8d 74 26 00          	lea    0x0(%esi,%eiz,1),%esi
    28a0:	83 ec 0c             	sub    $0xc,%esp
    28a3:	8d 45 c0             	lea    -0x40(%ebp),%eax
    28a6:	50                   	push   %eax
    28a7:	e8 74 f1 ff ff       	call   1a20 <icmpv6_recv>
    28ac:	83 c4 10             	add    $0x10,%esp
    28af:	8d 65 f8             	lea    -0x8(%ebp),%esp
    28b2:	5b                   	pop    %ebx
    28b3:	5e                   	pop    %esi
    28b4:	5d                   	pop    %ebp
    28b5:	c3                   	ret    
    28b6:	83 ec 0c             	sub    $0xc,%esp
    28b9:	53                   	push   %ebx
    28ba:	e8 41 2f 00 00       	call   5800 <inet_reass_queue_packet>
    28bf:	83 c4 10             	add    $0x10,%esp
    28c2:	8d 65 f8             	lea    -0x8(%ebp),%esp
    28c5:	83 c8 ff             	or     $0xffffffff,%eax
    28c8:	5b                   	pop    %ebx
    28c9:	5e                   	pop    %esi
    28ca:	5d                   	pop    %ebp
    28cb:	c3                   	ret    
    28cc:	83 ec 0c             	sub    $0xc,%esp
    28cf:	8d 45 c0             	lea    -0x40(%ebp),%eax
    28d2:	50                   	push   %eax
    28d3:	e8 68 ee ff ff       	call   1740 <icmp_recv>
    28d8:	83 c4 10             	add    $0x10,%esp
    28db:	eb 81                	jmp    285e <inet_recv_packet+0x10e>
    28dd:	50                   	push   %eax
    28de:	50                   	push   %eax
    28df:	56                   	push   %esi
    28e0:	68 78 91 00 00       	push   $0x9178
    28e5:	e8 56 48 00 00       	call   7140 <inet_naddr_compare_mask@plt>
    28ea:	83 c4 10             	add    $0x10,%esp
    28ed:	85 c0                	test   %eax,%eax
    28ef:	0f 85 7c fe ff ff    	jne    2771 <inet_recv_packet+0x21>
    28f5:	50                   	push   %eax
    28f6:	50                   	push   %eax
    28f7:	56                   	push   %esi
    28f8:	68 50 91 00 00       	push   $0x9150
    28fd:	e8 6e 4a 00 00       	call   7370 <inet_addr_compare@plt>
    2902:	83 c4 10             	add    $0x10,%esp
    2905:	85 c0                	test   %eax,%eax
    2907:	0f 85 64 fe ff ff    	jne    2771 <inet_recv_packet+0x21>
    290d:	50                   	push   %eax
    290e:	50                   	push   %eax
    290f:	56                   	push   %esi
    2910:	68 64 91 00 00       	push   $0x9164
    2915:	e8 56 4a 00 00       	call   7370 <inet_addr_compare@plt>
    291a:	83 c4 10             	add    $0x10,%esp
    291d:	85 c0                	test   %eax,%eax
    291f:	0f 85 4c fe ff ff    	jne    2771 <inet_recv_packet+0x21>
    2925:	eb 9b                	jmp    28c2 <inet_recv_packet+0x172>
    2927:	66 90                	xchg   %ax,%ax
    2929:	66 90                	xchg   %ax,%ax
    292b:	66 90                	xchg   %ax,%ax
    292d:	66 90                	xchg   %ax,%ax
    292f:	90                   	nop

00002930 <main>:
    2930:	8d 4c 24 04          	lea    0x4(%esp),%ecx
    2934:	83 e4 f0             	and    $0xfffffff0,%esp
    2937:	ff 71 fc             	pushl  -0x4(%ecx)
    293a:	55                   	push   %ebp
    293b:	89 e5                	mov    %esp,%ebp
    293d:	53                   	push   %ebx
    293e:	51                   	push   %ecx
    293f:	83 ec 1c             	sub    $0x1c,%esp
    2942:	68 e4 64 00 00       	push   $0x64e4
    2947:	e8 44 47 00 00       	call   7090 <printf@plt>
    294c:	c7 04 24 7e 64 00 00 	movl   $0x647e,(%esp)
    2953:	e8 78 47 00 00       	call   70d0 <log_init@plt>
    2958:	83 c4 10             	add    $0x10,%esp
    295b:	85 c0                	test   %eax,%eax
    295d:	0f 85 df 00 00 00    	jne    2a42 <main+0x112>
    2963:	8d 5d f0             	lea    -0x10(%ebp),%ebx
    2966:	51                   	push   %ecx
    2967:	68 86 64 00 00       	push   $0x6486
    296c:	6a 04                	push   $0x4
    296e:	6a ff                	push   $0xffffffff
    2970:	e8 6b 48 00 00       	call   71e0 <log_msg@plt>
    2975:	53                   	push   %ebx
    2976:	6a 00                	push   $0x0
    2978:	68 c0 20 00 00       	push   $0x20c0
    297d:	68 91 76 97 e9       	push   $0xe9977691
    2982:	e8 69 4a 00 00       	call   73f0 <async_create_port@plt>
    2987:	83 c4 20             	add    $0x20,%esp
    298a:	85 c0                	test   %eax,%eax
    298c:	74 11                	je     299f <main+0x6f>
    298e:	bb 01 00 00 00       	mov    $0x1,%ebx
    2993:	8d 65 f8             	lea    -0x8(%ebp),%esp
    2996:	89 d8                	mov    %ebx,%eax
    2998:	59                   	pop    %ecx
    2999:	5b                   	pop    %ebx
    299a:	5d                   	pop    %ebp
    299b:	8d 61 fc             	lea    -0x4(%ecx),%esp
    299e:	c3                   	ret    
    299f:	53                   	push   %ebx
    29a0:	6a 00                	push   $0x0
    29a2:	68 f0 34 00 00       	push   $0x34f0
    29a7:	68 91 1e 9b cf       	push   $0xcf9b1e91
    29ac:	e8 3f 4a 00 00       	call   73f0 <async_create_port@plt>
    29b1:	83 c4 10             	add    $0x10,%esp
    29b4:	85 c0                	test   %eax,%eax
    29b6:	75 d6                	jne    298e <main+0x5e>
    29b8:	53                   	push   %ebx
    29b9:	6a 00                	push   $0x0
    29bb:	68 00 43 00 00       	push   $0x4300
    29c0:	68 91 86 bb cf       	push   $0xcfbb8691
    29c5:	e8 26 4a 00 00       	call   73f0 <async_create_port@plt>
    29ca:	83 c4 10             	add    $0x10,%esp
    29cd:	85 c0                	test   %eax,%eax
    29cf:	75 bd                	jne    298e <main+0x5e>
    29d1:	83 ec 0c             	sub    $0xc,%esp
    29d4:	68 7e 64 00 00       	push   $0x647e
    29d9:	e8 82 49 00 00       	call   7360 <loc_server_register@plt>
    29de:	83 c4 10             	add    $0x10,%esp
    29e1:	85 c0                	test   %eax,%eax
    29e3:	0f 85 90 00 00 00    	jne    2a79 <main+0x149>
    29e9:	8d 45 f4             	lea    -0xc(%ebp),%eax
    29ec:	52                   	push   %edx
    29ed:	52                   	push   %edx
    29ee:	50                   	push   %eax
    29ef:	68 92 64 00 00       	push   $0x6492
    29f4:	e8 f7 46 00 00       	call   70f0 <loc_service_register@plt>
    29f9:	83 c4 10             	add    $0x10,%esp
    29fc:	89 c3                	mov    %eax,%ebx
    29fe:	85 c0                	test   %eax,%eax
    2a00:	0f 85 8a 00 00 00    	jne    2a90 <main+0x160>
    2a06:	83 ec 0c             	sub    $0xc,%esp
    2a09:	68 7c 65 00 00       	push   $0x657c
    2a0e:	e8 7d 46 00 00       	call   7090 <printf@plt>
    2a13:	c7 04 24 00 00 00 00 	movl   $0x0,(%esp)
    2a1a:	e8 51 46 00 00       	call   7070 <task_retval@plt>
    2a1f:	83 c8 ff             	or     $0xffffffff,%eax
    2a22:	f0 0f c1 05 74 93 00 	lock xadd %eax,0x9374
    2a29:	00 
    2a2a:	83 c4 10             	add    $0x10,%esp
    2a2d:	48                   	dec    %eax
    2a2e:	78 2c                	js     2a5c <main+0x12c>
    2a30:	83 ec 0c             	sub    $0xc,%esp
    2a33:	6a 03                	push   $0x3
    2a35:	e8 26 4a 00 00       	call   7460 <fibril_switch@plt>
    2a3a:	83 c4 10             	add    $0x10,%esp
    2a3d:	e9 51 ff ff ff       	jmp    2993 <main+0x63>
    2a42:	83 ec 0c             	sub    $0xc,%esp
    2a45:	bb 01 00 00 00       	mov    $0x1,%ebx
    2a4a:	68 10 65 00 00       	push   $0x6510
    2a4f:	e8 3c 46 00 00       	call   7090 <printf@plt>
    2a54:	83 c4 10             	add    $0x10,%esp
    2a57:	e9 37 ff ff ff       	jmp    2993 <main+0x63>
    2a5c:	50                   	push   %eax
    2a5d:	6a 0b                	push   $0xb
    2a5f:	6a 00                	push   $0x0
    2a61:	6a 00                	push   $0x0
    2a63:	6a 00                	push   $0x0
    2a65:	6a 00                	push   $0x0
    2a67:	6a 00                	push   $0x0
    2a69:	68 74 93 00 00       	push   $0x9374
    2a6e:	ff 15 70 93 00 00    	call   *0x9370
    2a74:	83 c4 20             	add    $0x20,%esp
    2a77:	eb b7                	jmp    2a30 <main+0x100>
    2a79:	50                   	push   %eax
    2a7a:	68 38 65 00 00       	push   $0x6538
    2a7f:	6a 01                	push   $0x1
    2a81:	6a ff                	push   $0xffffffff
    2a83:	e8 58 47 00 00       	call   71e0 <log_msg@plt>
    2a88:	83 c4 10             	add    $0x10,%esp
    2a8b:	e9 fe fe ff ff       	jmp    298e <main+0x5e>
    2a90:	50                   	push   %eax
    2a91:	68 58 65 00 00       	push   $0x6558
    2a96:	6a 01                	push   $0x1
    2a98:	6a ff                	push   $0xffffffff
    2a9a:	e8 41 47 00 00       	call   71e0 <log_msg@plt>
    2a9f:	83 c4 10             	add    $0x10,%esp
    2aa2:	e9 e7 fe ff ff       	jmp    298e <main+0x5e>
    2aa7:	66 90                	xchg   %ax,%ax
    2aa9:	66 90                	xchg   %ax,%ax
    2aab:	66 90                	xchg   %ax,%ax
    2aad:	66 90                	xchg   %ax,%ax
    2aaf:	90                   	nop

00002ab0 <inet_iplink_change_addr>:
    2ab0:	55                   	push   %ebp
    2ab1:	31 c0                	xor    %eax,%eax
    2ab3:	89 e5                	mov    %esp,%ebp
    2ab5:	57                   	push   %edi
    2ab6:	56                   	push   %esi
    2ab7:	53                   	push   %ebx
    2ab8:	83 ec 18             	sub    $0x18,%esp
    2abb:	8b 7d 0c             	mov    0xc(%ebp),%edi
    2abe:	8b 75 08             	mov    0x8(%ebp),%esi
    2ac1:	8a 47 05             	mov    0x5(%edi),%al
    2ac4:	50                   	push   %eax
    2ac5:	31 c0                	xor    %eax,%eax
    2ac7:	8a 47 04             	mov    0x4(%edi),%al
    2aca:	50                   	push   %eax
    2acb:	31 c0                	xor    %eax,%eax
    2acd:	8a 47 03             	mov    0x3(%edi),%al
    2ad0:	50                   	push   %eax
    2ad1:	31 c0                	xor    %eax,%eax
    2ad3:	8a 47 02             	mov    0x2(%edi),%al
    2ad6:	50                   	push   %eax
    2ad7:	31 c0                	xor    %eax,%eax
    2ad9:	8a 47 01             	mov    0x1(%edi),%al
    2adc:	50                   	push   %eax
    2add:	31 c0                	xor    %eax,%eax
    2adf:	8a 07                	mov    (%edi),%al
    2ae1:	50                   	push   %eax
    2ae2:	68 a0 65 00 00       	push   $0x65a0
    2ae7:	6a 04                	push   $0x4
    2ae9:	6a ff                	push   $0xffffffff
    2aeb:	e8 f0 46 00 00       	call   71e0 <log_msg@plt>
    2af0:	8b 1d b4 91 00 00    	mov    0x91b4,%ebx
    2af6:	83 c4 30             	add    $0x30,%esp
    2af9:	81 fb b0 91 00 00    	cmp    $0x91b0,%ebx
    2aff:	74 19                	je     2b1a <inet_iplink_change_addr+0x6a>
    2b01:	8d b4 26 00 00 00 00 	lea    0x0(%esi,%eiz,1),%esi
    2b08:	8b 06                	mov    (%esi),%eax
    2b0a:	39 43 10             	cmp    %eax,0x10(%ebx)
    2b0d:	74 19                	je     2b28 <inet_iplink_change_addr+0x78>
    2b0f:	8b 5b 04             	mov    0x4(%ebx),%ebx
    2b12:	81 fb b0 91 00 00    	cmp    $0x91b0,%ebx
    2b18:	75 ee                	jne    2b08 <inet_iplink_change_addr+0x58>
    2b1a:	8d 65 f4             	lea    -0xc(%ebp),%esp
    2b1d:	31 c0                	xor    %eax,%eax
    2b1f:	5b                   	pop    %ebx
    2b20:	5e                   	pop    %esi
    2b21:	5f                   	pop    %edi
    2b22:	5d                   	pop    %ebp
    2b23:	c3                   	ret    
    2b24:	8d 74 26 00          	lea    0x0(%esi,%eiz,1),%esi
    2b28:	50                   	push   %eax
    2b29:	8d 43 1c             	lea    0x1c(%ebx),%eax
    2b2c:	6a 06                	push   $0x6
    2b2e:	57                   	push   %edi
    2b2f:	50                   	push   %eax
    2b30:	e8 1b 46 00 00       	call   7150 <memcpy@plt>
    2b35:	83 c4 10             	add    $0x10,%esp
    2b38:	eb d5                	jmp    2b0f <inet_iplink_change_addr+0x5f>
    2b3a:	8d b6 00 00 00 00    	lea    0x0(%esi),%esi

00002b40 <inet_iplink_recv>:
    2b40:	55                   	push   %ebp
    2b41:	89 e5                	mov    %esp,%ebp
    2b43:	56                   	push   %esi
    2b44:	53                   	push   %ebx
    2b45:	83 ec 64             	sub    $0x64,%esp
    2b48:	8b 5d 0c             	mov    0xc(%ebp),%ebx
    2b4b:	68 ca 66 00 00       	push   $0x66ca
    2b50:	6a 04                	push   $0x4
    2b52:	6a ff                	push   $0xffffffff
    2b54:	e8 87 46 00 00       	call   71e0 <log_msg@plt>
    2b59:	8b 4d 08             	mov    0x8(%ebp),%ecx
    2b5c:	5a                   	pop    %edx
    2b5d:	51                   	push   %ecx
    2b5e:	e8 3d 46 00 00       	call   71a0 <iplink_get_userptr@plt>
    2b63:	83 c4 10             	add    $0x10,%esp
    2b66:	83 7d 10 01          	cmpl   $0x1,0x10(%ebp)
    2b6a:	0f 84 a0 00 00 00    	je     2c10 <inet_iplink_recv+0xd0>
    2b70:	83 7d 10 02          	cmpl   $0x2,0x10(%ebp)
    2b74:	75 7a                	jne    2bf0 <inet_iplink_recv+0xb0>
    2b76:	8b 40 08             	mov    0x8(%eax),%eax
    2b79:	8d 75 b4             	lea    -0x4c(%ebp),%esi
    2b7c:	56                   	push   %esi
    2b7d:	50                   	push   %eax
    2b7e:	8b 43 04             	mov    0x4(%ebx),%eax
    2b81:	50                   	push   %eax
    2b82:	8b 03                	mov    (%ebx),%eax
    2b84:	50                   	push   %eax
    2b85:	e8 36 28 00 00       	call   53c0 <inet_pdu_decode6>
    2b8a:	83 c4 10             	add    $0x10,%esp
    2b8d:	85 c0                	test   %eax,%eax
    2b8f:	0f 85 9a 00 00 00    	jne    2c2f <inet_iplink_recv+0xef>
    2b95:	8b 45 b4             	mov    -0x4c(%ebp),%eax
    2b98:	50                   	push   %eax
    2b99:	68 04 67 00 00       	push   $0x6704
    2b9e:	6a 03                	push   $0x3
    2ba0:	6a ff                	push   $0xffffffff
    2ba2:	e8 39 46 00 00       	call   71e0 <log_msg@plt>
    2ba7:	83 c4 0c             	add    $0xc,%esp
    2baa:	68 22 67 00 00       	push   $0x6722
    2baf:	6a 04                	push   $0x4
    2bb1:	6a ff                	push   $0xffffffff
    2bb3:	e8 28 46 00 00       	call   71e0 <log_msg@plt>
    2bb8:	89 34 24             	mov    %esi,(%esp)
    2bbb:	e8 90 fb ff ff       	call   2750 <inet_recv_packet>
    2bc0:	50                   	push   %eax
    2bc1:	68 3a 67 00 00       	push   $0x673a
    2bc6:	6a 04                	push   $0x4
    2bc8:	6a ff                	push   $0xffffffff
    2bca:	89 45 a4             	mov    %eax,-0x5c(%ebp)
    2bcd:	e8 0e 46 00 00       	call   71e0 <log_msg@plt>
    2bd2:	83 c4 14             	add    $0x14,%esp
    2bd5:	8b 55 f0             	mov    -0x10(%ebp),%edx
    2bd8:	52                   	push   %edx
    2bd9:	e8 c2 48 00 00       	call   74a0 <free@plt>
    2bde:	8b 45 a4             	mov    -0x5c(%ebp),%eax
    2be1:	83 c4 10             	add    $0x10,%esp
    2be4:	8d 65 f8             	lea    -0x8(%ebp),%esp
    2be7:	5b                   	pop    %ebx
    2be8:	5e                   	pop    %esi
    2be9:	5d                   	pop    %ebp
    2bea:	c3                   	ret    
    2beb:	90                   	nop
    2bec:	8d 74 26 00          	lea    0x0(%esi,%eiz,1),%esi
    2bf0:	53                   	push   %ebx
    2bf1:	68 dd 66 00 00       	push   $0x66dd
    2bf6:	6a 04                	push   $0x4
    2bf8:	6a ff                	push   $0xffffffff
    2bfa:	e8 e1 45 00 00       	call   71e0 <log_msg@plt>
    2bff:	83 c4 10             	add    $0x10,%esp
    2c02:	8d 65 f8             	lea    -0x8(%ebp),%esp
    2c05:	b8 f2 ff ff ff       	mov    $0xfffffff2,%eax
    2c0a:	5b                   	pop    %ebx
    2c0b:	5e                   	pop    %esi
    2c0c:	5d                   	pop    %ebp
    2c0d:	c3                   	ret    
    2c0e:	66 90                	xchg   %ax,%ax
    2c10:	8b 40 08             	mov    0x8(%eax),%eax
    2c13:	8d 75 b4             	lea    -0x4c(%ebp),%esi
    2c16:	56                   	push   %esi
    2c17:	50                   	push   %eax
    2c18:	8b 43 04             	mov    0x4(%ebx),%eax
    2c1b:	50                   	push   %eax
    2c1c:	8b 03                	mov    (%ebx),%eax
    2c1e:	50                   	push   %eax
    2c1f:	e8 0c 26 00 00       	call   5230 <inet_pdu_decode>
    2c24:	83 c4 10             	add    $0x10,%esp
    2c27:	85 c0                	test   %eax,%eax
    2c29:	0f 84 66 ff ff ff    	je     2b95 <inet_iplink_recv+0x55>
    2c2f:	51                   	push   %ecx
    2c30:	68 f0 66 00 00       	push   $0x66f0
    2c35:	6a 04                	push   $0x4
    2c37:	6a ff                	push   $0xffffffff
    2c39:	89 45 a4             	mov    %eax,-0x5c(%ebp)
    2c3c:	e8 9f 45 00 00       	call   71e0 <log_msg@plt>
    2c41:	8b 45 a4             	mov    -0x5c(%ebp),%eax
    2c44:	83 c4 10             	add    $0x10,%esp
    2c47:	8d 65 f8             	lea    -0x8(%ebp),%esp
    2c4a:	5b                   	pop    %ebx
    2c4b:	5e                   	pop    %esi
    2c4c:	5d                   	pop    %ebp
    2c4d:	c3                   	ret    
    2c4e:	66 90                	xchg   %ax,%ax

00002c50 <inet_link_open>:
    2c50:	55                   	push   %ebp
    2c51:	89 e5                	mov    %esp,%ebp
    2c53:	57                   	push   %edi
    2c54:	56                   	push   %esi
    2c55:	53                   	push   %ebx
    2c56:	83 ec 50             	sub    $0x50,%esp
    2c59:	8b 75 08             	mov    0x8(%ebp),%esi
    2c5c:	68 56 67 00 00       	push   $0x6756
    2c61:	6a 04                	push   $0x4
    2c63:	6a ff                	push   $0xffffffff
    2c65:	e8 76 45 00 00       	call   71e0 <log_msg@plt>
    2c6a:	58                   	pop    %eax
    2c6b:	5a                   	pop    %edx
    2c6c:	6a 24                	push   $0x24
    2c6e:	6a 01                	push   $0x1
    2c70:	e8 cb 45 00 00       	call   7240 <calloc@plt>
    2c75:	83 c4 10             	add    $0x10,%esp
    2c78:	85 c0                	test   %eax,%eax
    2c7a:	0f 84 32 02 00 00    	je     2eb2 <inet_link_open+0x262>
    2c80:	89 c7                	mov    %eax,%edi
    2c82:	c7 00 00 00 00 00    	movl   $0x0,(%eax)
    2c88:	c7 40 04 00 00 00 00 	movl   $0x0,0x4(%eax)
    2c8f:	89 70 08             	mov    %esi,0x8(%eax)
    2c92:	c7 40 14 00 00 00 00 	movl   $0x0,0x14(%eax)
    2c99:	50                   	push   %eax
    2c9a:	50                   	push   %eax
    2c9b:	8d 47 0c             	lea    0xc(%edi),%eax
    2c9e:	50                   	push   %eax
    2c9f:	56                   	push   %esi
    2ca0:	e8 6b 45 00 00       	call   7210 <loc_service_get_name@plt>
    2ca5:	83 c4 10             	add    $0x10,%esp
    2ca8:	89 c3                	mov    %eax,%ebx
    2caa:	85 c0                	test   %eax,%eax
    2cac:	0f 85 86 00 00 00    	jne    2d38 <inet_link_open+0xe8>
    2cb2:	50                   	push   %eax
    2cb3:	6a 00                	push   $0x0
    2cb5:	68 91 86 b3 d7       	push   $0xd7b38691
    2cba:	56                   	push   %esi
    2cbb:	e8 c0 43 00 00       	call   7080 <loc_service_connect@plt>
    2cc0:	83 c4 10             	add    $0x10,%esp
    2cc3:	89 47 10             	mov    %eax,0x10(%edi)
    2cc6:	85 c0                	test   %eax,%eax
    2cc8:	0f 84 ca 01 00 00    	je     2e98 <inet_link_open+0x248>
    2cce:	8d 4f 14             	lea    0x14(%edi),%ecx
    2cd1:	51                   	push   %ecx
    2cd2:	57                   	push   %edi
    2cd3:	68 b8 91 00 00       	push   $0x91b8
    2cd8:	50                   	push   %eax
    2cd9:	e8 82 45 00 00       	call   7260 <iplink_open@plt>
    2cde:	83 c4 10             	add    $0x10,%esp
    2ce1:	89 c3                	mov    %eax,%ebx
    2ce3:	85 c0                	test   %eax,%eax
    2ce5:	74 69                	je     2d50 <inet_link_open+0x100>
    2ce7:	8b 57 0c             	mov    0xc(%edi),%edx
    2cea:	52                   	push   %edx
    2ceb:	68 9b 67 00 00       	push   $0x679b
    2cf0:	6a 01                	push   $0x1
    2cf2:	6a ff                	push   $0xffffffff
    2cf4:	e8 e7 44 00 00       	call   71e0 <log_msg@plt>
    2cf9:	83 c4 10             	add    $0x10,%esp
    2cfc:	8b 47 14             	mov    0x14(%edi),%eax
    2cff:	85 c0                	test   %eax,%eax
    2d01:	74 0c                	je     2d0f <inet_link_open+0xbf>
    2d03:	83 ec 0c             	sub    $0xc,%esp
    2d06:	50                   	push   %eax
    2d07:	e8 24 46 00 00       	call   7330 <iplink_close@plt>
    2d0c:	83 c4 10             	add    $0x10,%esp
    2d0f:	8b 47 0c             	mov    0xc(%edi),%eax
    2d12:	85 c0                	test   %eax,%eax
    2d14:	74 0c                	je     2d22 <inet_link_open+0xd2>
    2d16:	83 ec 0c             	sub    $0xc,%esp
    2d19:	50                   	push   %eax
    2d1a:	e8 81 47 00 00       	call   74a0 <free@plt>
    2d1f:	83 c4 10             	add    $0x10,%esp
    2d22:	83 ec 0c             	sub    $0xc,%esp
    2d25:	57                   	push   %edi
    2d26:	e8 75 47 00 00       	call   74a0 <free@plt>
    2d2b:	83 c4 10             	add    $0x10,%esp
    2d2e:	8d 65 f4             	lea    -0xc(%ebp),%esp
    2d31:	89 d8                	mov    %ebx,%eax
    2d33:	5b                   	pop    %ebx
    2d34:	5e                   	pop    %esi
    2d35:	5f                   	pop    %edi
    2d36:	5d                   	pop    %ebp
    2d37:	c3                   	ret    
    2d38:	50                   	push   %eax
    2d39:	68 67 67 00 00       	push   $0x6767
    2d3e:	6a 01                	push   $0x1
    2d40:	6a ff                	push   $0xffffffff
    2d42:	e8 99 44 00 00       	call   71e0 <log_msg@plt>
    2d47:	83 c4 10             	add    $0x10,%esp
    2d4a:	eb b0                	jmp    2cfc <inet_link_open+0xac>
    2d4c:	8d 74 26 00          	lea    0x0(%esi,%eiz,1),%esi
    2d50:	50                   	push   %eax
    2d51:	50                   	push   %eax
    2d52:	8d 47 18             	lea    0x18(%edi),%eax
    2d55:	50                   	push   %eax
    2d56:	8b 47 14             	mov    0x14(%edi),%eax
    2d59:	50                   	push   %eax
    2d5a:	e8 f1 46 00 00       	call   7450 <iplink_get_mtu@plt>
    2d5f:	83 c4 10             	add    $0x10,%esp
    2d62:	89 c3                	mov    %eax,%ebx
    2d64:	85 c0                	test   %eax,%eax
    2d66:	0f 85 dc 00 00 00    	jne    2e48 <inet_link_open+0x1f8>
    2d6c:	50                   	push   %eax
    2d6d:	50                   	push   %eax
    2d6e:	8d 47 1c             	lea    0x1c(%edi),%eax
    2d71:	50                   	push   %eax
    2d72:	8b 47 14             	mov    0x14(%edi),%eax
    2d75:	50                   	push   %eax
    2d76:	e8 f5 44 00 00       	call   7270 <iplink_get_mac48@plt>
    2d7b:	83 c4 10             	add    $0x10,%esp
    2d7e:	85 c0                	test   %eax,%eax
    2d80:	8b 47 0c             	mov    0xc(%edi),%eax
    2d83:	0f 94 47 22          	sete   0x22(%edi)
    2d87:	50                   	push   %eax
    2d88:	68 b7 67 00 00       	push   $0x67b7
    2d8d:	6a 04                	push   $0x4
    2d8f:	6a ff                	push   $0xffffffff
    2d91:	e8 4a 44 00 00       	call   71e0 <log_msg@plt>
    2d96:	c7 04 24 a0 91 00 00 	movl   $0x91a0,(%esp)
    2d9d:	e8 0e 47 00 00       	call   74b0 <fibril_mutex_lock@plt>
    2da2:	c7 04 24 a0 91 00 00 	movl   $0x91a0,(%esp)
    2da9:	e8 52 43 00 00       	call   7100 <fibril_mutex_is_locked@plt>
    2dae:	83 c4 10             	add    $0x10,%esp
    2db1:	84 c0                	test   %al,%al
    2db3:	0f 84 09 03 00 00    	je     30c2 <inet_link_open+0x472>
    2db9:	a1 b4 91 00 00       	mov    0x91b4,%eax
    2dbe:	3d b0 91 00 00       	cmp    $0x91b0,%eax
    2dc3:	74 1e                	je     2de3 <inet_link_open+0x193>
    2dc5:	39 70 08             	cmp    %esi,0x8(%eax)
    2dc8:	75 0f                	jne    2dd9 <inet_link_open+0x189>
    2dca:	e9 99 00 00 00       	jmp    2e68 <inet_link_open+0x218>
    2dcf:	90                   	nop
    2dd0:	3b 70 08             	cmp    0x8(%eax),%esi
    2dd3:	0f 84 8f 00 00 00    	je     2e68 <inet_link_open+0x218>
    2dd9:	8b 40 04             	mov    0x4(%eax),%eax
    2ddc:	3d b0 91 00 00       	cmp    $0x91b0,%eax
    2de1:	75 ed                	jne    2dd0 <inet_link_open+0x180>
    2de3:	a1 b0 91 00 00       	mov    0x91b0,%eax
    2de8:	83 ec 0c             	sub    $0xc,%esp
    2deb:	c7 47 04 b0 91 00 00 	movl   $0x91b0,0x4(%edi)
    2df2:	89 07                	mov    %eax,(%edi)
    2df4:	89 78 04             	mov    %edi,0x4(%eax)
    2df7:	68 a0 91 00 00       	push   $0x91a0
    2dfc:	89 3d b0 91 00 00    	mov    %edi,0x91b0
    2e02:	e8 99 44 00 00       	call   72a0 <fibril_mutex_unlock@plt>
    2e07:	83 c4 10             	add    $0x10,%esp
    2e0a:	80 3d d1 91 00 00 00 	cmpb   $0x0,0x91d1
    2e11:	0f 85 b7 00 00 00    	jne    2ece <inet_link_open+0x27e>
    2e17:	80 3d d0 91 00 00 00 	cmpb   $0x0,0x91d0
    2e1e:	0f 85 6f 01 00 00    	jne    2f93 <inet_link_open+0x343>
    2e24:	80 7f 22 00          	cmpb   $0x0,0x22(%edi)
    2e28:	0f 85 35 02 00 00    	jne    3063 <inet_link_open+0x413>
    2e2e:	8b 47 0c             	mov    0xc(%edi),%eax
    2e31:	50                   	push   %eax
    2e32:	68 2d 68 00 00       	push   $0x682d
    2e37:	6a 04                	push   $0x4
    2e39:	6a ff                	push   $0xffffffff
    2e3b:	e8 a0 43 00 00       	call   71e0 <log_msg@plt>
    2e40:	83 c4 10             	add    $0x10,%esp
    2e43:	e9 e6 fe ff ff       	jmp    2d2e <inet_link_open+0xde>
    2e48:	8b 47 0c             	mov    0xc(%edi),%eax
    2e4b:	50                   	push   %eax
    2e4c:	68 18 66 00 00       	push   $0x6618
    2e51:	6a 01                	push   $0x1
    2e53:	6a ff                	push   $0xffffffff
    2e55:	e8 86 43 00 00       	call   71e0 <log_msg@plt>
    2e5a:	83 c4 10             	add    $0x10,%esp
    2e5d:	e9 9a fe ff ff       	jmp    2cfc <inet_link_open+0xac>
    2e62:	8d b6 00 00 00 00    	lea    0x0(%esi),%esi
    2e68:	83 ec 0c             	sub    $0xc,%esp
    2e6b:	bb f7 ff ff ff       	mov    $0xfffffff7,%ebx
    2e70:	68 a0 91 00 00       	push   $0x91a0
    2e75:	e8 26 44 00 00       	call   72a0 <fibril_mutex_unlock@plt>
    2e7a:	56                   	push   %esi
    2e7b:	68 d7 67 00 00       	push   $0x67d7
    2e80:	6a 04                	push   $0x4
    2e82:	6a ff                	push   $0xffffffff
    2e84:	e8 57 43 00 00       	call   71e0 <log_msg@plt>
    2e89:	83 c4 20             	add    $0x20,%esp
    2e8c:	e9 6b fe ff ff       	jmp    2cfc <inet_link_open+0xac>
    2e91:	8d b4 26 00 00 00 00 	lea    0x0(%esi,%eiz,1),%esi
    2e98:	8b 4f 0c             	mov    0xc(%edi),%ecx
    2e9b:	51                   	push   %ecx
    2e9c:	68 84 67 00 00       	push   $0x6784
    2ea1:	6a 01                	push   $0x1
    2ea3:	6a ff                	push   $0xffffffff
    2ea5:	e8 36 43 00 00       	call   71e0 <log_msg@plt>
    2eaa:	83 c4 10             	add    $0x10,%esp
    2ead:	e9 4a fe ff ff       	jmp    2cfc <inet_link_open+0xac>
    2eb2:	50                   	push   %eax
    2eb3:	68 e4 65 00 00       	push   $0x65e4
    2eb8:	6a 01                	push   $0x1
    2eba:	6a ff                	push   $0xffffffff
    2ebc:	bb fe ff ff ff       	mov    $0xfffffffe,%ebx
    2ec1:	e8 1a 43 00 00       	call   71e0 <log_msg@plt>
    2ec6:	83 c4 10             	add    $0x10,%esp
    2ec9:	e9 60 fe ff ff       	jmp    2d2e <inet_link_open+0xde>
    2ece:	e8 5d e2 ff ff       	call   1130 <inet_addrobj_new>
    2ed3:	89 c6                	mov    %eax,%esi
    2ed5:	52                   	push   %edx
    2ed6:	8d 40 0c             	lea    0xc(%eax),%eax
    2ed9:	52                   	push   %edx
    2eda:	6a 18                	push   $0x18
    2edc:	6a 01                	push   $0x1
    2ede:	6a 00                	push   $0x0
    2ee0:	6a 00                	push   $0x0
    2ee2:	6a 7f                	push   $0x7f
    2ee4:	50                   	push   %eax
    2ee5:	89 45 b4             	mov    %eax,-0x4c(%ebp)
    2ee8:	e8 f3 43 00 00       	call   72e0 <inet_naddr@plt>
    2eed:	83 c4 20             	add    $0x20,%esp
    2ef0:	c6 05 d1 91 00 00 00 	movb   $0x0,0x91d1
    2ef7:	85 f6                	test   %esi,%esi
    2ef9:	0f 84 18 ff ff ff    	je     2e17 <inet_link_open+0x1c7>
    2eff:	83 ec 0c             	sub    $0xc,%esp
    2f02:	89 7e 24             	mov    %edi,0x24(%esi)
    2f05:	68 ed 67 00 00       	push   $0x67ed
    2f0a:	e8 a1 43 00 00       	call   72b0 <str_dup@plt>
    2f0f:	89 46 28             	mov    %eax,0x28(%esi)
    2f12:	89 34 24             	mov    %esi,(%esp)
    2f15:	e8 b6 e2 ff ff       	call   11d0 <inet_addrobj_add>
    2f1a:	83 c4 10             	add    $0x10,%esp
    2f1d:	85 c0                	test   %eax,%eax
    2f1f:	75 53                	jne    2f74 <inet_link_open+0x324>
    2f21:	50                   	push   %eax
    2f22:	50                   	push   %eax
    2f23:	8d 45 d4             	lea    -0x2c(%ebp),%eax
    2f26:	50                   	push   %eax
    2f27:	89 45 b0             	mov    %eax,-0x50(%ebp)
    2f2a:	8b 45 b4             	mov    -0x4c(%ebp),%eax
    2f2d:	50                   	push   %eax
    2f2e:	e8 2d 42 00 00       	call   7160 <inet_naddr_addr@plt>
    2f33:	58                   	pop    %eax
    2f34:	8b 4f 14             	mov    0x14(%edi),%ecx
    2f37:	8b 45 b0             	mov    -0x50(%ebp),%eax
    2f3a:	5a                   	pop    %edx
    2f3b:	50                   	push   %eax
    2f3c:	51                   	push   %ecx
    2f3d:	e8 fe 43 00 00       	call   7340 <iplink_addr_add@plt>
    2f42:	83 c4 10             	add    $0x10,%esp
    2f45:	85 c0                	test   %eax,%eax
    2f47:	0f 84 ca fe ff ff    	je     2e17 <inet_link_open+0x1c7>
    2f4d:	50                   	push   %eax
    2f4e:	68 6c 66 00 00       	push   $0x666c
    2f53:	6a 01                	push   $0x1
    2f55:	6a ff                	push   $0xffffffff
    2f57:	e8 84 42 00 00       	call   71e0 <log_msg@plt>
    2f5c:	89 34 24             	mov    %esi,(%esp)
    2f5f:	e8 8c e3 ff ff       	call   12f0 <inet_addrobj_remove>
    2f64:	89 34 24             	mov    %esi,(%esp)
    2f67:	e8 34 e2 ff ff       	call   11a0 <inet_addrobj_delete>
    2f6c:	83 c4 10             	add    $0x10,%esp
    2f6f:	e9 a3 fe ff ff       	jmp    2e17 <inet_link_open+0x1c7>
    2f74:	51                   	push   %ecx
    2f75:	68 f1 67 00 00       	push   $0x67f1
    2f7a:	6a 01                	push   $0x1
    2f7c:	6a ff                	push   $0xffffffff
    2f7e:	e8 5d 42 00 00       	call   71e0 <log_msg@plt>
    2f83:	89 34 24             	mov    %esi,(%esp)
    2f86:	e8 15 e2 ff ff       	call   11a0 <inet_addrobj_delete>
    2f8b:	83 c4 10             	add    $0x10,%esp
    2f8e:	e9 84 fe ff ff       	jmp    2e17 <inet_link_open+0x1c7>
    2f93:	e8 98 e1 ff ff       	call   1130 <inet_addrobj_new>
    2f98:	89 c6                	mov    %eax,%esi
    2f9a:	52                   	push   %edx
    2f9b:	8d 40 0c             	lea    0xc(%eax),%eax
    2f9e:	52                   	push   %edx
    2f9f:	68 80 00 00 00       	push   $0x80
    2fa4:	6a 01                	push   $0x1
    2fa6:	6a 00                	push   $0x0
    2fa8:	6a 00                	push   $0x0
    2faa:	6a 00                	push   $0x0
    2fac:	6a 00                	push   $0x0
    2fae:	6a 00                	push   $0x0
    2fb0:	6a 00                	push   $0x0
    2fb2:	6a 00                	push   $0x0
    2fb4:	50                   	push   %eax
    2fb5:	89 45 b4             	mov    %eax,-0x4c(%ebp)
    2fb8:	e8 c3 41 00 00       	call   7180 <inet_naddr6@plt>
    2fbd:	c6 05 d0 91 00 00 00 	movb   $0x0,0x91d0
    2fc4:	83 c4 30             	add    $0x30,%esp
    2fc7:	85 f6                	test   %esi,%esi
    2fc9:	0f 84 5f fe ff ff    	je     2e2e <inet_link_open+0x1de>
    2fcf:	83 ec 0c             	sub    $0xc,%esp
    2fd2:	89 7e 24             	mov    %edi,0x24(%esi)
    2fd5:	68 0d 68 00 00       	push   $0x680d
    2fda:	e8 d1 42 00 00       	call   72b0 <str_dup@plt>
    2fdf:	89 46 28             	mov    %eax,0x28(%esi)
    2fe2:	89 34 24             	mov    %esi,(%esp)
    2fe5:	e8 e6 e1 ff ff       	call   11d0 <inet_addrobj_add>
    2fea:	83 c4 10             	add    $0x10,%esp
    2fed:	85 c0                	test   %eax,%eax
    2fef:	75 53                	jne    3044 <inet_link_open+0x3f4>
    2ff1:	50                   	push   %eax
    2ff2:	50                   	push   %eax
    2ff3:	8d 45 d4             	lea    -0x2c(%ebp),%eax
    2ff6:	50                   	push   %eax
    2ff7:	89 45 b0             	mov    %eax,-0x50(%ebp)
    2ffa:	8b 45 b4             	mov    -0x4c(%ebp),%eax
    2ffd:	50                   	push   %eax
    2ffe:	e8 5d 41 00 00       	call   7160 <inet_naddr_addr@plt>
    3003:	58                   	pop    %eax
    3004:	8b 4f 14             	mov    0x14(%edi),%ecx
    3007:	8b 45 b0             	mov    -0x50(%ebp),%eax
    300a:	5a                   	pop    %edx
    300b:	50                   	push   %eax
    300c:	51                   	push   %ecx
    300d:	e8 2e 43 00 00       	call   7340 <iplink_addr_add@plt>
    3012:	83 c4 10             	add    $0x10,%esp
    3015:	85 c0                	test   %eax,%eax
    3017:	0f 84 11 fe ff ff    	je     2e2e <inet_link_open+0x1de>
    301d:	51                   	push   %ecx
    301e:	68 9c 66 00 00       	push   $0x669c
    3023:	6a 01                	push   $0x1
    3025:	6a ff                	push   $0xffffffff
    3027:	e8 b4 41 00 00       	call   71e0 <log_msg@plt>
    302c:	89 34 24             	mov    %esi,(%esp)
    302f:	e8 bc e2 ff ff       	call   12f0 <inet_addrobj_remove>
    3034:	89 34 24             	mov    %esi,(%esp)
    3037:	e8 64 e1 ff ff       	call   11a0 <inet_addrobj_delete>
    303c:	83 c4 10             	add    $0x10,%esp
    303f:	e9 ea fd ff ff       	jmp    2e2e <inet_link_open+0x1de>
    3044:	52                   	push   %edx
    3045:	68 11 68 00 00       	push   $0x6811
    304a:	6a 01                	push   $0x1
    304c:	6a ff                	push   $0xffffffff
    304e:	e8 8d 41 00 00       	call   71e0 <log_msg@plt>
    3053:	89 34 24             	mov    %esi,(%esp)
    3056:	e8 45 e1 ff ff       	call   11a0 <inet_addrobj_delete>
    305b:	83 c4 10             	add    $0x10,%esp
    305e:	e9 cb fd ff ff       	jmp    2e2e <inet_link_open+0x1de>
    3063:	e8 c8 e0 ff ff       	call   1130 <inet_addrobj_new>
    3068:	8d 4d c4             	lea    -0x3c(%ebp),%ecx
    306b:	89 c6                	mov    %eax,%esi
    306d:	89 4d b0             	mov    %ecx,-0x50(%ebp)
    3070:	50                   	push   %eax
    3071:	6a 10                	push   $0x10
    3073:	68 90 91 00 00       	push   $0x9190
    3078:	51                   	push   %ecx
    3079:	e8 d2 40 00 00       	call   7150 <memcpy@plt>
    307e:	8a 47 1c             	mov    0x1c(%edi),%al
    3081:	83 f0 02             	xor    $0x2,%eax
    3084:	83 c4 0c             	add    $0xc,%esp
    3087:	88 45 cc             	mov    %al,-0x34(%ebp)
    308a:	8a 47 1d             	mov    0x1d(%edi),%al
    308d:	88 45 cd             	mov    %al,-0x33(%ebp)
    3090:	8a 47 1e             	mov    0x1e(%edi),%al
    3093:	88 45 ce             	mov    %al,-0x32(%ebp)
    3096:	8a 47 1f             	mov    0x1f(%edi),%al
    3099:	88 45 d1             	mov    %al,-0x2f(%ebp)
    309c:	8a 47 20             	mov    0x20(%edi),%al
    309f:	88 45 d2             	mov    %al,-0x2e(%ebp)
    30a2:	8a 47 21             	mov    0x21(%edi),%al
    30a5:	88 45 d3             	mov    %al,-0x2d(%ebp)
    30a8:	8b 4d b0             	mov    -0x50(%ebp),%ecx
    30ab:	8d 46 0c             	lea    0xc(%esi),%eax
    30ae:	50                   	push   %eax
    30af:	6a 40                	push   $0x40
    30b1:	51                   	push   %ecx
    30b2:	89 45 b4             	mov    %eax,-0x4c(%ebp)
    30b5:	e8 76 40 00 00       	call   7130 <inet_naddr_set6@plt>
    30ba:	83 c4 10             	add    $0x10,%esp
    30bd:	e9 05 ff ff ff       	jmp    2fc7 <inet_link_open+0x377>
    30c2:	51                   	push   %ecx
    30c3:	68 c2 01 00 00       	push   $0x1c2
    30c8:	68 cb 67 00 00       	push   $0x67cb
    30cd:	68 40 66 00 00       	push   $0x6640
    30d2:	e8 59 41 00 00       	call   7230 <assert_abort@plt>
    30d7:	89 f6                	mov    %esi,%esi
    30d9:	8d bc 27 00 00 00 00 	lea    0x0(%edi,%eiz,1),%edi

000030e0 <inet_link_send_dgram>:
    30e0:	55                   	push   %ebp
    30e1:	89 e5                	mov    %esp,%ebp
    30e3:	57                   	push   %edi
    30e4:	56                   	push   %esi
    30e5:	53                   	push   %ebx
    30e6:	83 c4 80             	add    $0xffffff80,%esp
    30e9:	8b 45 18             	mov    0x18(%ebp),%eax
    30ec:	8b 7d 14             	mov    0x14(%ebp),%edi
    30ef:	89 45 84             	mov    %eax,-0x7c(%ebp)
    30f2:	8d 45 88             	lea    -0x78(%ebp),%eax
    30f5:	6a 00                	push   $0x0
    30f7:	50                   	push   %eax
    30f8:	8d 47 04             	lea    0x4(%edi),%eax
    30fb:	8b 75 08             	mov    0x8(%ebp),%esi
    30fe:	50                   	push   %eax
    30ff:	8b 5d 1c             	mov    0x1c(%ebp),%ebx
    3102:	e8 e9 41 00 00       	call   72f0 <inet_addr_get@plt>
    3107:	83 c4 10             	add    $0x10,%esp
    310a:	48                   	dec    %eax
    310b:	0f 85 1f 01 00 00    	jne    3230 <inet_link_send_dgram+0x150>
    3111:	50                   	push   %eax
    3112:	8d 45 8c             	lea    -0x74(%ebp),%eax
    3115:	6a 00                	push   $0x0
    3117:	50                   	push   %eax
    3118:	8d 47 18             	lea    0x18(%edi),%eax
    311b:	50                   	push   %eax
    311c:	e8 cf 41 00 00       	call   72f0 <inet_addr_get@plt>
    3121:	83 c4 10             	add    $0x10,%esp
    3124:	48                   	dec    %eax
    3125:	0f 85 05 01 00 00    	jne    3230 <inet_link_send_dgram+0x150>
    312b:	8b 45 0c             	mov    0xc(%ebp),%eax
    312e:	83 ec 0c             	sub    $0xc,%esp
    3131:	89 45 94             	mov    %eax,-0x6c(%ebp)
    3134:	8b 45 10             	mov    0x10(%ebp),%eax
    3137:	89 45 98             	mov    %eax,-0x68(%ebp)
    313a:	8b 47 04             	mov    0x4(%edi),%eax
    313d:	89 45 a8             	mov    %eax,-0x58(%ebp)
    3140:	8b 47 08             	mov    0x8(%edi),%eax
    3143:	89 45 ac             	mov    %eax,-0x54(%ebp)
    3146:	8b 47 0c             	mov    0xc(%edi),%eax
    3149:	89 45 b0             	mov    %eax,-0x50(%ebp)
    314c:	8b 47 10             	mov    0x10(%edi),%eax
    314f:	89 45 b4             	mov    %eax,-0x4c(%ebp)
    3152:	8b 47 14             	mov    0x14(%edi),%eax
    3155:	89 45 b8             	mov    %eax,-0x48(%ebp)
    3158:	8b 47 18             	mov    0x18(%edi),%eax
    315b:	89 45 bc             	mov    %eax,-0x44(%ebp)
    315e:	8b 47 1c             	mov    0x1c(%edi),%eax
    3161:	89 45 c0             	mov    %eax,-0x40(%ebp)
    3164:	8b 47 20             	mov    0x20(%edi),%eax
    3167:	89 45 c4             	mov    %eax,-0x3c(%ebp)
    316a:	8b 47 24             	mov    0x24(%edi),%eax
    316d:	89 45 c8             	mov    %eax,-0x38(%ebp)
    3170:	8b 47 28             	mov    0x28(%edi),%eax
    3173:	89 45 cc             	mov    %eax,-0x34(%ebp)
    3176:	8a 47 2c             	mov    0x2c(%edi),%al
    3179:	88 45 d0             	mov    %al,-0x30(%ebp)
    317c:	8a 45 84             	mov    -0x7c(%ebp),%al
    317f:	68 c0 91 00 00       	push   $0x91c0
    3184:	88 45 d1             	mov    %al,-0x2f(%ebp)
    3187:	88 5d d2             	mov    %bl,-0x2e(%ebp)
    318a:	e8 21 43 00 00       	call   74b0 <fibril_mutex_lock@plt>
    318f:	66 a1 7c 93 00 00    	mov    0x937c,%ax
    3195:	c7 04 24 c0 91 00 00 	movl   $0x91c0,(%esp)
    319c:	8d 5d 9c             	lea    -0x64(%ebp),%ebx
    319f:	8d 48 01             	lea    0x1(%eax),%ecx
    31a2:	31 c0                	xor    %eax,%eax
    31a4:	66 89 c8             	mov    %cx,%ax
    31a7:	66 89 0d 7c 93 00 00 	mov    %cx,0x937c
    31ae:	89 45 d4             	mov    %eax,-0x2c(%ebp)
    31b1:	e8 ea 40 00 00       	call   72a0 <fibril_mutex_unlock@plt>
    31b6:	8b 45 20             	mov    0x20(%ebp),%eax
    31b9:	83 c4 10             	add    $0x10,%esp
    31bc:	85 c0                	test   %eax,%eax
    31be:	8b 47 30             	mov    0x30(%edi),%eax
    31c1:	89 45 e0             	mov    %eax,-0x20(%ebp)
    31c4:	8b 47 34             	mov    0x34(%edi),%eax
    31c7:	0f 95 45 d8          	setne  -0x28(%ebp)
    31cb:	89 45 e4             	mov    %eax,-0x1c(%ebp)
    31ce:	31 d2                	xor    %edx,%edx
    31d0:	8d 7d 90             	lea    -0x70(%ebp),%edi
    31d3:	eb 2d                	jmp    3202 <inet_link_send_dgram+0x122>
    31d5:	8d 76 00             	lea    0x0(%esi),%esi
    31d8:	50                   	push   %eax
    31d9:	50                   	push   %eax
    31da:	8b 56 14             	mov    0x14(%esi),%edx
    31dd:	8d 45 94             	lea    -0x6c(%ebp),%eax
    31e0:	50                   	push   %eax
    31e1:	52                   	push   %edx
    31e2:	e8 69 41 00 00       	call   7350 <iplink_send@plt>
    31e7:	59                   	pop    %ecx
    31e8:	89 45 84             	mov    %eax,-0x7c(%ebp)
    31eb:	8b 45 9c             	mov    -0x64(%ebp),%eax
    31ee:	50                   	push   %eax
    31ef:	e8 ac 42 00 00       	call   74a0 <free@plt>
    31f4:	8b 55 90             	mov    -0x70(%ebp),%edx
    31f7:	83 c4 10             	add    $0x10,%esp
    31fa:	8b 45 84             	mov    -0x7c(%ebp),%eax
    31fd:	3b 55 e4             	cmp    -0x1c(%ebp),%edx
    3200:	73 23                	jae    3225 <inet_link_send_dgram+0x145>
    3202:	8d 45 a0             	lea    -0x60(%ebp),%eax
    3205:	57                   	push   %edi
    3206:	50                   	push   %eax
    3207:	8b 46 18             	mov    0x18(%esi),%eax
    320a:	53                   	push   %ebx
    320b:	50                   	push   %eax
    320c:	8b 45 8c             	mov    -0x74(%ebp),%eax
    320f:	52                   	push   %edx
    3210:	50                   	push   %eax
    3211:	8b 45 88             	mov    -0x78(%ebp),%eax
    3214:	50                   	push   %eax
    3215:	8d 45 a4             	lea    -0x5c(%ebp),%eax
    3218:	50                   	push   %eax
    3219:	e8 72 1b 00 00       	call   4d90 <inet_pdu_encode>
    321e:	83 c4 20             	add    $0x20,%esp
    3221:	85 c0                	test   %eax,%eax
    3223:	74 b3                	je     31d8 <inet_link_send_dgram+0xf8>
    3225:	8d 65 f4             	lea    -0xc(%ebp),%esp
    3228:	5b                   	pop    %ebx
    3229:	5e                   	pop    %esi
    322a:	5f                   	pop    %edi
    322b:	5d                   	pop    %ebp
    322c:	c3                   	ret    
    322d:	8d 76 00             	lea    0x0(%esi),%esi
    3230:	8d 65 f4             	lea    -0xc(%ebp),%esp
    3233:	b8 f2 ff ff ff       	mov    $0xfffffff2,%eax
    3238:	5b                   	pop    %ebx
    3239:	5e                   	pop    %esi
    323a:	5f                   	pop    %edi
    323b:	5d                   	pop    %ebp
    323c:	c3                   	ret    
    323d:	8d 76 00             	lea    0x0(%esi),%esi

00003240 <inet_link_send_dgram6>:
    3240:	55                   	push   %ebp
    3241:	89 e5                	mov    %esp,%ebp
    3243:	57                   	push   %edi
    3244:	56                   	push   %esi
    3245:	53                   	push   %ebx
    3246:	81 ec a0 00 00 00    	sub    $0xa0,%esp
    324c:	8b 45 18             	mov    0x18(%ebp),%eax
    324f:	8b 7d 10             	mov    0x10(%ebp),%edi
    3252:	89 85 64 ff ff ff    	mov    %eax,-0x9c(%ebp)
    3258:	8d 45 84             	lea    -0x7c(%ebp),%eax
    325b:	50                   	push   %eax
    325c:	8d 47 04             	lea    0x4(%edi),%eax
    325f:	6a 00                	push   $0x0
    3261:	8b 75 08             	mov    0x8(%ebp),%esi
    3264:	50                   	push   %eax
    3265:	8b 5d 14             	mov    0x14(%ebp),%ebx
    3268:	e8 83 40 00 00       	call   72f0 <inet_addr_get@plt>
    326d:	83 c4 10             	add    $0x10,%esp
    3270:	83 f8 02             	cmp    $0x2,%eax
    3273:	0f 85 3f 01 00 00    	jne    33b8 <inet_link_send_dgram6+0x178>
    3279:	50                   	push   %eax
    327a:	8d 45 94             	lea    -0x6c(%ebp),%eax
    327d:	50                   	push   %eax
    327e:	8d 47 18             	lea    0x18(%edi),%eax
    3281:	6a 00                	push   $0x0
    3283:	50                   	push   %eax
    3284:	e8 67 40 00 00       	call   72f0 <inet_addr_get@plt>
    3289:	83 c4 10             	add    $0x10,%esp
    328c:	83 f8 02             	cmp    $0x2,%eax
    328f:	0f 85 23 01 00 00    	jne    33b8 <inet_link_send_dgram6+0x178>
    3295:	50                   	push   %eax
    3296:	50                   	push   %eax
    3297:	8d 85 74 ff ff ff    	lea    -0x8c(%ebp),%eax
    329d:	50                   	push   %eax
    329e:	8b 45 0c             	mov    0xc(%ebp),%eax
    32a1:	50                   	push   %eax
    32a2:	e8 39 41 00 00       	call   73e0 <addr48@plt>
    32a7:	8b 47 04             	mov    0x4(%edi),%eax
    32aa:	88 5d d1             	mov    %bl,-0x2f(%ebp)
    32ad:	89 45 a8             	mov    %eax,-0x58(%ebp)
    32b0:	8b 47 08             	mov    0x8(%edi),%eax
    32b3:	89 45 ac             	mov    %eax,-0x54(%ebp)
    32b6:	8b 47 0c             	mov    0xc(%edi),%eax
    32b9:	89 45 b0             	mov    %eax,-0x50(%ebp)
    32bc:	8b 47 10             	mov    0x10(%edi),%eax
    32bf:	89 45 b4             	mov    %eax,-0x4c(%ebp)
    32c2:	8b 47 14             	mov    0x14(%edi),%eax
    32c5:	89 45 b8             	mov    %eax,-0x48(%ebp)
    32c8:	8b 47 18             	mov    0x18(%edi),%eax
    32cb:	89 45 bc             	mov    %eax,-0x44(%ebp)
    32ce:	8b 47 1c             	mov    0x1c(%edi),%eax
    32d1:	89 45 c0             	mov    %eax,-0x40(%ebp)
    32d4:	8b 47 20             	mov    0x20(%edi),%eax
    32d7:	89 45 c4             	mov    %eax,-0x3c(%ebp)
    32da:	8b 47 24             	mov    0x24(%edi),%eax
    32dd:	89 45 c8             	mov    %eax,-0x38(%ebp)
    32e0:	8b 47 28             	mov    0x28(%edi),%eax
    32e3:	89 45 cc             	mov    %eax,-0x34(%ebp)
    32e6:	8a 47 2c             	mov    0x2c(%edi),%al
    32e9:	88 45 d0             	mov    %al,-0x30(%ebp)
    32ec:	8a 85 64 ff ff ff    	mov    -0x9c(%ebp),%al
    32f2:	c7 04 24 c0 91 00 00 	movl   $0x91c0,(%esp)
    32f9:	88 45 d2             	mov    %al,-0x2e(%ebp)
    32fc:	e8 af 41 00 00       	call   74b0 <fibril_mutex_lock@plt>
    3301:	66 a1 7c 93 00 00    	mov    0x937c,%ax
    3307:	8d 48 01             	lea    0x1(%eax),%ecx
    330a:	31 c0                	xor    %eax,%eax
    330c:	66 89 c8             	mov    %cx,%ax
    330f:	c7 04 24 c0 91 00 00 	movl   $0x91c0,(%esp)
    3316:	89 45 d4             	mov    %eax,-0x2c(%ebp)
    3319:	66 89 0d 7c 93 00 00 	mov    %cx,0x937c
    3320:	e8 7b 3f 00 00       	call   72a0 <fibril_mutex_unlock@plt>
    3325:	8b 45 1c             	mov    0x1c(%ebp),%eax
    3328:	83 c4 10             	add    $0x10,%esp
    332b:	85 c0                	test   %eax,%eax
    332d:	8b 47 30             	mov    0x30(%edi),%eax
    3330:	0f 95 45 d8          	setne  -0x28(%ebp)
    3334:	89 45 e0             	mov    %eax,-0x20(%ebp)
    3337:	8b 47 34             	mov    0x34(%edi),%eax
    333a:	89 45 e4             	mov    %eax,-0x1c(%ebp)
    333d:	31 d2                	xor    %edx,%edx
    333f:	8d bd 70 ff ff ff    	lea    -0x90(%ebp),%edi
    3345:	8d 5d a4             	lea    -0x5c(%ebp),%ebx
    3348:	eb 3f                	jmp    3389 <inet_link_send_dgram6+0x149>
    334a:	8d b6 00 00 00 00    	lea    0x0(%esi),%esi
    3350:	50                   	push   %eax
    3351:	50                   	push   %eax
    3352:	8b 56 14             	mov    0x14(%esi),%edx
    3355:	8d 85 74 ff ff ff    	lea    -0x8c(%ebp),%eax
    335b:	50                   	push   %eax
    335c:	52                   	push   %edx
    335d:	e8 5e 3f 00 00       	call   72c0 <iplink_send6@plt>
    3362:	59                   	pop    %ecx
    3363:	89 85 64 ff ff ff    	mov    %eax,-0x9c(%ebp)
    3369:	8b 85 7c ff ff ff    	mov    -0x84(%ebp),%eax
    336f:	50                   	push   %eax
    3370:	e8 2b 41 00 00       	call   74a0 <free@plt>
    3375:	8b 95 70 ff ff ff    	mov    -0x90(%ebp),%edx
    337b:	83 c4 10             	add    $0x10,%esp
    337e:	8b 85 64 ff ff ff    	mov    -0x9c(%ebp),%eax
    3384:	3b 55 e4             	cmp    -0x1c(%ebp),%edx
    3387:	73 26                	jae    33af <inet_link_send_dgram6+0x16f>
    3389:	8d 45 80             	lea    -0x80(%ebp),%eax
    338c:	57                   	push   %edi
    338d:	50                   	push   %eax
    338e:	8d 85 7c ff ff ff    	lea    -0x84(%ebp),%eax
    3394:	50                   	push   %eax
    3395:	8b 46 18             	mov    0x18(%esi),%eax
    3398:	50                   	push   %eax
    3399:	8d 45 94             	lea    -0x6c(%ebp),%eax
    339c:	52                   	push   %edx
    339d:	50                   	push   %eax
    339e:	8d 45 84             	lea    -0x7c(%ebp),%eax
    33a1:	50                   	push   %eax
    33a2:	53                   	push   %ebx
    33a3:	e8 78 1c 00 00       	call   5020 <inet_pdu_encode6>
    33a8:	83 c4 20             	add    $0x20,%esp
    33ab:	85 c0                	test   %eax,%eax
    33ad:	74 a1                	je     3350 <inet_link_send_dgram6+0x110>
    33af:	8d 65 f4             	lea    -0xc(%ebp),%esp
    33b2:	5b                   	pop    %ebx
    33b3:	5e                   	pop    %esi
    33b4:	5f                   	pop    %edi
    33b5:	5d                   	pop    %ebp
    33b6:	c3                   	ret    
    33b7:	90                   	nop
    33b8:	8d 65 f4             	lea    -0xc(%ebp),%esp
    33bb:	b8 f2 ff ff ff       	mov    $0xfffffff2,%eax
    33c0:	5b                   	pop    %ebx
    33c1:	5e                   	pop    %esi
    33c2:	5f                   	pop    %edi
    33c3:	5d                   	pop    %ebp
    33c4:	c3                   	ret    
    33c5:	8d 74 26 00          	lea    0x0(%esi,%eiz,1),%esi
    33c9:	8d bc 27 00 00 00 00 	lea    0x0(%edi,%eiz,1),%edi

000033d0 <inet_link_get_by_id>:
    33d0:	55                   	push   %ebp
    33d1:	89 e5                	mov    %esp,%ebp
    33d3:	53                   	push   %ebx
    33d4:	83 ec 20             	sub    $0x20,%esp
    33d7:	8b 5d 08             	mov    0x8(%ebp),%ebx
    33da:	68 a0 91 00 00       	push   $0x91a0
    33df:	e8 cc 40 00 00       	call   74b0 <fibril_mutex_lock@plt>
    33e4:	c7 04 24 a0 91 00 00 	movl   $0x91a0,(%esp)
    33eb:	e8 10 3d 00 00       	call   7100 <fibril_mutex_is_locked@plt>
    33f0:	83 c4 10             	add    $0x10,%esp
    33f3:	84 c0                	test   %al,%al
    33f5:	74 3d                	je     3434 <inet_link_get_by_id+0x64>
    33f7:	a1 b4 91 00 00       	mov    0x91b4,%eax
    33fc:	3d b0 91 00 00       	cmp    $0x91b0,%eax
    3401:	75 0f                	jne    3412 <inet_link_get_by_id+0x42>
    3403:	eb 2b                	jmp    3430 <inet_link_get_by_id+0x60>
    3405:	8d 76 00             	lea    0x0(%esi),%esi
    3408:	8b 40 04             	mov    0x4(%eax),%eax
    340b:	3d b0 91 00 00       	cmp    $0x91b0,%eax
    3410:	74 1e                	je     3430 <inet_link_get_by_id+0x60>
    3412:	3b 58 08             	cmp    0x8(%eax),%ebx
    3415:	75 f1                	jne    3408 <inet_link_get_by_id+0x38>
    3417:	83 ec 0c             	sub    $0xc,%esp
    341a:	89 45 f4             	mov    %eax,-0xc(%ebp)
    341d:	68 a0 91 00 00       	push   $0x91a0
    3422:	e8 79 3e 00 00       	call   72a0 <fibril_mutex_unlock@plt>
    3427:	8b 45 f4             	mov    -0xc(%ebp),%eax
    342a:	8b 5d fc             	mov    -0x4(%ebp),%ebx
    342d:	c9                   	leave  
    342e:	c3                   	ret    
    342f:	90                   	nop
    3430:	31 c0                	xor    %eax,%eax
    3432:	eb e3                	jmp    3417 <inet_link_get_by_id+0x47>
    3434:	50                   	push   %eax
    3435:	68 c2 01 00 00       	push   $0x1c2
    343a:	68 cb 67 00 00       	push   $0x67cb
    343f:	68 40 66 00 00       	push   $0x6640
    3444:	e8 e7 3d 00 00       	call   7230 <assert_abort@plt>
    3449:	8d b4 26 00 00 00 00 	lea    0x0(%esi,%eiz,1),%esi

00003450 <inet_link_get_id_list>:
    3450:	55                   	push   %ebp
    3451:	89 e5                	mov    %esp,%ebp
    3453:	56                   	push   %esi
    3454:	53                   	push   %ebx
    3455:	83 ec 0c             	sub    $0xc,%esp
    3458:	68 a0 91 00 00       	push   $0x91a0
    345d:	e8 4e 40 00 00       	call   74b0 <fibril_mutex_lock@plt>
    3462:	c7 04 24 b0 91 00 00 	movl   $0x91b0,(%esp)
    3469:	e8 32 3f 00 00       	call   73a0 <list_count@plt>
    346e:	5a                   	pop    %edx
    346f:	89 c6                	mov    %eax,%esi
    3471:	59                   	pop    %ecx
    3472:	6a 04                	push   $0x4
    3474:	50                   	push   %eax
    3475:	e8 c6 3d 00 00       	call   7240 <calloc@plt>
    347a:	83 c4 10             	add    $0x10,%esp
    347d:	85 c0                	test   %eax,%eax
    347f:	74 4c                	je     34cd <inet_link_get_id_list+0x7d>
    3481:	89 c3                	mov    %eax,%ebx
    3483:	a1 b4 91 00 00       	mov    0x91b4,%eax
    3488:	3d b0 91 00 00       	cmp    $0x91b0,%eax
    348d:	74 1b                	je     34aa <inet_link_get_id_list+0x5a>
    348f:	89 da                	mov    %ebx,%edx
    3491:	8d b4 26 00 00 00 00 	lea    0x0(%esi,%eiz,1),%esi
    3498:	8b 48 08             	mov    0x8(%eax),%ecx
    349b:	8b 40 04             	mov    0x4(%eax),%eax
    349e:	89 0a                	mov    %ecx,(%edx)
    34a0:	83 c2 04             	add    $0x4,%edx
    34a3:	3d b0 91 00 00       	cmp    $0x91b0,%eax
    34a8:	75 ee                	jne    3498 <inet_link_get_id_list+0x48>
    34aa:	83 ec 0c             	sub    $0xc,%esp
    34ad:	68 a0 91 00 00       	push   $0x91a0
    34b2:	e8 e9 3d 00 00       	call   72a0 <fibril_mutex_unlock@plt>
    34b7:	8b 45 08             	mov    0x8(%ebp),%eax
    34ba:	83 c4 10             	add    $0x10,%esp
    34bd:	89 18                	mov    %ebx,(%eax)
    34bf:	8b 45 0c             	mov    0xc(%ebp),%eax
    34c2:	89 30                	mov    %esi,(%eax)
    34c4:	31 c0                	xor    %eax,%eax
    34c6:	8d 65 f8             	lea    -0x8(%ebp),%esp
    34c9:	5b                   	pop    %ebx
    34ca:	5e                   	pop    %esi
    34cb:	5d                   	pop    %ebp
    34cc:	c3                   	ret    
    34cd:	83 ec 0c             	sub    $0xc,%esp
    34d0:	68 a0 91 00 00       	push   $0x91a0
    34d5:	e8 c6 3d 00 00       	call   72a0 <fibril_mutex_unlock@plt>
    34da:	83 c4 10             	add    $0x10,%esp
    34dd:	b8 fe ff ff ff       	mov    $0xfffffffe,%eax
    34e2:	eb e2                	jmp    34c6 <inet_link_get_id_list+0x76>
    34e4:	66 90                	xchg   %ax,%ax
    34e6:	66 90                	xchg   %ax,%ax
    34e8:	66 90                	xchg   %ax,%ax
    34ea:	66 90                	xchg   %ax,%ax
    34ec:	66 90                	xchg   %ax,%ax
    34ee:	66 90                	xchg   %ax,%ax

000034f0 <inet_cfg_conn>:
    34f0:	55                   	push   %ebp
    34f1:	89 e5                	mov    %esp,%ebp
    34f3:	57                   	push   %edi
    34f4:	56                   	push   %esi
    34f5:	53                   	push   %ebx
    34f6:	81 ec a0 00 00 00    	sub    $0xa0,%esp
    34fc:	68 43 68 00 00       	push   $0x6843
    3501:	6a 04                	push   $0x4
    3503:	6a ff                	push   $0xffffffff
    3505:	e8 d6 3c 00 00       	call   71e0 <log_msg@plt>
    350a:	8b 45 08             	mov    0x8(%ebp),%eax
    350d:	5e                   	pop    %esi
    350e:	5f                   	pop    %edi
    350f:	6a 00                	push   $0x0
    3511:	50                   	push   %eax
    3512:	e8 a9 3c 00 00       	call   71c0 <async_answer_0@plt>
    3517:	83 c4 10             	add    $0x10,%esp
    351a:	8d b6 00 00 00 00    	lea    0x0(%esi),%esi
    3520:	8d 45 94             	lea    -0x6c(%ebp),%eax
    3523:	53                   	push   %ebx
    3524:	53                   	push   %ebx
    3525:	6a 00                	push   $0x0
    3527:	50                   	push   %eax
    3528:	e8 53 3e 00 00       	call   7380 <async_get_call_timeout@plt>
    352d:	8b 75 94             	mov    -0x6c(%ebp),%esi
    3530:	89 c3                	mov    %eax,%ebx
    3532:	56                   	push   %esi
    3533:	68 53 68 00 00       	push   $0x6853
    3538:	6a 04                	push   $0x4
    353a:	6a ff                	push   $0xffffffff
    353c:	e8 9f 3c 00 00       	call   71e0 <log_msg@plt>
    3541:	83 c4 20             	add    $0x20,%esp
    3544:	85 f6                	test   %esi,%esi
    3546:	0f 84 44 06 00 00    	je     3b90 <inet_cfg_conn+0x6a0>
    354c:	81 ee 00 04 00 00    	sub    $0x400,%esi
    3552:	83 fe 0d             	cmp    $0xd,%esi
    3555:	0f 87 4d 06 00 00    	ja     3ba8 <inet_cfg_conn+0x6b8>
    355b:	ff 24 b5 64 6a 00 00 	jmp    *0x6a64(,%esi,4)
    3562:	8d b6 00 00 00 00    	lea    0x0(%esi),%esi
    3568:	50                   	push   %eax
    3569:	68 bf 69 00 00       	push   $0x69bf
    356e:	6a 04                	push   $0x4
    3570:	6a ff                	push   $0xffffffff
    3572:	e8 69 3c 00 00       	call   71e0 <log_msg@plt>
    3577:	8d 45 b8             	lea    -0x48(%ebp),%eax
    357a:	89 04 24             	mov    %eax,(%esp)
    357d:	8b 75 98             	mov    -0x68(%ebp),%esi
    3580:	e8 6b 3c 00 00       	call   71f0 <inet_naddr_any@plt>
    3585:	8d 45 d0             	lea    -0x30(%ebp),%eax
    3588:	89 04 24             	mov    %eax,(%esp)
    358b:	e8 90 3c 00 00       	call   7220 <inet_addr_any@plt>
    3590:	89 34 24             	mov    %esi,(%esp)
    3593:	c7 45 e4 00 00 00 00 	movl   $0x0,-0x1c(%ebp)
    359a:	e8 c1 2a 00 00       	call   6060 <inet_sroute_get_by_id>
    359f:	83 c4 10             	add    $0x10,%esp
    35a2:	85 c0                	test   %eax,%eax
    35a4:	0f 84 10 06 00 00    	je     3bba <inet_cfg_conn+0x6ca>
    35aa:	8b 50 24             	mov    0x24(%eax),%edx
    35ad:	8d 70 0c             	lea    0xc(%eax),%esi
    35b0:	b9 06 00 00 00       	mov    $0x6,%ecx
    35b5:	8d 7d b8             	lea    -0x48(%ebp),%edi
    35b8:	f3 a5                	rep movsl %ds:(%esi),%es:(%edi)
    35ba:	89 55 d0             	mov    %edx,-0x30(%ebp)
    35bd:	8b 50 28             	mov    0x28(%eax),%edx
    35c0:	89 55 d4             	mov    %edx,-0x2c(%ebp)
    35c3:	8b 50 2c             	mov    0x2c(%eax),%edx
    35c6:	83 ec 0c             	sub    $0xc,%esp
    35c9:	89 55 d8             	mov    %edx,-0x28(%ebp)
    35cc:	8b 50 30             	mov    0x30(%eax),%edx
    35cf:	8b 70 38             	mov    0x38(%eax),%esi
    35d2:	89 55 dc             	mov    %edx,-0x24(%ebp)
    35d5:	8b 50 34             	mov    0x34(%eax),%edx
    35d8:	89 55 e0             	mov    %edx,-0x20(%ebp)
    35db:	56                   	push   %esi
    35dc:	e8 cf 3c 00 00       	call   72b0 <str_dup@plt>
    35e1:	8d b5 7c ff ff ff    	lea    -0x84(%ebp),%esi
    35e7:	5f                   	pop    %edi
    35e8:	8d 7d 80             	lea    -0x80(%ebp),%edi
    35eb:	89 45 e4             	mov    %eax,-0x1c(%ebp)
    35ee:	58                   	pop    %eax
    35ef:	57                   	push   %edi
    35f0:	56                   	push   %esi
    35f1:	e8 1a 3d 00 00       	call   7310 <async_data_read_receive@plt>
    35f6:	83 c4 10             	add    $0x10,%esp
    35f9:	84 c0                	test   %al,%al
    35fb:	0f 84 bf 06 00 00    	je     3cc0 <inet_cfg_conn+0x7d0>
    3601:	83 7d 80 18          	cmpl   $0x18,-0x80(%ebp)
    3605:	0f 84 17 07 00 00    	je     3d22 <inet_cfg_conn+0x832>
    360b:	8b bd 7c ff ff ff    	mov    -0x84(%ebp),%edi
    3611:	56                   	push   %esi
    3612:	56                   	push   %esi
    3613:	6a f2                	push   $0xfffffff2
    3615:	57                   	push   %edi
    3616:	e9 98 00 00 00       	jmp    36b3 <inet_cfg_conn+0x1c3>
    361b:	90                   	nop
    361c:	8d 74 26 00          	lea    0x0(%esi,%eiz,1),%esi
    3620:	50                   	push   %eax
    3621:	68 a3 69 00 00       	push   $0x69a3
    3626:	6a 04                	push   $0x4
    3628:	6a ff                	push   $0xffffffff
    362a:	e8 b1 3b 00 00       	call   71e0 <log_msg@plt>
    362f:	58                   	pop    %eax
    3630:	8b 45 98             	mov    -0x68(%ebp),%eax
    3633:	50                   	push   %eax
    3634:	e8 27 2a 00 00       	call   6060 <inet_sroute_get_by_id>
    3639:	83 c4 10             	add    $0x10,%esp
    363c:	89 c6                	mov    %eax,%esi
    363e:	85 c0                	test   %eax,%eax
    3640:	0f 84 e9 09 00 00    	je     402f <inet_cfg_conn+0xb3f>
    3646:	83 ec 0c             	sub    $0xc,%esp
    3649:	50                   	push   %eax
    364a:	e8 11 28 00 00       	call   5e60 <inet_sroute_remove>
    364f:	89 34 24             	mov    %esi,(%esp)
    3652:	e8 89 27 00 00       	call   5de0 <inet_sroute_delete>
    3657:	83 c4 10             	add    $0x10,%esp
    365a:	31 c0                	xor    %eax,%eax
    365c:	52                   	push   %edx
    365d:	52                   	push   %edx
    365e:	50                   	push   %eax
    365f:	53                   	push   %ebx
    3660:	e8 5b 3b 00 00       	call   71c0 <async_answer_0@plt>
    3665:	83 c4 10             	add    $0x10,%esp
    3668:	e9 b3 fe ff ff       	jmp    3520 <inet_cfg_conn+0x30>
    366d:	8d 76 00             	lea    0x0(%esi),%esi
    3670:	8d bd 78 ff ff ff    	lea    -0x88(%ebp),%edi
    3676:	8d b5 74 ff ff ff    	lea    -0x8c(%ebp),%esi
    367c:	50                   	push   %eax
    367d:	68 87 69 00 00       	push   $0x6987
    3682:	6a 04                	push   $0x4
    3684:	6a ff                	push   $0xffffffff
    3686:	e8 55 3b 00 00       	call   71e0 <log_msg@plt>
    368b:	58                   	pop    %eax
    368c:	5a                   	pop    %edx
    368d:	57                   	push   %edi
    368e:	56                   	push   %esi
    368f:	e8 ec 3d 00 00       	call   7480 <async_data_write_receive@plt>
    3694:	83 c4 10             	add    $0x10,%esp
    3697:	84 c0                	test   %al,%al
    3699:	74 0d                	je     36a8 <inet_cfg_conn+0x1b8>
    369b:	83 bd 78 ff ff ff 18 	cmpl   $0x18,-0x88(%ebp)
    36a2:	0f 84 30 06 00 00    	je     3cd8 <inet_cfg_conn+0x7e8>
    36a8:	50                   	push   %eax
    36a9:	50                   	push   %eax
    36aa:	8b 85 74 ff ff ff    	mov    -0x8c(%ebp),%eax
    36b0:	6a f2                	push   $0xfffffff2
    36b2:	50                   	push   %eax
    36b3:	e8 08 3b 00 00       	call   71c0 <async_answer_0@plt>
    36b8:	5a                   	pop    %edx
    36b9:	59                   	pop    %ecx
    36ba:	6a f2                	push   $0xfffffff2
    36bc:	53                   	push   %ebx
    36bd:	e8 fe 3a 00 00       	call   71c0 <async_answer_0@plt>
    36c2:	83 c4 10             	add    $0x10,%esp
    36c5:	e9 56 fe ff ff       	jmp    3520 <inet_cfg_conn+0x30>
    36ca:	8d b6 00 00 00 00    	lea    0x0(%esi),%esi
    36d0:	51                   	push   %ecx
    36d1:	68 6d 69 00 00       	push   $0x696d
    36d6:	6a 04                	push   $0x4
    36d8:	6a ff                	push   $0xffffffff
    36da:	e8 01 3b 00 00       	call   71e0 <log_msg@plt>
    36df:	5e                   	pop    %esi
    36e0:	5f                   	pop    %edi
    36e1:	6a f5                	push   $0xfffffff5
    36e3:	53                   	push   %ebx
    36e4:	e8 d7 3a 00 00       	call   71c0 <async_answer_0@plt>
    36e9:	83 c4 10             	add    $0x10,%esp
    36ec:	e9 2f fe ff ff       	jmp    3520 <inet_cfg_conn+0x30>
    36f1:	8d b4 26 00 00 00 00 	lea    0x0(%esi,%eiz,1),%esi
    36f8:	8b 75 98             	mov    -0x68(%ebp),%esi
    36fb:	50                   	push   %eax
    36fc:	68 56 69 00 00       	push   $0x6956
    3701:	6a 04                	push   $0x4
    3703:	6a ff                	push   $0xffffffff
    3705:	e8 d6 3a 00 00       	call   71e0 <log_msg@plt>
    370a:	58                   	pop    %eax
    370b:	8d 85 7c ff ff ff    	lea    -0x84(%ebp),%eax
    3711:	5a                   	pop    %edx
    3712:	50                   	push   %eax
    3713:	8d 85 74 ff ff ff    	lea    -0x8c(%ebp),%eax
    3719:	c7 45 b8 00 00 00 00 	movl   $0x0,-0x48(%ebp)
    3720:	50                   	push   %eax
    3721:	e8 ea 3b 00 00       	call   7310 <async_data_read_receive@plt>
    3726:	83 c4 10             	add    $0x10,%esp
    3729:	84 c0                	test   %al,%al
    372b:	0f 85 9f 04 00 00    	jne    3bd0 <inet_cfg_conn+0x6e0>
    3731:	8b b5 74 ff ff ff    	mov    -0x8c(%ebp),%esi
    3737:	51                   	push   %ecx
    3738:	51                   	push   %ecx
    3739:	6a fc                	push   $0xfffffffc
    373b:	56                   	push   %esi
    373c:	eb 69                	jmp    37a7 <inet_cfg_conn+0x2b7>
    373e:	66 90                	xchg   %ax,%ax
    3740:	51                   	push   %ecx
    3741:	68 3f 69 00 00       	push   $0x693f
    3746:	6a 04                	push   $0x4
    3748:	6a ff                	push   $0xffffffff
    374a:	e8 91 3a 00 00       	call   71e0 <log_msg@plt>
    374f:	8b 7d 98             	mov    -0x68(%ebp),%edi
    3752:	5e                   	pop    %esi
    3753:	57                   	push   %edi
    3754:	e8 f7 f4 ff ff       	call   2c50 <inet_link_open>
    3759:	5a                   	pop    %edx
    375a:	59                   	pop    %ecx
    375b:	50                   	push   %eax
    375c:	53                   	push   %ebx
    375d:	e8 5e 3a 00 00       	call   71c0 <async_answer_0@plt>
    3762:	83 c4 10             	add    $0x10,%esp
    3765:	e9 b6 fd ff ff       	jmp    3520 <inet_cfg_conn+0x30>
    376a:	8d b6 00 00 00 00    	lea    0x0(%esi),%esi
    3770:	57                   	push   %edi
    3771:	68 21 69 00 00       	push   $0x6921
    3776:	6a 04                	push   $0x4
    3778:	6a ff                	push   $0xffffffff
    377a:	e8 61 3a 00 00       	call   71e0 <log_msg@plt>
    377f:	58                   	pop    %eax
    3780:	8d 45 80             	lea    -0x80(%ebp),%eax
    3783:	5a                   	pop    %edx
    3784:	50                   	push   %eax
    3785:	8d 85 78 ff ff ff    	lea    -0x88(%ebp),%eax
    378b:	50                   	push   %eax
    378c:	e8 7f 3b 00 00       	call   7310 <async_data_read_receive@plt>
    3791:	83 c4 10             	add    $0x10,%esp
    3794:	84 c0                	test   %al,%al
    3796:	0f 85 fc 04 00 00    	jne    3c98 <inet_cfg_conn+0x7a8>
    379c:	8b b5 78 ff ff ff    	mov    -0x88(%ebp),%esi
    37a2:	51                   	push   %ecx
    37a3:	51                   	push   %ecx
    37a4:	6a fc                	push   $0xfffffffc
    37a6:	56                   	push   %esi
    37a7:	e8 14 3a 00 00       	call   71c0 <async_answer_0@plt>
    37ac:	58                   	pop    %eax
    37ad:	5a                   	pop    %edx
    37ae:	6a fc                	push   $0xfffffffc
    37b0:	53                   	push   %ebx
    37b1:	e8 0a 3a 00 00       	call   71c0 <async_answer_0@plt>
    37b6:	83 c4 10             	add    $0x10,%esp
    37b9:	e9 62 fd ff ff       	jmp    3520 <inet_cfg_conn+0x30>
    37be:	66 90                	xchg   %ax,%ax
    37c0:	56                   	push   %esi
    37c1:	68 05 69 00 00       	push   $0x6905
    37c6:	6a 04                	push   $0x4
    37c8:	6a ff                	push   $0xffffffff
    37ca:	e8 11 3a 00 00       	call   71e0 <log_msg@plt>
    37cf:	5f                   	pop    %edi
    37d0:	58                   	pop    %eax
    37d1:	8d 45 80             	lea    -0x80(%ebp),%eax
    37d4:	50                   	push   %eax
    37d5:	8d 85 78 ff ff ff    	lea    -0x88(%ebp),%eax
    37db:	50                   	push   %eax
    37dc:	e8 2f 3b 00 00       	call   7310 <async_data_read_receive@plt>
    37e1:	83 c4 10             	add    $0x10,%esp
    37e4:	84 c0                	test   %al,%al
    37e6:	74 b4                	je     379c <inet_cfg_conn+0x2ac>
    37e8:	8d 85 7c ff ff ff    	lea    -0x84(%ebp),%eax
    37ee:	51                   	push   %ecx
    37ef:	51                   	push   %ecx
    37f0:	50                   	push   %eax
    37f1:	8d 45 b8             	lea    -0x48(%ebp),%eax
    37f4:	50                   	push   %eax
    37f5:	e8 56 fc ff ff       	call   3450 <inet_link_get_id_list>
    37fa:	83 c4 10             	add    $0x10,%esp
    37fd:	89 c6                	mov    %eax,%esi
    37ff:	85 c0                	test   %eax,%eax
    3801:	0f 85 94 00 00 00    	jne    389b <inet_cfg_conn+0x3ab>
    3807:	8b 85 7c ff ff ff    	mov    -0x84(%ebp),%eax
    380d:	8d 34 85 00 00 00 00 	lea    0x0(,%eax,4),%esi
    3814:	50                   	push   %eax
    3815:	8b 45 80             	mov    -0x80(%ebp),%eax
    3818:	39 f0                	cmp    %esi,%eax
    381a:	0f 87 b0 04 00 00    	ja     3cd0 <inet_cfg_conn+0x7e0>
    3820:	50                   	push   %eax
    3821:	8b 7d b8             	mov    -0x48(%ebp),%edi
    3824:	8b 85 78 ff ff ff    	mov    -0x88(%ebp),%eax
    382a:	57                   	push   %edi
    382b:	50                   	push   %eax
    382c:	e8 ef 38 00 00       	call   7120 <async_data_read_finalize@plt>
    3831:	89 c7                	mov    %eax,%edi
    3833:	58                   	pop    %eax
    3834:	8b 45 b8             	mov    -0x48(%ebp),%eax
    3837:	50                   	push   %eax
    3838:	e8 63 3c 00 00       	call   74a0 <free@plt>
    383d:	83 c4 0c             	add    $0xc,%esp
    3840:	56                   	push   %esi
    3841:	57                   	push   %edi
    3842:	53                   	push   %ebx
    3843:	e8 78 3b 00 00       	call   73c0 <async_answer_1@plt>
    3848:	83 c4 10             	add    $0x10,%esp
    384b:	e9 d0 fc ff ff       	jmp    3520 <inet_cfg_conn+0x30>
    3850:	50                   	push   %eax
    3851:	68 05 69 00 00       	push   $0x6905
    3856:	6a 04                	push   $0x4
    3858:	6a ff                	push   $0xffffffff
    385a:	e8 81 39 00 00       	call   71e0 <log_msg@plt>
    385f:	58                   	pop    %eax
    3860:	8d 45 80             	lea    -0x80(%ebp),%eax
    3863:	5a                   	pop    %edx
    3864:	50                   	push   %eax
    3865:	8d 85 78 ff ff ff    	lea    -0x88(%ebp),%eax
    386b:	50                   	push   %eax
    386c:	e8 9f 3a 00 00       	call   7310 <async_data_read_receive@plt>
    3871:	83 c4 10             	add    $0x10,%esp
    3874:	84 c0                	test   %al,%al
    3876:	0f 84 20 ff ff ff    	je     379c <inet_cfg_conn+0x2ac>
    387c:	50                   	push   %eax
    387d:	50                   	push   %eax
    387e:	8d 85 7c ff ff ff    	lea    -0x84(%ebp),%eax
    3884:	50                   	push   %eax
    3885:	8d 45 b8             	lea    -0x48(%ebp),%eax
    3888:	50                   	push   %eax
    3889:	e8 12 de ff ff       	call   16a0 <inet_addrobj_get_id_list>
    388e:	83 c4 10             	add    $0x10,%esp
    3891:	89 c6                	mov    %eax,%esi
    3893:	85 c0                	test   %eax,%eax
    3895:	0f 84 6c ff ff ff    	je     3807 <inet_cfg_conn+0x317>
    389b:	50                   	push   %eax
    389c:	50                   	push   %eax
    389d:	8b 85 78 ff ff ff    	mov    -0x88(%ebp),%eax
    38a3:	56                   	push   %esi
    38a4:	50                   	push   %eax
    38a5:	e8 16 39 00 00       	call   71c0 <async_answer_0@plt>
    38aa:	58                   	pop    %eax
    38ab:	5a                   	pop    %edx
    38ac:	56                   	push   %esi
    38ad:	53                   	push   %ebx
    38ae:	e8 0d 39 00 00       	call   71c0 <async_answer_0@plt>
    38b3:	83 c4 10             	add    $0x10,%esp
    38b6:	e9 65 fc ff ff       	jmp    3520 <inet_cfg_conn+0x30>
    38bb:	90                   	nop
    38bc:	8d 74 26 00          	lea    0x0(%esi,%eiz,1),%esi
    38c0:	56                   	push   %esi
    38c1:	68 bf 68 00 00       	push   $0x68bf
    38c6:	6a 04                	push   $0x4
    38c8:	6a ff                	push   $0xffffffff
    38ca:	e8 11 39 00 00       	call   71e0 <log_msg@plt>
    38cf:	5f                   	pop    %edi
    38d0:	58                   	pop    %eax
    38d1:	8d 45 b8             	lea    -0x48(%ebp),%eax
    38d4:	6a 00                	push   $0x0
    38d6:	8b 75 98             	mov    -0x68(%ebp),%esi
    38d9:	6a 00                	push   $0x0
    38db:	68 ff 00 00 00       	push   $0xff
    38e0:	6a 00                	push   $0x0
    38e2:	6a 01                	push   $0x1
    38e4:	50                   	push   %eax
    38e5:	e8 26 3b 00 00       	call   7410 <async_data_write_accept@plt>
    38ea:	83 c4 20             	add    $0x20,%esp
    38ed:	85 c0                	test   %eax,%eax
    38ef:	0f 85 67 fd ff ff    	jne    365c <inet_cfg_conn+0x16c>
    38f5:	83 ec 0c             	sub    $0xc,%esp
    38f8:	8b 7d b8             	mov    -0x48(%ebp),%edi
    38fb:	56                   	push   %esi
    38fc:	e8 cf fa ff ff       	call   33d0 <inet_link_get_by_id>
    3901:	83 c4 10             	add    $0x10,%esp
    3904:	85 c0                	test   %eax,%eax
    3906:	0f 84 47 08 00 00    	je     4153 <inet_cfg_conn+0xc63>
    390c:	51                   	push   %ecx
    390d:	51                   	push   %ecx
    390e:	50                   	push   %eax
    390f:	57                   	push   %edi
    3910:	e8 eb da ff ff       	call   1400 <inet_addrobj_find_by_name>
    3915:	83 c4 10             	add    $0x10,%esp
    3918:	85 c0                	test   %eax,%eax
    391a:	0f 84 3e 08 00 00    	je     415e <inet_cfg_conn+0xc6e>
    3920:	8b 78 08             	mov    0x8(%eax),%edi
    3923:	31 f6                	xor    %esi,%esi
    3925:	83 ec 0c             	sub    $0xc,%esp
    3928:	8b 45 b8             	mov    -0x48(%ebp),%eax
    392b:	50                   	push   %eax
    392c:	e8 6f 3b 00 00       	call   74a0 <free@plt>
    3931:	83 c4 0c             	add    $0xc,%esp
    3934:	57                   	push   %edi
    3935:	56                   	push   %esi
    3936:	53                   	push   %ebx
    3937:	e8 84 3a 00 00       	call   73c0 <async_answer_1@plt>
    393c:	83 c4 10             	add    $0x10,%esp
    393f:	e9 dc fb ff ff       	jmp    3520 <inet_cfg_conn+0x30>
    3944:	8d 74 26 00          	lea    0x0(%esi,%eiz,1),%esi
    3948:	51                   	push   %ecx
    3949:	68 a8 68 00 00       	push   $0x68a8
    394e:	6a 04                	push   $0x4
    3950:	6a ff                	push   $0xffffffff
    3952:	e8 89 38 00 00       	call   71e0 <log_msg@plt>
    3957:	8d 45 b8             	lea    -0x48(%ebp),%eax
    395a:	8b 75 98             	mov    -0x68(%ebp),%esi
    395d:	89 04 24             	mov    %eax,(%esp)
    3960:	e8 8b 38 00 00       	call   71f0 <inet_naddr_any@plt>
    3965:	89 34 24             	mov    %esi,(%esp)
    3968:	c7 45 d0 00 00 00 00 	movl   $0x0,-0x30(%ebp)
    396f:	c7 45 d4 00 00 00 00 	movl   $0x0,-0x2c(%ebp)
    3976:	e8 75 db ff ff       	call   14f0 <inet_addrobj_get_by_id>
    397b:	83 c4 10             	add    $0x10,%esp
    397e:	85 c0                	test   %eax,%eax
    3980:	0f 84 34 02 00 00    	je     3bba <inet_cfg_conn+0x6ca>
    3986:	8b 50 24             	mov    0x24(%eax),%edx
    3989:	83 ec 0c             	sub    $0xc,%esp
    398c:	8d 70 0c             	lea    0xc(%eax),%esi
    398f:	b9 06 00 00 00       	mov    $0x6,%ecx
    3994:	8b 52 08             	mov    0x8(%edx),%edx
    3997:	8b 40 28             	mov    0x28(%eax),%eax
    399a:	8d 7d b8             	lea    -0x48(%ebp),%edi
    399d:	f3 a5                	rep movsl %ds:(%esi),%es:(%edi)
    399f:	50                   	push   %eax
    39a0:	89 55 d0             	mov    %edx,-0x30(%ebp)
    39a3:	e8 08 39 00 00       	call   72b0 <str_dup@plt>
    39a8:	8d 7d 80             	lea    -0x80(%ebp),%edi
    39ab:	8d b5 7c ff ff ff    	lea    -0x84(%ebp),%esi
    39b1:	89 45 d4             	mov    %eax,-0x2c(%ebp)
    39b4:	58                   	pop    %eax
    39b5:	5a                   	pop    %edx
    39b6:	57                   	push   %edi
    39b7:	56                   	push   %esi
    39b8:	e8 53 39 00 00       	call   7310 <async_data_read_receive@plt>
    39bd:	83 c4 10             	add    $0x10,%esp
    39c0:	84 c0                	test   %al,%al
    39c2:	0f 84 f8 02 00 00    	je     3cc0 <inet_cfg_conn+0x7d0>
    39c8:	83 7d 80 18          	cmpl   $0x18,-0x80(%ebp)
    39cc:	0f 85 39 fc ff ff    	jne    360b <inet_cfg_conn+0x11b>
    39d2:	50                   	push   %eax
    39d3:	8d 45 b8             	lea    -0x48(%ebp),%eax
    39d6:	6a 18                	push   $0x18
    39d8:	50                   	push   %eax
    39d9:	8b 85 7c ff ff ff    	mov    -0x84(%ebp),%eax
    39df:	50                   	push   %eax
    39e0:	e8 3b 37 00 00       	call   7120 <async_data_read_finalize@plt>
    39e5:	83 c4 10             	add    $0x10,%esp
    39e8:	89 c2                	mov    %eax,%edx
    39ea:	85 c0                	test   %eax,%eax
    39ec:	0f 85 ee 03 00 00    	jne    3de0 <inet_cfg_conn+0x8f0>
    39f2:	50                   	push   %eax
    39f3:	50                   	push   %eax
    39f4:	57                   	push   %edi
    39f5:	56                   	push   %esi
    39f6:	e8 15 39 00 00       	call   7310 <async_data_read_receive@plt>
    39fb:	83 c4 10             	add    $0x10,%esp
    39fe:	84 c0                	test   %al,%al
    3a00:	0f 84 ba 02 00 00    	je     3cc0 <inet_cfg_conn+0x7d0>
    3a06:	83 ec 0c             	sub    $0xc,%esp
    3a09:	8b 45 d4             	mov    -0x2c(%ebp),%eax
    3a0c:	50                   	push   %eax
    3a0d:	e8 7e 39 00 00       	call   7390 <str_size@plt>
    3a12:	8b 55 80             	mov    -0x80(%ebp),%edx
    3a15:	83 c4 10             	add    $0x10,%esp
    3a18:	39 d0                	cmp    %edx,%eax
    3a1a:	0f 86 1d 07 00 00    	jbe    413d <inet_cfg_conn+0xc4d>
    3a20:	8b 8d 7c ff ff ff    	mov    -0x84(%ebp),%ecx
    3a26:	50                   	push   %eax
    3a27:	52                   	push   %edx
    3a28:	8b 55 d4             	mov    -0x2c(%ebp),%edx
    3a2b:	52                   	push   %edx
    3a2c:	51                   	push   %ecx
    3a2d:	e8 ee 36 00 00       	call   7120 <async_data_read_finalize@plt>
    3a32:	5f                   	pop    %edi
    3a33:	89 c6                	mov    %eax,%esi
    3a35:	8b 45 d4             	mov    -0x2c(%ebp),%eax
    3a38:	50                   	push   %eax
    3a39:	e8 62 3a 00 00       	call   74a0 <free@plt>
    3a3e:	83 c4 10             	add    $0x10,%esp
    3a41:	85 f6                	test   %esi,%esi
    3a43:	0f 84 df 06 00 00    	je     4128 <inet_cfg_conn+0xc38>
    3a49:	50                   	push   %eax
    3a4a:	50                   	push   %eax
    3a4b:	8b 85 7c ff ff ff    	mov    -0x84(%ebp),%eax
    3a51:	56                   	push   %esi
    3a52:	50                   	push   %eax
    3a53:	e8 68 37 00 00       	call   71c0 <async_answer_0@plt>
    3a58:	e9 4d fe ff ff       	jmp    38aa <inet_cfg_conn+0x3ba>
    3a5d:	8d 76 00             	lea    0x0(%esi),%esi
    3a60:	56                   	push   %esi
    3a61:	68 8e 68 00 00       	push   $0x688e
    3a66:	6a 04                	push   $0x4
    3a68:	6a ff                	push   $0xffffffff
    3a6a:	e8 71 37 00 00       	call   71e0 <log_msg@plt>
    3a6f:	8b 45 98             	mov    -0x68(%ebp),%eax
    3a72:	5f                   	pop    %edi
    3a73:	50                   	push   %eax
    3a74:	e8 77 da ff ff       	call   14f0 <inet_addrobj_get_by_id>
    3a79:	83 c4 10             	add    $0x10,%esp
    3a7c:	89 c6                	mov    %eax,%esi
    3a7e:	85 c0                	test   %eax,%eax
    3a80:	0f 84 a9 05 00 00    	je     402f <inet_cfg_conn+0xb3f>
    3a86:	83 ec 0c             	sub    $0xc,%esp
    3a89:	50                   	push   %eax
    3a8a:	e8 61 d8 ff ff       	call   12f0 <inet_addrobj_remove>
    3a8f:	89 34 24             	mov    %esi,(%esp)
    3a92:	e8 09 d7 ff ff       	call   11a0 <inet_addrobj_delete>
    3a97:	83 c4 10             	add    $0x10,%esp
    3a9a:	31 c0                	xor    %eax,%eax
    3a9c:	e9 bb fb ff ff       	jmp    365c <inet_cfg_conn+0x16c>
    3aa1:	8d b4 26 00 00 00 00 	lea    0x0(%esi,%eiz,1),%esi
    3aa8:	50                   	push   %eax
    3aa9:	68 14 6a 00 00       	push   $0x6a14
    3aae:	6a 04                	push   $0x4
    3ab0:	6a ff                	push   $0xffffffff
    3ab2:	e8 29 37 00 00       	call   71e0 <log_msg@plt>
    3ab7:	58                   	pop    %eax
    3ab8:	8d 85 78 ff ff ff    	lea    -0x88(%ebp),%eax
    3abe:	5a                   	pop    %edx
    3abf:	50                   	push   %eax
    3ac0:	8d 85 74 ff ff ff    	lea    -0x8c(%ebp),%eax
    3ac6:	50                   	push   %eax
    3ac7:	8b 75 98             	mov    -0x68(%ebp),%esi
    3aca:	e8 b1 39 00 00       	call   7480 <async_data_write_receive@plt>
    3acf:	83 c4 10             	add    $0x10,%esp
    3ad2:	84 c0                	test   %al,%al
    3ad4:	0f 84 ce fb ff ff    	je     36a8 <inet_cfg_conn+0x1b8>
    3ada:	83 bd 78 ff ff ff 18 	cmpl   $0x18,-0x88(%ebp)
    3ae1:	0f 85 c1 fb ff ff    	jne    36a8 <inet_cfg_conn+0x1b8>
    3ae7:	8b bd 74 ff ff ff    	mov    -0x8c(%ebp),%edi
    3aed:	8d 45 b8             	lea    -0x48(%ebp),%eax
    3af0:	51                   	push   %ecx
    3af1:	6a 18                	push   $0x18
    3af3:	50                   	push   %eax
    3af4:	57                   	push   %edi
    3af5:	e8 06 39 00 00       	call   7400 <async_data_write_finalize@plt>
    3afa:	83 c4 10             	add    $0x10,%esp
    3afd:	89 c7                	mov    %eax,%edi
    3aff:	85 c0                	test   %eax,%eax
    3b01:	0f 84 20 03 00 00    	je     3e27 <inet_cfg_conn+0x937>
    3b07:	50                   	push   %eax
    3b08:	50                   	push   %eax
    3b09:	8b 85 74 ff ff ff    	mov    -0x8c(%ebp),%eax
    3b0f:	57                   	push   %edi
    3b10:	50                   	push   %eax
    3b11:	e8 aa 36 00 00       	call   71c0 <async_answer_0@plt>
    3b16:	58                   	pop    %eax
    3b17:	5a                   	pop    %edx
    3b18:	57                   	push   %edi
    3b19:	53                   	push   %ebx
    3b1a:	e8 a1 36 00 00       	call   71c0 <async_answer_0@plt>
    3b1f:	83 c4 10             	add    $0x10,%esp
    3b22:	e9 f9 f9 ff ff       	jmp    3520 <inet_cfg_conn+0x30>
    3b27:	90                   	nop
    3b28:	51                   	push   %ecx
    3b29:	68 d8 69 00 00       	push   $0x69d8
    3b2e:	6a 04                	push   $0x4
    3b30:	6a ff                	push   $0xffffffff
    3b32:	e8 a9 36 00 00       	call   71e0 <log_msg@plt>
    3b37:	8d 45 b8             	lea    -0x48(%ebp),%eax
    3b3a:	5e                   	pop    %esi
    3b3b:	5f                   	pop    %edi
    3b3c:	6a 00                	push   $0x0
    3b3e:	6a 00                	push   $0x0
    3b40:	68 ff 00 00 00       	push   $0xff
    3b45:	6a 00                	push   $0x0
    3b47:	6a 01                	push   $0x1
    3b49:	50                   	push   %eax
    3b4a:	e8 c1 38 00 00       	call   7410 <async_data_write_accept@plt>
    3b4f:	83 c4 20             	add    $0x20,%esp
    3b52:	85 c0                	test   %eax,%eax
    3b54:	0f 85 02 fb ff ff    	jne    365c <inet_cfg_conn+0x16c>
    3b5a:	83 ec 0c             	sub    $0xc,%esp
    3b5d:	8b 75 b8             	mov    -0x48(%ebp),%esi
    3b60:	56                   	push   %esi
    3b61:	e8 4a 24 00 00       	call   5fb0 <inet_sroute_find_by_name>
    3b66:	83 c4 10             	add    $0x10,%esp
    3b69:	85 c0                	test   %eax,%eax
    3b6b:	0f 85 af fd ff ff    	jne    3920 <inet_cfg_conn+0x430>
    3b71:	56                   	push   %esi
    3b72:	68 f4 69 00 00       	push   $0x69f4
    3b77:	6a 04                	push   $0x4
    3b79:	6a ff                	push   $0xffffffff
    3b7b:	83 ce ff             	or     $0xffffffff,%esi
    3b7e:	e8 5d 36 00 00       	call   71e0 <log_msg@plt>
    3b83:	31 ff                	xor    %edi,%edi
    3b85:	83 c4 10             	add    $0x10,%esp
    3b88:	e9 98 fd ff ff       	jmp    3925 <inet_cfg_conn+0x435>
    3b8d:	8d 76 00             	lea    0x0(%esi),%esi
    3b90:	51                   	push   %ecx
    3b91:	51                   	push   %ecx
    3b92:	6a 00                	push   $0x0
    3b94:	53                   	push   %ebx
    3b95:	e8 26 36 00 00       	call   71c0 <async_answer_0@plt>
    3b9a:	8d 65 f4             	lea    -0xc(%ebp),%esp
    3b9d:	5b                   	pop    %ebx
    3b9e:	5e                   	pop    %esi
    3b9f:	5f                   	pop    %edi
    3ba0:	5d                   	pop    %ebp
    3ba1:	c3                   	ret    
    3ba2:	8d b6 00 00 00 00    	lea    0x0(%esi),%esi
    3ba8:	51                   	push   %ecx
    3ba9:	51                   	push   %ecx
    3baa:	6a f2                	push   $0xfffffff2
    3bac:	53                   	push   %ebx
    3bad:	e8 0e 36 00 00       	call   71c0 <async_answer_0@plt>
    3bb2:	83 c4 10             	add    $0x10,%esp
    3bb5:	e9 66 f9 ff ff       	jmp    3520 <inet_cfg_conn+0x30>
    3bba:	50                   	push   %eax
    3bbb:	50                   	push   %eax
    3bbc:	6a ff                	push   $0xffffffff
    3bbe:	53                   	push   %ebx
    3bbf:	e8 fc 35 00 00       	call   71c0 <async_answer_0@plt>
    3bc4:	83 c4 10             	add    $0x10,%esp
    3bc7:	e9 54 f9 ff ff       	jmp    3520 <inet_cfg_conn+0x30>
    3bcc:	8d 74 26 00          	lea    0x0(%esi,%eiz,1),%esi
    3bd0:	8d 45 80             	lea    -0x80(%ebp),%eax
    3bd3:	57                   	push   %edi
    3bd4:	57                   	push   %edi
    3bd5:	50                   	push   %eax
    3bd6:	8d 85 78 ff ff ff    	lea    -0x88(%ebp),%eax
    3bdc:	50                   	push   %eax
    3bdd:	e8 2e 37 00 00       	call   7310 <async_data_read_receive@plt>
    3be2:	83 c4 10             	add    $0x10,%esp
    3be5:	84 c0                	test   %al,%al
    3be7:	0f 84 44 fb ff ff    	je     3731 <inet_cfg_conn+0x241>
    3bed:	83 ec 0c             	sub    $0xc,%esp
    3bf0:	56                   	push   %esi
    3bf1:	e8 da f7 ff ff       	call   33d0 <inet_link_get_by_id>
    3bf6:	83 c4 10             	add    $0x10,%esp
    3bf9:	89 c6                	mov    %eax,%esi
    3bfb:	85 c0                	test   %eax,%eax
    3bfd:	0f 84 f2 01 00 00    	je     3df5 <inet_cfg_conn+0x905>
    3c03:	83 ec 0c             	sub    $0xc,%esp
    3c06:	8b 50 0c             	mov    0xc(%eax),%edx
    3c09:	52                   	push   %edx
    3c0a:	e8 a1 36 00 00       	call   72b0 <str_dup@plt>
    3c0f:	89 45 b8             	mov    %eax,-0x48(%ebp)
    3c12:	8b 46 18             	mov    0x18(%esi),%eax
    3c15:	83 c4 10             	add    $0x10,%esp
    3c18:	89 45 bc             	mov    %eax,-0x44(%ebp)
    3c1b:	80 7e 22 00          	cmpb   $0x0,0x22(%esi)
    3c1f:	0f 85 9f 03 00 00    	jne    3fc4 <inet_cfg_conn+0xad4>
    3c25:	8d 7d c0             	lea    -0x40(%ebp),%edi
    3c28:	50                   	push   %eax
    3c29:	6a 06                	push   $0x6
    3c2b:	6a 00                	push   $0x0
    3c2d:	57                   	push   %edi
    3c2e:	e8 cd 36 00 00       	call   7300 <memset@plt>
    3c33:	83 c4 10             	add    $0x10,%esp
    3c36:	83 ec 0c             	sub    $0xc,%esp
    3c39:	8b 55 b8             	mov    -0x48(%ebp),%edx
    3c3c:	52                   	push   %edx
    3c3d:	e8 4e 37 00 00       	call   7390 <str_size@plt>
    3c42:	8b 95 7c ff ff ff    	mov    -0x84(%ebp),%edx
    3c48:	83 c4 10             	add    $0x10,%esp
    3c4b:	39 d0                	cmp    %edx,%eax
    3c4d:	0f 86 c6 03 00 00    	jbe    4019 <inet_cfg_conn+0xb29>
    3c53:	50                   	push   %eax
    3c54:	8b 45 b8             	mov    -0x48(%ebp),%eax
    3c57:	52                   	push   %edx
    3c58:	50                   	push   %eax
    3c59:	8b 85 74 ff ff ff    	mov    -0x8c(%ebp),%eax
    3c5f:	50                   	push   %eax
    3c60:	e8 bb 34 00 00       	call   7120 <async_data_read_finalize@plt>
    3c65:	83 c4 10             	add    $0x10,%esp
    3c68:	89 c6                	mov    %eax,%esi
    3c6a:	85 c0                	test   %eax,%eax
    3c6c:	0f 84 69 03 00 00    	je     3fdb <inet_cfg_conn+0xaeb>
    3c72:	83 ec 0c             	sub    $0xc,%esp
    3c75:	8b 45 b8             	mov    -0x48(%ebp),%eax
    3c78:	50                   	push   %eax
    3c79:	e8 22 38 00 00       	call   74a0 <free@plt>
    3c7e:	8b bd 78 ff ff ff    	mov    -0x88(%ebp),%edi
    3c84:	5a                   	pop    %edx
    3c85:	59                   	pop    %ecx
    3c86:	56                   	push   %esi
    3c87:	57                   	push   %edi
    3c88:	e8 33 35 00 00       	call   71c0 <async_answer_0@plt>
    3c8d:	e9 18 fc ff ff       	jmp    38aa <inet_cfg_conn+0x3ba>
    3c92:	8d b6 00 00 00 00    	lea    0x0(%esi),%esi
    3c98:	8d 85 7c ff ff ff    	lea    -0x84(%ebp),%eax
    3c9e:	52                   	push   %edx
    3c9f:	52                   	push   %edx
    3ca0:	50                   	push   %eax
    3ca1:	8d 45 b8             	lea    -0x48(%ebp),%eax
    3ca4:	50                   	push   %eax
    3ca5:	e8 46 24 00 00       	call   60f0 <inet_sroute_get_id_list>
    3caa:	83 c4 10             	add    $0x10,%esp
    3cad:	89 c6                	mov    %eax,%esi
    3caf:	85 c0                	test   %eax,%eax
    3cb1:	0f 85 e4 fb ff ff    	jne    389b <inet_cfg_conn+0x3ab>
    3cb7:	e9 4b fb ff ff       	jmp    3807 <inet_cfg_conn+0x317>
    3cbc:	8d 74 26 00          	lea    0x0(%esi,%eiz,1),%esi
    3cc0:	8b b5 7c ff ff ff    	mov    -0x84(%ebp),%esi
    3cc6:	51                   	push   %ecx
    3cc7:	51                   	push   %ecx
    3cc8:	6a fc                	push   $0xfffffffc
    3cca:	56                   	push   %esi
    3ccb:	e9 d7 fa ff ff       	jmp    37a7 <inet_cfg_conn+0x2b7>
    3cd0:	89 f0                	mov    %esi,%eax
    3cd2:	e9 49 fb ff ff       	jmp    3820 <inet_cfg_conn+0x330>
    3cd7:	90                   	nop
    3cd8:	50                   	push   %eax
    3cd9:	8d 45 b8             	lea    -0x48(%ebp),%eax
    3cdc:	6a 18                	push   $0x18
    3cde:	50                   	push   %eax
    3cdf:	8b 85 74 ff ff ff    	mov    -0x8c(%ebp),%eax
    3ce5:	50                   	push   %eax
    3ce6:	e8 15 37 00 00       	call   7400 <async_data_write_finalize@plt>
    3ceb:	83 c4 10             	add    $0x10,%esp
    3cee:	85 c0                	test   %eax,%eax
    3cf0:	0f 84 79 02 00 00    	je     3f6f <inet_cfg_conn+0xa7f>
    3cf6:	8b bd 74 ff ff ff    	mov    -0x8c(%ebp),%edi
    3cfc:	89 85 64 ff ff ff    	mov    %eax,-0x9c(%ebp)
    3d02:	56                   	push   %esi
    3d03:	56                   	push   %esi
    3d04:	50                   	push   %eax
    3d05:	57                   	push   %edi
    3d06:	e8 b5 34 00 00       	call   71c0 <async_answer_0@plt>
    3d0b:	5a                   	pop    %edx
    3d0c:	8b 95 64 ff ff ff    	mov    -0x9c(%ebp),%edx
    3d12:	59                   	pop    %ecx
    3d13:	52                   	push   %edx
    3d14:	53                   	push   %ebx
    3d15:	e8 a6 34 00 00       	call   71c0 <async_answer_0@plt>
    3d1a:	83 c4 10             	add    $0x10,%esp
    3d1d:	e9 fe f7 ff ff       	jmp    3520 <inet_cfg_conn+0x30>
    3d22:	8d 45 b8             	lea    -0x48(%ebp),%eax
    3d25:	8b 8d 7c ff ff ff    	mov    -0x84(%ebp),%ecx
    3d2b:	52                   	push   %edx
    3d2c:	6a 18                	push   $0x18
    3d2e:	50                   	push   %eax
    3d2f:	51                   	push   %ecx
    3d30:	e8 eb 33 00 00       	call   7120 <async_data_read_finalize@plt>
    3d35:	83 c4 10             	add    $0x10,%esp
    3d38:	89 c2                	mov    %eax,%edx
    3d3a:	85 c0                	test   %eax,%eax
    3d3c:	0f 85 9e 00 00 00    	jne    3de0 <inet_cfg_conn+0x8f0>
    3d42:	50                   	push   %eax
    3d43:	50                   	push   %eax
    3d44:	57                   	push   %edi
    3d45:	56                   	push   %esi
    3d46:	e8 c5 35 00 00       	call   7310 <async_data_read_receive@plt>
    3d4b:	83 c4 10             	add    $0x10,%esp
    3d4e:	84 c0                	test   %al,%al
    3d50:	0f 84 6a ff ff ff    	je     3cc0 <inet_cfg_conn+0x7d0>
    3d56:	83 7d 80 14          	cmpl   $0x14,-0x80(%ebp)
    3d5a:	0f 85 ab f8 ff ff    	jne    360b <inet_cfg_conn+0x11b>
    3d60:	50                   	push   %eax
    3d61:	8d 45 d0             	lea    -0x30(%ebp),%eax
    3d64:	6a 14                	push   $0x14
    3d66:	50                   	push   %eax
    3d67:	8b 85 7c ff ff ff    	mov    -0x84(%ebp),%eax
    3d6d:	50                   	push   %eax
    3d6e:	e8 ad 33 00 00       	call   7120 <async_data_read_finalize@plt>
    3d73:	83 c4 10             	add    $0x10,%esp
    3d76:	89 c2                	mov    %eax,%edx
    3d78:	85 c0                	test   %eax,%eax
    3d7a:	75 64                	jne    3de0 <inet_cfg_conn+0x8f0>
    3d7c:	50                   	push   %eax
    3d7d:	50                   	push   %eax
    3d7e:	57                   	push   %edi
    3d7f:	56                   	push   %esi
    3d80:	e8 8b 35 00 00       	call   7310 <async_data_read_receive@plt>
    3d85:	83 c4 10             	add    $0x10,%esp
    3d88:	84 c0                	test   %al,%al
    3d8a:	0f 84 30 ff ff ff    	je     3cc0 <inet_cfg_conn+0x7d0>
    3d90:	83 ec 0c             	sub    $0xc,%esp
    3d93:	8b 45 e4             	mov    -0x1c(%ebp),%eax
    3d96:	50                   	push   %eax
    3d97:	e8 f4 35 00 00       	call   7390 <str_size@plt>
    3d9c:	8b 55 80             	mov    -0x80(%ebp),%edx
    3d9f:	83 c4 10             	add    $0x10,%esp
    3da2:	39 d0                	cmp    %edx,%eax
    3da4:	77 11                	ja     3db7 <inet_cfg_conn+0x8c7>
    3da6:	83 ec 0c             	sub    $0xc,%esp
    3da9:	8b 45 e4             	mov    -0x1c(%ebp),%eax
    3dac:	50                   	push   %eax
    3dad:	e8 de 35 00 00       	call   7390 <str_size@plt>
    3db2:	83 c4 10             	add    $0x10,%esp
    3db5:	89 c2                	mov    %eax,%edx
    3db7:	8b 75 e4             	mov    -0x1c(%ebp),%esi
    3dba:	8b bd 7c ff ff ff    	mov    -0x84(%ebp),%edi
    3dc0:	51                   	push   %ecx
    3dc1:	52                   	push   %edx
    3dc2:	56                   	push   %esi
    3dc3:	57                   	push   %edi
    3dc4:	e8 57 33 00 00       	call   7120 <async_data_read_finalize@plt>
    3dc9:	89 c6                	mov    %eax,%esi
    3dcb:	58                   	pop    %eax
    3dcc:	8b 45 e4             	mov    -0x1c(%ebp),%eax
    3dcf:	50                   	push   %eax
    3dd0:	e8 cb 36 00 00       	call   74a0 <free@plt>
    3dd5:	e9 d0 fa ff ff       	jmp    38aa <inet_cfg_conn+0x3ba>
    3dda:	8d b6 00 00 00 00    	lea    0x0(%esi),%esi
    3de0:	50                   	push   %eax
    3de1:	50                   	push   %eax
    3de2:	8b 85 7c ff ff ff    	mov    -0x84(%ebp),%eax
    3de8:	52                   	push   %edx
    3de9:	89 95 64 ff ff ff    	mov    %edx,-0x9c(%ebp)
    3def:	50                   	push   %eax
    3df0:	e9 11 ff ff ff       	jmp    3d06 <inet_cfg_conn+0x816>
    3df5:	8b b5 78 ff ff ff    	mov    -0x88(%ebp),%esi
    3dfb:	51                   	push   %ecx
    3dfc:	51                   	push   %ecx
    3dfd:	6a ff                	push   $0xffffffff
    3dff:	56                   	push   %esi
    3e00:	e8 bb 33 00 00       	call   71c0 <async_answer_0@plt>
    3e05:	5f                   	pop    %edi
    3e06:	58                   	pop    %eax
    3e07:	8b 85 74 ff ff ff    	mov    -0x8c(%ebp),%eax
    3e0d:	6a ff                	push   $0xffffffff
    3e0f:	50                   	push   %eax
    3e10:	e8 ab 33 00 00       	call   71c0 <async_answer_0@plt>
    3e15:	58                   	pop    %eax
    3e16:	5a                   	pop    %edx
    3e17:	6a ff                	push   $0xffffffff
    3e19:	53                   	push   %ebx
    3e1a:	e8 a1 33 00 00       	call   71c0 <async_answer_0@plt>
    3e1f:	83 c4 10             	add    $0x10,%esp
    3e22:	e9 f9 f6 ff ff       	jmp    3520 <inet_cfg_conn+0x30>
    3e27:	50                   	push   %eax
    3e28:	50                   	push   %eax
    3e29:	8d 85 7c ff ff ff    	lea    -0x84(%ebp),%eax
    3e2f:	6a 00                	push   $0x0
    3e31:	6a 00                	push   $0x0
    3e33:	68 ff 00 00 00       	push   $0xff
    3e38:	6a 00                	push   $0x0
    3e3a:	6a 01                	push   $0x1
    3e3c:	50                   	push   %eax
    3e3d:	e8 ce 35 00 00       	call   7410 <async_data_write_accept@plt>
    3e42:	83 c4 20             	add    $0x20,%esp
    3e45:	85 c0                	test   %eax,%eax
    3e47:	0f 85 0f f8 ff ff    	jne    365c <inet_cfg_conn+0x16c>
    3e4d:	83 ec 0c             	sub    $0xc,%esp
    3e50:	8b 85 7c ff ff ff    	mov    -0x84(%ebp),%eax
    3e56:	89 85 60 ff ff ff    	mov    %eax,-0xa0(%ebp)
    3e5c:	56                   	push   %esi
    3e5d:	e8 6e f5 ff ff       	call   33d0 <inet_link_get_by_id>
    3e62:	83 c4 10             	add    $0x10,%esp
    3e65:	89 85 64 ff ff ff    	mov    %eax,-0x9c(%ebp)
    3e6b:	85 c0                	test   %eax,%eax
    3e6d:	0f 84 09 03 00 00    	je     417c <inet_cfg_conn+0xc8c>
    3e73:	e8 b8 d2 ff ff       	call   1130 <inet_addrobj_new>
    3e78:	89 c2                	mov    %eax,%edx
    3e7a:	85 c0                	test   %eax,%eax
    3e7c:	0f 84 f0 02 00 00    	je     4172 <inet_cfg_conn+0xc82>
    3e82:	8d 78 0c             	lea    0xc(%eax),%edi
    3e85:	b9 06 00 00 00       	mov    $0x6,%ecx
    3e8a:	8d 75 b8             	lea    -0x48(%ebp),%esi
    3e8d:	89 bd 58 ff ff ff    	mov    %edi,-0xa8(%ebp)
    3e93:	f3 a5                	rep movsl %ds:(%esi),%es:(%edi)
    3e95:	83 ec 0c             	sub    $0xc,%esp
    3e98:	8b 85 64 ff ff ff    	mov    -0x9c(%ebp),%eax
    3e9e:	89 42 24             	mov    %eax,0x24(%edx)
    3ea1:	8b bd 60 ff ff ff    	mov    -0xa0(%ebp),%edi
    3ea7:	57                   	push   %edi
    3ea8:	89 95 5c ff ff ff    	mov    %edx,-0xa4(%ebp)
    3eae:	e8 fd 33 00 00       	call   72b0 <str_dup@plt>
    3eb3:	8b 95 5c ff ff ff    	mov    -0xa4(%ebp),%edx
    3eb9:	89 95 60 ff ff ff    	mov    %edx,-0xa0(%ebp)
    3ebf:	89 42 28             	mov    %eax,0x28(%edx)
    3ec2:	89 14 24             	mov    %edx,(%esp)
    3ec5:	e8 06 d3 ff ff       	call   11d0 <inet_addrobj_add>
    3eca:	83 c4 10             	add    $0x10,%esp
    3ecd:	8b 95 60 ff ff ff    	mov    -0xa0(%ebp),%edx
    3ed3:	85 c0                	test   %eax,%eax
    3ed5:	0f 85 5c 01 00 00    	jne    4037 <inet_cfg_conn+0xb47>
    3edb:	8d 75 80             	lea    -0x80(%ebp),%esi
    3ede:	50                   	push   %eax
    3edf:	50                   	push   %eax
    3ee0:	8b 85 58 ff ff ff    	mov    -0xa8(%ebp),%eax
    3ee6:	56                   	push   %esi
    3ee7:	89 95 60 ff ff ff    	mov    %edx,-0xa0(%ebp)
    3eed:	50                   	push   %eax
    3eee:	e8 6d 32 00 00       	call   7160 <inet_naddr_addr@plt>
    3ef3:	58                   	pop    %eax
    3ef4:	8b 85 64 ff ff ff    	mov    -0x9c(%ebp),%eax
    3efa:	5a                   	pop    %edx
    3efb:	56                   	push   %esi
    3efc:	8b 48 14             	mov    0x14(%eax),%ecx
    3eff:	31 f6                	xor    %esi,%esi
    3f01:	51                   	push   %ecx
    3f02:	e8 39 34 00 00       	call   7340 <iplink_addr_add@plt>
    3f07:	83 c4 10             	add    $0x10,%esp
    3f0a:	89 c7                	mov    %eax,%edi
    3f0c:	85 c0                	test   %eax,%eax
    3f0e:	8b 95 60 ff ff ff    	mov    -0xa0(%ebp),%edx
    3f14:	74 36                	je     3f4c <inet_cfg_conn+0xa5c>
    3f16:	89 95 64 ff ff ff    	mov    %edx,-0x9c(%ebp)
    3f1c:	50                   	push   %eax
    3f1d:	68 38 6a 00 00       	push   $0x6a38
    3f22:	6a 01                	push   $0x1
    3f24:	6a ff                	push   $0xffffffff
    3f26:	e8 b5 32 00 00       	call   71e0 <log_msg@plt>
    3f2b:	8b 95 64 ff ff ff    	mov    -0x9c(%ebp),%edx
    3f31:	89 fe                	mov    %edi,%esi
    3f33:	89 14 24             	mov    %edx,(%esp)
    3f36:	e8 b5 d3 ff ff       	call   12f0 <inet_addrobj_remove>
    3f3b:	8b 95 64 ff ff ff    	mov    -0x9c(%ebp),%edx
    3f41:	89 14 24             	mov    %edx,(%esp)
    3f44:	e8 57 d2 ff ff       	call   11a0 <inet_addrobj_delete>
    3f49:	83 c4 10             	add    $0x10,%esp
    3f4c:	83 ec 0c             	sub    $0xc,%esp
    3f4f:	8b 85 7c ff ff ff    	mov    -0x84(%ebp),%eax
    3f55:	50                   	push   %eax
    3f56:	e8 45 35 00 00       	call   74a0 <free@plt>
    3f5b:	83 c4 0c             	add    $0xc,%esp
    3f5e:	6a 00                	push   $0x0
    3f60:	56                   	push   %esi
    3f61:	53                   	push   %ebx
    3f62:	e8 59 34 00 00       	call   73c0 <async_answer_1@plt>
    3f67:	83 c4 10             	add    $0x10,%esp
    3f6a:	e9 b1 f5 ff ff       	jmp    3520 <inet_cfg_conn+0x30>
    3f6f:	50                   	push   %eax
    3f70:	50                   	push   %eax
    3f71:	57                   	push   %edi
    3f72:	56                   	push   %esi
    3f73:	e8 08 35 00 00       	call   7480 <async_data_write_receive@plt>
    3f78:	83 c4 10             	add    $0x10,%esp
    3f7b:	84 c0                	test   %al,%al
    3f7d:	0f 84 25 f7 ff ff    	je     36a8 <inet_cfg_conn+0x1b8>
    3f83:	83 bd 78 ff ff ff 14 	cmpl   $0x14,-0x88(%ebp)
    3f8a:	0f 85 18 f7 ff ff    	jne    36a8 <inet_cfg_conn+0x1b8>
    3f90:	50                   	push   %eax
    3f91:	8d 45 80             	lea    -0x80(%ebp),%eax
    3f94:	6a 14                	push   $0x14
    3f96:	50                   	push   %eax
    3f97:	8b 85 74 ff ff ff    	mov    -0x8c(%ebp),%eax
    3f9d:	50                   	push   %eax
    3f9e:	e8 5d 34 00 00       	call   7400 <async_data_write_finalize@plt>
    3fa3:	83 c4 10             	add    $0x10,%esp
    3fa6:	89 c6                	mov    %eax,%esi
    3fa8:	85 c0                	test   %eax,%eax
    3faa:	0f 84 c3 00 00 00    	je     4073 <inet_cfg_conn+0xb83>
    3fb0:	57                   	push   %edi
    3fb1:	57                   	push   %edi
    3fb2:	50                   	push   %eax
    3fb3:	8b 85 74 ff ff ff    	mov    -0x8c(%ebp),%eax
    3fb9:	50                   	push   %eax
    3fba:	e8 01 32 00 00       	call   71c0 <async_answer_0@plt>
    3fbf:	e9 e6 f8 ff ff       	jmp    38aa <inet_cfg_conn+0x3ba>
    3fc4:	8d 7d c0             	lea    -0x40(%ebp),%edi
    3fc7:	83 c6 1c             	add    $0x1c,%esi
    3fca:	50                   	push   %eax
    3fcb:	50                   	push   %eax
    3fcc:	57                   	push   %edi
    3fcd:	56                   	push   %esi
    3fce:	e8 0d 34 00 00       	call   73e0 <addr48@plt>
    3fd3:	83 c4 10             	add    $0x10,%esp
    3fd6:	e9 5b fc ff ff       	jmp    3c36 <inet_cfg_conn+0x746>
    3fdb:	50                   	push   %eax
    3fdc:	8b 45 80             	mov    -0x80(%ebp),%eax
    3fdf:	83 f8 06             	cmp    $0x6,%eax
    3fe2:	76 05                	jbe    3fe9 <inet_cfg_conn+0xaf9>
    3fe4:	b8 06 00 00 00       	mov    $0x6,%eax
    3fe9:	50                   	push   %eax
    3fea:	8b 85 78 ff ff ff    	mov    -0x88(%ebp),%eax
    3ff0:	57                   	push   %edi
    3ff1:	50                   	push   %eax
    3ff2:	e8 29 31 00 00       	call   7120 <async_data_read_finalize@plt>
    3ff7:	89 c6                	mov    %eax,%esi
    3ff9:	58                   	pop    %eax
    3ffa:	8b 45 b8             	mov    -0x48(%ebp),%eax
    3ffd:	50                   	push   %eax
    3ffe:	e8 9d 34 00 00       	call   74a0 <free@plt>
    4003:	83 c4 0c             	add    $0xc,%esp
    4006:	8b 45 bc             	mov    -0x44(%ebp),%eax
    4009:	50                   	push   %eax
    400a:	56                   	push   %esi
    400b:	53                   	push   %ebx
    400c:	e8 af 33 00 00       	call   73c0 <async_answer_1@plt>
    4011:	83 c4 10             	add    $0x10,%esp
    4014:	e9 07 f5 ff ff       	jmp    3520 <inet_cfg_conn+0x30>
    4019:	83 ec 0c             	sub    $0xc,%esp
    401c:	8b 45 b8             	mov    -0x48(%ebp),%eax
    401f:	50                   	push   %eax
    4020:	e8 6b 33 00 00       	call   7390 <str_size@plt>
    4025:	83 c4 10             	add    $0x10,%esp
    4028:	89 c2                	mov    %eax,%edx
    402a:	e9 24 fc ff ff       	jmp    3c53 <inet_cfg_conn+0x763>
    402f:	83 c8 ff             	or     $0xffffffff,%eax
    4032:	e9 25 f6 ff ff       	jmp    365c <inet_cfg_conn+0x16c>
    4037:	8b 72 28             	mov    0x28(%edx),%esi
    403a:	89 85 60 ff ff ff    	mov    %eax,-0xa0(%ebp)
    4040:	56                   	push   %esi
    4041:	89 95 64 ff ff ff    	mov    %edx,-0x9c(%ebp)
    4047:	68 71 68 00 00       	push   $0x6871
    404c:	6a 04                	push   $0x4
    404e:	6a ff                	push   $0xffffffff
    4050:	e8 8b 31 00 00       	call   71e0 <log_msg@plt>
    4055:	8b 95 64 ff ff ff    	mov    -0x9c(%ebp),%edx
    405b:	89 14 24             	mov    %edx,(%esp)
    405e:	e8 3d d1 ff ff       	call   11a0 <inet_addrobj_delete>
    4063:	8b 85 60 ff ff ff    	mov    -0xa0(%ebp),%eax
    4069:	83 c4 10             	add    $0x10,%esp
    406c:	89 c6                	mov    %eax,%esi
    406e:	e9 d9 fe ff ff       	jmp    3f4c <inet_cfg_conn+0xa5c>
    4073:	8d 85 7c ff ff ff    	lea    -0x84(%ebp),%eax
    4079:	51                   	push   %ecx
    407a:	51                   	push   %ecx
    407b:	6a 00                	push   $0x0
    407d:	6a 00                	push   $0x0
    407f:	68 ff 00 00 00       	push   $0xff
    4084:	6a 00                	push   $0x0
    4086:	6a 01                	push   $0x1
    4088:	50                   	push   %eax
    4089:	e8 82 33 00 00       	call   7410 <async_data_write_accept@plt>
    408e:	83 c4 20             	add    $0x20,%esp
    4091:	85 c0                	test   %eax,%eax
    4093:	0f 85 c3 f5 ff ff    	jne    365c <inet_cfg_conn+0x16c>
    4099:	8b 85 7c ff ff ff    	mov    -0x84(%ebp),%eax
    409f:	89 85 64 ff ff ff    	mov    %eax,-0x9c(%ebp)
    40a5:	e8 c6 1c 00 00       	call   5d70 <inet_sroute_new>
    40aa:	89 c2                	mov    %eax,%edx
    40ac:	85 c0                	test   %eax,%eax
    40ae:	0f 84 b5 00 00 00    	je     4169 <inet_cfg_conn+0xc79>
    40b4:	8d 78 0c             	lea    0xc(%eax),%edi
    40b7:	b9 06 00 00 00       	mov    $0x6,%ecx
    40bc:	8d 75 b8             	lea    -0x48(%ebp),%esi
    40bf:	8b 45 80             	mov    -0x80(%ebp),%eax
    40c2:	f3 a5                	rep movsl %ds:(%esi),%es:(%edi)
    40c4:	89 42 24             	mov    %eax,0x24(%edx)
    40c7:	83 ec 0c             	sub    $0xc,%esp
    40ca:	8b 45 84             	mov    -0x7c(%ebp),%eax
    40cd:	89 95 60 ff ff ff    	mov    %edx,-0xa0(%ebp)
    40d3:	89 42 28             	mov    %eax,0x28(%edx)
    40d6:	31 f6                	xor    %esi,%esi
    40d8:	8b 45 88             	mov    -0x78(%ebp),%eax
    40db:	89 42 2c             	mov    %eax,0x2c(%edx)
    40de:	8b 45 8c             	mov    -0x74(%ebp),%eax
    40e1:	89 42 30             	mov    %eax,0x30(%edx)
    40e4:	8b 45 90             	mov    -0x70(%ebp),%eax
    40e7:	89 42 34             	mov    %eax,0x34(%edx)
    40ea:	8b 95 64 ff ff ff    	mov    -0x9c(%ebp),%edx
    40f0:	52                   	push   %edx
    40f1:	e8 ba 31 00 00       	call   72b0 <str_dup@plt>
    40f6:	8b 95 60 ff ff ff    	mov    -0xa0(%ebp),%edx
    40fc:	89 95 64 ff ff ff    	mov    %edx,-0x9c(%ebp)
    4102:	89 42 38             	mov    %eax,0x38(%edx)
    4105:	89 14 24             	mov    %edx,(%esp)
    4108:	e8 03 1d 00 00       	call   5e10 <inet_sroute_add>
    410d:	8b 95 64 ff ff ff    	mov    -0x9c(%ebp),%edx
    4113:	83 c4 10             	add    $0x10,%esp
    4116:	8b 7a 08             	mov    0x8(%edx),%edi
    4119:	83 ec 0c             	sub    $0xc,%esp
    411c:	8b 85 7c ff ff ff    	mov    -0x84(%ebp),%eax
    4122:	50                   	push   %eax
    4123:	e9 04 f8 ff ff       	jmp    392c <inet_cfg_conn+0x43c>
    4128:	50                   	push   %eax
    4129:	8b 45 d0             	mov    -0x30(%ebp),%eax
    412c:	50                   	push   %eax
    412d:	6a 00                	push   $0x0
    412f:	53                   	push   %ebx
    4130:	e8 8b 32 00 00       	call   73c0 <async_answer_1@plt>
    4135:	83 c4 10             	add    $0x10,%esp
    4138:	e9 e3 f3 ff ff       	jmp    3520 <inet_cfg_conn+0x30>
    413d:	83 ec 0c             	sub    $0xc,%esp
    4140:	8b 45 d4             	mov    -0x2c(%ebp),%eax
    4143:	50                   	push   %eax
    4144:	e8 47 32 00 00       	call   7390 <str_size@plt>
    4149:	83 c4 10             	add    $0x10,%esp
    414c:	89 c2                	mov    %eax,%edx
    414e:	e9 cd f8 ff ff       	jmp    3a20 <inet_cfg_conn+0x530>
    4153:	56                   	push   %esi
    4154:	68 d9 68 00 00       	push   $0x68d9
    4159:	e9 19 fa ff ff       	jmp    3b77 <inet_cfg_conn+0x687>
    415e:	57                   	push   %edi
    415f:	68 ed 68 00 00       	push   $0x68ed
    4164:	e9 0e fa ff ff       	jmp    3b77 <inet_cfg_conn+0x687>
    4169:	be fe ff ff ff       	mov    $0xfffffffe,%esi
    416e:	31 ff                	xor    %edi,%edi
    4170:	eb a7                	jmp    4119 <inet_cfg_conn+0xc29>
    4172:	be fe ff ff ff       	mov    $0xfffffffe,%esi
    4177:	e9 d0 fd ff ff       	jmp    3f4c <inet_cfg_conn+0xa5c>
    417c:	56                   	push   %esi
    417d:	68 5d 68 00 00       	push   $0x685d
    4182:	6a 04                	push   $0x4
    4184:	6a ff                	push   $0xffffffff
    4186:	83 ce ff             	or     $0xffffffff,%esi
    4189:	e8 52 30 00 00       	call   71e0 <log_msg@plt>
    418e:	83 c4 10             	add    $0x10,%esp
    4191:	e9 b6 fd ff ff       	jmp    3f4c <inet_cfg_conn+0xa5c>
    4196:	66 90                	xchg   %ax,%ax
    4198:	66 90                	xchg   %ax,%ax
    419a:	66 90                	xchg   %ax,%ax
    419c:	66 90                	xchg   %ax,%ax
    419e:	66 90                	xchg   %ax,%ax

000041a0 <inetping_recv>:
    41a0:	55                   	push   %ebp
    41a1:	89 e5                	mov    %esp,%ebp
    41a3:	57                   	push   %edi
    41a4:	56                   	push   %esi
    41a5:	53                   	push   %ebx
    41a6:	83 ec 58             	sub    $0x58,%esp
    41a9:	8b 55 08             	mov    0x8(%ebp),%edx
    41ac:	8b 75 0c             	mov    0xc(%ebp),%esi
    41af:	68 dc 91 00 00       	push   $0x91dc
    41b4:	89 d7                	mov    %edx,%edi
    41b6:	89 55 b4             	mov    %edx,-0x4c(%ebp)
    41b9:	e8 f2 32 00 00       	call   74b0 <fibril_mutex_lock@plt>
    41be:	a1 d8 91 00 00       	mov    0x91d8,%eax
    41c3:	83 c4 10             	add    $0x10,%esp
    41c6:	3d d4 91 00 00       	cmp    $0x91d4,%eax
    41cb:	74 26                	je     41f3 <inetping_recv+0x53>
    41cd:	8d 58 f8             	lea    -0x8(%eax),%ebx
    41d0:	8b 55 b4             	mov    -0x4c(%ebp),%edx
    41d3:	66 3b 53 04          	cmp    0x4(%ebx),%dx
    41d7:	75 0d                	jne    41e6 <inetping_recv+0x46>
    41d9:	eb 45                	jmp    4220 <inetping_recv+0x80>
    41db:	90                   	nop
    41dc:	8d 74 26 00          	lea    0x0(%esi,%eiz,1),%esi
    41e0:	66 3b 7b 04          	cmp    0x4(%ebx),%di
    41e4:	74 3a                	je     4220 <inetping_recv+0x80>
    41e6:	8b 40 04             	mov    0x4(%eax),%eax
    41e9:	3d d4 91 00 00       	cmp    $0x91d4,%eax
    41ee:	8d 58 f8             	lea    -0x8(%eax),%ebx
    41f1:	75 ed                	jne    41e0 <inetping_recv+0x40>
    41f3:	83 ec 0c             	sub    $0xc,%esp
    41f6:	68 dc 91 00 00       	push   $0x91dc
    41fb:	e8 a0 30 00 00       	call   72a0 <fibril_mutex_unlock@plt>
    4200:	83 c4 0c             	add    $0xc,%esp
    4203:	68 9c 6a 00 00       	push   $0x6a9c
    4208:	6a 04                	push   $0x4
    420a:	6a ff                	push   $0xffffffff
    420c:	e8 cf 2f 00 00       	call   71e0 <log_msg@plt>
    4211:	83 c4 10             	add    $0x10,%esp
    4214:	8d 65 f4             	lea    -0xc(%ebp),%esp
    4217:	83 c8 ff             	or     $0xffffffff,%eax
    421a:	5b                   	pop    %ebx
    421b:	5e                   	pop    %esi
    421c:	5f                   	pop    %edi
    421d:	5d                   	pop    %ebp
    421e:	c3                   	ret    
    421f:	90                   	nop
    4220:	83 ec 0c             	sub    $0xc,%esp
    4223:	68 dc 91 00 00       	push   $0x91dc
    4228:	e8 73 30 00 00       	call   72a0 <fibril_mutex_unlock@plt>
    422d:	58                   	pop    %eax
    422e:	8b 03                	mov    (%ebx),%eax
    4230:	50                   	push   %eax
    4231:	e8 9a 31 00 00       	call   73d0 <async_exchange_begin@plt>
    4236:	83 c4 0c             	add    $0xc,%esp
    4239:	89 c3                	mov    %eax,%ebx
    423b:	8d 45 c4             	lea    -0x3c(%ebp),%eax
    423e:	50                   	push   %eax
    423f:	31 c0                	xor    %eax,%eax
    4241:	66 8b 46 28          	mov    0x28(%esi),%ax
    4245:	6a 00                	push   $0x0
    4247:	6a 00                	push   $0x0
    4249:	6a 00                	push   $0x0
    424b:	50                   	push   %eax
    424c:	68 00 04 00 00       	push   $0x400
    4251:	53                   	push   %ebx
    4252:	e8 79 2f 00 00       	call   71d0 <async_send_fast@plt>
    4257:	83 c4 1c             	add    $0x1c,%esp
    425a:	89 c7                	mov    %eax,%edi
    425c:	6a 14                	push   $0x14
    425e:	56                   	push   %esi
    425f:	53                   	push   %ebx
    4260:	e8 7b 2e 00 00       	call   70e0 <async_data_write_start@plt>
    4265:	83 c4 10             	add    $0x10,%esp
    4268:	85 c0                	test   %eax,%eax
    426a:	75 54                	jne    42c0 <inetping_recv+0x120>
    426c:	50                   	push   %eax
    426d:	8d 46 14             	lea    0x14(%esi),%eax
    4270:	6a 14                	push   $0x14
    4272:	50                   	push   %eax
    4273:	53                   	push   %ebx
    4274:	e8 67 2e 00 00       	call   70e0 <async_data_write_start@plt>
    4279:	83 c4 10             	add    $0x10,%esp
    427c:	85 c0                	test   %eax,%eax
    427e:	75 40                	jne    42c0 <inetping_recv+0x120>
    4280:	52                   	push   %edx
    4281:	8b 4e 30             	mov    0x30(%esi),%ecx
    4284:	8b 76 2c             	mov    0x2c(%esi),%esi
    4287:	51                   	push   %ecx
    4288:	56                   	push   %esi
    4289:	53                   	push   %ebx
    428a:	e8 51 2e 00 00       	call   70e0 <async_data_write_start@plt>
    428f:	89 1c 24             	mov    %ebx,(%esp)
    4292:	89 45 b4             	mov    %eax,-0x4c(%ebp)
    4295:	e8 66 2f 00 00       	call   7200 <async_exchange_end@plt>
    429a:	8b 45 b4             	mov    -0x4c(%ebp),%eax
    429d:	83 c4 10             	add    $0x10,%esp
    42a0:	85 c0                	test   %eax,%eax
    42a2:	75 3e                	jne    42e2 <inetping_recv+0x142>
    42a4:	50                   	push   %eax
    42a5:	50                   	push   %eax
    42a6:	8d 45 c0             	lea    -0x40(%ebp),%eax
    42a9:	50                   	push   %eax
    42aa:	57                   	push   %edi
    42ab:	e8 10 2e 00 00       	call   70c0 <async_wait_for@plt>
    42b0:	8b 45 c0             	mov    -0x40(%ebp),%eax
    42b3:	83 c4 10             	add    $0x10,%esp
    42b6:	8d 65 f4             	lea    -0xc(%ebp),%esp
    42b9:	5b                   	pop    %ebx
    42ba:	5e                   	pop    %esi
    42bb:	5f                   	pop    %edi
    42bc:	5d                   	pop    %ebp
    42bd:	c3                   	ret    
    42be:	66 90                	xchg   %ax,%ax
    42c0:	83 ec 0c             	sub    $0xc,%esp
    42c3:	89 45 b4             	mov    %eax,-0x4c(%ebp)
    42c6:	53                   	push   %ebx
    42c7:	e8 34 2f 00 00       	call   7200 <async_exchange_end@plt>
    42cc:	89 3c 24             	mov    %edi,(%esp)
    42cf:	e8 5c 31 00 00       	call   7430 <async_forget@plt>
    42d4:	8b 45 b4             	mov    -0x4c(%ebp),%eax
    42d7:	83 c4 10             	add    $0x10,%esp
    42da:	8d 65 f4             	lea    -0xc(%ebp),%esp
    42dd:	5b                   	pop    %ebx
    42de:	5e                   	pop    %esi
    42df:	5f                   	pop    %edi
    42e0:	5d                   	pop    %ebp
    42e1:	c3                   	ret    
    42e2:	83 ec 0c             	sub    $0xc,%esp
    42e5:	57                   	push   %edi
    42e6:	e8 45 31 00 00       	call   7430 <async_forget@plt>
    42eb:	8b 45 b4             	mov    -0x4c(%ebp),%eax
    42ee:	83 c4 10             	add    $0x10,%esp
    42f1:	8d 65 f4             	lea    -0xc(%ebp),%esp
    42f4:	5b                   	pop    %ebx
    42f5:	5e                   	pop    %esi
    42f6:	5f                   	pop    %edi
    42f7:	5d                   	pop    %ebp
    42f8:	c3                   	ret    
    42f9:	8d b4 26 00 00 00 00 	lea    0x0(%esi,%eiz,1),%esi

00004300 <inetping_conn>:
    4300:	55                   	push   %ebp
    4301:	89 e5                	mov    %esp,%ebp
    4303:	57                   	push   %edi
    4304:	56                   	push   %esi
    4305:	53                   	push   %ebx
    4306:	81 ec b0 00 00 00    	sub    $0xb0,%esp
    430c:	68 ba 6a 00 00       	push   $0x6aba
    4311:	6a 04                	push   $0x4
    4313:	6a ff                	push   $0xffffffff
    4315:	e8 c6 2e 00 00       	call   71e0 <log_msg@plt>
    431a:	8b 4d 08             	mov    0x8(%ebp),%ecx
    431d:	58                   	pop    %eax
    431e:	5a                   	pop    %edx
    431f:	6a 00                	push   $0x0
    4321:	51                   	push   %ecx
    4322:	e8 99 2e 00 00       	call   71c0 <async_answer_0@plt>
    4327:	c7 04 24 01 00 00 00 	movl   $0x1,(%esp)
    432e:	e8 5d 31 00 00       	call   7490 <async_callback_receive@plt>
    4333:	83 c4 10             	add    $0x10,%esp
    4336:	85 c0                	test   %eax,%eax
    4338:	0f 84 dd 01 00 00    	je     451b <inetping_conn+0x21b>
    433e:	83 ec 0c             	sub    $0xc,%esp
    4341:	89 85 6c ff ff ff    	mov    %eax,-0x94(%ebp)
    4347:	c7 85 74 ff ff ff 00 	movl   $0x0,-0x8c(%ebp)
    434e:	00 00 00 
    4351:	c7 85 78 ff ff ff 00 	movl   $0x0,-0x88(%ebp)
    4358:	00 00 00 
    435b:	68 dc 91 00 00       	push   $0x91dc
    4360:	e8 4b 31 00 00       	call   74b0 <fibril_mutex_lock@plt>
    4365:	66 a1 7e 93 00 00    	mov    0x937e,%ax
    436b:	8b 15 d4 91 00 00    	mov    0x91d4,%edx
    4371:	40                   	inc    %eax
    4372:	c7 85 78 ff ff ff d4 	movl   $0x91d4,-0x88(%ebp)
    4379:	91 00 00 
    437c:	66 89 85 70 ff ff ff 	mov    %ax,-0x90(%ebp)
    4383:	66 a3 7e 93 00 00    	mov    %ax,0x937e
    4389:	8d 85 74 ff ff ff    	lea    -0x8c(%ebp),%eax
    438f:	89 95 74 ff ff ff    	mov    %edx,-0x8c(%ebp)
    4395:	89 42 04             	mov    %eax,0x4(%edx)
    4398:	a3 d4 91 00 00       	mov    %eax,0x91d4
    439d:	c7 04 24 dc 91 00 00 	movl   $0x91dc,(%esp)
    43a4:	8d 75 90             	lea    -0x70(%ebp),%esi
    43a7:	e8 f4 2e 00 00       	call   72a0 <fibril_mutex_unlock@plt>
    43ac:	8d bd 68 ff ff ff    	lea    -0x98(%ebp),%edi
    43b2:	83 c4 10             	add    $0x10,%esp
    43b5:	8d 76 00             	lea    0x0(%esi),%esi
    43b8:	50                   	push   %eax
    43b9:	50                   	push   %eax
    43ba:	6a 00                	push   $0x0
    43bc:	56                   	push   %esi
    43bd:	e8 be 2f 00 00       	call   7380 <async_get_call_timeout@plt>
    43c2:	83 c4 10             	add    $0x10,%esp
    43c5:	89 c3                	mov    %eax,%ebx
    43c7:	8b 45 90             	mov    -0x70(%ebp),%eax
    43ca:	85 c0                	test   %eax,%eax
    43cc:	0f 84 d6 00 00 00    	je     44a8 <inetping_conn+0x1a8>
    43d2:	3d 00 04 00 00       	cmp    $0x400,%eax
    43d7:	74 67                	je     4440 <inetping_conn+0x140>
    43d9:	3d 01 04 00 00       	cmp    $0x401,%eax
    43de:	0f 85 ac 00 00 00    	jne    4490 <inetping_conn+0x190>
    43e4:	50                   	push   %eax
    43e5:	68 de 6a 00 00       	push   $0x6ade
    43ea:	6a 04                	push   $0x4
    43ec:	6a ff                	push   $0xffffffff
    43ee:	e8 ed 2d 00 00       	call   71e0 <log_msg@plt>
    43f3:	58                   	pop    %eax
    43f4:	8d 85 64 ff ff ff    	lea    -0x9c(%ebp),%eax
    43fa:	5a                   	pop    %edx
    43fb:	57                   	push   %edi
    43fc:	50                   	push   %eax
    43fd:	e8 7e 30 00 00       	call   7480 <async_data_write_receive@plt>
    4402:	83 c4 10             	add    $0x10,%esp
    4405:	84 c0                	test   %al,%al
    4407:	0f 84 43 01 00 00    	je     4550 <inetping_conn+0x250>
    440d:	83 bd 68 ff ff ff 14 	cmpl   $0x14,-0x98(%ebp)
    4414:	0f 84 96 01 00 00    	je     45b0 <inetping_conn+0x2b0>
    441a:	8b 85 64 ff ff ff    	mov    -0x9c(%ebp),%eax
    4420:	51                   	push   %ecx
    4421:	51                   	push   %ecx
    4422:	6a f2                	push   $0xfffffff2
    4424:	50                   	push   %eax
    4425:	e8 96 2d 00 00       	call   71c0 <async_answer_0@plt>
    442a:	58                   	pop    %eax
    442b:	5a                   	pop    %edx
    442c:	6a f2                	push   $0xfffffff2
    442e:	53                   	push   %ebx
    442f:	e8 8c 2d 00 00       	call   71c0 <async_answer_0@plt>
    4434:	83 c4 10             	add    $0x10,%esp
    4437:	e9 7c ff ff ff       	jmp    43b8 <inetping_conn+0xb8>
    443c:	8d 74 26 00          	lea    0x0(%esi,%eiz,1),%esi
    4440:	50                   	push   %eax
    4441:	68 ca 6a 00 00       	push   $0x6aca
    4446:	6a 04                	push   $0x4
    4448:	6a ff                	push   $0xffffffff
    444a:	e8 91 2d 00 00       	call   71e0 <log_msg@plt>
    444f:	8b 45 94             	mov    -0x6c(%ebp),%eax
    4452:	66 89 45 dc          	mov    %ax,-0x24(%ebp)
    4456:	8d 85 7c ff ff ff    	lea    -0x84(%ebp),%eax
    445c:	5a                   	pop    %edx
    445d:	59                   	pop    %ecx
    445e:	50                   	push   %eax
    445f:	57                   	push   %edi
    4460:	e8 1b 30 00 00       	call   7480 <async_data_write_receive@plt>
    4465:	83 c4 10             	add    $0x10,%esp
    4468:	84 c0                	test   %al,%al
    446a:	0f 84 b8 00 00 00    	je     4528 <inetping_conn+0x228>
    4470:	83 bd 7c ff ff ff 14 	cmpl   $0x14,-0x84(%ebp)
    4477:	0f 84 e3 00 00 00    	je     4560 <inetping_conn+0x260>
    447d:	8b 8d 68 ff ff ff    	mov    -0x98(%ebp),%ecx
    4483:	52                   	push   %edx
    4484:	52                   	push   %edx
    4485:	6a f2                	push   $0xfffffff2
    4487:	51                   	push   %ecx
    4488:	eb 9b                	jmp    4425 <inetping_conn+0x125>
    448a:	8d b6 00 00 00 00    	lea    0x0(%esi),%esi
    4490:	50                   	push   %eax
    4491:	50                   	push   %eax
    4492:	6a f2                	push   $0xfffffff2
    4494:	53                   	push   %ebx
    4495:	e8 26 2d 00 00       	call   71c0 <async_answer_0@plt>
    449a:	83 c4 10             	add    $0x10,%esp
    449d:	e9 16 ff ff ff       	jmp    43b8 <inetping_conn+0xb8>
    44a2:	8d b6 00 00 00 00    	lea    0x0(%esi),%esi
    44a8:	56                   	push   %esi
    44a9:	56                   	push   %esi
    44aa:	6a 00                	push   $0x0
    44ac:	53                   	push   %ebx
    44ad:	e8 0e 2d 00 00       	call   71c0 <async_answer_0@plt>
    44b2:	8b 85 6c ff ff ff    	mov    -0x94(%ebp),%eax
    44b8:	5f                   	pop    %edi
    44b9:	50                   	push   %eax
    44ba:	e8 e1 2b 00 00       	call   70a0 <async_hangup@plt>
    44bf:	c7 04 24 dc 91 00 00 	movl   $0x91dc,(%esp)
    44c6:	c7 85 6c ff ff ff 00 	movl   $0x0,-0x94(%ebp)
    44cd:	00 00 00 
    44d0:	e8 db 2f 00 00       	call   74b0 <fibril_mutex_lock@plt>
    44d5:	8b 95 74 ff ff ff    	mov    -0x8c(%ebp),%edx
    44db:	83 c4 10             	add    $0x10,%esp
    44de:	85 d2                	test   %edx,%edx
    44e0:	74 15                	je     44f7 <inetping_conn+0x1f7>
    44e2:	8b 85 78 ff ff ff    	mov    -0x88(%ebp),%eax
    44e8:	85 c0                	test   %eax,%eax
    44ea:	74 0b                	je     44f7 <inetping_conn+0x1f7>
    44ec:	89 10                	mov    %edx,(%eax)
    44ee:	8b 95 74 ff ff ff    	mov    -0x8c(%ebp),%edx
    44f4:	89 42 04             	mov    %eax,0x4(%edx)
    44f7:	83 ec 0c             	sub    $0xc,%esp
    44fa:	c7 85 74 ff ff ff 00 	movl   $0x0,-0x8c(%ebp)
    4501:	00 00 00 
    4504:	c7 85 78 ff ff ff 00 	movl   $0x0,-0x88(%ebp)
    450b:	00 00 00 
    450e:	68 dc 91 00 00       	push   $0x91dc
    4513:	e8 88 2d 00 00       	call   72a0 <fibril_mutex_unlock@plt>
    4518:	83 c4 10             	add    $0x10,%esp
    451b:	8d 65 f4             	lea    -0xc(%ebp),%esp
    451e:	5b                   	pop    %ebx
    451f:	5e                   	pop    %esi
    4520:	5f                   	pop    %edi
    4521:	5d                   	pop    %ebp
    4522:	c3                   	ret    
    4523:	90                   	nop
    4524:	8d 74 26 00          	lea    0x0(%esi,%eiz,1),%esi
    4528:	50                   	push   %eax
    4529:	50                   	push   %eax
    452a:	8b 85 68 ff ff ff    	mov    -0x98(%ebp),%eax
    4530:	6a fc                	push   $0xfffffffc
    4532:	50                   	push   %eax
    4533:	e8 88 2c 00 00       	call   71c0 <async_answer_0@plt>
    4538:	58                   	pop    %eax
    4539:	5a                   	pop    %edx
    453a:	6a fc                	push   $0xfffffffc
    453c:	53                   	push   %ebx
    453d:	e8 7e 2c 00 00       	call   71c0 <async_answer_0@plt>
    4542:	83 c4 10             	add    $0x10,%esp
    4545:	e9 6e fe ff ff       	jmp    43b8 <inetping_conn+0xb8>
    454a:	8d b6 00 00 00 00    	lea    0x0(%esi),%esi
    4550:	8b 85 64 ff ff ff    	mov    -0x9c(%ebp),%eax
    4556:	51                   	push   %ecx
    4557:	51                   	push   %ecx
    4558:	6a fc                	push   $0xfffffffc
    455a:	50                   	push   %eax
    455b:	eb d6                	jmp    4533 <inetping_conn+0x233>
    455d:	8d 76 00             	lea    0x0(%esi),%esi
    4560:	50                   	push   %eax
    4561:	8d 45 b4             	lea    -0x4c(%ebp),%eax
    4564:	6a 14                	push   $0x14
    4566:	50                   	push   %eax
    4567:	8b 85 68 ff ff ff    	mov    -0x98(%ebp),%eax
    456d:	50                   	push   %eax
    456e:	e8 8d 2e 00 00       	call   7400 <async_data_write_finalize@plt>
    4573:	83 c4 10             	add    $0x10,%esp
    4576:	89 c2                	mov    %eax,%edx
    4578:	85 c0                	test   %eax,%eax
    457a:	0f 84 08 01 00 00    	je     4688 <inetping_conn+0x388>
    4580:	50                   	push   %eax
    4581:	50                   	push   %eax
    4582:	8b 85 68 ff ff ff    	mov    -0x98(%ebp),%eax
    4588:	52                   	push   %edx
    4589:	89 95 54 ff ff ff    	mov    %edx,-0xac(%ebp)
    458f:	50                   	push   %eax
    4590:	e8 2b 2c 00 00       	call   71c0 <async_answer_0@plt>
    4595:	58                   	pop    %eax
    4596:	5a                   	pop    %edx
    4597:	8b 95 54 ff ff ff    	mov    -0xac(%ebp),%edx
    459d:	52                   	push   %edx
    459e:	53                   	push   %ebx
    459f:	e8 1c 2c 00 00       	call   71c0 <async_answer_0@plt>
    45a4:	83 c4 10             	add    $0x10,%esp
    45a7:	e9 0c fe ff ff       	jmp    43b8 <inetping_conn+0xb8>
    45ac:	8d 74 26 00          	lea    0x0(%esi,%eiz,1),%esi
    45b0:	8d 4d b4             	lea    -0x4c(%ebp),%ecx
    45b3:	50                   	push   %eax
    45b4:	8b 85 64 ff ff ff    	mov    -0x9c(%ebp),%eax
    45ba:	6a 14                	push   $0x14
    45bc:	89 8d 54 ff ff ff    	mov    %ecx,-0xac(%ebp)
    45c2:	51                   	push   %ecx
    45c3:	50                   	push   %eax
    45c4:	e8 37 2e 00 00       	call   7400 <async_data_write_finalize@plt>
    45c9:	83 c4 10             	add    $0x10,%esp
    45cc:	8b 8d 54 ff ff ff    	mov    -0xac(%ebp),%ecx
    45d2:	85 c0                	test   %eax,%eax
    45d4:	0f 85 96 00 00 00    	jne    4670 <inetping_conn+0x370>
    45da:	50                   	push   %eax
    45db:	8d 85 7c ff ff ff    	lea    -0x84(%ebp),%eax
    45e1:	50                   	push   %eax
    45e2:	6a 00                	push   $0x0
    45e4:	51                   	push   %ecx
    45e5:	e8 36 da ff ff       	call   2020 <inet_get_srcaddr>
    45ea:	83 c4 10             	add    $0x10,%esp
    45ed:	85 c0                	test   %eax,%eax
    45ef:	0f 85 4b 01 00 00    	jne    4740 <inetping_conn+0x440>
    45f5:	50                   	push   %eax
    45f6:	50                   	push   %eax
    45f7:	8d 85 64 ff ff ff    	lea    -0x9c(%ebp),%eax
    45fd:	57                   	push   %edi
    45fe:	50                   	push   %eax
    45ff:	e8 0c 2d 00 00       	call   7310 <async_data_read_receive@plt>
    4604:	83 c4 10             	add    $0x10,%esp
    4607:	84 c0                	test   %al,%al
    4609:	0f 84 41 ff ff ff    	je     4550 <inetping_conn+0x250>
    460f:	83 bd 68 ff ff ff 14 	cmpl   $0x14,-0x98(%ebp)
    4616:	0f 85 fe fd ff ff    	jne    441a <inetping_conn+0x11a>
    461c:	50                   	push   %eax
    461d:	8d 85 7c ff ff ff    	lea    -0x84(%ebp),%eax
    4623:	6a 14                	push   $0x14
    4625:	50                   	push   %eax
    4626:	8b 85 64 ff ff ff    	mov    -0x9c(%ebp),%eax
    462c:	50                   	push   %eax
    462d:	e8 ee 2a 00 00       	call   7120 <async_data_read_finalize@plt>
    4632:	83 c4 10             	add    $0x10,%esp
    4635:	31 d2                	xor    %edx,%edx
    4637:	85 c0                	test   %eax,%eax
    4639:	74 20                	je     465b <inetping_conn+0x35b>
    463b:	89 c2                	mov    %eax,%edx
    463d:	50                   	push   %eax
    463e:	50                   	push   %eax
    463f:	8b 85 64 ff ff ff    	mov    -0x9c(%ebp),%eax
    4645:	52                   	push   %edx
    4646:	50                   	push   %eax
    4647:	89 95 54 ff ff ff    	mov    %edx,-0xac(%ebp)
    464d:	e8 6e 2b 00 00       	call   71c0 <async_answer_0@plt>
    4652:	83 c4 10             	add    $0x10,%esp
    4655:	8b 95 54 ff ff ff    	mov    -0xac(%ebp),%edx
    465b:	51                   	push   %ecx
    465c:	51                   	push   %ecx
    465d:	52                   	push   %edx
    465e:	53                   	push   %ebx
    465f:	e8 5c 2b 00 00       	call   71c0 <async_answer_0@plt>
    4664:	83 c4 10             	add    $0x10,%esp
    4667:	e9 4c fd ff ff       	jmp    43b8 <inetping_conn+0xb8>
    466c:	8d 74 26 00          	lea    0x0(%esi,%eiz,1),%esi
    4670:	89 85 54 ff ff ff    	mov    %eax,-0xac(%ebp)
    4676:	51                   	push   %ecx
    4677:	51                   	push   %ecx
    4678:	50                   	push   %eax
    4679:	8b 85 64 ff ff ff    	mov    -0x9c(%ebp),%eax
    467f:	50                   	push   %eax
    4680:	e9 0b ff ff ff       	jmp    4590 <inetping_conn+0x290>
    4685:	8d 76 00             	lea    0x0(%esi),%esi
    4688:	50                   	push   %eax
    4689:	50                   	push   %eax
    468a:	8d 85 7c ff ff ff    	lea    -0x84(%ebp),%eax
    4690:	50                   	push   %eax
    4691:	57                   	push   %edi
    4692:	e8 e9 2d 00 00       	call   7480 <async_data_write_receive@plt>
    4697:	83 c4 10             	add    $0x10,%esp
    469a:	84 c0                	test   %al,%al
    469c:	0f 84 86 fe ff ff    	je     4528 <inetping_conn+0x228>
    46a2:	83 bd 7c ff ff ff 14 	cmpl   $0x14,-0x84(%ebp)
    46a9:	0f 85 ce fd ff ff    	jne    447d <inetping_conn+0x17d>
    46af:	50                   	push   %eax
    46b0:	8d 45 c8             	lea    -0x38(%ebp),%eax
    46b3:	6a 14                	push   $0x14
    46b5:	50                   	push   %eax
    46b6:	8b 85 68 ff ff ff    	mov    -0x98(%ebp),%eax
    46bc:	50                   	push   %eax
    46bd:	e8 3e 2d 00 00       	call   7400 <async_data_write_finalize@plt>
    46c2:	83 c4 10             	add    $0x10,%esp
    46c5:	89 c2                	mov    %eax,%edx
    46c7:	85 c0                	test   %eax,%eax
    46c9:	0f 85 b1 fe ff ff    	jne    4580 <inetping_conn+0x280>
    46cf:	50                   	push   %eax
    46d0:	50                   	push   %eax
    46d1:	8d 45 e4             	lea    -0x1c(%ebp),%eax
    46d4:	50                   	push   %eax
    46d5:	8d 45 e0             	lea    -0x20(%ebp),%eax
    46d8:	6a 00                	push   $0x0
    46da:	6a 00                	push   $0x0
    46dc:	6a 00                	push   $0x0
    46de:	6a 00                	push   $0x0
    46e0:	50                   	push   %eax
    46e1:	e8 2a 2d 00 00       	call   7410 <async_data_write_accept@plt>
    46e6:	83 c4 20             	add    $0x20,%esp
    46e9:	85 c0                	test   %eax,%eax
    46eb:	75 53                	jne    4740 <inetping_conn+0x440>
    46ed:	8b 45 b4             	mov    -0x4c(%ebp),%eax
    46f0:	3b 45 c8             	cmp    -0x38(%ebp),%eax
    46f3:	75 5c                	jne    4751 <inetping_conn+0x451>
    46f5:	83 f8 01             	cmp    $0x1,%eax
    46f8:	74 5e                	je     4758 <inetping_conn+0x458>
    46fa:	83 f8 02             	cmp    $0x2,%eax
    46fd:	75 52                	jne    4751 <inetping_conn+0x451>
    46ff:	8d 45 b4             	lea    -0x4c(%ebp),%eax
    4702:	51                   	push   %ecx
    4703:	51                   	push   %ecx
    4704:	50                   	push   %eax
    4705:	31 c0                	xor    %eax,%eax
    4707:	66 8b 85 70 ff ff ff 	mov    -0x90(%ebp),%ax
    470e:	50                   	push   %eax
    470f:	e8 cc d5 ff ff       	call   1ce0 <icmpv6_ping_send>
    4714:	83 c4 10             	add    $0x10,%esp
    4717:	83 ec 0c             	sub    $0xc,%esp
    471a:	8b 4d e0             	mov    -0x20(%ebp),%ecx
    471d:	89 85 54 ff ff ff    	mov    %eax,-0xac(%ebp)
    4723:	51                   	push   %ecx
    4724:	e8 77 2d 00 00       	call   74a0 <free@plt>
    4729:	58                   	pop    %eax
    472a:	8b 85 54 ff ff ff    	mov    -0xac(%ebp),%eax
    4730:	5a                   	pop    %edx
    4731:	50                   	push   %eax
    4732:	53                   	push   %ebx
    4733:	e8 88 2a 00 00       	call   71c0 <async_answer_0@plt>
    4738:	83 c4 10             	add    $0x10,%esp
    473b:	e9 78 fc ff ff       	jmp    43b8 <inetping_conn+0xb8>
    4740:	52                   	push   %edx
    4741:	52                   	push   %edx
    4742:	50                   	push   %eax
    4743:	53                   	push   %ebx
    4744:	e8 77 2a 00 00       	call   71c0 <async_answer_0@plt>
    4749:	83 c4 10             	add    $0x10,%esp
    474c:	e9 67 fc ff ff       	jmp    43b8 <inetping_conn+0xb8>
    4751:	b8 f2 ff ff ff       	mov    $0xfffffff2,%eax
    4756:	eb bf                	jmp    4717 <inetping_conn+0x417>
    4758:	50                   	push   %eax
    4759:	50                   	push   %eax
    475a:	8d 45 b4             	lea    -0x4c(%ebp),%eax
    475d:	50                   	push   %eax
    475e:	31 c0                	xor    %eax,%eax
    4760:	66 8b 85 70 ff ff ff 	mov    -0x90(%ebp),%ax
    4767:	50                   	push   %eax
    4768:	e8 b3 d1 ff ff       	call   1920 <icmp_ping_send>
    476d:	83 c4 10             	add    $0x10,%esp
    4770:	eb a5                	jmp    4717 <inetping_conn+0x417>
    4772:	66 90                	xchg   %ax,%ax
    4774:	66 90                	xchg   %ax,%ax
    4776:	66 90                	xchg   %ax,%ax
    4778:	66 90                	xchg   %ax,%ax
    477a:	66 90                	xchg   %ax,%ax
    477c:	66 90                	xchg   %ax,%ax
    477e:	66 90                	xchg   %ax,%ax

00004780 <ndp_received>:
    4780:	55                   	push   %ebp
    4781:	89 e5                	mov    %esp,%ebp
    4783:	57                   	push   %edi
    4784:	56                   	push   %esi
    4785:	53                   	push   %ebx
    4786:	81 ec 00 01 00 00    	sub    $0x100,%esp
    478c:	68 f9 6a 00 00       	push   $0x6af9
    4791:	6a 04                	push   $0x4
    4793:	6a ff                	push   $0xffffffff
    4795:	e8 46 2a 00 00       	call   71e0 <log_msg@plt>
    479a:	8d 85 68 ff ff ff    	lea    -0x98(%ebp),%eax
    47a0:	8b 7d 08             	mov    0x8(%ebp),%edi
    47a3:	5b                   	pop    %ebx
    47a4:	5e                   	pop    %esi
    47a5:	50                   	push   %eax
    47a6:	57                   	push   %edi
    47a7:	e8 e4 0f 00 00       	call   5790 <ndp_pdu_decode>
    47ac:	83 c4 10             	add    $0x10,%esp
    47af:	89 c3                	mov    %eax,%ebx
    47b1:	85 c0                	test   %eax,%eax
    47b3:	74 0b                	je     47c0 <ndp_received+0x40>
    47b5:	8d 65 f4             	lea    -0xc(%ebp),%esp
    47b8:	89 d8                	mov    %ebx,%eax
    47ba:	5b                   	pop    %ebx
    47bb:	5e                   	pop    %esi
    47bc:	5f                   	pop    %edi
    47bd:	5d                   	pop    %ebp
    47be:	c3                   	ret    
    47bf:	90                   	nop
    47c0:	8d b5 72 ff ff ff    	lea    -0x8e(%ebp),%esi
    47c6:	50                   	push   %eax
    47c7:	50                   	push   %eax
    47c8:	8d 85 08 ff ff ff    	lea    -0xf8(%ebp),%eax
    47ce:	50                   	push   %eax
    47cf:	8d 7d 88             	lea    -0x78(%ebp),%edi
    47d2:	56                   	push   %esi
    47d3:	e8 38 29 00 00       	call   7110 <inet_addr_set6@plt>
    47d8:	8d 8d 1c ff ff ff    	lea    -0xe4(%ebp),%ecx
    47de:	58                   	pop    %eax
    47df:	89 8d 04 ff ff ff    	mov    %ecx,-0xfc(%ebp)
    47e5:	5a                   	pop    %edx
    47e6:	51                   	push   %ecx
    47e7:	57                   	push   %edi
    47e8:	e8 23 29 00 00       	call   7110 <inet_addr_set6@plt>
    47ed:	8b 8d 68 ff ff ff    	mov    -0x98(%ebp),%ecx
    47f3:	51                   	push   %ecx
    47f4:	68 08 6b 00 00       	push   $0x6b08
    47f9:	6a 04                	push   $0x4
    47fb:	6a ff                	push   $0xffffffff
    47fd:	e8 de 29 00 00       	call   71e0 <log_msg@plt>
    4802:	8b 85 68 ff ff ff    	mov    -0x98(%ebp),%eax
    4808:	83 c4 20             	add    $0x20,%esp
    480b:	8b 8d 04 ff ff ff    	mov    -0xfc(%ebp),%ecx
    4811:	3d 87 00 00 00       	cmp    $0x87,%eax
    4816:	74 50                	je     4868 <ndp_received+0xe8>
    4818:	3d 88 00 00 00       	cmp    $0x88,%eax
    481d:	75 39                	jne    4858 <ndp_received+0xd8>
    481f:	8b 45 08             	mov    0x8(%ebp),%eax
    4822:	52                   	push   %edx
    4823:	83 c0 18             	add    $0x18,%eax
    4826:	52                   	push   %edx
    4827:	6a 01                	push   $0x1
    4829:	50                   	push   %eax
    482a:	e8 11 cb ff ff       	call   1340 <inet_addrobj_find>
    482f:	83 c4 10             	add    $0x10,%esp
    4832:	85 c0                	test   %eax,%eax
    4834:	0f 84 7b ff ff ff    	je     47b5 <ndp_received+0x35>
    483a:	50                   	push   %eax
    483b:	50                   	push   %eax
    483c:	8d 85 6c ff ff ff    	lea    -0x94(%ebp),%eax
    4842:	50                   	push   %eax
    4843:	56                   	push   %esi
    4844:	e8 27 02 00 00       	call   4a70 <ntrans_add>
    4849:	83 c4 10             	add    $0x10,%esp
    484c:	8d 65 f4             	lea    -0xc(%ebp),%esp
    484f:	89 c3                	mov    %eax,%ebx
    4851:	89 d8                	mov    %ebx,%eax
    4853:	5b                   	pop    %ebx
    4854:	5e                   	pop    %esi
    4855:	5f                   	pop    %edi
    4856:	5d                   	pop    %ebp
    4857:	c3                   	ret    
    4858:	8d 65 f4             	lea    -0xc(%ebp),%esp
    485b:	bb f5 ff ff ff       	mov    $0xfffffff5,%ebx
    4860:	89 d8                	mov    %ebx,%eax
    4862:	5b                   	pop    %ebx
    4863:	5e                   	pop    %esi
    4864:	5f                   	pop    %edi
    4865:	5d                   	pop    %ebp
    4866:	c3                   	ret    
    4867:	90                   	nop
    4868:	50                   	push   %eax
    4869:	50                   	push   %eax
    486a:	6a 01                	push   $0x1
    486c:	51                   	push   %ecx
    486d:	e8 ce ca ff ff       	call   1340 <inet_addrobj_find>
    4872:	83 c4 10             	add    $0x10,%esp
    4875:	89 85 04 ff ff ff    	mov    %eax,-0xfc(%ebp)
    487b:	85 c0                	test   %eax,%eax
    487d:	0f 84 32 ff ff ff    	je     47b5 <ndp_received+0x35>
    4883:	8d 85 6c ff ff ff    	lea    -0x94(%ebp),%eax
    4889:	53                   	push   %ebx
    488a:	53                   	push   %ebx
    488b:	50                   	push   %eax
    488c:	56                   	push   %esi
    488d:	e8 de 01 00 00       	call   4a70 <ntrans_add>
    4892:	83 c4 10             	add    $0x10,%esp
    4895:	89 c3                	mov    %eax,%ebx
    4897:	85 c0                	test   %eax,%eax
    4899:	8b 8d 04 ff ff ff    	mov    -0xfc(%ebp),%ecx
    489f:	0f 85 10 ff ff ff    	jne    47b5 <ndp_received+0x35>
    48a5:	50                   	push   %eax
    48a6:	50                   	push   %eax
    48a7:	8d 45 ac             	lea    -0x54(%ebp),%eax
    48aa:	c7 45 a8 88 00 00 00 	movl   $0x88,-0x58(%ebp)
    48b1:	50                   	push   %eax
    48b2:	8b 41 24             	mov    0x24(%ecx),%eax
    48b5:	83 c0 1c             	add    $0x1c,%eax
    48b8:	50                   	push   %eax
    48b9:	e8 22 2b 00 00       	call   73e0 <addr48@plt>
    48be:	58                   	pop    %eax
    48bf:	8d 45 b2             	lea    -0x4e(%ebp),%eax
    48c2:	5a                   	pop    %edx
    48c3:	50                   	push   %eax
    48c4:	57                   	push   %edi
    48c5:	e8 a6 28 00 00       	call   7170 <addr128@plt>
    48ca:	59                   	pop    %ecx
    48cb:	8d 85 6c ff ff ff    	lea    -0x94(%ebp),%eax
    48d1:	5f                   	pop    %edi
    48d2:	8d 7d c2             	lea    -0x3e(%ebp),%edi
    48d5:	57                   	push   %edi
    48d6:	50                   	push   %eax
    48d7:	e8 04 2b 00 00       	call   73e0 <addr48@plt>
    48dc:	58                   	pop    %eax
    48dd:	8d 45 c8             	lea    -0x38(%ebp),%eax
    48e0:	5a                   	pop    %edx
    48e1:	50                   	push   %eax
    48e2:	56                   	push   %esi
    48e3:	e8 88 28 00 00       	call   7170 <addr128@plt>
    48e8:	8b 8d 04 ff ff ff    	mov    -0xfc(%ebp),%ecx
    48ee:	8d 95 30 ff ff ff    	lea    -0xd0(%ebp),%edx
    48f4:	8b 71 24             	mov    0x24(%ecx),%esi
    48f7:	59                   	pop    %ecx
    48f8:	58                   	pop    %eax
    48f9:	8d 45 a8             	lea    -0x58(%ebp),%eax
    48fc:	52                   	push   %edx
    48fd:	89 95 04 ff ff ff    	mov    %edx,-0xfc(%ebp)
    4903:	50                   	push   %eax
    4904:	e8 97 0c 00 00       	call   55a0 <ndp_pdu_encode>
    4909:	58                   	pop    %eax
    490a:	5a                   	pop    %edx
    490b:	8b 95 04 ff ff ff    	mov    -0xfc(%ebp),%edx
    4911:	6a 00                	push   $0x0
    4913:	68 ff 00 00 00       	push   $0xff
    4918:	6a 3a                	push   $0x3a
    491a:	52                   	push   %edx
    491b:	57                   	push   %edi
    491c:	56                   	push   %esi
    491d:	e8 1e e9 ff ff       	call   3240 <inet_link_send_dgram6>
    4922:	83 c4 14             	add    $0x14,%esp
    4925:	8b 8d 60 ff ff ff    	mov    -0xa0(%ebp),%ecx
    492b:	51                   	push   %ecx
    492c:	e8 6f 2b 00 00       	call   74a0 <free@plt>
    4931:	83 c4 10             	add    $0x10,%esp
    4934:	e9 7c fe ff ff       	jmp    47b5 <ndp_received+0x35>
    4939:	8d b4 26 00 00 00 00 	lea    0x0(%esi,%eiz,1),%esi

00004940 <ndp_translate>:
    4940:	55                   	push   %ebp
    4941:	89 e5                	mov    %esp,%ebp
    4943:	57                   	push   %edi
    4944:	56                   	push   %esi
    4945:	53                   	push   %ebx
    4946:	81 ec 9c 00 00 00    	sub    $0x9c,%esp
    494c:	8b 75 14             	mov    0x14(%ebp),%esi
    494f:	8b 5d 0c             	mov    0xc(%ebp),%ebx
    4952:	80 7e 22 00          	cmpb   $0x0,0x22(%esi)
    4956:	0f 84 ec 00 00 00    	je     4a48 <ndp_translate+0x108>
    495c:	8b 45 10             	mov    0x10(%ebp),%eax
    495f:	57                   	push   %edi
    4960:	57                   	push   %edi
    4961:	50                   	push   %eax
    4962:	53                   	push   %ebx
    4963:	e8 b8 02 00 00       	call   4c20 <ntrans_lookup>
    4968:	83 c4 10             	add    $0x10,%esp
    496b:	85 c0                	test   %eax,%eax
    496d:	75 09                	jne    4978 <ndp_translate+0x38>
    496f:	8d 65 f4             	lea    -0xc(%ebp),%esp
    4972:	5b                   	pop    %ebx
    4973:	5e                   	pop    %esi
    4974:	5f                   	pop    %edi
    4975:	5d                   	pop    %ebp
    4976:	c3                   	ret    
    4977:	90                   	nop
    4978:	50                   	push   %eax
    4979:	50                   	push   %eax
    497a:	8d 45 ac             	lea    -0x54(%ebp),%eax
    497d:	8d 4d a8             	lea    -0x58(%ebp),%ecx
    4980:	50                   	push   %eax
    4981:	8d 46 1c             	lea    0x1c(%esi),%eax
    4984:	50                   	push   %eax
    4985:	89 8d 60 ff ff ff    	mov    %ecx,-0xa0(%ebp)
    498b:	c7 45 a8 87 00 00 00 	movl   $0x87,-0x58(%ebp)
    4992:	e8 49 2a 00 00       	call   73e0 <addr48@plt>
    4997:	8d 45 b2             	lea    -0x4e(%ebp),%eax
    499a:	8b 7d 08             	mov    0x8(%ebp),%edi
    499d:	5a                   	pop    %edx
    499e:	59                   	pop    %ecx
    499f:	50                   	push   %eax
    49a0:	57                   	push   %edi
    49a1:	e8 ca 27 00 00       	call   7170 <addr128@plt>
    49a6:	58                   	pop    %eax
    49a7:	8d 45 d8             	lea    -0x28(%ebp),%eax
    49aa:	5a                   	pop    %edx
    49ab:	50                   	push   %eax
    49ac:	53                   	push   %ebx
    49ad:	e8 be 27 00 00       	call   7170 <addr128@plt>
    49b2:	59                   	pop    %ecx
    49b3:	5f                   	pop    %edi
    49b4:	8d 7d c2             	lea    -0x3e(%ebp),%edi
    49b7:	57                   	push   %edi
    49b8:	53                   	push   %ebx
    49b9:	e8 f2 26 00 00       	call   70b0 <addr48_solicited_node@plt>
    49be:	83 c4 0c             	add    $0xc,%esp
    49c1:	8d 45 c8             	lea    -0x38(%ebp),%eax
    49c4:	6a 0d                	push   $0xd
    49c6:	68 ec 91 00 00       	push   $0x91ec
    49cb:	50                   	push   %eax
    49cc:	e8 7f 27 00 00       	call   7150 <memcpy@plt>
    49d1:	83 c4 0c             	add    $0xc,%esp
    49d4:	8d 43 0d             	lea    0xd(%ebx),%eax
    49d7:	6a 03                	push   $0x3
    49d9:	50                   	push   %eax
    49da:	8d 45 d5             	lea    -0x2b(%ebp),%eax
    49dd:	50                   	push   %eax
    49de:	e8 6d 27 00 00       	call   7150 <memcpy@plt>
    49e3:	58                   	pop    %eax
    49e4:	8b 8d 60 ff ff ff    	mov    -0xa0(%ebp),%ecx
    49ea:	5a                   	pop    %edx
    49eb:	8d 95 70 ff ff ff    	lea    -0x90(%ebp),%edx
    49f1:	52                   	push   %edx
    49f2:	89 95 64 ff ff ff    	mov    %edx,-0x9c(%ebp)
    49f8:	51                   	push   %ecx
    49f9:	e8 a2 0b 00 00       	call   55a0 <ndp_pdu_encode>
    49fe:	8b 95 64 ff ff ff    	mov    -0x9c(%ebp),%edx
    4a04:	59                   	pop    %ecx
    4a05:	58                   	pop    %eax
    4a06:	6a 00                	push   $0x0
    4a08:	68 ff 00 00 00       	push   $0xff
    4a0d:	6a 3a                	push   $0x3a
    4a0f:	52                   	push   %edx
    4a10:	57                   	push   %edi
    4a11:	56                   	push   %esi
    4a12:	e8 29 e8 ff ff       	call   3240 <inet_link_send_dgram6>
    4a17:	83 c4 14             	add    $0x14,%esp
    4a1a:	8b 45 a0             	mov    -0x60(%ebp),%eax
    4a1d:	50                   	push   %eax
    4a1e:	e8 7d 2a 00 00       	call   74a0 <free@plt>
    4a23:	c7 04 24 c0 c6 2d 00 	movl   $0x2dc6c0,(%esp)
    4a2a:	e8 91 02 00 00       	call   4cc0 <ntrans_wait_timeout>
    4a2f:	8b 4d 10             	mov    0x10(%ebp),%ecx
    4a32:	58                   	pop    %eax
    4a33:	5a                   	pop    %edx
    4a34:	51                   	push   %ecx
    4a35:	53                   	push   %ebx
    4a36:	e8 e5 01 00 00       	call   4c20 <ntrans_lookup>
    4a3b:	83 c4 10             	add    $0x10,%esp
    4a3e:	8d 65 f4             	lea    -0xc(%ebp),%esp
    4a41:	5b                   	pop    %ebx
    4a42:	5e                   	pop    %esi
    4a43:	5f                   	pop    %edi
    4a44:	5d                   	pop    %ebp
    4a45:	c3                   	ret    
    4a46:	66 90                	xchg   %ax,%ax
    4a48:	50                   	push   %eax
    4a49:	8b 45 10             	mov    0x10(%ebp),%eax
    4a4c:	6a 06                	push   $0x6
    4a4e:	6a 00                	push   $0x0
    4a50:	50                   	push   %eax
    4a51:	e8 aa 28 00 00       	call   7300 <memset@plt>
    4a56:	83 c4 10             	add    $0x10,%esp
    4a59:	8d 65 f4             	lea    -0xc(%ebp),%esp
    4a5c:	31 c0                	xor    %eax,%eax
    4a5e:	5b                   	pop    %ebx
    4a5f:	5e                   	pop    %esi
    4a60:	5f                   	pop    %edi
    4a61:	5d                   	pop    %ebp
    4a62:	c3                   	ret    
    4a63:	66 90                	xchg   %ax,%ax
    4a65:	66 90                	xchg   %ax,%ax
    4a67:	66 90                	xchg   %ax,%ax
    4a69:	66 90                	xchg   %ax,%ax
    4a6b:	66 90                	xchg   %ax,%ax
    4a6d:	66 90                	xchg   %ax,%ax
    4a6f:	90                   	nop

00004a70 <ntrans_add>:
    4a70:	55                   	push   %ebp
    4a71:	89 e5                	mov    %esp,%ebp
    4a73:	57                   	push   %edi
    4a74:	56                   	push   %esi
    4a75:	53                   	push   %ebx
    4a76:	83 ec 14             	sub    $0x14,%esp
    4a79:	8b 75 08             	mov    0x8(%ebp),%esi
    4a7c:	6a 20                	push   $0x20
    4a7e:	6a 01                	push   $0x1
    4a80:	e8 bb 27 00 00       	call   7240 <calloc@plt>
    4a85:	83 c4 10             	add    $0x10,%esp
    4a88:	85 c0                	test   %eax,%eax
    4a8a:	0f 84 cc 00 00 00    	je     4b5c <ntrans_add+0xec>
    4a90:	89 c7                	mov    %eax,%edi
    4a92:	8d 40 08             	lea    0x8(%eax),%eax
    4a95:	52                   	push   %edx
    4a96:	52                   	push   %edx
    4a97:	50                   	push   %eax
    4a98:	56                   	push   %esi
    4a99:	e8 d2 26 00 00       	call   7170 <addr128@plt>
    4a9e:	8d 47 18             	lea    0x18(%edi),%eax
    4aa1:	59                   	pop    %ecx
    4aa2:	5b                   	pop    %ebx
    4aa3:	50                   	push   %eax
    4aa4:	8b 45 0c             	mov    0xc(%ebp),%eax
    4aa7:	50                   	push   %eax
    4aa8:	e8 33 29 00 00       	call   73e0 <addr48@plt>
    4aad:	c7 04 24 0c 92 00 00 	movl   $0x920c,(%esp)
    4ab4:	e8 f7 29 00 00       	call   74b0 <fibril_mutex_lock@plt>
    4ab9:	8b 1d 08 92 00 00    	mov    0x9208,%ebx
    4abf:	83 c4 10             	add    $0x10,%esp
    4ac2:	81 fb 04 92 00 00    	cmp    $0x9204,%ebx
    4ac8:	75 11                	jne    4adb <ntrans_add+0x6b>
    4aca:	eb 53                	jmp    4b1f <ntrans_add+0xaf>
    4acc:	8d 74 26 00          	lea    0x0(%esi,%eiz,1),%esi
    4ad0:	8b 5b 04             	mov    0x4(%ebx),%ebx
    4ad3:	81 fb 04 92 00 00    	cmp    $0x9204,%ebx
    4ad9:	74 44                	je     4b1f <ntrans_add+0xaf>
    4adb:	50                   	push   %eax
    4adc:	50                   	push   %eax
    4add:	8d 43 08             	lea    0x8(%ebx),%eax
    4ae0:	56                   	push   %esi
    4ae1:	50                   	push   %eax
    4ae2:	e8 59 29 00 00       	call   7440 <addr128_compare@plt>
    4ae7:	83 c4 10             	add    $0x10,%esp
    4aea:	85 c0                	test   %eax,%eax
    4aec:	74 e2                	je     4ad0 <ntrans_add+0x60>
    4aee:	85 db                	test   %ebx,%ebx
    4af0:	74 2d                	je     4b1f <ntrans_add+0xaf>
    4af2:	8b 13                	mov    (%ebx),%edx
    4af4:	85 d2                	test   %edx,%edx
    4af6:	74 0e                	je     4b06 <ntrans_add+0x96>
    4af8:	8b 43 04             	mov    0x4(%ebx),%eax
    4afb:	85 c0                	test   %eax,%eax
    4afd:	74 07                	je     4b06 <ntrans_add+0x96>
    4aff:	89 10                	mov    %edx,(%eax)
    4b01:	8b 13                	mov    (%ebx),%edx
    4b03:	89 42 04             	mov    %eax,0x4(%edx)
    4b06:	83 ec 0c             	sub    $0xc,%esp
    4b09:	c7 03 00 00 00 00    	movl   $0x0,(%ebx)
    4b0f:	c7 43 04 00 00 00 00 	movl   $0x0,0x4(%ebx)
    4b16:	53                   	push   %ebx
    4b17:	e8 84 29 00 00       	call   74a0 <free@plt>
    4b1c:	83 c4 10             	add    $0x10,%esp
    4b1f:	a1 04 92 00 00       	mov    0x9204,%eax
    4b24:	83 ec 0c             	sub    $0xc,%esp
    4b27:	89 07                	mov    %eax,(%edi)
    4b29:	c7 47 04 04 92 00 00 	movl   $0x9204,0x4(%edi)
    4b30:	89 78 04             	mov    %edi,0x4(%eax)
    4b33:	68 0c 92 00 00       	push   $0x920c
    4b38:	89 3d 04 92 00 00    	mov    %edi,0x9204
    4b3e:	e8 5d 27 00 00       	call   72a0 <fibril_mutex_unlock@plt>
    4b43:	c7 04 24 fc 91 00 00 	movl   $0x91fc,(%esp)
    4b4a:	e8 31 27 00 00       	call   7280 <fibril_condvar_broadcast@plt>
    4b4f:	83 c4 10             	add    $0x10,%esp
    4b52:	31 c0                	xor    %eax,%eax
    4b54:	8d 65 f4             	lea    -0xc(%ebp),%esp
    4b57:	5b                   	pop    %ebx
    4b58:	5e                   	pop    %esi
    4b59:	5f                   	pop    %edi
    4b5a:	5d                   	pop    %ebp
    4b5b:	c3                   	ret    
    4b5c:	b8 fe ff ff ff       	mov    $0xfffffffe,%eax
    4b61:	eb f1                	jmp    4b54 <ntrans_add+0xe4>
    4b63:	8d b6 00 00 00 00    	lea    0x0(%esi),%esi
    4b69:	8d bc 27 00 00 00 00 	lea    0x0(%edi,%eiz,1),%edi

00004b70 <ntrans_remove>:
    4b70:	55                   	push   %ebp
    4b71:	89 e5                	mov    %esp,%ebp
    4b73:	56                   	push   %esi
    4b74:	53                   	push   %ebx
    4b75:	83 ec 0c             	sub    $0xc,%esp
    4b78:	8b 75 08             	mov    0x8(%ebp),%esi
    4b7b:	68 0c 92 00 00       	push   $0x920c
    4b80:	e8 2b 29 00 00       	call   74b0 <fibril_mutex_lock@plt>
    4b85:	8b 1d 08 92 00 00    	mov    0x9208,%ebx
    4b8b:	83 c4 10             	add    $0x10,%esp
    4b8e:	81 fb 04 92 00 00    	cmp    $0x9204,%ebx
    4b94:	75 0d                	jne    4ba3 <ntrans_remove+0x33>
    4b96:	eb 68                	jmp    4c00 <ntrans_remove+0x90>
    4b98:	8b 5b 04             	mov    0x4(%ebx),%ebx
    4b9b:	81 fb 04 92 00 00    	cmp    $0x9204,%ebx
    4ba1:	74 5d                	je     4c00 <ntrans_remove+0x90>
    4ba3:	50                   	push   %eax
    4ba4:	50                   	push   %eax
    4ba5:	8d 43 08             	lea    0x8(%ebx),%eax
    4ba8:	56                   	push   %esi
    4ba9:	50                   	push   %eax
    4baa:	e8 91 28 00 00       	call   7440 <addr128_compare@plt>
    4baf:	83 c4 10             	add    $0x10,%esp
    4bb2:	85 c0                	test   %eax,%eax
    4bb4:	74 e2                	je     4b98 <ntrans_remove+0x28>
    4bb6:	85 db                	test   %ebx,%ebx
    4bb8:	74 46                	je     4c00 <ntrans_remove+0x90>
    4bba:	8b 13                	mov    (%ebx),%edx
    4bbc:	85 d2                	test   %edx,%edx
    4bbe:	74 0e                	je     4bce <ntrans_remove+0x5e>
    4bc0:	8b 43 04             	mov    0x4(%ebx),%eax
    4bc3:	85 c0                	test   %eax,%eax
    4bc5:	74 07                	je     4bce <ntrans_remove+0x5e>
    4bc7:	89 10                	mov    %edx,(%eax)
    4bc9:	8b 13                	mov    (%ebx),%edx
    4bcb:	89 42 04             	mov    %eax,0x4(%edx)
    4bce:	83 ec 0c             	sub    $0xc,%esp
    4bd1:	c7 03 00 00 00 00    	movl   $0x0,(%ebx)
    4bd7:	c7 43 04 00 00 00 00 	movl   $0x0,0x4(%ebx)
    4bde:	68 0c 92 00 00       	push   $0x920c
    4be3:	e8 b8 26 00 00       	call   72a0 <fibril_mutex_unlock@plt>
    4be8:	89 1c 24             	mov    %ebx,(%esp)
    4beb:	e8 b0 28 00 00       	call   74a0 <free@plt>
    4bf0:	83 c4 10             	add    $0x10,%esp
    4bf3:	8d 65 f8             	lea    -0x8(%ebp),%esp
    4bf6:	31 c0                	xor    %eax,%eax
    4bf8:	5b                   	pop    %ebx
    4bf9:	5e                   	pop    %esi
    4bfa:	5d                   	pop    %ebp
    4bfb:	c3                   	ret    
    4bfc:	8d 74 26 00          	lea    0x0(%esi,%eiz,1),%esi
    4c00:	83 ec 0c             	sub    $0xc,%esp
    4c03:	68 0c 92 00 00       	push   $0x920c
    4c08:	e8 93 26 00 00       	call   72a0 <fibril_mutex_unlock@plt>
    4c0d:	83 c4 10             	add    $0x10,%esp
    4c10:	8d 65 f8             	lea    -0x8(%ebp),%esp
    4c13:	83 c8 ff             	or     $0xffffffff,%eax
    4c16:	5b                   	pop    %ebx
    4c17:	5e                   	pop    %esi
    4c18:	5d                   	pop    %ebp
    4c19:	c3                   	ret    
    4c1a:	8d b6 00 00 00 00    	lea    0x0(%esi),%esi

00004c20 <ntrans_lookup>:
    4c20:	55                   	push   %ebp
    4c21:	89 e5                	mov    %esp,%ebp
    4c23:	56                   	push   %esi
    4c24:	53                   	push   %ebx
    4c25:	83 ec 0c             	sub    $0xc,%esp
    4c28:	8b 75 08             	mov    0x8(%ebp),%esi
    4c2b:	68 0c 92 00 00       	push   $0x920c
    4c30:	e8 7b 28 00 00       	call   74b0 <fibril_mutex_lock@plt>
    4c35:	8b 1d 08 92 00 00    	mov    0x9208,%ebx
    4c3b:	83 c4 10             	add    $0x10,%esp
    4c3e:	81 fb 04 92 00 00    	cmp    $0x9204,%ebx
    4c44:	75 0d                	jne    4c53 <ntrans_lookup+0x33>
    4c46:	eb 50                	jmp    4c98 <ntrans_lookup+0x78>
    4c48:	8b 5b 04             	mov    0x4(%ebx),%ebx
    4c4b:	81 fb 04 92 00 00    	cmp    $0x9204,%ebx
    4c51:	74 45                	je     4c98 <ntrans_lookup+0x78>
    4c53:	50                   	push   %eax
    4c54:	50                   	push   %eax
    4c55:	8d 43 08             	lea    0x8(%ebx),%eax
    4c58:	56                   	push   %esi
    4c59:	50                   	push   %eax
    4c5a:	e8 e1 27 00 00       	call   7440 <addr128_compare@plt>
    4c5f:	83 c4 10             	add    $0x10,%esp
    4c62:	85 c0                	test   %eax,%eax
    4c64:	74 e2                	je     4c48 <ntrans_lookup+0x28>
    4c66:	85 db                	test   %ebx,%ebx
    4c68:	74 2e                	je     4c98 <ntrans_lookup+0x78>
    4c6a:	83 ec 0c             	sub    $0xc,%esp
    4c6d:	83 c3 18             	add    $0x18,%ebx
    4c70:	68 0c 92 00 00       	push   $0x920c
    4c75:	e8 26 26 00 00       	call   72a0 <fibril_mutex_unlock@plt>
    4c7a:	8b 4d 0c             	mov    0xc(%ebp),%ecx
    4c7d:	58                   	pop    %eax
    4c7e:	5a                   	pop    %edx
    4c7f:	51                   	push   %ecx
    4c80:	53                   	push   %ebx
    4c81:	e8 5a 27 00 00       	call   73e0 <addr48@plt>
    4c86:	83 c4 10             	add    $0x10,%esp
    4c89:	8d 65 f8             	lea    -0x8(%ebp),%esp
    4c8c:	31 c0                	xor    %eax,%eax
    4c8e:	5b                   	pop    %ebx
    4c8f:	5e                   	pop    %esi
    4c90:	5d                   	pop    %ebp
    4c91:	c3                   	ret    
    4c92:	8d b6 00 00 00 00    	lea    0x0(%esi),%esi
    4c98:	83 ec 0c             	sub    $0xc,%esp
    4c9b:	68 0c 92 00 00       	push   $0x920c
    4ca0:	e8 fb 25 00 00       	call   72a0 <fibril_mutex_unlock@plt>
    4ca5:	83 c4 10             	add    $0x10,%esp
    4ca8:	8d 65 f8             	lea    -0x8(%ebp),%esp
    4cab:	83 c8 ff             	or     $0xffffffff,%eax
    4cae:	5b                   	pop    %ebx
    4caf:	5e                   	pop    %esi
    4cb0:	5d                   	pop    %ebp
    4cb1:	c3                   	ret    
    4cb2:	8d b4 26 00 00 00 00 	lea    0x0(%esi,%eiz,1),%esi
    4cb9:	8d bc 27 00 00 00 00 	lea    0x0(%edi,%eiz,1),%edi

00004cc0 <ntrans_wait_timeout>:
    4cc0:	55                   	push   %ebp
    4cc1:	89 e5                	mov    %esp,%ebp
    4cc3:	83 ec 24             	sub    $0x24,%esp
    4cc6:	68 0c 92 00 00       	push   $0x920c
    4ccb:	e8 e0 27 00 00       	call   74b0 <fibril_mutex_lock@plt>
    4cd0:	83 c4 0c             	add    $0xc,%esp
    4cd3:	8b 45 08             	mov    0x8(%ebp),%eax
    4cd6:	50                   	push   %eax
    4cd7:	68 0c 92 00 00       	push   $0x920c
    4cdc:	68 fc 91 00 00       	push   $0x91fc
    4ce1:	e8 6a 25 00 00       	call   7250 <fibril_condvar_wait_timeout@plt>
    4ce6:	c7 04 24 0c 92 00 00 	movl   $0x920c,(%esp)
    4ced:	89 45 f4             	mov    %eax,-0xc(%ebp)
    4cf0:	e8 ab 25 00 00       	call   72a0 <fibril_mutex_unlock@plt>
    4cf5:	8b 45 f4             	mov    -0xc(%ebp),%eax
    4cf8:	c9                   	leave  
    4cf9:	c3                   	ret    
    4cfa:	66 90                	xchg   %ax,%ax
    4cfc:	66 90                	xchg   %ax,%ax
    4cfe:	66 90                	xchg   %ax,%ax

00004d00 <inet_checksum_calc>:
    4d00:	55                   	push   %ebp
    4d01:	89 e5                	mov    %esp,%ebp
    4d03:	57                   	push   %edi
    4d04:	56                   	push   %esi
    4d05:	53                   	push   %ebx
    4d06:	8b 45 08             	mov    0x8(%ebp),%eax
    4d09:	8b 55 10             	mov    0x10(%ebp),%edx
    4d0c:	83 f0 ff             	xor    $0xffffffff,%eax
    4d0f:	8b 7d 0c             	mov    0xc(%ebp),%edi
    4d12:	d1 ea                	shr    %edx
    4d14:	74 38                	je     4d4e <inet_checksum_calc+0x4e>
    4d16:	89 fb                	mov    %edi,%ebx
    4d18:	8d 34 57             	lea    (%edi,%edx,2),%esi
    4d1b:	89 c1                	mov    %eax,%ecx
    4d1d:	8d 76 00             	lea    0x0(%esi),%esi
    4d20:	31 d2                	xor    %edx,%edx
    4d22:	83 c3 02             	add    $0x2,%ebx
    4d25:	8a 53 fe             	mov    -0x2(%ebx),%dl
    4d28:	89 d0                	mov    %edx,%eax
    4d2a:	31 d2                	xor    %edx,%edx
    4d2c:	c1 e0 08             	shl    $0x8,%eax
    4d2f:	8a 53 ff             	mov    -0x1(%ebx),%dl
    4d32:	09 c2                	or     %eax,%edx
    4d34:	31 c0                	xor    %eax,%eax
    4d36:	81 e2 ff ff 00 00    	and    $0xffff,%edx
    4d3c:	66 89 c8             	mov    %cx,%ax
    4d3f:	01 d0                	add    %edx,%eax
    4d41:	89 c1                	mov    %eax,%ecx
    4d43:	c1 e9 10             	shr    $0x10,%ecx
    4d46:	01 c1                	add    %eax,%ecx
    4d48:	39 de                	cmp    %ebx,%esi
    4d4a:	75 d4                	jne    4d20 <inet_checksum_calc+0x20>
    4d4c:	89 c8                	mov    %ecx,%eax
    4d4e:	f6 45 10 01          	testb  $0x1,0x10(%ebp)
    4d52:	74 29                	je     4d7d <inet_checksum_calc+0x7d>
    4d54:	8b 55 10             	mov    0x10(%ebp),%edx
    4d57:	25 ff ff 00 00       	and    $0xffff,%eax
    4d5c:	83 e2 fe             	and    $0xfffffffe,%edx
    4d5f:	0f b6 34 17          	movzbl (%edi,%edx,1),%esi
    4d63:	81 e6 ff 00 00 00    	and    $0xff,%esi
    4d69:	89 f2                	mov    %esi,%edx
    4d6b:	c1 e2 08             	shl    $0x8,%edx
    4d6e:	81 e2 ff ff 00 00    	and    $0xffff,%edx
    4d74:	01 d0                	add    %edx,%eax
    4d76:	89 c2                	mov    %eax,%edx
    4d78:	c1 ea 10             	shr    $0x10,%edx
    4d7b:	01 d0                	add    %edx,%eax
    4d7d:	5b                   	pop    %ebx
    4d7e:	83 f0 ff             	xor    $0xffffffff,%eax
    4d81:	5e                   	pop    %esi
    4d82:	5f                   	pop    %edi
    4d83:	5d                   	pop    %ebp
    4d84:	c3                   	ret    
    4d85:	8d 74 26 00          	lea    0x0(%esi,%eiz,1),%esi
    4d89:	8d bc 27 00 00 00 00 	lea    0x0(%edi,%eiz,1),%edi

00004d90 <inet_pdu_encode>:
    4d90:	55                   	push   %ebp
    4d91:	89 e5                	mov    %esp,%ebp
    4d93:	57                   	push   %edi
    4d94:	56                   	push   %esi
    4d95:	53                   	push   %ebx
    4d96:	83 ec 2c             	sub    $0x2c,%esp
    4d99:	8b 45 08             	mov    0x8(%ebp),%eax
    4d9c:	8b 48 40             	mov    0x40(%eax),%ecx
    4d9f:	81 f9 00 00 01 00    	cmp    $0x10000,%ecx
    4da5:	0f 87 35 02 00 00    	ja     4fe0 <inet_pdu_encode+0x250>
    4dab:	83 7d 18 14          	cmpl   $0x14,0x18(%ebp)
    4daf:	0f 86 33 02 00 00    	jbe    4fe8 <inet_pdu_encode+0x258>
    4db5:	f6 45 14 07          	testb  $0x7,0x14(%ebp)
    4db9:	0f 85 38 02 00 00    	jne    4ff7 <inet_pdu_encode+0x267>
    4dbf:	81 7d 14 ff ff 00 00 	cmpl   $0xffff,0x14(%ebp)
    4dc6:	0f 87 3d 02 00 00    	ja     5009 <inet_pdu_encode+0x279>
    4dcc:	8b 45 18             	mov    0x18(%ebp),%eax
    4dcf:	8b 7d 14             	mov    0x14(%ebp),%edi
    4dd2:	8b 75 14             	mov    0x14(%ebp),%esi
    4dd5:	c1 ee 03             	shr    $0x3,%esi
    4dd8:	8d 50 ec             	lea    -0x14(%eax),%edx
    4ddb:	89 c8                	mov    %ecx,%eax
    4ddd:	83 e2 f8             	and    $0xfffffff8,%edx
    4de0:	29 f8                	sub    %edi,%eax
    4de2:	89 55 e4             	mov    %edx,-0x1c(%ebp)
    4de5:	39 c2                	cmp    %eax,%edx
    4de7:	0f 87 eb 01 00 00    	ja     4fd8 <inet_pdu_encode+0x248>
    4ded:	8b 45 e4             	mov    -0x1c(%ebp),%eax
    4df0:	8b 55 08             	mov    0x8(%ebp),%edx
    4df3:	8d 78 14             	lea    0x14(%eax),%edi
    4df6:	89 7d e0             	mov    %edi,-0x20(%ebp)
    4df9:	8b 7d 14             	mov    0x14(%ebp),%edi
    4dfc:	01 c7                	add    %eax,%edi
    4dfe:	80 7a 34 00          	cmpb   $0x0,0x34(%edx)
    4e02:	0f 95 c2             	setne  %dl
    4e05:	81 e2 ff 00 00 00    	and    $0xff,%edx
    4e0b:	89 7d d8             	mov    %edi,-0x28(%ebp)
    4e0e:	c1 e2 0e             	shl    $0xe,%edx
    4e11:	39 f9                	cmp    %edi,%ecx
    4e13:	0f 97 c1             	seta   %cl
    4e16:	81 e1 ff 00 00 00    	and    $0xff,%ecx
    4e1c:	8d 1c 32             	lea    (%edx,%esi,1),%ebx
    4e1f:	c1 e1 0d             	shl    $0xd,%ecx
    4e22:	8b 7d e0             	mov    -0x20(%ebp),%edi
    4e25:	01 cb                	add    %ecx,%ebx
    4e27:	56                   	push   %esi
    4e28:	56                   	push   %esi
    4e29:	6a 01                	push   $0x1
    4e2b:	57                   	push   %edi
    4e2c:	e8 0f 24 00 00       	call   7240 <calloc@plt>
    4e31:	83 c4 10             	add    $0x10,%esp
    4e34:	89 c6                	mov    %eax,%esi
    4e36:	85 c0                	test   %eax,%eax
    4e38:	0f 84 b2 01 00 00    	je     4ff0 <inet_pdu_encode+0x260>
    4e3e:	89 da                	mov    %ebx,%edx
    4e40:	8b 5d 08             	mov    0x8(%ebp),%ebx
    4e43:	c6 00 45             	movb   $0x45,(%eax)
    4e46:	8b 4d 08             	mov    0x8(%ebp),%ecx
    4e49:	8a 5b 2d             	mov    0x2d(%ebx),%bl
    4e4c:	89 7d e0             	mov    %edi,-0x20(%ebp)
    4e4f:	88 5e 09             	mov    %bl,0x9(%esi)
    4e52:	88 5d de             	mov    %bl,-0x22(%ebp)
    4e55:	8b 5d 0c             	mov    0xc(%ebp),%ebx
    4e58:	8a 41 2c             	mov    0x2c(%ecx),%al
    4e5b:	0f cb                	bswap  %ebx
    4e5d:	89 5e 0c             	mov    %ebx,0xc(%esi)
    4e60:	89 5d d0             	mov    %ebx,-0x30(%ebp)
    4e63:	89 f9                	mov    %edi,%ecx
    4e65:	8b 5d 10             	mov    0x10(%ebp),%ebx
    4e68:	66 c1 c1 08          	rol    $0x8,%cx
    4e6c:	0f cb                	bswap  %ebx
    4e6e:	89 5e 10             	mov    %ebx,0x10(%esi)
    4e71:	88 45 df             	mov    %al,-0x21(%ebp)
    4e74:	89 5d d4             	mov    %ebx,-0x2c(%ebp)
    4e77:	89 cf                	mov    %ecx,%edi
    4e79:	31 db                	xor    %ebx,%ebx
    4e7b:	66 89 4e 02          	mov    %cx,0x2(%esi)
    4e7f:	66 c1 c7 08          	rol    $0x8,%di
    4e83:	8a 5d df             	mov    -0x21(%ebp),%bl
    4e86:	81 e7 ff ff 00 00    	and    $0xffff,%edi
    4e8c:	8b 4d 08             	mov    0x8(%ebp),%ecx
    4e8f:	80 cf 45             	or     $0x45,%bh
    4e92:	01 fb                	add    %edi,%ebx
    4e94:	88 46 01             	mov    %al,0x1(%esi)
    4e97:	8b 49 30             	mov    0x30(%ecx),%ecx
    4e9a:	89 df                	mov    %ebx,%edi
    4e9c:	66 c1 c1 08          	rol    $0x8,%cx
    4ea0:	c1 ef 10             	shr    $0x10,%edi
    4ea3:	66 89 4e 04          	mov    %cx,0x4(%esi)
    4ea7:	01 fb                	add    %edi,%ebx
    4ea9:	66 c1 c1 08          	rol    $0x8,%cx
    4ead:	81 e3 ff ff 00 00    	and    $0xffff,%ebx
    4eb3:	81 e1 ff ff 00 00    	and    $0xffff,%ecx
    4eb9:	01 d9                	add    %ebx,%ecx
    4ebb:	8b 5d d0             	mov    -0x30(%ebp),%ebx
    4ebe:	66 c1 c2 08          	rol    $0x8,%dx
    4ec2:	89 cf                	mov    %ecx,%edi
    4ec4:	89 d0                	mov    %edx,%eax
    4ec6:	c1 ef 10             	shr    $0x10,%edi
    4ec9:	66 89 56 06          	mov    %dx,0x6(%esi)
    4ecd:	01 f9                	add    %edi,%ecx
    4ecf:	8b 55 08             	mov    0x8(%ebp),%edx
    4ed2:	66 c1 c0 08          	rol    $0x8,%ax
    4ed6:	81 e1 ff ff 00 00    	and    $0xffff,%ecx
    4edc:	25 ff ff 00 00       	and    $0xffff,%eax
    4ee1:	01 c8                	add    %ecx,%eax
    4ee3:	8a 52 2e             	mov    0x2e(%edx),%dl
    4ee6:	89 c1                	mov    %eax,%ecx
    4ee8:	88 56 08             	mov    %dl,0x8(%esi)
    4eeb:	c1 e9 10             	shr    $0x10,%ecx
    4eee:	c1 e2 08             	shl    $0x8,%edx
    4ef1:	01 c8                	add    %ecx,%eax
    4ef3:	31 c9                	xor    %ecx,%ecx
    4ef5:	25 ff ff 00 00       	and    $0xffff,%eax
    4efa:	8a 4d de             	mov    -0x22(%ebp),%cl
    4efd:	09 ca                	or     %ecx,%edx
    4eff:	89 d9                	mov    %ebx,%ecx
    4f01:	81 e2 ff ff 00 00    	and    $0xffff,%edx
    4f07:	01 d0                	add    %edx,%eax
    4f09:	89 c2                	mov    %eax,%edx
    4f0b:	c1 ea 10             	shr    $0x10,%edx
    4f0e:	01 d0                	add    %edx,%eax
    4f10:	31 d2                	xor    %edx,%edx
    4f12:	66 c1 c1 08          	rol    $0x8,%cx
    4f16:	66 89 c2             	mov    %ax,%dx
    4f19:	89 c8                	mov    %ecx,%eax
    4f1b:	25 ff ff 00 00       	and    $0xffff,%eax
    4f20:	01 d0                	add    %edx,%eax
    4f22:	89 c2                	mov    %eax,%edx
    4f24:	c1 ea 10             	shr    $0x10,%edx
    4f27:	01 d0                	add    %edx,%eax
    4f29:	89 da                	mov    %ebx,%edx
    4f2b:	c1 ea 08             	shr    $0x8,%edx
    4f2e:	25 ff ff 00 00       	and    $0xffff,%eax
    4f33:	c1 eb 18             	shr    $0x18,%ebx
    4f36:	81 e2 00 ff 00 00    	and    $0xff00,%edx
    4f3c:	09 da                	or     %ebx,%edx
    4f3e:	8b 5d d4             	mov    -0x2c(%ebp),%ebx
    4f41:	81 e2 ff ff 00 00    	and    $0xffff,%edx
    4f47:	89 d9                	mov    %ebx,%ecx
    4f49:	01 d0                	add    %edx,%eax
    4f4b:	89 c2                	mov    %eax,%edx
    4f4d:	c1 ea 10             	shr    $0x10,%edx
    4f50:	01 d0                	add    %edx,%eax
    4f52:	31 d2                	xor    %edx,%edx
    4f54:	66 c1 c1 08          	rol    $0x8,%cx
    4f58:	66 89 c2             	mov    %ax,%dx
    4f5b:	89 c8                	mov    %ecx,%eax
    4f5d:	25 ff ff 00 00       	and    $0xffff,%eax
    4f62:	01 d0                	add    %edx,%eax
    4f64:	89 c2                	mov    %eax,%edx
    4f66:	c1 ea 10             	shr    $0x10,%edx
    4f69:	01 d0                	add    %edx,%eax
    4f6b:	89 da                	mov    %ebx,%edx
    4f6d:	c1 ea 08             	shr    $0x8,%edx
    4f70:	25 ff ff 00 00       	and    $0xffff,%eax
    4f75:	c1 eb 18             	shr    $0x18,%ebx
    4f78:	81 e2 00 ff 00 00    	and    $0xff00,%edx
    4f7e:	09 d3                	or     %edx,%ebx
    4f80:	81 e3 ff ff 00 00    	and    $0xffff,%ebx
    4f86:	01 d8                	add    %ebx,%eax
    4f88:	89 c2                	mov    %eax,%edx
    4f8a:	c1 ea 10             	shr    $0x10,%edx
    4f8d:	01 d0                	add    %edx,%eax
    4f8f:	8b 55 e4             	mov    -0x1c(%ebp),%edx
    4f92:	83 f0 ff             	xor    $0xffffffff,%eax
    4f95:	66 c1 c0 08          	rol    $0x8,%ax
    4f99:	66 89 46 0a          	mov    %ax,0xa(%esi)
    4f9d:	50                   	push   %eax
    4f9e:	52                   	push   %edx
    4f9f:	8b 45 08             	mov    0x8(%ebp),%eax
    4fa2:	8b 4d 14             	mov    0x14(%ebp),%ecx
    4fa5:	8b 40 3c             	mov    0x3c(%eax),%eax
    4fa8:	01 c8                	add    %ecx,%eax
    4faa:	50                   	push   %eax
    4fab:	8d 46 14             	lea    0x14(%esi),%eax
    4fae:	50                   	push   %eax
    4faf:	e8 9c 21 00 00       	call   7150 <memcpy@plt>
    4fb4:	8b 45 1c             	mov    0x1c(%ebp),%eax
    4fb7:	8b 5d d8             	mov    -0x28(%ebp),%ebx
    4fba:	83 c4 10             	add    $0x10,%esp
    4fbd:	89 30                	mov    %esi,(%eax)
    4fbf:	8b 45 20             	mov    0x20(%ebp),%eax
    4fc2:	8b 75 e0             	mov    -0x20(%ebp),%esi
    4fc5:	89 30                	mov    %esi,(%eax)
    4fc7:	8b 45 24             	mov    0x24(%ebp),%eax
    4fca:	89 18                	mov    %ebx,(%eax)
    4fcc:	31 c0                	xor    %eax,%eax
    4fce:	8d 65 f4             	lea    -0xc(%ebp),%esp
    4fd1:	5b                   	pop    %ebx
    4fd2:	5e                   	pop    %esi
    4fd3:	5f                   	pop    %edi
    4fd4:	5d                   	pop    %ebp
    4fd5:	c3                   	ret    
    4fd6:	66 90                	xchg   %ax,%ax
    4fd8:	89 45 e4             	mov    %eax,-0x1c(%ebp)
    4fdb:	e9 0d fe ff ff       	jmp    4ded <inet_pdu_encode+0x5d>
    4fe0:	b8 fd ff ff ff       	mov    $0xfffffffd,%eax
    4fe5:	eb e7                	jmp    4fce <inet_pdu_encode+0x23e>
    4fe7:	90                   	nop
    4fe8:	b8 f2 ff ff ff       	mov    $0xfffffff2,%eax
    4fed:	eb df                	jmp    4fce <inet_pdu_encode+0x23e>
    4fef:	90                   	nop
    4ff0:	b8 fe ff ff ff       	mov    $0xfffffffe,%eax
    4ff5:	eb d7                	jmp    4fce <inet_pdu_encode+0x23e>
    4ff7:	50                   	push   %eax
    4ff8:	6a 77                	push   $0x77
    4ffa:	68 24 6b 00 00       	push   $0x6b24
    4fff:	68 2a 6b 00 00       	push   $0x6b2a
    5004:	e8 27 22 00 00       	call   7230 <assert_abort@plt>
    5009:	50                   	push   %eax
    500a:	6a 78                	push   $0x78
    500c:	68 24 6b 00 00       	push   $0x6b24
    5011:	68 e8 6b 00 00       	push   $0x6be8
    5016:	e8 15 22 00 00       	call   7230 <assert_abort@plt>
    501b:	90                   	nop
    501c:	8d 74 26 00          	lea    0x0(%esi,%eiz,1),%esi

00005020 <inet_pdu_encode6>:
    5020:	55                   	push   %ebp
    5021:	89 e5                	mov    %esp,%ebp
    5023:	57                   	push   %edi
    5024:	56                   	push   %esi
    5025:	53                   	push   %ebx
    5026:	83 ec 2c             	sub    $0x2c,%esp
    5029:	8b 75 18             	mov    0x18(%ebp),%esi
    502c:	8b 4d 08             	mov    0x8(%ebp),%ecx
    502f:	8b 55 14             	mov    0x14(%ebp),%edx
    5032:	81 fe ff 04 00 00    	cmp    $0x4ff,%esi
    5038:	0f 86 82 01 00 00    	jbe    51c0 <inet_pdu_encode6+0x1a0>
    503e:	8b 41 40             	mov    0x40(%ecx),%eax
    5041:	8d 1c 10             	lea    (%eax,%edx,1),%ebx
    5044:	81 fb 00 80 00 00    	cmp    $0x8000,%ebx
    504a:	0f 87 70 01 00 00    	ja     51c0 <inet_pdu_encode6+0x1a0>
    5050:	85 d2                	test   %edx,%edx
    5052:	0f 84 30 01 00 00    	je     5188 <inet_pdu_encode6+0x168>
    5058:	f6 c2 07             	test   $0x7,%dl
    505b:	0f 85 6e 01 00 00    	jne    51cf <inet_pdu_encode6+0x1af>
    5061:	81 fa ff 7f 00 00    	cmp    $0x7fff,%edx
    5067:	0f 87 77 01 00 00    	ja     51e4 <inet_pdu_encode6+0x1c4>
    506d:	c6 45 d3 01          	movb   $0x1,-0x2d(%ebp)
    5071:	c7 45 e4 30 00 00 00 	movl   $0x30,-0x1c(%ebp)
    5078:	8b 7d e4             	mov    -0x1c(%ebp),%edi
    507b:	89 c3                	mov    %eax,%ebx
    507d:	29 fe                	sub    %edi,%esi
    507f:	29 d3                	sub    %edx,%ebx
    5081:	83 e6 f8             	and    $0xfffffff8,%esi
    5084:	39 de                	cmp    %ebx,%esi
    5086:	76 02                	jbe    508a <inet_pdu_encode6+0x6a>
    5088:	89 de                	mov    %ebx,%esi
    508a:	89 4d d4             	mov    %ecx,-0x2c(%ebp)
    508d:	8b 4d e4             	mov    -0x1c(%ebp),%ecx
    5090:	89 55 d8             	mov    %edx,-0x28(%ebp)
    5093:	8d 3c 0e             	lea    (%esi,%ecx,1),%edi
    5096:	89 f9                	mov    %edi,%ecx
    5098:	89 7d e0             	mov    %edi,-0x20(%ebp)
    509b:	8d 3c 32             	lea    (%edx,%esi,1),%edi
    509e:	89 fb                	mov    %edi,%ebx
    50a0:	89 7d dc             	mov    %edi,-0x24(%ebp)
    50a3:	89 d7                	mov    %edx,%edi
    50a5:	c1 ef 03             	shr    $0x3,%edi
    50a8:	c1 e7 03             	shl    $0x3,%edi
    50ab:	39 d8                	cmp    %ebx,%eax
    50ad:	0f 97 c0             	seta   %al
    50b0:	31 d2                	xor    %edx,%edx
    50b2:	53                   	push   %ebx
    50b3:	88 c2                	mov    %al,%dl
    50b5:	53                   	push   %ebx
    50b6:	01 d7                	add    %edx,%edi
    50b8:	6a 01                	push   $0x1
    50ba:	51                   	push   %ecx
    50bb:	e8 80 21 00 00       	call   7240 <calloc@plt>
    50c0:	83 c4 10             	add    $0x10,%esp
    50c3:	89 c3                	mov    %eax,%ebx
    50c5:	85 c0                	test   %eax,%eax
    50c7:	0f 84 fb 00 00 00    	je     51c8 <inet_pdu_encode6+0x1a8>
    50cd:	c6 00 60             	movb   $0x60,(%eax)
    50d0:	50                   	push   %eax
    50d1:	8d 43 01             	lea    0x1(%ebx),%eax
    50d4:	6a 03                	push   $0x3
    50d6:	6a 00                	push   $0x0
    50d8:	50                   	push   %eax
    50d9:	e8 22 22 00 00       	call   7300 <memset@plt>
    50de:	8b 4d d4             	mov    -0x2c(%ebp),%ecx
    50e1:	8a 41 2e             	mov    0x2e(%ecx),%al
    50e4:	8b 4d 0c             	mov    0xc(%ebp),%ecx
    50e7:	88 43 07             	mov    %al,0x7(%ebx)
    50ea:	58                   	pop    %eax
    50eb:	8d 43 08             	lea    0x8(%ebx),%eax
    50ee:	5a                   	pop    %edx
    50ef:	50                   	push   %eax
    50f0:	51                   	push   %ecx
    50f1:	e8 ba 20 00 00       	call   71b0 <host2addr128_t_be@plt>
    50f6:	58                   	pop    %eax
    50f7:	8b 4d 10             	mov    0x10(%ebp),%ecx
    50fa:	8d 43 18             	lea    0x18(%ebx),%eax
    50fd:	5a                   	pop    %edx
    50fe:	50                   	push   %eax
    50ff:	51                   	push   %ecx
    5100:	e8 ab 20 00 00       	call   71b0 <host2addr128_t_be@plt>
    5105:	83 c4 10             	add    $0x10,%esp
    5108:	8b 4d d4             	mov    -0x2c(%ebp),%ecx
    510b:	8b 55 d8             	mov    -0x28(%ebp),%edx
    510e:	80 7d d3 00          	cmpb   $0x0,-0x2d(%ebp)
    5112:	0f 84 90 00 00 00    	je     51a8 <inet_pdu_encode6+0x188>
    5118:	66 85 ff             	test   %di,%di
    511b:	0f 84 d8 00 00 00    	je     51f9 <inet_pdu_encode6+0x1d9>
    5121:	8b 41 40             	mov    0x40(%ecx),%eax
    5124:	c6 43 06 2c          	movb   $0x2c,0x6(%ebx)
    5128:	83 c0 08             	add    $0x8,%eax
    512b:	c6 43 29 00          	movb   $0x0,0x29(%ebx)
    512f:	66 c1 c0 08          	rol    $0x8,%ax
    5133:	66 89 43 04          	mov    %ax,0x4(%ebx)
    5137:	8a 41 2d             	mov    0x2d(%ecx),%al
    513a:	88 43 28             	mov    %al,0x28(%ebx)
    513d:	8b 41 30             	mov    0x30(%ecx),%eax
    5140:	66 c1 c7 08          	rol    $0x8,%di
    5144:	0f c8                	bswap  %eax
    5146:	66 89 7b 2a          	mov    %di,0x2a(%ebx)
    514a:	89 43 2c             	mov    %eax,0x2c(%ebx)
    514d:	50                   	push   %eax
    514e:	8b 45 e4             	mov    -0x1c(%ebp),%eax
    5151:	56                   	push   %esi
    5152:	8b 71 3c             	mov    0x3c(%ecx),%esi
    5155:	01 f2                	add    %esi,%edx
    5157:	01 d8                	add    %ebx,%eax
    5159:	52                   	push   %edx
    515a:	50                   	push   %eax
    515b:	e8 f0 1f 00 00       	call   7150 <memcpy@plt>
    5160:	8b 45 1c             	mov    0x1c(%ebp),%eax
    5163:	89 18                	mov    %ebx,(%eax)
    5165:	8b 45 20             	mov    0x20(%ebp),%eax
    5168:	8b 75 e0             	mov    -0x20(%ebp),%esi
    516b:	83 c4 10             	add    $0x10,%esp
    516e:	89 30                	mov    %esi,(%eax)
    5170:	8b 45 24             	mov    0x24(%ebp),%eax
    5173:	8b 75 dc             	mov    -0x24(%ebp),%esi
    5176:	89 30                	mov    %esi,(%eax)
    5178:	31 c0                	xor    %eax,%eax
    517a:	8d 65 f4             	lea    -0xc(%ebp),%esp
    517d:	5b                   	pop    %ebx
    517e:	5e                   	pop    %esi
    517f:	5f                   	pop    %edi
    5180:	5d                   	pop    %ebp
    5181:	c3                   	ret    
    5182:	8d b6 00 00 00 00    	lea    0x0(%esi),%esi
    5188:	8d 58 28             	lea    0x28(%eax),%ebx
    518b:	39 de                	cmp    %ebx,%esi
    518d:	0f 92 45 d3          	setb   -0x2d(%ebp)
    5191:	19 ff                	sbb    %edi,%edi
    5193:	83 e7 08             	and    $0x8,%edi
    5196:	83 c7 28             	add    $0x28,%edi
    5199:	89 7d e4             	mov    %edi,-0x1c(%ebp)
    519c:	e9 d7 fe ff ff       	jmp    5078 <inet_pdu_encode6+0x58>
    51a1:	8d b4 26 00 00 00 00 	lea    0x0(%esi,%eiz,1),%esi
    51a8:	66 85 ff             	test   %di,%di
    51ab:	75 61                	jne    520e <inet_pdu_encode6+0x1ee>
    51ad:	8b 41 40             	mov    0x40(%ecx),%eax
    51b0:	66 c1 c0 08          	rol    $0x8,%ax
    51b4:	66 89 43 04          	mov    %ax,0x4(%ebx)
    51b8:	8a 41 2d             	mov    0x2d(%ecx),%al
    51bb:	88 43 06             	mov    %al,0x6(%ebx)
    51be:	eb 8d                	jmp    514d <inet_pdu_encode6+0x12d>
    51c0:	b8 fd ff ff ff       	mov    $0xfffffffd,%eax
    51c5:	eb b3                	jmp    517a <inet_pdu_encode6+0x15a>
    51c7:	90                   	nop
    51c8:	b8 fe ff ff ff       	mov    $0xfffffffe,%eax
    51cd:	eb ab                	jmp    517a <inet_pdu_encode6+0x15a>
    51cf:	50                   	push   %eax
    51d0:	68 e4 00 00 00       	push   $0xe4
    51d5:	68 24 6b 00 00       	push   $0x6b24
    51da:	68 2a 6b 00 00       	push   $0x6b2a
    51df:	e8 4c 20 00 00       	call   7230 <assert_abort@plt>
    51e4:	50                   	push   %eax
    51e5:	68 e5 00 00 00       	push   $0xe5
    51ea:	68 24 6b 00 00       	push   $0x6b24
    51ef:	68 e8 6b 00 00       	push   $0x6be8
    51f4:	e8 37 20 00 00       	call   7230 <assert_abort@plt>
    51f9:	50                   	push   %eax
    51fa:	68 0c 01 00 00       	push   $0x10c
    51ff:	68 24 6b 00 00       	push   $0x6b24
    5204:	68 45 6b 00 00       	push   $0x6b45
    5209:	e8 22 20 00 00       	call   7230 <assert_abort@plt>
    520e:	57                   	push   %edi
    520f:	68 1a 01 00 00       	push   $0x11a
    5214:	68 24 6b 00 00       	push   $0x6b24
    5219:	68 51 6b 00 00       	push   $0x6b51
    521e:	e8 0d 20 00 00       	call   7230 <assert_abort@plt>
    5223:	8d b6 00 00 00 00    	lea    0x0(%esi),%esi
    5229:	8d bc 27 00 00 00 00 	lea    0x0(%edi,%eiz,1),%edi

00005230 <inet_pdu_decode>:
    5230:	55                   	push   %ebp
    5231:	89 e5                	mov    %esp,%ebp
    5233:	57                   	push   %edi
    5234:	56                   	push   %esi
    5235:	53                   	push   %ebx
    5236:	83 ec 20             	sub    $0x20,%esp
    5239:	8b 7d 0c             	mov    0xc(%ebp),%edi
    523c:	8b 5d 08             	mov    0x8(%ebp),%ebx
    523f:	68 5d 6b 00 00       	push   $0x6b5d
    5244:	6a 04                	push   $0x4
    5246:	6a ff                	push   $0xffffffff
    5248:	8b 75 14             	mov    0x14(%ebp),%esi
    524b:	e8 90 1f 00 00       	call   71e0 <log_msg@plt>
    5250:	83 c4 10             	add    $0x10,%esp
    5253:	83 ff 13             	cmp    $0x13,%edi
    5256:	0f 86 34 01 00 00    	jbe    5390 <inet_pdu_decode+0x160>
    525c:	8a 03                	mov    (%ebx),%al
    525e:	c0 e8 04             	shr    $0x4,%al
    5261:	88 c1                	mov    %al,%cl
    5263:	3c 04                	cmp    $0x4,%al
    5265:	0f 85 e5 00 00 00    	jne    5350 <inet_pdu_decode+0x120>
    526b:	66 8b 43 02          	mov    0x2(%ebx),%ax
    526f:	66 c1 c0 08          	rol    $0x8,%ax
    5273:	89 c1                	mov    %eax,%ecx
    5275:	81 e1 ff ff 00 00    	and    $0xffff,%ecx
    527b:	66 83 f8 13          	cmp    $0x13,%ax
    527f:	89 4d e4             	mov    %ecx,-0x1c(%ebp)
    5282:	0f 86 10 01 00 00    	jbe    5398 <inet_pdu_decode+0x168>
    5288:	3b 7d e4             	cmp    -0x1c(%ebp),%edi
    528b:	0f 82 df 00 00 00    	jb     5370 <inet_pdu_decode+0x140>
    5291:	66 8b 43 06          	mov    0x6(%ebx),%ax
    5295:	8b 53 0c             	mov    0xc(%ebx),%edx
    5298:	66 c1 c0 08          	rol    $0x8,%ax
    529c:	0f ca                	bswap  %edx
    529e:	8d 4e 04             	lea    0x4(%esi),%ecx
    52a1:	8b 7b 04             	mov    0x4(%ebx),%edi
    52a4:	89 45 e0             	mov    %eax,-0x20(%ebp)
    52a7:	50                   	push   %eax
    52a8:	50                   	push   %eax
    52a9:	51                   	push   %ecx
    52aa:	52                   	push   %edx
    52ab:	e8 e0 1f 00 00       	call   7290 <inet_addr_set@plt>
    52b0:	8b 53 10             	mov    0x10(%ebx),%edx
    52b3:	58                   	pop    %eax
    52b4:	0f ca                	bswap  %edx
    52b6:	59                   	pop    %ecx
    52b7:	8d 4e 18             	lea    0x18(%esi),%ecx
    52ba:	51                   	push   %ecx
    52bb:	52                   	push   %edx
    52bc:	e8 cf 1f 00 00       	call   7290 <inet_addr_set@plt>
    52c1:	8a 43 01             	mov    0x1(%ebx),%al
    52c4:	88 46 2c             	mov    %al,0x2c(%esi)
    52c7:	8a 43 09             	mov    0x9(%ebx),%al
    52ca:	88 46 2d             	mov    %al,0x2d(%esi)
    52cd:	8a 43 08             	mov    0x8(%ebx),%al
    52d0:	88 46 2e             	mov    %al,0x2e(%esi)
    52d3:	89 f8                	mov    %edi,%eax
    52d5:	66 c1 c0 08          	rol    $0x8,%ax
    52d9:	31 ff                	xor    %edi,%edi
    52db:	66 89 c7             	mov    %ax,%di
    52de:	8b 45 e0             	mov    -0x20(%ebp),%eax
    52e1:	89 c2                	mov    %eax,%edx
    52e3:	89 7e 30             	mov    %edi,0x30(%esi)
    52e6:	66 c1 ea 0e          	shr    $0xe,%dx
    52ea:	83 e2 01             	and    $0x1,%edx
    52ed:	88 56 34             	mov    %dl,0x34(%esi)
    52f0:	89 c2                	mov    %eax,%edx
    52f2:	66 c1 ea 0d          	shr    $0xd,%dx
    52f6:	25 ff 1f 00 00       	and    $0x1fff,%eax
    52fb:	c1 e0 03             	shl    $0x3,%eax
    52fe:	83 e2 01             	and    $0x1,%edx
    5301:	89 46 38             	mov    %eax,0x38(%esi)
    5304:	88 56 35             	mov    %dl,0x35(%esi)
    5307:	0f b6 3b             	movzbl (%ebx),%edi
    530a:	83 e7 0f             	and    $0xf,%edi
    530d:	8b 45 e4             	mov    -0x1c(%ebp),%eax
    5310:	c1 e7 02             	shl    $0x2,%edi
    5313:	29 f8                	sub    %edi,%eax
    5315:	89 46 40             	mov    %eax,0x40(%esi)
    5318:	5a                   	pop    %edx
    5319:	59                   	pop    %ecx
    531a:	6a 01                	push   $0x1
    531c:	50                   	push   %eax
    531d:	e8 1e 1f 00 00       	call   7240 <calloc@plt>
    5322:	83 c4 10             	add    $0x10,%esp
    5325:	89 46 3c             	mov    %eax,0x3c(%esi)
    5328:	85 c0                	test   %eax,%eax
    532a:	74 74                	je     53a0 <inet_pdu_decode+0x170>
    532c:	52                   	push   %edx
    532d:	01 fb                	add    %edi,%ebx
    532f:	8b 4e 40             	mov    0x40(%esi),%ecx
    5332:	51                   	push   %ecx
    5333:	53                   	push   %ebx
    5334:	50                   	push   %eax
    5335:	e8 16 1e 00 00       	call   7150 <memcpy@plt>
    533a:	8b 45 10             	mov    0x10(%ebp),%eax
    533d:	83 c4 10             	add    $0x10,%esp
    5340:	89 06                	mov    %eax,(%esi)
    5342:	31 c0                	xor    %eax,%eax
    5344:	8d 65 f4             	lea    -0xc(%ebp),%esp
    5347:	5b                   	pop    %ebx
    5348:	5e                   	pop    %esi
    5349:	5f                   	pop    %edi
    534a:	5d                   	pop    %ebp
    534b:	c3                   	ret    
    534c:	8d 74 26 00          	lea    0x0(%esi,%eiz,1),%esi
    5350:	31 c0                	xor    %eax,%eax
    5352:	88 c8                	mov    %cl,%al
    5354:	50                   	push   %eax
    5355:	68 83 6b 00 00       	push   $0x6b83
    535a:	6a 04                	push   $0x4
    535c:	6a ff                	push   $0xffffffff
    535e:	e8 7d 1e 00 00       	call   71e0 <log_msg@plt>
    5363:	83 c4 10             	add    $0x10,%esp
    5366:	b8 f2 ff ff ff       	mov    $0xfffffff2,%eax
    536b:	eb d7                	jmp    5344 <inet_pdu_decode+0x114>
    536d:	8d 76 00             	lea    0x0(%esi),%esi
    5370:	83 ec 0c             	sub    $0xc,%esp
    5373:	8b 5d e4             	mov    -0x1c(%ebp),%ebx
    5376:	57                   	push   %edi
    5377:	53                   	push   %ebx
    5378:	68 10 6c 00 00       	push   $0x6c10
    537d:	6a 04                	push   $0x4
    537f:	6a ff                	push   $0xffffffff
    5381:	e8 5a 1e 00 00       	call   71e0 <log_msg@plt>
    5386:	83 c4 20             	add    $0x20,%esp
    5389:	b8 f2 ff ff ff       	mov    $0xfffffff2,%eax
    538e:	eb b4                	jmp    5344 <inet_pdu_decode+0x114>
    5390:	57                   	push   %edi
    5391:	68 6f 6b 00 00       	push   $0x6b6f
    5396:	eb c2                	jmp    535a <inet_pdu_decode+0x12a>
    5398:	51                   	push   %ecx
    5399:	68 95 6b 00 00       	push   $0x6b95
    539e:	eb ba                	jmp    535a <inet_pdu_decode+0x12a>
    53a0:	53                   	push   %ebx
    53a1:	68 b2 6b 00 00       	push   $0x6bb2
    53a6:	6a 02                	push   $0x2
    53a8:	6a ff                	push   $0xffffffff
    53aa:	e8 31 1e 00 00       	call   71e0 <log_msg@plt>
    53af:	83 c4 10             	add    $0x10,%esp
    53b2:	b8 fe ff ff ff       	mov    $0xfffffffe,%eax
    53b7:	eb 8b                	jmp    5344 <inet_pdu_decode+0x114>
    53b9:	8d b4 26 00 00 00 00 	lea    0x0(%esi,%eiz,1),%esi

000053c0 <inet_pdu_decode6>:
    53c0:	55                   	push   %ebp
    53c1:	89 e5                	mov    %esp,%ebp
    53c3:	57                   	push   %edi
    53c4:	56                   	push   %esi
    53c5:	53                   	push   %ebx
    53c6:	83 ec 50             	sub    $0x50,%esp
    53c9:	8b 7d 0c             	mov    0xc(%ebp),%edi
    53cc:	8b 75 08             	mov    0x8(%ebp),%esi
    53cf:	68 c1 6b 00 00       	push   $0x6bc1
    53d4:	6a 04                	push   $0x4
    53d6:	6a ff                	push   $0xffffffff
    53d8:	8b 5d 14             	mov    0x14(%ebp),%ebx
    53db:	e8 00 1e 00 00       	call   71e0 <log_msg@plt>
    53e0:	83 c4 10             	add    $0x10,%esp
    53e3:	83 ff 27             	cmp    $0x27,%edi
    53e6:	0f 86 6c 01 00 00    	jbe    5558 <inet_pdu_decode6+0x198>
    53ec:	8a 06                	mov    (%esi),%al
    53ee:	c0 e8 04             	shr    $0x4,%al
    53f1:	88 c1                	mov    %al,%cl
    53f3:	3c 06                	cmp    $0x6,%al
    53f5:	0f 85 3d 01 00 00    	jne    5538 <inet_pdu_decode6+0x178>
    53fb:	66 8b 46 04          	mov    0x4(%esi),%ax
    53ff:	31 c9                	xor    %ecx,%ecx
    5401:	66 c1 c0 08          	rol    $0x8,%ax
    5405:	66 89 c1             	mov    %ax,%cx
    5408:	8d 51 28             	lea    0x28(%ecx),%edx
    540b:	39 d7                	cmp    %edx,%edi
    540d:	0f 82 4d 01 00 00    	jb     5560 <inet_pdu_decode6+0x1a0>
    5413:	8a 56 06             	mov    0x6(%esi),%dl
    5416:	80 fa 2c             	cmp    $0x2c,%dl
    5419:	0f 84 d1 00 00 00    	je     54f0 <inet_pdu_decode6+0x130>
    541f:	89 d7                	mov    %edx,%edi
    5421:	c7 45 c0 00 00 00 00 	movl   $0x0,-0x40(%ebp)
    5428:	81 e7 ff 00 00 00    	and    $0xff,%edi
    542e:	c6 45 bf 00          	movb   $0x0,-0x41(%ebp)
    5432:	c7 45 b0 28 00 00 00 	movl   $0x28,-0x50(%ebp)
    5439:	c7 45 c4 00 00 00 00 	movl   $0x0,-0x3c(%ebp)
    5440:	8d 55 c8             	lea    -0x38(%ebp),%edx
    5443:	89 4d b4             	mov    %ecx,-0x4c(%ebp)
    5446:	8d 4e 08             	lea    0x8(%esi),%ecx
    5449:	89 55 b8             	mov    %edx,-0x48(%ebp)
    544c:	50                   	push   %eax
    544d:	50                   	push   %eax
    544e:	52                   	push   %edx
    544f:	51                   	push   %ecx
    5450:	e8 cb 1f 00 00       	call   7420 <addr128_t_be2host@plt>
    5455:	58                   	pop    %eax
    5456:	8d 4b 04             	lea    0x4(%ebx),%ecx
    5459:	5a                   	pop    %edx
    545a:	8b 55 b8             	mov    -0x48(%ebp),%edx
    545d:	51                   	push   %ecx
    545e:	52                   	push   %edx
    545f:	e8 ac 1c 00 00       	call   7110 <inet_addr_set6@plt>
    5464:	59                   	pop    %ecx
    5465:	8d 55 d8             	lea    -0x28(%ebp),%edx
    5468:	8d 4e 18             	lea    0x18(%esi),%ecx
    546b:	58                   	pop    %eax
    546c:	89 55 b8             	mov    %edx,-0x48(%ebp)
    546f:	52                   	push   %edx
    5470:	51                   	push   %ecx
    5471:	e8 aa 1f 00 00       	call   7420 <addr128_t_be2host@plt>
    5476:	58                   	pop    %eax
    5477:	8d 4b 18             	lea    0x18(%ebx),%ecx
    547a:	5a                   	pop    %edx
    547b:	8b 55 b8             	mov    -0x48(%ebp),%edx
    547e:	51                   	push   %ecx
    547f:	52                   	push   %edx
    5480:	e8 8b 1c 00 00       	call   7110 <inet_addr_set6@plt>
    5485:	89 f8                	mov    %edi,%eax
    5487:	c6 43 2c 00          	movb   $0x0,0x2c(%ebx)
    548b:	88 43 2d             	mov    %al,0x2d(%ebx)
    548e:	8a 46 07             	mov    0x7(%esi),%al
    5491:	8b 4d b4             	mov    -0x4c(%ebp),%ecx
    5494:	88 43 2e             	mov    %al,0x2e(%ebx)
    5497:	8b 45 c4             	mov    -0x3c(%ebp),%eax
    549a:	89 43 30             	mov    %eax,0x30(%ebx)
    549d:	8a 45 bf             	mov    -0x41(%ebp),%al
    54a0:	88 43 35             	mov    %al,0x35(%ebx)
    54a3:	8b 45 c0             	mov    -0x40(%ebp),%eax
    54a6:	c6 43 34 01          	movb   $0x1,0x34(%ebx)
    54aa:	89 43 38             	mov    %eax,0x38(%ebx)
    54ad:	89 4b 40             	mov    %ecx,0x40(%ebx)
    54b0:	5f                   	pop    %edi
    54b1:	58                   	pop    %eax
    54b2:	6a 01                	push   $0x1
    54b4:	51                   	push   %ecx
    54b5:	e8 86 1d 00 00       	call   7240 <calloc@plt>
    54ba:	83 c4 10             	add    $0x10,%esp
    54bd:	89 43 3c             	mov    %eax,0x3c(%ebx)
    54c0:	85 c0                	test   %eax,%eax
    54c2:	0f 84 b8 00 00 00    	je     5580 <inet_pdu_decode6+0x1c0>
    54c8:	8b 7d b0             	mov    -0x50(%ebp),%edi
    54cb:	52                   	push   %edx
    54cc:	8b 4b 40             	mov    0x40(%ebx),%ecx
    54cf:	01 fe                	add    %edi,%esi
    54d1:	51                   	push   %ecx
    54d2:	56                   	push   %esi
    54d3:	50                   	push   %eax
    54d4:	e8 77 1c 00 00       	call   7150 <memcpy@plt>
    54d9:	8b 45 10             	mov    0x10(%ebp),%eax
    54dc:	83 c4 10             	add    $0x10,%esp
    54df:	89 03                	mov    %eax,(%ebx)
    54e1:	31 c0                	xor    %eax,%eax
    54e3:	8d 65 f4             	lea    -0xc(%ebp),%esp
    54e6:	5b                   	pop    %ebx
    54e7:	5e                   	pop    %esi
    54e8:	5f                   	pop    %edi
    54e9:	5d                   	pop    %ebp
    54ea:	c3                   	ret    
    54eb:	90                   	nop
    54ec:	8d 74 26 00          	lea    0x0(%esi,%eiz,1),%esi
    54f0:	8b 56 2c             	mov    0x2c(%esi),%edx
    54f3:	83 e9 08             	sub    $0x8,%ecx
    54f6:	0f ca                	bswap  %edx
    54f8:	89 55 c4             	mov    %edx,-0x3c(%ebp)
    54fb:	66 8b 56 2a          	mov    0x2a(%esi),%dx
    54ff:	66 c1 c2 08          	rol    $0x8,%dx
    5503:	88 d0                	mov    %dl,%al
    5505:	c7 45 b0 30 00 00 00 	movl   $0x30,-0x50(%ebp)
    550c:	83 e0 01             	and    $0x1,%eax
    550f:	88 45 bf             	mov    %al,-0x41(%ebp)
    5512:	89 d0                	mov    %edx,%eax
    5514:	66 c1 e8 03          	shr    $0x3,%ax
    5518:	31 d2                	xor    %edx,%edx
    551a:	66 89 c2             	mov    %ax,%dx
    551d:	0f b6 7e 28          	movzbl 0x28(%esi),%edi
    5521:	8d 04 d5 00 00 00 00 	lea    0x0(,%edx,8),%eax
    5528:	81 e7 ff 00 00 00    	and    $0xff,%edi
    552e:	89 45 c0             	mov    %eax,-0x40(%ebp)
    5531:	e9 0a ff ff ff       	jmp    5440 <inet_pdu_decode6+0x80>
    5536:	66 90                	xchg   %ax,%ax
    5538:	31 c0                	xor    %eax,%eax
    553a:	88 c8                	mov    %cl,%al
    553c:	50                   	push   %eax
    553d:	68 d4 6b 00 00       	push   $0x6bd4
    5542:	6a 04                	push   $0x4
    5544:	6a ff                	push   $0xffffffff
    5546:	e8 95 1c 00 00       	call   71e0 <log_msg@plt>
    554b:	83 c4 10             	add    $0x10,%esp
    554e:	b8 f2 ff ff ff       	mov    $0xfffffff2,%eax
    5553:	eb 8e                	jmp    54e3 <inet_pdu_decode6+0x123>
    5555:	8d 76 00             	lea    0x0(%esi),%esi
    5558:	57                   	push   %edi
    5559:	68 6f 6b 00 00       	push   $0x6b6f
    555e:	eb e2                	jmp    5542 <inet_pdu_decode6+0x182>
    5560:	83 ec 0c             	sub    $0xc,%esp
    5563:	57                   	push   %edi
    5564:	52                   	push   %edx
    5565:	68 34 6c 00 00       	push   $0x6c34
    556a:	6a 04                	push   $0x4
    556c:	6a ff                	push   $0xffffffff
    556e:	e8 6d 1c 00 00       	call   71e0 <log_msg@plt>
    5573:	83 c4 20             	add    $0x20,%esp
    5576:	b8 f2 ff ff ff       	mov    $0xfffffff2,%eax
    557b:	e9 63 ff ff ff       	jmp    54e3 <inet_pdu_decode6+0x123>
    5580:	50                   	push   %eax
    5581:	68 b2 6b 00 00       	push   $0x6bb2
    5586:	6a 02                	push   $0x2
    5588:	6a ff                	push   $0xffffffff
    558a:	e8 51 1c 00 00       	call   71e0 <log_msg@plt>
    558f:	83 c4 10             	add    $0x10,%esp
    5592:	b8 fe ff ff ff       	mov    $0xfffffffe,%eax
    5597:	e9 47 ff ff ff       	jmp    54e3 <inet_pdu_decode6+0x123>
    559c:	8d 74 26 00          	lea    0x0(%esi,%eiz,1),%esi

000055a0 <ndp_pdu_encode>:
    55a0:	55                   	push   %ebp
    55a1:	89 e5                	mov    %esp,%ebp
    55a3:	57                   	push   %edi
    55a4:	56                   	push   %esi
    55a5:	53                   	push   %ebx
    55a6:	83 ec 54             	sub    $0x54,%esp
    55a9:	8b 5d 08             	mov    0x8(%ebp),%ebx
    55ac:	8b 45 0c             	mov    0xc(%ebp),%eax
    55af:	83 c0 04             	add    $0x4,%eax
    55b2:	8d 73 0a             	lea    0xa(%ebx),%esi
    55b5:	50                   	push   %eax
    55b6:	56                   	push   %esi
    55b7:	e8 54 1b 00 00       	call   7110 <inet_addr_set6@plt>
    55bc:	8d 43 20             	lea    0x20(%ebx),%eax
    55bf:	89 c7                	mov    %eax,%edi
    55c1:	89 45 b4             	mov    %eax,-0x4c(%ebp)
    55c4:	58                   	pop    %eax
    55c5:	8b 45 0c             	mov    0xc(%ebp),%eax
    55c8:	83 c0 18             	add    $0x18,%eax
    55cb:	5a                   	pop    %edx
    55cc:	50                   	push   %eax
    55cd:	57                   	push   %edi
    55ce:	e8 3d 1b 00 00       	call   7110 <inet_addr_set6@plt>
    55d3:	8b 45 0c             	mov    0xc(%ebp),%eax
    55d6:	c6 40 2c 00          	movb   $0x0,0x2c(%eax)
    55da:	c7 40 34 20 00 00 00 	movl   $0x20,0x34(%eax)
    55e1:	59                   	pop    %ecx
    55e2:	5f                   	pop    %edi
    55e3:	6a 20                	push   $0x20
    55e5:	6a 01                	push   $0x1
    55e7:	e8 54 1c 00 00       	call   7240 <calloc@plt>
    55ec:	83 c4 10             	add    $0x10,%esp
    55ef:	89 c7                	mov    %eax,%edi
    55f1:	8b 45 0c             	mov    0xc(%ebp),%eax
    55f4:	85 ff                	test   %edi,%edi
    55f6:	89 78 30             	mov    %edi,0x30(%eax)
    55f9:	0f 84 88 01 00 00    	je     5787 <ndp_pdu_encode+0x1e7>
    55ff:	8b 03                	mov    (%ebx),%eax
    5601:	c6 47 01 00          	movb   $0x0,0x1(%edi)
    5605:	88 07                	mov    %al,(%edi)
    5607:	50                   	push   %eax
    5608:	8d 47 05             	lea    0x5(%edi),%eax
    560b:	6a 03                	push   $0x3
    560d:	6a 00                	push   $0x0
    560f:	50                   	push   %eax
    5610:	e8 eb 1c 00 00       	call   7300 <memset@plt>
    5615:	83 c4 10             	add    $0x10,%esp
    5618:	81 3b 87 00 00 00    	cmpl   $0x87,(%ebx)
    561e:	0f 84 44 01 00 00    	je     5768 <ndp_pdu_encode+0x1c8>
    5624:	50                   	push   %eax
    5625:	50                   	push   %eax
    5626:	8d 47 08             	lea    0x8(%edi),%eax
    5629:	50                   	push   %eax
    562a:	56                   	push   %esi
    562b:	e8 80 1b 00 00       	call   71b0 <host2addr128_t_be@plt>
    5630:	c6 47 18 02          	movb   $0x2,0x18(%edi)
    5634:	c6 47 04 60          	movb   $0x60,0x4(%edi)
    5638:	83 c4 10             	add    $0x10,%esp
    563b:	c6 47 19 01          	movb   $0x1,0x19(%edi)
    563f:	83 c3 04             	add    $0x4,%ebx
    5642:	50                   	push   %eax
    5643:	50                   	push   %eax
    5644:	8d 47 1a             	lea    0x1a(%edi),%eax
    5647:	50                   	push   %eax
    5648:	53                   	push   %ebx
    5649:	8d 5d c0             	lea    -0x40(%ebp),%ebx
    564c:	e8 8f 1d 00 00       	call   73e0 <addr48@plt>
    5651:	5a                   	pop    %edx
    5652:	59                   	pop    %ecx
    5653:	53                   	push   %ebx
    5654:	56                   	push   %esi
    5655:	e8 56 1b 00 00       	call   71b0 <host2addr128_t_be@plt>
    565a:	5e                   	pop    %esi
    565b:	58                   	pop    %eax
    565c:	8d 45 d0             	lea    -0x30(%ebp),%eax
    565f:	50                   	push   %eax
    5660:	8b 45 b4             	mov    -0x4c(%ebp),%eax
    5663:	50                   	push   %eax
    5664:	e8 47 1b 00 00       	call   71b0 <host2addr128_t_be@plt>
    5669:	8b 45 0c             	mov    0xc(%ebp),%eax
    566c:	83 c4 0c             	add    $0xc,%esp
    566f:	8d 75 e8             	lea    -0x18(%ebp),%esi
    5672:	8b 40 34             	mov    0x34(%eax),%eax
    5675:	6a 03                	push   $0x3
    5677:	0f c8                	bswap  %eax
    5679:	89 45 e0             	mov    %eax,-0x20(%ebp)
    567c:	8d 45 e4             	lea    -0x1c(%ebp),%eax
    567f:	6a 00                	push   $0x0
    5681:	50                   	push   %eax
    5682:	e8 79 1c 00 00       	call   7300 <memset@plt>
    5687:	31 c0                	xor    %eax,%eax
    5689:	c6 45 e7 3a          	movb   $0x3a,-0x19(%ebp)
    568d:	83 c4 10             	add    $0x10,%esp
    5690:	89 c1                	mov    %eax,%ecx
    5692:	8d b6 00 00 00 00    	lea    0x0(%esi),%esi
    5698:	31 d2                	xor    %edx,%edx
    569a:	83 c3 02             	add    $0x2,%ebx
    569d:	8a 53 fe             	mov    -0x2(%ebx),%dl
    56a0:	89 d0                	mov    %edx,%eax
    56a2:	31 d2                	xor    %edx,%edx
    56a4:	c1 e0 08             	shl    $0x8,%eax
    56a7:	8a 53 ff             	mov    -0x1(%ebx),%dl
    56aa:	09 c2                	or     %eax,%edx
    56ac:	31 c0                	xor    %eax,%eax
    56ae:	81 e2 ff ff 00 00    	and    $0xffff,%edx
    56b4:	66 89 c8             	mov    %cx,%ax
    56b7:	01 d0                	add    %edx,%eax
    56b9:	89 c1                	mov    %eax,%ecx
    56bb:	c1 e9 10             	shr    $0x10,%ecx
    56be:	01 c1                	add    %eax,%ecx
    56c0:	39 de                	cmp    %ebx,%esi
    56c2:	75 d4                	jne    5698 <ndp_pdu_encode+0xf8>
    56c4:	8b 75 0c             	mov    0xc(%ebp),%esi
    56c7:	8b 5d 0c             	mov    0xc(%ebp),%ebx
    56ca:	89 c8                	mov    %ecx,%eax
    56cc:	8b 76 34             	mov    0x34(%esi),%esi
    56cf:	8b 5b 30             	mov    0x30(%ebx),%ebx
    56d2:	89 f2                	mov    %esi,%edx
    56d4:	89 75 b4             	mov    %esi,-0x4c(%ebp)
    56d7:	d1 ea                	shr    %edx
    56d9:	89 5d b0             	mov    %ebx,-0x50(%ebp)
    56dc:	74 3b                	je     5719 <ndp_pdu_encode+0x179>
    56de:	8d 34 53             	lea    (%ebx,%edx,2),%esi
    56e1:	8d b4 26 00 00 00 00 	lea    0x0(%esi,%eiz,1),%esi
    56e8:	31 d2                	xor    %edx,%edx
    56ea:	83 c3 02             	add    $0x2,%ebx
    56ed:	8a 53 fe             	mov    -0x2(%ebx),%dl
    56f0:	89 d0                	mov    %edx,%eax
    56f2:	31 d2                	xor    %edx,%edx
    56f4:	c1 e0 08             	shl    $0x8,%eax
    56f7:	8a 53 ff             	mov    -0x1(%ebx),%dl
    56fa:	09 c2                	or     %eax,%edx
    56fc:	31 c0                	xor    %eax,%eax
    56fe:	81 e2 ff ff 00 00    	and    $0xffff,%edx
    5704:	66 89 c8             	mov    %cx,%ax
    5707:	01 d0                	add    %edx,%eax
    5709:	89 c1                	mov    %eax,%ecx
    570b:	c1 e9 10             	shr    $0x10,%ecx
    570e:	01 c1                	add    %eax,%ecx
    5710:	39 de                	cmp    %ebx,%esi
    5712:	75 d4                	jne    56e8 <ndp_pdu_encode+0x148>
    5714:	89 c8                	mov    %ecx,%eax
    5716:	8b 75 b4             	mov    -0x4c(%ebp),%esi
    5719:	f7 c6 01 00 00 00    	test   $0x1,%esi
    571f:	74 2b                	je     574c <ndp_pdu_encode+0x1ac>
    5721:	89 f2                	mov    %esi,%edx
    5723:	8b 5d b0             	mov    -0x50(%ebp),%ebx
    5726:	83 e2 fe             	and    $0xfffffffe,%edx
    5729:	25 ff ff 00 00       	and    $0xffff,%eax
    572e:	0f b6 34 13          	movzbl (%ebx,%edx,1),%esi
    5732:	81 e6 ff 00 00 00    	and    $0xff,%esi
    5738:	89 f2                	mov    %esi,%edx
    573a:	c1 e2 08             	shl    $0x8,%edx
    573d:	81 e2 ff ff 00 00    	and    $0xffff,%edx
    5743:	01 d0                	add    %edx,%eax
    5745:	89 c2                	mov    %eax,%edx
    5747:	c1 ea 10             	shr    $0x10,%edx
    574a:	01 d0                	add    %edx,%eax
    574c:	83 f0 ff             	xor    $0xffffffff,%eax
    574f:	66 c1 c0 08          	rol    $0x8,%ax
    5753:	66 89 47 02          	mov    %ax,0x2(%edi)
    5757:	31 c0                	xor    %eax,%eax
    5759:	8d 65 f4             	lea    -0xc(%ebp),%esp
    575c:	5b                   	pop    %ebx
    575d:	5e                   	pop    %esi
    575e:	5f                   	pop    %edi
    575f:	5d                   	pop    %ebp
    5760:	c3                   	ret    
    5761:	8d b4 26 00 00 00 00 	lea    0x0(%esi,%eiz,1),%esi
    5768:	50                   	push   %eax
    5769:	50                   	push   %eax
    576a:	8d 47 08             	lea    0x8(%edi),%eax
    576d:	50                   	push   %eax
    576e:	8d 43 30             	lea    0x30(%ebx),%eax
    5771:	50                   	push   %eax
    5772:	e8 39 1a 00 00       	call   71b0 <host2addr128_t_be@plt>
    5777:	c6 47 18 01          	movb   $0x1,0x18(%edi)
    577b:	c6 47 04 00          	movb   $0x0,0x4(%edi)
    577f:	83 c4 10             	add    $0x10,%esp
    5782:	e9 b4 fe ff ff       	jmp    563b <ndp_pdu_encode+0x9b>
    5787:	b8 fe ff ff ff       	mov    $0xfffffffe,%eax
    578c:	eb cb                	jmp    5759 <ndp_pdu_encode+0x1b9>
    578e:	66 90                	xchg   %ax,%ax

00005790 <ndp_pdu_decode>:
    5790:	55                   	push   %ebp
    5791:	89 e5                	mov    %esp,%ebp
    5793:	56                   	push   %esi
    5794:	53                   	push   %ebx
    5795:	50                   	push   %eax
    5796:	8b 5d 0c             	mov    0xc(%ebp),%ebx
    5799:	8b 75 08             	mov    0x8(%ebp),%esi
    579c:	8d 43 0a             	lea    0xa(%ebx),%eax
    579f:	50                   	push   %eax
    57a0:	8d 46 04             	lea    0x4(%esi),%eax
    57a3:	6a 00                	push   $0x0
    57a5:	50                   	push   %eax
    57a6:	e8 45 1b 00 00       	call   72f0 <inet_addr_get@plt>
    57ab:	83 c4 10             	add    $0x10,%esp
    57ae:	83 f8 02             	cmp    $0x2,%eax
    57b1:	75 3d                	jne    57f0 <ndp_pdu_decode+0x60>
    57b3:	83 7e 34 1f          	cmpl   $0x1f,0x34(%esi)
    57b7:	76 37                	jbe    57f0 <ndp_pdu_decode+0x60>
    57b9:	8b 76 30             	mov    0x30(%esi),%esi
    57bc:	31 c0                	xor    %eax,%eax
    57be:	8a 06                	mov    (%esi),%al
    57c0:	89 03                	mov    %eax,(%ebx)
    57c2:	50                   	push   %eax
    57c3:	50                   	push   %eax
    57c4:	8d 43 20             	lea    0x20(%ebx),%eax
    57c7:	50                   	push   %eax
    57c8:	83 c3 04             	add    $0x4,%ebx
    57cb:	8d 46 08             	lea    0x8(%esi),%eax
    57ce:	83 c6 1a             	add    $0x1a,%esi
    57d1:	50                   	push   %eax
    57d2:	e8 49 1c 00 00       	call   7420 <addr128_t_be2host@plt>
    57d7:	5a                   	pop    %edx
    57d8:	59                   	pop    %ecx
    57d9:	53                   	push   %ebx
    57da:	56                   	push   %esi
    57db:	e8 00 1c 00 00       	call   73e0 <addr48@plt>
    57e0:	83 c4 10             	add    $0x10,%esp
    57e3:	8d 65 f8             	lea    -0x8(%ebp),%esp
    57e6:	31 c0                	xor    %eax,%eax
    57e8:	5b                   	pop    %ebx
    57e9:	5e                   	pop    %esi
    57ea:	5d                   	pop    %ebp
    57eb:	c3                   	ret    
    57ec:	8d 74 26 00          	lea    0x0(%esi,%eiz,1),%esi
    57f0:	8d 65 f8             	lea    -0x8(%ebp),%esp
    57f3:	b8 f2 ff ff ff       	mov    $0xfffffff2,%eax
    57f8:	5b                   	pop    %ebx
    57f9:	5e                   	pop    %esi
    57fa:	5d                   	pop    %ebp
    57fb:	c3                   	ret    
    57fc:	66 90                	xchg   %ax,%ax
    57fe:	66 90                	xchg   %ax,%ax

00005800 <inet_reass_queue_packet>:
    5800:	55                   	push   %ebp
    5801:	89 e5                	mov    %esp,%ebp
    5803:	57                   	push   %edi
    5804:	56                   	push   %esi
    5805:	53                   	push   %ebx
    5806:	83 ec 60             	sub    $0x60,%esp
    5809:	68 5a 6c 00 00       	push   $0x6c5a
    580e:	6a 04                	push   $0x4
    5810:	6a ff                	push   $0xffffffff
    5812:	e8 c9 19 00 00       	call   71e0 <log_msg@plt>
    5817:	c7 04 24 1c 92 00 00 	movl   $0x921c,(%esp)
    581e:	e8 8d 1c 00 00       	call   74b0 <fibril_mutex_lock@plt>
    5823:	c7 04 24 1c 92 00 00 	movl   $0x921c,(%esp)
    582a:	e8 d1 18 00 00       	call   7100 <fibril_mutex_is_locked@plt>
    582f:	83 c4 10             	add    $0x10,%esp
    5832:	84 c0                	test   %al,%al
    5834:	0f 84 6f 04 00 00    	je     5ca9 <inet_reass_queue_packet+0x4a9>
    583a:	8b 35 30 92 00 00    	mov    0x9230,%esi
    5840:	81 fe 2c 92 00 00    	cmp    $0x922c,%esi
    5846:	0f 84 6c 01 00 00    	je     59b8 <inet_reass_queue_packet+0x1b8>
    584c:	8b 7e 0c             	mov    0xc(%esi),%edi
    584f:	8d 5e 08             	lea    0x8(%esi),%ebx
    5852:	85 ff                	test   %edi,%edi
    5854:	0f 84 17 04 00 00    	je     5c71 <inet_reass_queue_packet+0x471>
    585a:	39 fb                	cmp    %edi,%ebx
    585c:	0f 84 0f 04 00 00    	je     5c71 <inet_reass_queue_packet+0x471>
    5862:	8b 45 08             	mov    0x8(%ebp),%eax
    5865:	83 c0 04             	add    $0x4,%eax
    5868:	89 45 a4             	mov    %eax,-0x5c(%ebp)
    586b:	8b 45 08             	mov    0x8(%ebp),%eax
    586e:	83 c0 18             	add    $0x18,%eax
    5871:	89 45 a0             	mov    %eax,-0x60(%ebp)
    5874:	eb 27                	jmp    589d <inet_reass_queue_packet+0x9d>
    5876:	66 90                	xchg   %ax,%ax
    5878:	8b 76 04             	mov    0x4(%esi),%esi
    587b:	81 fe 2c 92 00 00    	cmp    $0x922c,%esi
    5881:	0f 84 31 01 00 00    	je     59b8 <inet_reass_queue_packet+0x1b8>
    5887:	8b 7e 0c             	mov    0xc(%esi),%edi
    588a:	8d 5e 08             	lea    0x8(%esi),%ebx
    588d:	39 df                	cmp    %ebx,%edi
    588f:	0f 84 dc 03 00 00    	je     5c71 <inet_reass_queue_packet+0x471>
    5895:	85 ff                	test   %edi,%edi
    5897:	0f 84 d4 03 00 00    	je     5c71 <inet_reass_queue_packet+0x471>
    589d:	8b 55 a4             	mov    -0x5c(%ebp),%edx
    58a0:	50                   	push   %eax
    58a1:	50                   	push   %eax
    58a2:	8d 47 0c             	lea    0xc(%edi),%eax
    58a5:	52                   	push   %edx
    58a6:	50                   	push   %eax
    58a7:	e8 c4 1a 00 00       	call   7370 <inet_addr_compare@plt>
    58ac:	83 c4 10             	add    $0x10,%esp
    58af:	85 c0                	test   %eax,%eax
    58b1:	74 c5                	je     5878 <inet_reass_queue_packet+0x78>
    58b3:	50                   	push   %eax
    58b4:	50                   	push   %eax
    58b5:	8b 45 a0             	mov    -0x60(%ebp),%eax
    58b8:	50                   	push   %eax
    58b9:	8d 47 20             	lea    0x20(%edi),%eax
    58bc:	50                   	push   %eax
    58bd:	e8 ae 1a 00 00       	call   7370 <inet_addr_compare@plt>
    58c2:	83 c4 10             	add    $0x10,%esp
    58c5:	85 c0                	test   %eax,%eax
    58c7:	74 af                	je     5878 <inet_reass_queue_packet+0x78>
    58c9:	8b 45 08             	mov    0x8(%ebp),%eax
    58cc:	8a 40 2d             	mov    0x2d(%eax),%al
    58cf:	38 47 35             	cmp    %al,0x35(%edi)
    58d2:	75 a4                	jne    5878 <inet_reass_queue_packet+0x78>
    58d4:	8b 45 08             	mov    0x8(%ebp),%eax
    58d7:	8b 40 30             	mov    0x30(%eax),%eax
    58da:	39 47 38             	cmp    %eax,0x38(%edi)
    58dd:	75 99                	jne    5878 <inet_reass_queue_packet+0x78>
    58df:	89 75 a4             	mov    %esi,-0x5c(%ebp)
    58e2:	83 ec 0c             	sub    $0xc,%esp
    58e5:	68 1c 92 00 00       	push   $0x921c
    58ea:	e8 11 18 00 00       	call   7100 <fibril_mutex_is_locked@plt>
    58ef:	83 c4 10             	add    $0x10,%esp
    58f2:	84 c0                	test   %al,%al
    58f4:	0f 84 ee 03 00 00    	je     5ce8 <inet_reass_queue_packet+0x4e8>
    58fa:	50                   	push   %eax
    58fb:	50                   	push   %eax
    58fc:	6a 4c                	push   $0x4c
    58fe:	6a 01                	push   $0x1
    5900:	e8 3b 19 00 00       	call   7240 <calloc@plt>
    5905:	83 c4 10             	add    $0x10,%esp
    5908:	89 c2                	mov    %eax,%edx
    590a:	85 c0                	test   %eax,%eax
    590c:	74 0d                	je     591b <inet_reass_queue_packet+0x11b>
    590e:	c7 00 00 00 00 00    	movl   $0x0,(%eax)
    5914:	c7 40 04 00 00 00 00 	movl   $0x0,0x4(%eax)
    591b:	8b 45 08             	mov    0x8(%ebp),%eax
    591e:	83 ec 0c             	sub    $0xc,%esp
    5921:	89 55 9c             	mov    %edx,-0x64(%ebp)
    5924:	8b 78 40             	mov    0x40(%eax),%edi
    5927:	57                   	push   %edi
    5928:	e8 63 18 00 00       	call   7190 <malloc@plt>
    592d:	83 c4 10             	add    $0x10,%esp
    5930:	89 45 a0             	mov    %eax,-0x60(%ebp)
    5933:	85 c0                	test   %eax,%eax
    5935:	8b 55 9c             	mov    -0x64(%ebp),%edx
    5938:	0f 84 55 03 00 00    	je     5c93 <inet_reass_queue_packet+0x493>
    593e:	50                   	push   %eax
    593f:	8b 45 08             	mov    0x8(%ebp),%eax
    5942:	8b 75 a0             	mov    -0x60(%ebp),%esi
    5945:	89 55 9c             	mov    %edx,-0x64(%ebp)
    5948:	8b 48 3c             	mov    0x3c(%eax),%ecx
    594b:	8b 50 40             	mov    0x40(%eax),%edx
    594e:	52                   	push   %edx
    594f:	51                   	push   %ecx
    5950:	56                   	push   %esi
    5951:	e8 fa 17 00 00       	call   7150 <memcpy@plt>
    5956:	8b 55 9c             	mov    -0x64(%ebp),%edx
    5959:	8b 45 a0             	mov    -0x60(%ebp),%eax
    595c:	b9 11 00 00 00       	mov    $0x11,%ecx
    5961:	8b 75 08             	mov    0x8(%ebp),%esi
    5964:	8d 7a 08             	lea    0x8(%edx),%edi
    5967:	83 c4 10             	add    $0x10,%esp
    596a:	f3 a5                	rep movsl %ds:(%esi),%es:(%edi)
    596c:	89 42 44             	mov    %eax,0x44(%edx)
    596f:	8b 45 a4             	mov    -0x5c(%ebp),%eax
    5972:	8b 40 0c             	mov    0xc(%eax),%eax
    5975:	39 d8                	cmp    %ebx,%eax
    5977:	74 27                	je     59a0 <inet_reass_queue_packet+0x1a0>
    5979:	85 c0                	test   %eax,%eax
    597b:	74 23                	je     59a0 <inet_reass_queue_packet+0x1a0>
    597d:	8b 4d 08             	mov    0x8(%ebp),%ecx
    5980:	8b 49 38             	mov    0x38(%ecx),%ecx
    5983:	3b 48 40             	cmp    0x40(%eax),%ecx
    5986:	76 70                	jbe    59f8 <inet_reass_queue_packet+0x1f8>
    5988:	8b 40 04             	mov    0x4(%eax),%eax
    598b:	39 c3                	cmp    %eax,%ebx
    598d:	74 11                	je     59a0 <inet_reass_queue_packet+0x1a0>
    598f:	90                   	nop
    5990:	85 c0                	test   %eax,%eax
    5992:	74 0c                	je     59a0 <inet_reass_queue_packet+0x1a0>
    5994:	39 48 40             	cmp    %ecx,0x40(%eax)
    5997:	73 5f                	jae    59f8 <inet_reass_queue_packet+0x1f8>
    5999:	8b 40 04             	mov    0x4(%eax),%eax
    599c:	39 d8                	cmp    %ebx,%eax
    599e:	75 f0                	jne    5990 <inet_reass_queue_packet+0x190>
    59a0:	8b 4d a4             	mov    -0x5c(%ebp),%ecx
    59a3:	89 5a 04             	mov    %ebx,0x4(%edx)
    59a6:	8b 41 08             	mov    0x8(%ecx),%eax
    59a9:	89 02                	mov    %eax,(%edx)
    59ab:	89 50 04             	mov    %edx,0x4(%eax)
    59ae:	89 51 08             	mov    %edx,0x8(%ecx)
    59b1:	eb 55                	jmp    5a08 <inet_reass_queue_packet+0x208>
    59b3:	90                   	nop
    59b4:	8d 74 26 00          	lea    0x0(%esi,%eiz,1),%esi
    59b8:	50                   	push   %eax
    59b9:	50                   	push   %eax
    59ba:	6a 10                	push   $0x10
    59bc:	6a 01                	push   $0x1
    59be:	e8 7d 18 00 00       	call   7240 <calloc@plt>
    59c3:	83 c4 10             	add    $0x10,%esp
    59c6:	89 45 a4             	mov    %eax,-0x5c(%ebp)
    59c9:	89 c2                	mov    %eax,%edx
    59cb:	85 c0                	test   %eax,%eax
    59cd:	0f 84 54 03 00 00    	je     5d27 <inet_reass_queue_packet+0x527>
    59d3:	c7 40 04 2c 92 00 00 	movl   $0x922c,0x4(%eax)
    59da:	a1 2c 92 00 00       	mov    0x922c,%eax
    59df:	8d 5a 08             	lea    0x8(%edx),%ebx
    59e2:	89 02                	mov    %eax,(%edx)
    59e4:	89 15 2c 92 00 00    	mov    %edx,0x922c
    59ea:	89 50 04             	mov    %edx,0x4(%eax)
    59ed:	89 5a 08             	mov    %ebx,0x8(%edx)
    59f0:	89 5a 0c             	mov    %ebx,0xc(%edx)
    59f3:	e9 ea fe ff ff       	jmp    58e2 <inet_reass_queue_packet+0xe2>
    59f8:	8b 48 04             	mov    0x4(%eax),%ecx
    59fb:	89 02                	mov    %eax,(%edx)
    59fd:	89 4a 04             	mov    %ecx,0x4(%edx)
    5a00:	8b 48 04             	mov    0x4(%eax),%ecx
    5a03:	89 11                	mov    %edx,(%ecx)
    5a05:	89 50 04             	mov    %edx,0x4(%eax)
    5a08:	83 ec 0c             	sub    $0xc,%esp
    5a0b:	68 1c 92 00 00       	push   $0x921c
    5a10:	e8 eb 16 00 00       	call   7100 <fibril_mutex_is_locked@plt>
    5a15:	83 c4 10             	add    $0x10,%esp
    5a18:	84 c0                	test   %al,%al
    5a1a:	0f 84 f2 02 00 00    	je     5d12 <inet_reass_queue_packet+0x512>
    5a20:	8b 45 a4             	mov    -0x5c(%ebp),%eax
    5a23:	8b 50 0c             	mov    0xc(%eax),%edx
    5a26:	39 da                	cmp    %ebx,%edx
    5a28:	0f 84 a5 02 00 00    	je     5cd3 <inet_reass_queue_packet+0x4d3>
    5a2e:	85 d2                	test   %edx,%edx
    5a30:	0f 84 88 02 00 00    	je     5cbe <inet_reass_queue_packet+0x4be>
    5a36:	8b 4a 40             	mov    0x40(%edx),%ecx
    5a39:	85 c9                	test   %ecx,%ecx
    5a3b:	74 0d                	je     5a4a <inet_reass_queue_packet+0x24a>
    5a3d:	eb 22                	jmp    5a61 <inet_reass_queue_packet+0x261>
    5a3f:	90                   	nop
    5a40:	89 c2                	mov    %eax,%edx
    5a42:	80 78 3d 00          	cmpb   $0x0,0x3d(%eax)
    5a46:	74 35                	je     5a7d <inet_reass_queue_packet+0x27d>
    5a48:	89 f1                	mov    %esi,%ecx
    5a4a:	8b 42 04             	mov    0x4(%edx),%eax
    5a4d:	85 c0                	test   %eax,%eax
    5a4f:	74 10                	je     5a61 <inet_reass_queue_packet+0x261>
    5a51:	39 d8                	cmp    %ebx,%eax
    5a53:	74 0c                	je     5a61 <inet_reass_queue_packet+0x261>
    5a55:	8b 7a 48             	mov    0x48(%edx),%edi
    5a58:	8b 70 40             	mov    0x40(%eax),%esi
    5a5b:	01 f9                	add    %edi,%ecx
    5a5d:	39 ce                	cmp    %ecx,%esi
    5a5f:	76 df                	jbe    5a40 <inet_reass_queue_packet+0x240>
    5a61:	83 ec 0c             	sub    $0xc,%esp
    5a64:	31 f6                	xor    %esi,%esi
    5a66:	68 1c 92 00 00       	push   $0x921c
    5a6b:	e8 30 18 00 00       	call   72a0 <fibril_mutex_unlock@plt>
    5a70:	83 c4 10             	add    $0x10,%esp
    5a73:	8d 65 f4             	lea    -0xc(%ebp),%esp
    5a76:	89 f0                	mov    %esi,%eax
    5a78:	5b                   	pop    %ebx
    5a79:	5e                   	pop    %esi
    5a7a:	5f                   	pop    %edi
    5a7b:	5d                   	pop    %ebp
    5a7c:	c3                   	ret    
    5a7d:	83 ec 0c             	sub    $0xc,%esp
    5a80:	68 1c 92 00 00       	push   $0x921c
    5a85:	e8 76 16 00 00       	call   7100 <fibril_mutex_is_locked@plt>
    5a8a:	83 c4 10             	add    $0x10,%esp
    5a8d:	84 c0                	test   %al,%al
    5a8f:	0f 84 68 02 00 00    	je     5cfd <inet_reass_queue_packet+0x4fd>
    5a95:	8b 4d a4             	mov    -0x5c(%ebp),%ecx
    5a98:	8b 11                	mov    (%ecx),%edx
    5a9a:	85 d2                	test   %edx,%edx
    5a9c:	74 0e                	je     5aac <inet_reass_queue_packet+0x2ac>
    5a9e:	8b 41 04             	mov    0x4(%ecx),%eax
    5aa1:	85 c0                	test   %eax,%eax
    5aa3:	74 07                	je     5aac <inet_reass_queue_packet+0x2ac>
    5aa5:	89 10                	mov    %edx,(%eax)
    5aa7:	8b 11                	mov    (%ecx),%edx
    5aa9:	89 42 04             	mov    %eax,0x4(%edx)
    5aac:	8b 7d a4             	mov    -0x5c(%ebp),%edi
    5aaf:	83 ec 0c             	sub    $0xc,%esp
    5ab2:	c7 07 00 00 00 00    	movl   $0x0,(%edi)
    5ab8:	c7 47 04 00 00 00 00 	movl   $0x0,0x4(%edi)
    5abf:	68 1c 92 00 00       	push   $0x921c
    5ac4:	e8 d7 17 00 00       	call   72a0 <fibril_mutex_unlock@plt>
    5ac9:	8b 7f 0c             	mov    0xc(%edi),%edi
    5acc:	83 c4 10             	add    $0x10,%esp
    5acf:	39 df                	cmp    %ebx,%edi
    5ad1:	74 1a                	je     5aed <inet_reass_queue_packet+0x2ed>
    5ad3:	89 fe                	mov    %edi,%esi
    5ad5:	80 7f 3d 00          	cmpb   $0x0,0x3d(%edi)
    5ad9:	75 0b                	jne    5ae6 <inet_reass_queue_packet+0x2e6>
    5adb:	eb 2b                	jmp    5b08 <inet_reass_queue_packet+0x308>
    5add:	8d 76 00             	lea    0x0(%esi),%esi
    5ae0:	80 7e 3d 00          	cmpb   $0x0,0x3d(%esi)
    5ae4:	74 22                	je     5b08 <inet_reass_queue_packet+0x308>
    5ae6:	8b 76 04             	mov    0x4(%esi),%esi
    5ae9:	39 de                	cmp    %ebx,%esi
    5aeb:	75 f3                	jne    5ae0 <inet_reass_queue_packet+0x2e0>
    5aed:	53                   	push   %ebx
    5aee:	68 39 01 00 00       	push   $0x139
    5af3:	68 74 6c 00 00       	push   $0x6c74
    5af8:	68 a5 6c 00 00       	push   $0x6ca5
    5afd:	e8 2e 17 00 00       	call   7230 <assert_abort@plt>
    5b02:	8d b6 00 00 00 00    	lea    0x0(%esi),%esi
    5b08:	8b 56 48             	mov    0x48(%esi),%edx
    5b0b:	8b 4e 40             	mov    0x40(%esi),%ecx
    5b0e:	01 ca                	add    %ecx,%edx
    5b10:	81 fa 00 00 01 00    	cmp    $0x10000,%edx
    5b16:	0f 87 6a 01 00 00    	ja     5c86 <inet_reass_queue_packet+0x486>
    5b1c:	89 55 a0             	mov    %edx,-0x60(%ebp)
    5b1f:	50                   	push   %eax
    5b20:	50                   	push   %eax
    5b21:	6a 01                	push   $0x1
    5b23:	52                   	push   %edx
    5b24:	e8 17 17 00 00       	call   7240 <calloc@plt>
    5b29:	83 c4 10             	add    $0x10,%esp
    5b2c:	89 45 e0             	mov    %eax,-0x20(%ebp)
    5b2f:	85 c0                	test   %eax,%eax
    5b31:	8b 55 a0             	mov    -0x60(%ebp),%edx
    5b34:	0f 84 18 02 00 00    	je     5d52 <inet_reass_queue_packet+0x552>
    5b3a:	8b 46 08             	mov    0x8(%esi),%eax
    5b3d:	89 55 e4             	mov    %edx,-0x1c(%ebp)
    5b40:	89 45 b0             	mov    %eax,-0x50(%ebp)
    5b43:	8b 46 0c             	mov    0xc(%esi),%eax
    5b46:	89 45 b4             	mov    %eax,-0x4c(%ebp)
    5b49:	8b 46 10             	mov    0x10(%esi),%eax
    5b4c:	89 45 b8             	mov    %eax,-0x48(%ebp)
    5b4f:	8b 46 14             	mov    0x14(%esi),%eax
    5b52:	89 45 bc             	mov    %eax,-0x44(%ebp)
    5b55:	8b 46 18             	mov    0x18(%esi),%eax
    5b58:	89 45 c0             	mov    %eax,-0x40(%ebp)
    5b5b:	8b 46 1c             	mov    0x1c(%esi),%eax
    5b5e:	89 45 c4             	mov    %eax,-0x3c(%ebp)
    5b61:	8b 46 20             	mov    0x20(%esi),%eax
    5b64:	89 45 c8             	mov    %eax,-0x38(%ebp)
    5b67:	8b 46 24             	mov    0x24(%esi),%eax
    5b6a:	89 45 cc             	mov    %eax,-0x34(%ebp)
    5b6d:	8b 46 28             	mov    0x28(%esi),%eax
    5b70:	89 45 d0             	mov    %eax,-0x30(%ebp)
    5b73:	8b 46 2c             	mov    0x2c(%esi),%eax
    5b76:	89 45 d4             	mov    %eax,-0x2c(%ebp)
    5b79:	8b 46 30             	mov    0x30(%esi),%eax
    5b7c:	89 45 d8             	mov    %eax,-0x28(%ebp)
    5b7f:	8a 46 34             	mov    0x34(%esi),%al
    5b82:	8a 4e 35             	mov    0x35(%esi),%cl
    5b85:	88 45 dc             	mov    %al,-0x24(%ebp)
    5b88:	8b 45 a4             	mov    -0x5c(%ebp),%eax
    5b8b:	8b 70 0c             	mov    0xc(%eax),%esi
    5b8e:	39 de                	cmp    %ebx,%esi
    5b90:	74 51                	je     5be3 <inet_reass_queue_packet+0x3e3>
    5b92:	88 4d a0             	mov    %cl,-0x60(%ebp)
    5b95:	89 d7                	mov    %edx,%edi
    5b97:	eb 14                	jmp    5bad <inet_reass_queue_packet+0x3ad>
    5b99:	8d b4 26 00 00 00 00 	lea    0x0(%esi,%eiz,1),%esi
    5ba0:	80 7e 3d 00          	cmpb   $0x0,0x3d(%esi)
    5ba4:	74 3a                	je     5be0 <inet_reass_queue_packet+0x3e0>
    5ba6:	8b 76 04             	mov    0x4(%esi),%esi
    5ba9:	39 de                	cmp    %ebx,%esi
    5bab:	74 33                	je     5be0 <inet_reass_queue_packet+0x3e0>
    5bad:	8b 4e 40             	mov    0x40(%esi),%ecx
    5bb0:	8b 46 48             	mov    0x48(%esi),%eax
    5bb3:	01 c8                	add    %ecx,%eax
    5bb5:	39 f8                	cmp    %edi,%eax
    5bb7:	76 02                	jbe    5bbb <inet_reass_queue_packet+0x3bb>
    5bb9:	89 f8                	mov    %edi,%eax
    5bbb:	39 c1                	cmp    %eax,%ecx
    5bbd:	73 e1                	jae    5ba0 <inet_reass_queue_packet+0x3a0>
    5bbf:	29 c8                	sub    %ecx,%eax
    5bc1:	52                   	push   %edx
    5bc2:	50                   	push   %eax
    5bc3:	8b 46 44             	mov    0x44(%esi),%eax
    5bc6:	50                   	push   %eax
    5bc7:	8b 45 e0             	mov    -0x20(%ebp),%eax
    5bca:	01 c1                	add    %eax,%ecx
    5bcc:	51                   	push   %ecx
    5bcd:	e8 7e 15 00 00       	call   7150 <memcpy@plt>
    5bd2:	83 c4 10             	add    $0x10,%esp
    5bd5:	80 7e 3d 00          	cmpb   $0x0,0x3d(%esi)
    5bd9:	75 cb                	jne    5ba6 <inet_reass_queue_packet+0x3a6>
    5bdb:	90                   	nop
    5bdc:	8d 74 26 00          	lea    0x0(%esi,%eiz,1),%esi
    5be0:	8a 4d a0             	mov    -0x60(%ebp),%cl
    5be3:	89 cf                	mov    %ecx,%edi
    5be5:	50                   	push   %eax
    5be6:	81 e7 ff 00 00 00    	and    $0xff,%edi
    5bec:	50                   	push   %eax
    5bed:	8d 45 b0             	lea    -0x50(%ebp),%eax
    5bf0:	57                   	push   %edi
    5bf1:	50                   	push   %eax
    5bf2:	e8 59 ca ff ff       	call   2650 <inet_recv_dgram_local>
    5bf7:	89 c6                	mov    %eax,%esi
    5bf9:	58                   	pop    %eax
    5bfa:	8b 45 e0             	mov    -0x20(%ebp),%eax
    5bfd:	50                   	push   %eax
    5bfe:	e8 9d 18 00 00       	call   74a0 <free@plt>
    5c03:	8b 45 a4             	mov    -0x5c(%ebp),%eax
    5c06:	83 c4 10             	add    $0x10,%esp
    5c09:	8b 78 0c             	mov    0xc(%eax),%edi
    5c0c:	39 df                	cmp    %ebx,%edi
    5c0e:	74 48                	je     5c58 <inet_reass_queue_packet+0x458>
    5c10:	89 75 a0             	mov    %esi,-0x60(%ebp)
    5c13:	8b 75 a4             	mov    -0x5c(%ebp),%esi
    5c16:	8b 0f                	mov    (%edi),%ecx
    5c18:	85 c9                	test   %ecx,%ecx
    5c1a:	74 0e                	je     5c2a <inet_reass_queue_packet+0x42a>
    5c1c:	8b 57 04             	mov    0x4(%edi),%edx
    5c1f:	85 d2                	test   %edx,%edx
    5c21:	74 07                	je     5c2a <inet_reass_queue_packet+0x42a>
    5c23:	89 0a                	mov    %ecx,(%edx)
    5c25:	8b 0f                	mov    (%edi),%ecx
    5c27:	89 51 04             	mov    %edx,0x4(%ecx)
    5c2a:	83 ec 0c             	sub    $0xc,%esp
    5c2d:	8b 47 44             	mov    0x44(%edi),%eax
    5c30:	c7 07 00 00 00 00    	movl   $0x0,(%edi)
    5c36:	c7 47 04 00 00 00 00 	movl   $0x0,0x4(%edi)
    5c3d:	50                   	push   %eax
    5c3e:	e8 5d 18 00 00       	call   74a0 <free@plt>
    5c43:	89 3c 24             	mov    %edi,(%esp)
    5c46:	e8 55 18 00 00       	call   74a0 <free@plt>
    5c4b:	8b 7e 0c             	mov    0xc(%esi),%edi
    5c4e:	83 c4 10             	add    $0x10,%esp
    5c51:	39 df                	cmp    %ebx,%edi
    5c53:	75 c1                	jne    5c16 <inet_reass_queue_packet+0x416>
    5c55:	8b 75 a0             	mov    -0x60(%ebp),%esi
    5c58:	83 ec 0c             	sub    $0xc,%esp
    5c5b:	8b 55 a4             	mov    -0x5c(%ebp),%edx
    5c5e:	52                   	push   %edx
    5c5f:	e8 3c 18 00 00       	call   74a0 <free@plt>
    5c64:	83 c4 10             	add    $0x10,%esp
    5c67:	8d 65 f4             	lea    -0xc(%ebp),%esp
    5c6a:	89 f0                	mov    %esi,%eax
    5c6c:	5b                   	pop    %ebx
    5c6d:	5e                   	pop    %esi
    5c6e:	5f                   	pop    %edi
    5c6f:	5d                   	pop    %ebp
    5c70:	c3                   	ret    
    5c71:	51                   	push   %ecx
    5c72:	68 85 00 00 00       	push   $0x85
    5c77:	68 74 6c 00 00       	push   $0x6c74
    5c7c:	68 7c 6c 00 00       	push   $0x6c7c
    5c81:	e8 aa 15 00 00       	call   7230 <assert_abort@plt>
    5c86:	be fd ff ff ff       	mov    $0xfffffffd,%esi
    5c8b:	89 75 a0             	mov    %esi,-0x60(%ebp)
    5c8e:	8b 75 a4             	mov    -0x5c(%ebp),%esi
    5c91:	eb 83                	jmp    5c16 <inet_reass_queue_packet+0x416>
    5c93:	83 ec 0c             	sub    $0xc,%esp
    5c96:	be fe ff ff ff       	mov    $0xfffffffe,%esi
    5c9b:	52                   	push   %edx
    5c9c:	e8 ff 17 00 00       	call   74a0 <free@plt>
    5ca1:	83 c4 10             	add    $0x10,%esp
    5ca4:	e9 ca fd ff ff       	jmp    5a73 <inet_reass_queue_packet+0x273>
    5ca9:	53                   	push   %ebx
    5caa:	68 81 00 00 00       	push   $0x81
    5caf:	68 74 6c 00 00       	push   $0x6c74
    5cb4:	68 b4 6c 00 00       	push   $0x6cb4
    5cb9:	e8 72 15 00 00       	call   7230 <assert_abort@plt>
    5cbe:	50                   	push   %eax
    5cbf:	68 f7 00 00 00       	push   $0xf7
    5cc4:	68 74 6c 00 00       	push   $0x6c74
    5cc9:	68 7f 6c 00 00       	push   $0x6c7f
    5cce:	e8 5d 15 00 00       	call   7230 <assert_abort@plt>
    5cd3:	50                   	push   %eax
    5cd4:	68 f4 00 00 00       	push   $0xf4
    5cd9:	68 74 6c 00 00       	push   $0x6c74
    5cde:	68 8c 6c 00 00       	push   $0x6c8c
    5ce3:	e8 48 15 00 00       	call   7230 <assert_abort@plt>
    5ce8:	50                   	push   %eax
    5ce9:	68 bc 00 00 00       	push   $0xbc
    5cee:	68 74 6c 00 00       	push   $0x6c74
    5cf3:	68 b4 6c 00 00       	push   $0x6cb4
    5cf8:	e8 33 15 00 00       	call   7230 <assert_abort@plt>
    5cfd:	56                   	push   %esi
    5cfe:	68 1c 01 00 00       	push   $0x11c
    5d03:	68 74 6c 00 00       	push   $0x6c74
    5d08:	68 b4 6c 00 00       	push   $0x6cb4
    5d0d:	e8 1e 15 00 00       	call   7230 <assert_abort@plt>
    5d12:	50                   	push   %eax
    5d13:	68 f3 00 00 00       	push   $0xf3
    5d18:	68 74 6c 00 00       	push   $0x6c74
    5d1d:	68 b4 6c 00 00       	push   $0x6cb4
    5d22:	e8 09 15 00 00       	call   7230 <assert_abort@plt>
    5d27:	83 ec 0c             	sub    $0xc,%esp
    5d2a:	be fe ff ff ff       	mov    $0xfffffffe,%esi
    5d2f:	68 1c 92 00 00       	push   $0x921c
    5d34:	e8 67 15 00 00       	call   72a0 <fibril_mutex_unlock@plt>
    5d39:	83 c4 0c             	add    $0xc,%esp
    5d3c:	68 e4 6c 00 00       	push   $0x6ce4
    5d41:	6a 04                	push   $0x4
    5d43:	6a ff                	push   $0xffffffff
    5d45:	e8 96 14 00 00       	call   71e0 <log_msg@plt>
    5d4a:	83 c4 10             	add    $0x10,%esp
    5d4d:	e9 21 fd ff ff       	jmp    5a73 <inet_reass_queue_packet+0x273>
    5d52:	8b 45 a4             	mov    -0x5c(%ebp),%eax
    5d55:	be fe ff ff ff       	mov    $0xfffffffe,%esi
    5d5a:	8b 78 0c             	mov    0xc(%eax),%edi
    5d5d:	e9 aa fe ff ff       	jmp    5c0c <inet_reass_queue_packet+0x40c>
    5d62:	66 90                	xchg   %ax,%ax
    5d64:	66 90                	xchg   %ax,%ax
    5d66:	66 90                	xchg   %ax,%ax
    5d68:	66 90                	xchg   %ax,%ax
    5d6a:	66 90                	xchg   %ax,%ax
    5d6c:	66 90                	xchg   %ax,%ax
    5d6e:	66 90                	xchg   %ax,%ax

00005d70 <inet_sroute_new>:
    5d70:	55                   	push   %ebp
    5d71:	89 e5                	mov    %esp,%ebp
    5d73:	53                   	push   %ebx
    5d74:	83 ec 0c             	sub    $0xc,%esp
    5d77:	6a 3c                	push   $0x3c
    5d79:	6a 01                	push   $0x1
    5d7b:	e8 c0 14 00 00       	call   7240 <calloc@plt>
    5d80:	83 c4 10             	add    $0x10,%esp
    5d83:	89 c3                	mov    %eax,%ebx
    5d85:	85 c0                	test   %eax,%eax
    5d87:	74 3f                	je     5dc8 <inet_sroute_new+0x58>
    5d89:	83 ec 0c             	sub    $0xc,%esp
    5d8c:	c7 00 00 00 00 00    	movl   $0x0,(%eax)
    5d92:	c7 40 04 00 00 00 00 	movl   $0x0,0x4(%eax)
    5d99:	68 3c 92 00 00       	push   $0x923c
    5d9e:	e8 0d 17 00 00       	call   74b0 <fibril_mutex_lock@plt>
    5da3:	a1 80 93 00 00       	mov    0x9380,%eax
    5da8:	c7 04 24 3c 92 00 00 	movl   $0x923c,(%esp)
    5daf:	40                   	inc    %eax
    5db0:	a3 80 93 00 00       	mov    %eax,0x9380
    5db5:	89 43 08             	mov    %eax,0x8(%ebx)
    5db8:	e8 e3 14 00 00       	call   72a0 <fibril_mutex_unlock@plt>
    5dbd:	83 c4 10             	add    $0x10,%esp
    5dc0:	89 d8                	mov    %ebx,%eax
    5dc2:	8b 5d fc             	mov    -0x4(%ebp),%ebx
    5dc5:	c9                   	leave  
    5dc6:	c3                   	ret    
    5dc7:	90                   	nop
    5dc8:	50                   	push   %eax
    5dc9:	68 08 6d 00 00       	push   $0x6d08
    5dce:	6a 01                	push   $0x1
    5dd0:	6a ff                	push   $0xffffffff
    5dd2:	e8 09 14 00 00       	call   71e0 <log_msg@plt>
    5dd7:	83 c4 10             	add    $0x10,%esp
    5dda:	eb e4                	jmp    5dc0 <inet_sroute_new+0x50>
    5ddc:	8d 74 26 00          	lea    0x0(%esi,%eiz,1),%esi

00005de0 <inet_sroute_delete>:
    5de0:	55                   	push   %ebp
    5de1:	89 e5                	mov    %esp,%ebp
    5de3:	53                   	push   %ebx
    5de4:	50                   	push   %eax
    5de5:	8b 5d 08             	mov    0x8(%ebp),%ebx
    5de8:	8b 43 38             	mov    0x38(%ebx),%eax
    5deb:	85 c0                	test   %eax,%eax
    5ded:	74 0c                	je     5dfb <inet_sroute_delete+0x1b>
    5def:	83 ec 0c             	sub    $0xc,%esp
    5df2:	50                   	push   %eax
    5df3:	e8 a8 16 00 00       	call   74a0 <free@plt>
    5df8:	83 c4 10             	add    $0x10,%esp
    5dfb:	89 5d 08             	mov    %ebx,0x8(%ebp)
    5dfe:	8b 5d fc             	mov    -0x4(%ebp),%ebx
    5e01:	c9                   	leave  
    5e02:	e9 99 16 00 00       	jmp    74a0 <free@plt>
    5e07:	89 f6                	mov    %esi,%esi
    5e09:	8d bc 27 00 00 00 00 	lea    0x0(%edi,%eiz,1),%edi

00005e10 <inet_sroute_add>:
    5e10:	55                   	push   %ebp
    5e11:	89 e5                	mov    %esp,%ebp
    5e13:	53                   	push   %ebx
    5e14:	83 ec 10             	sub    $0x10,%esp
    5e17:	8b 5d 08             	mov    0x8(%ebp),%ebx
    5e1a:	68 3c 92 00 00       	push   $0x923c
    5e1f:	e8 8c 16 00 00       	call   74b0 <fibril_mutex_lock@plt>
    5e24:	a1 34 92 00 00       	mov    0x9234,%eax
    5e29:	c7 43 04 34 92 00 00 	movl   $0x9234,0x4(%ebx)
    5e30:	89 03                	mov    %eax,(%ebx)
    5e32:	83 c4 10             	add    $0x10,%esp
    5e35:	a1 34 92 00 00       	mov    0x9234,%eax
    5e3a:	89 1d 34 92 00 00    	mov    %ebx,0x9234
    5e40:	89 58 04             	mov    %ebx,0x4(%eax)
    5e43:	8b 5d fc             	mov    -0x4(%ebp),%ebx
    5e46:	c7 45 08 3c 92 00 00 	movl   $0x923c,0x8(%ebp)
    5e4d:	c9                   	leave  
    5e4e:	e9 4d 14 00 00       	jmp    72a0 <fibril_mutex_unlock@plt>
    5e53:	8d b6 00 00 00 00    	lea    0x0(%esi),%esi
    5e59:	8d bc 27 00 00 00 00 	lea    0x0(%edi,%eiz,1),%edi

00005e60 <inet_sroute_remove>:
    5e60:	55                   	push   %ebp
    5e61:	89 e5                	mov    %esp,%ebp
    5e63:	53                   	push   %ebx
    5e64:	83 ec 10             	sub    $0x10,%esp
    5e67:	8b 5d 08             	mov    0x8(%ebp),%ebx
    5e6a:	68 3c 92 00 00       	push   $0x923c
    5e6f:	e8 3c 16 00 00       	call   74b0 <fibril_mutex_lock@plt>
    5e74:	8b 13                	mov    (%ebx),%edx
    5e76:	83 c4 10             	add    $0x10,%esp
    5e79:	85 d2                	test   %edx,%edx
    5e7b:	74 0e                	je     5e8b <inet_sroute_remove+0x2b>
    5e7d:	8b 43 04             	mov    0x4(%ebx),%eax
    5e80:	85 c0                	test   %eax,%eax
    5e82:	74 07                	je     5e8b <inet_sroute_remove+0x2b>
    5e84:	89 10                	mov    %edx,(%eax)
    5e86:	8b 13                	mov    (%ebx),%edx
    5e88:	89 42 04             	mov    %eax,0x4(%edx)
    5e8b:	c7 03 00 00 00 00    	movl   $0x0,(%ebx)
    5e91:	c7 43 04 00 00 00 00 	movl   $0x0,0x4(%ebx)
    5e98:	8b 5d fc             	mov    -0x4(%ebp),%ebx
    5e9b:	c7 45 08 3c 92 00 00 	movl   $0x923c,0x8(%ebp)
    5ea2:	c9                   	leave  
    5ea3:	e9 f8 13 00 00       	jmp    72a0 <fibril_mutex_unlock@plt>
    5ea8:	90                   	nop
    5ea9:	8d b4 26 00 00 00 00 	lea    0x0(%esi,%eiz,1),%esi

00005eb0 <inet_sroute_find>:
    5eb0:	55                   	push   %ebp
    5eb1:	89 e5                	mov    %esp,%ebp
    5eb3:	57                   	push   %edi
    5eb4:	56                   	push   %esi
    5eb5:	53                   	push   %ebx
    5eb6:	83 ec 30             	sub    $0x30,%esp
    5eb9:	8b 45 08             	mov    0x8(%ebp),%eax
    5ebc:	6a 00                	push   $0x0
    5ebe:	6a 00                	push   $0x0
    5ec0:	50                   	push   %eax
    5ec1:	e8 2a 14 00 00       	call   72f0 <inet_addr_get@plt>
    5ec6:	c7 04 24 3c 92 00 00 	movl   $0x923c,(%esp)
    5ecd:	89 45 d4             	mov    %eax,-0x2c(%ebp)
    5ed0:	e8 db 15 00 00       	call   74b0 <fibril_mutex_lock@plt>
    5ed5:	8b 3d 38 92 00 00    	mov    0x9238,%edi
    5edb:	83 c4 10             	add    $0x10,%esp
    5ede:	81 ff 34 92 00 00    	cmp    $0x9234,%edi
    5ee4:	0f 84 a5 00 00 00    	je     5f8f <inet_sroute_find+0xdf>
    5eea:	c6 45 cf 00          	movb   $0x0,-0x31(%ebp)
    5eee:	c7 45 d0 00 00 00 00 	movl   $0x0,-0x30(%ebp)
    5ef5:	8d 5d e7             	lea    -0x19(%ebp),%ebx
    5ef8:	eb 11                	jmp    5f0b <inet_sroute_find+0x5b>
    5efa:	8d b6 00 00 00 00    	lea    0x0(%esi),%esi
    5f00:	8b 7f 04             	mov    0x4(%edi),%edi
    5f03:	81 ff 34 92 00 00    	cmp    $0x9234,%edi
    5f09:	74 65                	je     5f70 <inet_sroute_find+0xc0>
    5f0b:	8d 77 0c             	lea    0xc(%edi),%esi
    5f0e:	53                   	push   %ebx
    5f0f:	6a 00                	push   $0x0
    5f11:	6a 00                	push   $0x0
    5f13:	56                   	push   %esi
    5f14:	e8 07 14 00 00       	call   7320 <inet_naddr_get@plt>
    5f19:	83 c4 10             	add    $0x10,%esp
    5f1c:	39 45 d4             	cmp    %eax,-0x2c(%ebp)
    5f1f:	75 df                	jne    5f00 <inet_sroute_find+0x50>
    5f21:	8b 45 d0             	mov    -0x30(%ebp),%eax
    5f24:	85 c0                	test   %eax,%eax
    5f26:	74 08                	je     5f30 <inet_sroute_find+0x80>
    5f28:	8a 45 cf             	mov    -0x31(%ebp),%al
    5f2b:	38 45 e7             	cmp    %al,-0x19(%ebp)
    5f2e:	76 d0                	jbe    5f00 <inet_sroute_find+0x50>
    5f30:	8b 45 08             	mov    0x8(%ebp),%eax
    5f33:	51                   	push   %ecx
    5f34:	51                   	push   %ecx
    5f35:	50                   	push   %eax
    5f36:	56                   	push   %esi
    5f37:	e8 04 12 00 00       	call   7140 <inet_naddr_compare_mask@plt>
    5f3c:	83 c4 10             	add    $0x10,%esp
    5f3f:	85 c0                	test   %eax,%eax
    5f41:	74 bd                	je     5f00 <inet_sroute_find+0x50>
    5f43:	57                   	push   %edi
    5f44:	68 40 6d 00 00       	push   $0x6d40
    5f49:	6a 04                	push   $0x4
    5f4b:	6a ff                	push   $0xffffffff
    5f4d:	e8 8e 12 00 00       	call   71e0 <log_msg@plt>
    5f52:	8a 45 e7             	mov    -0x19(%ebp),%al
    5f55:	89 7d d0             	mov    %edi,-0x30(%ebp)
    5f58:	8b 7f 04             	mov    0x4(%edi),%edi
    5f5b:	83 c4 10             	add    $0x10,%esp
    5f5e:	88 45 cf             	mov    %al,-0x31(%ebp)
    5f61:	81 ff 34 92 00 00    	cmp    $0x9234,%edi
    5f67:	75 a2                	jne    5f0b <inet_sroute_find+0x5b>
    5f69:	8d b4 26 00 00 00 00 	lea    0x0(%esi,%eiz,1),%esi
    5f70:	8b 55 d0             	mov    -0x30(%ebp),%edx
    5f73:	85 d2                	test   %edx,%edx
    5f75:	74 18                	je     5f8f <inet_sroute_find+0xdf>
    5f77:	83 ec 0c             	sub    $0xc,%esp
    5f7a:	68 3c 92 00 00       	push   $0x923c
    5f7f:	e8 1c 13 00 00       	call   72a0 <fibril_mutex_unlock@plt>
    5f84:	8b 45 d0             	mov    -0x30(%ebp),%eax
    5f87:	8d 65 f4             	lea    -0xc(%ebp),%esp
    5f8a:	5b                   	pop    %ebx
    5f8b:	5e                   	pop    %esi
    5f8c:	5f                   	pop    %edi
    5f8d:	5d                   	pop    %ebp
    5f8e:	c3                   	ret    
    5f8f:	50                   	push   %eax
    5f90:	68 d0 6d 00 00       	push   $0x6dd0
    5f95:	6a 04                	push   $0x4
    5f97:	6a ff                	push   $0xffffffff
    5f99:	e8 42 12 00 00       	call   71e0 <log_msg@plt>
    5f9e:	83 c4 10             	add    $0x10,%esp
    5fa1:	c7 45 d0 00 00 00 00 	movl   $0x0,-0x30(%ebp)
    5fa8:	eb cd                	jmp    5f77 <inet_sroute_find+0xc7>
    5faa:	8d b6 00 00 00 00    	lea    0x0(%esi),%esi

00005fb0 <inet_sroute_find_by_name>:
    5fb0:	55                   	push   %ebp
    5fb1:	89 e5                	mov    %esp,%ebp
    5fb3:	56                   	push   %esi
    5fb4:	53                   	push   %ebx
    5fb5:	8b 75 08             	mov    0x8(%ebp),%esi
    5fb8:	56                   	push   %esi
    5fb9:	68 68 6d 00 00       	push   $0x6d68
    5fbe:	6a 04                	push   $0x4
    5fc0:	6a ff                	push   $0xffffffff
    5fc2:	e8 19 12 00 00       	call   71e0 <log_msg@plt>
    5fc7:	c7 04 24 3c 92 00 00 	movl   $0x923c,(%esp)
    5fce:	e8 dd 14 00 00       	call   74b0 <fibril_mutex_lock@plt>
    5fd3:	8b 1d 38 92 00 00    	mov    0x9238,%ebx
    5fd9:	83 c4 10             	add    $0x10,%esp
    5fdc:	81 fb 34 92 00 00    	cmp    $0x9234,%ebx
    5fe2:	75 0f                	jne    5ff3 <inet_sroute_find_by_name+0x43>
    5fe4:	eb 4a                	jmp    6030 <inet_sroute_find_by_name+0x80>
    5fe6:	66 90                	xchg   %ax,%ax
    5fe8:	8b 5b 04             	mov    0x4(%ebx),%ebx
    5feb:	81 fb 34 92 00 00    	cmp    $0x9234,%ebx
    5ff1:	74 3d                	je     6030 <inet_sroute_find_by_name+0x80>
    5ff3:	50                   	push   %eax
    5ff4:	50                   	push   %eax
    5ff5:	56                   	push   %esi
    5ff6:	8b 53 38             	mov    0x38(%ebx),%edx
    5ff9:	52                   	push   %edx
    5ffa:	e8 d1 12 00 00       	call   72d0 <str_cmp@plt>
    5fff:	83 c4 10             	add    $0x10,%esp
    6002:	85 c0                	test   %eax,%eax
    6004:	75 e2                	jne    5fe8 <inet_sroute_find_by_name+0x38>
    6006:	83 ec 0c             	sub    $0xc,%esp
    6009:	68 3c 92 00 00       	push   $0x923c
    600e:	e8 8d 12 00 00       	call   72a0 <fibril_mutex_unlock@plt>
    6013:	53                   	push   %ebx
    6014:	68 ac 6d 00 00       	push   $0x6dac
    6019:	6a 04                	push   $0x4
    601b:	6a ff                	push   $0xffffffff
    601d:	e8 be 11 00 00       	call   71e0 <log_msg@plt>
    6022:	83 c4 20             	add    $0x20,%esp
    6025:	8d 65 f8             	lea    -0x8(%ebp),%esp
    6028:	89 d8                	mov    %ebx,%eax
    602a:	5b                   	pop    %ebx
    602b:	5e                   	pop    %esi
    602c:	5d                   	pop    %ebp
    602d:	c3                   	ret    
    602e:	66 90                	xchg   %ax,%ax
    6030:	51                   	push   %ecx
    6031:	68 88 6d 00 00       	push   $0x6d88
    6036:	6a 04                	push   $0x4
    6038:	6a ff                	push   $0xffffffff
    603a:	e8 a1 11 00 00       	call   71e0 <log_msg@plt>
    603f:	c7 04 24 3c 92 00 00 	movl   $0x923c,(%esp)
    6046:	e8 55 12 00 00       	call   72a0 <fibril_mutex_unlock@plt>
    604b:	83 c4 10             	add    $0x10,%esp
    604e:	8d 65 f8             	lea    -0x8(%ebp),%esp
    6051:	31 c0                	xor    %eax,%eax
    6053:	5b                   	pop    %ebx
    6054:	5e                   	pop    %esi
    6055:	5d                   	pop    %ebp
    6056:	c3                   	ret    
    6057:	89 f6                	mov    %esi,%esi
    6059:	8d bc 27 00 00 00 00 	lea    0x0(%edi,%eiz,1),%edi

00006060 <inet_sroute_get_by_id>:
    6060:	55                   	push   %ebp
    6061:	89 e5                	mov    %esp,%ebp
    6063:	56                   	push   %esi
    6064:	53                   	push   %ebx
    6065:	8b 75 08             	mov    0x8(%ebp),%esi
    6068:	56                   	push   %esi
    6069:	68 ec 6d 00 00       	push   $0x6dec
    606e:	6a 04                	push   $0x4
    6070:	6a ff                	push   $0xffffffff
    6072:	e8 69 11 00 00       	call   71e0 <log_msg@plt>
    6077:	c7 04 24 3c 92 00 00 	movl   $0x923c,(%esp)
    607e:	e8 2d 14 00 00       	call   74b0 <fibril_mutex_lock@plt>
    6083:	8b 1d 38 92 00 00    	mov    0x9238,%ebx
    6089:	83 c4 10             	add    $0x10,%esp
    608c:	81 fb 34 92 00 00    	cmp    $0x9234,%ebx
    6092:	75 0f                	jne    60a3 <inet_sroute_get_by_id+0x43>
    6094:	eb 32                	jmp    60c8 <inet_sroute_get_by_id+0x68>
    6096:	66 90                	xchg   %ax,%ax
    6098:	8b 5b 04             	mov    0x4(%ebx),%ebx
    609b:	81 fb 34 92 00 00    	cmp    $0x9234,%ebx
    60a1:	74 25                	je     60c8 <inet_sroute_get_by_id+0x68>
    60a3:	3b 73 08             	cmp    0x8(%ebx),%esi
    60a6:	75 f0                	jne    6098 <inet_sroute_get_by_id+0x38>
    60a8:	83 ec 0c             	sub    $0xc,%esp
    60ab:	68 3c 92 00 00       	push   $0x923c
    60b0:	e8 eb 11 00 00       	call   72a0 <fibril_mutex_unlock@plt>
    60b5:	83 c4 10             	add    $0x10,%esp
    60b8:	8d 65 f8             	lea    -0x8(%ebp),%esp
    60bb:	89 d8                	mov    %ebx,%eax
    60bd:	5b                   	pop    %ebx
    60be:	5e                   	pop    %esi
    60bf:	5d                   	pop    %ebp
    60c0:	c3                   	ret    
    60c1:	8d b4 26 00 00 00 00 	lea    0x0(%esi,%eiz,1),%esi
    60c8:	83 ec 0c             	sub    $0xc,%esp
    60cb:	68 3c 92 00 00       	push   $0x923c
    60d0:	e8 cb 11 00 00       	call   72a0 <fibril_mutex_unlock@plt>
    60d5:	83 c4 10             	add    $0x10,%esp
    60d8:	8d 65 f8             	lea    -0x8(%ebp),%esp
    60db:	31 c0                	xor    %eax,%eax
    60dd:	5b                   	pop    %ebx
    60de:	5e                   	pop    %esi
    60df:	5d                   	pop    %ebp
    60e0:	c3                   	ret    
    60e1:	eb 0d                	jmp    60f0 <inet_sroute_get_id_list>
    60e3:	90                   	nop
    60e4:	90                   	nop
    60e5:	90                   	nop
    60e6:	90                   	nop
    60e7:	90                   	nop
    60e8:	90                   	nop
    60e9:	90                   	nop
    60ea:	90                   	nop
    60eb:	90                   	nop
    60ec:	90                   	nop
    60ed:	90                   	nop
    60ee:	90                   	nop
    60ef:	90                   	nop

000060f0 <inet_sroute_get_id_list>:
    60f0:	55                   	push   %ebp
    60f1:	89 e5                	mov    %esp,%ebp
    60f3:	56                   	push   %esi
    60f4:	53                   	push   %ebx
    60f5:	83 ec 0c             	sub    $0xc,%esp
    60f8:	68 3c 92 00 00       	push   $0x923c
    60fd:	e8 ae 13 00 00       	call   74b0 <fibril_mutex_lock@plt>
    6102:	c7 04 24 34 92 00 00 	movl   $0x9234,(%esp)
    6109:	e8 92 12 00 00       	call   73a0 <list_count@plt>
    610e:	5a                   	pop    %edx
    610f:	89 c6                	mov    %eax,%esi
    6111:	59                   	pop    %ecx
    6112:	6a 04                	push   $0x4
    6114:	50                   	push   %eax
    6115:	e8 26 11 00 00       	call   7240 <calloc@plt>
    611a:	83 c4 10             	add    $0x10,%esp
    611d:	85 c0                	test   %eax,%eax
    611f:	74 4c                	je     616d <inet_sroute_get_id_list+0x7d>
    6121:	89 c3                	mov    %eax,%ebx
    6123:	a1 38 92 00 00       	mov    0x9238,%eax
    6128:	3d 34 92 00 00       	cmp    $0x9234,%eax
    612d:	74 1b                	je     614a <inet_sroute_get_id_list+0x5a>
    612f:	89 da                	mov    %ebx,%edx
    6131:	8d b4 26 00 00 00 00 	lea    0x0(%esi,%eiz,1),%esi
    6138:	8b 48 08             	mov    0x8(%eax),%ecx
    613b:	8b 40 04             	mov    0x4(%eax),%eax
    613e:	89 0a                	mov    %ecx,(%edx)
    6140:	83 c2 04             	add    $0x4,%edx
    6143:	3d 34 92 00 00       	cmp    $0x9234,%eax
    6148:	75 ee                	jne    6138 <inet_sroute_get_id_list+0x48>
    614a:	83 ec 0c             	sub    $0xc,%esp
    614d:	68 3c 92 00 00       	push   $0x923c
    6152:	e8 49 11 00 00       	call   72a0 <fibril_mutex_unlock@plt>
    6157:	8b 45 08             	mov    0x8(%ebp),%eax
    615a:	83 c4 10             	add    $0x10,%esp
    615d:	89 18                	mov    %ebx,(%eax)
    615f:	8b 45 0c             	mov    0xc(%ebp),%eax
    6162:	89 30                	mov    %esi,(%eax)
    6164:	31 c0                	xor    %eax,%eax
    6166:	8d 65 f8             	lea    -0x8(%ebp),%esp
    6169:	5b                   	pop    %ebx
    616a:	5e                   	pop    %esi
    616b:	5d                   	pop    %ebp
    616c:	c3                   	ret    
    616d:	83 ec 0c             	sub    $0xc,%esp
    6170:	68 3c 92 00 00       	push   $0x923c
    6175:	e8 26 11 00 00       	call   72a0 <fibril_mutex_unlock@plt>
    617a:	83 c4 10             	add    $0x10,%esp
    617d:	b8 fe ff ff ff       	mov    $0xfffffffe,%eax
    6182:	eb e2                	jmp    6166 <inet_sroute_get_id_list+0x76>
    6184:	46                   	inc    %esi
    6185:	61                   	popa   
    6186:	69 6c 65 64 20 61 6c 	imul   $0x6c6c6120,0x64(%ebp,%eiz,2),%ebp
    618d:	6c 
    618e:	6f                   	outsl  %ds:(%esi),(%dx)
    618f:	63 61 74             	arpl   %sp,0x74(%ecx)
    6192:	69 6e 67 20 61 64 64 	imul   $0x64646120,0x67(%esi),%ebp
    6199:	72 65                	jb     6200 <inet_sroute_get_id_list+0x110>
    619b:	73 73                	jae    6210 <inet_sroute_get_id_list+0x120>
    619d:	20 6f 62             	and    %ch,0x62(%edi)
    61a0:	6a 65                	push   $0x65
    61a2:	63 74 2e 20          	arpl   %si,0x20(%esi,%ebp,1)
    61a6:	4f                   	dec    %edi
    61a7:	75 74                	jne    621d <inet_sroute_get_id_list+0x12d>
    61a9:	20 6f 66             	and    %ch,0x66(%edi)
    61ac:	20 6d 65             	and    %ch,0x65(%ebp)
    61af:	6d                   	insl   (%dx),%es:(%edi)
    61b0:	6f                   	outsl  %ds:(%esi),(%dx)
    61b1:	72 79                	jb     622c <inet_sroute_get_id_list+0x13c>
    61b3:	2e 00 00             	add    %al,%cs:(%eax)
    61b6:	00 00                	add    %al,(%eax)
    61b8:	66 69 62 72 69 6c    	imul   $0x6c69,0x72(%edx),%sp
    61be:	5f                   	pop    %edi
    61bf:	6d                   	insl   (%dx),%es:(%edi)
    61c0:	75 74                	jne    6236 <inet_sroute_get_id_list+0x146>
    61c2:	65 78 5f             	gs js  6224 <inet_sroute_get_id_list+0x134>
    61c5:	69 73 5f 6c 6f 63 6b 	imul   $0x6b636f6c,0x5f(%ebx),%esi
    61cc:	65 64 28 26          	gs sub %ah,%fs:(%esi)
    61d0:	61                   	popa   
    61d1:	64 64 72 5f          	fs fs jb 6234 <inet_sroute_get_id_list+0x144>
    61d5:	6c                   	insb   (%dx),%es:(%edi)
    61d6:	69 73 74 5f 6c 6f 63 	imul   $0x636f6c5f,0x74(%ebx),%esi
    61dd:	6b 29 00             	imul   $0x0,(%ecx),%ebp
    61e0:	69 6e 65 74 5f 61 64 	imul   $0x64615f74,0x65(%esi),%ebp
    61e7:	64 72 6f             	fs jb  6259 <inet_sroute_get_id_list+0x169>
    61ea:	62 6a 5f             	bound  %ebp,0x5f(%edx)
    61ed:	66 69 6e 64 5f 62    	imul   $0x625f,0x64(%esi),%bp
    61f3:	79 5f                	jns    6254 <inet_sroute_get_id_list+0x164>
    61f5:	6e                   	outsb  %ds:(%esi),(%dx)
    61f6:	61                   	popa   
    61f7:	6d                   	insl   (%dx),%es:(%edi)
    61f8:	65 5f                	gs pop %edi
    61fa:	6c                   	insb   (%dx),%es:(%edi)
    61fb:	6f                   	outsl  %ds:(%esi),(%dx)
    61fc:	63 6b 65             	arpl   %bp,0x65(%ebx)
    61ff:	64 28 27             	sub    %ah,%fs:(%edi)
    6202:	25 73 27 2c 20       	and    $0x202c2773,%eax
    6207:	27                   	daa    
    6208:	25 73 27 29 00       	and    $0x292773,%eax
    620d:	00 00                	add    %al,(%eax)
    620f:	00 69 6e             	add    %ch,0x6e(%ecx)
    6212:	65 74 5f             	gs je  6274 <inet_sroute_get_id_list+0x184>
    6215:	61                   	popa   
    6216:	64 64 72 6f          	fs fs jb 6289 <inet_sroute_get_id_list+0x199>
    621a:	62 6a 5f             	bound  %ebp,0x5f(%edx)
    621d:	66 69 6e 64 5f 62    	imul   $0x625f,0x64(%esi),%bp
    6223:	79 5f                	jns    6284 <inet_sroute_get_id_list+0x194>
    6225:	6e                   	outsb  %ds:(%esi),(%dx)
    6226:	61                   	popa   
    6227:	6d                   	insl   (%dx),%es:(%edi)
    6228:	65 5f                	gs pop %edi
    622a:	6c                   	insb   (%dx),%es:(%edi)
    622b:	6f                   	outsl  %ds:(%esi),(%dx)
    622c:	63 6b 65             	arpl   %bp,0x65(%ebx)
    622f:	64 3a 20             	cmp    %fs:(%eax),%ah
    6232:	4e                   	dec    %esi
    6233:	6f                   	outsl  %ds:(%esi),(%dx)
    6234:	74 20                	je     6256 <inet_sroute_get_id_list+0x166>
    6236:	66 6f                	outsw  %ds:(%esi),(%dx)
    6238:	75 6e                	jne    62a8 <inet_sroute_get_id_list+0x1b8>
    623a:	64 00 69 6e          	add    %ch,%fs:0x6e(%ecx)
    623e:	65 74 5f             	gs je  62a0 <inet_sroute_get_id_list+0x1b0>
    6241:	61                   	popa   
    6242:	64 64 72 6f          	fs fs jb 62b5 <inet_sroute_get_id_list+0x1c5>
    6246:	62 6a 5f             	bound  %ebp,0x5f(%edx)
    6249:	66 69 6e 64 5f 62    	imul   $0x625f,0x64(%esi),%bp
    624f:	79 5f                	jns    62b0 <inet_sroute_get_id_list+0x1c0>
    6251:	6e                   	outsb  %ds:(%esi),(%dx)
    6252:	61                   	popa   
    6253:	6d                   	insl   (%dx),%es:(%edi)
    6254:	65 5f                	gs pop %edi
    6256:	6c                   	insb   (%dx),%es:(%edi)
    6257:	6f                   	outsl  %ds:(%esi),(%dx)
    6258:	63 6b 65             	arpl   %bp,0x65(%ebx)
    625b:	64 3a 20             	cmp    %fs:(%eax),%ah
    625e:	66 6f                	outsw  %ds:(%esi),(%dx)
    6260:	75 6e                	jne    62d0 <inet_sroute_get_id_list+0x1e0>
    6262:	64 20 25 70 00 00 69 	and    %ah,%fs:0x69000070
    6269:	6e                   	outsb  %ds:(%esi),(%dx)
    626a:	65 74 5f             	gs je  62cc <inet_sroute_get_id_list+0x1dc>
    626d:	61                   	popa   
    626e:	64 64 72 6f          	fs fs jb 62e1 <inet_sroute_get_id_list+0x1f1>
    6272:	62 6a 5f             	bound  %ebp,0x5f(%edx)
    6275:	66 69 6e 64 5f 62    	imul   $0x625f,0x64(%esi),%bp
    627b:	79 5f                	jns    62dc <inet_sroute_get_id_list+0x1ec>
    627d:	6e                   	outsb  %ds:(%esi),(%dx)
    627e:	61                   	popa   
    627f:	6d                   	insl   (%dx),%es:(%edi)
    6280:	65 28 27             	sub    %ah,%gs:(%edi)
    6283:	25 73 27 2c 20       	and    $0x202c2773,%eax
    6288:	27                   	daa    
    6289:	25 73 27 29 00       	and    $0x292773,%eax
    628e:	61                   	popa   
    628f:	64 64 72 6f          	fs fs jb 6302 <inet_sroute_get_id_list+0x212>
    6293:	62 6a 2e             	bound  %ebp,0x2e(%edx)
    6296:	63 00                	arpl   %ax,(%eax)
    6298:	69 6e 65 74 5f 61 64 	imul   $0x64615f74,0x65(%esi),%ebp
    629f:	64 72 6f             	fs jb  6311 <inet_sroute_get_id_list+0x221>
    62a2:	62 6a 5f             	bound  %ebp,0x5f(%edx)
    62a5:	66 69 6e 64 3a 20    	imul   $0x203a,0x64(%esi),%bp
    62ab:	4e                   	dec    %esi
    62ac:	6f                   	outsl  %ds:(%esi),(%dx)
    62ad:	74 20                	je     62cf <inet_sroute_get_id_list+0x1df>
    62af:	66 6f                	outsw  %ds:(%esi),(%dx)
    62b1:	75 6e                	jne    6321 <inet_sroute_get_id_list+0x231>
    62b3:	64 00 69 6e          	add    %ch,%fs:0x6e(%ecx)
    62b7:	65 74 5f             	gs je  6319 <inet_sroute_get_id_list+0x229>
    62ba:	61                   	popa   
    62bb:	64 64 72 6f          	fs fs jb 632e <inet_sroute_get_id_list+0x23e>
    62bf:	62 6a 5f             	bound  %ebp,0x5f(%edx)
    62c2:	66 69 6e 64 3a 20    	imul   $0x203a,0x64(%esi),%bp
    62c8:	66 6f                	outsw  %ds:(%esi),(%dx)
    62ca:	75 6e                	jne    633a <inet_sroute_get_id_list+0x24a>
    62cc:	64 20 25 70 00 69 6e 	and    %ah,%fs:0x6e690070
    62d3:	65 74 5f             	gs je  6335 <inet_sroute_get_id_list+0x245>
    62d6:	61                   	popa   
    62d7:	64 64 72 6f          	fs fs jb 634a <inet_sroute_get_id_list+0x25a>
    62db:	62 6a 5f             	bound  %ebp,0x5f(%edx)
    62de:	67 65 74 5f          	addr16 gs je 6341 <inet_sroute_get_id_list+0x251>
    62e2:	62 79 5f             	bound  %edi,0x5f(%ecx)
    62e5:	69 64 28 25 7a 75 29 	imul   $0x29757a,0x25(%eax,%ebp,1),%esp
    62ec:	00 
    62ed:	66 61                	popaw  
    62ef:	6c                   	insb   (%dx),%es:(%edi)
    62f0:	73 65                	jae    6357 <inet_sroute_get_id_list+0x267>
    62f2:	00 69 63             	add    %ch,0x63(%ecx)
    62f5:	6d                   	insl   (%dx),%es:(%edi)
    62f6:	70 5f                	jo     6357 <inet_sroute_get_id_list+0x267>
    62f8:	72 65                	jb     635f <inet_sroute_get_id_list+0x26f>
    62fa:	63 76 28             	arpl   %si,0x28(%esi)
    62fd:	29 00                	sub    %eax,(%eax)
    62ff:	69 63 6d 70 5f 72 65 	imul   $0x65725f70,0x6d(%ebx),%esp
    6306:	63 76 5f             	arpl   %si,0x5f(%esi)
    6309:	65 63 68 6f          	arpl   %bp,%gs:0x6f(%eax)
    630d:	5f                   	pop    %edi
    630e:	72 65                	jb     6375 <inet_sroute_get_id_list+0x285>
    6310:	71 75                	jno    6387 <inet_sroute_get_id_list+0x297>
    6312:	65 73 74             	gs jae 6389 <inet_sroute_get_id_list+0x299>
    6315:	28 29                	sub    %ch,(%ecx)
    6317:	00 69 63             	add    %ch,0x63(%ecx)
    631a:	6d                   	insl   (%dx),%es:(%edi)
    631b:	70 5f                	jo     637c <inet_sroute_get_id_list+0x28c>
    631d:	72 65                	jb     6384 <inet_sroute_get_id_list+0x294>
    631f:	63 76 5f             	arpl   %si,0x5f(%esi)
    6322:	65 63 68 6f          	arpl   %bp,%gs:0x6f(%eax)
    6326:	5f                   	pop    %edi
    6327:	72 65                	jb     638e <inet_sroute_get_id_list+0x29e>
    6329:	70 6c                	jo     6397 <inet_sroute_get_id_list+0x2a7>
    632b:	79 28                	jns    6355 <inet_sroute_get_id_list+0x265>
    632d:	29 00                	sub    %eax,(%eax)
    632f:	69 63 6d 70 76 36 5f 	imul   $0x5f367670,0x6d(%ebx),%esp
    6336:	72 65                	jb     639d <inet_sroute_get_id_list+0x2ad>
    6338:	63 76 28             	arpl   %si,0x28(%esi)
    633b:	29 00                	sub    %eax,(%eax)
    633d:	69 63 6d 70 76 36 5f 	imul   $0x5f367670,0x6d(%ebx),%esp
    6344:	72 65                	jb     63ab <inet_sroute_get_id_list+0x2bb>
    6346:	63 76 5f             	arpl   %si,0x5f(%esi)
    6349:	65 63 68 6f          	arpl   %bp,%gs:0x6f(%eax)
    634d:	5f                   	pop    %edi
    634e:	72 65                	jb     63b5 <inet_sroute_get_id_list+0x2c5>
    6350:	71 75                	jno    63c7 <inet_sroute_get_id_list+0x2d7>
    6352:	65 73 74             	gs jae 63c9 <inet_sroute_get_id_list+0x2d9>
    6355:	28 29                	sub    %ch,(%ecx)
    6357:	00 69 63             	add    %ch,0x63(%ecx)
    635a:	6d                   	insl   (%dx),%es:(%edi)
    635b:	70 76                	jo     63d3 <inet_sroute_get_id_list+0x2e3>
    635d:	36 5f                	ss pop %edi
    635f:	72 65                	jb     63c6 <inet_sroute_get_id_list+0x2d6>
    6361:	63 76 5f             	arpl   %si,0x5f(%esi)
    6364:	65 63 68 6f          	arpl   %bp,%gs:0x6f(%eax)
    6368:	5f                   	pop    %edi
    6369:	72 65                	jb     63d0 <inet_sroute_get_id_list+0x2e0>
    636b:	70 6c                	jo     63d9 <inet_sroute_get_id_list+0x2e9>
    636d:	79 28                	jns    6397 <inet_sroute_get_id_list+0x2a7>
    636f:	29 00                	sub    %eax,(%eax)
    6371:	69 63 6d 70 76 36 2e 	imul   $0x2e367670,0x6d(%ebx),%esp
    6378:	63 00                	arpl   %ax,(%eax)
    637a:	73 64                	jae    63e0 <inet_sroute_get_id_list+0x2f0>
    637c:	75 2d                	jne    63ab <inet_sroute_get_id_list+0x2bb>
    637e:	3e 73 72             	jae,pt 63f3 <inet_sroute_get_id_list+0x303>
    6381:	63 2e                	arpl   %bp,(%esi)
    6383:	76 65                	jbe    63ea <inet_sroute_get_id_list+0x2fa>
    6385:	72 73                	jb     63fa <inet_sroute_get_id_list+0x30a>
    6387:	69 6f 6e 20 3d 3d 20 	imul   $0x203d3d20,0x6e(%edi),%ebp
    638e:	69 70 5f 76 36 00 73 	imul   $0x73003676,0x5f(%eax),%esi
    6395:	64 75 2d             	fs jne 63c5 <inet_sroute_get_id_list+0x2d5>
    6398:	3e 64 65 73 74       	ds fs gs jae,pt 6411 <inet_sroute_get_id_list+0x321>
    639d:	2e 76 65             	jbe,pn 6405 <inet_sroute_get_id_list+0x315>
    63a0:	72 73                	jb     6415 <inet_sroute_get_id_list+0x325>
    63a2:	69 6f 6e 20 3d 3d 20 	imul   $0x203d3d20,0x6e(%edi),%ebp
    63a9:	69 70 5f 76 36 00 64 	imul   $0x64003676,0x5f(%eax),%esi
    63b0:	67 72 61             	addr16 jb 6414 <inet_sroute_get_id_list+0x324>
    63b3:	6d                   	insl   (%dx),%es:(%edi)
    63b4:	20 64 69 72          	and    %ah,0x72(%ecx,%ebp,2)
    63b8:	65 63 74 6c 79       	arpl   %si,%gs:0x79(%esp,%ebp,2)
    63bd:	20 74 6f 20          	and    %dh,0x20(%edi,%ebp,2)
    63c1:	69 70 6c 69 6e 6b 20 	imul   $0x206b6e69,0x6c(%eax),%esi
    63c8:	25 7a 75 00 64       	and    $0x6400757a,%eax
    63cd:	67 72 61             	addr16 jb 6431 <inet_sroute_get_id_list+0x341>
    63d0:	6d                   	insl   (%dx),%es:(%edi)
    63d1:	20 74 6f 20          	and    %dh,0x20(%edi,%ebp,2)
    63d5:	62 65 20             	bound  %esp,0x20(%ebp)
    63d8:	72 6f                	jb     6449 <inet_sroute_get_id_list+0x359>
    63da:	75 74                	jne    6450 <inet_sroute_get_id_list+0x360>
    63dc:	65 64 00 69 6e       	gs add %ch,%fs:0x6e(%ecx)
    63e1:	65 74 5f             	gs je  6443 <inet_sroute_get_id_list+0x353>
    63e4:	64 65 66 61          	fs gs popaw 
    63e8:	75 6c                	jne    6456 <inet_sroute_get_id_list+0x366>
    63ea:	74 5f                	je     644b <inet_sroute_get_id_list+0x35b>
    63ec:	63 6f 6e             	arpl   %bp,0x6e(%edi)
    63ef:	6e                   	outsb  %ds:(%esi),(%dx)
    63f0:	28 29                	sub    %ch,(%ecx)
    63f2:	00 69 6e             	add    %ch,0x6e(%ecx)
    63f5:	65 74 5f             	gs je  6457 <inet_sroute_get_id_list+0x367>
    63f8:	63 61 6c             	arpl   %sp,0x6c(%ecx)
    63fb:	6c                   	insb   (%dx),%es:(%edi)
    63fc:	62 61 63             	bound  %esp,0x63(%ecx)
    63ff:	6b 5f 63 72          	imul   $0x72,0x63(%edi),%ebx
    6403:	65 61                	gs popa 
    6405:	74 65                	je     646c <inet_sroute_get_id_list+0x37c>
    6407:	5f                   	pop    %edi
    6408:	73 72                	jae    647c <inet_sroute_get_id_list+0x38c>
    640a:	76 28                	jbe    6434 <inet_sroute_get_id_list+0x344>
    640c:	29 00                	sub    %eax,(%eax)
    640e:	69 6e 65 74 5f 67 65 	imul   $0x65675f74,0x65(%esi),%ebp
    6415:	74 5f                	je     6476 <inet_sroute_get_id_list+0x386>
    6417:	73 72                	jae    648b <inet_sroute_get_id_list+0x39b>
    6419:	63 61 64             	arpl   %sp,0x64(%ecx)
    641c:	64 72 5f             	fs jb  647e <inet_sroute_get_id_list+0x38e>
    641f:	73 72                	jae    6493 <inet_sroute_get_id_list+0x3a3>
    6421:	76 28                	jbe    644b <inet_sroute_get_id_list+0x35b>
    6423:	29 00                	sub    %eax,(%eax)
    6425:	69 6e 65 74 5f 73 65 	imul   $0x65735f74,0x65(%esi),%ebp
    642c:	6e                   	outsb  %ds:(%esi),(%dx)
    642d:	64 5f                	fs pop %edi
    642f:	73 72                	jae    64a3 <inet_sroute_get_id_list+0x3b3>
    6431:	76 28                	jbe    645b <inet_sroute_get_id_list+0x36b>
    6433:	29 00                	sub    %eax,(%eax)
    6435:	69 6e 65 74 5f 73 65 	imul   $0x65735f74,0x65(%esi),%ebp
    643c:	74 5f                	je     649d <inet_sroute_get_id_list+0x3ad>
    643e:	70 72                	jo     64b2 <inet_sroute_get_id_list+0x3c2>
    6440:	6f                   	outsl  %ds:(%esi),(%dx)
    6441:	74 6f                	je     64b2 <inet_sroute_get_id_list+0x3c2>
    6443:	5f                   	pop    %edi
    6444:	73 72                	jae    64b8 <inet_sroute_get_id_list+0x3c8>
    6446:	76 28                	jbe    6470 <inet_sroute_get_id_list+0x380>
    6448:	25 6c 75 29 00       	and    $0x29756c,%eax
    644d:	69 6e 65 74 5f 65 76 	imul   $0x76655f74,0x65(%esi),%ebp
    6454:	5f                   	pop    %edi
    6455:	72 65                	jb     64bc <inet_sroute_get_id_list+0x3cc>
    6457:	63 76 3a             	arpl   %si,0x3a(%esi)
    645a:	20 69 70             	and    %ch,0x70(%ecx)
    645d:	6c                   	insb   (%dx),%es:(%edi)
    645e:	69 6e 6b 3d 25 7a 75 	imul   $0x757a253d,0x6b(%esi),%ebp
    6465:	00 69 6e             	add    %ch,0x6e(%ecx)
    6468:	65 74 5f             	gs je  64ca <inet_sroute_get_id_list+0x3da>
    646b:	72 65                	jb     64d2 <inet_sroute_get_id_list+0x3e2>
    646d:	63 76 5f             	arpl   %si,0x5f(%esi)
    6470:	64 67 72 61          	fs addr16 jb 64d5 <inet_sroute_get_id_list+0x3e5>
    6474:	6d                   	insl   (%dx),%es:(%edi)
    6475:	5f                   	pop    %edi
    6476:	6c                   	insb   (%dx),%es:(%edi)
    6477:	6f                   	outsl  %ds:(%esi),(%dx)
    6478:	63 61 6c             	arpl   %sp,0x6c(%ecx)
    647b:	28 29                	sub    %ch,(%ecx)
    647d:	00 69 6e             	add    %ch,0x6e(%ecx)
    6480:	65 74 73             	gs je  64f6 <inet_sroute_get_id_list+0x406>
    6483:	72 76                	jb     64fb <inet_sroute_get_id_list+0x40b>
    6485:	00 69 6e             	add    %ch,0x6e(%ecx)
    6488:	65 74 5f             	gs je  64ea <inet_sroute_get_id_list+0x3fa>
    648b:	69 6e 69 74 28 29 00 	imul   $0x292874,0x69(%esi),%ebp
    6492:	6e                   	outsb  %ds:(%esi),(%dx)
    6493:	65 74 2f             	gs je  64c5 <inet_sroute_get_id_list+0x3d5>
    6496:	69 6e 65 74 00 90 69 	imul   $0x69900074,0x65(%esi),%ebp
    649d:	6e                   	outsb  %ds:(%esi),(%dx)
    649e:	65 74 5f             	gs je  6500 <inet_sroute_get_id_list+0x410>
    64a1:	73 65                	jae    6508 <inet_sroute_get_id_list+0x418>
    64a3:	6e                   	outsb  %ds:(%esi),(%dx)
    64a4:	64 3a 20             	cmp    %fs:(%eax),%ah
    64a7:	4e                   	dec    %esi
    64a8:	6f                   	outsl  %ds:(%esi),(%dx)
    64a9:	20 72 6f             	and    %dh,0x6f(%edx)
    64ac:	75 74                	jne    6522 <inet_sroute_get_id_list+0x432>
    64ae:	65 20 74 6f 20       	and    %dh,%gs:0x20(%edi,%ebp,2)
    64b3:	64 65 73 74          	fs gs jae 652b <inet_sroute_get_id_list+0x43b>
    64b7:	69 6e 61 74 69 6f 6e 	imul   $0x6e6f6974,0x61(%esi),%ebp
    64be:	2e 00 4e 6f          	add    %cl,%cs:0x6f(%esi)
    64c2:	20 63 6c             	and    %ah,0x6c(%ebx)
    64c5:	69 65 6e 74 20 66 6f 	imul   $0x6f662074,0x6e(%ebp),%esp
    64cc:	75 6e                	jne    653c <inet_sroute_get_id_list+0x44c>
    64ce:	64 20 66 6f          	and    %ah,%fs:0x6f(%esi)
    64d2:	72 20                	jb     64f4 <inet_sroute_get_id_list+0x404>
    64d4:	70 72                	jo     6548 <inet_sroute_get_id_list+0x458>
    64d6:	6f                   	outsl  %ds:(%esi),(%dx)
    64d7:	74 6f                	je     6548 <inet_sroute_get_id_list+0x458>
    64d9:	63 6f 6c             	arpl   %bp,0x6c(%edi)
    64dc:	20 30                	and    %dh,(%eax)
    64de:	78 25                	js     6505 <inet_sroute_get_id_list+0x415>
    64e0:	68 68 78 00 69       	push   $0x69007868
    64e5:	6e                   	outsb  %ds:(%esi),(%dx)
    64e6:	65 74 73             	gs je  655c <inet_sroute_get_id_list+0x46c>
    64e9:	72 76                	jb     6561 <inet_sroute_get_id_list+0x471>
    64eb:	3a 20                	cmp    (%eax),%ah
    64ed:	48                   	dec    %eax
    64ee:	65 6c                	gs insb (%dx),%es:(%edi)
    64f0:	65 6e                	outsb  %gs:(%esi),(%dx)
    64f2:	4f                   	dec    %edi
    64f3:	53                   	push   %ebx
    64f4:	20 49 6e             	and    %cl,0x6e(%ecx)
    64f7:	74 65                	je     655e <inet_sroute_get_id_list+0x46e>
    64f9:	72 6e                	jb     6569 <inet_sroute_get_id_list+0x479>
    64fb:	65 74 20             	gs je  651e <inet_sroute_get_id_list+0x42e>
    64fe:	50                   	push   %eax
    64ff:	72 6f                	jb     6570 <inet_sroute_get_id_list+0x480>
    6501:	74 6f                	je     6572 <inet_sroute_get_id_list+0x482>
    6503:	63 6f 6c             	arpl   %bp,0x6c(%edi)
    6506:	20 73 65             	and    %dh,0x65(%ebx)
    6509:	72 76                	jb     6581 <inet_sroute_get_id_list+0x491>
    650b:	69 63 65 0a 00 69 6e 	imul   $0x6e69000a,0x65(%ebx),%esp
    6512:	65 74 73             	gs je  6588 <inet_sroute_get_id_list+0x498>
    6515:	72 76                	jb     658d <inet_sroute_get_id_list+0x49d>
    6517:	3a 20                	cmp    (%eax),%ah
    6519:	46                   	inc    %esi
    651a:	61                   	popa   
    651b:	69 6c 65 64 20 74 6f 	imul   $0x206f7420,0x64(%ebp,%eiz,2),%ebp
    6522:	20 
    6523:	69 6e 69 74 69 61 6c 	imul   $0x6c616974,0x69(%esi),%ebp
    652a:	69 7a 65 20 6c 6f 67 	imul   $0x676f6c20,0x65(%edx),%edi
    6531:	67 69 6e 67 2e 0a 00 	imul   $0x46000a2e,0x67(%bp),%ebp
    6538:	46 
    6539:	61                   	popa   
    653a:	69 6c 65 64 20 72 65 	imul   $0x67657220,0x64(%ebp,%eiz,2),%ebp
    6541:	67 
    6542:	69 73 74 65 72 69 6e 	imul   $0x6e697265,0x74(%ebx),%esi
    6549:	67 20 73 65          	and    %dh,0x65(%bp,%di)
    654d:	72 76                	jb     65c5 <inet_sroute_get_id_list+0x4d5>
    654f:	65 72 20             	gs jb  6572 <inet_sroute_get_id_list+0x482>
    6552:	28 25 64 29 2e 00    	sub    %ah,0x2e2964
    6558:	46                   	inc    %esi
    6559:	61                   	popa   
    655a:	69 6c 65 64 20 72 65 	imul   $0x67657220,0x64(%ebp,%eiz,2),%ebp
    6561:	67 
    6562:	69 73 74 65 72 69 6e 	imul   $0x6e697265,0x74(%ebx),%esi
    6569:	67 20 73 65          	and    %dh,0x65(%bp,%di)
    656d:	72 76                	jb     65e5 <inet_sroute_get_id_list+0x4f5>
    656f:	69 63 65 20 28 25 64 	imul   $0x64252820,0x65(%ebx),%esp
    6576:	29 2e                	sub    %ebp,(%esi)
    6578:	00 00                	add    %al,(%eax)
    657a:	00 00                	add    %al,(%eax)
    657c:	69 6e 65 74 73 72 76 	imul   $0x76727374,0x65(%esi),%ebp
    6583:	3a 20                	cmp    (%eax),%ah
    6585:	41                   	inc    %ecx
    6586:	63 63 65             	arpl   %sp,0x65(%ebx)
    6589:	70 74                	jo     65ff <inet_sroute_get_id_list+0x50f>
    658b:	69 6e 67 20 63 6f 6e 	imul   $0x6e6f6320,0x67(%esi),%ebp
    6592:	6e                   	outsb  %ds:(%esi),(%dx)
    6593:	65 63 74 69 6f       	arpl   %si,%gs:0x6f(%ecx,%ebp,2)
    6598:	6e                   	outsb  %ds:(%esi),(%dx)
    6599:	73 2e                	jae    65c9 <inet_sroute_get_id_list+0x4d9>
    659b:	0a 00                	or     (%eax),%al
    659d:	66 90                	xchg   %ax,%ax
    659f:	90                   	nop
    65a0:	69 6e 65 74 5f 69 70 	imul   $0x70695f74,0x65(%esi),%ebp
    65a7:	6c                   	insb   (%dx),%es:(%edi)
    65a8:	69 6e 6b 5f 63 68 61 	imul   $0x6168635f,0x6b(%esi),%ebp
    65af:	6e                   	outsb  %ds:(%esi),(%dx)
    65b0:	67 65 5f             	addr16 gs pop %edi
    65b3:	61                   	popa   
    65b4:	64 64 72 28          	fs fs jb 65e0 <inet_sroute_get_id_list+0x4f0>
    65b8:	29 3a                	sub    %edi,(%edx)
    65ba:	20 6e 65             	and    %ch,0x65(%esi)
    65bd:	77 20                	ja     65df <inet_sroute_get_id_list+0x4ef>
    65bf:	61                   	popa   
    65c0:	64 64 72 3d          	fs fs jb 6601 <inet_sroute_get_id_list+0x511>
    65c4:	25 30 32 78 3a       	and    $0x3a783230,%eax
    65c9:	25 30 32 78 3a       	and    $0x3a783230,%eax
    65ce:	25 30 32 78 3a       	and    $0x3a783230,%eax
    65d3:	25 30 32 78 3a       	and    $0x3a783230,%eax
    65d8:	25 30 32 78 3a       	and    $0x3a783230,%eax
    65dd:	25 30 32 78 00       	and    $0x783230,%eax
    65e2:	00 00                	add    %al,(%eax)
    65e4:	46                   	inc    %esi
    65e5:	61                   	popa   
    65e6:	69 6c 65 64 20 61 6c 	imul   $0x6c6c6120,0x64(%ebp,%eiz,2),%ebp
    65ed:	6c 
    65ee:	6f                   	outsl  %ds:(%esi),(%dx)
    65ef:	63 61 74             	arpl   %sp,0x74(%ecx)
    65f2:	69 6e 67 20 6c 69 6e 	imul   $0x6e696c20,0x67(%esi),%ebp
    65f9:	6b 20 73             	imul   $0x73,(%eax),%esp
    65fc:	74 72                	je     6670 <inet_sroute_get_id_list+0x580>
    65fe:	75 63                	jne    6663 <inet_sroute_get_id_list+0x573>
    6600:	74 75                	je     6677 <inet_sroute_get_id_list+0x587>
    6602:	72 65                	jb     6669 <inet_sroute_get_id_list+0x579>
    6604:	2e 20 4f 75          	and    %cl,%cs:0x75(%edi)
    6608:	74 20                	je     662a <inet_sroute_get_id_list+0x53a>
    660a:	6f                   	outsl  %ds:(%esi),(%dx)
    660b:	66 20 6d 65          	data16 and %ch,0x65(%ebp)
    660f:	6d                   	insl   (%dx),%es:(%edi)
    6610:	6f                   	outsl  %ds:(%esi),(%dx)
    6611:	72 79                	jb     668c <inet_sroute_get_id_list+0x59c>
    6613:	2e 00 00             	add    %al,%cs:(%eax)
    6616:	00 00                	add    %al,(%eax)
    6618:	46                   	inc    %esi
    6619:	61                   	popa   
    661a:	69 6c 65 64 20 64 65 	imul   $0x74656420,0x64(%ebp,%eiz,2),%ebp
    6621:	74 
    6622:	65 72 6d             	gs jb  6692 <inet_sroute_get_id_list+0x5a2>
    6625:	69 6e 6e 69 6e 67 20 	imul   $0x20676e69,0x6e(%esi),%ebp
    662c:	4d                   	dec    %ebp
    662d:	54                   	push   %esp
    662e:	55                   	push   %ebp
    662f:	20 6f 66             	and    %ch,0x66(%edi)
    6632:	20 6c 69 6e          	and    %ch,0x6e(%ecx,%ebp,2)
    6636:	6b 20 27             	imul   $0x27,(%eax),%esp
    6639:	25 73 27 00 00       	and    $0x2773,%eax
    663e:	00 00                	add    %al,(%eax)
    6640:	66 69 62 72 69 6c    	imul   $0x6c69,0x72(%edx),%sp
    6646:	5f                   	pop    %edi
    6647:	6d                   	insl   (%dx),%es:(%edi)
    6648:	75 74                	jne    66be <inet_sroute_get_id_list+0x5ce>
    664a:	65 78 5f             	gs js  66ac <inet_sroute_get_id_list+0x5bc>
    664d:	69 73 5f 6c 6f 63 6b 	imul   $0x6b636f6c,0x5f(%ebx),%esi
    6654:	65 64 28 26          	gs sub %ah,%fs:(%esi)
    6658:	69 6e 65 74 5f 6c 69 	imul   $0x696c5f74,0x65(%esi),%ebp
    665f:	6e                   	outsb  %ds:(%esi),(%dx)
    6660:	6b 73 5f 6c          	imul   $0x6c,0x5f(%ebx),%esi
    6664:	6f                   	outsl  %ds:(%esi),(%dx)
    6665:	63 6b 29             	arpl   %bp,0x29(%ebx)
    6668:	00 00                	add    %al,(%eax)
    666a:	00 00                	add    %al,(%eax)
    666c:	46                   	inc    %esi
    666d:	61                   	popa   
    666e:	69 6c 65 64 20 73 65 	imul   $0x74657320,0x64(%ebp,%eiz,2),%ebp
    6675:	74 
    6676:	74 69                	je     66e1 <inet_sroute_get_id_list+0x5f1>
    6678:	6e                   	outsb  %ds:(%esi),(%dx)
    6679:	67 20 49 50          	and    %cl,0x50(%bx,%di)
    667d:	76 34                	jbe    66b3 <inet_sroute_get_id_list+0x5c3>
    667f:	20 61 64             	and    %ah,0x64(%ecx)
    6682:	64 72 65             	fs jb  66ea <inet_sroute_get_id_list+0x5fa>
    6685:	73 73                	jae    66fa <inet_sroute_get_id_list+0x60a>
    6687:	20 6f 6e             	and    %ch,0x6e(%edi)
    668a:	20 69 6e             	and    %ch,0x6e(%ecx)
    668d:	74 65                	je     66f4 <inet_sroute_get_id_list+0x604>
    668f:	72 6e                	jb     66ff <inet_sroute_get_id_list+0x60f>
    6691:	65 74 20             	gs je  66b4 <inet_sroute_get_id_list+0x5c4>
    6694:	6c                   	insb   (%dx),%es:(%edi)
    6695:	69 6e 6b 2e 00 00 00 	imul   $0x2e,0x6b(%esi),%ebp
    669c:	46                   	inc    %esi
    669d:	61                   	popa   
    669e:	69 6c 65 64 20 73 65 	imul   $0x74657320,0x64(%ebp,%eiz,2),%ebp
    66a5:	74 
    66a6:	74 69                	je     6711 <inet_sroute_get_id_list+0x621>
    66a8:	6e                   	outsb  %ds:(%esi),(%dx)
    66a9:	67 20 49 50          	and    %cl,0x50(%bx,%di)
    66ad:	76 36                	jbe    66e5 <inet_sroute_get_id_list+0x5f5>
    66af:	20 61 64             	and    %ah,0x64(%ecx)
    66b2:	64 72 65             	fs jb  671a <inet_sroute_get_id_list+0x62a>
    66b5:	73 73                	jae    672a <inet_sroute_get_id_list+0x63a>
    66b7:	20 6f 6e             	and    %ch,0x6e(%edi)
    66ba:	20 69 6e             	and    %ch,0x6e(%ecx)
    66bd:	74 65                	je     6724 <inet_sroute_get_id_list+0x634>
    66bf:	72 6e                	jb     672f <inet_sroute_get_id_list+0x63f>
    66c1:	65 74 20             	gs je  66e4 <inet_sroute_get_id_list+0x5f4>
    66c4:	6c                   	insb   (%dx),%es:(%edi)
    66c5:	69 6e 6b 2e 00 69 6e 	imul   $0x6e69002e,0x6b(%esi),%ebp
    66cc:	65 74 5f             	gs je  672e <inet_sroute_get_id_list+0x63e>
    66cf:	69 70 6c 69 6e 6b 5f 	imul   $0x5f6b6e69,0x6c(%eax),%esi
    66d6:	72 65                	jb     673d <inet_sroute_get_id_list+0x64d>
    66d8:	63 76 28             	arpl   %si,0x28(%esi)
    66db:	29 00                	sub    %eax,(%eax)
    66dd:	69 6e 76 61 6c 69 64 	imul   $0x64696c61,0x76(%esi),%ebp
    66e4:	20 49 50             	and    %cl,0x50(%ecx)
    66e7:	20 76 65             	and    %dh,0x65(%esi)
    66ea:	72 73                	jb     675f <inet_sroute_get_id_list+0x66f>
    66ec:	69 6f 6e 00 66 61 69 	imul   $0x69616600,0x6e(%edi),%ebp
    66f3:	6c                   	insb   (%dx),%es:(%edi)
    66f4:	65 64 20 64 65 63    	gs and %ah,%fs:0x63(%ebp,%eiz,2)
    66fa:	6f                   	outsl  %ds:(%esi),(%dx)
    66fb:	64 69 6e 67 20 50 44 	imul   $0x55445020,%fs:0x67(%esi),%ebp
    6702:	55 
    6703:	00 69 6e             	add    %ch,0x6e(%ecx)
    6706:	65 74 5f             	gs je  6768 <inet_sroute_get_id_list+0x678>
    6709:	69 70 6c 69 6e 6b 5f 	imul   $0x5f6b6e69,0x6c(%eax),%esi
    6710:	72 65                	jb     6777 <inet_sroute_get_id_list+0x687>
    6712:	63 76 3a             	arpl   %si,0x3a(%esi)
    6715:	20 6c 69 6e          	and    %ch,0x6e(%ecx,%ebp,2)
    6719:	6b 5f 69 64          	imul   $0x64,0x69(%edi),%ebx
    671d:	3d 25 7a 75 00       	cmp    $0x757a25,%eax
    6722:	63 61 6c             	arpl   %sp,0x6c(%ecx)
    6725:	6c                   	insb   (%dx),%es:(%edi)
    6726:	20 69 6e             	and    %ch,0x6e(%ecx)
    6729:	65 74 5f             	gs je  678b <inet_sroute_get_id_list+0x69b>
    672c:	72 65                	jb     6793 <inet_sroute_get_id_list+0x6a3>
    672e:	63 76 5f             	arpl   %si,0x5f(%esi)
    6731:	70 61                	jo     6794 <inet_sroute_get_id_list+0x6a4>
    6733:	63 6b 65             	arpl   %bp,0x65(%ebx)
    6736:	74 28                	je     6760 <inet_sroute_get_id_list+0x670>
    6738:	29 00                	sub    %eax,(%eax)
    673a:	63 61 6c             	arpl   %sp,0x6c(%ecx)
    673d:	6c                   	insb   (%dx),%es:(%edi)
    673e:	20 69 6e             	and    %ch,0x6e(%ecx)
    6741:	65 74 5f             	gs je  67a3 <inet_sroute_get_id_list+0x6b3>
    6744:	72 65                	jb     67ab <inet_sroute_get_id_list+0x6bb>
    6746:	63 76 5f             	arpl   %si,0x5f(%esi)
    6749:	70 61                	jo     67ac <inet_sroute_get_id_list+0x6bc>
    674b:	63 6b 65             	arpl   %bp,0x65(%ebx)
    674e:	74 20                	je     6770 <inet_sroute_get_id_list+0x680>
    6750:	2d 3e 20 25 64       	sub    $0x6425203e,%eax
    6755:	00 69 6e             	add    %ch,0x6e(%ecx)
    6758:	65 74 5f             	gs je  67ba <inet_sroute_get_id_list+0x6ca>
    675b:	6c                   	insb   (%dx),%es:(%edi)
    675c:	69 6e 6b 5f 6f 70 65 	imul   $0x65706f5f,0x6b(%esi),%ebp
    6763:	6e                   	outsb  %ds:(%esi),(%dx)
    6764:	28 29                	sub    %ch,(%ecx)
    6766:	00 46 61             	add    %al,0x61(%esi)
    6769:	69 6c 65 64 20 67 65 	imul   $0x74656720,0x64(%ebp,%eiz,2),%ebp
    6770:	74 
    6771:	74 69                	je     67dc <inet_sroute_get_id_list+0x6ec>
    6773:	6e                   	outsb  %ds:(%esi),(%dx)
    6774:	67 20 73 65          	and    %dh,0x65(%bp,%di)
    6778:	72 76                	jb     67f0 <inet_sroute_get_id_list+0x700>
    677a:	69 63 65 20 6e 61 6d 	imul   $0x6d616e20,0x65(%ebx),%esp
    6781:	65 2e 00 46 61       	gs add %al,%cs:0x61(%esi)
    6786:	69 6c 65 64 20 63 6f 	imul   $0x6e6f6320,0x64(%ebp,%eiz,2),%ebp
    678d:	6e 
    678e:	6e                   	outsb  %ds:(%esi),(%dx)
    678f:	65 63 74 69 6e       	arpl   %si,%gs:0x6e(%ecx,%ebp,2)
    6794:	67 20 27             	and    %ah,(%bx)
    6797:	25 73 27 00 46       	and    $0x46002773,%eax
    679c:	61                   	popa   
    679d:	69 6c 65 64 20 6f 70 	imul   $0x65706f20,0x64(%ebp,%eiz,2),%ebp
    67a4:	65 
    67a5:	6e                   	outsb  %ds:(%esi),(%dx)
    67a6:	69 6e 67 20 49 50 20 	imul   $0x20504920,0x67(%esi),%ebp
    67ad:	6c                   	insb   (%dx),%es:(%edi)
    67ae:	69 6e 6b 20 27 25 73 	imul   $0x73252720,0x6b(%esi),%ebp
    67b5:	27                   	daa    
    67b6:	00 4f 70             	add    %cl,0x70(%edi)
    67b9:	65 6e                	outsb  %gs:(%esi),(%dx)
    67bb:	65 64 20 49 50       	gs and %cl,%fs:0x50(%ecx)
    67c0:	20 6c 69 6e          	and    %ch,0x6e(%ecx,%ebp,2)
    67c4:	6b 20 27             	imul   $0x27,(%eax),%esp
    67c7:	25 73 27 00 69       	and    $0x69002773,%eax
    67cc:	6e                   	outsb  %ds:(%esi),(%dx)
    67cd:	65 74 5f             	gs je  682f <inet_sroute_get_id_list+0x73f>
    67d0:	6c                   	insb   (%dx),%es:(%edi)
    67d1:	69 6e 6b 2e 63 00 4c 	imul   $0x4c00632e,0x6b(%esi),%ebp
    67d8:	69 6e 6b 20 25 7a 75 	imul   $0x757a2520,0x6b(%esi),%ebp
    67df:	20 61 6c             	and    %ah,0x6c(%ecx)
    67e2:	72 65                	jb     6849 <inet_sroute_get_id_list+0x759>
    67e4:	61                   	popa   
    67e5:	64 79 20             	fs jns 6808 <inet_sroute_get_id_list+0x718>
    67e8:	6f                   	outsl  %ds:(%esi),(%dx)
    67e9:	70 65                	jo     6850 <inet_sroute_get_id_list+0x760>
    67eb:	6e                   	outsb  %ds:(%esi),(%dx)
    67ec:	00 76 34             	add    %dh,0x34(%esi)
    67ef:	61                   	popa   
    67f0:	00 46 61             	add    %al,0x61(%esi)
    67f3:	69 6c 65 64 20 61 64 	imul   $0x64646120,0x64(%ebp,%eiz,2),%ebp
    67fa:	64 
    67fb:	69 6e 67 20 49 50 76 	imul   $0x76504920,0x67(%esi),%ebp
    6802:	34 20                	xor    $0x20,%al
    6804:	61                   	popa   
    6805:	64 64 72 65          	fs fs jb 686e <inet_sroute_get_id_list+0x77e>
    6809:	73 73                	jae    687e <inet_sroute_get_id_list+0x78e>
    680b:	2e 00 76 36          	add    %dh,%cs:0x36(%esi)
    680f:	61                   	popa   
    6810:	00 46 61             	add    %al,0x61(%esi)
    6813:	69 6c 65 64 20 61 64 	imul   $0x64646120,0x64(%ebp,%eiz,2),%ebp
    681a:	64 
    681b:	69 6e 67 20 49 50 76 	imul   $0x76504920,0x67(%esi),%ebp
    6822:	36 20 61 64          	and    %ah,%ss:0x64(%ecx)
    6826:	64 72 65             	fs jb  688e <inet_sroute_get_id_list+0x79e>
    6829:	73 73                	jae    689e <inet_sroute_get_id_list+0x7ae>
    682b:	2e 00 43 6f          	add    %al,%cs:0x6f(%ebx)
    682f:	6e                   	outsb  %ds:(%esi),(%dx)
    6830:	66 69 67 75 72 65    	imul   $0x6572,0x75(%edi),%sp
    6836:	64 20 6c 69 6e       	and    %ch,%fs:0x6e(%ecx,%ebp,2)
    683b:	6b 20 27             	imul   $0x27,(%eax),%esp
    683e:	25 73 27 2e 00       	and    $0x2e2773,%eax
    6843:	69 6e 65 74 5f 63 66 	imul   $0x66635f74,0x65(%esi),%ebp
    684a:	67 5f                	addr16 pop %edi
    684c:	63 6f 6e             	arpl   %bp,0x6e(%edi)
    684f:	6e                   	outsb  %ds:(%esi),(%dx)
    6850:	28 29                	sub    %ch,(%ecx)
    6852:	00 6d 65             	add    %ch,0x65(%ebp)
    6855:	74 68                	je     68bf <inet_sroute_get_id_list+0x7cf>
    6857:	6f                   	outsl  %ds:(%esi),(%dx)
    6858:	64 20 25 64 00 4c 69 	and    %ah,%fs:0x694c0064
    685f:	6e                   	outsb  %ds:(%esi),(%dx)
    6860:	6b 20 25             	imul   $0x25,(%eax),%esp
    6863:	6c                   	insb   (%dx),%es:(%edi)
    6864:	75 20                	jne    6886 <inet_sroute_get_id_list+0x796>
    6866:	6e                   	outsb  %ds:(%esi),(%dx)
    6867:	6f                   	outsl  %ds:(%esi),(%dx)
    6868:	74 20                	je     688a <inet_sroute_get_id_list+0x79a>
    686a:	66 6f                	outsw  %ds:(%esi),(%dx)
    686c:	75 6e                	jne    68dc <inet_sroute_get_id_list+0x7ec>
    686e:	64 2e 00 44 75 70    	fs add %al,%cs:0x70(%ebp,%esi,2)
    6874:	6c                   	insb   (%dx),%es:(%edi)
    6875:	69 63 61 74 65 20 61 	imul   $0x61206574,0x61(%ebx),%esp
    687c:	64 64 72 65          	fs fs jb 68e5 <inet_sroute_get_id_list+0x7f5>
    6880:	73 73                	jae    68f5 <inet_sroute_get_id_list+0x805>
    6882:	20 6e 61             	and    %ch,0x61(%esi)
    6885:	6d                   	insl   (%dx),%es:(%edi)
    6886:	65 20 27             	and    %ah,%gs:(%edi)
    6889:	25 73 27 2e 00       	and    $0x2e2773,%eax
    688e:	69 6e 65 74 63 66 67 	imul   $0x67666374,0x65(%esi),%ebp
    6895:	5f                   	pop    %edi
    6896:	61                   	popa   
    6897:	64 64 72 5f          	fs fs jb 68fa <inet_sroute_get_id_list+0x80a>
    689b:	64 65 6c             	fs gs insb (%dx),%es:(%edi)
    689e:	65 74 65             	gs je  6906 <inet_sroute_get_id_list+0x816>
    68a1:	5f                   	pop    %edi
    68a2:	73 72                	jae    6916 <inet_sroute_get_id_list+0x826>
    68a4:	76 28                	jbe    68ce <inet_sroute_get_id_list+0x7de>
    68a6:	29 00                	sub    %eax,(%eax)
    68a8:	69 6e 65 74 63 66 67 	imul   $0x67666374,0x65(%esi),%ebp
    68af:	5f                   	pop    %edi
    68b0:	61                   	popa   
    68b1:	64 64 72 5f          	fs fs jb 6914 <inet_sroute_get_id_list+0x824>
    68b5:	67 65 74 5f          	addr16 gs je 6918 <inet_sroute_get_id_list+0x828>
    68b9:	73 72                	jae    692d <inet_sroute_get_id_list+0x83d>
    68bb:	76 28                	jbe    68e5 <inet_sroute_get_id_list+0x7f5>
    68bd:	29 00                	sub    %eax,(%eax)
    68bf:	69 6e 65 74 63 66 67 	imul   $0x67666374,0x65(%esi),%ebp
    68c6:	5f                   	pop    %edi
    68c7:	61                   	popa   
    68c8:	64 64 72 5f          	fs fs jb 692b <inet_sroute_get_id_list+0x83b>
    68cc:	67 65 74 5f          	addr16 gs je 692f <inet_sroute_get_id_list+0x83f>
    68d0:	69 64 5f 73 72 76 28 	imul   $0x29287672,0x73(%edi,%ebx,2),%esp
    68d7:	29 
    68d8:	00 4c 69 6e          	add    %cl,0x6e(%ecx,%ebp,2)
    68dc:	6b 20 25             	imul   $0x25,(%eax),%esp
    68df:	7a 75                	jp     6956 <inet_sroute_get_id_list+0x866>
    68e1:	20 6e 6f             	and    %ch,0x6f(%esi)
    68e4:	74 20                	je     6906 <inet_sroute_get_id_list+0x816>
    68e6:	66 6f                	outsw  %ds:(%esi),(%dx)
    68e8:	75 6e                	jne    6958 <inet_sroute_get_id_list+0x868>
    68ea:	64 2e 00 41 64       	fs add %al,%cs:0x64(%ecx)
    68ef:	64 72 65             	fs jb  6957 <inet_sroute_get_id_list+0x867>
    68f2:	73 73                	jae    6967 <inet_sroute_get_id_list+0x877>
    68f4:	20 27                	and    %ah,(%edi)
    68f6:	25 73 27 20 6e       	and    $0x6e202773,%eax
    68fb:	6f                   	outsl  %ds:(%esi),(%dx)
    68fc:	74 20                	je     691e <inet_sroute_get_id_list+0x82e>
    68fe:	66 6f                	outsw  %ds:(%esi),(%dx)
    6900:	75 6e                	jne    6970 <inet_sroute_get_id_list+0x880>
    6902:	64 2e 00 69 6e       	fs add %ch,%cs:0x6e(%ecx)
    6907:	65 74 63             	gs je  696d <inet_sroute_get_id_list+0x87d>
    690a:	66 67 5f             	addr16 pop %di
    690d:	67 65 74 5f          	addr16 gs je 6970 <inet_sroute_get_id_list+0x880>
    6911:	61                   	popa   
    6912:	64 64 72 5f          	fs fs jb 6975 <inet_sroute_get_id_list+0x885>
    6916:	6c                   	insb   (%dx),%es:(%edi)
    6917:	69 73 74 5f 73 72 76 	imul   $0x7672735f,0x74(%ebx),%esi
    691e:	28 29                	sub    %ch,(%ecx)
    6920:	00 69 6e             	add    %ch,0x6e(%ecx)
    6923:	65 74 63             	gs je  6989 <inet_sroute_get_id_list+0x899>
    6926:	66 67 5f             	addr16 pop %di
    6929:	67 65 74 5f          	addr16 gs je 698c <inet_sroute_get_id_list+0x89c>
    692d:	73 72                	jae    69a1 <inet_sroute_get_id_list+0x8b1>
    692f:	6f                   	outsl  %ds:(%esi),(%dx)
    6930:	75 74                	jne    69a6 <inet_sroute_get_id_list+0x8b6>
    6932:	65 5f                	gs pop %edi
    6934:	6c                   	insb   (%dx),%es:(%edi)
    6935:	69 73 74 5f 73 72 76 	imul   $0x7672735f,0x74(%ebx),%esi
    693c:	28 29                	sub    %ch,(%ecx)
    693e:	00 69 6e             	add    %ch,0x6e(%ecx)
    6941:	65 74 63             	gs je  69a7 <inet_sroute_get_id_list+0x8b7>
    6944:	66 67 5f             	addr16 pop %di
    6947:	6c                   	insb   (%dx),%es:(%edi)
    6948:	69 6e 6b 5f 61 64 64 	imul   $0x6464615f,0x6b(%esi),%ebp
    694f:	5f                   	pop    %edi
    6950:	73 72                	jae    69c4 <inet_sroute_get_id_list+0x8d4>
    6952:	76 28                	jbe    697c <inet_sroute_get_id_list+0x88c>
    6954:	29 00                	sub    %eax,(%eax)
    6956:	69 6e 65 74 63 66 67 	imul   $0x67666374,0x65(%esi),%ebp
    695d:	5f                   	pop    %edi
    695e:	6c                   	insb   (%dx),%es:(%edi)
    695f:	69 6e 6b 5f 67 65 74 	imul   $0x7465675f,0x6b(%esi),%ebp
    6966:	5f                   	pop    %edi
    6967:	73 72                	jae    69db <inet_sroute_get_id_list+0x8eb>
    6969:	76 28                	jbe    6993 <inet_sroute_get_id_list+0x8a3>
    696b:	29 00                	sub    %eax,(%eax)
    696d:	69 6e 65 74 63 66 67 	imul   $0x67666374,0x65(%esi),%ebp
    6974:	5f                   	pop    %edi
    6975:	6c                   	insb   (%dx),%es:(%edi)
    6976:	69 6e 6b 5f 72 65 6d 	imul   $0x6d65725f,0x6b(%esi),%ebp
    697d:	6f                   	outsl  %ds:(%esi),(%dx)
    697e:	76 65                	jbe    69e5 <inet_sroute_get_id_list+0x8f5>
    6980:	5f                   	pop    %edi
    6981:	73 72                	jae    69f5 <inet_sroute_get_id_list+0x905>
    6983:	76 28                	jbe    69ad <inet_sroute_get_id_list+0x8bd>
    6985:	29 00                	sub    %eax,(%eax)
    6987:	69 6e 65 74 63 66 67 	imul   $0x67666374,0x65(%esi),%ebp
    698e:	5f                   	pop    %edi
    698f:	73 72                	jae    6a03 <inet_sroute_get_id_list+0x913>
    6991:	6f                   	outsl  %ds:(%esi),(%dx)
    6992:	75 74                	jne    6a08 <inet_sroute_get_id_list+0x918>
    6994:	65 5f                	gs pop %edi
    6996:	63 72 65             	arpl   %si,0x65(%edx)
    6999:	61                   	popa   
    699a:	74 65                	je     6a01 <inet_sroute_get_id_list+0x911>
    699c:	5f                   	pop    %edi
    699d:	73 72                	jae    6a11 <inet_sroute_get_id_list+0x921>
    699f:	76 28                	jbe    69c9 <inet_sroute_get_id_list+0x8d9>
    69a1:	29 00                	sub    %eax,(%eax)
    69a3:	69 6e 65 74 63 66 67 	imul   $0x67666374,0x65(%esi),%ebp
    69aa:	5f                   	pop    %edi
    69ab:	73 72                	jae    6a1f <inet_sroute_get_id_list+0x92f>
    69ad:	6f                   	outsl  %ds:(%esi),(%dx)
    69ae:	75 74                	jne    6a24 <inet_sroute_get_id_list+0x934>
    69b0:	65 5f                	gs pop %edi
    69b2:	64 65 6c             	fs gs insb (%dx),%es:(%edi)
    69b5:	65 74 65             	gs je  6a1d <inet_sroute_get_id_list+0x92d>
    69b8:	5f                   	pop    %edi
    69b9:	73 72                	jae    6a2d <inet_sroute_get_id_list+0x93d>
    69bb:	76 28                	jbe    69e5 <inet_sroute_get_id_list+0x8f5>
    69bd:	29 00                	sub    %eax,(%eax)
    69bf:	69 6e 65 74 63 66 67 	imul   $0x67666374,0x65(%esi),%ebp
    69c6:	5f                   	pop    %edi
    69c7:	73 72                	jae    6a3b <inet_sroute_get_id_list+0x94b>
    69c9:	6f                   	outsl  %ds:(%esi),(%dx)
    69ca:	75 74                	jne    6a40 <inet_sroute_get_id_list+0x950>
    69cc:	65 5f                	gs pop %edi
    69ce:	67 65 74 5f          	addr16 gs je 6a31 <inet_sroute_get_id_list+0x941>
    69d2:	73 72                	jae    6a46 <inet_sroute_get_id_list+0x956>
    69d4:	76 28                	jbe    69fe <inet_sroute_get_id_list+0x90e>
    69d6:	29 00                	sub    %eax,(%eax)
    69d8:	69 6e 65 74 63 66 67 	imul   $0x67666374,0x65(%esi),%ebp
    69df:	5f                   	pop    %edi
    69e0:	73 72                	jae    6a54 <inet_sroute_get_id_list+0x964>
    69e2:	6f                   	outsl  %ds:(%esi),(%dx)
    69e3:	75 74                	jne    6a59 <inet_sroute_get_id_list+0x969>
    69e5:	65 5f                	gs pop %edi
    69e7:	67 65 74 5f          	addr16 gs je 6a4a <inet_sroute_get_id_list+0x95a>
    69eb:	69 64 5f 73 72 76 28 	imul   $0x29287672,0x73(%edi,%ebx,2),%esp
    69f2:	29 
    69f3:	00 53 74             	add    %dl,0x74(%ebx)
    69f6:	61                   	popa   
    69f7:	74 69                	je     6a62 <inet_sroute_get_id_list+0x972>
    69f9:	63 20                	arpl   %sp,(%eax)
    69fb:	72 6f                	jb     6a6c <inet_sroute_get_id_list+0x97c>
    69fd:	75 74                	jne    6a73 <inet_sroute_get_id_list+0x983>
    69ff:	65 20 27             	and    %ah,%gs:(%edi)
    6a02:	25 73 27 20 6e       	and    $0x6e202773,%eax
    6a07:	6f                   	outsl  %ds:(%esi),(%dx)
    6a08:	74 20                	je     6a2a <inet_sroute_get_id_list+0x93a>
    6a0a:	66 6f                	outsw  %ds:(%esi),(%dx)
    6a0c:	75 6e                	jne    6a7c <inet_sroute_get_id_list+0x98c>
    6a0e:	64 2e 00 66 90       	fs add %ah,%cs:-0x70(%esi)
    6a13:	90                   	nop
    6a14:	69 6e 65 74 63 66 67 	imul   $0x67666374,0x65(%esi),%ebp
    6a1b:	5f                   	pop    %edi
    6a1c:	61                   	popa   
    6a1d:	64 64 72 5f          	fs fs jb 6a80 <inet_sroute_get_id_list+0x990>
    6a21:	63 72 65             	arpl   %si,0x65(%edx)
    6a24:	61                   	popa   
    6a25:	74 65                	je     6a8c <inet_sroute_get_id_list+0x99c>
    6a27:	5f                   	pop    %edi
    6a28:	73 74                	jae    6a9e <inet_sroute_get_id_list+0x9ae>
    6a2a:	61                   	popa   
    6a2b:	74 69                	je     6a96 <inet_sroute_get_id_list+0x9a6>
    6a2d:	63 5f 73             	arpl   %bx,0x73(%edi)
    6a30:	72 76                	jb     6aa8 <inet_sroute_get_id_list+0x9b8>
    6a32:	28 29                	sub    %ch,(%ecx)
    6a34:	00 00                	add    %al,(%eax)
    6a36:	00 00                	add    %al,(%eax)
    6a38:	46                   	inc    %esi
    6a39:	61                   	popa   
    6a3a:	69 6c 65 64 20 73 65 	imul   $0x74657320,0x64(%ebp,%eiz,2),%ebp
    6a41:	74 
    6a42:	74 69                	je     6aad <inet_sroute_get_id_list+0x9bd>
    6a44:	6e                   	outsb  %ds:(%esi),(%dx)
    6a45:	67 20 49 50          	and    %cl,0x50(%bx,%di)
    6a49:	20 61 64             	and    %ah,0x64(%ecx)
    6a4c:	64 72 65             	fs jb  6ab4 <inet_sroute_get_id_list+0x9c4>
    6a4f:	73 73                	jae    6ac4 <inet_sroute_get_id_list+0x9d4>
    6a51:	20 6f 6e             	and    %ch,0x6e(%edi)
    6a54:	20 69 6e             	and    %ch,0x6e(%ecx)
    6a57:	74 65                	je     6abe <inet_sroute_get_id_list+0x9ce>
    6a59:	72 6e                	jb     6ac9 <inet_sroute_get_id_list+0x9d9>
    6a5b:	65 74 20             	gs je  6a7e <inet_sroute_get_id_list+0x98e>
    6a5e:	6c                   	insb   (%dx),%es:(%edi)
    6a5f:	69 6e 6b 2e 00 a8 3a 	imul   $0x3aa8002e,0x6b(%esi),%ebp
    6a66:	00 00                	add    %al,(%eax)
    6a68:	60                   	pusha  
    6a69:	3a 00                	cmp    (%eax),%al
    6a6b:	00 48 39             	add    %cl,0x39(%eax)
    6a6e:	00 00                	add    %al,(%eax)
    6a70:	c0 38 00             	sarb   $0x0,(%eax)
    6a73:	00 50 38             	add    %dl,0x38(%eax)
    6a76:	00 00                	add    %al,(%eax)
    6a78:	c0                   	(bad)  
    6a79:	37                   	aaa    
    6a7a:	00 00                	add    %al,(%eax)
    6a7c:	70 37                	jo     6ab5 <inet_sroute_get_id_list+0x9c5>
    6a7e:	00 00                	add    %al,(%eax)
    6a80:	40                   	inc    %eax
    6a81:	37                   	aaa    
    6a82:	00 00                	add    %al,(%eax)
    6a84:	f8                   	clc    
    6a85:	36 00 00             	add    %al,%ss:(%eax)
    6a88:	d0                   	(bad)  
    6a89:	36 00 00             	add    %al,%ss:(%eax)
    6a8c:	70 36                	jo     6ac4 <inet_sroute_get_id_list+0x9d4>
    6a8e:	00 00                	add    %al,(%eax)
    6a90:	20 36                	and    %dh,(%esi)
    6a92:	00 00                	add    %al,(%eax)
    6a94:	68 35 00 00 28       	push   $0x28000035
    6a99:	3b 00                	cmp    (%eax),%eax
    6a9b:	00 55 6e             	add    %dl,0x6e(%ebp)
    6a9e:	6b 6e 6f 77          	imul   $0x77,0x6f(%esi),%ebp
    6aa2:	6e                   	outsb  %ds:(%esi),(%dx)
    6aa3:	20 49 43             	and    %cl,0x43(%ecx)
    6aa6:	4d                   	dec    %ebp
    6aa7:	50                   	push   %eax
    6aa8:	20 69 64             	and    %ch,0x64(%ecx)
    6aab:	65 6e                	outsb  %gs:(%esi),(%dx)
    6aad:	74 2e                	je     6add <inet_sroute_get_id_list+0x9ed>
    6aaf:	20 44 72 6f          	and    %al,0x6f(%edx,%esi,2)
    6ab3:	70 70                	jo     6b25 <inet_sroute_get_id_list+0xa35>
    6ab5:	69 6e 67 2e 00 69 6e 	imul   $0x6e69002e,0x67(%esi),%ebp
    6abc:	65 74 70             	gs je  6b2f <inet_sroute_get_id_list+0xa3f>
    6abf:	69 6e 67 5f 63 6f 6e 	imul   $0x6e6f635f,0x67(%esi),%ebp
    6ac6:	6e                   	outsb  %ds:(%esi),(%dx)
    6ac7:	28 29                	sub    %ch,(%ecx)
    6ac9:	00 69 6e             	add    %ch,0x6e(%ecx)
    6acc:	65 74 70             	gs je  6b3f <inet_sroute_get_id_list+0xa4f>
    6acf:	69 6e 67 5f 73 65 6e 	imul   $0x6e65735f,0x67(%esi),%ebp
    6ad6:	64 5f                	fs pop %edi
    6ad8:	73 72                	jae    6b4c <inet_sroute_get_id_list+0xa5c>
    6ada:	76 28                	jbe    6b04 <inet_sroute_get_id_list+0xa14>
    6adc:	29 00                	sub    %eax,(%eax)
    6ade:	69 6e 65 74 70 69 6e 	imul   $0x6e697074,0x65(%esi),%ebp
    6ae5:	67 5f                	addr16 pop %edi
    6ae7:	67 65 74 5f          	addr16 gs je 6b4a <inet_sroute_get_id_list+0xa5a>
    6aeb:	73 72                	jae    6b5f <inet_sroute_get_id_list+0xa6f>
    6aed:	63 61 64             	arpl   %sp,0x64(%ecx)
    6af0:	64 72 5f             	fs jb  6b52 <inet_sroute_get_id_list+0xa62>
    6af3:	73 72                	jae    6b67 <inet_sroute_get_id_list+0xa77>
    6af5:	76 28                	jbe    6b1f <inet_sroute_get_id_list+0xa2f>
    6af7:	29 00                	sub    %eax,(%eax)
    6af9:	6e                   	outsb  %ds:(%esi),(%dx)
    6afa:	64 70 5f             	fs jo  6b5c <inet_sroute_get_id_list+0xa6c>
    6afd:	72 65                	jb     6b64 <inet_sroute_get_id_list+0xa74>
    6aff:	63 65 69             	arpl   %sp,0x69(%ebp)
    6b02:	76 65                	jbe    6b69 <inet_sroute_get_id_list+0xa79>
    6b04:	64 28 29             	sub    %ch,%fs:(%ecx)
    6b07:	00 4e 44             	add    %cl,0x44(%esi)
    6b0a:	50                   	push   %eax
    6b0b:	20 50 44             	and    %dl,0x44(%eax)
    6b0e:	55                   	push   %ebp
    6b0f:	20 64 65 63          	and    %ah,0x63(%ebp,%eiz,2)
    6b13:	6f                   	outsl  %ds:(%esi),(%dx)
    6b14:	64 65 64 3b 20       	fs gs cmp %fs:(%eax),%esp
    6b19:	6f                   	outsl  %ds:(%esi),(%dx)
    6b1a:	70 63                	jo     6b7f <inet_sroute_get_id_list+0xa8f>
    6b1c:	6f                   	outsl  %ds:(%esi),(%dx)
    6b1d:	64 65 3a 20          	fs cmp %gs:(%eax),%ah
    6b21:	25 64 00 70 64       	and    $0x64700064,%eax
    6b26:	75 2e                	jne    6b56 <inet_sroute_get_id_list+0xa66>
    6b28:	63 00                	arpl   %ax,(%eax)
    6b2a:	6f                   	outsl  %ds:(%esi),(%dx)
    6b2b:	66 66 73 20          	data16 data16 jae 6b4f <inet_sroute_get_id_list+0xa5f>
    6b2f:	25 20 46 52 41       	and    $0x41524620,%eax
    6b34:	47                   	inc    %edi
    6b35:	5f                   	pop    %edi
    6b36:	4f                   	dec    %edi
    6b37:	46                   	inc    %esi
    6b38:	46                   	inc    %esi
    6b39:	53                   	push   %ebx
    6b3a:	5f                   	pop    %edi
    6b3b:	55                   	push   %ebp
    6b3c:	4e                   	dec    %esi
    6b3d:	49                   	dec    %ecx
    6b3e:	54                   	push   %esp
    6b3f:	20 3d 3d 20 30 00    	and    %bh,0x30203d
    6b45:	6f                   	outsl  %ds:(%esi),(%dx)
    6b46:	66 66 73 6d          	data16 data16 jae 6bb7 <inet_sroute_get_id_list+0xac7>
    6b4a:	66 20 21             	data16 and %ah,(%ecx)
    6b4d:	3d 20 30 00 6f       	cmp    $0x6f003020,%eax
    6b52:	66 66 73 6d          	data16 data16 jae 6bc3 <inet_sroute_get_id_list+0xad3>
    6b56:	66 20 3d 3d 20 30 00 	data16 and %bh,0x30203d
    6b5d:	69 6e 65 74 5f 70 64 	imul   $0x64705f74,0x65(%esi),%ebp
    6b64:	75 5f                	jne    6bc5 <inet_sroute_get_id_list+0xad5>
    6b66:	64 65 63 6f 64       	fs arpl %bp,%gs:0x64(%edi)
    6b6b:	65 28 29             	sub    %ch,%gs:(%ecx)
    6b6e:	00 50 44             	add    %dl,0x44(%eax)
    6b71:	55                   	push   %ebp
    6b72:	20 74 6f 6f          	and    %dh,0x6f(%edi,%ebp,2)
    6b76:	20 73 68             	and    %dh,0x68(%ebx)
    6b79:	6f                   	outsl  %ds:(%esi),(%dx)
    6b7a:	72 74                	jb     6bf0 <inet_sroute_get_id_list+0xb00>
    6b7c:	20 28                	and    %ch,(%eax)
    6b7e:	25 7a 75 29 00       	and    $0x29757a,%eax
    6b83:	56                   	push   %esi
    6b84:	65 72 73             	gs jb  6bfa <inet_sroute_get_id_list+0xb0a>
    6b87:	69 6f 6e 20 28 25 64 	imul   $0x64252820,0x6e(%edi),%ebp
    6b8e:	29 20                	sub    %esp,(%eax)
    6b90:	21 3d 20 34 00 54    	and    %edi,0x54003420
    6b96:	6f                   	outsl  %ds:(%esi),(%dx)
    6b97:	74 61                	je     6bfa <inet_sroute_get_id_list+0xb0a>
    6b99:	6c                   	insb   (%dx),%es:(%edi)
    6b9a:	20 4c 65 6e          	and    %cl,0x6e(%ebp,%eiz,2)
    6b9e:	67 74 68             	addr16 je 6c09 <inet_sroute_get_id_list+0xb19>
    6ba1:	20 74 6f 6f          	and    %dh,0x6f(%edi,%ebp,2)
    6ba5:	20 73 6d             	and    %dh,0x6d(%ebx)
    6ba8:	61                   	popa   
    6ba9:	6c                   	insb   (%dx),%es:(%edi)
    6baa:	6c                   	insb   (%dx),%es:(%edi)
    6bab:	20 28                	and    %ch,(%eax)
    6bad:	25 7a 75 29 00       	and    $0x29757a,%eax
    6bb2:	4f                   	dec    %edi
    6bb3:	75 74                	jne    6c29 <inet_sroute_get_id_list+0xb39>
    6bb5:	20 6f 66             	and    %ch,0x66(%edi)
    6bb8:	20 6d 65             	and    %ch,0x65(%ebp)
    6bbb:	6d                   	insl   (%dx),%es:(%edi)
    6bbc:	6f                   	outsl  %ds:(%esi),(%dx)
    6bbd:	72 79                	jb     6c38 <inet_sroute_get_id_list+0xb48>
    6bbf:	2e 00 69 6e          	add    %ch,%cs:0x6e(%ecx)
    6bc3:	65 74 5f             	gs je  6c25 <inet_sroute_get_id_list+0xb35>
    6bc6:	70 64                	jo     6c2c <inet_sroute_get_id_list+0xb3c>
    6bc8:	75 5f                	jne    6c29 <inet_sroute_get_id_list+0xb39>
    6bca:	64 65 63 6f 64       	fs arpl %bp,%gs:0x64(%edi)
    6bcf:	65 36 28 29          	gs sub %ch,%ss:(%ecx)
    6bd3:	00 56 65             	add    %dl,0x65(%esi)
    6bd6:	72 73                	jb     6c4b <inet_sroute_get_id_list+0xb5b>
    6bd8:	69 6f 6e 20 28 25 64 	imul   $0x64252820,0x6e(%edi),%ebp
    6bdf:	29 20                	sub    %esp,(%eax)
    6be1:	21 3d 20 36 00 66    	and    %edi,0x66003620
    6be7:	90                   	nop
    6be8:	6f                   	outsl  %ds:(%esi),(%dx)
    6be9:	66 66 73 20          	data16 data16 jae 6c0d <inet_sroute_get_id_list+0xb1d>
    6bed:	2f                   	das    
    6bee:	20 46 52             	and    %al,0x52(%esi)
    6bf1:	41                   	inc    %ecx
    6bf2:	47                   	inc    %edi
    6bf3:	5f                   	pop    %edi
    6bf4:	4f                   	dec    %edi
    6bf5:	46                   	inc    %esi
    6bf6:	46                   	inc    %esi
    6bf7:	53                   	push   %ebx
    6bf8:	5f                   	pop    %edi
    6bf9:	55                   	push   %ebp
    6bfa:	4e                   	dec    %esi
    6bfb:	49                   	dec    %ecx
    6bfc:	54                   	push   %esp
    6bfd:	20 3c 20             	and    %bh,(%eax,%eiz,1)
    6c00:	66 72 61             	data16 jb 6c64 <inet_sroute_get_id_list+0xb74>
    6c03:	67 6f                	outsl  %ds:(%si),(%dx)
    6c05:	66 66 5f             	data16 pop %di
    6c08:	6c                   	insb   (%dx),%es:(%edi)
    6c09:	69 6d 69 74 00 00 00 	imul   $0x74,0x69(%ebp),%ebp
    6c10:	54                   	push   %esp
    6c11:	6f                   	outsl  %ds:(%esi),(%dx)
    6c12:	74 61                	je     6c75 <inet_sroute_get_id_list+0xb85>
    6c14:	6c                   	insb   (%dx),%es:(%edi)
    6c15:	20 4c 65 6e          	and    %cl,0x6e(%ebp,%eiz,2)
    6c19:	67 74 68             	addr16 je 6c84 <inet_sroute_get_id_list+0xb94>
    6c1c:	20 3d 20 25 7a 75    	and    %bh,0x757a2520
    6c22:	20 3e                	and    %bh,(%esi)
    6c24:	20 50 44             	and    %dl,0x44(%eax)
    6c27:	55                   	push   %ebp
    6c28:	20 73 69             	and    %dh,0x69(%ebx)
    6c2b:	7a 65                	jp     6c92 <inet_sroute_get_id_list+0xba2>
    6c2d:	20 3d 20 25 7a 75    	and    %bh,0x757a2520
    6c33:	00 50 61             	add    %dl,0x61(%eax)
    6c36:	79 6c                	jns    6ca4 <inet_sroute_get_id_list+0xbb4>
    6c38:	6f                   	outsl  %ds:(%esi),(%dx)
    6c39:	61                   	popa   
    6c3a:	64 20 4c 65 6e       	and    %cl,%fs:0x6e(%ebp,%eiz,2)
    6c3f:	67 74 68             	addr16 je 6caa <inet_sroute_get_id_list+0xbba>
    6c42:	20 3d 20 25 7a 75    	and    %bh,0x757a2520
    6c48:	20 3e                	and    %bh,(%esi)
    6c4a:	20 50 44             	and    %dl,0x44(%eax)
    6c4d:	55                   	push   %ebp
    6c4e:	20 73 69             	and    %dh,0x69(%ebx)
    6c51:	7a 65                	jp     6cb8 <inet_sroute_get_id_list+0xbc8>
    6c53:	20 3d 20 25 7a 75    	and    %bh,0x757a2520
    6c59:	00 69 6e             	add    %ch,0x6e(%ecx)
    6c5c:	65 74 5f             	gs je  6cbe <inet_sroute_get_id_list+0xbce>
    6c5f:	72 65                	jb     6cc6 <inet_sroute_get_id_list+0xbd6>
    6c61:	61                   	popa   
    6c62:	73 73                	jae    6cd7 <inet_sroute_get_id_list+0xbe7>
    6c64:	5f                   	pop    %edi
    6c65:	71 75                	jno    6cdc <inet_sroute_get_id_list+0xbec>
    6c67:	65 75 65             	gs jne 6ccf <inet_sroute_get_id_list+0xbdf>
    6c6a:	5f                   	pop    %edi
    6c6b:	70 61                	jo     6cce <inet_sroute_get_id_list+0xbde>
    6c6d:	63 6b 65             	arpl   %bp,0x65(%ebx)
    6c70:	74 28                	je     6c9a <inet_sroute_get_id_list+0xbaa>
    6c72:	29 00                	sub    %eax,(%eax)
    6c74:	72 65                	jb     6cdb <inet_sroute_get_id_list+0xbeb>
    6c76:	61                   	popa   
    6c77:	73 73                	jae    6cec <inet_sroute_get_id_list+0xbfc>
    6c79:	2e 63 00             	arpl   %ax,%cs:(%eax)
    6c7c:	66 31 5f 6c          	xor    %bx,0x6c(%edi)
    6c80:	69 6e 6b 20 21 3d 20 	imul   $0x203d2120,0x6b(%esi),%ebp
    6c87:	4e                   	dec    %esi
    6c88:	55                   	push   %ebp
    6c89:	4c                   	dec    %esp
    6c8a:	4c                   	dec    %esp
    6c8b:	00 21                	add    %ah,(%ecx)
    6c8d:	6c                   	insb   (%dx),%es:(%edi)
    6c8e:	69 73 74 5f 65 6d 70 	imul   $0x706d655f,0x74(%ebx),%esi
    6c95:	74 79                	je     6d10 <inet_sroute_get_id_list+0xc20>
    6c97:	28 26                	sub    %ah,(%esi)
    6c99:	72 64                	jb     6cff <inet_sroute_get_id_list+0xc0f>
    6c9b:	67 2d 3e 66 72 61    	addr16 sub $0x6172663e,%eax
    6ca1:	67 73 29             	addr16 jae 6ccd <inet_sroute_get_id_list+0xbdd>
    6ca4:	00 66 72             	add    %ah,0x72(%esi)
    6ca7:	61                   	popa   
    6ca8:	67 20 21             	and    %ah,(%bx,%di)
    6cab:	3d 20 4e 55 4c       	cmp    $0x4c554e20,%eax
    6cb0:	4c                   	dec    %esp
    6cb1:	00 66 90             	add    %ah,-0x70(%esi)
    6cb4:	66 69 62 72 69 6c    	imul   $0x6c69,0x72(%edx),%sp
    6cba:	5f                   	pop    %edi
    6cbb:	6d                   	insl   (%dx),%es:(%edi)
    6cbc:	75 74                	jne    6d32 <inet_sroute_get_id_list+0xc42>
    6cbe:	65 78 5f             	gs js  6d20 <inet_sroute_get_id_list+0xc30>
    6cc1:	69 73 5f 6c 6f 63 6b 	imul   $0x6b636f6c,0x5f(%ebx),%esi
    6cc8:	65 64 28 26          	gs sub %ah,%fs:(%esi)
    6ccc:	72 65                	jb     6d33 <inet_sroute_get_id_list+0xc43>
    6cce:	61                   	popa   
    6ccf:	73 73                	jae    6d44 <inet_sroute_get_id_list+0xc54>
    6cd1:	5f                   	pop    %edi
    6cd2:	64 67 72 61          	fs addr16 jb 6d37 <inet_sroute_get_id_list+0xc47>
    6cd6:	6d                   	insl   (%dx),%es:(%edi)
    6cd7:	5f                   	pop    %edi
    6cd8:	6d                   	insl   (%dx),%es:(%edi)
    6cd9:	61                   	popa   
    6cda:	70 5f                	jo     6d3b <inet_sroute_get_id_list+0xc4b>
    6cdc:	6c                   	insb   (%dx),%es:(%edi)
    6cdd:	6f                   	outsl  %ds:(%esi),(%dx)
    6cde:	63 6b 29             	arpl   %bp,0x29(%ebx)
    6ce1:	00 00                	add    %al,(%eax)
    6ce3:	00 41 6c             	add    %al,0x6c(%ecx)
    6ce6:	6c                   	insb   (%dx),%es:(%edi)
    6ce7:	6f                   	outsl  %ds:(%esi),(%dx)
    6ce8:	63 61 74             	arpl   %sp,0x74(%ecx)
    6ceb:	69 6f 6e 20 66 61 69 	imul   $0x69616620,0x6e(%edi),%ebp
    6cf2:	6c                   	insb   (%dx),%es:(%edi)
    6cf3:	65 64 2c 20          	gs fs sub $0x20,%al
    6cf7:	70 61                	jo     6d5a <inet_sroute_get_id_list+0xc6a>
    6cf9:	63 6b 65             	arpl   %bp,0x65(%ebx)
    6cfc:	74 20                	je     6d1e <inet_sroute_get_id_list+0xc2e>
    6cfe:	64 72 6f             	fs jb  6d70 <inet_sroute_get_id_list+0xc80>
    6d01:	70 70                	jo     6d73 <inet_sroute_get_id_list+0xc83>
    6d03:	65 64 2e 00 90 46 61 	gs fs add %dl,%cs:0x6c696146(%eax)
    6d0a:	69 6c 
    6d0c:	65 64 20 61 6c       	gs and %ah,%fs:0x6c(%ecx)
    6d11:	6c                   	insb   (%dx),%es:(%edi)
    6d12:	6f                   	outsl  %ds:(%esi),(%dx)
    6d13:	63 61 74             	arpl   %sp,0x74(%ecx)
    6d16:	69 6e 67 20 73 74 61 	imul   $0x61747320,0x67(%esi),%ebp
    6d1d:	74 69                	je     6d88 <inet_sroute_get_id_list+0xc98>
    6d1f:	63 20                	arpl   %sp,(%eax)
    6d21:	72 6f                	jb     6d92 <inet_sroute_get_id_list+0xca2>
    6d23:	75 74                	jne    6d99 <inet_sroute_get_id_list+0xca9>
    6d25:	65 20 6f 62          	and    %ch,%gs:0x62(%edi)
    6d29:	6a 65                	push   $0x65
    6d2b:	63 74 2e 20          	arpl   %si,0x20(%esi,%ebp,1)
    6d2f:	4f                   	dec    %edi
    6d30:	75 74                	jne    6da6 <inet_sroute_get_id_list+0xcb6>
    6d32:	20 6f 66             	and    %ch,0x66(%edi)
    6d35:	20 6d 65             	and    %ch,0x65(%ebp)
    6d38:	6d                   	insl   (%dx),%es:(%edi)
    6d39:	6f                   	outsl  %ds:(%esi),(%dx)
    6d3a:	72 79                	jb     6db5 <inet_sroute_get_id_list+0xcc5>
    6d3c:	2e 00 00             	add    %al,%cs:(%eax)
    6d3f:	00 69 6e             	add    %ch,0x6e(%ecx)
    6d42:	65 74 5f             	gs je  6da4 <inet_sroute_get_id_list+0xcb4>
    6d45:	73 72                	jae    6db9 <inet_sroute_get_id_list+0xcc9>
    6d47:	6f                   	outsl  %ds:(%esi),(%dx)
    6d48:	75 74                	jne    6dbe <inet_sroute_get_id_list+0xcce>
    6d4a:	65 5f                	gs pop %edi
    6d4c:	66 69 6e 64 3a 20    	imul   $0x203a,0x64(%esi),%bp
    6d52:	66 6f                	outsw  %ds:(%esi),(%dx)
    6d54:	75 6e                	jne    6dc4 <inet_sroute_get_id_list+0xcd4>
    6d56:	64 20 63 61          	and    %ah,%fs:0x61(%ebx)
    6d5a:	6e                   	outsb  %ds:(%esi),(%dx)
    6d5b:	64 69 64 61 74 65 20 	imul   $0x70252065,%fs:0x74(%ecx,%eiz,2),%esp
    6d62:	25 70 
    6d64:	00 00                	add    %al,(%eax)
    6d66:	00 00                	add    %al,(%eax)
    6d68:	69 6e 65 74 5f 73 72 	imul   $0x72735f74,0x65(%esi),%ebp
    6d6f:	6f                   	outsl  %ds:(%esi),(%dx)
    6d70:	75 74                	jne    6de6 <inet_sroute_get_id_list+0xcf6>
    6d72:	65 5f                	gs pop %edi
    6d74:	66 69 6e 64 5f 62    	imul   $0x625f,0x64(%esi),%bp
    6d7a:	79 5f                	jns    6ddb <inet_sroute_get_id_list+0xceb>
    6d7c:	6e                   	outsb  %ds:(%esi),(%dx)
    6d7d:	61                   	popa   
    6d7e:	6d                   	insl   (%dx),%es:(%edi)
    6d7f:	65 28 27             	sub    %ah,%gs:(%edi)
    6d82:	25 73 27 29 00       	and    $0x292773,%eax
    6d87:	00 69 6e             	add    %ch,0x6e(%ecx)
    6d8a:	65 74 5f             	gs je  6dec <inet_sroute_get_id_list+0xcfc>
    6d8d:	73 72                	jae    6e01 <inet_sroute_get_id_list+0xd11>
    6d8f:	6f                   	outsl  %ds:(%esi),(%dx)
    6d90:	75 74                	jne    6e06 <inet_sroute_get_id_list+0xd16>
    6d92:	65 5f                	gs pop %edi
    6d94:	66 69 6e 64 5f 62    	imul   $0x625f,0x64(%esi),%bp
    6d9a:	79 5f                	jns    6dfb <inet_sroute_get_id_list+0xd0b>
    6d9c:	6e                   	outsb  %ds:(%esi),(%dx)
    6d9d:	61                   	popa   
    6d9e:	6d                   	insl   (%dx),%es:(%edi)
    6d9f:	65 3a 20             	cmp    %gs:(%eax),%ah
    6da2:	4e                   	dec    %esi
    6da3:	6f                   	outsl  %ds:(%esi),(%dx)
    6da4:	74 20                	je     6dc6 <inet_sroute_get_id_list+0xcd6>
    6da6:	66 6f                	outsw  %ds:(%esi),(%dx)
    6da8:	75 6e                	jne    6e18 <inet_sroute_get_id_list+0xd28>
    6daa:	64 00 69 6e          	add    %ch,%fs:0x6e(%ecx)
    6dae:	65 74 5f             	gs je  6e10 <inet_sroute_get_id_list+0xd20>
    6db1:	73 72                	jae    6e25 <inet_sroute_get_id_list+0xd35>
    6db3:	6f                   	outsl  %ds:(%esi),(%dx)
    6db4:	75 74                	jne    6e2a <inet_sroute_get_id_list+0xd3a>
    6db6:	65 5f                	gs pop %edi
    6db8:	66 69 6e 64 5f 62    	imul   $0x625f,0x64(%esi),%bp
    6dbe:	79 5f                	jns    6e1f <inet_sroute_get_id_list+0xd2f>
    6dc0:	6e                   	outsb  %ds:(%esi),(%dx)
    6dc1:	61                   	popa   
    6dc2:	6d                   	insl   (%dx),%es:(%edi)
    6dc3:	65 3a 20             	cmp    %gs:(%eax),%ah
    6dc6:	66 6f                	outsw  %ds:(%esi),(%dx)
    6dc8:	75 6e                	jne    6e38 <inet_sroute_get_id_list+0xd48>
    6dca:	64 20 25 70 00 00 69 	and    %ah,%fs:0x69000070
    6dd1:	6e                   	outsb  %ds:(%esi),(%dx)
    6dd2:	65 74 5f             	gs je  6e34 <inet_sroute_get_id_list+0xd44>
    6dd5:	73 72                	jae    6e49 <inet_sroute_get_id_list+0xd59>
    6dd7:	6f                   	outsl  %ds:(%esi),(%dx)
    6dd8:	75 74                	jne    6e4e <inet_sroute_get_id_list+0xd5e>
    6dda:	65 5f                	gs pop %edi
    6ddc:	66 69 6e 64 3a 20    	imul   $0x203a,0x64(%esi),%bp
    6de2:	4e                   	dec    %esi
    6de3:	6f                   	outsl  %ds:(%esi),(%dx)
    6de4:	74 20                	je     6e06 <inet_sroute_get_id_list+0xd16>
    6de6:	66 6f                	outsw  %ds:(%esi),(%dx)
    6de8:	75 6e                	jne    6e58 <inet_sroute_get_id_list+0xd68>
    6dea:	64 00 69 6e          	add    %ch,%fs:0x6e(%ecx)
    6dee:	65 74 5f             	gs je  6e50 <inet_sroute_get_id_list+0xd60>
    6df1:	73 72                	jae    6e65 <inet_sroute_get_id_list+0xd75>
    6df3:	6f                   	outsl  %ds:(%esi),(%dx)
    6df4:	75 74                	jne    6e6a <inet_sroute_get_id_list+0xd7a>
    6df6:	65 5f                	gs pop %edi
    6df8:	67 65 74 5f          	addr16 gs je 6e5b <inet_sroute_get_id_list+0xd6b>
    6dfc:	62 79 5f             	bound  %edi,0x5f(%ecx)
    6dff:	69 64 28 25 7a 75 29 	imul   $0x29757a,0x25(%eax,%ebp,1),%esp
    6e06:	00 

Disassembly of section .plt:

00007050 <__main@plt-0x10>:
    7050:	ff 35 50 92 00 00    	pushl  0x9250
    7056:	ff 25 54 92 00 00    	jmp    *0x9254
    705c:	00 00                	add    %al,(%eax)
	...

00007060 <__main@plt>:
    7060:	ff 25 58 92 00 00    	jmp    *0x9258
    7066:	68 00 00 00 00       	push   $0x0
    706b:	e9 e0 ff ff ff       	jmp    7050 <inet_sroute_get_id_list+0xf60>

00007070 <task_retval@plt>:
    7070:	ff 25 5c 92 00 00    	jmp    *0x925c
    7076:	68 08 00 00 00       	push   $0x8
    707b:	e9 d0 ff ff ff       	jmp    7050 <inet_sroute_get_id_list+0xf60>

00007080 <loc_service_connect@plt>:
    7080:	ff 25 60 92 00 00    	jmp    *0x9260
    7086:	68 10 00 00 00       	push   $0x10
    708b:	e9 c0 ff ff ff       	jmp    7050 <inet_sroute_get_id_list+0xf60>

00007090 <printf@plt>:
    7090:	ff 25 64 92 00 00    	jmp    *0x9264
    7096:	68 18 00 00 00       	push   $0x18
    709b:	e9 b0 ff ff ff       	jmp    7050 <inet_sroute_get_id_list+0xf60>

000070a0 <async_hangup@plt>:
    70a0:	ff 25 68 92 00 00    	jmp    *0x9268
    70a6:	68 20 00 00 00       	push   $0x20
    70ab:	e9 a0 ff ff ff       	jmp    7050 <inet_sroute_get_id_list+0xf60>

000070b0 <addr48_solicited_node@plt>:
    70b0:	ff 25 6c 92 00 00    	jmp    *0x926c
    70b6:	68 28 00 00 00       	push   $0x28
    70bb:	e9 90 ff ff ff       	jmp    7050 <inet_sroute_get_id_list+0xf60>

000070c0 <async_wait_for@plt>:
    70c0:	ff 25 70 92 00 00    	jmp    *0x9270
    70c6:	68 30 00 00 00       	push   $0x30
    70cb:	e9 80 ff ff ff       	jmp    7050 <inet_sroute_get_id_list+0xf60>

000070d0 <log_init@plt>:
    70d0:	ff 25 74 92 00 00    	jmp    *0x9274
    70d6:	68 38 00 00 00       	push   $0x38
    70db:	e9 70 ff ff ff       	jmp    7050 <inet_sroute_get_id_list+0xf60>

000070e0 <async_data_write_start@plt>:
    70e0:	ff 25 78 92 00 00    	jmp    *0x9278
    70e6:	68 40 00 00 00       	push   $0x40
    70eb:	e9 60 ff ff ff       	jmp    7050 <inet_sroute_get_id_list+0xf60>

000070f0 <loc_service_register@plt>:
    70f0:	ff 25 7c 92 00 00    	jmp    *0x927c
    70f6:	68 48 00 00 00       	push   $0x48
    70fb:	e9 50 ff ff ff       	jmp    7050 <inet_sroute_get_id_list+0xf60>

00007100 <fibril_mutex_is_locked@plt>:
    7100:	ff 25 80 92 00 00    	jmp    *0x9280
    7106:	68 50 00 00 00       	push   $0x50
    710b:	e9 40 ff ff ff       	jmp    7050 <inet_sroute_get_id_list+0xf60>

00007110 <inet_addr_set6@plt>:
    7110:	ff 25 84 92 00 00    	jmp    *0x9284
    7116:	68 58 00 00 00       	push   $0x58
    711b:	e9 30 ff ff ff       	jmp    7050 <inet_sroute_get_id_list+0xf60>

00007120 <async_data_read_finalize@plt>:
    7120:	ff 25 88 92 00 00    	jmp    *0x9288
    7126:	68 60 00 00 00       	push   $0x60
    712b:	e9 20 ff ff ff       	jmp    7050 <inet_sroute_get_id_list+0xf60>

00007130 <inet_naddr_set6@plt>:
    7130:	ff 25 8c 92 00 00    	jmp    *0x928c
    7136:	68 68 00 00 00       	push   $0x68
    713b:	e9 10 ff ff ff       	jmp    7050 <inet_sroute_get_id_list+0xf60>

00007140 <inet_naddr_compare_mask@plt>:
    7140:	ff 25 90 92 00 00    	jmp    *0x9290
    7146:	68 70 00 00 00       	push   $0x70
    714b:	e9 00 ff ff ff       	jmp    7050 <inet_sroute_get_id_list+0xf60>

00007150 <memcpy@plt>:
    7150:	ff 25 94 92 00 00    	jmp    *0x9294
    7156:	68 78 00 00 00       	push   $0x78
    715b:	e9 f0 fe ff ff       	jmp    7050 <inet_sroute_get_id_list+0xf60>

00007160 <inet_naddr_addr@plt>:
    7160:	ff 25 98 92 00 00    	jmp    *0x9298
    7166:	68 80 00 00 00       	push   $0x80
    716b:	e9 e0 fe ff ff       	jmp    7050 <inet_sroute_get_id_list+0xf60>

00007170 <addr128@plt>:
    7170:	ff 25 9c 92 00 00    	jmp    *0x929c
    7176:	68 88 00 00 00       	push   $0x88
    717b:	e9 d0 fe ff ff       	jmp    7050 <inet_sroute_get_id_list+0xf60>

00007180 <inet_naddr6@plt>:
    7180:	ff 25 a0 92 00 00    	jmp    *0x92a0
    7186:	68 90 00 00 00       	push   $0x90
    718b:	e9 c0 fe ff ff       	jmp    7050 <inet_sroute_get_id_list+0xf60>

00007190 <malloc@plt>:
    7190:	ff 25 a4 92 00 00    	jmp    *0x92a4
    7196:	68 98 00 00 00       	push   $0x98
    719b:	e9 b0 fe ff ff       	jmp    7050 <inet_sroute_get_id_list+0xf60>

000071a0 <iplink_get_userptr@plt>:
    71a0:	ff 25 a8 92 00 00    	jmp    *0x92a8
    71a6:	68 a0 00 00 00       	push   $0xa0
    71ab:	e9 a0 fe ff ff       	jmp    7050 <inet_sroute_get_id_list+0xf60>

000071b0 <host2addr128_t_be@plt>:
    71b0:	ff 25 ac 92 00 00    	jmp    *0x92ac
    71b6:	68 a8 00 00 00       	push   $0xa8
    71bb:	e9 90 fe ff ff       	jmp    7050 <inet_sroute_get_id_list+0xf60>

000071c0 <async_answer_0@plt>:
    71c0:	ff 25 b0 92 00 00    	jmp    *0x92b0
    71c6:	68 b0 00 00 00       	push   $0xb0
    71cb:	e9 80 fe ff ff       	jmp    7050 <inet_sroute_get_id_list+0xf60>

000071d0 <async_send_fast@plt>:
    71d0:	ff 25 b4 92 00 00    	jmp    *0x92b4
    71d6:	68 b8 00 00 00       	push   $0xb8
    71db:	e9 70 fe ff ff       	jmp    7050 <inet_sroute_get_id_list+0xf60>

000071e0 <log_msg@plt>:
    71e0:	ff 25 b8 92 00 00    	jmp    *0x92b8
    71e6:	68 c0 00 00 00       	push   $0xc0
    71eb:	e9 60 fe ff ff       	jmp    7050 <inet_sroute_get_id_list+0xf60>

000071f0 <inet_naddr_any@plt>:
    71f0:	ff 25 bc 92 00 00    	jmp    *0x92bc
    71f6:	68 c8 00 00 00       	push   $0xc8
    71fb:	e9 50 fe ff ff       	jmp    7050 <inet_sroute_get_id_list+0xf60>

00007200 <async_exchange_end@plt>:
    7200:	ff 25 c0 92 00 00    	jmp    *0x92c0
    7206:	68 d0 00 00 00       	push   $0xd0
    720b:	e9 40 fe ff ff       	jmp    7050 <inet_sroute_get_id_list+0xf60>

00007210 <loc_service_get_name@plt>:
    7210:	ff 25 c4 92 00 00    	jmp    *0x92c4
    7216:	68 d8 00 00 00       	push   $0xd8
    721b:	e9 30 fe ff ff       	jmp    7050 <inet_sroute_get_id_list+0xf60>

00007220 <inet_addr_any@plt>:
    7220:	ff 25 c8 92 00 00    	jmp    *0x92c8
    7226:	68 e0 00 00 00       	push   $0xe0
    722b:	e9 20 fe ff ff       	jmp    7050 <inet_sroute_get_id_list+0xf60>

00007230 <assert_abort@plt>:
    7230:	ff 25 cc 92 00 00    	jmp    *0x92cc
    7236:	68 e8 00 00 00       	push   $0xe8
    723b:	e9 10 fe ff ff       	jmp    7050 <inet_sroute_get_id_list+0xf60>

00007240 <calloc@plt>:
    7240:	ff 25 d0 92 00 00    	jmp    *0x92d0
    7246:	68 f0 00 00 00       	push   $0xf0
    724b:	e9 00 fe ff ff       	jmp    7050 <inet_sroute_get_id_list+0xf60>

00007250 <fibril_condvar_wait_timeout@plt>:
    7250:	ff 25 d4 92 00 00    	jmp    *0x92d4
    7256:	68 f8 00 00 00       	push   $0xf8
    725b:	e9 f0 fd ff ff       	jmp    7050 <inet_sroute_get_id_list+0xf60>

00007260 <iplink_open@plt>:
    7260:	ff 25 d8 92 00 00    	jmp    *0x92d8
    7266:	68 00 01 00 00       	push   $0x100
    726b:	e9 e0 fd ff ff       	jmp    7050 <inet_sroute_get_id_list+0xf60>

00007270 <iplink_get_mac48@plt>:
    7270:	ff 25 dc 92 00 00    	jmp    *0x92dc
    7276:	68 08 01 00 00       	push   $0x108
    727b:	e9 d0 fd ff ff       	jmp    7050 <inet_sroute_get_id_list+0xf60>

00007280 <fibril_condvar_broadcast@plt>:
    7280:	ff 25 e0 92 00 00    	jmp    *0x92e0
    7286:	68 10 01 00 00       	push   $0x110
    728b:	e9 c0 fd ff ff       	jmp    7050 <inet_sroute_get_id_list+0xf60>

00007290 <inet_addr_set@plt>:
    7290:	ff 25 e4 92 00 00    	jmp    *0x92e4
    7296:	68 18 01 00 00       	push   $0x118
    729b:	e9 b0 fd ff ff       	jmp    7050 <inet_sroute_get_id_list+0xf60>

000072a0 <fibril_mutex_unlock@plt>:
    72a0:	ff 25 e8 92 00 00    	jmp    *0x92e8
    72a6:	68 20 01 00 00       	push   $0x120
    72ab:	e9 a0 fd ff ff       	jmp    7050 <inet_sroute_get_id_list+0xf60>

000072b0 <str_dup@plt>:
    72b0:	ff 25 ec 92 00 00    	jmp    *0x92ec
    72b6:	68 28 01 00 00       	push   $0x128
    72bb:	e9 90 fd ff ff       	jmp    7050 <inet_sroute_get_id_list+0xf60>

000072c0 <iplink_send6@plt>:
    72c0:	ff 25 f0 92 00 00    	jmp    *0x92f0
    72c6:	68 30 01 00 00       	push   $0x130
    72cb:	e9 80 fd ff ff       	jmp    7050 <inet_sroute_get_id_list+0xf60>

000072d0 <str_cmp@plt>:
    72d0:	ff 25 f4 92 00 00    	jmp    *0x92f4
    72d6:	68 38 01 00 00       	push   $0x138
    72db:	e9 70 fd ff ff       	jmp    7050 <inet_sroute_get_id_list+0xf60>

000072e0 <inet_naddr@plt>:
    72e0:	ff 25 f8 92 00 00    	jmp    *0x92f8
    72e6:	68 40 01 00 00       	push   $0x140
    72eb:	e9 60 fd ff ff       	jmp    7050 <inet_sroute_get_id_list+0xf60>

000072f0 <inet_addr_get@plt>:
    72f0:	ff 25 fc 92 00 00    	jmp    *0x92fc
    72f6:	68 48 01 00 00       	push   $0x148
    72fb:	e9 50 fd ff ff       	jmp    7050 <inet_sroute_get_id_list+0xf60>

00007300 <memset@plt>:
    7300:	ff 25 00 93 00 00    	jmp    *0x9300
    7306:	68 50 01 00 00       	push   $0x150
    730b:	e9 40 fd ff ff       	jmp    7050 <inet_sroute_get_id_list+0xf60>

00007310 <async_data_read_receive@plt>:
    7310:	ff 25 04 93 00 00    	jmp    *0x9304
    7316:	68 58 01 00 00       	push   $0x158
    731b:	e9 30 fd ff ff       	jmp    7050 <inet_sroute_get_id_list+0xf60>

00007320 <inet_naddr_get@plt>:
    7320:	ff 25 08 93 00 00    	jmp    *0x9308
    7326:	68 60 01 00 00       	push   $0x160
    732b:	e9 20 fd ff ff       	jmp    7050 <inet_sroute_get_id_list+0xf60>

00007330 <iplink_close@plt>:
    7330:	ff 25 0c 93 00 00    	jmp    *0x930c
    7336:	68 68 01 00 00       	push   $0x168
    733b:	e9 10 fd ff ff       	jmp    7050 <inet_sroute_get_id_list+0xf60>

00007340 <iplink_addr_add@plt>:
    7340:	ff 25 10 93 00 00    	jmp    *0x9310
    7346:	68 70 01 00 00       	push   $0x170
    734b:	e9 00 fd ff ff       	jmp    7050 <inet_sroute_get_id_list+0xf60>

00007350 <iplink_send@plt>:
    7350:	ff 25 14 93 00 00    	jmp    *0x9314
    7356:	68 78 01 00 00       	push   $0x178
    735b:	e9 f0 fc ff ff       	jmp    7050 <inet_sroute_get_id_list+0xf60>

00007360 <loc_server_register@plt>:
    7360:	ff 25 18 93 00 00    	jmp    *0x9318
    7366:	68 80 01 00 00       	push   $0x180
    736b:	e9 e0 fc ff ff       	jmp    7050 <inet_sroute_get_id_list+0xf60>

00007370 <inet_addr_compare@plt>:
    7370:	ff 25 1c 93 00 00    	jmp    *0x931c
    7376:	68 88 01 00 00       	push   $0x188
    737b:	e9 d0 fc ff ff       	jmp    7050 <inet_sroute_get_id_list+0xf60>

00007380 <async_get_call_timeout@plt>:
    7380:	ff 25 20 93 00 00    	jmp    *0x9320
    7386:	68 90 01 00 00       	push   $0x190
    738b:	e9 c0 fc ff ff       	jmp    7050 <inet_sroute_get_id_list+0xf60>

00007390 <str_size@plt>:
    7390:	ff 25 24 93 00 00    	jmp    *0x9324
    7396:	68 98 01 00 00       	push   $0x198
    739b:	e9 b0 fc ff ff       	jmp    7050 <inet_sroute_get_id_list+0xf60>

000073a0 <list_count@plt>:
    73a0:	ff 25 28 93 00 00    	jmp    *0x9328
    73a6:	68 a0 01 00 00       	push   $0x1a0
    73ab:	e9 a0 fc ff ff       	jmp    7050 <inet_sroute_get_id_list+0xf60>

000073b0 <inet_naddr_compare@plt>:
    73b0:	ff 25 2c 93 00 00    	jmp    *0x932c
    73b6:	68 a8 01 00 00       	push   $0x1a8
    73bb:	e9 90 fc ff ff       	jmp    7050 <inet_sroute_get_id_list+0xf60>

000073c0 <async_answer_1@plt>:
    73c0:	ff 25 30 93 00 00    	jmp    *0x9330
    73c6:	68 b0 01 00 00       	push   $0x1b0
    73cb:	e9 80 fc ff ff       	jmp    7050 <inet_sroute_get_id_list+0xf60>

000073d0 <async_exchange_begin@plt>:
    73d0:	ff 25 34 93 00 00    	jmp    *0x9334
    73d6:	68 b8 01 00 00       	push   $0x1b8
    73db:	e9 70 fc ff ff       	jmp    7050 <inet_sroute_get_id_list+0xf60>

000073e0 <addr48@plt>:
    73e0:	ff 25 38 93 00 00    	jmp    *0x9338
    73e6:	68 c0 01 00 00       	push   $0x1c0
    73eb:	e9 60 fc ff ff       	jmp    7050 <inet_sroute_get_id_list+0xf60>

000073f0 <async_create_port@plt>:
    73f0:	ff 25 3c 93 00 00    	jmp    *0x933c
    73f6:	68 c8 01 00 00       	push   $0x1c8
    73fb:	e9 50 fc ff ff       	jmp    7050 <inet_sroute_get_id_list+0xf60>

00007400 <async_data_write_finalize@plt>:
    7400:	ff 25 40 93 00 00    	jmp    *0x9340
    7406:	68 d0 01 00 00       	push   $0x1d0
    740b:	e9 40 fc ff ff       	jmp    7050 <inet_sroute_get_id_list+0xf60>

00007410 <async_data_write_accept@plt>:
    7410:	ff 25 44 93 00 00    	jmp    *0x9344
    7416:	68 d8 01 00 00       	push   $0x1d8
    741b:	e9 30 fc ff ff       	jmp    7050 <inet_sroute_get_id_list+0xf60>

00007420 <addr128_t_be2host@plt>:
    7420:	ff 25 48 93 00 00    	jmp    *0x9348
    7426:	68 e0 01 00 00       	push   $0x1e0
    742b:	e9 20 fc ff ff       	jmp    7050 <inet_sroute_get_id_list+0xf60>

00007430 <async_forget@plt>:
    7430:	ff 25 4c 93 00 00    	jmp    *0x934c
    7436:	68 e8 01 00 00       	push   $0x1e8
    743b:	e9 10 fc ff ff       	jmp    7050 <inet_sroute_get_id_list+0xf60>

00007440 <addr128_compare@plt>:
    7440:	ff 25 50 93 00 00    	jmp    *0x9350
    7446:	68 f0 01 00 00       	push   $0x1f0
    744b:	e9 00 fc ff ff       	jmp    7050 <inet_sroute_get_id_list+0xf60>

00007450 <iplink_get_mtu@plt>:
    7450:	ff 25 54 93 00 00    	jmp    *0x9354
    7456:	68 f8 01 00 00       	push   $0x1f8
    745b:	e9 f0 fb ff ff       	jmp    7050 <inet_sroute_get_id_list+0xf60>

00007460 <fibril_switch@plt>:
    7460:	ff 25 58 93 00 00    	jmp    *0x9358
    7466:	68 00 02 00 00       	push   $0x200
    746b:	e9 e0 fb ff ff       	jmp    7050 <inet_sroute_get_id_list+0xf60>

00007470 <__syscall_fast@plt>:
    7470:	ff 25 5c 93 00 00    	jmp    *0x935c
    7476:	68 08 02 00 00       	push   $0x208
    747b:	e9 d0 fb ff ff       	jmp    7050 <inet_sroute_get_id_list+0xf60>

00007480 <async_data_write_receive@plt>:
    7480:	ff 25 60 93 00 00    	jmp    *0x9360
    7486:	68 10 02 00 00       	push   $0x210
    748b:	e9 c0 fb ff ff       	jmp    7050 <inet_sroute_get_id_list+0xf60>

00007490 <async_callback_receive@plt>:
    7490:	ff 25 64 93 00 00    	jmp    *0x9364
    7496:	68 18 02 00 00       	push   $0x218
    749b:	e9 b0 fb ff ff       	jmp    7050 <inet_sroute_get_id_list+0xf60>

000074a0 <free@plt>:
    74a0:	ff 25 68 93 00 00    	jmp    *0x9368
    74a6:	68 20 02 00 00       	push   $0x220
    74ab:	e9 a0 fb ff ff       	jmp    7050 <inet_sroute_get_id_list+0xf60>

000074b0 <fibril_mutex_lock@plt>:
    74b0:	ff 25 6c 93 00 00    	jmp    *0x936c
    74b6:	68 28 02 00 00       	push   $0x228
    74bb:	e9 90 fb ff ff       	jmp    7050 <inet_sroute_get_id_list+0xf60>
