
inetsrv:     file format elf32-i386


Disassembly of section .init:

000010f4 <__entry>:
    10f4:	66 8c d0             	mov    %ss,%ax
    10f7:	8e d8                	mov    %eax,%ds
    10f9:	8e c0                	mov    %eax,%es
    10fb:	8e e0                	mov    %eax,%fs
    10fd:	b8 01 00 00 00       	mov    $0x1,%eax
    1102:	0f a2                	cpuid  
    1104:	0f ba e2 0b          	bt     $0xb,%edx
    1108:	73 0c                	jae    1116 <__entry+0x22>
    110a:	8d 05 70 93 00 00    	lea    0x9370,%eax
    1110:	c7 00 70 74 00 00    	movl   $0x7470,(%eax)
    1116:	6a 00                	push   $0x0
    1118:	6a 00                	push   $0x0
    111a:	89 e5                	mov    %esp,%ebp
    111c:	57                   	push   %edi
    111d:	e8 3e 5f 00 00       	call   7060 <__main@plt>

Disassembly of section .text:

00001130 <inet_addrobj_new>:
    1130:	55                   	push   %ebp
    1131:	89 e5                	mov    %esp,%ebp
    1133:	53                   	push   %ebx
    1134:	83 ec 0c             	sub    $0xc,%esp
    1137:	6a 2c                	push   $0x2c
    1139:	6a 01                	push   $0x1
    113b:	e8 00 61 00 00       	call   7240 <calloc@plt>
    1140:	83 c4 10             	add    $0x10,%esp
    1143:	89 c3                	mov    %eax,%ebx
    1145:	85 c0                	test   %eax,%eax
    1147:	74 3f                	je     1188 <inet_addrobj_new+0x58>
    1149:	83 ec 0c             	sub    $0xc,%esp
    114c:	c7 00 00 00 00 00    	movl   $0x0,(%eax)
    1152:	c7 40 04 00 00 00 00 	movl   $0x0,0x4(%eax)
    1159:	68 28 91 00 00       	push   $0x9128
    115e:	e8 4d 63 00 00       	call   74b0 <fibril_mutex_lock@plt>
    1163:	a1 78 93 00 00       	mov    0x9378,%eax
    1168:	c7 04 24 28 91 00 00 	movl   $0x9128,(%esp)
    116f:	40                   	inc    %eax
    1170:	a3 78 93 00 00       	mov    %eax,0x9378
    1175:	89 43 08             	mov    %eax,0x8(%ebx)
    1178:	e8 23 61 00 00       	call   72a0 <fibril_mutex_unlock@plt>
    117d:	83 c4 10             	add    $0x10,%esp
    1180:	89 d8                	mov    %ebx,%eax
    1182:	8b 5d fc             	mov    -0x4(%ebp),%ebx
    1185:	c9                   	leave  
    1186:	c3                   	ret    
    1187:	90                   	nop
    1188:	50                   	push   %eax
    1189:	68 84 61 00 00       	push   $0x6184
    118e:	6a 01                	push   $0x1
    1190:	6a ff                	push   $0xffffffff
    1192:	e8 49 60 00 00       	call   71e0 <log_msg@plt>
    1197:	83 c4 10             	add    $0x10,%esp
    119a:	eb e4                	jmp    1180 <inet_addrobj_new+0x50>
    119c:	8d 74 26 00          	lea    0x0(%esi,%eiz,1),%esi

000011a0 <inet_addrobj_delete>:
    11a0:	55                   	push   %ebp
    11a1:	89 e5                	mov    %esp,%ebp
    11a3:	53                   	push   %ebx
    11a4:	50                   	push   %eax
    11a5:	8b 5d 08             	mov    0x8(%ebp),%ebx
    11a8:	8b 43 28             	mov    0x28(%ebx),%eax
    11ab:	85 c0                	test   %eax,%eax
    11ad:	74 0c                	je     11bb <inet_addrobj_delete+0x1b>
    11af:	83 ec 0c             	sub    $0xc,%esp
    11b2:	50                   	push   %eax
    11b3:	e8 e8 62 00 00       	call   74a0 <free@plt>
    11b8:	83 c4 10             	add    $0x10,%esp
    11bb:	89 5d 08             	mov    %ebx,0x8(%ebp)
    11be:	8b 5d fc             	mov    -0x4(%ebp),%ebx
    11c1:	c9                   	leave  
    11c2:	e9 d9 62 00 00       	jmp    74a0 <free@plt>
    11c7:	89 f6                	mov    %esi,%esi
    11c9:	8d bc 27 00 00 00 00 	lea    0x0(%edi,%eiz,1),%edi

000011d0 <inet_addrobj_add>:
    11d0:	55                   	push   %ebp
    11d1:	89 e5                	mov    %esp,%ebp
    11d3:	57                   	push   %edi
    11d4:	56                   	push   %esi
    11d5:	53                   	push   %ebx
    11d6:	83 ec 28             	sub    $0x28,%esp
    11d9:	8b 75 08             	mov    0x8(%ebp),%esi
    11dc:	68 28 91 00 00       	push   $0x9128
    11e1:	e8 ca 62 00 00       	call   74b0 <fibril_mutex_lock@plt>
    11e6:	8b 46 28             	mov    0x28(%esi),%eax
    11e9:	8b 7e 24             	mov    0x24(%esi),%edi
    11ec:	89 45 e4             	mov    %eax,-0x1c(%ebp)
    11ef:	c7 04 24 28 91 00 00 	movl   $0x9128,(%esp)
    11f6:	e8 05 5f 00 00       	call   7100 <fibril_mutex_is_locked@plt>
    11fb:	83 c4 10             	add    $0x10,%esp
    11fe:	84 c0                	test   %al,%al
    1200:	0f 84 ce 00 00 00    	je     12d4 <inet_addrobj_add+0x104>
    1206:	83 ec 0c             	sub    $0xc,%esp
    1209:	8b 47 0c             	mov    0xc(%edi),%eax
    120c:	50                   	push   %eax
    120d:	8b 45 e4             	mov    -0x1c(%ebp),%eax
    1210:	50                   	push   %eax
    1211:	68 e0 61 00 00       	push   $0x61e0
    1216:	6a 04                	push   $0x4
    1218:	6a ff                	push   $0xffffffff
    121a:	e8 c1 5f 00 00       	call   71e0 <log_msg@plt>
    121f:	8b 1d 24 91 00 00    	mov    0x9124,%ebx
    1225:	83 c4 20             	add    $0x20,%esp
    1228:	81 fb 20 91 00 00    	cmp    $0x9120,%ebx
    122e:	75 13                	jne    1243 <inet_addrobj_add+0x73>
    1230:	eb 5e                	jmp    1290 <inet_addrobj_add+0xc0>
    1232:	8d b6 00 00 00 00    	lea    0x0(%esi),%esi
    1238:	8b 5b 04             	mov    0x4(%ebx),%ebx
    123b:	81 fb 20 91 00 00    	cmp    $0x9120,%ebx
    1241:	74 4d                	je     1290 <inet_addrobj_add+0xc0>
    1243:	3b 7b 24             	cmp    0x24(%ebx),%edi
    1246:	75 f0                	jne    1238 <inet_addrobj_add+0x68>
    1248:	8b 55 e4             	mov    -0x1c(%ebp),%edx
    124b:	50                   	push   %eax
    124c:	50                   	push   %eax
    124d:	52                   	push   %edx
    124e:	8b 4b 28             	mov    0x28(%ebx),%ecx
    1251:	51                   	push   %ecx
    1252:	e8 79 60 00 00       	call   72d0 <str_cmp@plt>
    1257:	83 c4 10             	add    $0x10,%esp
    125a:	85 c0                	test   %eax,%eax
    125c:	75 da                	jne    1238 <inet_addrobj_add+0x68>
    125e:	53                   	push   %ebx
    125f:	68 3c 62 00 00       	push   $0x623c
    1264:	6a 04                	push   $0x4
    1266:	6a ff                	push   $0xffffffff
    1268:	e8 73 5f 00 00       	call   71e0 <log_msg@plt>
    126d:	c7 04 24 28 91 00 00 	movl   $0x9128,(%esp)
    1274:	e8 27 60 00 00       	call   72a0 <fibril_mutex_unlock@plt>
    1279:	83 c4 10             	add    $0x10,%esp
    127c:	8d 65 f4             	lea    -0xc(%ebp),%esp
    127f:	b8 f7 ff ff ff       	mov    $0xfffffff7,%eax
    1284:	5b                   	pop    %ebx
    1285:	5e                   	pop    %esi
    1286:	5f                   	pop    %edi
    1287:	5d                   	pop    %ebp
    1288:	c3                   	ret    
    1289:	8d b4 26 00 00 00 00 	lea    0x0(%esi,%eiz,1),%esi
    1290:	53                   	push   %ebx
    1291:	68 10 62 00 00       	push   $0x6210
    1296:	6a 04                	push   $0x4
    1298:	6a ff                	push   $0xffffffff
    129a:	e8 41 5f 00 00       	call   71e0 <log_msg@plt>
    129f:	a1 20 91 00 00       	mov    0x9120,%eax
    12a4:	89 06                	mov    %eax,(%esi)
    12a6:	c7 46 04 20 91 00 00 	movl   $0x9120,0x4(%esi)
    12ad:	a1 20 91 00 00       	mov    0x9120,%eax
    12b2:	89 35 20 91 00 00    	mov    %esi,0x9120
    12b8:	89 70 04             	mov    %esi,0x4(%eax)
    12bb:	c7 04 24 28 91 00 00 	movl   $0x9128,(%esp)
    12c2:	e8 d9 5f 00 00       	call   72a0 <fibril_mutex_unlock@plt>
    12c7:	83 c4 10             	add    $0x10,%esp
    12ca:	8d 65 f4             	lea    -0xc(%ebp),%esp
    12cd:	31 c0                	xor    %eax,%eax
    12cf:	5b                   	pop    %ebx
    12d0:	5e                   	pop    %esi
    12d1:	5f                   	pop    %edi
    12d2:	5d                   	pop    %ebp
    12d3:	c3                   	ret    
    12d4:	50                   	push   %eax
    12d5:	68 97 00 00 00       	push   $0x97
    12da:	68 8e 62 00 00       	push   $0x628e
    12df:	68 b8 61 00 00       	push   $0x61b8
    12e4:	e8 47 5f 00 00       	call   7230 <assert_abort@plt>
    12e9:	8d b4 26 00 00 00 00 	lea    0x0(%esi,%eiz,1),%esi

000012f0 <inet_addrobj_remove>:
    12f0:	55                   	push   %ebp
    12f1:	89 e5                	mov    %esp,%ebp
    12f3:	53                   	push   %ebx
    12f4:	83 ec 10             	sub    $0x10,%esp
    12f7:	8b 5d 08             	mov    0x8(%ebp),%ebx
    12fa:	68 28 91 00 00       	push   $0x9128
    12ff:	e8 ac 61 00 00       	call   74b0 <fibril_mutex_lock@plt>
    1304:	8b 13                	mov    (%ebx),%edx
    1306:	83 c4 10             	add    $0x10,%esp
    1309:	85 d2                	test   %edx,%edx
    130b:	74 0e                	je     131b <inet_addrobj_remove+0x2b>
    130d:	8b 43 04             	mov    0x4(%ebx),%eax
    1310:	85 c0                	test   %eax,%eax
    1312:	74 07                	je     131b <inet_addrobj_remove+0x2b>
    1314:	89 10                	mov    %edx,(%eax)
    1316:	8b 13                	mov    (%ebx),%edx
    1318:	89 42 04             	mov    %eax,0x4(%edx)
    131b:	c7 03 00 00 00 00    	movl   $0x0,(%ebx)
    1321:	c7 43 04 00 00 00 00 	movl   $0x0,0x4(%ebx)
    1328:	8b 5d fc             	mov    -0x4(%ebp),%ebx
    132b:	c7 45 08 28 91 00 00 	movl   $0x9128,0x8(%ebp)
    1332:	c9                   	leave  
    1333:	e9 68 5f 00 00       	jmp    72a0 <fibril_mutex_unlock@plt>
    1338:	90                   	nop
    1339:	8d b4 26 00 00 00 00 	lea    0x0(%esi,%eiz,1),%esi

00001340 <inet_addrobj_find>:
    1340:	55                   	push   %ebp
    1341:	89 e5                	mov    %esp,%ebp
    1343:	57                   	push   %edi
    1344:	56                   	push   %esi
    1345:	53                   	push   %ebx
    1346:	83 ec 18             	sub    $0x18,%esp
    1349:	8b 7d 08             	mov    0x8(%ebp),%edi
    134c:	8b 75 0c             	mov    0xc(%ebp),%esi
    134f:	68 28 91 00 00       	push   $0x9128
    1354:	e8 57 61 00 00       	call   74b0 <fibril_mutex_lock@plt>
    1359:	8b 1d 24 91 00 00    	mov    0x9124,%ebx
    135f:	83 c4 10             	add    $0x10,%esp
    1362:	81 fb 20 91 00 00    	cmp    $0x9120,%ebx
    1368:	75 29                	jne    1393 <inet_addrobj_find+0x53>
    136a:	eb 6c                	jmp    13d8 <inet_addrobj_find+0x98>
    136c:	8d 74 26 00          	lea    0x0(%esi,%eiz,1),%esi
    1370:	83 fe 01             	cmp    $0x1,%esi
    1373:	75 13                	jne    1388 <inet_addrobj_find+0x48>
    1375:	50                   	push   %eax
    1376:	50                   	push   %eax
    1377:	8d 43 0c             	lea    0xc(%ebx),%eax
    137a:	57                   	push   %edi
    137b:	50                   	push   %eax
    137c:	e8 2f 60 00 00       	call   73b0 <inet_naddr_compare@plt>
    1381:	83 c4 10             	add    $0x10,%esp
    1384:	85 c0                	test   %eax,%eax
    1386:	75 22                	jne    13aa <inet_addrobj_find+0x6a>
    1388:	8b 5b 04             	mov    0x4(%ebx),%ebx
    138b:	81 fb 20 91 00 00    	cmp    $0x9120,%ebx
    1391:	74 45                	je     13d8 <inet_addrobj_find+0x98>
    1393:	85 f6                	test   %esi,%esi
    1395:	75 d9                	jne    1370 <inet_addrobj_find+0x30>
    1397:	8d 43 0c             	lea    0xc(%ebx),%eax
    139a:	52                   	push   %edx
    139b:	52                   	push   %edx
    139c:	57                   	push   %edi
    139d:	50                   	push   %eax
    139e:	e8 9d 5d 00 00       	call   7140 <inet_naddr_compare_mask@plt>
    13a3:	83 c4 10             	add    $0x10,%esp
    13a6:	85 c0                	test   %eax,%eax
    13a8:	74 de                	je     1388 <inet_addrobj_find+0x48>
    13aa:	83 ec 0c             	sub    $0xc,%esp
    13ad:	68 28 91 00 00       	push   $0x9128
    13b2:	e8 e9 5e 00 00       	call   72a0 <fibril_mutex_unlock@plt>
    13b7:	53                   	push   %ebx
    13b8:	68 b5 62 00 00       	push   $0x62b5
    13bd:	6a 04                	push   $0x4
    13bf:	6a ff                	push   $0xffffffff
    13c1:	e8 1a 5e 00 00       	call   71e0 <log_msg@plt>
    13c6:	83 c4 20             	add    $0x20,%esp
    13c9:	8d 65 f4             	lea    -0xc(%ebp),%esp
    13cc:	89 d8                	mov    %ebx,%eax
    13ce:	5b                   	pop    %ebx
    13cf:	5e                   	pop    %esi
    13d0:	5f                   	pop    %edi
    13d1:	5d                   	pop    %ebp
    13d2:	c3                   	ret    
    13d3:	90                   	nop
    13d4:	8d 74 26 00          	lea    0x0(%esi,%eiz,1),%esi
    13d8:	51                   	push   %ecx
    13d9:	68 98 62 00 00       	push   $0x6298
    13de:	6a 04                	push   $0x4
    13e0:	6a ff                	push   $0xffffffff
    13e2:	e8 f9 5d 00 00       	call   71e0 <log_msg@plt>
    13e7:	c7 04 24 28 91 00 00 	movl   $0x9128,(%esp)
    13ee:	e8 ad 5e 00 00       	call   72a0 <fibril_mutex_unlock@plt>
    13f3:	83 c4 10             	add    $0x10,%esp
    13f6:	8d 65 f4             	lea    -0xc(%ebp),%esp
    13f9:	31 c0                	xor    %eax,%eax
    13fb:	5b                   	pop    %ebx
    13fc:	5e                   	pop    %esi
    13fd:	5f                   	pop    %edi
    13fe:	5d                   	pop    %ebp
    13ff:	c3                   	ret    

00001400 <inet_addrobj_find_by_name>:
    1400:	55                   	push   %ebp
    1401:	89 e5                	mov    %esp,%ebp
    1403:	57                   	push   %edi
    1404:	56                   	push   %esi
    1405:	53                   	push   %ebx
    1406:	83 ec 18             	sub    $0x18,%esp
    1409:	8b 75 0c             	mov    0xc(%ebp),%esi
    140c:	8b 7d 08             	mov    0x8(%ebp),%edi
    140f:	8b 46 0c             	mov    0xc(%esi),%eax
    1412:	50                   	push   %eax
    1413:	57                   	push   %edi
    1414:	68 68 62 00 00       	push   $0x6268
    1419:	6a 04                	push   $0x4
    141b:	6a ff                	push   $0xffffffff
    141d:	e8 be 5d 00 00       	call   71e0 <log_msg@plt>
    1422:	83 c4 14             	add    $0x14,%esp
    1425:	68 28 91 00 00       	push   $0x9128
    142a:	e8 81 60 00 00       	call   74b0 <fibril_mutex_lock@plt>
    142f:	c7 04 24 28 91 00 00 	movl   $0x9128,(%esp)
    1436:	e8 c5 5c 00 00       	call   7100 <fibril_mutex_is_locked@plt>
    143b:	83 c4 10             	add    $0x10,%esp
    143e:	84 c0                	test   %al,%al
    1440:	0f 84 90 00 00 00    	je     14d6 <inet_addrobj_find_by_name+0xd6>
    1446:	83 ec 0c             	sub    $0xc,%esp
    1449:	8b 5e 0c             	mov    0xc(%esi),%ebx
    144c:	53                   	push   %ebx
    144d:	57                   	push   %edi
    144e:	68 e0 61 00 00       	push   $0x61e0
    1453:	6a 04                	push   $0x4
    1455:	6a ff                	push   $0xffffffff
    1457:	e8 84 5d 00 00       	call   71e0 <log_msg@plt>
    145c:	8b 1d 24 91 00 00    	mov    0x9124,%ebx
    1462:	83 c4 20             	add    $0x20,%esp
    1465:	81 fb 20 91 00 00    	cmp    $0x9120,%ebx
    146b:	75 0e                	jne    147b <inet_addrobj_find_by_name+0x7b>
    146d:	eb 51                	jmp    14c0 <inet_addrobj_find_by_name+0xc0>
    146f:	90                   	nop
    1470:	8b 5b 04             	mov    0x4(%ebx),%ebx
    1473:	81 fb 20 91 00 00    	cmp    $0x9120,%ebx
    1479:	74 45                	je     14c0 <inet_addrobj_find_by_name+0xc0>
    147b:	3b 73 24             	cmp    0x24(%ebx),%esi
    147e:	75 f0                	jne    1470 <inet_addrobj_find_by_name+0x70>
    1480:	50                   	push   %eax
    1481:	50                   	push   %eax
    1482:	57                   	push   %edi
    1483:	8b 53 28             	mov    0x28(%ebx),%edx
    1486:	52                   	push   %edx
    1487:	e8 44 5e 00 00       	call   72d0 <str_cmp@plt>
    148c:	83 c4 10             	add    $0x10,%esp
    148f:	85 c0                	test   %eax,%eax
    1491:	75 dd                	jne    1470 <inet_addrobj_find_by_name+0x70>
    1493:	53                   	push   %ebx
    1494:	68 3c 62 00 00       	push   $0x623c
    1499:	6a 04                	push   $0x4
    149b:	6a ff                	push   $0xffffffff
    149d:	e8 3e 5d 00 00       	call   71e0 <log_msg@plt>
    14a2:	83 c4 10             	add    $0x10,%esp
    14a5:	83 ec 0c             	sub    $0xc,%esp
    14a8:	68 28 91 00 00       	push   $0x9128
    14ad:	e8 ee 5d 00 00       	call   72a0 <fibril_mutex_unlock@plt>
    14b2:	8d 65 f4             	lea    -0xc(%ebp),%esp
    14b5:	89 d8                	mov    %ebx,%eax
    14b7:	5b                   	pop    %ebx
    14b8:	5e                   	pop    %esi
    14b9:	5f                   	pop    %edi
    14ba:	5d                   	pop    %ebp
    14bb:	c3                   	ret    
    14bc:	8d 74 26 00          	lea    0x0(%esi,%eiz,1),%esi
    14c0:	51                   	push   %ecx
    14c1:	68 10 62 00 00       	push   $0x6210
    14c6:	6a 04                	push   $0x4
    14c8:	6a ff                	push   $0xffffffff
    14ca:	31 db                	xor    %ebx,%ebx
    14cc:	e8 0f 5d 00 00       	call   71e0 <log_msg@plt>
    14d1:	83 c4 10             	add    $0x10,%esp
    14d4:	eb cf                	jmp    14a5 <inet_addrobj_find_by_name+0xa5>
    14d6:	56                   	push   %esi
    14d7:	68 97 00 00 00       	push   $0x97
    14dc:	68 8e 62 00 00       	push   $0x628e
    14e1:	68 b8 61 00 00       	push   $0x61b8
    14e6:	e8 45 5d 00 00       	call   7230 <assert_abort@plt>
    14eb:	90                   	nop
    14ec:	8d 74 26 00          	lea    0x0(%esi,%eiz,1),%esi

000014f0 <inet_addrobj_get_by_id>:
    14f0:	55                   	push   %ebp
    14f1:	89 e5                	mov    %esp,%ebp
    14f3:	56                   	push   %esi
    14f4:	53                   	push   %ebx
    14f5:	8b 75 08             	mov    0x8(%ebp),%esi
    14f8:	56                   	push   %esi
    14f9:	68 d1 62 00 00       	push   $0x62d1
    14fe:	6a 04                	push   $0x4
    1500:	6a ff                	push   $0xffffffff
    1502:	e8 d9 5c 00 00       	call   71e0 <log_msg@plt>
    1507:	c7 04 24 28 91 00 00 	movl   $0x9128,(%esp)
    150e:	e8 9d 5f 00 00       	call   74b0 <fibril_mutex_lock@plt>
    1513:	8b 1d 24 91 00 00    	mov    0x9124,%ebx
    1519:	83 c4 10             	add    $0x10,%esp
    151c:	81 fb 20 91 00 00    	cmp    $0x9120,%ebx
    1522:	75 0f                	jne    1533 <inet_addrobj_get_by_id+0x43>
    1524:	eb 32                	jmp    1558 <inet_addrobj_get_by_id+0x68>
    1526:	66 90                	xchg   %ax,%ax
    1528:	8b 5b 04             	mov    0x4(%ebx),%ebx
    152b:	81 fb 20 91 00 00    	cmp    $0x9120,%ebx
    1531:	74 25                	je     1558 <inet_addrobj_get_by_id+0x68>
    1533:	3b 73 08             	cmp    0x8(%ebx),%esi
    1536:	75 f0                	jne    1528 <inet_addrobj_get_by_id+0x38>
    1538:	83 ec 0c             	sub    $0xc,%esp
    153b:	68 28 91 00 00       	push   $0x9128
    1540:	e8 5b 5d 00 00       	call   72a0 <fibril_mutex_unlock@plt>
    1545:	83 c4 10             	add    $0x10,%esp
    1548:	8d 65 f8             	lea    -0x8(%ebp),%esp
    154b:	89 d8                	mov    %ebx,%eax
    154d:	5b                   	pop    %ebx
    154e:	5e                   	pop    %esi
    154f:	5d                   	pop    %ebp
    1550:	c3                   	ret    
    1551:	8d b4 26 00 00 00 00 	lea    0x0(%esi,%eiz,1),%esi
    1558:	83 ec 0c             	sub    $0xc,%esp
    155b:	68 28 91 00 00       	push   $0x9128
    1560:	e8 3b 5d 00 00       	call   72a0 <fibril_mutex_unlock@plt>
    1565:	83 c4 10             	add    $0x10,%esp
    1568:	8d 65 f8             	lea    -0x8(%ebp),%esp
    156b:	31 c0                	xor    %eax,%eax
    156d:	5b                   	pop    %ebx
    156e:	5e                   	pop    %esi
    156f:	5d                   	pop    %ebp
    1570:	c3                   	ret    
    1571:	eb 0d                	jmp    1580 <inet_addrobj_send_dgram>
    1573:	90                   	nop
    1574:	90                   	nop
    1575:	90                   	nop
    1576:	90                   	nop
    1577:	90                   	nop
    1578:	90                   	nop
    1579:	90                   	nop
    157a:	90                   	nop
    157b:	90                   	nop
    157c:	90                   	nop
    157d:	90                   	nop
    157e:	90                   	nop
    157f:	90                   	nop

00001580 <inet_addrobj_send_dgram>:
    1580:	55                   	push   %ebp
    1581:	89 e5                	mov    %esp,%ebp
    1583:	57                   	push   %edi
    1584:	56                   	push   %esi
    1585:	53                   	push   %ebx
    1586:	83 ec 74             	sub    $0x74,%esp
    1589:	8d 5d d4             	lea    -0x2c(%ebp),%ebx
    158c:	8b 45 14             	mov    0x14(%ebp),%eax
    158f:	8d 75 b4             	lea    -0x4c(%ebp),%esi
    1592:	89 45 94             	mov    %eax,-0x6c(%ebp)
    1595:	8b 45 18             	mov    0x18(%ebp),%eax
    1598:	89 45 90             	mov    %eax,-0x70(%ebp)
    159b:	8b 45 08             	mov    0x8(%ebp),%eax
    159e:	83 c0 0c             	add    $0xc,%eax
    15a1:	53                   	push   %ebx
    15a2:	50                   	push   %eax
    15a3:	e8 b8 5b 00 00       	call   7160 <inet_naddr_addr@plt>
    15a8:	83 c4 0c             	add    $0xc,%esp
    15ab:	8d 45 a4             	lea    -0x5c(%ebp),%eax
    15ae:	8d 7d c4             	lea    -0x3c(%ebp),%edi
    15b1:	56                   	push   %esi
    15b2:	50                   	push   %eax
    15b3:	53                   	push   %ebx
    15b4:	e8 37 5d 00 00       	call   72f0 <inet_addr_get@plt>
    15b9:	83 c4 0c             	add    $0xc,%esp
    15bc:	89 c3                	mov    %eax,%ebx
    15be:	8b 4d 0c             	mov    0xc(%ebp),%ecx
    15c1:	8d 45 a8             	lea    -0x58(%ebp),%eax
    15c4:	57                   	push   %edi
    15c5:	50                   	push   %eax
    15c6:	51                   	push   %ecx
    15c7:	e8 24 5d 00 00       	call   72f0 <inet_addr_get@plt>
    15cc:	83 c4 10             	add    $0x10,%esp
    15cf:	39 c3                	cmp    %eax,%ebx
    15d1:	0f 85 89 00 00 00    	jne    1660 <inet_addrobj_send_dgram+0xe0>
    15d7:	83 fb 01             	cmp    $0x1,%ebx
    15da:	74 44                	je     1620 <inet_addrobj_send_dgram+0xa0>
    15dc:	83 fb 02             	cmp    $0x2,%ebx
    15df:	75 27                	jne    1608 <inet_addrobj_send_dgram+0x88>
    15e1:	8b 45 08             	mov    0x8(%ebp),%eax
    15e4:	8d 5d ae             	lea    -0x52(%ebp),%ebx
    15e7:	8b 40 24             	mov    0x24(%eax),%eax
    15ea:	50                   	push   %eax
    15eb:	53                   	push   %ebx
    15ec:	57                   	push   %edi
    15ed:	56                   	push   %esi
    15ee:	e8 4d 33 00 00       	call   4940 <ndp_translate>
    15f3:	83 c4 10             	add    $0x10,%esp
    15f6:	85 c0                	test   %eax,%eax
    15f8:	74 6e                	je     1668 <inet_addrobj_send_dgram+0xe8>
    15fa:	8d 65 f4             	lea    -0xc(%ebp),%esp
    15fd:	5b                   	pop    %ebx
    15fe:	5e                   	pop    %esi
    15ff:	5f                   	pop    %edi
    1600:	5d                   	pop    %ebp
    1601:	c3                   	ret    
    1602:	8d b6 00 00 00 00    	lea    0x0(%esi),%esi
    1608:	50                   	push   %eax
    1609:	68 f9 00 00 00       	push   $0xf9
    160e:	68 8e 62 00 00       	push   $0x628e
    1613:	68 ed 62 00 00       	push   $0x62ed
    1618:	e8 13 5c 00 00       	call   7230 <assert_abort@plt>
    161d:	8d 76 00             	lea    0x0(%esi),%esi
    1620:	0f b6 7d 90          	movzbl -0x70(%ebp),%edi
    1624:	0f b6 75 94          	movzbl -0x6c(%ebp),%esi
    1628:	50                   	push   %eax
    1629:	8b 45 1c             	mov    0x1c(%ebp),%eax
    162c:	50                   	push   %eax
    162d:	81 e7 ff 00 00 00    	and    $0xff,%edi
    1633:	8b 45 10             	mov    0x10(%ebp),%eax
    1636:	81 e6 ff 00 00 00    	and    $0xff,%esi
    163c:	57                   	push   %edi
    163d:	56                   	push   %esi
    163e:	50                   	push   %eax
    163f:	8b 45 a8             	mov    -0x58(%ebp),%eax
    1642:	50                   	push   %eax
    1643:	8b 45 a4             	mov    -0x5c(%ebp),%eax
    1646:	50                   	push   %eax
    1647:	8b 45 08             	mov    0x8(%ebp),%eax
    164a:	8b 50 24             	mov    0x24(%eax),%edx
    164d:	52                   	push   %edx
    164e:	e8 8d 1a 00 00       	call   30e0 <inet_link_send_dgram>
    1653:	83 c4 20             	add    $0x20,%esp
    1656:	8d 65 f4             	lea    -0xc(%ebp),%esp
    1659:	5b                   	pop    %ebx
    165a:	5e                   	pop    %esi
    165b:	5f                   	pop    %edi
    165c:	5d                   	pop    %ebp
    165d:	c3                   	ret    
    165e:	66 90                	xchg   %ax,%ax
    1660:	b8 f2 ff ff ff       	mov    $0xfffffff2,%eax
    1665:	eb 93                	jmp    15fa <inet_addrobj_send_dgram+0x7a>
    1667:	90                   	nop
    1668:	0f b6 7d 90          	movzbl -0x70(%ebp),%edi
    166c:	0f b6 75 94          	movzbl -0x6c(%ebp),%esi
    1670:	8b 45 08             	mov    0x8(%ebp),%eax
    1673:	52                   	push   %edx
    1674:	8b 4d 1c             	mov    0x1c(%ebp),%ecx
    1677:	52                   	push   %edx
    1678:	81 e7 ff 00 00 00    	and    $0xff,%edi
    167e:	81 e6 ff 00 00 00    	and    $0xff,%esi
    1684:	51                   	push   %ecx
    1685:	57                   	push   %edi
    1686:	8b 78 24             	mov    0x24(%eax),%edi
    1689:	56                   	push   %esi
    168a:	8b 75 10             	mov    0x10(%ebp),%esi
    168d:	56                   	push   %esi
    168e:	53                   	push   %ebx
    168f:	57                   	push   %edi
    1690:	e8 ab 1b 00 00       	call   3240 <inet_link_send_dgram6>
    1695:	83 c4 20             	add    $0x20,%esp
    1698:	e9 5d ff ff ff       	jmp    15fa <inet_addrobj_send_dgram+0x7a>
    169d:	8d 76 00             	lea    0x0(%esi),%esi

000016a0 <inet_addrobj_get_id_list>:
    16a0:	55                   	push   %ebp
    16a1:	89 e5                	mov    %esp,%ebp
    16a3:	56                   	push   %esi
    16a4:	53                   	push   %ebx
    16a5:	83 ec 0c             	sub    $0xc,%esp
    16a8:	68 28 91 00 00       	push   $0x9128
    16ad:	e8 fe 5d 00 00       	call   74b0 <fibril_mutex_lock@plt>
    16b2:	c7 04 24 20 91 00 00 	movl   $0x9120,(%esp)
    16b9:	e8 e2 5c 00 00       	call   73a0 <list_count@plt>
    16be:	5a                   	pop    %edx
    16bf:	89 c6                	mov    %eax,%esi
    16c1:	59                   	pop    %ecx
    16c2:	6a 04                	push   $0x4
    16c4:	50                   	push   %eax
    16c5:	e8 76 5b 00 00       	call   7240 <calloc@plt>
    16ca:	83 c4 10             	add    $0x10,%esp
    16cd:	85 c0                	test   %eax,%eax
    16cf:	74 4c                	je     171d <inet_addrobj_get_id_list+0x7d>
    16d1:	89 c3                	mov    %eax,%ebx
    16d3:	a1 24 91 00 00       	mov    0x9124,%eax
    16d8:	3d 20 91 00 00       	cmp    $0x9120,%eax
    16dd:	74 1b                	je     16fa <inet_addrobj_get_id_list+0x5a>
    16df:	89 da                	mov    %ebx,%edx
    16e1:	8d b4 26 00 00 00 00 	lea    0x0(%esi,%eiz,1),%esi
    16e8:	8b 48 08             	mov    0x8(%eax),%ecx
    16eb:	8b 40 04             	mov    0x4(%eax),%eax
    16ee:	89 0a                	mov    %ecx,(%edx)
    16f0:	83 c2 04             	add    $0x4,%edx
    16f3:	3d 20 91 00 00       	cmp    $0x9120,%eax
    16f8:	75 ee                	jne    16e8 <inet_addrobj_get_id_list+0x48>
    16fa:	83 ec 0c             	sub    $0xc,%esp
    16fd:	68 28 91 00 00       	push   $0x9128
    1702:	e8 99 5b 00 00       	call   72a0 <fibril_mutex_unlock@plt>
    1707:	8b 45 08             	mov    0x8(%ebp),%eax
    170a:	83 c4 10             	add    $0x10,%esp
    170d:	89 18                	mov    %ebx,(%eax)
    170f:	8b 45 0c             	mov    0xc(%ebp),%eax
    1712:	89 30                	mov    %esi,(%eax)
    1714:	31 c0                	xor    %eax,%eax
    1716:	8d 65 f8             	lea    -0x8(%ebp),%esp
    1719:	5b                   	pop    %ebx
    171a:	5e                   	pop    %esi
    171b:	5d                   	pop    %ebp
    171c:	c3                   	ret    
    171d:	83 ec 0c             	sub    $0xc,%esp
    1720:	68 28 91 00 00       	push   $0x9128
    1725:	e8 76 5b 00 00       	call   72a0 <fibril_mutex_unlock@plt>
    172a:	83 c4 10             	add    $0x10,%esp
    172d:	b8 fe ff ff ff       	mov    $0xfffffffe,%eax
    1732:	eb e2                	jmp    1716 <inet_addrobj_get_id_list+0x76>
    1734:	66 90                	xchg   %ax,%ax
    1736:	66 90                	xchg   %ax,%ax
    1738:	66 90                	xchg   %ax,%ax
    173a:	66 90                	xchg   %ax,%ax
    173c:	66 90                	xchg   %ax,%ax
    173e:	66 90                	xchg   %ax,%ax

00001740 <icmp_recv>:
    1740:	55                   	push   %ebp
    1741:	89 e5                	mov    %esp,%ebp
    1743:	57                   	push   %edi
    1744:	56                   	push   %esi
    1745:	53                   	push   %ebx
    1746:	83 ec 60             	sub    $0x60,%esp
    1749:	8b 5d 08             	mov    0x8(%ebp),%ebx
    174c:	68 f3 62 00 00       	push   $0x62f3
    1751:	6a 04                	push   $0x4
    1753:	6a ff                	push   $0xffffffff
    1755:	e8 86 5a 00 00       	call   71e0 <log_msg@plt>
    175a:	8b 43 34             	mov    0x34(%ebx),%eax
    175d:	83 c4 10             	add    $0x10,%esp
    1760:	85 c0                	test   %eax,%eax
    1762:	0f 84 00 01 00 00    	je     1868 <icmp_recv+0x128>
    1768:	8b 43 30             	mov    0x30(%ebx),%eax
    176b:	8a 00                	mov    (%eax),%al
    176d:	84 c0                	test   %al,%al
    176f:	0f 84 03 01 00 00    	je     1878 <icmp_recv+0x138>
    1775:	3c 08                	cmp    $0x8,%al
    1777:	0f 85 eb 00 00 00    	jne    1868 <icmp_recv+0x128>
    177d:	50                   	push   %eax
    177e:	68 ff 62 00 00       	push   $0x62ff
    1783:	6a 04                	push   $0x4
    1785:	6a ff                	push   $0xffffffff
    1787:	e8 54 5a 00 00       	call   71e0 <log_msg@plt>
    178c:	8b 73 34             	mov    0x34(%ebx),%esi
    178f:	83 c4 10             	add    $0x10,%esp
    1792:	83 fe 07             	cmp    $0x7,%esi
    1795:	0f 86 cd 00 00 00    	jbe    1868 <icmp_recv+0x128>
    179b:	8b 43 30             	mov    0x30(%ebx),%eax
    179e:	89 45 a4             	mov    %eax,-0x5c(%ebp)
    17a1:	50                   	push   %eax
    17a2:	50                   	push   %eax
    17a3:	6a 01                	push   $0x1
    17a5:	56                   	push   %esi
    17a6:	e8 95 5a 00 00       	call   7240 <calloc@plt>
    17ab:	83 c4 10             	add    $0x10,%esp
    17ae:	89 c7                	mov    %eax,%edi
    17b0:	85 c0                	test   %eax,%eax
    17b2:	0f 84 57 01 00 00    	je     190f <icmp_recv+0x1cf>
    17b8:	50                   	push   %eax
    17b9:	8b 45 a4             	mov    -0x5c(%ebp),%eax
    17bc:	56                   	push   %esi
    17bd:	50                   	push   %eax
    17be:	57                   	push   %edi
    17bf:	e8 8c 59 00 00       	call   7150 <memcpy@plt>
    17c4:	83 c4 0c             	add    $0xc,%esp
    17c7:	c6 07 00             	movb   $0x0,(%edi)
    17ca:	c6 47 01 00          	movb   $0x0,0x1(%edi)
    17ce:	66 c7 47 02 00 00    	movw   $0x0,0x2(%edi)
    17d4:	56                   	push   %esi
    17d5:	57                   	push   %edi
    17d6:	68 ff ff 00 00       	push   $0xffff
    17db:	e8 20 35 00 00       	call   4d00 <inet_checksum_calc>
    17e0:	66 c1 c0 08          	rol    $0x8,%ax
    17e4:	66 89 47 02          	mov    %ax,0x2(%edi)
    17e8:	8b 43 18             	mov    0x18(%ebx),%eax
    17eb:	89 45 b4             	mov    %eax,-0x4c(%ebp)
    17ee:	8b 43 1c             	mov    0x1c(%ebx),%eax
    17f1:	89 45 b8             	mov    %eax,-0x48(%ebp)
    17f4:	8b 43 20             	mov    0x20(%ebx),%eax
    17f7:	89 45 bc             	mov    %eax,-0x44(%ebp)
    17fa:	8b 43 24             	mov    0x24(%ebx),%eax
    17fd:	89 45 c0             	mov    %eax,-0x40(%ebp)
    1800:	8b 43 28             	mov    0x28(%ebx),%eax
    1803:	89 45 c4             	mov    %eax,-0x3c(%ebp)
    1806:	8b 43 04             	mov    0x4(%ebx),%eax
    1809:	89 45 c8             	mov    %eax,-0x38(%ebp)
    180c:	8b 43 08             	mov    0x8(%ebx),%eax
    180f:	89 45 cc             	mov    %eax,-0x34(%ebp)
    1812:	8b 43 0c             	mov    0xc(%ebx),%eax
    1815:	89 45 d0             	mov    %eax,-0x30(%ebp)
    1818:	8b 43 10             	mov    0x10(%ebx),%eax
    181b:	89 45 d4             	mov    %eax,-0x2c(%ebp)
    181e:	8b 43 14             	mov    0x14(%ebx),%eax
    1821:	89 45 d8             	mov    %eax,-0x28(%ebp)
    1824:	8d 45 b0             	lea    -0x50(%ebp),%eax
    1827:	6a 00                	push   $0x0
    1829:	89 7d e0             	mov    %edi,-0x20(%ebp)
    182c:	68 ff 00 00 00       	push   $0xff
    1831:	89 75 e4             	mov    %esi,-0x1c(%ebp)
    1834:	6a 01                	push   $0x1
    1836:	c7 45 b0 00 00 00 00 	movl   $0x0,-0x50(%ebp)
    183d:	c6 45 dc 00          	movb   $0x0,-0x24(%ebp)
    1841:	50                   	push   %eax
    1842:	e8 39 06 00 00       	call   1e80 <inet_route_packet>
    1847:	83 c4 14             	add    $0x14,%esp
    184a:	57                   	push   %edi
    184b:	89 45 a4             	mov    %eax,-0x5c(%ebp)
    184e:	e8 4d 5c 00 00       	call   74a0 <free@plt>
    1853:	8b 45 a4             	mov    -0x5c(%ebp),%eax
    1856:	83 c4 10             	add    $0x10,%esp
    1859:	8d 65 f4             	lea    -0xc(%ebp),%esp
    185c:	5b                   	pop    %ebx
    185d:	5e                   	pop    %esi
    185e:	5f                   	pop    %edi
    185f:	5d                   	pop    %ebp
    1860:	c3                   	ret    
    1861:	8d b4 26 00 00 00 00 	lea    0x0(%esi,%eiz,1),%esi
    1868:	b8 f2 ff ff ff       	mov    $0xfffffff2,%eax
    186d:	8d 65 f4             	lea    -0xc(%ebp),%esp
    1870:	5b                   	pop    %ebx
    1871:	5e                   	pop    %esi
    1872:	5f                   	pop    %edi
    1873:	5d                   	pop    %ebp
    1874:	c3                   	ret    
    1875:	8d 76 00             	lea    0x0(%esi),%esi
    1878:	51                   	push   %ecx
    1879:	68 18 63 00 00       	push   $0x6318
    187e:	6a 04                	push   $0x4
    1880:	6a ff                	push   $0xffffffff
    1882:	e8 59 59 00 00       	call   71e0 <log_msg@plt>
    1887:	8b 43 34             	mov    0x34(%ebx),%eax
    188a:	83 c4 10             	add    $0x10,%esp
    188d:	83 f8 07             	cmp    $0x7,%eax
    1890:	76 d6                	jbe    1868 <icmp_recv+0x128>
    1892:	8b 4b 04             	mov    0x4(%ebx),%ecx
    1895:	8b 53 30             	mov    0x30(%ebx),%edx
    1898:	89 4d b0             	mov    %ecx,-0x50(%ebp)
    189b:	8b 4b 08             	mov    0x8(%ebx),%ecx
    189e:	89 4d b4             	mov    %ecx,-0x4c(%ebp)
    18a1:	8b 4b 0c             	mov    0xc(%ebx),%ecx
    18a4:	89 4d b8             	mov    %ecx,-0x48(%ebp)
    18a7:	8b 4b 10             	mov    0x10(%ebx),%ecx
    18aa:	89 4d bc             	mov    %ecx,-0x44(%ebp)
    18ad:	8b 4b 14             	mov    0x14(%ebx),%ecx
    18b0:	89 4d c0             	mov    %ecx,-0x40(%ebp)
    18b3:	8b 4b 18             	mov    0x18(%ebx),%ecx
    18b6:	89 4d c4             	mov    %ecx,-0x3c(%ebp)
    18b9:	8b 4b 1c             	mov    0x1c(%ebx),%ecx
    18bc:	89 4d c8             	mov    %ecx,-0x38(%ebp)
    18bf:	8b 4b 20             	mov    0x20(%ebx),%ecx
    18c2:	89 4d cc             	mov    %ecx,-0x34(%ebp)
    18c5:	8b 4b 24             	mov    0x24(%ebx),%ecx
    18c8:	89 4d d0             	mov    %ecx,-0x30(%ebp)
    18cb:	8b 4b 28             	mov    0x28(%ebx),%ecx
    18ce:	89 4d d4             	mov    %ecx,-0x2c(%ebp)
    18d1:	83 e8 08             	sub    $0x8,%eax
    18d4:	66 8b 4a 06          	mov    0x6(%edx),%cx
    18d8:	89 45 e0             	mov    %eax,-0x20(%ebp)
    18db:	66 c1 c1 08          	rol    $0x8,%cx
    18df:	66 8b 42 04          	mov    0x4(%edx),%ax
    18e3:	66 89 4d d8          	mov    %cx,-0x28(%ebp)
    18e7:	66 c1 c0 08          	rol    $0x8,%ax
    18eb:	8d 4a 40             	lea    0x40(%edx),%ecx
    18ee:	52                   	push   %edx
    18ef:	52                   	push   %edx
    18f0:	8d 55 b0             	lea    -0x50(%ebp),%edx
    18f3:	52                   	push   %edx
    18f4:	89 c2                	mov    %eax,%edx
    18f6:	31 c0                	xor    %eax,%eax
    18f8:	89 4d dc             	mov    %ecx,-0x24(%ebp)
    18fb:	66 89 d0             	mov    %dx,%ax
    18fe:	50                   	push   %eax
    18ff:	e8 9c 28 00 00       	call   41a0 <inetping_recv>
    1904:	83 c4 10             	add    $0x10,%esp
    1907:	8d 65 f4             	lea    -0xc(%ebp),%esp
    190a:	5b                   	pop    %ebx
    190b:	5e                   	pop    %esi
    190c:	5f                   	pop    %edi
    190d:	5d                   	pop    %ebp
    190e:	c3                   	ret    
    190f:	b8 fe ff ff ff       	mov    $0xfffffffe,%eax
    1914:	e9 54 ff ff ff       	jmp    186d <icmp_recv+0x12d>
    1919:	8d b4 26 00 00 00 00 	lea    0x0(%esi,%eiz,1),%esi

00001920 <icmp_ping_send>:
    1920:	55                   	push   %ebp
    1921:	89 e5                	mov    %esp,%ebp
    1923:	57                   	push   %edi
    1924:	56                   	push   %esi
    1925:	53                   	push   %ebx
    1926:	83 ec 64             	sub    $0x64,%esp
    1929:	8b 5d 0c             	mov    0xc(%ebp),%ebx
    192c:	8b 55 08             	mov    0x8(%ebp),%edx
    192f:	89 55 a4             	mov    %edx,-0x5c(%ebp)
    1932:	8b 43 30             	mov    0x30(%ebx),%eax
    1935:	6a 01                	push   $0x1
    1937:	8d 78 08             	lea    0x8(%eax),%edi
    193a:	57                   	push   %edi
    193b:	e8 00 59 00 00       	call   7240 <calloc@plt>
    1940:	83 c4 10             	add    $0x10,%esp
    1943:	85 c0                	test   %eax,%eax
    1945:	0f 84 cd 00 00 00    	je     1a18 <icmp_ping_send+0xf8>
    194b:	8b 55 a4             	mov    -0x5c(%ebp),%edx
    194e:	89 c6                	mov    %eax,%esi
    1950:	66 c1 c2 08          	rol    $0x8,%dx
    1954:	66 89 50 04          	mov    %dx,0x4(%eax)
    1958:	c6 00 08             	movb   $0x8,(%eax)
    195b:	c6 40 01 00          	movb   $0x0,0x1(%eax)
    195f:	66 c7 40 02 00 00    	movw   $0x0,0x2(%eax)
    1965:	8b 43 28             	mov    0x28(%ebx),%eax
    1968:	66 c1 c0 08          	rol    $0x8,%ax
    196c:	66 89 46 06          	mov    %ax,0x6(%esi)
    1970:	50                   	push   %eax
    1971:	8b 53 30             	mov    0x30(%ebx),%edx
    1974:	8b 4b 2c             	mov    0x2c(%ebx),%ecx
    1977:	8d 46 08             	lea    0x8(%esi),%eax
    197a:	52                   	push   %edx
    197b:	51                   	push   %ecx
    197c:	50                   	push   %eax
    197d:	e8 ce 57 00 00       	call   7150 <memcpy@plt>
    1982:	83 c4 0c             	add    $0xc,%esp
    1985:	57                   	push   %edi
    1986:	56                   	push   %esi
    1987:	68 ff ff 00 00       	push   $0xffff
    198c:	e8 6f 33 00 00       	call   4d00 <inet_checksum_calc>
    1991:	66 c1 c0 08          	rol    $0x8,%ax
    1995:	66 89 46 02          	mov    %ax,0x2(%esi)
    1999:	8b 03                	mov    (%ebx),%eax
    199b:	89 45 b4             	mov    %eax,-0x4c(%ebp)
    199e:	8b 43 04             	mov    0x4(%ebx),%eax
    19a1:	89 45 b8             	mov    %eax,-0x48(%ebp)
    19a4:	8b 43 08             	mov    0x8(%ebx),%eax
    19a7:	89 45 bc             	mov    %eax,-0x44(%ebp)
    19aa:	8b 43 0c             	mov    0xc(%ebx),%eax
    19ad:	89 45 c0             	mov    %eax,-0x40(%ebp)
    19b0:	8b 43 10             	mov    0x10(%ebx),%eax
    19b3:	89 45 c4             	mov    %eax,-0x3c(%ebp)
    19b6:	8b 43 14             	mov    0x14(%ebx),%eax
    19b9:	89 45 c8             	mov    %eax,-0x38(%ebp)
    19bc:	8b 43 18             	mov    0x18(%ebx),%eax
    19bf:	89 45 cc             	mov    %eax,-0x34(%ebp)
    19c2:	8b 43 1c             	mov    0x1c(%ebx),%eax
    19c5:	89 45 d0             	mov    %eax,-0x30(%ebp)
    19c8:	8b 43 20             	mov    0x20(%ebx),%eax
    19cb:	89 45 d4             	mov    %eax,-0x2c(%ebp)
    19ce:	8b 43 24             	mov    0x24(%ebx),%eax
    19d1:	89 45 d8             	mov    %eax,-0x28(%ebp)
    19d4:	8d 45 b0             	lea    -0x50(%ebp),%eax
    19d7:	6a 00                	push   $0x0
    19d9:	c7 45 b0 00 00 00 00 	movl   $0x0,-0x50(%ebp)
    19e0:	68 ff 00 00 00       	push   $0xff
    19e5:	c6 45 dc 00          	movb   $0x0,-0x24(%ebp)
    19e9:	6a 01                	push   $0x1
    19eb:	89 75 e0             	mov    %esi,-0x20(%ebp)
    19ee:	50                   	push   %eax
    19ef:	89 7d e4             	mov    %edi,-0x1c(%ebp)
    19f2:	e8 89 04 00 00       	call   1e80 <inet_route_packet>
    19f7:	83 c4 14             	add    $0x14,%esp
    19fa:	56                   	push   %esi
    19fb:	89 45 a4             	mov    %eax,-0x5c(%ebp)
    19fe:	e8 9d 5a 00 00       	call   74a0 <free@plt>
    1a03:	83 c4 10             	add    $0x10,%esp
    1a06:	8b 45 a4             	mov    -0x5c(%ebp),%eax
    1a09:	8d 65 f4             	lea    -0xc(%ebp),%esp
    1a0c:	5b                   	pop    %ebx
    1a0d:	5e                   	pop    %esi
    1a0e:	5f                   	pop    %edi
    1a0f:	5d                   	pop    %ebp
    1a10:	c3                   	ret    
    1a11:	8d b4 26 00 00 00 00 	lea    0x0(%esi,%eiz,1),%esi
    1a18:	b8 fe ff ff ff       	mov    $0xfffffffe,%eax
    1a1d:	eb ea                	jmp    1a09 <icmp_ping_send+0xe9>
    1a1f:	90                   	nop

00001a20 <icmpv6_recv>:
    1a20:	55                   	push   %ebp
    1a21:	89 e5                	mov    %esp,%ebp
    1a23:	57                   	push   %edi
    1a24:	56                   	push   %esi
    1a25:	53                   	push   %ebx
    1a26:	81 ec a0 00 00 00    	sub    $0xa0,%esp
    1a2c:	8b 5d 08             	mov    0x8(%ebp),%ebx
    1a2f:	68 2f 63 00 00       	push   $0x632f
    1a34:	6a 04                	push   $0x4
    1a36:	6a ff                	push   $0xffffffff
    1a38:	e8 a3 57 00 00       	call   71e0 <log_msg@plt>
    1a3d:	8b 53 34             	mov    0x34(%ebx),%edx
    1a40:	83 c4 10             	add    $0x10,%esp
    1a43:	85 d2                	test   %edx,%edx
    1a45:	0f 84 dd 01 00 00    	je     1c28 <icmpv6_recv+0x208>
    1a4b:	8b 43 30             	mov    0x30(%ebx),%eax
    1a4e:	8a 00                	mov    (%eax),%al
    1a50:	3c 81                	cmp    $0x81,%al
    1a52:	0f 84 e0 01 00 00    	je     1c38 <icmpv6_recv+0x218>
    1a58:	0f 87 aa 01 00 00    	ja     1c08 <icmpv6_recv+0x1e8>
    1a5e:	3c 80                	cmp    $0x80,%al
    1a60:	0f 85 c2 01 00 00    	jne    1c28 <icmpv6_recv+0x208>
    1a66:	50                   	push   %eax
    1a67:	68 3d 63 00 00       	push   $0x633d
    1a6c:	6a 04                	push   $0x4
    1a6e:	6a ff                	push   $0xffffffff
    1a70:	e8 6b 57 00 00       	call   71e0 <log_msg@plt>
    1a75:	8b 43 34             	mov    0x34(%ebx),%eax
    1a78:	83 c4 10             	add    $0x10,%esp
    1a7b:	89 85 64 ff ff ff    	mov    %eax,-0x9c(%ebp)
    1a81:	83 f8 07             	cmp    $0x7,%eax
    1a84:	0f 86 9e 01 00 00    	jbe    1c28 <icmpv6_recv+0x208>
    1a8a:	8b 43 30             	mov    0x30(%ebx),%eax
    1a8d:	8d 7b 04             	lea    0x4(%ebx),%edi
    1a90:	89 85 60 ff ff ff    	mov    %eax,-0xa0(%ebp)
    1a96:	50                   	push   %eax
    1a97:	8d 85 68 ff ff ff    	lea    -0x98(%ebp),%eax
    1a9d:	50                   	push   %eax
    1a9e:	6a 00                	push   $0x0
    1aa0:	57                   	push   %edi
    1aa1:	e8 4a 58 00 00       	call   72f0 <inet_addr_get@plt>
    1aa6:	83 c4 0c             	add    $0xc,%esp
    1aa9:	89 c6                	mov    %eax,%esi
    1aab:	8d 85 78 ff ff ff    	lea    -0x88(%ebp),%eax
    1ab1:	50                   	push   %eax
    1ab2:	8d 43 18             	lea    0x18(%ebx),%eax
    1ab5:	6a 00                	push   $0x0
    1ab7:	50                   	push   %eax
    1ab8:	e8 33 58 00 00       	call   72f0 <inet_addr_get@plt>
    1abd:	83 c4 10             	add    $0x10,%esp
    1ac0:	39 c6                	cmp    %eax,%esi
    1ac2:	0f 85 60 01 00 00    	jne    1c28 <icmpv6_recv+0x208>
    1ac8:	83 fe 02             	cmp    $0x2,%esi
    1acb:	0f 85 57 01 00 00    	jne    1c28 <icmpv6_recv+0x208>
    1ad1:	50                   	push   %eax
    1ad2:	50                   	push   %eax
    1ad3:	8b 85 64 ff ff ff    	mov    -0x9c(%ebp),%eax
    1ad9:	50                   	push   %eax
    1ada:	6a 01                	push   $0x1
    1adc:	e8 5f 57 00 00       	call   7240 <calloc@plt>
    1ae1:	83 c4 10             	add    $0x10,%esp
    1ae4:	89 c6                	mov    %eax,%esi
    1ae6:	85 c0                	test   %eax,%eax
    1ae8:	0f 84 e1 01 00 00    	je     1ccf <icmpv6_recv+0x2af>
    1aee:	50                   	push   %eax
    1aef:	8b 85 64 ff ff ff    	mov    -0x9c(%ebp),%eax
    1af5:	50                   	push   %eax
    1af6:	8b 85 60 ff ff ff    	mov    -0xa0(%ebp),%eax
    1afc:	50                   	push   %eax
    1afd:	56                   	push   %esi
    1afe:	e8 4d 56 00 00       	call   7150 <memcpy@plt>
    1b03:	83 c4 0c             	add    $0xc,%esp
    1b06:	c6 06 81             	movb   $0x81,(%esi)
    1b09:	c6 46 01 00          	movb   $0x0,0x1(%esi)
    1b0d:	66 c7 46 02 00 00    	movw   $0x0,0x2(%esi)
    1b13:	8d 4d b0             	lea    -0x50(%ebp),%ecx
    1b16:	8d 45 b4             	lea    -0x4c(%ebp),%eax
    1b19:	89 8d 60 ff ff ff    	mov    %ecx,-0xa0(%ebp)
    1b1f:	50                   	push   %eax
    1b20:	6a 00                	push   $0x0
    1b22:	57                   	push   %edi
    1b23:	e8 f8 04 00 00       	call   2020 <inet_get_srcaddr>
    1b28:	8b 43 04             	mov    0x4(%ebx),%eax
    1b2b:	8d 7d 88             	lea    -0x78(%ebp),%edi
    1b2e:	89 45 c8             	mov    %eax,-0x38(%ebp)
    1b31:	8b 43 08             	mov    0x8(%ebx),%eax
    1b34:	89 45 cc             	mov    %eax,-0x34(%ebp)
    1b37:	8b 43 0c             	mov    0xc(%ebx),%eax
    1b3a:	89 45 d0             	mov    %eax,-0x30(%ebp)
    1b3d:	8b 43 10             	mov    0x10(%ebx),%eax
    1b40:	89 45 d4             	mov    %eax,-0x2c(%ebp)
    1b43:	8b 43 14             	mov    0x14(%ebx),%eax
    1b46:	89 45 d8             	mov    %eax,-0x28(%ebp)
    1b49:	8b 85 64 ff ff ff    	mov    -0x9c(%ebp),%eax
    1b4f:	89 45 e4             	mov    %eax,-0x1c(%ebp)
    1b52:	58                   	pop    %eax
    1b53:	5a                   	pop    %edx
    1b54:	8d 95 78 ff ff ff    	lea    -0x88(%ebp),%edx
    1b5a:	57                   	push   %edi
    1b5b:	89 75 e0             	mov    %esi,-0x20(%ebp)
    1b5e:	52                   	push   %edx
    1b5f:	c7 45 b0 00 00 00 00 	movl   $0x0,-0x50(%ebp)
    1b66:	c6 45 dc 00          	movb   $0x0,-0x24(%ebp)
    1b6a:	e8 41 56 00 00       	call   71b0 <host2addr128_t_be@plt>
    1b6f:	59                   	pop    %ecx
    1b70:	8d 95 68 ff ff ff    	lea    -0x98(%ebp),%edx
    1b76:	58                   	pop    %eax
    1b77:	8d 45 98             	lea    -0x68(%ebp),%eax
    1b7a:	50                   	push   %eax
    1b7b:	52                   	push   %edx
    1b7c:	e8 2f 56 00 00       	call   71b0 <host2addr128_t_be@plt>
    1b81:	8b 43 34             	mov    0x34(%ebx),%eax
    1b84:	83 c4 0c             	add    $0xc,%esp
    1b87:	0f c8                	bswap  %eax
    1b89:	89 45 a8             	mov    %eax,-0x58(%ebp)
    1b8c:	8d 45 ac             	lea    -0x54(%ebp),%eax
    1b8f:	6a 03                	push   $0x3
    1b91:	6a 00                	push   $0x0
    1b93:	50                   	push   %eax
    1b94:	e8 67 57 00 00       	call   7300 <memset@plt>
    1b99:	83 c4 0c             	add    $0xc,%esp
    1b9c:	c6 45 af 3a          	movb   $0x3a,-0x51(%ebp)
    1ba0:	6a 28                	push   $0x28
    1ba2:	57                   	push   %edi
    1ba3:	68 ff ff 00 00       	push   $0xffff
    1ba8:	e8 53 31 00 00       	call   4d00 <inet_checksum_calc>
    1bad:	83 c4 0c             	add    $0xc,%esp
    1bb0:	89 c7                	mov    %eax,%edi
    1bb2:	8b 85 64 ff ff ff    	mov    -0x9c(%ebp),%eax
    1bb8:	50                   	push   %eax
    1bb9:	31 c0                	xor    %eax,%eax
    1bbb:	66 89 f8             	mov    %di,%ax
    1bbe:	56                   	push   %esi
    1bbf:	50                   	push   %eax
    1bc0:	e8 3b 31 00 00       	call   4d00 <inet_checksum_calc>
    1bc5:	66 c1 c0 08          	rol    $0x8,%ax
    1bc9:	66 89 46 02          	mov    %ax,0x2(%esi)
    1bcd:	8b 8d 60 ff ff ff    	mov    -0xa0(%ebp),%ecx
    1bd3:	6a 00                	push   $0x0
    1bd5:	68 ff 00 00 00       	push   $0xff
    1bda:	6a 3a                	push   $0x3a
    1bdc:	51                   	push   %ecx
    1bdd:	e8 9e 02 00 00       	call   1e80 <inet_route_packet>
    1be2:	83 c4 14             	add    $0x14,%esp
    1be5:	56                   	push   %esi
    1be6:	89 85 64 ff ff ff    	mov    %eax,-0x9c(%ebp)
    1bec:	e8 af 58 00 00       	call   74a0 <free@plt>
    1bf1:	8b 85 64 ff ff ff    	mov    -0x9c(%ebp),%eax
    1bf7:	83 c4 10             	add    $0x10,%esp
    1bfa:	8d 65 f4             	lea    -0xc(%ebp),%esp
    1bfd:	5b                   	pop    %ebx
    1bfe:	5e                   	pop    %esi
    1bff:	5f                   	pop    %edi
    1c00:	5d                   	pop    %ebp
    1c01:	c3                   	ret    
    1c02:	8d b6 00 00 00 00    	lea    0x0(%esi),%esi
    1c08:	83 c0 7a             	add    $0x7a,%eax
    1c0b:	3c 02                	cmp    $0x2,%al
    1c0d:	77 19                	ja     1c28 <icmpv6_recv+0x208>
    1c0f:	83 ec 0c             	sub    $0xc,%esp
    1c12:	53                   	push   %ebx
    1c13:	e8 68 2b 00 00       	call   4780 <ndp_received>
    1c18:	83 c4 10             	add    $0x10,%esp
    1c1b:	8d 65 f4             	lea    -0xc(%ebp),%esp
    1c1e:	5b                   	pop    %ebx
    1c1f:	5e                   	pop    %esi
    1c20:	5f                   	pop    %edi
    1c21:	5d                   	pop    %ebp
    1c22:	c3                   	ret    
    1c23:	90                   	nop
    1c24:	8d 74 26 00          	lea    0x0(%esi,%eiz,1),%esi
    1c28:	8d 65 f4             	lea    -0xc(%ebp),%esp
    1c2b:	b8 f2 ff ff ff       	mov    $0xfffffff2,%eax
    1c30:	5b                   	pop    %ebx
    1c31:	5e                   	pop    %esi
    1c32:	5f                   	pop    %edi
    1c33:	5d                   	pop    %ebp
    1c34:	c3                   	ret    
    1c35:	8d 76 00             	lea    0x0(%esi),%esi
    1c38:	51                   	push   %ecx
    1c39:	68 58 63 00 00       	push   $0x6358
    1c3e:	6a 04                	push   $0x4
    1c40:	6a ff                	push   $0xffffffff
    1c42:	e8 99 55 00 00       	call   71e0 <log_msg@plt>
    1c47:	8b 43 34             	mov    0x34(%ebx),%eax
    1c4a:	83 c4 10             	add    $0x10,%esp
    1c4d:	83 f8 07             	cmp    $0x7,%eax
    1c50:	76 d6                	jbe    1c28 <icmpv6_recv+0x208>
    1c52:	8b 4b 04             	mov    0x4(%ebx),%ecx
    1c55:	8b 53 30             	mov    0x30(%ebx),%edx
    1c58:	89 4d b0             	mov    %ecx,-0x50(%ebp)
    1c5b:	8b 4b 08             	mov    0x8(%ebx),%ecx
    1c5e:	89 4d b4             	mov    %ecx,-0x4c(%ebp)
    1c61:	8b 4b 0c             	mov    0xc(%ebx),%ecx
    1c64:	89 4d b8             	mov    %ecx,-0x48(%ebp)
    1c67:	8b 4b 10             	mov    0x10(%ebx),%ecx
    1c6a:	89 4d bc             	mov    %ecx,-0x44(%ebp)
    1c6d:	8b 4b 14             	mov    0x14(%ebx),%ecx
    1c70:	89 4d c0             	mov    %ecx,-0x40(%ebp)
    1c73:	8b 4b 18             	mov    0x18(%ebx),%ecx
    1c76:	89 4d c4             	mov    %ecx,-0x3c(%ebp)
    1c79:	8b 4b 1c             	mov    0x1c(%ebx),%ecx
    1c7c:	89 4d c8             	mov    %ecx,-0x38(%ebp)
    1c7f:	8b 4b 20             	mov    0x20(%ebx),%ecx
    1c82:	89 4d cc             	mov    %ecx,-0x34(%ebp)
    1c85:	8b 4b 24             	mov    0x24(%ebx),%ecx
    1c88:	89 4d d0             	mov    %ecx,-0x30(%ebp)
    1c8b:	8b 4b 28             	mov    0x28(%ebx),%ecx
    1c8e:	89 4d d4             	mov    %ecx,-0x2c(%ebp)
    1c91:	83 e8 08             	sub    $0x8,%eax
    1c94:	66 8b 4a 06          	mov    0x6(%edx),%cx
    1c98:	89 45 e0             	mov    %eax,-0x20(%ebp)
    1c9b:	66 c1 c1 08          	rol    $0x8,%cx
    1c9f:	66 89 4d d8          	mov    %cx,-0x28(%ebp)
    1ca3:	8d 4a 40             	lea    0x40(%edx),%ecx
    1ca6:	89 4d dc             	mov    %ecx,-0x24(%ebp)
    1ca9:	66 8b 42 04          	mov    0x4(%edx),%ax
    1cad:	52                   	push   %edx
    1cae:	66 c1 c0 08          	rol    $0x8,%ax
    1cb2:	89 c7                	mov    %eax,%edi
    1cb4:	31 c0                	xor    %eax,%eax
    1cb6:	52                   	push   %edx
    1cb7:	66 89 f8             	mov    %di,%ax
    1cba:	8d 55 b0             	lea    -0x50(%ebp),%edx
    1cbd:	52                   	push   %edx
    1cbe:	50                   	push   %eax
    1cbf:	e8 dc 24 00 00       	call   41a0 <inetping_recv>
    1cc4:	83 c4 10             	add    $0x10,%esp
    1cc7:	8d 65 f4             	lea    -0xc(%ebp),%esp
    1cca:	5b                   	pop    %ebx
    1ccb:	5e                   	pop    %esi
    1ccc:	5f                   	pop    %edi
    1ccd:	5d                   	pop    %ebp
    1cce:	c3                   	ret    
    1ccf:	b8 fe ff ff ff       	mov    $0xfffffffe,%eax
    1cd4:	e9 42 ff ff ff       	jmp    1c1b <icmpv6_recv+0x1fb>
    1cd9:	8d b4 26 00 00 00 00 	lea    0x0(%esi,%eiz,1),%esi

00001ce0 <icmpv6_ping_send>:
    1ce0:	55                   	push   %ebp
    1ce1:	89 e5                	mov    %esp,%ebp
    1ce3:	57                   	push   %edi
    1ce4:	56                   	push   %esi
    1ce5:	53                   	push   %ebx
    1ce6:	81 ec 84 00 00 00    	sub    $0x84,%esp
    1cec:	8b 5d 0c             	mov    0xc(%ebp),%ebx
    1cef:	8b 55 08             	mov    0x8(%ebp),%edx
    1cf2:	89 55 84             	mov    %edx,-0x7c(%ebp)
    1cf5:	8b 43 30             	mov    0x30(%ebx),%eax
    1cf8:	8d 70 08             	lea    0x8(%eax),%esi
    1cfb:	56                   	push   %esi
    1cfc:	6a 01                	push   $0x1
    1cfe:	e8 3d 55 00 00       	call   7240 <calloc@plt>
    1d03:	83 c4 10             	add    $0x10,%esp
    1d06:	85 c0                	test   %eax,%eax
    1d08:	0f 84 32 01 00 00    	je     1e40 <icmpv6_ping_send+0x160>
    1d0e:	8b 55 84             	mov    -0x7c(%ebp),%edx
    1d11:	c6 00 80             	movb   $0x80,(%eax)
    1d14:	66 c1 c2 08          	rol    $0x8,%dx
    1d18:	c6 40 01 00          	movb   $0x0,0x1(%eax)
    1d1c:	66 c7 40 02 00 00    	movw   $0x0,0x2(%eax)
    1d22:	66 89 50 04          	mov    %dx,0x4(%eax)
    1d26:	89 c7                	mov    %eax,%edi
    1d28:	8b 43 28             	mov    0x28(%ebx),%eax
    1d2b:	66 c1 c0 08          	rol    $0x8,%ax
    1d2f:	66 89 47 06          	mov    %ax,0x6(%edi)
    1d33:	50                   	push   %eax
    1d34:	8b 43 30             	mov    0x30(%ebx),%eax
    1d37:	50                   	push   %eax
    1d38:	8b 43 2c             	mov    0x2c(%ebx),%eax
    1d3b:	50                   	push   %eax
    1d3c:	8d 47 08             	lea    0x8(%edi),%eax
    1d3f:	50                   	push   %eax
    1d40:	e8 0b 54 00 00       	call   7150 <memcpy@plt>
    1d45:	8b 03                	mov    (%ebx),%eax
    1d47:	83 c4 10             	add    $0x10,%esp
    1d4a:	89 45 b4             	mov    %eax,-0x4c(%ebp)
    1d4d:	8b 43 04             	mov    0x4(%ebx),%eax
    1d50:	89 45 b8             	mov    %eax,-0x48(%ebp)
    1d53:	8b 43 08             	mov    0x8(%ebx),%eax
    1d56:	89 45 bc             	mov    %eax,-0x44(%ebp)
    1d59:	8b 43 0c             	mov    0xc(%ebx),%eax
    1d5c:	89 45 c0             	mov    %eax,-0x40(%ebp)
    1d5f:	8b 43 10             	mov    0x10(%ebx),%eax
    1d62:	89 45 c4             	mov    %eax,-0x3c(%ebp)
    1d65:	8b 43 14             	mov    0x14(%ebx),%eax
    1d68:	89 45 c8             	mov    %eax,-0x38(%ebp)
    1d6b:	8b 43 18             	mov    0x18(%ebx),%eax
    1d6e:	89 45 cc             	mov    %eax,-0x34(%ebp)
    1d71:	8b 43 1c             	mov    0x1c(%ebx),%eax
    1d74:	89 45 d0             	mov    %eax,-0x30(%ebp)
    1d77:	8b 43 20             	mov    0x20(%ebx),%eax
    1d7a:	89 45 d4             	mov    %eax,-0x2c(%ebp)
    1d7d:	8b 43 24             	mov    0x24(%ebx),%eax
    1d80:	89 45 d8             	mov    %eax,-0x28(%ebp)
    1d83:	c7 45 b0 00 00 00 00 	movl   $0x0,-0x50(%ebp)
    1d8a:	c6 45 dc 00          	movb   $0x0,-0x24(%ebp)
    1d8e:	89 7d e0             	mov    %edi,-0x20(%ebp)
    1d91:	89 75 e4             	mov    %esi,-0x1c(%ebp)
    1d94:	83 3b 02             	cmpl   $0x2,(%ebx)
    1d97:	0f 85 bf 00 00 00    	jne    1e5c <icmpv6_ping_send+0x17c>
    1d9d:	83 7b 14 02          	cmpl   $0x2,0x14(%ebx)
    1da1:	0f 85 a0 00 00 00    	jne    1e47 <icmpv6_ping_send+0x167>
    1da7:	8d 55 88             	lea    -0x78(%ebp),%edx
    1daa:	50                   	push   %eax
    1dab:	50                   	push   %eax
    1dac:	8d 43 04             	lea    0x4(%ebx),%eax
    1daf:	52                   	push   %edx
    1db0:	89 55 84             	mov    %edx,-0x7c(%ebp)
    1db3:	50                   	push   %eax
    1db4:	83 c3 18             	add    $0x18,%ebx
    1db7:	e8 f4 53 00 00       	call   71b0 <host2addr128_t_be@plt>
    1dbc:	8d 45 98             	lea    -0x68(%ebp),%eax
    1dbf:	5a                   	pop    %edx
    1dc0:	59                   	pop    %ecx
    1dc1:	50                   	push   %eax
    1dc2:	53                   	push   %ebx
    1dc3:	e8 e8 53 00 00       	call   71b0 <host2addr128_t_be@plt>
    1dc8:	8b 45 e4             	mov    -0x1c(%ebp),%eax
    1dcb:	83 c4 0c             	add    $0xc,%esp
    1dce:	0f c8                	bswap  %eax
    1dd0:	89 45 a8             	mov    %eax,-0x58(%ebp)
    1dd3:	8d 45 ac             	lea    -0x54(%ebp),%eax
    1dd6:	6a 03                	push   $0x3
    1dd8:	6a 00                	push   $0x0
    1dda:	50                   	push   %eax
    1ddb:	e8 20 55 00 00       	call   7300 <memset@plt>
    1de0:	83 c4 0c             	add    $0xc,%esp
    1de3:	8b 55 84             	mov    -0x7c(%ebp),%edx
    1de6:	c6 45 af 3a          	movb   $0x3a,-0x51(%ebp)
    1dea:	6a 28                	push   $0x28
    1dec:	52                   	push   %edx
    1ded:	68 ff ff 00 00       	push   $0xffff
    1df2:	e8 09 2f 00 00       	call   4d00 <inet_checksum_calc>
    1df7:	83 c4 0c             	add    $0xc,%esp
    1dfa:	89 c1                	mov    %eax,%ecx
    1dfc:	31 c0                	xor    %eax,%eax
    1dfe:	66 89 c8             	mov    %cx,%ax
    1e01:	56                   	push   %esi
    1e02:	57                   	push   %edi
    1e03:	50                   	push   %eax
    1e04:	e8 f7 2e 00 00       	call   4d00 <inet_checksum_calc>
    1e09:	66 c1 c0 08          	rol    $0x8,%ax
    1e0d:	66 89 47 02          	mov    %ax,0x2(%edi)
    1e11:	8d 45 b0             	lea    -0x50(%ebp),%eax
    1e14:	6a 00                	push   $0x0
    1e16:	68 ff 00 00 00       	push   $0xff
    1e1b:	6a 3a                	push   $0x3a
    1e1d:	50                   	push   %eax
    1e1e:	e8 5d 00 00 00       	call   1e80 <inet_route_packet>
    1e23:	83 c4 14             	add    $0x14,%esp
    1e26:	57                   	push   %edi
    1e27:	89 45 84             	mov    %eax,-0x7c(%ebp)
    1e2a:	e8 71 56 00 00       	call   74a0 <free@plt>
    1e2f:	83 c4 10             	add    $0x10,%esp
    1e32:	8b 45 84             	mov    -0x7c(%ebp),%eax
    1e35:	8d 65 f4             	lea    -0xc(%ebp),%esp
    1e38:	5b                   	pop    %ebx
    1e39:	5e                   	pop    %esi
    1e3a:	5f                   	pop    %edi
    1e3b:	5d                   	pop    %ebp
    1e3c:	c3                   	ret    
    1e3d:	8d 76 00             	lea    0x0(%esi),%esi
    1e40:	b8 fe ff ff ff       	mov    $0xfffffffe,%eax
    1e45:	eb ee                	jmp    1e35 <icmpv6_ping_send+0x155>
    1e47:	53                   	push   %ebx
    1e48:	68 bc 00 00 00       	push   $0xbc
    1e4d:	68 71 63 00 00       	push   $0x6371
    1e52:	68 94 63 00 00       	push   $0x6394
    1e57:	e8 d4 53 00 00       	call   7230 <assert_abort@plt>
    1e5c:	56                   	push   %esi
    1e5d:	68 bb 00 00 00       	push   $0xbb
    1e62:	68 71 63 00 00       	push   $0x6371
    1e67:	68 7a 63 00 00       	push   $0x637a
    1e6c:	e8 bf 53 00 00       	call   7230 <assert_abort@plt>
    1e71:	66 90                	xchg   %ax,%ax
    1e73:	66 90                	xchg   %ax,%ax
    1e75:	66 90                	xchg   %ax,%ax
    1e77:	66 90                	xchg   %ax,%ax
    1e79:	66 90                	xchg   %ax,%ax
    1e7b:	66 90                	xchg   %ax,%ax
    1e7d:	66 90                	xchg   %ax,%ax
    1e7f:	90                   	nop

00001e80 <inet_route_packet>:
    1e80:	55                   	push   %ebp
    1e81:	89 e5                	mov    %esp,%ebp
    1e83:	57                   	push   %edi
    1e84:	56                   	push   %esi
    1e85:	53                   	push   %ebx
    1e86:	83 ec 3c             	sub    $0x3c,%esp
    1e89:	8b 5d 08             	mov    0x8(%ebp),%ebx
    1e8c:	8b 75 0c             	mov    0xc(%ebp),%esi
    1e8f:	8b 7d 10             	mov    0x10(%ebp),%edi
    1e92:	8b 03                	mov    (%ebx),%eax
    1e94:	85 c0                	test   %eax,%eax
    1e96:	74 68                	je     1f00 <inet_route_packet+0x80>
    1e98:	50                   	push   %eax
    1e99:	68 af 63 00 00       	push   $0x63af
    1e9e:	6a 04                	push   $0x4
    1ea0:	6a ff                	push   $0xffffffff
    1ea2:	e8 39 53 00 00       	call   71e0 <log_msg@plt>
    1ea7:	58                   	pop    %eax
    1ea8:	8b 03                	mov    (%ebx),%eax
    1eaa:	50                   	push   %eax
    1eab:	e8 20 15 00 00       	call   33d0 <inet_link_get_by_id>
    1eb0:	83 c4 10             	add    $0x10,%esp
    1eb3:	85 c0                	test   %eax,%eax
    1eb5:	0f 84 47 01 00 00    	je     2002 <inet_route_packet+0x182>
    1ebb:	83 7b 04 01          	cmpl   $0x1,0x4(%ebx)
    1ebf:	0f 85 bb 00 00 00    	jne    1f80 <inet_route_packet+0x100>
    1ec5:	83 7b 18 01          	cmpl   $0x1,0x18(%ebx)
    1ec9:	0f 85 b1 00 00 00    	jne    1f80 <inet_route_packet+0x100>
    1ecf:	8b 4d 14             	mov    0x14(%ebp),%ecx
    1ed2:	81 e7 ff 00 00 00    	and    $0xff,%edi
    1ed8:	81 e6 ff 00 00 00    	and    $0xff,%esi
    1ede:	52                   	push   %edx
    1edf:	51                   	push   %ecx
    1ee0:	57                   	push   %edi
    1ee1:	56                   	push   %esi
    1ee2:	53                   	push   %ebx
    1ee3:	8b 73 1c             	mov    0x1c(%ebx),%esi
    1ee6:	56                   	push   %esi
    1ee7:	8b 7b 08             	mov    0x8(%ebx),%edi
    1eea:	57                   	push   %edi
    1eeb:	50                   	push   %eax
    1eec:	e8 ef 11 00 00       	call   30e0 <inet_link_send_dgram>
    1ef1:	83 c4 20             	add    $0x20,%esp
    1ef4:	8d 65 f4             	lea    -0xc(%ebp),%esp
    1ef7:	5b                   	pop    %ebx
    1ef8:	5e                   	pop    %esi
    1ef9:	5f                   	pop    %edi
    1efa:	5d                   	pop    %ebp
    1efb:	c3                   	ret    
    1efc:	8d 74 26 00          	lea    0x0(%esi,%eiz,1),%esi
    1f00:	50                   	push   %eax
    1f01:	68 cc 63 00 00       	push   $0x63cc
    1f06:	6a 04                	push   $0x4
    1f08:	6a ff                	push   $0xffffffff
    1f0a:	e8 d1 52 00 00       	call   71e0 <log_msg@plt>
    1f0f:	8d 53 18             	lea    0x18(%ebx),%edx
    1f12:	58                   	pop    %eax
    1f13:	89 55 c4             	mov    %edx,-0x3c(%ebp)
    1f16:	59                   	pop    %ecx
    1f17:	6a 00                	push   $0x0
    1f19:	52                   	push   %edx
    1f1a:	e8 21 f4 ff ff       	call   1340 <inet_addrobj_find>
    1f1f:	81 e6 ff 00 00 00    	and    $0xff,%esi
    1f25:	81 e7 ff 00 00 00    	and    $0xff,%edi
    1f2b:	83 c4 10             	add    $0x10,%esp
    1f2e:	89 45 d0             	mov    %eax,-0x30(%ebp)
    1f31:	85 c0                	test   %eax,%eax
    1f33:	8b 55 c4             	mov    -0x3c(%ebp),%edx
    1f36:	74 58                	je     1f90 <inet_route_packet+0x110>
    1f38:	8b 53 18             	mov    0x18(%ebx),%edx
    1f3b:	c7 45 cc 01 00 00 00 	movl   $0x1,-0x34(%ebp)
    1f42:	89 55 d4             	mov    %edx,-0x2c(%ebp)
    1f45:	8b 53 1c             	mov    0x1c(%ebx),%edx
    1f48:	89 55 d8             	mov    %edx,-0x28(%ebp)
    1f4b:	8b 53 20             	mov    0x20(%ebx),%edx
    1f4e:	89 55 dc             	mov    %edx,-0x24(%ebp)
    1f51:	8b 53 24             	mov    0x24(%ebx),%edx
    1f54:	89 55 e0             	mov    %edx,-0x20(%ebp)
    1f57:	8b 53 28             	mov    0x28(%ebx),%edx
    1f5a:	89 55 e4             	mov    %edx,-0x1c(%ebp)
    1f5d:	8b 4d 14             	mov    0x14(%ebp),%ecx
    1f60:	52                   	push   %edx
    1f61:	52                   	push   %edx
    1f62:	8d 55 d4             	lea    -0x2c(%ebp),%edx
    1f65:	51                   	push   %ecx
    1f66:	57                   	push   %edi
    1f67:	56                   	push   %esi
    1f68:	53                   	push   %ebx
    1f69:	52                   	push   %edx
    1f6a:	50                   	push   %eax
    1f6b:	e8 10 f6 ff ff       	call   1580 <inet_addrobj_send_dgram>
    1f70:	83 c4 20             	add    $0x20,%esp
    1f73:	8d 65 f4             	lea    -0xc(%ebp),%esp
    1f76:	5b                   	pop    %ebx
    1f77:	5e                   	pop    %esi
    1f78:	5f                   	pop    %edi
    1f79:	5d                   	pop    %ebp
    1f7a:	c3                   	ret    
    1f7b:	90                   	nop
    1f7c:	8d 74 26 00          	lea    0x0(%esi,%eiz,1),%esi
    1f80:	8d 65 f4             	lea    -0xc(%ebp),%esp
    1f83:	b8 f2 ff ff ff       	mov    $0xfffffff2,%eax
    1f88:	5b                   	pop    %ebx
    1f89:	5e                   	pop    %esi
    1f8a:	5f                   	pop    %edi
    1f8b:	5d                   	pop    %ebp
    1f8c:	c3                   	ret    
    1f8d:	8d 76 00             	lea    0x0(%esi),%esi
    1f90:	83 ec 0c             	sub    $0xc,%esp
    1f93:	52                   	push   %edx
    1f94:	e8 17 3f 00 00       	call   5eb0 <inet_sroute_find>
    1f99:	83 c4 10             	add    $0x10,%esp
    1f9c:	89 c2                	mov    %eax,%edx
    1f9e:	85 c0                	test   %eax,%eax
    1fa0:	74 6e                	je     2010 <inet_route_packet+0x190>
    1fa2:	50                   	push   %eax
    1fa3:	50                   	push   %eax
    1fa4:	8d 42 24             	lea    0x24(%edx),%eax
    1fa7:	6a 00                	push   $0x0
    1fa9:	89 55 c4             	mov    %edx,-0x3c(%ebp)
    1fac:	50                   	push   %eax
    1fad:	e8 8e f3 ff ff       	call   1340 <inet_addrobj_find>
    1fb2:	8b 55 c4             	mov    -0x3c(%ebp),%edx
    1fb5:	8b 4a 24             	mov    0x24(%edx),%ecx
    1fb8:	89 45 d0             	mov    %eax,-0x30(%ebp)
    1fbb:	89 4d d4             	mov    %ecx,-0x2c(%ebp)
    1fbe:	8b 4a 28             	mov    0x28(%edx),%ecx
    1fc1:	89 4d d8             	mov    %ecx,-0x28(%ebp)
    1fc4:	8b 4a 2c             	mov    0x2c(%edx),%ecx
    1fc7:	89 4d dc             	mov    %ecx,-0x24(%ebp)
    1fca:	8b 4a 30             	mov    0x30(%edx),%ecx
    1fcd:	8b 52 34             	mov    0x34(%edx),%edx
    1fd0:	89 4d e0             	mov    %ecx,-0x20(%ebp)
    1fd3:	89 55 e4             	mov    %edx,-0x1c(%ebp)
    1fd6:	c7 45 cc 02 00 00 00 	movl   $0x2,-0x34(%ebp)
    1fdd:	83 c4 10             	add    $0x10,%esp
    1fe0:	85 c0                	test   %eax,%eax
    1fe2:	0f 85 75 ff ff ff    	jne    1f5d <inet_route_packet+0xdd>
    1fe8:	53                   	push   %ebx
    1fe9:	68 9c 64 00 00       	push   $0x649c
    1fee:	6a 04                	push   $0x4
    1ff0:	6a ff                	push   $0xffffffff
    1ff2:	e8 e9 51 00 00       	call   71e0 <log_msg@plt>
    1ff7:	83 c4 10             	add    $0x10,%esp
    1ffa:	83 c8 ff             	or     $0xffffffff,%eax
    1ffd:	e9 f2 fe ff ff       	jmp    1ef4 <inet_route_packet+0x74>
    2002:	83 c8 ff             	or     $0xffffffff,%eax
    2005:	e9 ea fe ff ff       	jmp    1ef4 <inet_route_packet+0x74>
    200a:	8d b6 00 00 00 00    	lea    0x0(%esi),%esi
    2010:	8b 45 d0             	mov    -0x30(%ebp),%eax
    2013:	eb cb                	jmp    1fe0 <inet_route_packet+0x160>
    2015:	8d 74 26 00          	lea    0x0(%esi,%eiz,1),%esi
    2019:	8d bc 27 00 00 00 00 	lea    0x0(%edi,%eiz,1),%edi

00002020 <inet_get_srcaddr>:
    2020:	55                   	push   %ebp
    2021:	89 e5                	mov    %esp,%ebp
    2023:	53                   	push   %ebx
    2024:	83 ec 0c             	sub    $0xc,%esp
    2027:	8b 5d 08             	mov    0x8(%ebp),%ebx
    202a:	6a 00                	push   $0x0
    202c:	53                   	push   %ebx
    202d:	e8 0e f3 ff ff       	call   1340 <inet_addrobj_find>
    2032:	83 c4 10             	add    $0x10,%esp
    2035:	85 c0                	test   %eax,%eax
    2037:	74 3f                	je     2078 <inet_get_srcaddr+0x58>
    2039:	83 3b 01             	cmpl   $0x1,(%ebx)
    203c:	74 1a                	je     2058 <inet_get_srcaddr+0x38>
    203e:	83 c0 0c             	add    $0xc,%eax
    2041:	8b 4d 10             	mov    0x10(%ebp),%ecx
    2044:	52                   	push   %edx
    2045:	52                   	push   %edx
    2046:	51                   	push   %ecx
    2047:	50                   	push   %eax
    2048:	e8 13 51 00 00       	call   7160 <inet_naddr_addr@plt>
    204d:	83 c4 10             	add    $0x10,%esp
    2050:	31 c0                	xor    %eax,%eax
    2052:	8b 5d fc             	mov    -0x4(%ebp),%ebx
    2055:	c9                   	leave  
    2056:	c3                   	ret    
    2057:	90                   	nop
    2058:	83 7b 04 ff          	cmpl   $0xffffffff,0x4(%ebx)
    205c:	75 e0                	jne    203e <inet_get_srcaddr+0x1e>
    205e:	8b 45 10             	mov    0x10(%ebp),%eax
    2061:	c7 00 01 00 00 00    	movl   $0x1,(%eax)
    2067:	c7 40 04 00 00 00 00 	movl   $0x0,0x4(%eax)
    206e:	31 c0                	xor    %eax,%eax
    2070:	eb e0                	jmp    2052 <inet_get_srcaddr+0x32>
    2072:	8d b6 00 00 00 00    	lea    0x0(%esi),%esi
    2078:	83 ec 0c             	sub    $0xc,%esp
    207b:	53                   	push   %ebx
    207c:	e8 2f 3e 00 00       	call   5eb0 <inet_sroute_find>
    2081:	83 c4 10             	add    $0x10,%esp
    2084:	85 c0                	test   %eax,%eax
    2086:	74 18                	je     20a0 <inet_get_srcaddr+0x80>
    2088:	83 c0 24             	add    $0x24,%eax
    208b:	52                   	push   %edx
    208c:	52                   	push   %edx
    208d:	6a 00                	push   $0x0
    208f:	50                   	push   %eax
    2090:	e8 ab f2 ff ff       	call   1340 <inet_addrobj_find>
    2095:	83 c4 10             	add    $0x10,%esp
    2098:	85 c0                	test   %eax,%eax
    209a:	75 9d                	jne    2039 <inet_get_srcaddr+0x19>
    209c:	8d 74 26 00          	lea    0x0(%esi,%eiz,1),%esi
    20a0:	51                   	push   %ecx
    20a1:	68 9c 64 00 00       	push   $0x649c
    20a6:	6a 04                	push   $0x4
    20a8:	6a ff                	push   $0xffffffff
    20aa:	e8 31 51 00 00       	call   71e0 <log_msg@plt>
    20af:	83 c4 10             	add    $0x10,%esp
    20b2:	83 c8 ff             	or     $0xffffffff,%eax
    20b5:	eb 9b                	jmp    2052 <inet_get_srcaddr+0x32>
    20b7:	89 f6                	mov    %esi,%esi
    20b9:	8d bc 27 00 00 00 00 	lea    0x0(%edi,%eiz,1),%edi

000020c0 <inet_default_conn>:
    20c0:	55                   	push   %ebp
    20c1:	89 e5                	mov    %esp,%ebp
    20c3:	57                   	push   %edi
    20c4:	56                   	push   %esi
    20c5:	53                   	push   %ebx
    20c6:	81 ec b0 00 00 00    	sub    $0xb0,%esp
    20cc:	8d 75 8c             	lea    -0x74(%ebp),%esi
    20cf:	68 df 63 00 00       	push   $0x63df
    20d4:	6a 04                	push   $0x4
    20d6:	6a ff                	push   $0xffffffff
    20d8:	e8 03 51 00 00       	call   71e0 <log_msg@plt>
    20dd:	8b 4d 08             	mov    0x8(%ebp),%ecx
    20e0:	58                   	pop    %eax
    20e1:	5a                   	pop    %edx
    20e2:	6a 00                	push   $0x0
    20e4:	51                   	push   %ecx
    20e5:	e8 d6 50 00 00       	call   71c0 <async_answer_0@plt>
    20ea:	c7 04 24 40 91 00 00 	movl   $0x9140,(%esp)
    20f1:	c7 85 68 ff ff ff 00 	movl   $0x0,-0x98(%ebp)
    20f8:	00 00 00 
    20fb:	e8 b0 53 00 00       	call   74b0 <fibril_mutex_lock@plt>
    2100:	8b 15 38 91 00 00    	mov    0x9138,%edx
    2106:	8d 85 70 ff ff ff    	lea    -0x90(%ebp),%eax
    210c:	c7 85 74 ff ff ff 38 	movl   $0x9138,-0x8c(%ebp)
    2113:	91 00 00 
    2116:	89 95 70 ff ff ff    	mov    %edx,-0x90(%ebp)
    211c:	89 42 04             	mov    %eax,0x4(%edx)
    211f:	a3 38 91 00 00       	mov    %eax,0x9138
    2124:	c7 04 24 40 91 00 00 	movl   $0x9140,(%esp)
    212b:	e8 70 51 00 00       	call   72a0 <fibril_mutex_unlock@plt>
    2130:	83 c4 10             	add    $0x10,%esp
    2133:	90                   	nop
    2134:	8d 74 26 00          	lea    0x0(%esi,%eiz,1),%esi
    2138:	57                   	push   %edi
    2139:	57                   	push   %edi
    213a:	6a 00                	push   $0x0
    213c:	56                   	push   %esi
    213d:	e8 3e 52 00 00       	call   7380 <async_get_call_timeout@plt>
    2142:	83 c4 10             	add    $0x10,%esp
    2145:	89 c7                	mov    %eax,%edi
    2147:	8b 45 8c             	mov    -0x74(%ebp),%eax
    214a:	85 c0                	test   %eax,%eax
    214c:	0f 84 76 01 00 00    	je     22c8 <inet_default_conn+0x208>
    2152:	3d 01 04 00 00       	cmp    $0x401,%eax
    2157:	0f 84 1b 01 00 00    	je     2278 <inet_default_conn+0x1b8>
    215d:	76 49                	jbe    21a8 <inet_default_conn+0xe8>
    215f:	3d 02 04 00 00       	cmp    $0x402,%eax
    2164:	0f 84 8e 00 00 00    	je     21f8 <inet_default_conn+0x138>
    216a:	3d 03 04 00 00       	cmp    $0x403,%eax
    216f:	75 6f                	jne    21e0 <inet_default_conn+0x120>
    2171:	8b 5d 90             	mov    -0x70(%ebp),%ebx
    2174:	53                   	push   %ebx
    2175:	68 35 64 00 00       	push   $0x6435
    217a:	6a 04                	push   $0x4
    217c:	6a ff                	push   $0xffffffff
    217e:	e8 5d 50 00 00       	call   71e0 <log_msg@plt>
    2183:	83 c4 10             	add    $0x10,%esp
    2186:	81 fb ff 00 00 00    	cmp    $0xff,%ebx
    218c:	77 52                	ja     21e0 <inet_default_conn+0x120>
    218e:	88 9d 6c ff ff ff    	mov    %bl,-0x94(%ebp)
    2194:	52                   	push   %edx
    2195:	52                   	push   %edx
    2196:	6a 00                	push   $0x0
    2198:	57                   	push   %edi
    2199:	e8 22 50 00 00       	call   71c0 <async_answer_0@plt>
    219e:	83 c4 10             	add    $0x10,%esp
    21a1:	eb 95                	jmp    2138 <inet_default_conn+0x78>
    21a3:	90                   	nop
    21a4:	8d 74 26 00          	lea    0x0(%esi,%eiz,1),%esi
    21a8:	3d 00 04 00 00       	cmp    $0x400,%eax
    21ad:	75 31                	jne    21e0 <inet_default_conn+0x120>
    21af:	53                   	push   %ebx
    21b0:	68 f3 63 00 00       	push   $0x63f3
    21b5:	6a 04                	push   $0x4
    21b7:	6a ff                	push   $0xffffffff
    21b9:	e8 22 50 00 00       	call   71e0 <log_msg@plt>
    21be:	c7 04 24 01 00 00 00 	movl   $0x1,(%esp)
    21c5:	e8 c6 52 00 00       	call   7490 <async_callback_receive@plt>
    21ca:	83 c4 10             	add    $0x10,%esp
    21cd:	85 c0                	test   %eax,%eax
    21cf:	0f 84 4b 02 00 00    	je     2420 <inet_default_conn+0x360>
    21d5:	89 85 68 ff ff ff    	mov    %eax,-0x98(%ebp)
    21db:	eb b7                	jmp    2194 <inet_default_conn+0xd4>
    21dd:	8d 76 00             	lea    0x0(%esi),%esi
    21e0:	50                   	push   %eax
    21e1:	50                   	push   %eax
    21e2:	6a f2                	push   $0xfffffff2
    21e4:	57                   	push   %edi
    21e5:	e8 d6 4f 00 00       	call   71c0 <async_answer_0@plt>
    21ea:	83 c4 10             	add    $0x10,%esp
    21ed:	e9 46 ff ff ff       	jmp    2138 <inet_default_conn+0x78>
    21f2:	8d b6 00 00 00 00    	lea    0x0(%esi),%esi
    21f8:	50                   	push   %eax
    21f9:	68 25 64 00 00       	push   $0x6425
    21fe:	6a 04                	push   $0x4
    2200:	6a ff                	push   $0xffffffff
    2202:	e8 d9 4f 00 00       	call   71e0 <log_msg@plt>
    2207:	8b 45 90             	mov    -0x70(%ebp),%eax
    220a:	89 45 b0             	mov    %eax,-0x50(%ebp)
    220d:	8b 45 94             	mov    -0x6c(%ebp),%eax
    2210:	88 45 dc             	mov    %al,-0x24(%ebp)
    2213:	8b 45 98             	mov    -0x68(%ebp),%eax
    2216:	89 85 54 ff ff ff    	mov    %eax,-0xac(%ebp)
    221c:	8b 45 9c             	mov    -0x64(%ebp),%eax
    221f:	89 85 50 ff ff ff    	mov    %eax,-0xb0(%ebp)
    2225:	8d 9d 78 ff ff ff    	lea    -0x88(%ebp),%ebx
    222b:	58                   	pop    %eax
    222c:	8d 85 64 ff ff ff    	lea    -0x9c(%ebp),%eax
    2232:	5a                   	pop    %edx
    2233:	53                   	push   %ebx
    2234:	50                   	push   %eax
    2235:	e8 46 52 00 00       	call   7480 <async_data_write_receive@plt>
    223a:	83 c4 10             	add    $0x10,%esp
    223d:	84 c0                	test   %al,%al
    223f:	0f 84 9b 00 00 00    	je     22e0 <inet_default_conn+0x220>
    2245:	83 bd 78 ff ff ff 14 	cmpl   $0x14,-0x88(%ebp)
    224c:	0f 84 2e 01 00 00    	je     2380 <inet_default_conn+0x2c0>
    2252:	8b 9d 64 ff ff ff    	mov    -0x9c(%ebp),%ebx
    2258:	51                   	push   %ecx
    2259:	51                   	push   %ecx
    225a:	6a f2                	push   $0xfffffff2
    225c:	53                   	push   %ebx
    225d:	e8 5e 4f 00 00       	call   71c0 <async_answer_0@plt>
    2262:	58                   	pop    %eax
    2263:	5a                   	pop    %edx
    2264:	6a f2                	push   $0xfffffff2
    2266:	57                   	push   %edi
    2267:	e8 54 4f 00 00       	call   71c0 <async_answer_0@plt>
    226c:	83 c4 10             	add    $0x10,%esp
    226f:	e9 c4 fe ff ff       	jmp    2138 <inet_default_conn+0x78>
    2274:	8d 74 26 00          	lea    0x0(%esi,%eiz,1),%esi
    2278:	50                   	push   %eax
    2279:	68 0e 64 00 00       	push   $0x640e
    227e:	6a 04                	push   $0x4
    2280:	6a ff                	push   $0xffffffff
    2282:	e8 59 4f 00 00       	call   71e0 <log_msg@plt>
    2287:	8b 45 90             	mov    -0x70(%ebp),%eax
    228a:	89 85 54 ff ff ff    	mov    %eax,-0xac(%ebp)
    2290:	58                   	pop    %eax
    2291:	8d 85 64 ff ff ff    	lea    -0x9c(%ebp),%eax
    2297:	5a                   	pop    %edx
    2298:	50                   	push   %eax
    2299:	8d 85 60 ff ff ff    	lea    -0xa0(%ebp),%eax
    229f:	50                   	push   %eax
    22a0:	e8 db 51 00 00       	call   7480 <async_data_write_receive@plt>
    22a5:	83 c4 10             	add    $0x10,%esp
    22a8:	84 c0                	test   %al,%al
    22aa:	0f 84 c0 00 00 00    	je     2370 <inet_default_conn+0x2b0>
    22b0:	83 bd 64 ff ff ff 14 	cmpl   $0x14,-0x9c(%ebp)
    22b7:	74 4f                	je     2308 <inet_default_conn+0x248>
    22b9:	50                   	push   %eax
    22ba:	50                   	push   %eax
    22bb:	8b 85 60 ff ff ff    	mov    -0xa0(%ebp),%eax
    22c1:	6a f2                	push   $0xfffffff2
    22c3:	50                   	push   %eax
    22c4:	eb 97                	jmp    225d <inet_default_conn+0x19d>
    22c6:	66 90                	xchg   %ax,%ax
    22c8:	56                   	push   %esi
    22c9:	56                   	push   %esi
    22ca:	6a 00                	push   $0x0
    22cc:	57                   	push   %edi
    22cd:	e8 ee 4e 00 00       	call   71c0 <async_answer_0@plt>
    22d2:	8d 65 f4             	lea    -0xc(%ebp),%esp
    22d5:	5b                   	pop    %ebx
    22d6:	5e                   	pop    %esi
    22d7:	5f                   	pop    %edi
    22d8:	5d                   	pop    %ebp
    22d9:	c3                   	ret    
    22da:	8d b6 00 00 00 00    	lea    0x0(%esi),%esi
    22e0:	8b 9d 64 ff ff ff    	mov    -0x9c(%ebp),%ebx
    22e6:	51                   	push   %ecx
    22e7:	51                   	push   %ecx
    22e8:	6a fc                	push   $0xfffffffc
    22ea:	53                   	push   %ebx
    22eb:	e8 d0 4e 00 00       	call   71c0 <async_answer_0@plt>
    22f0:	58                   	pop    %eax
    22f1:	5a                   	pop    %edx
    22f2:	6a fc                	push   $0xfffffffc
    22f4:	57                   	push   %edi
    22f5:	e8 c6 4e 00 00       	call   71c0 <async_answer_0@plt>
    22fa:	83 c4 10             	add    $0x10,%esp
    22fd:	e9 36 fe ff ff       	jmp    2138 <inet_default_conn+0x78>
    2302:	8d b6 00 00 00 00    	lea    0x0(%esi),%esi
    2308:	8b 85 60 ff ff ff    	mov    -0xa0(%ebp),%eax
    230e:	8d 9d 78 ff ff ff    	lea    -0x88(%ebp),%ebx
    2314:	51                   	push   %ecx
    2315:	6a 14                	push   $0x14
    2317:	53                   	push   %ebx
    2318:	50                   	push   %eax
    2319:	e8 e2 50 00 00       	call   7400 <async_data_write_finalize@plt>
    231e:	83 c4 10             	add    $0x10,%esp
    2321:	89 c2                	mov    %eax,%edx
    2323:	85 c0                	test   %eax,%eax
    2325:	0f 85 5d 01 00 00    	jne    2488 <inet_default_conn+0x3c8>
    232b:	50                   	push   %eax
    232c:	8d 45 b0             	lea    -0x50(%ebp),%eax
    232f:	50                   	push   %eax
    2330:	31 c0                	xor    %eax,%eax
    2332:	8a 85 54 ff ff ff    	mov    -0xac(%ebp),%al
    2338:	50                   	push   %eax
    2339:	53                   	push   %ebx
    233a:	e8 e1 fc ff ff       	call   2020 <inet_get_srcaddr>
    233f:	83 c4 10             	add    $0x10,%esp
    2342:	85 c0                	test   %eax,%eax
    2344:	0f 85 be 00 00 00    	jne    2408 <inet_default_conn+0x348>
    234a:	8d 85 64 ff ff ff    	lea    -0x9c(%ebp),%eax
    2350:	51                   	push   %ecx
    2351:	51                   	push   %ecx
    2352:	50                   	push   %eax
    2353:	8d 85 60 ff ff ff    	lea    -0xa0(%ebp),%eax
    2359:	50                   	push   %eax
    235a:	e8 b1 4f 00 00       	call   7310 <async_data_read_receive@plt>
    235f:	83 c4 10             	add    $0x10,%esp
    2362:	84 c0                	test   %al,%al
    2364:	0f 85 ce 00 00 00    	jne    2438 <inet_default_conn+0x378>
    236a:	8d b6 00 00 00 00    	lea    0x0(%esi),%esi
    2370:	8b 95 60 ff ff ff    	mov    -0xa0(%ebp),%edx
    2376:	50                   	push   %eax
    2377:	50                   	push   %eax
    2378:	6a fc                	push   $0xfffffffc
    237a:	52                   	push   %edx
    237b:	e9 6b ff ff ff       	jmp    22eb <inet_default_conn+0x22b>
    2380:	8d 45 b4             	lea    -0x4c(%ebp),%eax
    2383:	51                   	push   %ecx
    2384:	6a 14                	push   $0x14
    2386:	50                   	push   %eax
    2387:	8b 85 64 ff ff ff    	mov    -0x9c(%ebp),%eax
    238d:	50                   	push   %eax
    238e:	e8 6d 50 00 00       	call   7400 <async_data_write_finalize@plt>
    2393:	83 c4 10             	add    $0x10,%esp
    2396:	89 c2                	mov    %eax,%edx
    2398:	85 c0                	test   %eax,%eax
    239a:	0f 85 18 01 00 00    	jne    24b8 <inet_default_conn+0x3f8>
    23a0:	50                   	push   %eax
    23a1:	50                   	push   %eax
    23a2:	8d 85 64 ff ff ff    	lea    -0x9c(%ebp),%eax
    23a8:	53                   	push   %ebx
    23a9:	50                   	push   %eax
    23aa:	e8 d1 50 00 00       	call   7480 <async_data_write_receive@plt>
    23af:	83 c4 10             	add    $0x10,%esp
    23b2:	84 c0                	test   %al,%al
    23b4:	0f 84 26 ff ff ff    	je     22e0 <inet_default_conn+0x220>
    23ba:	83 bd 78 ff ff ff 14 	cmpl   $0x14,-0x88(%ebp)
    23c1:	0f 85 8b fe ff ff    	jne    2252 <inet_default_conn+0x192>
    23c7:	8d 45 c8             	lea    -0x38(%ebp),%eax
    23ca:	8b 9d 64 ff ff ff    	mov    -0x9c(%ebp),%ebx
    23d0:	51                   	push   %ecx
    23d1:	6a 14                	push   $0x14
    23d3:	50                   	push   %eax
    23d4:	53                   	push   %ebx
    23d5:	e8 26 50 00 00       	call   7400 <async_data_write_finalize@plt>
    23da:	83 c4 10             	add    $0x10,%esp
    23dd:	85 c0                	test   %eax,%eax
    23df:	0f 85 32 01 00 00    	jne    2517 <inet_default_conn+0x457>
    23e5:	8d 45 e4             	lea    -0x1c(%ebp),%eax
    23e8:	51                   	push   %ecx
    23e9:	51                   	push   %ecx
    23ea:	50                   	push   %eax
    23eb:	8d 45 e0             	lea    -0x20(%ebp),%eax
    23ee:	6a 00                	push   $0x0
    23f0:	6a 00                	push   $0x0
    23f2:	6a 00                	push   $0x0
    23f4:	6a 00                	push   $0x0
    23f6:	50                   	push   %eax
    23f7:	e8 14 50 00 00       	call   7410 <async_data_write_accept@plt>
    23fc:	83 c4 20             	add    $0x20,%esp
    23ff:	85 c0                	test   %eax,%eax
    2401:	0f 84 dd 00 00 00    	je     24e4 <inet_default_conn+0x424>
    2407:	90                   	nop
    2408:	52                   	push   %edx
    2409:	52                   	push   %edx
    240a:	50                   	push   %eax
    240b:	57                   	push   %edi
    240c:	e8 af 4d 00 00       	call   71c0 <async_answer_0@plt>
    2411:	83 c4 10             	add    $0x10,%esp
    2414:	e9 1f fd ff ff       	jmp    2138 <inet_default_conn+0x78>
    2419:	8d b4 26 00 00 00 00 	lea    0x0(%esi,%eiz,1),%esi
    2420:	51                   	push   %ecx
    2421:	51                   	push   %ecx
    2422:	6a fe                	push   $0xfffffffe
    2424:	57                   	push   %edi
    2425:	e8 96 4d 00 00       	call   71c0 <async_answer_0@plt>
    242a:	83 c4 10             	add    $0x10,%esp
    242d:	e9 06 fd ff ff       	jmp    2138 <inet_default_conn+0x78>
    2432:	8d b6 00 00 00 00    	lea    0x0(%esi),%esi
    2438:	83 bd 64 ff ff ff 14 	cmpl   $0x14,-0x9c(%ebp)
    243f:	0f 85 74 fe ff ff    	jne    22b9 <inet_default_conn+0x1f9>
    2445:	50                   	push   %eax
    2446:	8d 45 b0             	lea    -0x50(%ebp),%eax
    2449:	6a 14                	push   $0x14
    244b:	50                   	push   %eax
    244c:	8b 85 60 ff ff ff    	mov    -0xa0(%ebp),%eax
    2452:	50                   	push   %eax
    2453:	e8 c8 4c 00 00       	call   7120 <async_data_read_finalize@plt>
    2458:	83 c4 10             	add    $0x10,%esp
    245b:	89 c3                	mov    %eax,%ebx
    245d:	85 c0                	test   %eax,%eax
    245f:	0f 84 2f fd ff ff    	je     2194 <inet_default_conn+0xd4>
    2465:	51                   	push   %ecx
    2466:	51                   	push   %ecx
    2467:	50                   	push   %eax
    2468:	8b 85 60 ff ff ff    	mov    -0xa0(%ebp),%eax
    246e:	50                   	push   %eax
    246f:	e8 4c 4d 00 00       	call   71c0 <async_answer_0@plt>
    2474:	59                   	pop    %ecx
    2475:	58                   	pop    %eax
    2476:	53                   	push   %ebx
    2477:	57                   	push   %edi
    2478:	e8 43 4d 00 00       	call   71c0 <async_answer_0@plt>
    247d:	83 c4 10             	add    $0x10,%esp
    2480:	e9 b3 fc ff ff       	jmp    2138 <inet_default_conn+0x78>
    2485:	8d 76 00             	lea    0x0(%esi),%esi
    2488:	50                   	push   %eax
    2489:	50                   	push   %eax
    248a:	8b 85 60 ff ff ff    	mov    -0xa0(%ebp),%eax
    2490:	52                   	push   %edx
    2491:	89 95 50 ff ff ff    	mov    %edx,-0xb0(%ebp)
    2497:	50                   	push   %eax
    2498:	e8 23 4d 00 00       	call   71c0 <async_answer_0@plt>
    249d:	58                   	pop    %eax
    249e:	5a                   	pop    %edx
    249f:	8b 95 50 ff ff ff    	mov    -0xb0(%ebp),%edx
    24a5:	52                   	push   %edx
    24a6:	57                   	push   %edi
    24a7:	e8 14 4d 00 00       	call   71c0 <async_answer_0@plt>
    24ac:	83 c4 10             	add    $0x10,%esp
    24af:	e9 77 fe ff ff       	jmp    232b <inet_default_conn+0x26b>
    24b4:	8d 74 26 00          	lea    0x0(%esi,%eiz,1),%esi
    24b8:	50                   	push   %eax
    24b9:	50                   	push   %eax
    24ba:	8b 85 64 ff ff ff    	mov    -0x9c(%ebp),%eax
    24c0:	52                   	push   %edx
    24c1:	89 95 4c ff ff ff    	mov    %edx,-0xb4(%ebp)
    24c7:	50                   	push   %eax
    24c8:	e8 f3 4c 00 00       	call   71c0 <async_answer_0@plt>
    24cd:	58                   	pop    %eax
    24ce:	5a                   	pop    %edx
    24cf:	8b 95 4c ff ff ff    	mov    -0xb4(%ebp),%edx
    24d5:	52                   	push   %edx
    24d6:	57                   	push   %edi
    24d7:	e8 e4 4c 00 00       	call   71c0 <async_answer_0@plt>
    24dc:	83 c4 10             	add    $0x10,%esp
    24df:	e9 bc fe ff ff       	jmp    23a0 <inet_default_conn+0x2e0>
    24e4:	8b 85 50 ff ff ff    	mov    -0xb0(%ebp),%eax
    24ea:	31 db                	xor    %ebx,%ebx
    24ec:	50                   	push   %eax
    24ed:	31 c0                	xor    %eax,%eax
    24ef:	8a 9d 54 ff ff ff    	mov    -0xac(%ebp),%bl
    24f5:	8a 85 6c ff ff ff    	mov    -0x94(%ebp),%al
    24fb:	53                   	push   %ebx
    24fc:	50                   	push   %eax
    24fd:	8d 45 b0             	lea    -0x50(%ebp),%eax
    2500:	50                   	push   %eax
    2501:	e8 7a f9 ff ff       	call   1e80 <inet_route_packet>
    2506:	89 c3                	mov    %eax,%ebx
    2508:	58                   	pop    %eax
    2509:	8b 45 e0             	mov    -0x20(%ebp),%eax
    250c:	50                   	push   %eax
    250d:	e8 8e 4f 00 00       	call   74a0 <free@plt>
    2512:	e9 5d ff ff ff       	jmp    2474 <inet_default_conn+0x3b4>
    2517:	89 85 4c ff ff ff    	mov    %eax,-0xb4(%ebp)
    251d:	53                   	push   %ebx
    251e:	53                   	push   %ebx
    251f:	50                   	push   %eax
    2520:	8b 85 64 ff ff ff    	mov    -0x9c(%ebp),%eax
    2526:	50                   	push   %eax
    2527:	e8 94 4c 00 00       	call   71c0 <async_answer_0@plt>
    252c:	58                   	pop    %eax
    252d:	5a                   	pop    %edx
    252e:	8b 95 4c ff ff ff    	mov    -0xb4(%ebp),%edx
    2534:	52                   	push   %edx
    2535:	57                   	push   %edi
    2536:	e8 85 4c 00 00       	call   71c0 <async_answer_0@plt>
    253b:	83 c4 10             	add    $0x10,%esp
    253e:	e9 a2 fe ff ff       	jmp    23e5 <inet_default_conn+0x325>
    2543:	8d b6 00 00 00 00    	lea    0x0(%esi),%esi
    2549:	8d bc 27 00 00 00 00 	lea    0x0(%edi,%eiz,1),%edi

00002550 <inet_ev_recv>:
    2550:	55                   	push   %ebp
    2551:	89 e5                	mov    %esp,%ebp
    2553:	57                   	push   %edi
    2554:	56                   	push   %esi
    2555:	53                   	push   %ebx
    2556:	83 ec 58             	sub    $0x58,%esp
    2559:	8b 45 08             	mov    0x8(%ebp),%eax
    255c:	8b 5d 0c             	mov    0xc(%ebp),%ebx
    255f:	8b 00                	mov    (%eax),%eax
    2561:	50                   	push   %eax
    2562:	e8 69 4e 00 00       	call   73d0 <async_exchange_begin@plt>
    2567:	89 c6                	mov    %eax,%esi
    2569:	8b 03                	mov    (%ebx),%eax
    256b:	50                   	push   %eax
    256c:	68 4d 64 00 00       	push   $0x644d
    2571:	6a 03                	push   $0x3
    2573:	6a ff                	push   $0xffffffff
    2575:	e8 66 4c 00 00       	call   71e0 <log_msg@plt>
    257a:	83 c4 1c             	add    $0x1c,%esp
    257d:	8d 45 c4             	lea    -0x3c(%ebp),%eax
    2580:	50                   	push   %eax
    2581:	6a 00                	push   $0x0
    2583:	6a 00                	push   $0x0
    2585:	8b 03                	mov    (%ebx),%eax
    2587:	50                   	push   %eax
    2588:	31 c0                	xor    %eax,%eax
    258a:	8a 43 2c             	mov    0x2c(%ebx),%al
    258d:	50                   	push   %eax
    258e:	68 00 04 00 00       	push   $0x400
    2593:	56                   	push   %esi
    2594:	e8 37 4c 00 00       	call   71d0 <async_send_fast@plt>
    2599:	83 c4 1c             	add    $0x1c,%esp
    259c:	89 c7                	mov    %eax,%edi
    259e:	8d 43 04             	lea    0x4(%ebx),%eax
    25a1:	6a 14                	push   $0x14
    25a3:	50                   	push   %eax
    25a4:	56                   	push   %esi
    25a5:	e8 36 4b 00 00       	call   70e0 <async_data_write_start@plt>
    25aa:	83 c4 10             	add    $0x10,%esp
    25ad:	85 c0                	test   %eax,%eax
    25af:	75 57                	jne    2608 <inet_ev_recv+0xb8>
    25b1:	50                   	push   %eax
    25b2:	8d 43 18             	lea    0x18(%ebx),%eax
    25b5:	6a 14                	push   $0x14
    25b7:	50                   	push   %eax
    25b8:	56                   	push   %esi
    25b9:	e8 22 4b 00 00       	call   70e0 <async_data_write_start@plt>
    25be:	83 c4 10             	add    $0x10,%esp
    25c1:	85 c0                	test   %eax,%eax
    25c3:	75 43                	jne    2608 <inet_ev_recv+0xb8>
    25c5:	52                   	push   %edx
    25c6:	8b 4b 34             	mov    0x34(%ebx),%ecx
    25c9:	8b 5b 30             	mov    0x30(%ebx),%ebx
    25cc:	51                   	push   %ecx
    25cd:	53                   	push   %ebx
    25ce:	56                   	push   %esi
    25cf:	e8 0c 4b 00 00       	call   70e0 <async_data_write_start@plt>
    25d4:	89 34 24             	mov    %esi,(%esp)
    25d7:	89 45 b4             	mov    %eax,-0x4c(%ebp)
    25da:	e8 21 4c 00 00       	call   7200 <async_exchange_end@plt>
    25df:	8b 45 b4             	mov    -0x4c(%ebp),%eax
    25e2:	83 c4 10             	add    $0x10,%esp
    25e5:	85 c0                	test   %eax,%eax
    25e7:	75 47                	jne    2630 <inet_ev_recv+0xe0>
    25e9:	50                   	push   %eax
    25ea:	50                   	push   %eax
    25eb:	8d 45 c0             	lea    -0x40(%ebp),%eax
    25ee:	50                   	push   %eax
    25ef:	57                   	push   %edi
    25f0:	e8 cb 4a 00 00       	call   70c0 <async_wait_for@plt>
    25f5:	8b 45 c0             	mov    -0x40(%ebp),%eax
    25f8:	83 c4 10             	add    $0x10,%esp
    25fb:	8d 65 f4             	lea    -0xc(%ebp),%esp
    25fe:	5b                   	pop    %ebx
    25ff:	5e                   	pop    %esi
    2600:	5f                   	pop    %edi
    2601:	5d                   	pop    %ebp
    2602:	c3                   	ret    
    2603:	90                   	nop
    2604:	8d 74 26 00          	lea    0x0(%esi,%eiz,1),%esi
    2608:	83 ec 0c             	sub    $0xc,%esp
    260b:	89 45 b4             	mov    %eax,-0x4c(%ebp)
    260e:	56                   	push   %esi
    260f:	e8 ec 4b 00 00       	call   7200 <async_exchange_end@plt>
    2614:	89 3c 24             	mov    %edi,(%esp)
    2617:	e8 14 4e 00 00       	call   7430 <async_forget@plt>
    261c:	8b 45 b4             	mov    -0x4c(%ebp),%eax
    261f:	83 c4 10             	add    $0x10,%esp
    2622:	8d 65 f4             	lea    -0xc(%ebp),%esp
    2625:	5b                   	pop    %ebx
    2626:	5e                   	pop    %esi
    2627:	5f                   	pop    %edi
    2628:	5d                   	pop    %ebp
    2629:	c3                   	ret    
    262a:	8d b6 00 00 00 00    	lea    0x0(%esi),%esi
    2630:	83 ec 0c             	sub    $0xc,%esp
    2633:	57                   	push   %edi
    2634:	e8 f7 4d 00 00       	call   7430 <async_forget@plt>
    2639:	8b 45 b4             	mov    -0x4c(%ebp),%eax
    263c:	83 c4 10             	add    $0x10,%esp
    263f:	8d 65 f4             	lea    -0xc(%ebp),%esp
    2642:	5b                   	pop    %ebx
    2643:	5e                   	pop    %esi
    2644:	5f                   	pop    %edi
    2645:	5d                   	pop    %ebp
    2646:	c3                   	ret    
    2647:	89 f6                	mov    %esi,%esi
    2649:	8d bc 27 00 00 00 00 	lea    0x0(%edi,%eiz,1),%edi

00002650 <inet_recv_dgram_local>:
    2650:	55                   	push   %ebp
    2651:	89 e5                	mov    %esp,%ebp
    2653:	57                   	push   %edi
    2654:	56                   	push   %esi
    2655:	53                   	push   %ebx
    2656:	83 ec 20             	sub    $0x20,%esp
    2659:	8b 5d 0c             	mov    0xc(%ebp),%ebx
    265c:	8b 75 08             	mov    0x8(%ebp),%esi
    265f:	68 66 64 00 00       	push   $0x6466
    2664:	6a 04                	push   $0x4
    2666:	6a ff                	push   $0xffffffff
    2668:	88 5d e7             	mov    %bl,-0x19(%ebp)
    266b:	e8 70 4b 00 00       	call   71e0 <log_msg@plt>
    2670:	83 c4 10             	add    $0x10,%esp
    2673:	8a 55 e7             	mov    -0x19(%ebp),%dl
    2676:	80 fb 01             	cmp    $0x1,%bl
    2679:	0f 84 b8 00 00 00    	je     2737 <inet_recv_dgram_local+0xe7>
    267f:	80 fb 3a             	cmp    $0x3a,%bl
    2682:	0f 84 a0 00 00 00    	je     2728 <inet_recv_dgram_local+0xd8>
    2688:	83 ec 0c             	sub    $0xc,%esp
    268b:	88 55 e7             	mov    %dl,-0x19(%ebp)
    268e:	68 40 91 00 00       	push   $0x9140
    2693:	e8 18 4e 00 00       	call   74b0 <fibril_mutex_lock@plt>
    2698:	a1 3c 91 00 00       	mov    0x913c,%eax
    269d:	83 c4 10             	add    $0x10,%esp
    26a0:	3d 38 91 00 00       	cmp    $0x9138,%eax
    26a5:	8d 78 f8             	lea    -0x8(%eax),%edi
    26a8:	74 20                	je     26ca <inet_recv_dgram_local+0x7a>
    26aa:	3a 5f 04             	cmp    0x4(%edi),%bl
    26ad:	8a 55 e7             	mov    -0x19(%ebp),%dl
    26b0:	75 0b                	jne    26bd <inet_recv_dgram_local+0x6d>
    26b2:	eb 4c                	jmp    2700 <inet_recv_dgram_local+0xb0>
    26b4:	8d 74 26 00          	lea    0x0(%esi,%eiz,1),%esi
    26b8:	3a 57 04             	cmp    0x4(%edi),%dl
    26bb:	74 43                	je     2700 <inet_recv_dgram_local+0xb0>
    26bd:	8b 40 04             	mov    0x4(%eax),%eax
    26c0:	3d 38 91 00 00       	cmp    $0x9138,%eax
    26c5:	8d 78 f8             	lea    -0x8(%eax),%edi
    26c8:	75 ee                	jne    26b8 <inet_recv_dgram_local+0x68>
    26ca:	83 ec 0c             	sub    $0xc,%esp
    26cd:	81 e3 ff 00 00 00    	and    $0xff,%ebx
    26d3:	68 40 91 00 00       	push   $0x9140
    26d8:	e8 c3 4b 00 00       	call   72a0 <fibril_mutex_unlock@plt>
    26dd:	53                   	push   %ebx
    26de:	68 c0 64 00 00       	push   $0x64c0
    26e3:	6a 04                	push   $0x4
    26e5:	6a ff                	push   $0xffffffff
    26e7:	e8 f4 4a 00 00       	call   71e0 <log_msg@plt>
    26ec:	83 c4 20             	add    $0x20,%esp
    26ef:	8d 65 f4             	lea    -0xc(%ebp),%esp
    26f2:	83 c8 ff             	or     $0xffffffff,%eax
    26f5:	5b                   	pop    %ebx
    26f6:	5e                   	pop    %esi
    26f7:	5f                   	pop    %edi
    26f8:	5d                   	pop    %ebp
    26f9:	c3                   	ret    
    26fa:	8d b6 00 00 00 00    	lea    0x0(%esi),%esi
    2700:	83 ec 0c             	sub    $0xc,%esp
    2703:	68 40 91 00 00       	push   $0x9140
    2708:	e8 93 4b 00 00       	call   72a0 <fibril_mutex_unlock@plt>
    270d:	89 75 0c             	mov    %esi,0xc(%ebp)
    2710:	89 7d 08             	mov    %edi,0x8(%ebp)
    2713:	83 c4 10             	add    $0x10,%esp
    2716:	8d 65 f4             	lea    -0xc(%ebp),%esp
    2719:	5b                   	pop    %ebx
    271a:	5e                   	pop    %esi
    271b:	5f                   	pop    %edi
    271c:	5d                   	pop    %ebp
    271d:	e9 2e fe ff ff       	jmp    2550 <inet_ev_recv>
    2722:	8d b6 00 00 00 00    	lea    0x0(%esi),%esi
    2728:	89 75 08             	mov    %esi,0x8(%ebp)
    272b:	8d 65 f4             	lea    -0xc(%ebp),%esp
    272e:	5b                   	pop    %ebx
    272f:	5e                   	pop    %esi
    2730:	5f                   	pop    %edi
    2731:	5d                   	pop    %ebp
    2732:	e9 e9 f2 ff ff       	jmp    1a20 <icmpv6_recv>
    2737:	89 75 08             	mov    %esi,0x8(%ebp)
    273a:	8d 65 f4             	lea    -0xc(%ebp),%esp
    273d:	5b                   	pop    %ebx
    273e:	5e                   	pop    %esi
    273f:	5f                   	pop    %edi
    2740:	5d                   	pop    %ebp
    2741:	e9 fa ef ff ff       	jmp    1740 <icmp_recv>
    2746:	8d 76 00             	lea    0x0(%esi),%esi
    2749:	8d bc 27 00 00 00 00 	lea    0x0(%edi,%eiz,1),%edi

00002750 <inet_recv_packet>:
    2750:	55                   	push   %ebp
    2751:	89 e5                	mov    %esp,%ebp
    2753:	56                   	push   %esi
    2754:	53                   	push   %ebx
    2755:	83 ec 58             	sub    $0x58,%esp
    2758:	8b 5d 08             	mov    0x8(%ebp),%ebx
    275b:	6a 01                	push   $0x1
    275d:	8d 73 18             	lea    0x18(%ebx),%esi
    2760:	56                   	push   %esi
    2761:	e8 da eb ff ff       	call   1340 <inet_addrobj_find>
    2766:	83 c4 10             	add    $0x10,%esp
    2769:	85 c0                	test   %eax,%eax
    276b:	0f 84 6c 01 00 00    	je     28dd <inet_recv_packet+0x18d>
    2771:	8b 43 38             	mov    0x38(%ebx),%eax
    2774:	85 c0                	test   %eax,%eax
    2776:	0f 85 3a 01 00 00    	jne    28b6 <inet_recv_packet+0x166>
    277c:	80 7b 35 00          	cmpb   $0x0,0x35(%ebx)
    2780:	0f 85 30 01 00 00    	jne    28b6 <inet_recv_packet+0x166>
    2786:	8b 03                	mov    (%ebx),%eax
    2788:	8a 4b 2d             	mov    0x2d(%ebx),%cl
    278b:	89 45 c0             	mov    %eax,-0x40(%ebp)
    278e:	8b 43 04             	mov    0x4(%ebx),%eax
    2791:	89 45 c4             	mov    %eax,-0x3c(%ebp)
    2794:	8b 43 08             	mov    0x8(%ebx),%eax
    2797:	89 45 c8             	mov    %eax,-0x38(%ebp)
    279a:	8b 43 0c             	mov    0xc(%ebx),%eax
    279d:	89 45 cc             	mov    %eax,-0x34(%ebp)
    27a0:	8b 43 10             	mov    0x10(%ebx),%eax
    27a3:	89 45 d0             	mov    %eax,-0x30(%ebp)
    27a6:	8b 43 14             	mov    0x14(%ebx),%eax
    27a9:	89 45 d4             	mov    %eax,-0x2c(%ebp)
    27ac:	8b 43 18             	mov    0x18(%ebx),%eax
    27af:	89 45 d8             	mov    %eax,-0x28(%ebp)
    27b2:	8b 43 1c             	mov    0x1c(%ebx),%eax
    27b5:	89 45 dc             	mov    %eax,-0x24(%ebp)
    27b8:	8b 43 20             	mov    0x20(%ebx),%eax
    27bb:	89 45 e0             	mov    %eax,-0x20(%ebp)
    27be:	8b 43 24             	mov    0x24(%ebx),%eax
    27c1:	89 45 e4             	mov    %eax,-0x1c(%ebp)
    27c4:	8b 43 28             	mov    0x28(%ebx),%eax
    27c7:	89 45 e8             	mov    %eax,-0x18(%ebp)
    27ca:	8a 43 2c             	mov    0x2c(%ebx),%al
    27cd:	88 45 ec             	mov    %al,-0x14(%ebp)
    27d0:	8b 43 3c             	mov    0x3c(%ebx),%eax
    27d3:	89 45 f0             	mov    %eax,-0x10(%ebp)
    27d6:	8b 43 40             	mov    0x40(%ebx),%eax
    27d9:	88 4d b7             	mov    %cl,-0x49(%ebp)
    27dc:	89 45 f4             	mov    %eax,-0xc(%ebp)
    27df:	51                   	push   %ecx
    27e0:	68 66 64 00 00       	push   $0x6466
    27e5:	6a 04                	push   $0x4
    27e7:	6a ff                	push   $0xffffffff
    27e9:	e8 f2 49 00 00       	call   71e0 <log_msg@plt>
    27ee:	8a 4d b7             	mov    -0x49(%ebp),%cl
    27f1:	83 c4 10             	add    $0x10,%esp
    27f4:	80 f9 01             	cmp    $0x1,%cl
    27f7:	0f 84 cf 00 00 00    	je     28cc <inet_recv_packet+0x17c>
    27fd:	80 f9 3a             	cmp    $0x3a,%cl
    2800:	0f 84 9a 00 00 00    	je     28a0 <inet_recv_packet+0x150>
    2806:	83 ec 0c             	sub    $0xc,%esp
    2809:	88 4d b7             	mov    %cl,-0x49(%ebp)
    280c:	68 40 91 00 00       	push   $0x9140
    2811:	e8 9a 4c 00 00       	call   74b0 <fibril_mutex_lock@plt>
    2816:	a1 3c 91 00 00       	mov    0x913c,%eax
    281b:	83 c4 10             	add    $0x10,%esp
    281e:	8a 4d b7             	mov    -0x49(%ebp),%cl
    2821:	3d 38 91 00 00       	cmp    $0x9138,%eax
    2826:	8d 58 f8             	lea    -0x8(%eax),%ebx
    2829:	75 12                	jne    283d <inet_recv_packet+0xed>
    282b:	eb 3b                	jmp    2868 <inet_recv_packet+0x118>
    282d:	8d 76 00             	lea    0x0(%esi),%esi
    2830:	8b 40 04             	mov    0x4(%eax),%eax
    2833:	3d 38 91 00 00       	cmp    $0x9138,%eax
    2838:	8d 58 f8             	lea    -0x8(%eax),%ebx
    283b:	74 2b                	je     2868 <inet_recv_packet+0x118>
    283d:	3a 4b 04             	cmp    0x4(%ebx),%cl
    2840:	75 ee                	jne    2830 <inet_recv_packet+0xe0>
    2842:	83 ec 0c             	sub    $0xc,%esp
    2845:	68 40 91 00 00       	push   $0x9140
    284a:	e8 51 4a 00 00       	call   72a0 <fibril_mutex_unlock@plt>
    284f:	58                   	pop    %eax
    2850:	8d 45 c0             	lea    -0x40(%ebp),%eax
    2853:	5a                   	pop    %edx
    2854:	50                   	push   %eax
    2855:	53                   	push   %ebx
    2856:	e8 f5 fc ff ff       	call   2550 <inet_ev_recv>
    285b:	83 c4 10             	add    $0x10,%esp
    285e:	8d 65 f8             	lea    -0x8(%ebp),%esp
    2861:	5b                   	pop    %ebx
    2862:	5e                   	pop    %esi
    2863:	5d                   	pop    %ebp
    2864:	c3                   	ret    
    2865:	8d 76 00             	lea    0x0(%esi),%esi
    2868:	83 ec 0c             	sub    $0xc,%esp
    286b:	88 4d b7             	mov    %cl,-0x49(%ebp)
    286e:	68 40 91 00 00       	push   $0x9140
    2873:	e8 28 4a 00 00       	call   72a0 <fibril_mutex_unlock@plt>
    2878:	8a 4d b7             	mov    -0x49(%ebp),%cl
    287b:	31 d2                	xor    %edx,%edx
    287d:	88 ca                	mov    %cl,%dl
    287f:	52                   	push   %edx
    2880:	68 c0 64 00 00       	push   $0x64c0
    2885:	6a 04                	push   $0x4
    2887:	6a ff                	push   $0xffffffff
    2889:	e8 52 49 00 00       	call   71e0 <log_msg@plt>
    288e:	83 c4 20             	add    $0x20,%esp
    2891:	8d 65 f8             	lea    -0x8(%ebp),%esp
    2894:	83 c8 ff             	or     $0xffffffff,%eax
    2897:	5b                   	pop    %ebx
    2898:	5e                   	pop    %esi
    2899:	5d                   	pop    %ebp
    289a:	c3                   	ret    
    289b:	90                   	nop
    289c:	8d 74 26 00          	lea    0x0(%esi,%eiz,1),%esi
    28a0:	83 ec 0c             	sub    $0xc,%esp
    28a3:	8d 45 c0             	lea    -0x40(%ebp),%eax
    28a6:	50                   	push   %eax
    28a7:	e8 74 f1 ff ff       	call   1a20 <icmpv6_recv>
    28ac:	83 c4 10             	add    $0x10,%esp
    28af:	8d 65 f8             	lea    -0x8(%ebp),%esp
    28b2:	5b                   	pop    %ebx
    28b3:	5e                   	pop    %esi
    28b4:	5d                   	pop    %ebp
    28b5:	c3                   	ret    
    28b6:	83 ec 0c             	sub    $0xc,%esp
    28b9:	53                   	push   %ebx
    28ba:	e8 41 2f 00 00       	call   5800 <inet_reass_queue_packet>
    28bf:	83 c4 10             	add    $0x10,%esp
    28c2:	8d 65 f8             	lea    -0x8(%ebp),%esp
    28c5:	83 c8 ff             	or     $0xffffffff,%eax
    28c8:	5b                   	pop    %ebx
    28c9:	5e                   	pop    %esi
    28ca:	5d                   	pop    %ebp
    28cb:	c3                   	ret    
    28cc:	83 ec 0c             	sub    $0xc,%esp
    28cf:	8d 45 c0             	lea    -0x40(%ebp),%eax
    28d2:	50                   	push   %eax
    28d3:	e8 68 ee ff ff       	call   1740 <icmp_recv>
    28d8:	83 c4 10             	add    $0x10,%esp
    28db:	eb 81                	jmp    285e <inet_recv_packet+0x10e>
    28dd:	50                   	push   %eax
    28de:	50                   	push   %eax
    28df:	56                   	push   %esi
    28e0:	68 78 91 00 00       	push   $0x9178
    28e5:	e8 56 48 00 00       	call   7140 <inet_naddr_compare_mask@plt>
    28ea:	83 c4 10             	add    $0x10,%esp
    28ed:	85 c0                	test   %eax,%eax
    28ef:	0f 85 7c fe ff ff    	jne    2771 <inet_recv_packet+0x21>
    28f5:	50                   	push   %eax
    28f6:	50                   	push   %eax
    28f7:	56                   	push   %esi
    28f8:	68 50 91 00 00       	push   $0x9150
    28fd:	e8 6e 4a 00 00       	call   7370 <inet_addr_compare@plt>
    2902:	83 c4 10             	add    $0x10,%esp
    2905:	85 c0                	test   %eax,%eax
    2907:	0f 85 64 fe ff ff    	jne    2771 <inet_recv_packet+0x21>
    290d:	50                   	push   %eax
    290e:	50                   	push   %eax
    290f:	56                   	push   %esi
    2910:	68 64 91 00 00       	push   $0x9164
    2915:	e8 56 4a 00 00       	call   7370 <inet_addr_compare@plt>
    291a:	83 c4 10             	add    $0x10,%esp
    291d:	85 c0                	test   %eax,%eax
    291f:	0f 85 4c fe ff ff    	jne    2771 <inet_recv_packet+0x21>
    2925:	eb 9b                	jmp    28c2 <inet_recv_packet+0x172>
    2927:	66 90                	xchg   %ax,%ax
    2929:	66 90                	xchg   %ax,%ax
    292b:	66 90                	xchg   %ax,%ax
    292d:	66 90                	xchg   %ax,%ax
    292f:	90                   	nop

00002930 <main>:
    2930:	8d 4c 24 04          	lea    0x4(%esp),%ecx
    2934:	83 e4 f0             	and    $0xfffffff0,%esp
    2937:	ff 71 fc             	pushl  -0x4(%ecx)
    293a:	55                   	push   %ebp
    293b:	89 e5                	mov    %esp,%ebp
    293d:	53                   	push   %ebx
    293e:	51                   	push   %ecx
    293f:	83 ec 1c             	sub    $0x1c,%esp
    2942:	68 e4 64 00 00       	push   $0x64e4
    2947:	e8 44 47 00 00       	call   7090 <printf@plt>
    294c:	c7 04 24 7e 64 00 00 	movl   $0x647e,(%esp)
    2953:	e8 78 47 00 00       	call   70d0 <log_init@plt>
    2958:	83 c4 10             	add    $0x10,%esp
    295b:	85 c0                	test   %eax,%eax
    295d:	0f 85 df 00 00 00    	jne    2a42 <main+0x112>
    2963:	8d 5d f0             	lea    -0x10(%ebp),%ebx
    2966:	51                   	push   %ecx
    2967:	68 86 64 00 00       	push   $0x6486
    296c:	6a 04                	push   $0x4
    296e:	6a ff                	push   $0xffffffff
    2970:	e8 6b 48 00 00       	call   71e0 <log_msg@plt>
    2975:	53                   	push   %ebx
    2976:	6a 00                	push   $0x0
    2978:	68 c0 20 00 00       	push   $0x20c0
    297d:	68 91 76 97 e9       	push   $0xe9977691
    2982:	e8 69 4a 00 00       	call   73f0 <async_create_port@plt>
    2987:	83 c4 20             	add    $0x20,%esp
    298a:	85 c0                	test   %eax,%eax
    298c:	74 11                	je     299f <main+0x6f>
    298e:	bb 01 00 00 00       	mov    $0x1,%ebx
    2993:	8d 65 f8             	lea    -0x8(%ebp),%esp
    2996:	89 d8                	mov    %ebx,%eax
    2998:	59                   	pop    %ecx
    2999:	5b                   	pop    %ebx
    299a:	5d                   	pop    %ebp
    299b:	8d 61 fc             	lea    -0x4(%ecx),%esp
    299e:	c3                   	ret    
    299f:	53                   	push   %ebx
    29a0:	6a 00                	push   $0x0
    29a2:	68 f0 34 00 00       	push   $0x34f0
    29a7:	68 91 1e 9b cf       	push   $0xcf9b1e91
    29ac:	e8 3f 4a 00 00       	call   73f0 <async_create_port@plt>
    29b1:	83 c4 10             	add    $0x10,%esp
    29b4:	85 c0                	test   %eax,%eax
    29b6:	75 d6                	jne    298e <main+0x5e>
    29b8:	53                   	push   %ebx
    29b9:	6a 00                	push   $0x0
    29bb:	68 00 43 00 00       	push   $0x4300
    29c0:	68 91 86 bb cf       	push   $0xcfbb8691
    29c5:	e8 26 4a 00 00       	call   73f0 <async_create_port@plt>
    29ca:	83 c4 10             	add    $0x10,%esp
    29cd:	85 c0                	test   %eax,%eax
    29cf:	75 bd                	jne    298e <main+0x5e>
    29d1:	83 ec 0c             	sub    $0xc,%esp
    29d4:	68 7e 64 00 00       	push   $0x647e
    29d9:	e8 82 49 00 00       	call   7360 <loc_server_register@plt>
    29de:	83 c4 10             	add    $0x10,%esp
    29e1:	85 c0                	test   %eax,%eax
    29e3:	0f 85 90 00 00 00    	jne    2a79 <main+0x149>
    29e9:	8d 45 f4             	lea    -0xc(%ebp),%eax
    29ec:	52                   	push   %edx
    29ed:	52                   	push   %edx
    29ee:	50                   	push   %eax
    29ef:	68 92 64 00 00       	push   $0x6492
    29f4:	e8 f7 46 00 00       	call   70f0 <loc_service_register@plt>
    29f9:	83 c4 10             	add    $0x10,%esp
    29fc:	89 c3                	mov    %eax,%ebx
    29fe:	85 c0                	test   %eax,%eax
    2a00:	0f 85 8a 00 00 00    	jne    2a90 <main+0x160>
    2a06:	83 ec 0c             	sub    $0xc,%esp
    2a09:	68 7c 65 00 00       	push   $0x657c
    2a0e:	e8 7d 46 00 00       	call   7090 <printf@plt>
    2a13:	c7 04 24 00 00 00 00 	movl   $0x0,(%esp)
    2a1a:	e8 51 46 00 00       	call   7070 <task_retval@plt>
    2a1f:	83 c8 ff             	or     $0xffffffff,%eax
    2a22:	f0 0f c1 05 74 93 00 	lock xadd %eax,0x9374
    2a29:	00 
    2a2a:	83 c4 10             	add    $0x10,%esp
    2a2d:	48                   	dec    %eax
    2a2e:	78 2c                	js     2a5c <main+0x12c>
    2a30:	83 ec 0c             	sub    $0xc,%esp
    2a33:	6a 03                	push   $0x3
    2a35:	e8 26 4a 00 00       	call   7460 <fibril_switch@plt>
    2a3a:	83 c4 10             	add    $0x10,%esp
    2a3d:	e9 51 ff ff ff       	jmp    2993 <main+0x63>
    2a42:	83 ec 0c             	sub    $0xc,%esp
    2a45:	bb 01 00 00 00       	mov    $0x1,%ebx
    2a4a:	68 10 65 00 00       	push   $0x6510
    2a4f:	e8 3c 46 00 00       	call   7090 <printf@plt>
    2a54:	83 c4 10             	add    $0x10,%esp
    2a57:	e9 37 ff ff ff       	jmp    2993 <main+0x63>
    2a5c:	50                   	push   %eax
    2a5d:	6a 0b                	push   $0xb
    2a5f:	6a 00                	push   $0x0
    2a61:	6a 00                	push   $0x0
    2a63:	6a 00                	push   $0x0
    2a65:	6a 00                	push   $0x0
    2a67:	6a 00                	push   $0x0
    2a69:	68 74 93 00 00       	push   $0x9374
    2a6e:	ff 15 70 93 00 00    	call   *0x9370
    2a74:	83 c4 20             	add    $0x20,%esp
    2a77:	eb b7                	jmp    2a30 <main+0x100>
    2a79:	50                   	push   %eax
    2a7a:	68 38 65 00 00       	push   $0x6538
    2a7f:	6a 01                	push   $0x1
    2a81:	6a ff                	push   $0xffffffff
    2a83:	e8 58 47 00 00       	call   71e0 <log_msg@plt>
    2a88:	83 c4 10             	add    $0x10,%esp
    2a8b:	e9 fe fe ff ff       	jmp    298e <main+0x5e>
    2a90:	50                   	push   %eax
    2a91:	68 58 65 00 00       	push   $0x6558
    2a96:	6a 01                	push   $0x1
    2a98:	6a ff                	push   $0xffffffff
    2a9a:	e8 41 47 00 00       	call   71e0 <log_msg@plt>
    2a9f:	83 c4 10             	add    $0x10,%esp
    2aa2:	e9 e7 fe ff ff       	jmp    298e <main+0x5e>
    2aa7:	66 90                	xchg   %ax,%ax
    2aa9:	66 90                	xchg   %ax,%ax
    2aab:	66 90                	xchg   %ax,%ax
    2aad:	66 90                	xchg   %ax,%ax
    2aaf:	90                   	nop

00002ab0 <inet_iplink_change_addr>:
    2ab0:	55                   	push   %ebp
    2ab1:	31 c0                	xor    %eax,%eax
    2ab3:	89 e5                	mov    %esp,%ebp
    2ab5:	57                   	push   %edi
    2ab6:	56                   	push   %esi
    2ab7:	53                   	push   %ebx
    2ab8:	83 ec 18             	sub    $0x18,%esp
    2abb:	8b 7d 0c             	mov    0xc(%ebp),%edi
    2abe:	8b 75 08             	mov    0x8(%ebp),%esi
    2ac1:	8a 47 05             	mov    0x5(%edi),%al
    2ac4:	50                   	push   %eax
    2ac5:	31 c0                	xor    %eax,%eax
    2ac7:	8a 47 04             	mov    0x4(%edi),%al
    2aca:	50                   	push   %eax
    2acb:	31 c0                	xor    %eax,%eax
    2acd:	8a 47 03             	mov    0x3(%edi),%al
    2ad0:	50                   	push   %eax
    2ad1:	31 c0                	xor    %eax,%eax
    2ad3:	8a 47 02             	mov    0x2(%edi),%al
    2ad6:	50                   	push   %eax
    2ad7:	31 c0                	xor    %eax,%eax
    2ad9:	8a 47 01             	mov    0x1(%edi),%al
    2adc:	50                   	push   %eax
    2add:	31 c0                	xor    %eax,%eax
    2adf:	8a 07                	mov    (%edi),%al
    2ae1:	50                   	push   %eax
    2ae2:	68 a0 65 00 00       	push   $0x65a0
    2ae7:	6a 04                	push   $0x4
    2ae9:	6a ff                	push   $0xffffffff
    2aeb:	e8 f0 46 00 00       	call   71e0 <log_msg@plt>
    2af0:	8b 1d b4 91 00 00    	mov    0x91b4,%ebx
    2af6:	83 c4 30             	add    $0x30,%esp
    2af9:	81 fb b0 91 00 00    	cmp    $0x91b0,%ebx
    2aff:	74 19                	je     2b1a <inet_iplink_change_addr+0x6a>
    2b01:	8d b4 26 00 00 00 00 	lea    0x0(%esi,%eiz,1),%esi
    2b08:	8b 06                	mov    (%esi),%eax
    2b0a:	39 43 10             	cmp    %eax,0x10(%ebx)
    2b0d:	74 19                	je     2b28 <inet_iplink_change_addr+0x78>
    2b0f:	8b 5b 04             	mov    0x4(%ebx),%ebx
    2b12:	81 fb b0 91 00 00    	cmp    $0x91b0,%ebx
    2b18:	75 ee                	jne    2b08 <inet_iplink_change_addr+0x58>
    2b1a:	8d 65 f4             	lea    -0xc(%ebp),%esp
    2b1d:	31 c0                	xor    %eax,%eax
    2b1f:	5b                   	pop    %ebx
    2b20:	5e                   	pop    %esi
    2b21:	5f                   	pop    %edi
    2b22:	5d                   	pop    %ebp
    2b23:	c3                   	ret    
    2b24:	8d 74 26 00          	lea    0x0(%esi,%eiz,1),%esi
    2b28:	50                   	push   %eax
    2b29:	8d 43 1c             	lea    0x1c(%ebx),%eax
    2b2c:	6a 06                	push   $0x6
    2b2e:	57                   	push   %edi
    2b2f:	50                   	push   %eax
    2b30:	e8 1b 46 00 00       	call   7150 <memcpy@plt>
    2b35:	83 c4 10             	add    $0x10,%esp
    2b38:	eb d5                	jmp    2b0f <inet_iplink_change_addr+0x5f>
    2b3a:	8d b6 00 00 00 00    	lea    0x0(%esi),%esi

00002b40 <inet_iplink_recv>:
    2b40:	55                   	push   %ebp
    2b41:	89 e5                	mov    %esp,%ebp
    2b43:	56                   	push   %esi
    2b44:	53                   	push   %ebx
    2b45:	83 ec 64             	sub    $0x64,%esp
    2b48:	8b 5d 0c             	mov    0xc(%ebp),%ebx
    2b4b:	68 ca 66 00 00       	push   $0x66ca
    2b50:	6a 04                	push   $0x4
    2b52:	6a ff                	push   $0xffffffff
    2b54:	e8 87 46 00 00       	call   71e0 <log_msg@plt>
    2b59:	8b 4d 08             	mov    0x8(%ebp),%ecx
    2b5c:	5a                   	pop    %edx
    2b5d:	51                   	push   %ecx
    2b5e:	e8 3d 46 00 00       	call   71a0 <iplink_get_userptr@plt>
    2b63:	83 c4 10             	add    $0x10,%esp
    2b66:	83 7d 10 01          	cmpl   $0x1,0x10(%ebp)
    2b6a:	0f 84 a0 00 00 00    	je     2c10 <inet_iplink_recv+0xd0>
    2b70:	83 7d 10 02          	cmpl   $0x2,0x10(%ebp)
    2b74:	75 7a                	jne    2bf0 <inet_iplink_recv+0xb0>
    2b76:	8b 40 08             	mov    0x8(%eax),%eax
    2b79:	8d 75 b4             	lea    -0x4c(%ebp),%esi
    2b7c:	56                   	push   %esi
    2b7d:	50                   	push   %eax
    2b7e:	8b 43 04             	mov    0x4(%ebx),%eax
    2b81:	50                   	push   %eax
    2b82:	8b 03                	mov    (%ebx),%eax
    2b84:	50                   	push   %eax
    2b85:	e8 36 28 00 00       	call   53c0 <inet_pdu_decode6>
    2b8a:	83 c4 10             	add    $0x10,%esp
    2b8d:	85 c0                	test   %eax,%eax
    2b8f:	0f 85 9a 00 00 00    	jne    2c2f <inet_iplink_recv+0xef>
    2b95:	8b 45 b4             	mov    -0x4c(%ebp),%eax
    2b98:	50                   	push   %eax
    2b99:	68 04 67 00 00       	push   $0x6704
    2b9e:	6a 03                	push   $0x3
    2ba0:	6a ff                	push   $0xffffffff
    2ba2:	e8 39 46 00 00       	call   71e0 <log_msg@plt>
    2ba7:	83 c4 0c             	add    $0xc,%esp
    2baa:	68 22 67 00 00       	push   $0x6722
    2baf:	6a 04                	push   $0x4
    2bb1:	6a ff                	push   $0xffffffff
    2bb3:	e8 28 46 00 00       	call   71e0 <log_msg@plt>
    2bb8:	89 34 24             	mov    %esi,(%esp)
    2bbb:	e8 90 fb ff ff       	call   2750 <inet_recv_packet>
    2bc0:	50                   	push   %eax
    2bc1:	68 3a 67 00 00       	push   $0x673a
    2bc6:	6a 04                	push   $0x4
    2bc8:	6a ff                	push   $0xffffffff
    2bca:	89 45 a4             	mov    %eax,-0x5c(%ebp)
    2bcd:	e8 0e 46 00 00       	call   71e0 <log_msg@plt>
    2bd2:	83 c4 14             	add    $0x14,%esp
    2bd5:	8b 55 f0             	mov    -0x10(%ebp),%edx
    2bd8:	52                   	push   %edx
    2bd9:	e8 c2 48 00 00       	call   74a0 <free@plt>
    2bde:	8b 45 a4             	mov    -0x5c(%ebp),%eax
    2be1:	83 c4 10             	add    $0x10,%esp
    2be4:	8d 65 f8             	lea    -0x8(%ebp),%esp
    2be7:	5b                   	pop    %ebx
    2be8:	5e                   	pop    %esi
    2be9:	5d                   	pop    %ebp
    2bea:	c3                   	ret    
    2beb:	90                   	nop
    2bec:	8d 74 26 00          	lea    0x0(%esi,%eiz,1),%esi
    2bf0:	53                   	push   %ebx
    2bf1:	68 dd 66 00 00       	push   $0x66dd
    2bf6:	6a 04                	push   $0x4
    2bf8:	6a ff                	push   $0xffffffff
    2bfa:	e8 e1 45 00 00       	call   71e0 <log_msg@plt>
    2bff:	83 c4 10             	add    $0x10,%esp
    2c02:	8d 65 f8             	lea    -0x8(%ebp),%esp
    2c05:	b8 f2 ff ff ff       	mov    $0xfffffff2,%eax
    2c0a:	5b                   	pop    %ebx
    2c0b:	5e                   	pop    %esi
    2c0c:	5d                   	pop    %ebp
    2c0d:	c3                   	ret    
    2c0e:	66 90                	xchg   %ax,%ax
    2c10:	8b 40 08             	mov    0x8(%eax),%eax
    2c13:	8d 75 b4             	lea    -0x4c(%ebp),%esi
    2c16:	56                   	push   %esi
    2c17:	50                   	push   %eax
    2c18:	8b 43 04             	mov    0x4(%ebx),%eax
    2c1b:	50                   	push   %eax
    2c1c:	8b 03                	mov    (%ebx),%eax
    2c1e:	50                   	push   %eax
    2c1f:	e8 0c 26 00 00       	call   5230 <inet_pdu_decode>
    2c24:	83 c4 10             	add    $0x10,%esp
    2c27:	85 c0                	test   %eax,%eax
    2c29:	0f 84 66 ff ff ff    	je     2b95 <inet_iplink_recv+0x55>
    2c2f:	51                   	push   %ecx
    2c30:	68 f0 66 00 00       	push   $0x66f0
    2c35:	6a 04                	push   $0x4
    2c37:	6a ff                	push   $0xffffffff
    2c39:	89 45 a4             	mov    %eax,-0x5c(%ebp)
    2c3c:	e8 9f 45 00 00       	call   71e0 <log_msg@plt>
    2c41:	8b 45 a4             	mov    -0x5c(%ebp),%eax
    2c44:	83 c4 10             	add    $0x10,%esp
    2c47:	8d 65 f8             	lea    -0x8(%ebp),%esp
    2c4a:	5b                   	pop    %ebx
    2c4b:	5e                   	pop    %esi
    2c4c:	5d                   	pop    %ebp
    2c4d:	c3                   	ret    
    2c4e:	66 90                	xchg   %ax,%ax

00002c50 <inet_link_open>:
    2c50:	55                   	push   %ebp
    2c51:	89 e5                	mov    %esp,%ebp
    2c53:	57                   	push   %edi
    2c54:	56                   	push   %esi
    2c55:	53                   	push   %ebx
    2c56:	83 ec 50             	sub    $0x50,%esp
    2c59:	8b 75 08             	mov    0x8(%ebp),%esi
    2c5c:	68 56 67 00 00       	push   $0x6756
    2c61:	6a 04                	push   $0x4
    2c63:	6a ff                	push   $0xffffffff
    2c65:	e8 76 45 00 00       	call   71e0 <log_msg@plt>
    2c6a:	58                   	pop    %eax
    2c6b:	5a                   	pop    %edx
    2c6c:	6a 24                	push   $0x24
    2c6e:	6a 01                	push   $0x1
    2c70:	e8 cb 45 00 00       	call   7240 <calloc@plt>
    2c75:	83 c4 10             	add    $0x10,%esp
    2c78:	85 c0                	test   %eax,%eax
    2c7a:	0f 84 32 02 00 00    	je     2eb2 <inet_link_open+0x262>
    2c80:	89 c7                	mov    %eax,%edi
    2c82:	c7 00 00 00 00 00    	movl   $0x0,(%eax)
    2c88:	c7 40 04 00 00 00 00 	movl   $0x0,0x4(%eax)
    2c8f:	89 70 08             	mov    %esi,0x8(%eax)
    2c92:	c7 40 14 00 00 00 00 	movl   $0x0,0x14(%eax)
    2c99:	50                   	push   %eax
    2c9a:	50                   	push   %eax
    2c9b:	8d 47 0c             	lea    0xc(%edi),%eax
    2c9e:	50                   	push   %eax
    2c9f:	56                   	push   %esi
    2ca0:	e8 6b 45 00 00       	call   7210 <loc_service_get_name@plt>
    2ca5:	83 c4 10             	add    $0x10,%esp
    2ca8:	89 c3                	mov    %eax,%ebx
    2caa:	85 c0                	test   %eax,%eax
    2cac:	0f 85 86 00 00 00    	jne    2d38 <inet_link_open+0xe8>
    2cb2:	50                   	push   %eax
    2cb3:	6a 00                	push   $0x0
    2cb5:	68 91 86 b3 d7       	push   $0xd7b38691
    2cba:	56                   	push   %esi
    2cbb:	e8 c0 43 00 00       	call   7080 <loc_service_connect@plt>
    2cc0:	83 c4 10             	add    $0x10,%esp
    2cc3:	89 47 10             	mov    %eax,0x10(%edi)
    2cc6:	85 c0                	test   %eax,%eax
    2cc8:	0f 84 ca 01 00 00    	je     2e98 <inet_link_open+0x248>
    2cce:	8d 4f 14             	lea    0x14(%edi),%ecx
    2cd1:	51                   	push   %ecx
    2cd2:	57                   	push   %edi
    2cd3:	68 b8 91 00 00       	push   $0x91b8
    2cd8:	50                   	push   %eax
    2cd9:	e8 82 45 00 00       	call   7260 <iplink_open@plt>
    2cde:	83 c4 10             	add    $0x10,%esp
    2ce1:	89 c3                	mov    %eax,%ebx
    2ce3:	85 c0                	test   %eax,%eax
    2ce5:	74 69                	je     2d50 <inet_link_open+0x100>
    2ce7:	8b 57 0c             	mov    0xc(%edi),%edx
    2cea:	52                   	push   %edx
    2ceb:	68 9b 67 00 00       	push   $0x679b
    2cf0:	6a 01                	push   $0x1
    2cf2:	6a ff                	push   $0xffffffff
    2cf4:	e8 e7 44 00 00       	call   71e0 <log_msg@plt>
    2cf9:	83 c4 10             	add    $0x10,%esp
    2cfc:	8b 47 14             	mov    0x14(%edi),%eax
    2cff:	85 c0                	test   %eax,%eax
    2d01:	74 0c                	je     2d0f <inet_link_open+0xbf>
    2d03:	83 ec 0c             	sub    $0xc,%esp
    2d06:	50                   	push   %eax
    2d07:	e8 24 46 00 00       	call   7330 <iplink_close@plt>
    2d0c:	83 c4 10             	add    $0x10,%esp
    2d0f:	8b 47 0c             	mov    0xc(%edi),%eax
    2d12:	85 c0                	test   %eax,%eax
    2d14:	74 0c                	je     2d22 <inet_link_open+0xd2>
    2d16:	83 ec 0c             	sub    $0xc,%esp
    2d19:	50                   	push   %eax
    2d1a:	e8 81 47 00 00       	call   74a0 <free@plt>
    2d1f:	83 c4 10             	add    $0x10,%esp
    2d22:	83 ec 0c             	sub    $0xc,%esp
    2d25:	57                   	push   %edi
    2d26:	e8 75 47 00 00       	call   74a0 <free@plt>
    2d2b:	83 c4 10             	add    $0x10,%esp
    2d2e:	8d 65 f4             	lea    -0xc(%ebp),%esp
    2d31:	89 d8                	mov    %ebx,%eax
    2d33:	5b                   	pop    %ebx
    2d34:	5e                   	pop    %esi
    2d35:	5f                   	pop    %edi
    2d36:	5d                   	pop    %ebp
    2d37:	c3                   	ret    
    2d38:	50                   	push   %eax
    2d39:	68 67 67 00 00       	push   $0x6767
    2d3e:	6a 01                	push   $0x1
    2d40:	6a ff                	push   $0xffffffff
    2d42:	e8 99 44 00 00       	call   71e0 <log_msg@plt>
    2d47:	83 c4 10             	add    $0x10,%esp
    2d4a:	eb b0                	jmp    2cfc <inet_link_open+0xac>
    2d4c:	8d 74 26 00          	lea    0x0(%esi,%eiz,1),%esi
    2d50:	50                   	push   %eax
    2d51:	50                   	push   %eax
    2d52:	8d 47 18             	lea    0x18(%edi),%eax
    2d55:	50                   	push   %eax
    2d56:	8b 47 14             	mov    0x14(%edi),%eax
    2d59:	50                   	push   %eax
    2d5a:	e8 f1 46 00 00       	call   7450 <iplink_get_mtu@plt>
    2d5f:	83 c4 10             	add    $0x10,%esp
    2d62:	89 c3                	mov    %eax,%ebx
    2d64:	85 c0                	test   %eax,%eax
    2d66:	0f 85 dc 00 00 00    	jne    2e48 <inet_link_open+0x1f8>
    2d6c:	50                   	push   %eax
    2d6d:	50                   	push   %eax
    2d6e:	8d 47 1c             	lea    0x1c(%edi),%eax
    2d71:	50                   	push   %eax
    2d72:	8b 47 14             	mov    0x14(%edi),%eax
    2d75:	50                   	push   %eax
    2d76:	e8 f5 44 00 00       	call   7270 <iplink_get_mac48@plt>
    2d7b:	83 c4 10             	add    $0x10,%esp
    2d7e:	85 c0                	test   %eax,%eax
    2d80:	8b 47 0c             	mov    0xc(%edi),%eax
    2d83:	0f 94 47 22          	sete   0x22(%edi)
    2d87:	50                   	push   %eax
    2d88:	68 b7 67 00 00       	push   $0x67b7
    2d8d:	6a 04                	push   $0x4
    2d8f:	6a ff                	push   $0xffffffff
    2d91:	e8 4a 44 00 00       	call   71e0 <log_msg@plt>
    2d96:	c7 04 24 a0 91 00 00 	movl   $0x91a0,(%esp)
    2d9d:	e8 0e 47 00 00       	call   74b0 <fibril_mutex_lock@plt>
    2da2:	c7 04 24 a0 91 00 00 	movl   $0x91a0,(%esp)
    2da9:	e8 52 43 00 00       	call   7100 <fibril_mutex_is_locked@plt>
    2dae:	83 c4 10             	add    $0x10,%esp
    2db1:	84 c0                	test   %al,%al
    2db3:	0f 84 09 03 00 00    	je     30c2 <inet_link_open+0x472>
    2db9:	a1 b4 91 00 00       	mov    0x91b4,%eax
    2dbe:	3d b0 91 00 00       	cmp    $0x91b0,%eax
    2dc3:	74 1e                	je     2de3 <inet_link_open+0x193>
    2dc5:	39 70 08             	cmp    %esi,0x8(%eax)
    2dc8:	75 0f                	jne    2dd9 <inet_link_open+0x189>
    2dca:	e9 99 00 00 00       	jmp    2e68 <inet_link_open+0x218>
    2dcf:	90                   	nop
    2dd0:	3b 70 08             	cmp    0x8(%eax),%esi
    2dd3:	0f 84 8f 00 00 00    	je     2e68 <inet_link_open+0x218>
    2dd9:	8b 40 04             	mov    0x4(%eax),%eax
    2ddc:	3d b0 91 00 00       	cmp    $0x91b0,%eax
    2de1:	75 ed                	jne    2dd0 <inet_link_open+0x180>
    2de3:	a1 b0 91 00 00       	mov    0x91b0,%eax
    2de8:	83 ec 0c             	sub    $0xc,%esp
    2deb:	c7 47 04 b0 91 00 00 	movl   $0x91b0,0x4(%edi)
    2df2:	89 07                	mov    %eax,(%edi)
    2df4:	89 78 04             	mov    %edi,0x4(%eax)
    2df7:	68 a0 91 00 00       	push   $0x91a0
    2dfc:	89 3d b0 91 00 00    	mov    %edi,0x91b0
    2e02:	e8 99 44 00 00       	call   72a0 <fibril_mutex_unlock@plt>
    2e07:	83 c4 10             	add    $0x10,%esp
    2e0a:	80 3d d1 91 00 00 00 	cmpb   $0x0,0x91d1
    2e11:	0f 85 b7 00 00 00    	jne    2ece <inet_link_open+0x27e>
    2e17:	80 3d d0 91 00 00 00 	cmpb   $0x0,0x91d0
    2e1e:	0f 85 6f 01 00 00    	jne    2f93 <inet_link_open+0x343>
    2e24:	80 7f 22 00          	cmpb   $0x0,0x22(%edi)
    2e28:	0f 85 35 02 00 00    	jne    3063 <inet_link_open+0x413>
    2e2e:	8b 47 0c             	mov    0xc(%edi),%eax
    2e31:	50                   	push   %eax
    2e32:	68 2d 68 00 00       	push   $0x682d
    2e37:	6a 04                	push   $0x4
    2e39:	6a ff                	push   $0xffffffff
    2e3b:	e8 a0 43 00 00       	call   71e0 <log_msg@plt>
    2e40:	83 c4 10             	add    $0x10,%esp
    2e43:	e9 e6 fe ff ff       	jmp    2d2e <inet_link_open+0xde>
    2e48:	8b 47 0c             	mov    0xc(%edi),%eax
    2e4b:	50                   	push   %eax
    2e4c:	68 18 66 00 00       	push   $0x6618
    2e51:	6a 01                	push   $0x1
    2e53:	6a ff                	push   $0xffffffff
    2e55:	e8 86 43 00 00       	call   71e0 <log_msg@plt>
    2e5a:	83 c4 10             	add    $0x10,%esp
    2e5d:	e9 9a fe ff ff       	jmp    2cfc <inet_link_open+0xac>
    2e62:	8d b6 00 00 00 00    	lea    0x0(%esi),%esi
    2e68:	83 ec 0c             	sub    $0xc,%esp
    2e6b:	bb f7 ff ff ff       	mov    $0xfffffff7,%ebx
    2e70:	68 a0 91 00 00       	push   $0x91a0
    2e75:	e8 26 44 00 00       	call   72a0 <fibril_mutex_unlock@plt>
    2e7a:	56                   	push   %esi
    2e7b:	68 d7 67 00 00       	push   $0x67d7
    2e80:	6a 04                	push   $0x4
    2e82:	6a ff                	push   $0xffffffff
    2e84:	e8 57 43 00 00       	call   71e0 <log_msg@plt>
    2e89:	83 c4 20             	add    $0x20,%esp
    2e8c:	e9 6b fe ff ff       	jmp    2cfc <inet_link_open+0xac>
    2e91:	8d b4 26 00 00 00 00 	lea    0x0(%esi,%eiz,1),%esi
    2e98:	8b 4f 0c             	mov    0xc(%edi),%ecx
    2e9b:	51                   	push   %ecx
    2e9c:	68 84 67 00 00       	push   $0x6784
    2ea1:	6a 01                	push   $0x1
    2ea3:	6a ff                	push   $0xffffffff
    2ea5:	e8 36 43 00 00       	call   71e0 <log_msg@plt>
    2eaa:	83 c4 10             	add    $0x10,%esp
    2ead:	e9 4a fe ff ff       	jmp    2cfc <inet_link_open+0xac>
    2eb2:	50                   	push   %eax
    2eb3:	68 e4 65 00 00       	push   $0x65e4
    2eb8:	6a 01                	push   $0x1
    2eba:	6a ff                	push   $0xffffffff
    2ebc:	bb fe ff ff ff       	mov    $0xfffffffe,%ebx
    2ec1:	e8 1a 43 00 00       	call   71e0 <log_msg@plt>
    2ec6:	83 c4 10             	add    $0x10,%esp
    2ec9:	e9 60 fe ff ff       	jmp    2d2e <inet_link_open+0xde>
    2ece:	e8 5d e2 ff ff       	call   1130 <inet_addrobj_new>
    2ed3:	89 c6                	mov    %eax,%esi
    2ed5:	52                   	push   %edx
    2ed6:	8d 40 0c             	lea    0xc(%eax),%eax
    2ed9:	52                   	push   %edx
    2eda:	6a 18                	push   $0x18
    2edc:	6a 01                	push   $0x1
    2ede:	6a 00                	push   $0x0
    2ee0:	6a 00                	push   $0x0
    2ee2:	6a 7f                	push   $0x7f
    2ee4:	50                   	push   %eax
    2ee5:	89 45 b4             	mov    %eax,-0x4c(%ebp)
    2ee8:	e8 f3 43 00 00       	call   72e0 <inet_naddr@plt>
    2eed:	83 c4 20             	add    $0x20,%esp
    2ef0:	c6 05 d1 91 00 00 00 	movb   $0x0,0x91d1
    2ef7:	85 f6                	test   %esi,%esi
    2ef9:	0f 84 18 ff ff ff    	je     2e17 <inet_link_open+0x1c7>
    2eff:	83 ec 0c             	sub    $0xc,%esp
    2f02:	89 7e 24             	mov    %edi,0x24(%esi)
    2f05:	68 ed 67 00 00       	push   $0x67ed
    2f0a:	e8 a1 43 00 00       	call   72b0 <str_dup@plt>
    2f0f:	89 46 28             	mov    %eax,0x28(%esi)
    2f12:	89 34 24             	mov    %esi,(%esp)
    2f15:	e8 b6 e2 ff ff       	call   11d0 <inet_addrobj_add>
    2f1a:	83 c4 10             	add    $0x10,%esp
    2f1d:	85 c0                	test   %eax,%eax
    2f1f:	75 53                	jne    2f74 <inet_link_open+0x324>
    2f21:	50                   	push   %eax
    2f22:	50                   	push   %eax
    2f23:	8d 45 d4             	lea    -0x2c(%ebp),%eax
    2f26:	50                   	push   %eax
    2f27:	89 45 b0             	mov    %eax,-0x50(%ebp)
    2f2a:	8b 45 b4             	mov    -0x4c(%ebp),%eax
    2f2d:	50                   	push   %eax
    2f2e:	e8 2d 42 00 00       	call   7160 <inet_naddr_addr@plt>
    2f33:	58                   	pop    %eax
    2f34:	8b 4f 14             	mov    0x14(%edi),%ecx
    2f37:	8b 45 b0             	mov    -0x50(%ebp),%eax
    2f3a:	5a                   	pop    %edx
    2f3b:	50                   	push   %eax
    2f3c:	51                   	push   %ecx
    2f3d:	e8 fe 43 00 00       	call   7340 <iplink_addr_add@plt>
    2f42:	83 c4 10             	add    $0x10,%esp
    2f45:	85 c0                	test   %eax,%eax
    2f47:	0f 84 ca fe ff ff    	je     2e17 <inet_link_open+0x1c7>
    2f4d:	50                   	push   %eax
    2f4e:	68 6c 66 00 00       	push   $0x666c
    2f53:	6a 01                	push   $0x1
    2f55:	6a ff                	push   $0xffffffff
    2f57:	e8 84 42 00 00       	call   71e0 <log_msg@plt>
    2f5c:	89 34 24             	mov    %esi,(%esp)
    2f5f:	e8 8c e3 ff ff       	call   12f0 <inet_addrobj_remove>
    2f64:	89 34 24             	mov    %esi,(%esp)
    2f67:	e8 34 e2 ff ff       	call   11a0 <inet_addrobj_delete>
    2f6c:	83 c4 10             	add    $0x10,%esp
    2f6f:	e9 a3 fe ff ff       	jmp    2e17 <inet_link_open+0x1c7>
    2f74:	51                   	push   %ecx
    2f75:	68 f1 67 00 00       	push   $0x67f1
    2f7a:	6a 01                	push   $0x1
    2f7c:	6a ff                	push   $0xffffffff
    2f7e:	e8 5d 42 00 00       	call   71e0 <log_msg@plt>
    2f83:	89 34 24             	mov    %esi,(%esp)
    2f86:	e8 15 e2 ff ff       	call   11a0 <inet_addrobj_delete>
    2f8b:	83 c4 10             	add    $0x10,%esp
    2f8e:	e9 84 fe ff ff       	jmp    2e17 <inet_link_open+0x1c7>
    2f93:	e8 98 e1 ff ff       	call   1130 <inet_addrobj_new>
    2f98:	89 c6                	mov    %eax,%esi
    2f9a:	52                   	push   %edx
    2f9b:	8d 40 0c             	lea    0xc(%eax),%eax
    2f9e:	52                   	push   %edx
    2f9f:	68 80 00 00 00       	push   $0x80
    2fa4:	6a 01                	push   $0x1
    2fa6:	6a 00                	push   $0x0
    2fa8:	6a 00                	push   $0x0
    2faa:	6a 00                	push   $0x0
    2fac:	6a 00                	push   $0x0
    2fae:	6a 00                	push   $0x0
    2fb0:	6a 00                	push   $0x0
    2fb2:	6a 00                	push   $0x0
    2fb4:	50                   	push   %eax
    2fb5:	89 45 b4             	mov    %eax,-0x4c(%ebp)
    2fb8:	e8 c3 41 00 00       	call   7180 <inet_naddr6@plt>
    2fbd:	c6 05 d0 91 00 00 00 	movb   $0x0,0x91d0
    2fc4:	83 c4 30             	add    $0x30,%esp
    2fc7:	85 f6                	test   %esi,%esi
    2fc9:	0f 84 5f fe ff ff    	je     2e2e <inet_link_open+0x1de>
    2fcf:	83 ec 0c             	sub    $0xc,%esp
    2fd2:	89 7e 24             	mov    %edi,0x24(%esi)
    2fd5:	68 0d 68 00 00       	push   $0x680d
    2fda:	e8 d1 42 00 00       	call   72b0 <str_dup@plt>
    2fdf:	89 46 28             	mov    %eax,0x28(%esi)
    2fe2:	89 34 24             	mov    %esi,(%esp)
    2fe5:	e8 e6 e1 ff ff       	call   11d0 <inet_addrobj_add>
    2fea:	83 c4 10             	add    $0x10,%esp
    2fed:	85 c0                	test   %eax,%eax
    2fef:	75 53                	jne    3044 <inet_link_open+0x3f4>
    2ff1:	50                   	push   %eax
    2ff2:	50                   	push   %eax
    2ff3:	8d 45 d4             	lea    -0x2c(%ebp),%eax
    2ff6:	50                   	push   %eax
    2ff7:	89 45 b0             	mov    %eax,-0x50(%ebp)
    2ffa:	8b 45 b4             	mov    -0x4c(%ebp),%eax
    2ffd:	50                   	push   %eax
    2ffe:	e8 5d 41 00 00       	call   7160 <inet_naddr_addr@plt>
    3003:	58                   	pop    %eax
    3004:	8b 4f 14             	mov    0x14(%edi),%ecx
    3007:	8b 45 b0             	mov    -0x50(%ebp),%eax
    300a:	5a                   	pop    %edx
    300b:	50                   	push   %eax
    300c:	51                   	push   %ecx
    300d:	e8 2e 43 00 00       	call   7340 <iplink_addr_add@plt>
    3012:	83 c4 10             	add    $0x10,%esp
    3015:	85 c0                	test   %eax,%eax
    3017:	0f 84 11 fe ff ff    	je     2e2e <inet_link_open+0x1de>
    301d:	51                   	push   %ecx
    301e:	68 9c 66 00 00       	push   $0x669c
    3023:	6a 01                	push   $0x1
    3025:	6a ff                	push   $0xffffffff
    3027:	e8 b4 41 00 00       	call   71e0 <log_msg@plt>
    302c:	89 34 24             	mov    %esi,(%esp)
    302f:	e8 bc e2 ff ff       	call   12f0 <inet_addrobj_remove>
    3034:	89 34 24             	mov    %esi,(%esp)
    3037:	e8 64 e1 ff ff       	call   11a0 <inet_addrobj_delete>
    303c:	83 c4 10             	add    $0x10,%esp
    303f:	e9 ea fd ff ff       	jmp    2e2e <inet_link_open+0x1de>
    3044:	52                   	push   %edx
    3045:	68 11 68 00 00       	push   $0x6811
    304a:	6a 01                	push   $0x1
    304c:	6a ff                	push   $0xffffffff
    304e:	e8 8d 41 00 00       	call   71e0 <log_msg@plt>
    3053:	89 34 24             	mov    %esi,(%esp)
    3056:	e8 45 e1 ff ff       	call   11a0 <inet_addrobj_delete>
    305b:	83 c4 10             	add    $0x10,%esp
    305e:	e9 cb fd ff ff       	jmp    2e2e <inet_link_open+0x1de>
    3063:	e8 c8 e0 ff ff       	call   1130 <inet_addrobj_new>
    3068:	8d 4d c4             	lea    -0x3c(%ebp),%ecx
    306b:	89 c6                	mov    %eax,%esi
    306d:	89 4d b0             	mov    %ecx,-0x50(%ebp)
    3070:	50                   	push   %eax
    3071:	6a 10                	push   $0x10
    3073:	68 90 91 00 00       	push   $0x9190
    3078:	51                   	push   %ecx
    3079:	e8 d2 40 00 00       	call   7150 <memcpy@plt>
    307e:	8a 47 1c             	mov    0x1c(%edi),%al
    3081:	83 f0 02             	xor    $0x2,%eax
    3084:	83 c4 0c             	add    $0xc,%esp
    3087:	88 45 cc             	mov    %al,-0x34(%ebp)
    308a:	8a 47 1d             	mov    0x1d(%edi),%al
    308d:	88 45 cd             	mov    %al,-0x33(%ebp)
    3090:	8a 47 1e             	mov    0x1e(%edi),%al
    3093:	88 45 ce             	mov    %al,-0x32(%ebp)
    3096:	8a 47 1f             	mov    0x1f(%edi),%al
    3099:	88 45 d1             	mov    %al,-0x2f(%ebp)
    309c:	8a 47 20             	mov    0x20(%edi),%al
    309f:	88 45 d2             	mov    %al,-0x2e(%ebp)
    30a2:	8a 47 21             	mov    0x21(%edi),%al
    30a5:	88 45 d3             	mov    %al,-0x2d(%ebp)
    30a8:	8b 4d b0             	mov    -0x50(%ebp),%ecx
    30ab:	8d 46 0c             	lea    0xc(%esi),%eax
    30ae:	50                   	push   %eax
    30af:	6a 40                	push   $0x40
    30b1:	51                   	push   %ecx
    30b2:	89 45 b4             	mov    %eax,-0x4c(%ebp)
    30b5:	e8 76 40 00 00       	call   7130 <inet_naddr_set6@plt>
    30ba:	83 c4 10             	add    $0x10,%esp
    30bd:	e9 05 ff ff ff       	jmp    2fc7 <inet_link_open+0x377>
    30c2:	51                   	push   %ecx
    30c3:	68 c2 01 00 00       	push   $0x1c2
    30c8:	68 cb 67 00 00       	push   $0x67cb
    30cd:	68 40 66 00 00       	push   $0x6640
    30d2:	e8 59 41 00 00       	call   7230 <assert_abort@plt>
    30d7:	89 f6                	mov    %esi,%esi
    30d9:	8d bc 27 00 00 00 00 	lea    0x0(%edi,%eiz,1),%edi

000030e0 <inet_link_send_dgram>:
    30e0:	55                   	push   %ebp
    30e1:	89 e5                	mov    %esp,%ebp
    30e3:	57                   	push   %edi
    30e4:	56                   	push   %esi
    30e5:	53                   	push   %ebx
    30e6:	83 c4 80             	add    $0xffffff80,%esp
    30e9:	8b 45 18             	mov    0x18(%ebp),%eax
    30ec:	8b 7d 14             	mov    0x14(%ebp),%edi
    30ef:	89 45 84             	mov    %eax,-0x7c(%ebp)
    30f2:	8d 45 88             	lea    -0x78(%ebp),%eax
    30f5:	6a 00                	push   $0x0
    30f7:	50                   	push   %eax
    30f8:	8d 47 04             	lea    0x4(%edi),%eax
    30fb:	8b 75 08             	mov    0x8(%ebp),%esi
    30fe:	50                   	push   %eax
    30ff:	8b 5d 1c             	mov    0x1c(%ebp),%ebx
    3102:	e8 e9 41 00 00       	call   72f0 <inet_addr_get@plt>
    3107:	83 c4 10             	add    $0x10,%esp
    310a:	48                   	dec    %eax
    310b:	0f 85 1f 01 00 00    	jne    3230 <inet_link_send_dgram+0x150>
    3111:	50                   	push   %eax
    3112:	8d 45 8c             	lea    -0x74(%ebp),%eax
    3115:	6a 00                	push   $0x0
    3117:	50                   	push   %eax
    3118:	8d 47 18             	lea    0x18(%edi),%eax
    311b:	50                   	push   %eax
    311c:	e8 cf 41 00 00       	call   72f0 <inet_addr_get@plt>
    3121:	83 c4 10             	add    $0x10,%esp
    3124:	48                   	dec    %eax
    3125:	0f 85 05 01 00 00    	jne    3230 <inet_link_send_dgram+0x150>
    312b:	8b 45 0c             	mov    0xc(%ebp),%eax
    312e:	83 ec 0c             	sub    $0xc,%esp
    3131:	89 45 94             	mov    %eax,-0x6c(%ebp)
    3134:	8b 45 10             	mov    0x10(%ebp),%eax
    3137:	89 45 98             	mov    %eax,-0x68(%ebp)
    313a:	8b 47 04             	mov    0x4(%edi),%eax
    313d:	89 45 a8             	mov    %eax,-0x58(%ebp)
    3140:	8b 47 08             	mov    0x8(%edi),%eax
    3143:	89 45 ac             	mov    %eax,-0x54(%ebp)
    3146:	8b 47 0c             	mov    0xc(%edi),%eax
    3149:	89 45 b0             	mov    %eax,-0x50(%ebp)
    314c:	8b 47 10             	mov    0x10(%edi),%eax
    314f:	89 45 b4             	mov    %eax,-0x4c(%ebp)
    3152:	8b 47 14             	mov    0x14(%edi),%eax
    3155:	89 45 b8             	mov    %eax,-0x48(%ebp)
    3158:	8b 47 18             	mov    0x18(%edi),%eax
    315b:	89 45 bc             	mov    %eax,-0x44(%ebp)
    315e:	8b 47 1c             	mov    0x1c(%edi),%eax
    3161:	89 45 c0             	mov    %eax,-0x40(%ebp)
    3164:	8b 47 20             	mov    0x20(%edi),%eax
    3167:	89 45 c4             	mov    %eax,-0x3c(%ebp)
    316a:	8b 47 24             	mov    0x24(%edi),%eax
    316d:	89 45 c8             	mov    %eax,-0x38(%ebp)
    3170:	8b 47 28             	mov    0x28(%edi),%eax
    3173:	89 45 cc             	mov    %eax,-0x34(%ebp)
    3176:	8a 47 2c             	mov    0x2c(%edi),%al
    3179:	88 45 d0             	mov    %al,-0x30(%ebp)
    317c:	8a 45 84             	mov    -0x7c(%ebp),%al
    317f:	68 c0 91 00 00       	push   $0x91c0
    3184:	88 45 d1             	mov    %al,-0x2f(%ebp)
    3187:	88 5d d2             	mov    %bl,-0x2e(%ebp)
    318a:	e8 21 43 00 00       	call   74b0 <fibril_mutex_lock@plt>
    318f:	66 a1 7c 93 00 00    	mov    0x937c,%ax
    3195:	c7 04 24 c0 91 00 00 	movl   $0x91c0,(%esp)
    319c:	8d 5d 9c             	lea    -0x64(%ebp),%ebx
    319f:	8d 48 01             	lea    0x1(%eax),%ecx
    31a2:	31 c0                	xor    %eax,%eax
    31a4:	66 89 c8             	mov    %cx,%ax
    31a7:	66 89 0d 7c 93 00 00 	mov    %cx,0x937c
    31ae:	89 45 d4             	mov    %eax,-0x2c(%ebp)
    31b1:	e8 ea 40 00 00       	call   72a0 <fibril_mutex_unlock@plt>
    31b6:	8b 45 20             	mov    0x20(%ebp),%eax
    31b9:	83 c4 10             	add    $0x10,%esp
    31bc:	85 c0                	test   %eax,%eax
    31be:	8b 47 30             	mov    0x30(%edi),%eax
    31c1:	89 45 e0             	mov    %eax,-0x20(%ebp)
    31c4:	8b 47 34             	mov    0x34(%edi),%eax
    31c7:	0f 95 45 d8          	setne  -0x28(%ebp)
    31cb:	89 45 e4             	mov    %eax,-0x1c(%ebp)
    31ce:	31 d2                	xor    %edx,%edx
    31d0:	8d 7d 90             	lea    -0x70(%ebp),%edi
    31d3:	eb 2d                	jmp    3202 <inet_link_send_dgram+0x122>
    31d5:	8d 76 00             	lea    0x0(%esi),%esi
    31d8:	50                   	push   %eax
    31d9:	50                   	push   %eax
    31da:	8b 56 14             	mov    0x14(%esi),%edx
    31dd:	8d 45 94             	lea    -0x6c(%ebp),%eax
    31e0:	50                   	push   %eax
    31e1:	52                   	push   %edx
    31e2:	e8 69 41 00 00       	call   7350 <iplink_send@plt>
    31e7:	59                   	pop    %ecx
    31e8:	89 45 84             	mov    %eax,-0x7c(%ebp)
    31eb:	8b 45 9c             	mov    -0x64(%ebp),%eax
    31ee:	50                   	push   %eax
    31ef:	e8 ac 42 00 00       	call   74a0 <free@plt>
    31f4:	8b 55 90             	mov    -0x70(%ebp),%edx
    31f7:	83 c4 10             	add    $0x10,%esp
    31fa:	8b 45 84             	mov    -0x7c(%ebp),%eax
    31fd:	3b 55 e4             	cmp    -0x1c(%ebp),%edx
    3200:	73 23                	jae    3225 <inet_link_send_dgram+0x145>
    3202:	8d 45 a0             	lea    -0x60(%ebp),%eax
    3205:	57                   	push   %edi
    3206:	50                   	push   %eax
    3207:	8b 46 18             	mov    0x18(%esi),%eax
    320a:	53                   	push   %ebx
    320b:	50                   	push   %eax
    320c:	8b 45 8c             	mov    -0x74(%ebp),%eax
    320f:	52                   	push   %edx
    3210:	50                   	push   %eax
    3211:	8b 45 88             	mov    -0x78(%ebp),%eax
    3214:	50                   	push   %eax
    3215:	8d 45 a4             	lea    -0x5c(%ebp),%eax
    3218:	50                   	push   %eax
    3219:	e8 72 1b 00 00       	call   4d90 <inet_pdu_encode>
    321e:	83 c4 20             	add    $0x20,%esp
    3221:	85 c0                	test   %eax,%eax
    3223:	74 b3                	je     31d8 <inet_link_send_dgram+0xf8>
    3225:	8d 65 f4             	lea    -0xc(%ebp),%esp
    3228:	5b                   	pop    %ebx
    3229:	5e                   	pop    %esi
    322a:	5f                   	pop    %edi
    322b:	5d                   	pop    %ebp
    322c:	c3                   	ret    
    322d:	8d 76 00             	lea    0x0(%esi),%esi
    3230:	8d 65 f4             	lea    -0xc(%ebp),%esp
    3233:	b8 f2 ff ff ff       	mov    $0xfffffff2,%eax
    3238:	5b                   	pop    %ebx
    3239:	5e                   	pop    %esi
    323a:	5f                   	pop    %edi
    323b:	5d                   	pop    %ebp
    323c:	c3                   	ret    
    323d:	8d 76 00             	lea    0x0(%esi),%esi

00003240 <inet_link_send_dgram6>:
    3240:	55                   	push   %ebp
    3241:	89 e5                	mov    %esp,%ebp
    3243:	57                   	push   %edi
    3244:	56                   	push   %esi
    3245:	53                   	push   %ebx
    3246:	81 ec a0 00 00 00    	sub    $0xa0,%esp
    324c:	8b 45 18             	mov    0x18(%ebp),%eax
    324f:	8b 7d 10             	mov    0x10(%ebp),%edi
    3252:	89 85 64 ff ff ff    	mov    %eax,-0x9c(%ebp)
    3258:	8d 45 84             	lea    -0x7c(%ebp),%eax
    325b:	50                   	push   %eax
    325c:	8d 47 04             	lea    0x4(%edi),%eax
    325f:	6a 00                	push   $0x0
    3261:	8b 75 08             	mov    0x8(%ebp),%esi
    3264:	50                   	push   %eax
    3265:	8b 5d 14             	mov    0x14(%ebp),%ebx
    3268:	e8 83 40 00 00       	call   72f0 <inet_addr_get@plt>
    326d:	83 c4 10             	add    $0x10,%esp
    3270:	83 f8 02             	cmp    $0x2,%eax
    3273:	0f 85 3f 01 00 00    	jne    33b8 <inet_link_send_dgram6+0x178>
    3279:	50                   	push   %eax
    327a:	8d 45 94             	lea    -0x6c(%ebp),%eax
    327d:	50                   	push   %eax
    327e:	8d 47 18             	lea    0x18(%edi),%eax
    3281:	6a 00                	push   $0x0
    3283:	50                   	push   %eax
    3284:	e8 67 40 00 00       	call   72f0 <inet_addr_get@plt>
    3289:	83 c4 10             	add    $0x10,%esp
    328c:	83 f8 02             	cmp    $0x2,%eax
    328f:	0f 85 23 01 00 00    	jne    33b8 <inet_link_send_dgram6+0x178>
    3295:	50                   	push   %eax
    3296:	50                   	push   %eax
    3297:	8d 85 74 ff ff ff    	lea    -0x8c(%ebp),%eax
    329d:	50                   	push   %eax
    329e:	8b 45 0c             	mov    0xc(%ebp),%eax
    32a1:	50                   	push   %eax
    32a2:	e8 39 41 00 00       	call   73e0 <addr48@plt>
    32a7:	8b 47 04             	mov    0x4(%edi),%eax
    32aa:	88 5d d1             	mov    %bl,-0x2f(%ebp)
    32ad:	89 45 a8             	mov    %eax,-0x58(%ebp)
    32b0:	8b 47 08             	mov    0x8(%edi),%eax
    32b3:	89 45 ac             	mov    %eax,-0x54(%ebp)
    32b6:	8b 47 0c             	mov    0xc(%edi),%eax
    32b9:	89 45 b0             	mov    %eax,-0x50(%ebp)
    32bc:	8b 47 10             	mov    0x10(%edi),%eax
    32bf:	89 45 b4             	mov    %eax,-0x4c(%ebp)
    32c2:	8b 47 14             	mov    0x14(%edi),%eax
    32c5:	89 45 b8             	mov    %eax,-0x48(%ebp)
    32c8:	8b 47 18             	mov    0x18(%edi),%eax
    32cb:	89 45 bc             	mov    %eax,-0x44(%ebp)
    32ce:	8b 47 1c             	mov    0x1c(%edi),%eax
    32d1:	89 45 c0             	mov    %eax,-0x40(%ebp)
    32d4:	8b 47 20             	mov    0x20(%edi),%eax
    32d7:	89 45 c4             	mov    %eax,-0x3c(%ebp)
    32da:	8b 47 24             	mov    0x24(%edi),%eax
    32dd:	89 45 c8             	mov    %eax,-0x38(%ebp)
    32e0:	8b 47 28             	mov    0x28(%edi),%eax
    32e3:	89 45 cc             	mov    %eax,-0x34(%ebp)
    32e6:	8a 47 2c             	mov    0x2c(%edi),%al
    32e9:	88 45 d0             	mov    %al,-0x30(%ebp)
    32ec:	8a 85 64 ff ff ff    	mov    -0x9c(%ebp),%al
    32f2:	c7 04 24 c0 91 00 00 	movl   $0x91c0,(%esp)
    32f9:	88 45 d2             	mov    %al,-0x2e(%ebp)
    32fc:	e8 af 41 00 00       	call   74b0 <fibril_mutex_lock@plt>
    3301:	66 a1 7c 93 00 00    	mov    0x937c,%ax
    3307:	8d 48 01             	lea    0x1(%eax),%ecx
    330a:	31 c0                	xor    %eax,%eax
    330c:	66 89 c8             	mov    %cx,%ax
    330f:	c7 04 24 c0 91 00 00 	movl   $0x91c0,(%esp)
    3316:	89 45 d4             	mov    %eax,-0x2c(%ebp)
    3319:	66 89 0d 7c 93 00 00 	mov    %cx,0x937c
    3320:	e8 7b 3f 00 00       	call   72a0 <fibril_mutex_unlock@plt>
    3325:	8b 45 1c             	mov    0x1c(%ebp),%eax
    3328:	83 c4 10             	add    $0x10,%esp
    332b:	85 c0                	test   %eax,%eax
    332d:	8b 47 30             	mov    0x30(%edi),%eax
    3330:	0f 95 45 d8          	setne  -0x28(%ebp)
    3334:	89 45 e0             	mov    %eax,-0x20(%ebp)
    3337:	8b 47 34             	mov    0x34(%edi),%eax
    333a:	89 45 e4             	mov    %eax,-0x1c(%ebp)
    333d:	31 d2                	xor    %edx,%edx
    333f:	8d bd 70 ff ff ff    	lea    -0x90(%ebp),%edi
    3345:	8d 5d a4             	lea    -0x5c(%ebp),%ebx
    3348:	eb 3f                	jmp    3389 <inet_link_send_dgram6+0x149>
    334a:	8d b6 00 00 00 00    	lea    0x0(%esi),%esi
    3350:	50                   	push   %eax
    3351:	50                   	push   %eax
    3352:	8b 56 14             	mov    0x14(%esi),%edx
    3355:	8d 85 74 ff ff ff    	lea    -0x8c(%ebp),%eax
    335b:	50                   	push   %eax
    335c:	52                   	push   %edx
    335d:	e8 5e 3f 00 00       	call   72c0 <iplink_send6@plt>
    3362:	59                   	pop    %ecx
    3363:	89 85 64 ff ff ff    	mov    %eax,-0x9c(%ebp)
    3369:	8b 85 7c ff ff ff    	mov    -0x84(%ebp),%eax
    336f:	50                   	push   %eax
    3370:	e8 2b 41 00 00       	call   74a0 <free@plt>
    3375:	8b 95 70 ff ff ff    	mov    -0x90(%ebp),%edx
    337b:	83 c4 10             	add    $0x10,%esp
    337e:	8b 85 64 ff ff ff    	mov    -0x9c(%ebp),%eax
    3384:	3b 55 e4             	cmp    -0x1c(%ebp),%edx
    3387:	73 26                	jae    33af <inet_link_send_dgram6+0x16f>
    3389:	8d 45 80             	lea    -0x80(%ebp),%eax
    338c:	57                   	push   %edi
    338d:	50                   	push   %eax
    338e:	8d 85 7c ff ff ff    	lea    -0x84(%ebp),%eax
    3394:	50                   	push   %eax
    3395:	8b 46 18             	mov    0x18(%esi),%eax
    3398:	50                   	push   %eax
    3399:	8d 45 94             	lea    -0x6c(%ebp),%eax
    339c:	52                   	push   %edx
    339d:	50                   	push   %eax
    339e:	8d 45 84             	lea    -0x7c(%ebp),%eax
    33a1:	50                   	push   %eax
    33a2:	53                   	push   %ebx
    33a3:	e8 78 1c 00 00       	call   5020 <inet_pdu_encode6>
    33a8:	83 c4 20             	add    $0x20,%esp
    33ab:	85 c0                	test   %eax,%eax
    33ad:	74 a1                	je     3350 <inet_link_send_dgram6+0x110>
    33af:	8d 65 f4             	lea    -0xc(%ebp),%esp
    33b2:	5b                   	pop    %ebx
    33b3:	5e                   	pop    %esi
    33b4:	5f                   	pop    %edi
    33b5:	5d                   	pop    %ebp
    33b6:	c3                   	ret    
    33b7:	90                   	nop
    33b8:	8d 65 f4             	lea    -0xc(%ebp),%esp
    33bb:	b8 f2 ff ff ff       	mov    $0xfffffff2,%eax
    33c0:	5b                   	pop    %ebx
    33c1:	5e                   	pop    %esi
    33c2:	5f                   	pop    %edi
    33c3:	5d                   	pop    %ebp
    33c4:	c3                   	ret    
    33c5:	8d 74 26 00          	lea    0x0(%esi,%eiz,1),%esi
    33c9:	8d bc 27 00 00 00 00 	lea    0x0(%edi,%eiz,1),%edi

000033d0 <inet_link_get_by_id>:
    33d0:	55                   	push   %ebp
    33d1:	89 e5                	mov    %esp,%ebp
    33d3:	53                   	push   %ebx
    33d4:	83 ec 20             	sub    $0x20,%esp
    33d7:	8b 5d 08             	mov    0x8(%ebp),%ebx
    33da:	68 a0 91 00 00       	push   $0x91a0
    33df:	e8 cc 40 00 00       	call   74b0 <fibril_mutex_lock@plt>
    33e4:	c7 04 24 a0 91 00 00 	movl   $0x91a0,(%esp)
    33eb:	e8 10 3d 00 00       	call   7100 <fibril_mutex_is_locked@plt>
    33f0:	83 c4 10             	add    $0x10,%esp
    33f3:	84 c0                	test   %al,%al
    33f5:	74 3d                	je     3434 <inet_link_get_by_id+0x64>
    33f7:	a1 b4 91 00 00       	mov    0x91b4,%eax
    33fc:	3d b0 91 00 00       	cmp    $0x91b0,%eax
    3401:	75 0f                	jne    3412 <inet_link_get_by_id+0x42>
    3403:	eb 2b                	jmp    3430 <inet_link_get_by_id+0x60>
    3405:	8d 76 00             	lea    0x0(%esi),%esi
    3408:	8b 40 04             	mov    0x4(%eax),%eax
    340b:	3d b0 91 00 00       	cmp    $0x91b0,%eax
    3410:	74 1e                	je     3430 <inet_link_get_by_id+0x60>
    3412:	3b 58 08             	cmp    0x8(%eax),%ebx
    3415:	75 f1                	jne    3408 <inet_link_get_by_id+0x38>
    3417:	83 ec 0c             	sub    $0xc,%esp
    341a:	89 45 f4             	mov    %eax,-0xc(%ebp)
    341d:	68 a0 91 00 00       	push   $0x91a0
    3422:	e8 79 3e 00 00       	call   72a0 <fibril_mutex_unlock@plt>
    3427:	8b 45 f4             	mov    -0xc(%ebp),%eax
    342a:	8b 5d fc             	mov    -0x4(%ebp),%ebx
    342d:	c9                   	leave  
    342e:	c3                   	ret    
    342f:	90                   	nop
    3430:	31 c0                	xor    %eax,%eax
    3432:	eb e3                	jmp    3417 <inet_link_get_by_id+0x47>
    3434:	50                   	push   %eax
    3435:	68 c2 01 00 00       	push   $0x1c2
    343a:	68 cb 67 00 00       	push   $0x67cb
    343f:	68 40 66 00 00       	push   $0x6640
    3444:	e8 e7 3d 00 00       	call   7230 <assert_abort@plt>
    3449:	8d b4 26 00 00 00 00 	lea    0x0(%esi,%eiz,1),%esi

00003450 <inet_link_get_id_list>:
    3450:	55                   	push   %ebp
    3451:	89 e5                	mov    %esp,%ebp
    3453:	56                   	push   %esi
    3454:	53                   	push   %ebx
    3455:	83 ec 0c             	sub    $0xc,%esp
    3458:	68 a0 91 00 00       	push   $0x91a0
    345d:	e8 4e 40 00 00       	call   74b0 <fibril_mutex_lock@plt>
    3462:	c7 04 24 b0 91 00 00 	movl   $0x91b0,(%esp)
    3469:	e8 32 3f 00 00       	call   73a0 <list_count@plt>
    346e:	5a                   	pop    %edx
    346f:	89 c6                	mov    %eax,%esi
    3471:	59                   	pop    %ecx
    3472:	6a 04                	push   $0x4
    3474:	50                   	push   %eax
    3475:	e8 c6 3d 00 00       	call   7240 <calloc@plt>
    347a:	83 c4 10             	add    $0x10,%esp
    347d:	85 c0                	test   %eax,%eax
    347f:	74 4c                	je     34cd <inet_link_get_id_list+0x7d>
    3481:	89 c3                	mov    %eax,%ebx
    3483:	a1 b4 91 00 00       	mov    0x91b4,%eax
    3488:	3d b0 91 00 00       	cmp    $0x91b0,%eax
    348d:	74 1b                	je     34aa <inet_link_get_id_list+0x5a>
    348f:	89 da                	mov    %ebx,%edx
    3491:	8d b4 26 00 00 00 00 	lea    0x0(%esi,%eiz,1),%esi
    3498:	8b 48 08             	mov    0x8(%eax),%ecx
    349b:	8b 40 04             	mov    0x4(%eax),%eax
    349e:	89 0a                	mov    %ecx,(%edx)
    34a0:	83 c2 04             	add    $0x4,%edx
    34a3:	3d b0 91 00 00       	cmp    $0x91b0,%eax
    34a8:	75 ee                	jne    3498 <inet_link_get_id_list+0x48>
    34aa:	83 ec 0c             	sub    $0xc,%esp
    34ad:	68 a0 91 00 00       	push   $0x91a0
    34b2:	e8 e9 3d 00 00       	call   72a0 <fibril_mutex_unlock@plt>
    34b7:	8b 45 08             	mov    0x8(%ebp),%eax
    34ba:	83 c4 10             	add    $0x10,%esp
    34bd:	89 18                	mov    %ebx,(%eax)
    34bf:	8b 45 0c             	mov    0xc(%ebp),%eax
    34c2:	89 30                	mov    %esi,(%eax)
    34c4:	31 c0                	xor    %eax,%eax
    34c6:	8d 65 f8             	lea    -0x8(%ebp),%esp
    34c9:	5b                   	pop    %ebx
    34ca:	5e                   	pop    %esi
    34cb:	5d                   	pop    %ebp
    34cc:	c3                   	ret    
    34cd:	83 ec 0c             	sub    $0xc,%esp
    34d0:	68 a0 91 00 00       	push   $0x91a0
    34d5:	e8 c6 3d 00 00       	call   72a0 <fibril_mutex_unlock@plt>
    34da:	83 c4 10             	add    $0x10,%esp
    34dd:	b8 fe ff ff ff       	mov    $0xfffffffe,%eax
    34e2:	eb e2                	jmp    34c6 <inet_link_get_id_list+0x76>
    34e4:	66 90                	xchg   %ax,%ax
    34e6:	66 90                	xchg   %ax,%ax
    34e8:	66 90                	xchg   %ax,%ax
    34ea:	66 90                	xchg   %ax,%ax
    34ec:	66 90                	xchg   %ax,%ax
    34ee:	66 90                	xchg   %ax,%ax

000034f0 <inet_cfg_conn>:
    34f0:	55                   	push   %ebp
    34f1:	89 e5                	mov    %esp,%ebp
    34f3:	57                   	push   %edi
    34f4:	56                   	push   %esi
    34f5:	53                   	push   %ebx
    34f6:	81 ec a0 00 00 00    	sub    $0xa0,%esp
    34fc:	68 43 68 00 00       	push   $0x6843
    3501:	6a 04                	push   $0x4
    3503:	6a ff                	push   $0xffffffff
    3505:	e8 d6 3c 00 00       	call   71e0 <log_msg@plt>
    350a:	8b 45 08             	mov    0x8(%ebp),%eax
    350d:	5e                   	pop    %esi
    350e:	5f                   	pop    %edi
    350f:	6a 00                	push   $0x0
    3511:	50                   	push   %eax
    3512:	e8 a9 3c 00 00       	call   71c0 <async_answer_0@plt>
    3517:	83 c4 10             	add    $0x10,%esp
    351a:	8d b6 00 00 00 00    	lea    0x0(%esi),%esi
    3520:	8d 45 94             	lea    -0x6c(%ebp),%eax
    3523:	53                   	push   %ebx
    3524:	53                   	push   %ebx
    3525:	6a 00                	push   $0x0
    3527:	50                   	push   %eax
    3528:	e8 53 3e 00 00       	call   7380 <async_get_call_timeout@plt>
    352d:	8b 75 94             	mov    -0x6c(%ebp),%esi
    3530:	89 c3                	mov    %eax,%ebx
    3532:	56                   	push   %esi
    3533:	68 53 68 00 00       	push   $0x6853
    3538:	6a 04                	push   $0x4
    353a:	6a ff                	push   $0xffffffff
    353c:	e8 9f 3c 00 00       	call   71e0 <log_msg@plt>
    3541:	83 c4 20             	add    $0x20,%esp
    3544:	85 f6                	test   %esi,%esi
    3546:	0f 84 44 06 00 00    	je     3b90 <inet_cfg_conn+0x6a0>
    354c:	81 ee 00 04 00 00    	sub    $0x400,%esi
    3552:	83 fe 0d             	cmp    $0xd,%esi
    3555:	0f 87 4d 06 00 00    	ja     3ba8 <inet_cfg_conn+0x6b8>
    355b:	ff 24 b5 64 6a 00 00 	jmp    *0x6a64(,%esi,4)
    3562:	8d b6 00 00 00 00    	lea    0x0(%esi),%esi
    3568:	50                   	push   %eax
    3569:	68 bf 69 00 00       	push   $0x69bf
    356e:	6a 04                	push   $0x4
    3570:	6a ff                	push   $0xffffffff
    3572:	e8 69 3c 00 00       	call   71e0 <log_msg@plt>
    3577:	8d 45 b8             	lea    -0x48(%ebp),%eax
    357a:	89 04 24             	mov    %eax,(%esp)
    357d:	8b 75 98             	mov    -0x68(%ebp),%esi
    3580:	e8 6b 3c 00 00       	call   71f0 <inet_naddr_any@plt>
    3585:	8d 45 d0             	lea    -0x30(%ebp),%eax
    3588:	89 04 24             	mov    %eax,(%esp)
    358b:	e8 90 3c 00 00       	call   7220 <inet_addr_any@plt>
    3590:	89 34 24             	mov    %esi,(%esp)
    3593:	c7 45 e4 00 00 00 00 	movl   $0x0,-0x1c(%ebp)
    359a:	e8 c1 2a 00 00       	call   6060 <inet_sroute_get_by_id>
    359f:	83 c4 10             	add    $0x10,%esp
    35a2:	85 c0                	test   %eax,%eax
    35a4:	0f 84 10 06 00 00    	je     3bba <inet_cfg_conn+0x6ca>
    35aa:	8b 50 24             	mov    0x24(%eax),%edx
    35ad:	8d 70 0c             	lea    0xc(%eax),%esi
    35b0:	b9 06 00 00 00       	mov    $0x6,%ecx
    35b5:	8d 7d b8             	lea    -0x48(%ebp),%edi
    35b8:	f3 a5                	rep movsl %ds:(%esi),%es:(%edi)
    35ba:	89 55 d0             	mov    %edx,-0x30(%ebp)
    35bd:	8b 50 28             	mov    0x28(%eax),%edx
    35c0:	89 55 d4             	mov    %edx,-0x2c(%ebp)
    35c3:	8b 50 2c             	mov    0x2c(%eax),%edx
    35c6:	83 ec 0c             	sub    $0xc,%esp
    35c9:	89 55 d8             	mov    %edx,-0x28(%ebp)
    35cc:	8b 50 30             	mov    0x30(%eax),%edx
    35cf:	8b 70 38             	mov    0x38(%eax),%esi
    35d2:	89 55 dc             	mov    %edx,-0x24(%ebp)
    35d5:	8b 50 34             	mov    0x34(%eax),%edx
    35d8:	89 55 e0             	mov    %edx,-0x20(%ebp)
    35db:	56                   	push   %esi
    35dc:	e8 cf 3c 00 00       	call   72b0 <str_dup@plt>
    35e1:	8d b5 7c ff ff ff    	lea    -0x84(%ebp),%esi
    35e7:	5f                   	pop    %edi
    35e8:	8d 7d 80             	lea    -0x80(%ebp),%edi
    35eb:	89 45 e4             	mov    %eax,-0x1c(%ebp)
    35ee:	58                   	pop    %eax
    35ef:	57                   	push   %edi
    35f0:	56                   	push   %esi
    35f1:	e8 1a 3d 00 00       	call   7310 <async_data_read_receive@plt>
    35f6:	83 c4 10             	add    $0x10,%esp
    35f9:	84 c0                	test   %al,%al
    35fb:	0f 84 bf 06 00 00    	je     3cc0 <inet_cfg_conn+0x7d0>
    3601:	83 7d 80 18          	cmpl   $0x18,-0x80(%ebp)
    3605:	0f 84 17 07 00 00    	je     3d22 <inet_cfg_conn+0x832>
    360b:	8b bd 7c ff ff ff    	mov    -0x84(%ebp),%edi
    3611:	56                   	push   %esi
    3612:	56                   	push   %esi
    3613:	6a f2                	push   $0xfffffff2
    3615:	57                   	push   %edi
    3616:	e9 98 00 00 00       	jmp    36b3 <inet_cfg_conn+0x1c3>
    361b:	90                   	nop
    361c:	8d 74 26 00          	lea    0x0(%esi,%eiz,1),%esi
    3620:	50                   	push   %eax
    3621:	68 a3 69 00 00       	push   $0x69a3
    3626:	6a 04                	push   $0x4
    3628:	6a ff                	push   $0xffffffff
    362a:	e8 b1 3b 00 00       	call   71e0 <log_msg@plt>
    362f:	58                   	pop    %eax
    3630:	8b 45 98             	mov    -0x68(%ebp),%eax
    3633:	50                   	push   %eax
    3634:	e8 27 2a 00 00       	call   6060 <inet_sroute_get_by_id>
    3639:	83 c4 10             	add    $0x10,%esp
    363c:	89 c6                	mov    %eax,%esi
    363e:	85 c0                	test   %eax,%eax
    3640:	0f 84 e9 09 00 00    	je     402f <inet_cfg_conn+0xb3f>
    3646:	83 ec 0c             	sub    $0xc,%esp
    3649:	50                   	push   %eax
    364a:	e8 11 28 00 00       	call   5e60 <inet_sroute_remove>
    364f:	89 34 24             	mov    %esi,(%esp)
    3652:	e8 89 27 00 00       	call   5de0 <inet_sroute_delete>
    3657:	83 c4 10             	add    $0x10,%esp
    365a:	31 c0                	xor    %eax,%eax
    365c:	52                   	push   %edx
    365d:	52                   	push   %edx
    365e:	50                   	push   %eax
    365f:	53                   	push   %ebx
    3660:	e8 5b 3b 00 00       	call   71c0 <async_answer_0@plt>
    3665:	83 c4 10             	add    $0x10,%esp
    3668:	e9 b3 fe ff ff       	jmp    3520 <inet_cfg_conn+0x30>
    366d:	8d 76 00             	lea    0x0(%esi),%esi
    3670:	8d bd 78 ff ff ff    	lea    -0x88(%ebp),%edi
    3676:	8d b5 74 ff ff ff    	lea    -0x8c(%ebp),%esi
    367c:	50                   	push   %eax
    367d:	68 87 69 00 00       	push   $0x6987
    3682:	6a 04                	push   $0x4
    3684:	6a ff                	push   $0xffffffff
    3686:	e8 55 3b 00 00       	call   71e0 <log_msg@plt>
    368b:	58                   	pop    %eax
    368c:	5a                   	pop    %edx
    368d:	57                   	push   %edi
    368e:	56                   	push   %esi
    368f:	e8 ec 3d 00 00       	call   7480 <async_data_write_receive@plt>
    3694:	83 c4 10             	add    $0x10,%esp
    3697:	84 c0                	test   %al,%al
    3699:	74 0d                	je     36a8 <inet_cfg_conn+0x1b8>
    369b:	83 bd 78 ff ff ff 18 	cmpl   $0x18,-0x88(%ebp)
    36a2:	0f 84 30 06 00 00    	je     3cd8 <inet_cfg_conn+0x7e8>
    36a8:	50                   	push   %eax
    36a9:	50                   	push   %eax
    36aa:	8b 85 74 ff ff ff    	mov    -0x8c(%ebp),%eax
    36b0:	6a f2                	push   $0xfffffff2
    36b2:	50                   	push   %eax
    36b3:	e8 08 3b 00 00       	call   71c0 <async_answer_0@plt>
    36b8:	5a                   	pop    %edx
    36b9:	59                   	pop    %ecx
    36ba:	6a f2                	push   $0xfffffff2
    36bc:	53                   	push   %ebx
    36bd:	e8 fe 3a 00 00       	call   71c0 <async_answer_0@plt>
    36c2:	83 c4 10             	add    $0x10,%esp
    36c5:	e9 56 fe ff ff       	jmp    3520 <inet_cfg_conn+0x30>
    36ca:	8d b6 00 00 00 00    	lea    0x0(%esi),%esi
    36d0:	51                   	push   %ecx
    36d1:	68 6d 69 00 00       	push   $0x696d
    36d6:	6a 04                	push   $0x4
    36d8:	6a ff                	push   $0xffffffff
    36da:	e8 01 3b 00 00       	call   71e0 <log_msg@plt>
    36df:	5e                   	pop    %esi
    36e0:	5f                   	pop    %edi
    36e1:	6a f5                	push   $0xfffffff5
    36e3:	53                   	push   %ebx
    36e4:	e8 d7 3a 00 00       	call   71c0 <async_answer_0@plt>
    36e9:	83 c4 10             	add    $0x10,%esp
    36ec:	e9 2f fe ff ff       	jmp    3520 <inet_cfg_conn+0x30>
    36f1:	8d b4 26 00 00 00 00 	lea    0x0(%esi,%eiz,1),%esi
    36f8:	8b 75 98             	mov    -0x68(%ebp),%esi
    36fb:	50                   	push   %eax
    36fc:	68 56 69 00 00       	push   $0x6956
    3701:	6a 04                	push   $0x4
    3703:	6a ff                	push   $0xffffffff
    3705:	e8 d6 3a 00 00       	call   71e0 <log_msg@plt>
    370a:	58                   	pop    %eax
    370b:	8d 85 7c ff ff ff    	lea    -0x84(%ebp),%eax
    3711:	5a                   	pop    %edx
    3712:	50                   	push   %eax
    3713:	8d 85 74 ff ff ff    	lea    -0x8c(%ebp),%eax
    3719:	c7 45 b8 00 00 00 00 	movl   $0x0,-0x48(%ebp)
    3720:	50                   	push   %eax
    3721:	e8 ea 3b 00 00       	call   7310 <async_data_read_receive@plt>
    3726:	83 c4 10             	add    $0x10,%esp
    3729:	84 c0                	test   %al,%al
    372b:	0f 85 9f 04 00 00    	jne    3bd0 <inet_cfg_conn+0x6e0>
    3731:	8b b5 74 ff ff ff    	mov    -0x8c(%ebp),%esi
    3737:	51                   	push   %ecx
    3738:	51                   	push   %ecx
    3739:	6a fc                	push   $0xfffffffc
    373b:	56                   	push   %esi
    373c:	eb 69                	jmp    37a7 <inet_cfg_conn+0x2b7>
    373e:	66 90                	xchg   %ax,%ax
    3740:	51                   	push   %ecx
    3741:	68 3f 69 00 00       	push   $0x693f
    3746:	6a 04                	push   $0x4
    3748:	6a ff                	push   $0xffffffff
    374a:	e8 91 3a 00 00       	call   71e0 <log_msg@plt>
    374f:	8b 7d 98             	mov    -0x68(%ebp),%edi
    3752:	5e                   	pop    %esi
    3753:	57                   	push   %edi
    3754:	e8 f7 f4 ff ff       	call   2c50 <inet_link_open>
    3759:	5a                   	pop    %edx
    375a:	59                   	pop    %ecx
    375b:	50                   	push   %eax
    375c:	53                   	push   %ebx
    375d:	e8 5e 3a 00 00       	call   71c0 <async_answer_0@plt>
    3762:	83 c4 10             	add    $0x10,%esp
    3765:	e9 b6 fd ff ff       	jmp    3520 <inet_cfg_conn+0x30>
    376a:	8d b6 00 00 00 00    	lea    0x0(%esi),%esi
    3770:	57                   	push   %edi
    3771:	68 21 69 00 00       	push   $0x6921
    3776:	6a 04                	push   $0x4
    3778:	6a ff                	push   $0xffffffff
    377a:	e8 61 3a 00 00       	call   71e0 <log_msg@plt>
    377f:	58                   	pop    %eax
    3780:	8d 45 80             	lea    -0x80(%ebp),%eax
    3783:	5a                   	pop    %edx
    3784:	50                   	push   %eax
    3785:	8d 85 78 ff ff ff    	lea    -0x88(%ebp),%eax
    378b:	50                   	push   %eax
    378c:	e8 7f 3b 00 00       	call   7310 <async_data_read_receive@plt>
    3791:	83 c4 10             	add    $0x10,%esp
    3794:	84 c0                	test   %al,%al
    3796:	0f 85 fc 04 00 00    	jne    3c98 <inet_cfg_conn+0x7a8>
    379c:	8b b5 78 ff ff ff    	mov    -0x88(%ebp),%esi
    37a2:	51                   	push   %ecx
    37a3:	51                   	push   %ecx
    37a4:	6a fc                	push   $0xfffffffc
    37a6:	56                   	push   %esi
    37a7:	e8 14 3a 00 00       	call   71c0 <async_answer_0@plt>
    37ac:	58                   	pop    %eax
    37ad:	5a                   	pop    %edx
    37ae:	6a fc                	push   $0xfffffffc
    37b0:	53                   	push   %ebx
    37b1:	e8 0a 3a 00 00       	call   71c0 <async_answer_0@plt>
    37b6:	83 c4 10             	add    $0x10,%esp
    37b9:	e9 62 fd ff ff       	jmp    3520 <inet_cfg_conn+0x30>
    37be:	66 90                	xchg   %ax,%ax
    37c0:	56                   	push   %esi
    37c1:	68 05 69 00 00       	push   $0x6905
    37c6:	6a 04                	push   $0x4
    37c8:	6a ff                	push   $0xffffffff
    37ca:	e8 11 3a 00 00       	call   71e0 <log_msg@plt>
    37cf:	5f                   	pop    %edi
    37d0:	58                   	pop    %eax
    37d1:	8d 45 80             	lea    -0x80(%ebp),%eax
    37d4:	50                   	push   %eax
    37d5:	8d 85 78 ff ff ff    	lea    -0x88(%ebp),%eax
    37db:	50                   	push   %eax
    37dc:	e8 2f 3b 00 00       	call   7310 <async_data_read_receive@plt>
    37e1:	83 c4 10             	add    $0x10,%esp
    37e4:	84 c0                	test   %al,%al
    37e6:	74 b4                	je     379c <inet_cfg_conn+0x2ac>
    37e8:	8d 85 7c ff ff ff    	lea    -0x84(%ebp),%eax
    37ee:	51                   	push   %ecx
    37ef:	51                   	push   %ecx
    37f0:	50                   	push   %eax
    37f1:	8d 45 b8             	lea    -0x48(%ebp),%eax
    37f4:	50                   	push   %eax
    37f5:	e8 56 fc ff ff       	call   3450 <inet_link_get_id_list>
    37fa:	83 c4 10             	add    $0x10,%esp
    37fd:	89 c6                	mov    %eax,%esi
    37ff:	85 c0                	test   %eax,%eax
    3801:	0f 85 94 00 00 00    	jne    389b <inet_cfg_conn+0x3ab>
    3807:	8b 85 7c ff ff ff    	mov    -0x84(%ebp),%eax
    380d:	8d 34 85 00 00 00 00 	lea    0x0(,%eax,4),%esi
    3814:	50                   	push   %eax
    3815:	8b 45 80             	mov    -0x80(%ebp),%eax
    3818:	39 f0                	cmp    %esi,%eax
    381a:	0f 87 b0 04 00 00    	ja     3cd0 <inet_cfg_conn+0x7e0>
    3820:	50                   	push   %eax
    3821:	8b 7d b8             	mov    -0x48(%ebp),%edi
    3824:	8b 85 78 ff ff ff    	mov    -0x88(%ebp),%eax
    382a:	57                   	push   %edi
    382b:	50                   	push   %eax
    382c:	e8 ef 38 00 00       	call   7120 <async_data_read_finalize@plt>
    3831:	89 c7                	mov    %eax,%edi
    3833:	58                   	pop    %eax
    3834:	8b 45 b8             	mov    -0x48(%ebp),%eax
    3837:	50                   	push   %eax
    3838:	e8 63 3c 00 00       	call   74a0 <free@plt>
    383d:	83 c4 0c             	add    $0xc,%esp
    3840:	56                   	push   %esi
    3841:	57                   	push   %edi
    3842:	53                   	push   %ebx
    3843:	e8 78 3b 00 00       	call   73c0 <async_answer_1@plt>
    3848:	83 c4 10             	add    $0x10,%esp
    384b:	e9 d0 fc ff ff       	jmp    3520 <inet_cfg_conn+0x30>
    3850:	50                   	push   %eax
    3851:	68 05 69 00 00       	push   $0x6905
    3856:	6a 04                	push   $0x4
    3858:	6a ff                	push   $0xffffffff
    385a:	e8 81 39 00 00       	call   71e0 <log_msg@plt>
    385f:	58                   	pop    %eax
    3860:	8d 45 80             	lea    -0x80(%ebp),%eax
    3863:	5a                   	pop    %edx
    3864:	50                   	push   %eax
    3865:	8d 85 78 ff ff ff    	lea    -0x88(%ebp),%eax
    386b:	50                   	push   %eax
    386c:	e8 9f 3a 00 00       	call   7310 <async_data_read_receive@plt>
    3871:	83 c4 10             	add    $0x10,%esp
    3874:	84 c0                	test   %al,%al
    3876:	0f 84 20 ff ff ff    	je     379c <inet_cfg_conn+0x2ac>
    387c:	50                   	push   %eax
    387d:	50                   	push   %eax
    387e:	8d 85 7c ff ff ff    	lea    -0x84(%ebp),%eax
    3884:	50                   	push   %eax
    3885:	8d 45 b8             	lea    -0x48(%ebp),%eax
    3888:	50                   	push   %eax
    3889:	e8 12 de ff ff       	call   16a0 <inet_addrobj_get_id_list>
    388e:	83 c4 10             	add    $0x10,%esp
    3891:	89 c6                	mov    %eax,%esi
    3893:	85 c0                	test   %eax,%eax
    3895:	0f 84 6c ff ff ff    	je     3807 <inet_cfg_conn+0x317>
    389b:	50                   	push   %eax
    389c:	50                   	push   %eax
    389d:	8b 85 78 ff ff ff    	mov    -0x88(%ebp),%eax
    38a3:	56                   	push   %esi
    38a4:	50                   	push   %eax
    38a5:	e8 16 39 00 00       	call   71c0 <async_answer_0@plt>
    38aa:	58                   	pop    %eax
    38ab:	5a                   	pop    %edx
    38ac:	56                   	push   %esi
    38ad:	53                   	push   %ebx
    38ae:	e8 0d 39 00 00       	call   71c0 <async_answer_0@plt>
    38b3:	83 c4 10             	add    $0x10,%esp
    38b6:	e9 65 fc ff ff       	jmp    3520 <inet_cfg_conn+0x30>
    38bb:	90                   	nop
    38bc:	8d 74 26 00          	lea    0x0(%esi,%eiz,1),%esi
    38c0:	56                   	push   %esi
    38c1:	68 bf 68 00 00       	push   $0x68bf
    38c6:	6a 04                	push   $0x4
    38c8:	6a ff                	push   $0xffffffff
    38ca:	e8 11 39 00 00       	call   71e0 <log_msg@plt>
    38cf:	5f                   	pop    %edi
    38d0:	58                   	pop    %eax
    38d1:	8d 45 b8             	lea    -0x48(%ebp),%eax
    38d4:	6a 00                	push   $0x0
    38d6:	8b 75 98             	mov    -0x68(%ebp),%esi
    38d9:	6a 00                	push   $0x0
    38db:	68 ff 00 00 00       	push   $0xff
    38e0:	6a 00                	push   $0x0
    38e2:	6a 01                	push   $0x1
    38e4:	50                   	push   %eax
    38e5:	e8 26 3b 00 00       	call   7410 <async_data_write_accept@plt>
    38ea:	83 c4 20             	add    $0x20,%esp
    38ed:	85 c0                	test   %eax,%eax
    38ef:	0f 85 67 fd ff ff    	jne    365c <inet_cfg_conn+0x16c>
    38f5:	83 ec 0c             	sub    $0xc,%esp
    38f8:	8b 7d b8             	mov    -0x48(%ebp),%edi
    38fb:	56                   	push   %esi
    38fc:	e8 cf fa ff ff       	call   33d0 <inet_link_get_by_id>
    3901:	83 c4 10             	add    $0x10,%esp
    3904:	85 c0                	test   %eax,%eax
    3906:	0f 84 47 08 00 00    	je     4153 <inet_cfg_conn+0xc63>
    390c:	51                   	push   %ecx
    390d:	51                   	push   %ecx
    390e:	50                   	push   %eax
    390f:	57                   	push   %edi
    3910:	e8 eb da ff ff       	call   1400 <inet_addrobj_find_by_name>
    3915:	83 c4 10             	add    $0x10,%esp
    3918:	85 c0                	test   %eax,%eax
    391a:	0f 84 3e 08 00 00    	je     415e <inet_cfg_conn+0xc6e>
    3920:	8b 78 08             	mov    0x8(%eax),%edi
    3923:	31 f6                	xor    %esi,%esi
    3925:	83 ec 0c             	sub    $0xc,%esp
    3928:	8b 45 b8             	mov    -0x48(%ebp),%eax
    392b:	50                   	push   %eax
    392c:	e8 6f 3b 00 00       	call   74a0 <free@plt>
    3931:	83 c4 0c             	add    $0xc,%esp
    3934:	57                   	push   %edi
    3935:	56                   	push   %esi
    3936:	53                   	push   %ebx
    3937:	e8 84 3a 00 00       	call   73c0 <async_answer_1@plt>
    393c:	83 c4 10             	add    $0x10,%esp
    393f:	e9 dc fb ff ff       	jmp    3520 <inet_cfg_conn+0x30>
    3944:	8d 74 26 00          	lea    0x0(%esi,%eiz,1),%esi
    3948:	51                   	push   %ecx
    3949:	68 a8 68 00 00       	push   $0x68a8
    394e:	6a 04                	push   $0x4
    3950:	6a ff                	push   $0xffffffff
    3952:	e8 89 38 00 00       	call   71e0 <log_msg@plt>
    3957:	8d 45 b8             	lea    -0x48(%ebp),%eax
    395a:	8b 75 98             	mov    -0x68(%ebp),%esi
    395d:	89 04 24             	mov    %eax,(%esp)
    3960:	e8 8b 38 00 00       	call   71f0 <inet_naddr_any@plt>
    3965:	89 34 24             	mov    %esi,(%esp)
    3968:	c7 45 d0 00 00 00 00 	movl   $0x0,-0x30(%ebp)
    396f:	c7 45 d4 00 00 00 00 	movl   $0x0,-0x2c(%ebp)
    3976:	e8 75 db ff ff       	call   14f0 <inet_addrobj_get_by_id>
    397b:	83 c4 10             	add    $0x10,%esp
    397e:	85 c0                	test   %eax,%eax
    3980:	0f 84 34 02 00 00    	je     3bba <inet_cfg_conn+0x6ca>
    3986:	8b 50 24             	mov    0x24(%eax),%edx
    3989:	83 ec 0c             	sub    $0xc,%esp
    398c:	8d 70 0c             	lea    0xc(%eax),%esi
    398f:	b9 06 00 00 00       	mov    $0x6,%ecx
    3994:	8b 52 08             	mov    0x8(%edx),%edx
    3997:	8b 40 28             	mov    0x28(%eax),%eax
    399a:	8d 7d b8             	lea    -0x48(%ebp),%edi
    399d:	f3 a5                	rep movsl %ds:(%esi),%es:(%edi)
    399f:	50                   	push   %eax
    39a0:	89 55 d0             	mov    %edx,-0x30(%ebp)
    39a3:	e8 08 39 00 00       	call   72b0 <str_dup@plt>
    39a8:	8d 7d 80             	lea    -0x80(%ebp),%edi
    39ab:	8d b5 7c ff ff ff    	lea    -0x84(%ebp),%esi
    39b1:	89 45 d4             	mov    %eax,-0x2c(%ebp)
    39b4:	58                   	pop    %eax
    39b5:	5a                   	pop    %edx
    39b6:	57                   	push   %edi
    39b7:	56                   	push   %esi
    39b8:	e8 53 39 00 00       	call   7310 <async_data_read_receive@plt>
    39bd:	83 c4 10             	add    $0x10,%esp
    39c0:	84 c0                	test   %al,%al
    39c2:	0f 84 f8 02 00 00    	je     3cc0 <inet_cfg_conn+0x7d0>
    39c8:	83 7d 80 18          	cmpl   $0x18,-0x80(%ebp)
    39cc:	0f 85 39 fc ff ff    	jne    360b <inet_cfg_conn+0x11b>
    39d2:	50                   	push   %eax
    39d3:	8d 45 b8             	lea    -0x48(%ebp),%eax
    39d6:	6a 18                	push   $0x18
    39d8:	50                   	push   %eax
    39d9:	8b 85 7c ff ff ff    	mov    -0x84(%ebp),%eax
    39df:	50                   	push   %eax
    39e0:	e8 3b 37 00 00       	call   7120 <async_data_read_finalize@plt>
    39e5:	83 c4 10             	add    $0x10,%esp
    39e8:	89 c2                	mov    %eax,%edx
    39ea:	85 c0                	test   %eax,%eax
    39ec:	0f 85 ee 03 00 00    	jne    3de0 <inet_cfg_conn+0x8f0>
    39f2:	50                   	push   %eax
    39f3:	50                   	push   %eax
    39f4:	57                   	push   %edi
    39f5:	56                   	push   %esi
    39f6:	e8 15 39 00 00       	call   7310 <async_data_read_receive@plt>
    39fb:	83 c4 10             	add    $0x10,%esp
    39fe:	84 c0                	test   %al,%al
    3a00:	0f 84 ba 02 00 00    	je     3cc0 <inet_cfg_conn+0x7d0>
    3a06:	83 ec 0c             	sub    $0xc,%esp
    3a09:	8b 45 d4             	mov    -0x2c(%ebp),%eax
    3a0c:	50                   	push   %eax
    3a0d:	e8 7e 39 00 00       	call   7390 <str_size@plt>
    3a12:	8b 55 80             	mov    -0x80(%ebp),%edx
    3a15:	83 c4 10             	add    $0x10,%esp
    3a18:	39 d0                	cmp    %edx,%eax
    3a1a:	0f 86 1d 07 00 00    	jbe    413d <inet_cfg_conn+0xc4d>
    3a20:	8b 8d 7c ff ff ff    	mov    -0x84(%ebp),%ecx
    3a26:	50                   	push   %eax
    3a27:	52                   	push   %edx
    3a28:	8b 55 d4             	mov    -0x2c(%ebp),%edx
    3a2b:	52                   	push   %edx
    3a2c:	51                   	push   %ecx
    3a2d:	e8 ee 36 00 00       	call   7120 <async_data_read_finalize@plt>
    3a32:	5f                   	pop    %edi
    3a33:	89 c6                	mov    %eax,%esi
    3a35:	8b 45 d4             	mov    -0x2c(%ebp),%eax
    3a38:	50                   	push   %eax
    3a39:	e8 62 3a 00 00       	call   74a0 <free@plt>
    3a3e:	83 c4 10             	add    $0x10,%esp
    3a41:	85 f6                	test   %esi,%esi
    3a43:	0f 84 df 06 00 00    	je     4128 <inet_cfg_conn+0xc38>
    3a49:	50                   	push   %eax
    3a4a:	50                   	push   %eax
    3a4b:	8b 85 7c ff ff ff    	mov    -0x84(%ebp),%eax
    3a51:	56                   	push   %esi
    3a52:	50                   	push   %eax
    3a53:	e8 68 37 00 00       	call   71c0 <async_answer_0@plt>
    3a58:	e9 4d fe ff ff       	jmp    38aa <inet_cfg_conn+0x3ba>
    3a5d:	8d 76 00             	lea    0x0(%esi),%esi
    3a60:	56                   	push   %esi
    3a61:	68 8e 68 00 00       	push   $0x688e
    3a66:	6a 04                	push   $0x4
    3a68:	6a ff                	push   $0xffffffff
    3a6a:	e8 71 37 00 00       	call   71e0 <log_msg@plt>
    3a6f:	8b 45 98             	mov    -0x68(%ebp),%eax
    3a72:	5f                   	pop    %edi
    3a73:	50                   	push   %eax
    3a74:	e8 77 da ff ff       	call   14f0 <inet_addrobj_get_by_id>
    3a79:	83 c4 10             	add    $0x10,%esp
    3a7c:	89 c6                	mov    %eax,%esi
    3a7e:	85 c0                	test   %eax,%eax
    3a80:	0f 84 a9 05 00 00    	je     402f <inet_cfg_conn+0xb3f>
    3a86:	83 ec 0c             	sub    $0xc,%esp
    3a89:	50                   	push   %eax
    3a8a:	e8 61 d8 ff ff       	call   12f0 <inet_addrobj_remove>
    3a8f:	89 34 24             	mov    %esi,(%esp)
    3a92:	e8 09 d7 ff ff       	call   11a0 <inet_addrobj_delete>
    3a97:	83 c4 10             	add    $0x10,%esp
    3a9a:	31 c0                	xor    %eax,%eax
    3a9c:	e9 bb fb ff ff       	jmp    365c <inet_cfg_conn+0x16c>
    3aa1:	8d b4 26 00 00 00 00 	lea    0x0(%esi,%eiz,1),%esi
    3aa8:	50                   	push   %eax
    3aa9:	68 14 6a 00 00       	push   $0x6a14
    3aae:	6a 04                	push   $0x4
    3ab0:	6a ff                	push   $0xffffffff
    3ab2:	e8 29 37 00 00       	call   71e0 <log_msg@plt>
    3ab7:	58                   	pop    %eax
    3ab8:	8d 85 78 ff ff ff    	lea    -0x88(%ebp),%eax
    3abe:	5a                   	pop    %edx
    3abf:	50                   	push   %eax
    3ac0:	8d 85 74 ff ff ff    	lea    -0x8c(%ebp),%eax
    3ac6:	50                   	push   %eax
    3ac7:	8b 75 98             	mov    -0x68(%ebp),%esi
    3aca:	e8 b1 39 00 00       	call   7480 <async_data_write_receive@plt>
    3acf:	83 c4 10             	add    $0x10,%esp
    3ad2:	84 c0                	test   %al,%al
    3ad4:	0f 84 ce fb ff ff    	je     36a8 <inet_cfg_conn+0x1b8>
    3ada:	83 bd 78 ff ff ff 18 	cmpl   $0x18,-0x88(%ebp)
    3ae1:	0f 85 c1 fb ff ff    	jne    36a8 <inet_cfg_conn+0x1b8>
    3ae7:	8b bd 74 ff ff ff    	mov    -0x8c(%ebp),%edi
    3aed:	8d 45 b8             	lea    -0x48(%ebp),%eax
    3af0:	51                   	push   %ecx
    3af1:	6a 18                	push   $0x18
    3af3:	50                   	push   %eax
    3af4:	57                   	push   %edi
    3af5:	e8 06 39 00 00       	call   7400 <async_data_write_finalize@plt>
    3afa:	83 c4 10             	add    $0x10,%esp
    3afd:	89 c7                	mov    %eax,%edi
    3aff:	85 c0                	test   %eax,%eax
    3b01:	0f 84 20 03 00 00    	je     3e27 <inet_cfg_conn+0x937>
    3b07:	50                   	push   %eax
    3b08:	50                   	push   %eax
    3b09:	8b 85 74 ff ff ff    	mov    -0x8c(%ebp),%eax
    3b0f:	57                   	push   %edi
    3b10:	50                   	push   %eax
    3b11:	e8 aa 36 00 00       	call   71c0 <async_answer_0@plt>
    3b16:	58                   	pop    %eax
    3b17:	5a                   	pop    %edx
    3b18:	57                   	push   %edi
    3b19:	53                   	push   %ebx
    3b1a:	e8 a1 36 00 00       	call   71c0 <async_answer_0@plt>
    3b1f:	83 c4 10             	add    $0x10,%esp
    3b22:	e9 f9 f9 ff ff       	jmp    3520 <inet_cfg_conn+0x30>
    3b27:	90                   	nop
    3b28:	51                   	push   %ecx
    3b29:	68 d8 69 00 00       	push   $0x69d8
    3b2e:	6a 04                	push   $0x4
    3b30:	6a ff                	push   $0xffffffff
    3b32:	e8 a9 36 00 00       	call   71e0 <log_msg@plt>
    3b37:	8d 45 b8             	lea    -0x48(%ebp),%eax
    3b3a:	5e                   	pop    %esi
    3b3b:	5f                   	pop    %edi
    3b3c:	6a 00                	push   $0x0
    3b3e:	6a 00                	push   $0x0
    3b40:	68 ff 00 00 00       	push   $0xff
    3b45:	6a 00                	push   $0x0
    3b47:	6a 01                	push   $0x1
    3b49:	50                   	push   %eax
    3b4a:	e8 c1 38 00 00       	call   7410 <async_data_write_accept@plt>
    3b4f:	83 c4 20             	add    $0x20,%esp
    3b52:	85 c0                	test   %eax,%eax
    3b54:	0f 85 02 fb ff ff    	jne    365c <inet_cfg_conn+0x16c>
    3b5a:	83 ec 0c             	sub    $0xc,%esp
    3b5d:	8b 75 b8             	mov    -0x48(%ebp),%esi
    3b60:	56                   	push   %esi
    3b61:	e8 4a 24 00 00       	call   5fb0 <inet_sroute_find_by_name>
    3b66:	83 c4 10             	add    $0x10,%esp
    3b69:	85 c0                	test   %eax,%eax
    3b6b:	0f 85 af fd ff ff    	jne    3920 <inet_cfg_conn+0x430>
    3b71:	56                   	push   %esi
    3b72:	68 f4 69 00 00       	push   $0x69f4
    3b77:	6a 04                	push   $0x4
    3b79:	6a ff                	push   $0xffffffff
    3b7b:	83 ce ff             	or     $0xffffffff,%esi
    3b7e:	e8 5d 36 00 00       	call   71e0 <log_msg@plt>
    3b83:	31 ff                	xor    %edi,%edi
    3b85:	83 c4 10             	add    $0x10,%esp
    3b88:	e9 98 fd ff ff       	jmp    3925 <inet_cfg_conn+0x435>
    3b8d:	8d 76 00             	lea    0x0(%esi),%esi
    3b90:	51                   	push   %ecx
    3b91:	51                   	push   %ecx
    3b92:	6a 00                	push   $0x0
    3b94:	53                   	push   %ebx
    3b95:	e8 26 36 00 00       	call   71c0 <async_answer_0@plt>
    3b9a:	8d 65 f4             	lea    -0xc(%ebp),%esp
    3b9d:	5b                   	pop    %ebx
    3b9e:	5e                   	pop    %esi
    3b9f:	5f                   	pop    %edi
    3ba0:	5d                   	pop    %ebp
    3ba1:	c3                   	ret    
    3ba2:	8d b6 00 00 00 00    	lea    0x0(%esi),%esi
    3ba8:	51                   	push   %ecx
    3ba9:	51                   	push   %ecx
    3baa:	6a f2                	push   $0xfffffff2
    3bac:	53                   	push   %ebx
    3bad:	e8 0e 36 00 00       	call   71c0 <async_answer_0@plt>
    3bb2:	83 c4 10             	add    $0x10,%esp
    3bb5:	e9 66 f9 ff ff       	jmp    3520 <inet_cfg_conn+0x30>
    3bba:	50                   	push   %eax
    3bbb:	50                   	push   %eax
    3bbc:	6a ff                	push   $0xffffffff
    3bbe:	53                   	push   %ebx
    3bbf:	e8 fc 35 00 00       	call   71c0 <async_answer_0@plt>
    3bc4:	83 c4 10             	add    $0x10,%esp
    3bc7:	e9 54 f9 ff ff       	jmp    3520 <inet_cfg_conn+0x30>
    3bcc:	8d 74 26 00          	lea    0x0(%esi,%eiz,1),%esi
    3bd0:	8d 45 80             	lea    -0x80(%ebp),%eax
    3bd3:	57                   	push   %edi
    3bd4:	57                   	push   %edi
    3bd5:	50                   	push   %eax
    3bd6:	8d 85 78 ff ff ff    	lea    -0x88(%ebp),%eax
    3bdc:	50                   	push   %eax
    3bdd:	e8 2e 37 00 00       	call   7310 <async_data_read_receive@plt>
    3be2:	83 c4 10             	add    $0x10,%esp
    3be5:	84 c0                	test   %al,%al
    3be7:	0f 84 44 fb ff ff    	je     3731 <inet_cfg_conn+0x241>
    3bed:	83 ec 0c             	sub    $0xc,%esp
    3bf0:	56                   	push   %esi
    3bf1:	e8 da f7 ff ff       	call   33d0 <inet_link_get_by_id>
    3bf6:	83 c4 10             	add    $0x10,%esp
    3bf9:	89 c6                	mov    %eax,%esi
    3bfb:	85 c0                	test   %eax,%eax
    3bfd:	0f 84 f2 01 00 00    	je     3df5 <inet_cfg_conn+0x905>
    3c03:	83 ec 0c             	sub    $0xc,%esp
    3c06:	8b 50 0c             	mov    0xc(%eax),%edx
    3c09:	52                   	push   %edx
    3c0a:	e8 a1 36 00 00       	call   72b0 <str_dup@plt>
    3c0f:	89 45 b8             	mov    %eax,-0x48(%ebp)
    3c12:	8b 46 18             	mov    0x18(%esi),%eax
    3c15:	83 c4 10             	add    $0x10,%esp
    3c18:	89 45 bc             	mov    %eax,-0x44(%ebp)
    3c1b:	80 7e 22 00          	cmpb   $0x0,0x22(%esi)
    3c1f:	0f 85 9f 03 00 00    	jne    3fc4 <inet_cfg_conn+0xad4>
    3c25:	8d 7d c0             	lea    -0x40(%ebp),%edi
    3c28:	50                   	push   %eax
    3c29:	6a 06                	push   $0x6
    3c2b:	6a 00                	push   $0x0
    3c2d:	57                   	push   %edi
    3c2e:	e8 cd 36 00 00       	call   7300 <memset@plt>
    3c33:	83 c4 10             	add    $0x10,%esp
    3c36:	83 ec 0c             	sub    $0xc,%esp
    3c39:	8b 55 b8             	mov    -0x48(%ebp),%edx
    3c3c:	52                   	push   %edx
    3c3d:	e8 4e 37 00 00       	call   7390 <str_size@plt>
    3c42:	8b 95 7c ff ff ff    	mov    -0x84(%ebp),%edx
    3c48:	83 c4 10             	add    $0x10,%esp
    3c4b:	39 d0                	cmp    %edx,%eax
    3c4d:	0f 86 c6 03 00 00    	jbe    4019 <inet_cfg_conn+0xb29>
    3c53:	50                   	push   %eax
    3c54:	8b 45 b8             	mov    -0x48(%ebp),%eax
    3c57:	52                   	push   %edx
    3c58:	50                   	push   %eax
    3c59:	8b 85 74 ff ff ff    	mov    -0x8c(%ebp),%eax
    3c5f:	50                   	push   %eax
    3c60:	e8 bb 34 00 00       	call   7120 <async_data_read_finalize@plt>
    3c65:	83 c4 10             	add    $0x10,%esp
    3c68:	89 c6                	mov    %eax,%esi
    3c6a:	85 c0                	test   %eax,%eax
    3c6c:	0f 84 69 03 00 00    	je     3fdb <inet_cfg_conn+0xaeb>
    3c72:	83 ec 0c             	sub    $0xc,%esp
    3c75:	8b 45 b8             	mov    -0x48(%ebp),%eax
    3c78:	50                   	push   %eax
    3c79:	e8 22 38 00 00       	call   74a0 <free@plt>
    3c7e:	8b bd 78 ff ff ff    	mov    -0x88(%ebp),%edi
    3c84:	5a                   	pop    %edx
    3c85:	59                   	pop    %ecx
    3c86:	56                   	push   %esi
    3c87:	57                   	push   %edi
    3c88:	e8 33 35 00 00       	call   71c0 <async_answer_0@plt>
    3c8d:	e9 18 fc ff ff       	jmp    38aa <inet_cfg_conn+0x3ba>
    3c92:	8d b6 00 00 00 00    	lea    0x0(%esi),%esi
    3c98:	8d 85 7c ff ff ff    	lea    -0x84(%ebp),%eax
    3c9e:	52                   	push   %edx
    3c9f:	52                   	push   %edx
    3ca0:	50                   	push   %eax
    3ca1:	8d 45 b8             	lea    -0x48(%ebp),%eax
    3ca4:	50                   	push   %eax
    3ca5:	e8 46 24 00 00       	call   60f0 <inet_sroute_get_id_list>
    3caa:	83 c4 10             	add    $0x10,%esp
    3cad:	89 c6                	mov    %eax,%esi
    3caf:	85 c0                	test   %eax,%eax
    3cb1:	0f 85 e4 fb ff ff    	jne    389b <inet_cfg_conn+0x3ab>
    3cb7:	e9 4b fb ff ff       	jmp    3807 <inet_cfg_conn+0x317>
    3cbc:	8d 74 26 00          	lea    0x0(%esi,%eiz,1),%esi
    3cc0:	8b b5 7c ff ff ff    	mov    -0x84(%ebp),%esi
    3cc6:	51                   	push   %ecx
    3cc7:	51                   	push   %ecx
    3cc8:	6a fc                	push   $0xfffffffc
    3cca:	56                   	push   %esi
    3ccb:	e9 d7 fa ff ff       	jmp    37a7 <inet_cfg_conn+0x2b7>
    3cd0:	89 f0                	mov    %esi,%eax
    3cd2:	e9 49 fb ff ff       	jmp    3820 <inet_cfg_conn+0x330>
    3cd7:	90                   	nop
    3cd8:	50                   	push   %eax
    3cd9:	8d 45 b8             	lea    -0x48(%ebp),%eax
    3cdc:	6a 18                	push   $0x18
    3cde:	50                   	push   %eax
    3cdf:	8b 85 74 ff ff ff    	mov    -0x8c(%ebp),%eax
    3ce5:	50                   	push   %eax
    3ce6:	e8 15 37 00 00       	call   7400 <async_data_write_finalize@plt>
    3ceb:	83 c4 10             	add    $0x10,%esp
    3cee:	85 c0                	test   %eax,%eax
    3cf0:	0f 84 79 02 00 00    	je     3f6f <inet_cfg_conn+0xa7f>
    3cf6:	8b bd 74 ff ff ff    	mov    -0x8c(%ebp),%edi
    3cfc:	89 85 64 ff ff ff    	mov    %eax,-0x9c(%ebp)
    3d02:	56                   	push   %esi
    3d03:	56                   	push   %esi
    3d04:	50                   	push   %eax
    3d05:	57                   	push   %edi
    3d06:	e8 b5 34 00 00       	call   71c0 <async_answer_0@plt>
    3d0b:	5a                   	pop    %edx
    3d0c:	8b 95 64 ff ff ff    	mov    -0x9c(%ebp),%edx
    3d12:	59                   	pop    %ecx
    3d13:	52                   	push   %edx
    3d14:	53                   	push   %ebx
    3d15:	e8 a6 34 00 00       	call   71c0 <async_answer_0@plt>
    3d1a:	83 c4 10             	add    $0x10,%esp
    3d1d:	e9 fe f7 ff ff       	jmp    3520 <inet_cfg_conn+0x30>
    3d22:	8d 45 b8             	lea    -0x48(%ebp),%eax
    3d25:	8b 8d 7c ff ff ff    	mov    -0x84(%ebp),%ecx
    3d2b:	52                   	push   %edx
    3d2c:	6a 18                	push   $0x18
    3d2e:	50                   	push   %eax
    3d2f:	51                   	push   %ecx
    3d30:	e8 eb 33 00 00       	call   7120 <async_data_read_finalize@plt>
    3d35:	83 c4 10             	add    $0x10,%esp
    3d38:	89 c2                	mov    %eax,%edx
    3d3a:	85 c0                	test   %eax,%eax
    3d3c:	0f 85 9e 00 00 00    	jne    3de0 <inet_cfg_conn+0x8f0>
    3d42:	50                   	push   %eax
    3d43:	50                   	push   %eax
    3d44:	57                   	push   %edi
    3d45:	56                   	push   %esi
    3d46:	e8 c5 35 00 00       	call   7310 <async_data_read_receive@plt>
    3d4b:	83 c4 10             	add    $0x10,%esp
    3d4e:	84 c0                	test   %al,%al
    3d50:	0f 84 6a ff ff ff    	je     3cc0 <inet_cfg_conn+0x7d0>
    3d56:	83 7d 80 14          	cmpl   $0x14,-0x80(%ebp)
    3d5a:	0f 85 ab f8 ff ff    	jne    360b <inet_cfg_conn+0x11b>
    3d60:	50                   	push   %eax
    3d61:	8d 45 d0             	lea    -0x30(%ebp),%eax
    3d64:	6a 14                	push   $0x14
    3d66:	50                   	push   %eax
    3d67:	8b 85 7c ff ff ff    	mov    -0x84(%ebp),%eax
    3d6d:	50                   	push   %eax
    3d6e:	e8 ad 33 00 00       	call   7120 <async_data_read_finalize@plt>
    3d73:	83 c4 10             	add    $0x10,%esp
    3d76:	89 c2                	mov    %eax,%edx
    3d78:	85 c0                	test   %eax,%eax
    3d7a:	75 64                	jne    3de0 <inet_cfg_conn+0x8f0>
    3d7c:	50                   	push   %eax
    3d7d:	50                   	push   %eax
    3d7e:	57                   	push   %edi
    3d7f:	56                   	push   %esi
    3d80:	e8 8b 35 00 00       	call   7310 <async_data_read_receive@plt>
    3d85:	83 c4 10             	add    $0x10,%esp
    3d88:	84 c0                	test   %al,%al
    3d8a:	0f 84 30 ff ff ff    	je     3cc0 <inet_cfg_conn+0x7d0>
    3d90:	83 ec 0c             	sub    $0xc,%esp
    3d93:	8b 45 e4             	mov    -0x1c(%ebp),%eax
    3d96:	50                   	push   %eax
    3d97:	e8 f4 35 00 00       	call   7390 <str_size@plt>
    3d9c:	8b 55 80             	mov    -0x80(%ebp),%edx
    3d9f:	83 c4 10             	add    $0x10,%esp
    3da2:	39 d0                	cmp    %edx,%eax
    3da4:	77 11                	ja     3db7 <inet_cfg_conn+0x8c7>
    3da6:	83 ec 0c             	sub    $0xc,%esp
    3da9:	8b 45 e4             	mov    -0x1c(%ebp),%eax
    3dac:	50                   	push   %eax
    3dad:	e8 de 35 00 00       	call   7390 <str_size@plt>
    3db2:	83 c4 10             	add    $0x10,%esp
    3db5:	89 c2                	mov    %eax,%edx
    3db7:	8b 75 e4             	mov    -0x1c(%ebp),%esi
    3dba:	8b bd 7c ff ff ff    	mov    -0x84(%ebp),%edi
    3dc0:	51                   	push   %ecx
    3dc1:	52                   	push   %edx
    3dc2:	56                   	push   %esi
    3dc3:	57                   	push   %edi
    3dc4:	e8 57 33 00 00       	call   7120 <async_data_read_finalize@plt>
    3dc9:	89 c6                	mov    %eax,%esi
    3dcb:	58                   	pop    %eax
    3dcc:	8b 45 e4             	mov    -0x1c(%ebp),%eax
    3dcf:	50                   	push   %eax
    3dd0:	e8 cb 36 00 00       	call   74a0 <free@plt>
    3dd5:	e9 d0 fa ff ff       	jmp    38aa <inet_cfg_conn+0x3ba>
    3dda:	8d b6 00 00 00 00    	lea    0x0(%esi),%esi
    3de0:	50                   	push   %eax
    3de1:	50                   	push   %eax
    3de2:	8b 85 7c ff ff ff    	mov    -0x84(%ebp),%eax
    3de8:	52                   	push   %edx
    3de9:	89 95 64 ff ff ff    	mov    %edx,-0x9c(%ebp)
    3def:	50                   	push   %eax
    3df0:	e9 11 ff ff ff       	jmp    3d06 <inet_cfg_conn+0x816>
    3df5:	8b b5 78 ff ff ff    	mov    -0x88(%ebp),%esi
    3dfb:	51                   	push   %ecx
    3dfc:	51                   	push   %ecx
    3dfd:	6a ff                	push   $0xffffffff
    3dff:	56                   	push   %esi
    3e00:	e8 bb 33 00 00       	call   71c0 <async_answer_0@plt>
    3e05:	5f                   	pop    %edi
    3e06:	58                   	pop    %eax
    3e07:	8b 85 74 ff ff ff    	mov    -0x8c(%ebp),%eax
    3e0d:	6a ff                	push   $0xffffffff
    3e0f:	50                   	push   %eax
    3e10:	e8 ab 33 00 00       	call   71c0 <async_answer_0@plt>
    3e15:	58                   	pop    %eax
    3e16:	5a                   	pop    %edx
    3e17:	6a ff                	push   $0xffffffff
    3e19:	53                   	push   %ebx
    3e1a:	e8 a1 33 00 00       	call   71c0 <async_answer_0@plt>
    3e1f:	83 c4 10             	add    $0x10,%esp
    3e22:	e9 f9 f6 ff ff       	jmp    3520 <inet_cfg_conn+0x30>
    3e27:	50                   	push   %eax
    3e28:	50                   	push   %eax
    3e29:	8d 85 7c ff ff ff    	lea    -0x84(%ebp),%eax
    3e2f:	6a 00                	push   $0x0
    3e31:	6a 00                	push   $0x0
    3e33:	68 ff 00 00 00       	push   $0xff
    3e38:	6a 00                	push   $0x0
    3e3a:	6a 01                	push   $0x1
    3e3c:	50                   	push   %eax
    3e3d:	e8 ce 35 00 00       	call   7410 <async_data_write_accept@plt>
    3e42:	83 c4 20             	add    $0x20,%esp
    3e45:	85 c0                	test   %eax,%eax
    3e47:	0f 85 0f f8 ff ff    	jne    365c <inet_cfg_conn+0x16c>
    3e4d:	83 ec 0c             	sub    $0xc,%esp
    3e50:	8b 85 7c ff ff ff    	mov    -0x84(%ebp),%eax
    3e56:	89 85 60 ff ff ff    	mov    %eax,-0xa0(%ebp)
    3e5c:	56                   	push   %esi
    3e5d:	e8 6e f5 ff ff       	call   33d0 <inet_link_get_by_id>
    3e62:	83 c4 10             	add    $0x10,%esp
    3e65:	89 85 64 ff ff ff    	mov    %eax,-0x9c(%ebp)
    3e6b:	85 c0                	test   %eax,%eax
    3e6d:	0f 84 09 03 00 00    	je     417c <inet_cfg_conn+0xc8c>
    3e73:	e8 b8 d2 ff ff       	call   1130 <inet_addrobj_new>
    3e78:	89 c2                	mov    %eax,%edx
    3e7a:	85 c0                	test   %eax,%eax
    3e7c:	0f 84 f0 02 00 00    	je     4172 <inet_cfg_conn+0xc82>
    3e82:	8d 78 0c             	lea    0xc(%eax),%edi
    3e85:	b9 06 00 00 00       	mov    $0x6,%ecx
    3e8a:	8d 75 b8             	lea    -0x48(%ebp),%esi
    3e8d:	89 bd 58 ff ff ff    	mov    %edi,-0xa8(%ebp)
    3e93:	f3 a5                	rep movsl %ds:(%esi),%es:(%edi)
    3e95:	83 ec 0c             	sub    $0xc,%esp
    3e98:	8b 85 64 ff ff ff    	mov    -0x9c(%ebp),%eax
    3e9e:	89 42 24             	mov    %eax,0x24(%edx)
    3ea1:	8b bd 60 ff ff ff    	mov    -0xa0(%ebp),%edi
    3ea7:	57                   	push   %edi
    3ea8:	89 95 5c ff ff ff    	mov    %edx,-0xa4(%ebp)
    3eae:	e8 fd 33 00 00       	call   72b0 <str_dup@plt>
    3eb3:	8b 95 5c ff ff ff    	mov    -0xa4(%ebp),%edx
    3eb9:	89 95 60 ff ff ff    	mov    %edx,-0xa0(%ebp)
    3ebf:	89 42 28             	mov    %eax,0x28(%edx)
    3ec2:	89 14 24             	mov    %edx,(%esp)
    3ec5:	e8 06 d3 ff ff       	call   11d0 <inet_addrobj_add>
    3eca:	83 c4 10             	add    $0x10,%esp
    3ecd:	8b 95 60 ff ff ff    	mov    -0xa0(%ebp),%edx
    3ed3:	85 c0                	test   %eax,%eax
    3ed5:	0f 85 5c 01 00 00    	jne    4037 <inet_cfg_conn+0xb47>
    3edb:	8d 75 80             	lea    -0x80(%ebp),%esi
    3ede:	50                   	push   %eax
    3edf:	50                   	push   %eax
    3ee0:	8b 85 58 ff ff ff    	mov    -0xa8(%ebp),%eax
    3ee6:	56                   	push   %esi
    3ee7:	89 95 60 ff ff ff    	mov    %edx,-0xa0(%ebp)
    3eed:	50                   	push   %eax
    3eee:	e8 6d 32 00 00       	call   7160 <inet_naddr_addr@plt>
    3ef3:	58                   	pop    %eax
    3ef4:	8b 85 64 ff ff ff    	mov    -0x9c(%ebp),%eax
    3efa:	5a                   	pop    %edx
    3efb:	56                   	push   %esi
    3efc:	8b 48 14             	mov    0x14(%eax),%ecx
    3eff:	31 f6                	xor    %esi,%esi
    3f01:	51                   	push   %ecx
    3f02:	e8 39 34 00 00       	call   7340 <iplink_addr_add@plt>
    3f07:	83 c4 10             	add    $0x10,%esp
    3f0a:	89 c7                	mov    %eax,%edi
    3f0c:	85 c0                	test   %eax,%eax
    3f0e:	8b 95 60 ff ff ff    	mov    -0xa0(%ebp),%edx
    3f14:	74 36                	je     3f4c <inet_cfg_conn+0xa5c>
    3f16:	89 95 64 ff ff ff    	mov    %edx,-0x9c(%ebp)
    3f1c:	50                   	push   %eax
    3f1d:	68 38 6a 00 00       	push   $0x6a38
    3f22:	6a 01                	push   $0x1
    3f24:	6a ff                	push   $0xffffffff
    3f26:	e8 b5 32 00 00       	call   71e0 <log_msg@plt>
    3f2b:	8b 95 64 ff ff ff    	mov    -0x9c(%ebp),%edx
    3f31:	89 fe                	mov    %edi,%esi
    3f33:	89 14 24             	mov    %edx,(%esp)
    3f36:	e8 b5 d3 ff ff       	call   12f0 <inet_addrobj_remove>
    3f3b:	8b 95 64 ff ff ff    	mov    -0x9c(%ebp),%edx
    3f41:	89 14 24             	mov    %edx,(%esp)
    3f44:	e8 57 d2 ff ff       	call   11a0 <inet_addrobj_delete>
    3f49:	83 c4 10             	add    $0x10,%esp
    3f4c:	83 ec 0c             	sub    $0xc,%esp
    3f4f:	8b 85 7c ff ff ff    	mov    -0x84(%ebp),%eax
    3f55:	50                   	push   %eax
    3f56:	e8 45 35 00 00       	call   74a0 <free@plt>
    3f5b:	83 c4 0c             	add    $0xc,%esp
    3f5e:	6a 00                	push   $0x0
    3f60:	56                   	push   %esi
    3f61:	53                   	push   %ebx
    3f62:	e8 59 34 00 00       	call   73c0 <async_answer_1@plt>
    3f67:	83 c4 10             	add    $0x10,%esp
    3f6a:	e9 b1 f5 ff ff       	jmp    3520 <inet_cfg_conn+0x30>
    3f6f:	50                   	push   %eax
    3f70:	50                   	push   %eax
    3f71:	57                   	push   %edi
    3f72:	56                   	push   %esi
    3f73:	e8 08 35 00 00       	call   7480 <async_data_write_receive@plt>
    3f78:	83 c4 10             	add    $0x10,%esp
    3f7b:	84 c0                	test   %al,%al
    3f7d:	0f 84 25 f7 ff ff    	je     36a8 <inet_cfg_conn+0x1b8>
    3f83:	83 bd 78 ff ff ff 14 	cmpl   $0x14,-0x88(%ebp)
    3f8a:	0f 85 18 f7 ff ff    	jne    36a8 <inet_cfg_conn+0x1b8>
    3f90:	50                   	push   %eax
    3f91:	8d 45 80             	lea    -0x80(%ebp),%eax
    3f94:	6a 14                	push   $0x14
    3f96:	50                   	push   %eax
    3f97:	8b 85 74 ff ff ff    	mov    -0x8c(%ebp),%eax
    3f9d:	50                   	push   %eax
    3f9e:	e8 5d 34 00 00       	call   7400 <async_data_write_finalize@plt>
    3fa3:	83 c4 10             	add    $0x10,%esp
    3fa6:	89 c6                	mov    %eax,%esi
    3fa8:	85 c0                	test   %eax,%eax
    3faa:	0f 84 c3 00 00 00    	je     4073 <inet_cfg_conn+0xb83>
    3fb0:	57                   	push   %edi
    3fb1:	57                   	push   %edi
    3fb2:	50                   	push   %eax
    3fb3:	8b 85 74 ff ff ff    	mov    -0x8c(%ebp),%eax
    3fb9:	50                   	push   %eax
    3fba:	e8 01 32 00 00       	call   71c0 <async_answer_0@plt>
    3fbf:	e9 e6 f8 ff ff       	jmp    38aa <inet_cfg_conn+0x3ba>
    3fc4:	8d 7d c0             	lea    -0x40(%ebp),%edi
    3fc7:	83 c6 1c             	add    $0x1c,%esi
    3fca:	50                   	push   %eax
    3fcb:	50                   	push   %eax
    3fcc:	57                   	push   %edi
    3fcd:	56                   	push   %esi
    3fce:	e8 0d 34 00 00       	call   73e0 <addr48@plt>
    3fd3:	83 c4 10             	add    $0x10,%esp
    3fd6:	e9 5b fc ff ff       	jmp    3c36 <inet_cfg_conn+0x746>
    3fdb:	50                   	push   %eax
    3fdc:	8b 45 80             	mov    -0x80(%ebp),%eax
    3fdf:	83 f8 06             	cmp    $0x6,%eax
    3fe2:	76 05                	jbe    3fe9 <inet_cfg_conn+0xaf9>
    3fe4:	b8 06 00 00 00       	mov    $0x6,%eax
    3fe9:	50                   	push   %eax
    3fea:	8b 85 78 ff ff ff    	mov    -0x88(%ebp),%eax
    3ff0:	57                   	push   %edi
    3ff1:	50                   	push   %eax
    3ff2:	e8 29 31 00 00       	call   7120 <async_data_read_finalize@plt>
    3ff7:	89 c6                	mov    %eax,%esi
    3ff9:	58                   	pop    %eax
    3ffa:	8b 45 b8             	mov    -0x48(%ebp),%eax
    3ffd:	50                   	push   %eax
    3ffe:	e8 9d 34 00 00       	call   74a0 <free@plt>
    4003:	83 c4 0c             	add    $0xc,%esp
    4006:	8b 45 bc             	mov    -0x44(%ebp),%eax
    4009:	50                   	push   %eax
    400a:	56                   	push   %esi
    400b:	53                   	push   %ebx
    400c:	e8 af 33 00 00       	call   73c0 <async_answer_1@plt>
    4011:	83 c4 10             	add    $0x10,%esp
    4014:	e9 07 f5 ff ff       	jmp    3520 <inet_cfg_conn+0x30>
    4019:	83 ec 0c             	sub    $0xc,%esp
    401c:	8b 45 b8             	mov    -0x48(%ebp),%eax
    401f:	50                   	push   %eax
    4020:	e8 6b 33 00 00       	call   7390 <str_size@plt>
    4025:	83 c4 10             	add    $0x10,%esp
    4028:	89 c2                	mov    %eax,%edx
    402a:	e9 24 fc ff ff       	jmp    3c53 <inet_cfg_conn+0x763>
    402f:	83 c8 ff             	or     $0xffffffff,%eax
    4032:	e9 25 f6 ff ff       	jmp    365c <inet_cfg_conn+0x16c>
    4037:	8b 72 28             	mov    0x28(%edx),%esi
    403a:	89 85 60 ff ff ff    	mov    %eax,-0xa0(%ebp)
    4040:	56                   	push   %esi
    4041:	89 95 64 ff ff ff    	mov    %edx,-0x9c(%ebp)
    4047:	68 71 68 00 00       	push   $0x6871
    404c:	6a 04                	push   $0x4
    404e:	6a ff                	push   $0xffffffff
    4050:	e8 8b 31 00 00       	call   71e0 <log_msg@plt>
    4055:	8b 95 64 ff ff ff    	mov    -0x9c(%ebp),%edx
    405b:	89 14 24             	mov    %edx,(%esp)
    405e:	e8 3d d1 ff ff       	call   11a0 <inet_addrobj_delete>
    4063:	8b 85 60 ff ff ff    	mov    -0xa0(%ebp),%eax
    4069:	83 c4 10             	add    $0x10,%esp
    406c:	89 c6                	mov    %eax,%esi
    406e:	e9 d9 fe ff ff       	jmp    3f4c <inet_cfg_conn+0xa5c>
    4073:	8d 85 7c ff ff ff    	lea    -0x84(%ebp),%eax
    4079:	51                   	push   %ecx
    407a:	51                   	push   %ecx
    407b:	6a 00                	push   $0x0
    407d:	6a 00                	push   $0x0
    407f:	68 ff 00 00 00       	push   $0xff
    4084:	6a 00                	push   $0x0
    4086:	6a 01                	push   $0x1
    4088:	50                   	push   %eax
    4089:	e8 82 33 00 00       	call   7410 <async_data_write_accept@plt>
    408e:	83 c4 20             	add    $0x20,%esp
    4091:	85 c0                	test   %eax,%eax
    4093:	0f 85 c3 f5 ff ff    	jne    365c <inet_cfg_conn+0x16c>
    4099:	8b 85 7c ff ff ff    	mov    -0x84(%ebp),%eax
    409f:	89 85 64 ff ff ff    	mov    %eax,-0x9c(%ebp)
    40a5:	e8 c6 1c 00 00       	call   5d70 <inet_sroute_new>
    40aa:	89 c2                	mov    %eax,%edx
    40ac:	85 c0                	test   %eax,%eax
    40ae:	0f 84 b5 00 00 00    	je     4169 <inet_cfg_conn+0xc79>
    40b4:	8d 78 0c             	lea    0xc(%eax),%edi
    40b7:	b9 06 00 00 00       	mov    $0x6,%ecx
    40bc:	8d 75 b8             	lea    -0x48(%ebp),%esi
    40bf:	8b 45 80             	mov    -0x80(%ebp),%eax
    40c2:	f3 a5                	rep movsl %ds:(%esi),%es:(%edi)
    40c4:	89 42 24             	mov    %eax,0x24(%edx)
    40c7:	83 ec 0c             	sub    $0xc,%esp
    40ca:	8b 45 84             	mov    -0x7c(%ebp),%eax
    40cd:	89 95 60 ff ff ff    	mov    %edx,-0xa0(%ebp)
    40d3:	89 42 28             	mov    %eax,0x28(%edx)
    40d6:	31 f6                	xor    %esi,%esi
    40d8:	8b 45 88             	mov    -0x78(%ebp),%eax
    40db:	89 42 2c             	mov    %eax,0x2c(%edx)
    40de:	8b 45 8c             	mov    -0x74(%ebp),%eax
    40e1:	89 42 30             	mov    %eax,0x30(%edx)
    40e4:	8b 45 90             	mov    -0x70(%ebp),%eax
    40e7:	89 42 34             	mov    %eax,0x34(%edx)
    40ea:	8b 95 64 ff ff ff    	mov    -0x9c(%ebp),%edx
    40f0:	52                   	push   %edx
    40f1:	e8 ba 31 00 00       	call   72b0 <str_dup@plt>
    40f6:	8b 95 60 ff ff ff    	mov    -0xa0(%ebp),%edx
    40fc:	89 95 64 ff ff ff    	mov    %edx,-0x9c(%ebp)
    4102:	89 42 38             	mov    %eax,0x38(%edx)
    4105:	89 14 24             	mov    %edx,(%esp)
    4108:	e8 03 1d 00 00       	call   5e10 <inet_sroute_add>
    410d:	8b 95 64 ff ff ff    	mov    -0x9c(%ebp),%edx
    4113:	83 c4 10             	add    $0x10,%esp
    4116:	8b 7a 08             	mov    0x8(%edx),%edi
    4119:	83 ec 0c             	sub    $0xc,%esp
    411c:	8b 85 7c ff ff ff    	mov    -0x84(%ebp),%eax
    4122:	50                   	push   %eax
    4123:	e9 04 f8 ff ff       	jmp    392c <inet_cfg_conn+0x43c>
    4128:	50                   	push   %eax
    4129:	8b 45 d0             	mov    -0x30(%ebp),%eax
    412c:	50                   	push   %eax
    412d:	6a 00                	push   $0x0
    412f:	53                   	push   %ebx
    4130:	e8 8b 32 00 00       	call   73c0 <async_answer_1@plt>
    4135:	83 c4 10             	add    $0x10,%esp
    4138:	e9 e3 f3 ff ff       	jmp    3520 <inet_cfg_conn+0x30>
    413d:	83 ec 0c             	sub    $0xc,%esp
    4140:	8b 45 d4             	mov    -0x2c(%ebp),%eax
    4143:	50                   	push   %eax
    4144:	e8 47 32 00 00       	call   7390 <str_size@plt>
    4149:	83 c4 10             	add    $0x10,%esp
    414c:	89 c2                	mov    %eax,%edx
    414e:	e9 cd f8 ff ff       	jmp    3a20 <inet_cfg_conn+0x530>
    4153:	56                   	push   %esi
    4154:	68 d9 68 00 00       	push   $0x68d9
    4159:	e9 19 fa ff ff       	jmp    3b77 <inet_cfg_conn+0x687>
    415e:	57                   	push   %edi
    415f:	68 ed 68 00 00       	push   $0x68ed
    4164:	e9 0e fa ff ff       	jmp    3b77 <inet_cfg_conn+0x687>
    4169:	be fe ff ff ff       	mov    $0xfffffffe,%esi
    416e:	31 ff                	xor    %edi,%edi
    4170:	eb a7                	jmp    4119 <inet_cfg_conn+0xc29>
    4172:	be fe ff ff ff       	mov    $0xfffffffe,%esi
    4177:	e9 d0 fd ff ff       	jmp    3f4c <inet_cfg_conn+0xa5c>
    417c:	56                   	push   %esi
    417d:	68 5d 68 00 00       	push   $0x685d
    4182:	6a 04                	push   $0x4
    4184:	6a ff                	push   $0xffffffff
    4186:	83 ce ff             	or     $0xffffffff,%esi
    4189:	e8 52 30 00 00       	call   71e0 <log_msg@plt>
    418e:	83 c4 10             	add    $0x10,%esp
    4191:	e9 b6 fd ff ff       	jmp    3f4c <inet_cfg_conn+0xa5c>
    4196:	66 90                	xchg   %ax,%ax
    4198:	66 90                	xchg   %ax,%ax
    419a:	66 90                	xchg   %ax,%ax
    419c:	66 90                	xchg   %ax,%ax
    419e:	66 90                	xchg   %ax,%ax

000041a0 <inetping_recv>:
    41a0:	55                   	push   %ebp
    41a1:	89 e5                	mov    %esp,%ebp
    41a3:	57                   	push   %edi
    41a4:	56                   	push   %esi
    41a5:	53                   	push   %ebx
    41a6:	83 ec 58             	sub    $0x58,%esp
    41a9:	8b 55 08             	mov    0x8(%ebp),%edx
    41ac:	8b 75 0c             	mov    0xc(%ebp),%esi
    41af:	68 dc 91 00 00       	push   $0x91dc
    41b4:	89 d7                	mov    %edx,%edi
    41b6:	89 55 b4             	mov    %edx,-0x4c(%ebp)
    41b9:	e8 f2 32 00 00       	call   74b0 <fibril_mutex_lock@plt>
    41be:	a1 d8 91 00 00       	mov    0x91d8,%eax
    41c3:	83 c4 10             	add    $0x10,%esp
    41c6:	3d d4 91 00 00       	cmp    $0x91d4,%eax
    41cb:	74 26                	je     41f3 <inetping_recv+0x53>
    41cd:	8d 58 f8             	lea    -0x8(%eax),%ebx
    41d0:	8b 55 b4             	mov    -0x4c(%ebp),%edx
    41d3:	66 3b 53 04          	cmp    0x4(%ebx),%dx
    41d7:	75 0d                	jne    41e6 <inetping_recv+0x46>
    41d9:	eb 45                	jmp    4220 <inetping_recv+0x80>
    41db:	90                   	nop
    41dc:	8d 74 26 00          	lea    0x0(%esi,%eiz,1),%esi
    41e0:	66 3b 7b 04          	cmp    0x4(%ebx),%di
    41e4:	74 3a                	je     4220 <inetping_recv+0x80>
    41e6:	8b 40 04             	mov    0x4(%eax),%eax
    41e9:	3d d4 91 00 00       	cmp    $0x91d4,%eax
    41ee:	8d 58 f8             	lea    -0x8(%eax),%ebx
    41f1:	75 ed                	jne    41e0 <inetping_recv+0x40>
    41f3:	83 ec 0c             	sub    $0xc,%esp
    41f6:	68 dc 91 00 00       	push   $0x91dc
    41fb:	e8 a0 30 00 00       	call   72a0 <fibril_mutex_unlock@plt>
    4200:	83 c4 0c             	add    $0xc,%esp
    4203:	68 9c 6a 00 00       	push   $0x6a9c
    4208:	6a 04                	push   $0x4
    420a:	6a ff                	push   $0xffffffff
    420c:	e8 cf 2f 00 00       	call   71e0 <log_msg@plt>
    4211:	83 c4 10             	add    $0x10,%esp
    4214:	8d 65 f4             	lea    -0xc(%ebp),%esp
    4217:	83 c8 ff             	or     $0xffffffff,%eax
    421a:	5b                   	pop    %ebx
    421b:	5e                   	pop    %esi
    421c:	5f                   	pop    %edi
    421d:	5d                   	pop    %ebp
    421e:	c3                   	ret    
    421f:	90                   	nop
    4220:	83 ec 0c             	sub    $0xc,%esp
    4223:	68 dc 91 00 00       	push   $0x91dc
    4228:	e8 73 30 00 00       	call   72a0 <fibril_mutex_unlock@plt>
    422d:	58                   	pop    %eax
    422e:	8b 03                	mov    (%ebx),%eax
    4230:	50                   	push   %eax
    4231:	e8 9a 31 00 00       	call   73d0 <async_exchange_begin@plt>
    4236:	83 c4 0c             	add    $0xc,%esp
    4239:	89 c3                	mov    %eax,%ebx
    423b:	8d 45 c4             	lea    -0x3c(%ebp),%eax
    423e:	50                   	push   %eax
    423f:	31 c0                	xor    %eax,%eax
    4241:	66 8b 46 28          	mov    0x28(%esi),%ax
    4245:	6a 00                	push   $0x0
    4247:	6a 00                	push   $0x0
    4249:	6a 00                	push   $0x0
    424b:	50                   	push   %eax
    424c:	68 00 04 00 00       	push   $0x400
    4251:	53                   	push   %ebx
    4252:	e8 79 2f 00 00       	call   71d0 <async_send_fast@plt>
    4257:	83 c4 1c             	add    $0x1c,%esp
    425a:	89 c7                	mov    %eax,%edi
    425c:	6a 14                	push   $0x14
    425e:	56                   	push   %esi
    425f:	53                   	push   %ebx
    4260:	e8 7b 2e 00 00       	call   70e0 <async_data_write_start@plt>
    4265:	83 c4 10             	add    $0x10,%esp
    4268:	85 c0                	test   %eax,%eax
    426a:	75 54                	jne    42c0 <inetping_recv+0x120>
    426c:	50                   	push   %eax
    426d:	8d 46 14             	lea    0x14(%esi),%eax
    4270:	6a 14                	push   $0x14
    4272:	50                   	push   %eax
    4273:	53                   	push   %ebx
    4274:	e8 67 2e 00 00       	call   70e0 <async_data_write_start@plt>
    4279:	83 c4 10             	add    $0x10,%esp
    427c:	85 c0                	test   %eax,%eax
    427e:	75 40                	jne    42c0 <inetping_recv+0x120>
    4280:	52                   	push   %edx
    4281:	8b 4e 30             	mov    0x30(%esi),%ecx
    4284:	8b 76 2c             	mov    0x2c(%esi),%esi
    4287:	51                   	push   %ecx
    4288:	56                   	push   %esi
    4289:	53                   	push   %ebx
    428a:	e8 51 2e 00 00       	call   70e0 <async_data_write_start@plt>
    428f:	89 1c 24             	mov    %ebx,(%esp)
    4292:	89 45 b4             	mov    %eax,-0x4c(%ebp)
    4295:	e8 66 2f 00 00       	call   7200 <async_exchange_end@plt>
    429a:	8b 45 b4             	mov    -0x4c(%ebp),%eax
    429d:	83 c4 10             	add    $0x10,%esp
    42a0:	85 c0                	test   %eax,%eax
    42a2:	75 3e                	jne    42e2 <inetping_recv+0x142>
    42a4:	50                   	push   %eax
    42a5:	50                   	push   %eax
    42a6:	8d 45 c0             	lea    -0x40(%ebp),%eax
    42a9:	50                   	push   %eax
    42aa:	57                   	push   %edi
    42ab:	e8 10 2e 00 00       	call   70c0 <async_wait_for@plt>
    42b0:	8b 45 c0             	mov    -0x40(%ebp),%eax
    42b3:	83 c4 10             	add    $0x10,%esp
    42b6:	8d 65 f4             	lea    -0xc(%ebp),%esp
    42b9:	5b                   	pop    %ebx
    42ba:	5e                   	pop    %esi
    42bb:	5f                   	pop    %edi
    42bc:	5d                   	pop    %ebp
    42bd:	c3                   	ret    
    42be:	66 90                	xchg   %ax,%ax
    42c0:	83 ec 0c             	sub    $0xc,%esp
    42c3:	89 45 b4             	mov    %eax,-0x4c(%ebp)
    42c6:	53                   	push   %ebx
    42c7:	e8 34 2f 00 00       	call   7200 <async_exchange_end@plt>
    42cc:	89 3c 24             	mov    %edi,(%esp)
    42cf:	e8 5c 31 00 00       	call   7430 <async_forget@plt>
    42d4:	8b 45 b4             	mov    -0x4c(%ebp),%eax
    42d7:	83 c4 10             	add    $0x10,%esp
    42da:	8d 65 f4             	lea    -0xc(%ebp),%esp
    42dd:	5b                   	pop    %ebx
    42de:	5e                   	pop    %esi
    42df:	5f                   	pop    %edi
    42e0:	5d                   	pop    %ebp
    42e1:	c3                   	ret    
    42e2:	83 ec 0c             	sub    $0xc,%esp
    42e5:	57                   	push   %edi
    42e6:	e8 45 31 00 00       	call   7430 <async_forget@plt>
    42eb:	8b 45 b4             	mov    -0x4c(%ebp),%eax
    42ee:	83 c4 10             	add    $0x10,%esp
    42f1:	8d 65 f4             	lea    -0xc(%ebp),%esp
    42f4:	5b                   	pop    %ebx
    42f5:	5e                   	pop    %esi
    42f6:	5f                   	pop    %edi
    42f7:	5d                   	pop    %ebp
    42f8:	c3                   	ret    
    42f9:	8d b4 26 00 00 00 00 	lea    0x0(%esi,%eiz,1),%esi

00004300 <inetping_conn>:
    4300:	55                   	push   %ebp
    4301:	89 e5                	mov    %esp,%ebp
    4303:	57                   	push   %edi
    4304:	56                   	push   %esi
    4305:	53                   	push   %ebx
    4306:	81 ec b0 00 00 00    	sub    $0xb0,%esp
    430c:	68 ba 6a 00 00       	push   $0x6aba
    4311:	6a 04                	push   $0x4
    4313:	6a ff                	push   $0xffffffff
    4315:	e8 c6 2e 00 00       	call   71e0 <log_msg@plt>
    431a:	8b 4d 08             	mov    0x8(%ebp),%ecx
    431d:	58                   	pop    %eax
    431e:	5a                   	pop    %edx
    431f:	6a 00                	push   $0x0
    4321:	51                   	push   %ecx
    4322:	e8 99 2e 00 00       	call   71c0 <async_answer_0@plt>
    4327:	c7 04 24 01 00 00 00 	movl   $0x1,(%esp)
    432e:	e8 5d 31 00 00       	call   7490 <async_callback_receive@plt>
    4333:	83 c4 10             	add    $0x10,%esp
    4336:	85 c0                	test   %eax,%eax
    4338:	0f 84 dd 01 00 00    	je     451b <inetping_conn+0x21b>
    433e:	83 ec 0c             	sub    $0xc,%esp
    4341:	89 85 6c ff ff ff    	mov    %eax,-0x94(%ebp)
    4347:	c7 85 74 ff ff ff 00 	movl   $0x0,-0x8c(%ebp)
    434e:	00 00 00 
    4351:	c7 85 78 ff ff ff 00 	movl   $0x0,-0x88(%ebp)
    4358:	00 00 00 
    435b:	68 dc 91 00 00       	push   $0x91dc
    4360:	e8 4b 31 00 00       	call   74b0 <fibril_mutex_lock@plt>
    4365:	66 a1 7e 93 00 00    	mov    0x937e,%ax
    436b:	8b 15 d4 91 00 00    	mov    0x91d4,%edx
    4371:	40                   	inc    %eax
    4372:	c7 85 78 ff ff ff d4 	movl   $0x91d4,-0x88(%ebp)
    4379:	91 00 00 
    437c:	66 89 85 70 ff ff ff 	mov    %ax,-0x90(%ebp)
    4383:	66 a3 7e 93 00 00    	mov    %ax,0x937e
    4389:	8d 85 74 ff ff ff    	lea    -0x8c(%ebp),%eax
    438f:	89 95 74 ff ff ff    	mov    %edx,-0x8c(%ebp)
    4395:	89 42 04             	mov    %eax,0x4(%edx)
    4398:	a3 d4 91 00 00       	mov    %eax,0x91d4
    439d:	c7 04 24 dc 91 00 00 	movl   $0x91dc,(%esp)
    43a4:	8d 75 90             	lea    -0x70(%ebp),%esi
    43a7:	e8 f4 2e 00 00       	call   72a0 <fibril_mutex_unlock@plt>
    43ac:	8d bd 68 ff ff ff    	lea    -0x98(%ebp),%edi
    43b2:	83 c4 10             	add    $0x10,%esp
    43b5:	8d 76 00             	lea    0x0(%esi),%esi
    43b8:	50                   	push   %eax
    43b9:	50                   	push   %eax
    43ba:	6a 00                	push   $0x0
    43bc:	56                   	push   %esi
    43bd:	e8 be 2f 00 00       	call   7380 <async_get_call_timeout@plt>
    43c2:	83 c4 10             	add    $0x10,%esp
    43c5:	89 c3                	mov    %eax,%ebx
    43c7:	8b 45 90             	mov    -0x70(%ebp),%eax
    43ca:	85 c0                	test   %eax,%eax
    43cc:	0f 84 d6 00 00 00    	je     44a8 <inetping_conn+0x1a8>
    43d2:	3d 00 04 00 00       	cmp    $0x400,%eax
    43d7:	74 67                	je     4440 <inetping_conn+0x140>
    43d9:	3d 01 04 00 00       	cmp    $0x401,%eax
    43de:	0f 85 ac 00 00 00    	jne    4490 <inetping_conn+0x190>
    43e4:	50                   	push   %eax
    43e5:	68 de 6a 00 00       	push   $0x6ade
    43ea:	6a 04                	push   $0x4
    43ec:	6a ff                	push   $0xffffffff
    43ee:	e8 ed 2d 00 00       	call   71e0 <log_msg@plt>
    43f3:	58                   	pop    %eax
    43f4:	8d 85 64 ff ff ff    	lea    -0x9c(%ebp),%eax
    43fa:	5a                   	pop    %edx
    43fb:	57                   	push   %edi
    43fc:	50                   	push   %eax
    43fd:	e8 7e 30 00 00       	call   7480 <async_data_write_receive@plt>
    4402:	83 c4 10             	add    $0x10,%esp
    4405:	84 c0                	test   %al,%al
    4407:	0f 84 43 01 00 00    	je     4550 <inetping_conn+0x250>
    440d:	83 bd 68 ff ff ff 14 	cmpl   $0x14,-0x98(%ebp)
    4414:	0f 84 96 01 00 00    	je     45b0 <inetping_conn+0x2b0>
    441a:	8b 85 64 ff ff ff    	mov    -0x9c(%ebp),%eax
    4420:	51                   	push   %ecx
    4421:	51                   	push   %ecx
    4422:	6a f2                	push   $0xfffffff2
    4424:	50                   	push   %eax
    4425:	e8 96 2d 00 00       	call   71c0 <async_answer_0@plt>
    442a:	58                   	pop    %eax
    442b:	5a                   	pop    %edx
    442c:	6a f2                	push   $0xfffffff2
    442e:	53                   	push   %ebx
    442f:	e8 8c 2d 00 00       	call   71c0 <async_answer_0@plt>
    4434:	83 c4 10             	add    $0x10,%esp
    4437:	e9 7c ff ff ff       	jmp    43b8 <inetping_conn+0xb8>
    443c:	8d 74 26 00          	lea    0x0(%esi,%eiz,1),%esi
    4440:	50                   	push   %eax
    4441:	68 ca 6a 00 00       	push   $0x6aca
    4446:	6a 04                	push   $0x4
    4448:	6a ff                	push   $0xffffffff
    444a:	e8 91 2d 00 00       	call   71e0 <log_msg@plt>
    444f:	8b 45 94             	mov    -0x6c(%ebp),%eax
    4452:	66 89 45 dc          	mov    %ax,-0x24(%ebp)
    4456:	8d 85 7c ff ff ff    	lea    -0x84(%ebp),%eax
    445c:	5a                   	pop    %edx
    445d:	59                   	pop    %ecx
    445e:	50                   	push   %eax
    445f:	57                   	push   %edi
    4460:	e8 1b 30 00 00       	call   7480 <async_data_write_receive@plt>
    4465:	83 c4 10             	add    $0x10,%esp
    4468:	84 c0                	test   %al,%al
    446a:	0f 84 b8 00 00 00    	je     4528 <inetping_conn+0x228>
    4470:	83 bd 7c ff ff ff 14 	cmpl   $0x14,-0x84(%ebp)
    4477:	0f 84 e3 00 00 00    	je     4560 <inetping_conn+0x260>
    447d:	8b 8d 68 ff ff ff    	mov    -0x98(%ebp),%ecx
    4483:	52                   	push   %edx
    4484:	52                   	push   %edx
    4485:	6a f2                	push   $0xfffffff2
    4487:	51                   	push   %ecx
    4488:	eb 9b                	jmp    4425 <inetping_conn+0x125>
    448a:	8d b6 00 00 00 00    	lea    0x0(%esi),%esi
    4490:	50                   	push   %eax
    4491:	50                   	push   %eax
    4492:	6a f2                	push   $0xfffffff2
    4494:	53                   	push   %ebx
    4495:	e8 26 2d 00 00       	call   71c0 <async_answer_0@plt>
    449a:	83 c4 10             	add    $0x10,%esp
    449d:	e9 16 ff ff ff       	jmp    43b8 <inetping_conn+0xb8>
    44a2:	8d b6 00 00 00 00    	lea    0x0(%esi),%esi
    44a8:	56                   	push   %esi
    44a9:	56                   	push   %esi
    44aa:	6a 00                	push   $0x0
    44ac:	53                   	push   %ebx
    44ad:	e8 0e 2d 00 00       	call   71c0 <async_answer_0@plt>
    44b2:	8b 85 6c ff ff ff    	mov    -0x94(%ebp),%eax
    44b8:	5f                   	pop    %edi
    44b9:	50                   	push   %eax
    44ba:	e8 e1 2b 00 00       	call   70a0 <async_hangup@plt>
    44bf:	c7 04 24 dc 91 00 00 	movl   $0x91dc,(%esp)
    44c6:	c7 85 6c ff ff ff 00 	movl   $0x0,-0x94(%ebp)
    44cd:	00 00 00 
    44d0:	e8 db 2f 00 00       	call   74b0 <fibril_mutex_lock@plt>
    44d5:	8b 95 74 ff ff ff    	mov    -0x8c(%ebp),%edx
    44db:	83 c4 10             	add    $0x10,%esp
    44de:	85 d2                	test   %edx,%edx
    44e0:	74 15                	je     44f7 <inetping_conn+0x1f7>
    44e2:	8b 85 78 ff ff ff    	mov    -0x88(%ebp),%eax
    44e8:	85 c0                	test   %eax,%eax
    44ea:	74 0b                	je     44f7 <inetping_conn+0x1f7>
    44ec:	89 10                	mov    %edx,(%eax)
    44ee:	8b 95 74 ff ff ff    	mov    -0x8c(%ebp),%edx
    44f4:	89 42 04             	mov    %eax,0x4(%edx)
    44f7:	83 ec 0c             	sub    $0xc,%esp
    44fa:	c7 85 74 ff ff ff 00 	movl   $0x0,-0x8c(%ebp)
    4501:	00 00 00 
    4504:	c7 85 78 ff ff ff 00 	movl   $0x0,-0x88(%ebp)
    450b:	00 00 00 
    450e:	68 dc 91 00 00       	push   $0x91dc
    4513:	e8 88 2d 00 00       	call   72a0 <fibril_mutex_unlock@plt>
    4518:	83 c4 10             	add    $0x10,%esp
    451b:	8d 65 f4             	lea    -0xc(%ebp),%esp
    451e:	5b                   	pop    %ebx
    451f:	5e                   	pop    %esi
    4520:	5f                   	pop    %edi
    4521:	5d                   	pop    %ebp
    4522:	c3                   	ret    
    4523:	90                   	nop
    4524:	8d 74 26 00          	lea    0x0(%esi,%eiz,1),%esi
    4528:	50                   	push   %eax
    4529:	50                   	push   %eax
    452a:	8b 85 68 ff ff ff    	mov    -0x98(%ebp),%eax
    4530:	6a fc                	push   $0xfffffffc
    4532:	50                   	push   %eax
    4533:	e8 88 2c 00 00       	call   71c0 <async_answer_0@plt>
    4538:	58                   	pop    %eax
    4539:	5a                   	pop    %edx
    453a:	6a fc                	push   $0xfffffffc
    453c:	53                   	push   %ebx
    453d:	e8 7e 2c 00 00       	call   71c0 <async_answer_0@plt>
    4542:	83 c4 10             	add    $0x10,%esp
    4545:	e9 6e fe ff ff       	jmp    43b8 <inetping_conn+0xb8>
    454a:	8d b6 00 00 00 00    	lea    0x0(%esi),%esi
    4550:	8b 85 64 ff ff ff    	mov    -0x9c(%ebp),%eax
    4556:	51                   	push   %ecx
    4557:	51                   	push   %ecx
    4558:	6a fc                	push   $0xfffffffc
    455a:	50                   	push   %eax
    455b:	eb d6                	jmp    4533 <inetping_conn+0x233>
    455d:	8d 76 00             	lea    0x0(%esi),%esi
    4560:	50                   	push   %eax
    4561:	8d 45 b4             	lea    -0x4c(%ebp),%eax
    4564:	6a 14                	push   $0x14
    4566:	50                   	push   %eax
    4567:	8b 85 68 ff ff ff    	mov    -0x98(%ebp),%eax
    456d:	50                   	push   %eax
    456e:	e8 8d 2e 00 00       	call   7400 <async_data_write_finalize@plt>
    4573:	83 c4 10             	add    $0x10,%esp
    4576:	89 c2                	mov    %eax,%edx
    4578:	85 c0                	test   %eax,%eax
    457a:	0f 84 08 01 00 00    	je     4688 <inetping_conn+0x388>
    4580:	50                   	push   %eax
    4581:	50                   	push   %eax
    4582:	8b 85 68 ff ff ff    	mov    -0x98(%ebp),%eax
    4588:	52                   	push   %edx
    4589:	89 95 54 ff ff ff    	mov    %edx,-0xac(%ebp)
    458f:	50                   	push   %eax
    4590:	e8 2b 2c 00 00       	call   71c0 <async_answer_0@plt>
    4595:	58                   	pop    %eax
    4596:	5a                   	pop    %edx
    4597:	8b 95 54 ff ff ff    	mov    -0xac(%ebp),%edx
    459d:	52                   	push   %edx
    459e:	53                   	push   %ebx
    459f:	e8 1c 2c 00 00       	call   71c0 <async_answer_0@plt>
    45a4:	83 c4 10             	add    $0x10,%esp
    45a7:	e9 0c fe ff ff       	jmp    43b8 <inetping_conn+0xb8>
    45ac:	8d 74 26 00          	lea    0x0(%esi,%eiz,1),%esi
    45b0:	8d 4d b4             	lea    -0x4c(%ebp),%ecx
    45b3:	50                   	push   %eax
    45b4:	8b 85 64 ff ff ff    	mov    -0x9c(%ebp),%eax
    45ba:	6a 14                	push   $0x14
    45bc:	89 8d 54 ff ff ff    	mov    %ecx,-0xac(%ebp)
    45c2:	51                   	push   %ecx
    45c3:	50                   	push   %eax
    45c4:	e8 37 2e 00 00       	call   7400 <async_data_write_finalize@plt>
    45c9:	83 c4 10             	add    $0x10,%esp
    45cc:	8b 8d 54 ff ff ff    	mov    -0xac(%ebp),%ecx
    45d2:	85 c0                	test   %eax,%eax
    45d4:	0f 85 96 00 00 00    	jne    4670 <inetping_conn+0x370>
    45da:	50                   	push   %eax
    45db:	8d 85 7c ff ff ff    	lea    -0x84(%ebp),%eax
    45e1:	50                   	push   %eax
    45e2:	6a 00                	push   $0x0
    45e4:	51                   	push   %ecx
    45e5:	e8 36 da ff ff       	call   2020 <inet_get_srcaddr>
    45ea:	83 c4 10             	add    $0x10,%esp
    45ed:	85 c0                	test   %eax,%eax
    45ef:	0f 85 4b 01 00 00    	jne    4740 <inetping_conn+0x440>
    45f5:	50                   	push   %eax
    45f6:	50                   	push   %eax
    45f7:	8d 85 64 ff ff ff    	lea    -0x9c(%ebp),%eax
    45fd:	57                   	push   %edi
    45fe:	50                   	push   %eax
    45ff:	e8 0c 2d 00 00       	call   7310 <async_data_read_receive@plt>
    4604:	83 c4 10             	add    $0x10,%esp
    4607:	84 c0                	test   %al,%al
    4609:	0f 84 41 ff ff ff    	je     4550 <inetping_conn+0x250>
    460f:	83 bd 68 ff ff ff 14 	cmpl   $0x14,-0x98(%ebp)
    4616:	0f 85 fe fd ff ff    	jne    441a <inetping_conn+0x11a>
    461c:	50                   	push   %eax
    461d:	8d 85 7c ff ff ff    	lea    -0x84(%ebp),%eax
    4623:	6a 14                	push   $0x14
    4625:	50                   	push   %eax
    4626:	8b 85 64 ff ff ff    	mov    -0x9c(%ebp),%eax
    462c:	50                   	push   %eax
    462d:	e8 ee 2a 00 00       	call   7120 <async_data_read_finalize@plt>
    4632:	83 c4 10             	add    $0x10,%esp
    4635:	31 d2                	xor    %edx,%edx
    4637:	85 c0                	test   %eax,%eax
    4639:	74 20                	je     465b <inetping_conn+0x35b>
    463b:	89 c2                	mov    %eax,%edx
    463d:	50                   	push   %eax
    463e:	50                   	push   %eax
    463f:	8b 85 64 ff ff ff    	mov    -0x9c(%ebp),%eax
    4645:	52                   	push   %edx
    4646:	50                   	push   %eax
    4647:	89 95 54 ff ff ff    	mov    %edx,-0xac(%ebp)
    464d:	e8 6e 2b 00 00       	call   71c0 <async_answer_0@plt>
    4652:	83 c4 10             	add    $0x10,%esp
    4655:	8b 95 54 ff ff ff    	mov    -0xac(%ebp),%edx
    465b:	51                   	push   %ecx
    465c:	51                   	push   %ecx
    465d:	52                   	push   %edx
    465e:	53                   	push   %ebx
    465f:	e8 5c 2b 00 00       	call   71c0 <async_answer_0@plt>
    4664:	83 c4 10             	add    $0x10,%esp
    4667:	e9 4c fd ff ff       	jmp    43b8 <inetping_conn+0xb8>
    466c:	8d 74 26 00          	lea    0x0(%esi,%eiz,1),%esi
    4670:	89 85 54 ff ff ff    	mov    %eax,-0xac(%ebp)
    4676:	51                   	push   %ecx
    4677:	51                   	push   %ecx
    4678:	50                   	push   %eax
    4679:	8b 85 64 ff ff ff    	mov    -0x9c(%ebp),%eax
    467f:	50                   	push   %eax
    4680:	e9 0b ff ff ff       	jmp    4590 <inetping_conn+0x290>
    4685:	8d 76 00             	lea    0x0(%esi),%esi
    4688:	50                   	push   %eax
    4689:	50                   	push   %eax
    468a:	8d 85 7c ff ff ff    	lea    -0x84(%ebp),%eax
    4690:	50                   	push   %eax
    4691:	57                   	push   %edi
    4692:	e8 e9 2d 00 00       	call   7480 <async_data_write_receive@plt>
    4697:	83 c4 10             	add    $0x10,%esp
    469a:	84 c0                	test   %al,%al
    469c:	0f 84 86 fe ff ff    	je     4528 <inetping_conn+0x228>
    46a2:	83 bd 7c ff ff ff 14 	cmpl   $0x14,-0x84(%ebp)
    46a9:	0f 85 ce fd ff ff    	jne    447d <inetping_conn+0x17d>
    46af:	50                   	push   %eax
    46b0:	8d 45 c8             	lea    -0x38(%ebp),%eax
    46b3:	6a 14                	push   $0x14
    46b5:	50                   	push   %eax
    46b6:	8b 85 68 ff ff ff    	mov    -0x98(%ebp),%eax
    46bc:	50                   	push   %eax
    46bd:	e8 3e 2d 00 00       	call   7400 <async_data_write_finalize@plt>
    46c2:	83 c4 10             	add    $0x10,%esp
    46c5:	89 c2                	mov    %eax,%edx
    46c7:	85 c0                	test   %eax,%eax
    46c9:	0f 85 b1 fe ff ff    	jne    4580 <inetping_conn+0x280>
    46cf:	50                   	push   %eax
    46d0:	50                   	push   %eax
    46d1:	8d 45 e4             	lea    -0x1c(%ebp),%eax
    46d4:	50                   	push   %eax
    46d5:	8d 45 e0             	lea    -0x20(%ebp),%eax
    46d8:	6a 00                	push   $0x0
    46da:	6a 00                	push   $0x0
    46dc:	6a 00                	push   $0x0
    46de:	6a 00                	push   $0x0
    46e0:	50                   	push   %eax
    46e1:	e8 2a 2d 00 00       	call   7410 <async_data_write_accept@plt>
    46e6:	83 c4 20             	add    $0x20,%esp
    46e9:	85 c0                	test   %eax,%eax
    46eb:	75 53                	jne    4740 <inetping_conn+0x440>
    46ed:	8b 45 b4             	mov    -0x4c(%ebp),%eax
    46f0:	3b 45 c8             	cmp    -0x38(%ebp),%eax
    46f3:	75 5c                	jne    4751 <inetping_conn+0x451>
    46f5:	83 f8 01             	cmp    $0x1,%eax
    46f8:	74 5e                	je     4758 <inetping_conn+0x458>
    46fa:	83 f8 02             	cmp    $0x2,%eax
    46fd:	75 52                	jne    4751 <inetping_conn+0x451>
    46ff:	8d 45 b4             	lea    -0x4c(%ebp),%eax
    4702:	51                   	push   %ecx
    4703:	51                   	push   %ecx
    4704:	50                   	push   %eax
    4705:	31 c0                	xor    %eax,%eax
    4707:	66 8b 85 70 ff ff ff 	mov    -0x90(%ebp),%ax
    470e:	50                   	push   %eax
    470f:	e8 cc d5 ff ff       	call   1ce0 <icmpv6_ping_send>
    4714:	83 c4 10             	add    $0x10,%esp
    4717:	83 ec 0c             	sub    $0xc,%esp
    471a:	8b 4d e0             	mov    -0x20(%ebp),%ecx
    471d:	89 85 54 ff ff ff    	mov    %eax,-0xac(%ebp)
    4723:	51                   	push   %ecx
    4724:	e8 77 2d 00 00       	call   74a0 <free@plt>
    4729:	58                   	pop    %eax
    472a:	8b 85 54 ff ff ff    	mov    -0xac(%ebp),%eax
    4730:	5a                   	pop    %edx
    4731:	50                   	push   %eax
    4732:	53                   	push   %ebx
    4733:	e8 88 2a 00 00       	call   71c0 <async_answer_0@plt>
    4738:	83 c4 10             	add    $0x10,%esp
    473b:	e9 78 fc ff ff       	jmp    43b8 <inetping_conn+0xb8>
    4740:	52                   	push   %edx
    4741:	52                   	push   %edx
    4742:	50                   	push   %eax
    4743:	53                   	push   %ebx
    4744:	e8 77 2a 00 00       	call   71c0 <async_answer_0@plt>
    4749:	83 c4 10             	add    $0x10,%esp
    474c:	e9 67 fc ff ff       	jmp    43b8 <inetping_conn+0xb8>
    4751:	b8 f2 ff ff ff       	mov    $0xfffffff2,%eax
    4756:	eb bf                	jmp    4717 <inetping_conn+0x417>
    4758:	50                   	push   %eax
    4759:	50                   	push   %eax
    475a:	8d 45 b4             	lea    -0x4c(%ebp),%eax
    475d:	50                   	push   %eax
    475e:	31 c0                	xor    %eax,%eax
    4760:	66 8b 85 70 ff ff ff 	mov    -0x90(%ebp),%ax
    4767:	50                   	push   %eax
    4768:	e8 b3 d1 ff ff       	call   1920 <icmp_ping_send>
    476d:	83 c4 10             	add    $0x10,%esp
    4770:	eb a5                	jmp    4717 <inetping_conn+0x417>
    4772:	66 90                	xchg   %ax,%ax
    4774:	66 90                	xchg   %ax,%ax
    4776:	66 90                	xchg   %ax,%ax
    4778:	66 90                	xchg   %ax,%ax
    477a:	66 90                	xchg   %ax,%ax
    477c:	66 90                	xchg   %ax,%ax
    477e:	66 90                	xchg   %ax,%ax

00004780 <ndp_received>:
    4780:	55                   	push   %ebp
    4781:	89 e5                	mov    %esp,%ebp
    4783:	57                   	push   %edi
    4784:	56                   	push   %esi
    4785:	53                   	push   %ebx
    4786:	81 ec 00 01 00 00    	sub    $0x100,%esp
    478c:	68 f9 6a 00 00       	push   $0x6af9
    4791:	6a 04                	push   $0x4
    4793:	6a ff                	push   $0xffffffff
    4795:	e8 46 2a 00 00       	call   71e0 <log_msg@plt>
    479a:	8d 85 68 ff ff ff    	lea    -0x98(%ebp),%eax
    47a0:	8b 7d 08             	mov    0x8(%ebp),%edi
    47a3:	5b                   	pop    %ebx
    47a4:	5e                   	pop    %esi
    47a5:	50                   	push   %eax
    47a6:	57                   	push   %edi
    47a7:	e8 e4 0f 00 00       	call   5790 <ndp_pdu_decode>
    47ac:	83 c4 10             	add    $0x10,%esp
    47af:	89 c3                	mov    %eax,%ebx
    47b1:	85 c0                	test   %eax,%eax
    47b3:	74 0b                	je     47c0 <ndp_received+0x40>
    47b5:	8d 65 f4             	lea    -0xc(%ebp),%esp
    47b8:	89 d8                	mov    %ebx,%eax
    47ba:	5b                   	pop    %ebx
    47bb:	5e                   	pop    %esi
    47bc:	5f                   	pop    %edi
    47bd:	5d                   	pop    %ebp
    47be:	c3                   	ret    
    47bf:	90                   	nop
    47c0:	8d b5 72 ff ff ff    	lea    -0x8e(%ebp),%esi
    47c6:	50                   	push   %eax
    47c7:	50                   	push   %eax
    47c8:	8d 85 08 ff ff ff    	lea    -0xf8(%ebp),%eax
    47ce:	50                   	push   %eax
    47cf:	8d 7d 88             	lea    -0x78(%ebp),%edi
    47d2:	56                   	push   %esi
    47d3:	e8 38 29 00 00       	call   7110 <inet_addr_set6@plt>
    47d8:	8d 8d 1c ff ff ff    	lea    -0xe4(%ebp),%ecx
    47de:	58                   	pop    %eax
    47df:	89 8d 04 ff ff ff    	mov    %ecx,-0xfc(%ebp)
    47e5:	5a                   	pop    %edx
    47e6:	51                   	push   %ecx
    47e7:	57                   	push   %edi
    47e8:	e8 23 29 00 00       	call   7110 <inet_addr_set6@plt>
    47ed:	8b 8d 68 ff ff ff    	mov    -0x98(%ebp),%ecx
    47f3:	51                   	push   %ecx
    47f4:	68 08 6b 00 00       	push   $0x6b08
    47f9:	6a 04                	push   $0x4
    47fb:	6a ff                	push   $0xffffffff
    47fd:	e8 de 29 00 00       	call   71e0 <log_msg@plt>
    4802:	8b 85 68 ff ff ff    	mov    -0x98(%ebp),%eax
    4808:	83 c4 20             	add    $0x20,%esp
    480b:	8b 8d 04 ff ff ff    	mov    -0xfc(%ebp),%ecx
    4811:	3d 87 00 00 00       	cmp    $0x87,%eax
    4816:	74 50                	je     4868 <ndp_received+0xe8>
    4818:	3d 88 00 00 00       	cmp    $0x88,%eax
    481d:	75 39                	jne    4858 <ndp_received+0xd8>
    481f:	8b 45 08             	mov    0x8(%ebp),%eax
    4822:	52                   	push   %edx
    4823:	83 c0 18             	add    $0x18,%eax
