
atkbd:     file format elf32-i386


Disassembly of section .init:

000010f4 <__entry>:
    10f4:	66 8c d0             	mov    %ss,%ax
    10f7:	8e d8                	mov    %eax,%ds
    10f9:	8e c0                	mov    %eax,%es
    10fb:	8e e0                	mov    %eax,%fs
    10fd:	b8 01 00 00 00       	mov    $0x1,%eax
    1102:	0f a2                	cpuid  
    1104:	0f ba e2 0b          	bt     $0xb,%edx
    1108:	73 0c                	jae    1116 <__entry+0x22>
    110a:	8d 05 80 f0 00 00    	lea    0xf080,%eax
    1110:	c7 00 f0 cf 00 00    	movl   $0xcff0,(%eax)
    1116:	6a 00                	push   $0x0
    1118:	6a 00                	push   $0x0
    111a:	89 e5                	mov    %esp,%ebp
    111c:	57                   	push   %edi
    111d:	e8 4e ba 00 00       	call   cb70 <__main@plt>

Disassembly of section .text:

00001140 <at_kbd_add>:
    1140:	55                   	push   %ebp
    1141:	89 e5                	mov    %esp,%ebp
    1143:	57                   	push   %edi
    1144:	56                   	push   %esi
    1145:	53                   	push   %ebx
    1146:	83 ec 0c             	sub    $0xc,%esp
    1149:	8b 5d 08             	mov    0x8(%ebp),%ebx
    114c:	85 db                	test   %ebx,%ebx
    114e:	0f 84 7c 00 00 00    	je     11d0 <at_kbd_add+0x90>
    1154:	56                   	push   %esi
    1155:	56                   	push   %esi
    1156:	6a 10                	push   $0x10
    1158:	53                   	push   %ebx
    1159:	e8 02 0f 00 00       	call   2060 <ddf_dev_data_alloc>
    115e:	83 c4 10             	add    $0x10,%esp
    1161:	85 c0                	test   %eax,%eax
    1163:	74 72                	je     11d7 <at_kbd_add+0x97>
    1165:	52                   	push   %edx
    1166:	52                   	push   %edx
    1167:	53                   	push   %ebx
    1168:	50                   	push   %eax
    1169:	e8 72 04 00 00       	call   15e0 <at_kbd_init>
    116e:	83 c4 10             	add    $0x10,%esp
    1171:	89 c6                	mov    %eax,%esi
    1173:	85 c0                	test   %eax,%eax
    1175:	75 31                	jne    11a8 <at_kbd_add+0x68>
    1177:	83 ec 0c             	sub    $0xc,%esp
    117a:	53                   	push   %ebx
    117b:	e8 30 0f 00 00       	call   20b0 <ddf_dev_get_handle>
    1180:	89 1c 24             	mov    %ebx,(%esp)
    1183:	89 c7                	mov    %eax,%edi
    1185:	e8 36 0f 00 00       	call   20c0 <ddf_dev_get_name>
    118a:	57                   	push   %edi
    118b:	50                   	push   %eax
    118c:	68 e8 a8 00 00       	push   $0xa8e8
    1191:	6a 03                	push   $0x3
    1193:	e8 c8 17 00 00       	call   2960 <ddf_msg>
    1198:	83 c4 20             	add    $0x20,%esp
    119b:	8d 65 f4             	lea    -0xc(%ebp),%esp
    119e:	89 f0                	mov    %esi,%eax
    11a0:	5b                   	pop    %ebx
    11a1:	5e                   	pop    %esi
    11a2:	5f                   	pop    %edi
    11a3:	5d                   	pop    %ebp
    11a4:	c3                   	ret    
    11a5:	8d 76 00             	lea    0x0(%esi),%esi
    11a8:	83 ec 0c             	sub    $0xc,%esp
    11ab:	50                   	push   %eax
    11ac:	e8 6f bd 00 00       	call   cf20 <str_error@plt>
    11b1:	83 c4 0c             	add    $0xc,%esp
    11b4:	50                   	push   %eax
    11b5:	68 9c a8 00 00       	push   $0xa89c
    11ba:	6a 01                	push   $0x1
    11bc:	e8 9f 17 00 00       	call   2960 <ddf_msg>
    11c1:	83 c4 10             	add    $0x10,%esp
    11c4:	8d 65 f4             	lea    -0xc(%ebp),%esp
    11c7:	89 f0                	mov    %esi,%eax
    11c9:	5b                   	pop    %ebx
    11ca:	5e                   	pop    %esi
    11cb:	5f                   	pop    %edi
    11cc:	5d                   	pop    %ebp
    11cd:	c3                   	ret    
    11ce:	66 90                	xchg   %ax,%ax
    11d0:	be f2 ff ff ff       	mov    $0xfffffff2,%esi
    11d5:	eb c4                	jmp    119b <at_kbd_add+0x5b>
    11d7:	51                   	push   %ecx
    11d8:	51                   	push   %ecx
    11d9:	68 70 a8 00 00       	push   $0xa870
    11de:	6a 01                	push   $0x1
    11e0:	be fe ff ff ff       	mov    $0xfffffffe,%esi
    11e5:	e8 76 17 00 00       	call   2960 <ddf_msg>
    11ea:	83 c4 10             	add    $0x10,%esp
    11ed:	eb ac                	jmp    119b <at_kbd_add+0x5b>
    11ef:	90                   	nop

000011f0 <main>:
    11f0:	8d 4c 24 04          	lea    0x4(%esp),%ecx
    11f4:	83 e4 f0             	and    $0xfffffff0,%esp
    11f7:	ff 71 fc             	pushl  -0x4(%ecx)
    11fa:	55                   	push   %ebp
    11fb:	89 e5                	mov    %esp,%ebp
    11fd:	51                   	push   %ecx
    11fe:	83 ec 10             	sub    $0x10,%esp
    1201:	68 c4 a8 00 00       	push   $0xa8c4
    1206:	e8 c5 b9 00 00       	call   cbd0 <printf@plt>
    120b:	c7 04 24 ff a8 00 00 	movl   $0xa8ff,(%esp)
    1212:	e8 39 17 00 00       	call   2950 <ddf_log_init>
    1217:	c7 04 24 a0 ee 00 00 	movl   $0xeea0,(%esp)
    121e:	e8 cd 15 00 00       	call   27f0 <ddf_driver_main>
    1223:	8b 4d fc             	mov    -0x4(%ebp),%ecx
    1226:	c9                   	leave  
    1227:	8d 61 fc             	lea    -0x4(%ecx),%esp
    122a:	c3                   	ret    
    122b:	66 90                	xchg   %ax,%ax
    122d:	66 90                	xchg   %ax,%ax
    122f:	90                   	nop

00001230 <default_connection_handler>:
    1230:	55                   	push   %ebp
    1231:	89 e5                	mov    %esp,%ebp
    1233:	57                   	push   %edi
    1234:	56                   	push   %esi
    1235:	53                   	push   %ebx
    1236:	83 ec 28             	sub    $0x28,%esp
    1239:	8b 75 10             	mov    0x10(%ebp),%esi
    123c:	8b 45 08             	mov    0x8(%ebp),%eax
    123f:	8b 7d 0c             	mov    0xc(%ebp),%edi
    1242:	8b 1e                	mov    (%esi),%ebx
    1244:	50                   	push   %eax
    1245:	e8 26 0f 00 00       	call   2170 <ddf_fun_get_dev>
    124a:	89 04 24             	mov    %eax,(%esp)
    124d:	e8 4e 0e 00 00       	call   20a0 <ddf_dev_data_get>
    1252:	83 c4 10             	add    $0x10,%esp
    1255:	83 fb 03             	cmp    $0x3,%ebx
    1258:	74 4e                	je     12a8 <default_connection_handler+0x78>
    125a:	81 fb 11 04 00 00    	cmp    $0x411,%ebx
    1260:	74 2e                	je     1290 <default_connection_handler+0x60>
    1262:	50                   	push   %eax
    1263:	53                   	push   %ebx
    1264:	68 12 aa 00 00       	push   $0xaa12
    1269:	6a 01                	push   $0x1
    126b:	e8 f0 16 00 00       	call   2960 <ddf_msg>
    1270:	83 c4 10             	add    $0x10,%esp
    1273:	c7 45 0c f2 ff ff ff 	movl   $0xfffffff2,0xc(%ebp)
    127a:	89 7d 08             	mov    %edi,0x8(%ebp)
    127d:	8d 65 f4             	lea    -0xc(%ebp),%esp
    1280:	5b                   	pop    %ebx
    1281:	5e                   	pop    %esi
    1282:	5f                   	pop    %edi
    1283:	5d                   	pop    %ebp
    1284:	e9 57 ba 00 00       	jmp    cce0 <async_answer_0@plt>
    1289:	8d b4 26 00 00 00 00 	lea    0x0(%esi,%eiz,1),%esi
    1290:	89 7d 08             	mov    %edi,0x8(%ebp)
    1293:	c7 45 0c f5 ff ff ff 	movl   $0xfffffff5,0xc(%ebp)
    129a:	8d 65 f4             	lea    -0xc(%ebp),%esp
    129d:	5b                   	pop    %ebx
    129e:	5e                   	pop    %esi
    129f:	5f                   	pop    %edi
    12a0:	5d                   	pop    %ebp
    12a1:	e9 3a ba 00 00       	jmp    cce0 <async_answer_0@plt>
    12a6:	66 90                	xchg   %ax,%ax
    12a8:	89 45 e4             	mov    %eax,-0x1c(%ebp)
    12ab:	50                   	push   %eax
    12ac:	50                   	push   %eax
    12ad:	56                   	push   %esi
    12ae:	6a 01                	push   $0x1
    12b0:	e8 1b bb 00 00       	call   cdd0 <async_callback_receive_start@plt>
    12b5:	83 c4 10             	add    $0x10,%esp
    12b8:	8b 55 e4             	mov    -0x1c(%ebp),%edx
    12bb:	85 c0                	test   %eax,%eax
    12bd:	74 51                	je     1310 <default_connection_handler+0xe0>
    12bf:	8b 5a 08             	mov    0x8(%edx),%ebx
    12c2:	85 db                	test   %ebx,%ebx
    12c4:	74 2a                	je     12f0 <default_connection_handler+0xc0>
    12c6:	52                   	push   %edx
    12c7:	52                   	push   %edx
    12c8:	68 f7 a9 00 00       	push   $0xa9f7
    12cd:	6a 01                	push   $0x1
    12cf:	e8 8c 16 00 00       	call   2960 <ddf_msg>
    12d4:	89 7d 08             	mov    %edi,0x8(%ebp)
    12d7:	c7 45 0c fd ff ff ff 	movl   $0xfffffffd,0xc(%ebp)
    12de:	83 c4 10             	add    $0x10,%esp
    12e1:	8d 65 f4             	lea    -0xc(%ebp),%esp
    12e4:	5b                   	pop    %ebx
    12e5:	5e                   	pop    %esi
    12e6:	5f                   	pop    %edi
    12e7:	5d                   	pop    %ebp
    12e8:	e9 f3 b9 00 00       	jmp    cce0 <async_answer_0@plt>
    12ed:	8d 76 00             	lea    0x0(%esi),%esi
    12f0:	89 42 08             	mov    %eax,0x8(%edx)
    12f3:	51                   	push   %ecx
    12f4:	51                   	push   %ecx
    12f5:	68 e4 a9 00 00       	push   $0xa9e4
    12fa:	6a 04                	push   $0x4
    12fc:	e8 5f 16 00 00       	call   2960 <ddf_msg>
    1301:	83 c4 10             	add    $0x10,%esp
    1304:	c7 45 0c 00 00 00 00 	movl   $0x0,0xc(%ebp)
    130b:	e9 6a ff ff ff       	jmp    127a <default_connection_handler+0x4a>
    1310:	56                   	push   %esi
    1311:	56                   	push   %esi
    1312:	68 08 a9 00 00       	push   $0xa908
    1317:	6a 02                	push   $0x2
    1319:	e8 42 16 00 00       	call   2960 <ddf_msg>
    131e:	83 c4 10             	add    $0x10,%esp
    1321:	c7 45 0c 06 d5 ff ff 	movl   $0xffffd506,0xc(%ebp)
    1328:	e9 4d ff ff ff       	jmp    127a <default_connection_handler+0x4a>
    132d:	8d 76 00             	lea    0x0(%esi),%esi

00001330 <polling>:
    1330:	55                   	push   %ebp
    1331:	89 e5                	mov    %esp,%ebp
    1333:	57                   	push   %edi
    1334:	56                   	push   %esi
    1335:	53                   	push   %ebx
    1336:	83 ec 2c             	sub    $0x2c,%esp
    1339:	8b 7d 08             	mov    0x8(%ebp),%edi
    133c:	85 ff                	test   %edi,%edi
    133e:	0f 84 7e 02 00 00    	je     15c2 <polling+0x292>
    1344:	8b 45 08             	mov    0x8(%ebp),%eax
    1347:	8b 40 04             	mov    0x4(%eax),%eax
    134a:	85 c0                	test   %eax,%eax
    134c:	0f 84 5b 02 00 00    	je     15ad <polling+0x27d>
    1352:	83 ec 0c             	sub    $0xc,%esp
    1355:	8d 7d e7             	lea    -0x19(%ebp),%edi
    1358:	50                   	push   %eax
    1359:	e8 b2 bb 00 00       	call   cf10 <async_exchange_begin@plt>
    135e:	83 c4 10             	add    $0x10,%esp
    1361:	89 c3                	mov    %eax,%ebx
    1363:	90                   	nop
    1364:	8d 74 26 00          	lea    0x0(%esi,%eiz,1),%esi
    1368:	85 db                	test   %ebx,%ebx
    136a:	0f 84 92 00 00 00    	je     1402 <polling+0xd2>
    1370:	c6 45 e7 00          	movb   $0x0,-0x19(%ebp)
    1374:	52                   	push   %edx
    1375:	6a 01                	push   $0x1
    1377:	57                   	push   %edi
    1378:	53                   	push   %ebx
    1379:	e8 82 bc 00 00       	call   d000 <chardev_read@plt>
    137e:	83 c4 10             	add    $0x10,%esp
    1381:	48                   	dec    %eax
    1382:	0f 85 18 02 00 00    	jne    15a0 <polling+0x270>
    1388:	8a 45 e7             	mov    -0x19(%ebp),%al
    138b:	3c e0                	cmp    $0xe0,%al
    138d:	0f 84 ad 00 00 00    	je     1440 <polling+0x110>
    1393:	3c e1                	cmp    $0xe1,%al
    1395:	0f 84 05 01 00 00    	je     14a0 <polling+0x170>
    139b:	be 7f 00 00 00       	mov    $0x7f,%esi
    13a0:	ba 80 ac 00 00       	mov    $0xac80,%edx
    13a5:	c7 45 d4 00 00 00 00 	movl   $0x0,-0x2c(%ebp)
    13ac:	3c f0                	cmp    $0xf0,%al
    13ae:	0f 84 bc 00 00 00    	je     1470 <polling+0x140>
    13b4:	31 c9                	xor    %ecx,%ecx
    13b6:	88 c1                	mov    %al,%cl
    13b8:	39 ce                	cmp    %ecx,%esi
    13ba:	76 64                	jbe    1420 <polling+0xf0>
    13bc:	8b 34 8a             	mov    (%edx,%ecx,4),%esi
    13bf:	85 f6                	test   %esi,%esi
    13c1:	74 5d                	je     1420 <polling+0xf0>
    13c3:	8b 45 08             	mov    0x8(%ebp),%eax
    13c6:	83 ec 0c             	sub    $0xc,%esp
    13c9:	8b 48 08             	mov    0x8(%eax),%ecx
    13cc:	51                   	push   %ecx
    13cd:	e8 3e bb 00 00       	call   cf10 <async_exchange_begin@plt>
    13d2:	5a                   	pop    %edx
    13d3:	59                   	pop    %ecx
    13d4:	6a 00                	push   $0x0
    13d6:	6a 00                	push   $0x0
    13d8:	56                   	push   %esi
    13d9:	8b 75 d4             	mov    -0x2c(%ebp),%esi
    13dc:	56                   	push   %esi
    13dd:	68 00 04 00 00       	push   $0x400
    13e2:	50                   	push   %eax
    13e3:	89 45 d4             	mov    %eax,-0x2c(%ebp)
    13e6:	e8 05 b8 00 00       	call   cbf0 <async_msg_4@plt>
    13eb:	83 c4 14             	add    $0x14,%esp
    13ee:	8b 45 d4             	mov    -0x2c(%ebp),%eax
    13f1:	50                   	push   %eax
    13f2:	e8 39 b9 00 00       	call   cd30 <async_exchange_end@plt>
    13f7:	83 c4 10             	add    $0x10,%esp
    13fa:	85 db                	test   %ebx,%ebx
    13fc:	0f 85 6e ff ff ff    	jne    1370 <polling+0x40>
    1402:	8b 45 08             	mov    0x8(%ebp),%eax
    1405:	83 ec 0c             	sub    $0xc,%esp
    1408:	8b 48 04             	mov    0x4(%eax),%ecx
    140b:	51                   	push   %ecx
    140c:	e8 ff ba 00 00       	call   cf10 <async_exchange_begin@plt>
    1411:	83 c4 10             	add    $0x10,%esp
    1414:	89 c3                	mov    %eax,%ebx
    1416:	e9 55 ff ff ff       	jmp    1370 <polling+0x40>
    141b:	90                   	nop
    141c:	8d 74 26 00          	lea    0x0(%esi,%eiz,1),%esi
    1420:	25 ff 00 00 00       	and    $0xff,%eax
    1425:	52                   	push   %edx
    1426:	50                   	push   %eax
    1427:	68 3f aa 00 00       	push   $0xaa3f
    142c:	6a 02                	push   $0x2
    142e:	e8 2d 15 00 00       	call   2960 <ddf_msg>
    1433:	83 c4 10             	add    $0x10,%esp
    1436:	e9 2d ff ff ff       	jmp    1368 <polling+0x38>
    143b:	90                   	nop
    143c:	8d 74 26 00          	lea    0x0(%esi,%eiz,1),%esi
    1440:	50                   	push   %eax
    1441:	6a 01                	push   $0x1
    1443:	57                   	push   %edi
    1444:	53                   	push   %ebx
    1445:	e8 b6 bb 00 00       	call   d000 <chardev_read@plt>
    144a:	83 c4 10             	add    $0x10,%esp
    144d:	48                   	dec    %eax
    144e:	0f 85 4c 01 00 00    	jne    15a0 <polling+0x270>
    1454:	8a 45 e7             	mov    -0x19(%ebp),%al
    1457:	be 7e 00 00 00       	mov    $0x7e,%esi
    145c:	ba 80 aa 00 00       	mov    $0xaa80,%edx
    1461:	c7 45 d4 00 00 00 00 	movl   $0x0,-0x2c(%ebp)
    1468:	3c f0                	cmp    $0xf0,%al
    146a:	0f 85 44 ff ff ff    	jne    13b4 <polling+0x84>
    1470:	89 55 d0             	mov    %edx,-0x30(%ebp)
    1473:	50                   	push   %eax
    1474:	6a 01                	push   $0x1
    1476:	57                   	push   %edi
    1477:	53                   	push   %ebx
    1478:	e8 83 bb 00 00       	call   d000 <chardev_read@plt>
    147d:	83 c4 10             	add    $0x10,%esp
    1480:	48                   	dec    %eax
    1481:	0f 85 19 01 00 00    	jne    15a0 <polling+0x270>
    1487:	8a 45 e7             	mov    -0x19(%ebp),%al
    148a:	c7 45 d4 01 00 00 00 	movl   $0x1,-0x2c(%ebp)
    1491:	8b 55 d0             	mov    -0x30(%ebp),%edx
    1494:	e9 1b ff ff ff       	jmp    13b4 <polling+0x84>
    1499:	8d b4 26 00 00 00 00 	lea    0x0(%esi,%eiz,1),%esi
    14a0:	50                   	push   %eax
    14a1:	6a 01                	push   $0x1
    14a3:	57                   	push   %edi
    14a4:	53                   	push   %ebx
    14a5:	e8 56 bb 00 00       	call   d000 <chardev_read@plt>
    14aa:	83 c4 10             	add    $0x10,%esp
    14ad:	48                   	dec    %eax
    14ae:	0f 85 ec 00 00 00    	jne    15a0 <polling+0x270>
    14b4:	80 7d e7 14          	cmpb   $0x14,-0x19(%ebp)
    14b8:	0f 85 aa fe ff ff    	jne    1368 <polling+0x38>
    14be:	50                   	push   %eax
    14bf:	6a 01                	push   $0x1
    14c1:	57                   	push   %edi
    14c2:	53                   	push   %ebx
    14c3:	e8 38 bb 00 00       	call   d000 <chardev_read@plt>
    14c8:	83 c4 10             	add    $0x10,%esp
    14cb:	48                   	dec    %eax
    14cc:	0f 85 ce 00 00 00    	jne    15a0 <polling+0x270>
    14d2:	80 7d e7 77          	cmpb   $0x77,-0x19(%ebp)
    14d6:	0f 85 8c fe ff ff    	jne    1368 <polling+0x38>
    14dc:	50                   	push   %eax
    14dd:	6a 01                	push   $0x1
    14df:	57                   	push   %edi
    14e0:	53                   	push   %ebx
    14e1:	e8 1a bb 00 00       	call   d000 <chardev_read@plt>
    14e6:	83 c4 10             	add    $0x10,%esp
    14e9:	48                   	dec    %eax
    14ea:	0f 85 b0 00 00 00    	jne    15a0 <polling+0x270>
    14f0:	80 7d e7 e1          	cmpb   $0xe1,-0x19(%ebp)
    14f4:	0f 85 6e fe ff ff    	jne    1368 <polling+0x38>
    14fa:	50                   	push   %eax
    14fb:	6a 01                	push   $0x1
    14fd:	57                   	push   %edi
    14fe:	53                   	push   %ebx
    14ff:	e8 fc ba 00 00       	call   d000 <chardev_read@plt>
    1504:	83 c4 10             	add    $0x10,%esp
    1507:	48                   	dec    %eax
    1508:	0f 85 92 00 00 00    	jne    15a0 <polling+0x270>
    150e:	80 7d e7 f0          	cmpb   $0xf0,-0x19(%ebp)
    1512:	0f 85 50 fe ff ff    	jne    1368 <polling+0x38>
    1518:	50                   	push   %eax
    1519:	6a 01                	push   $0x1
    151b:	57                   	push   %edi
    151c:	53                   	push   %ebx
    151d:	e8 de ba 00 00       	call   d000 <chardev_read@plt>
    1522:	83 c4 10             	add    $0x10,%esp
    1525:	48                   	dec    %eax
    1526:	75 78                	jne    15a0 <polling+0x270>
    1528:	80 7d e7 14          	cmpb   $0x14,-0x19(%ebp)
    152c:	0f 85 36 fe ff ff    	jne    1368 <polling+0x38>
    1532:	56                   	push   %esi
    1533:	6a 01                	push   $0x1
    1535:	57                   	push   %edi
    1536:	53                   	push   %ebx
    1537:	e8 c4 ba 00 00       	call   d000 <chardev_read@plt>
    153c:	83 c4 10             	add    $0x10,%esp
    153f:	48                   	dec    %eax
    1540:	75 5e                	jne    15a0 <polling+0x270>
    1542:	80 7d e7 f0          	cmpb   $0xf0,-0x19(%ebp)
    1546:	0f 85 1c fe ff ff    	jne    1368 <polling+0x38>
    154c:	51                   	push   %ecx
    154d:	6a 01                	push   $0x1
    154f:	57                   	push   %edi
    1550:	53                   	push   %ebx
    1551:	e8 aa ba 00 00       	call   d000 <chardev_read@plt>
    1556:	83 c4 10             	add    $0x10,%esp
    1559:	48                   	dec    %eax
    155a:	75 44                	jne    15a0 <polling+0x270>
    155c:	80 7d e7 77          	cmpb   $0x77,-0x19(%ebp)
    1560:	0f 85 02 fe ff ff    	jne    1368 <polling+0x38>
    1566:	8b 45 08             	mov    0x8(%ebp),%eax
    1569:	83 ec 0c             	sub    $0xc,%esp
    156c:	8b 40 08             	mov    0x8(%eax),%eax
    156f:	50                   	push   %eax
    1570:	e8 9b b9 00 00       	call   cf10 <async_exchange_begin@plt>
    1575:	89 c6                	mov    %eax,%esi
    1577:	58                   	pop    %eax
    1578:	5a                   	pop    %edx
    1579:	6a 00                	push   $0x0
    157b:	6a 00                	push   $0x0
    157d:	6a 4d                	push   $0x4d
    157f:	6a 00                	push   $0x0
    1581:	68 00 04 00 00       	push   $0x400
    1586:	56                   	push   %esi
    1587:	e8 64 b6 00 00       	call   cbf0 <async_msg_4@plt>
    158c:	83 c4 14             	add    $0x14,%esp
    158f:	56                   	push   %esi
    1590:	e8 9b b7 00 00       	call   cd30 <async_exchange_end@plt>
    1595:	83 c4 10             	add    $0x10,%esp
    1598:	e9 cb fd ff ff       	jmp    1368 <polling+0x38>
    159d:	8d 76 00             	lea    0x0(%esi),%esi
    15a0:	8d 65 f4             	lea    -0xc(%ebp),%esp
    15a3:	b8 f6 fe ff ff       	mov    $0xfffffef6,%eax
    15a8:	5b                   	pop    %ebx
    15a9:	5e                   	pop    %esi
    15aa:	5f                   	pop    %edi
    15ab:	5d                   	pop    %ebp
    15ac:	c3                   	ret    
    15ad:	53                   	push   %ebx
    15ae:	68 ce 00 00 00       	push   $0xce
    15b3:	68 26 aa 00 00       	push   $0xaa26
    15b8:	68 2e aa 00 00       	push   $0xaa2e
    15bd:	e8 7e b7 00 00       	call   cd40 <assert_abort@plt>
    15c2:	56                   	push   %esi
    15c3:	68 cd 00 00 00       	push   $0xcd
    15c8:	68 26 aa 00 00       	push   $0xaa26
    15cd:	68 01 a9 00 00       	push   $0xa901
    15d2:	e8 69 b7 00 00       	call   cd40 <assert_abort@plt>
    15d7:	89 f6                	mov    %esi,%esi
    15d9:	8d bc 27 00 00 00 00 	lea    0x0(%edi,%eiz,1),%edi

000015e0 <at_kbd_init>:
    15e0:	55                   	push   %ebp
    15e1:	89 e5                	mov    %esp,%ebp
    15e3:	56                   	push   %esi
    15e4:	53                   	push   %ebx
    15e5:	8b 5d 08             	mov    0x8(%ebp),%ebx
    15e8:	8b 75 0c             	mov    0xc(%ebp),%esi
    15eb:	85 db                	test   %ebx,%ebx
    15ed:	0f 84 51 01 00 00    	je     1744 <at_kbd_init+0x164>
    15f3:	85 f6                	test   %esi,%esi
    15f5:	0f 84 34 01 00 00    	je     172f <at_kbd_init+0x14f>
    15fb:	83 ec 0c             	sub    $0xc,%esp
    15fe:	c7 43 08 00 00 00 00 	movl   $0x0,0x8(%ebx)
    1605:	56                   	push   %esi
    1606:	e8 c5 0a 00 00       	call   20d0 <ddf_dev_parent_sess_create>
    160b:	83 c4 10             	add    $0x10,%esp
    160e:	89 43 04             	mov    %eax,0x4(%ebx)
    1611:	85 c0                	test   %eax,%eax
    1613:	0f 84 e0 00 00 00    	je     16f9 <at_kbd_init+0x119>
    1619:	50                   	push   %eax
    161a:	68 01 a9 00 00       	push   $0xa901
    161f:	6a 02                	push   $0x2
    1621:	56                   	push   %esi
    1622:	e8 69 0b 00 00       	call   2190 <ddf_fun_create>
    1627:	83 c4 10             	add    $0x10,%esp
    162a:	89 03                	mov    %eax,(%ebx)
    162c:	85 c0                	test   %eax,%eax
    162e:	0f 84 e0 00 00 00    	je     1714 <at_kbd_init+0x134>
    1634:	51                   	push   %ecx
    1635:	51                   	push   %ecx
    1636:	68 c0 ee 00 00       	push   $0xeec0
    163b:	50                   	push   %eax
    163c:	e8 ff 10 00 00       	call   2740 <ddf_fun_set_ops>
    1641:	8b 03                	mov    (%ebx),%eax
    1643:	5e                   	pop    %esi
    1644:	50                   	push   %eax
    1645:	e8 06 0e 00 00       	call   2450 <ddf_fun_bind>
    164a:	83 c4 10             	add    $0x10,%esp
    164d:	85 c0                	test   %eax,%eax
    164f:	75 47                	jne    1698 <at_kbd_init+0xb8>
    1651:	50                   	push   %eax
    1652:	50                   	push   %eax
    1653:	8b 03                	mov    (%ebx),%eax
    1655:	68 5a aa 00 00       	push   $0xaa5a
    165a:	50                   	push   %eax
    165b:	e8 40 11 00 00       	call   27a0 <ddf_fun_add_to_category>
    1660:	83 c4 10             	add    $0x10,%esp
    1663:	89 c6                	mov    %eax,%esi
    1665:	85 c0                	test   %eax,%eax
    1667:	75 57                	jne    16c0 <at_kbd_init+0xe0>
    1669:	50                   	push   %eax
    166a:	6a 00                	push   $0x0
    166c:	53                   	push   %ebx
    166d:	68 30 13 00 00       	push   $0x1330
    1672:	e8 39 b9 00 00       	call   cfb0 <fibril_create_generic@plt>
    1677:	83 c4 10             	add    $0x10,%esp
    167a:	89 43 0c             	mov    %eax,0xc(%ebx)
    167d:	85 c0                	test   %eax,%eax
    167f:	74 6f                	je     16f0 <at_kbd_init+0x110>
    1681:	83 ec 0c             	sub    $0xc,%esp
    1684:	50                   	push   %eax
    1685:	e8 36 b9 00 00       	call   cfc0 <fibril_add_ready@plt>
    168a:	83 c4 10             	add    $0x10,%esp
    168d:	8d 65 f8             	lea    -0x8(%ebp),%esp
    1690:	89 f0                	mov    %esi,%eax
    1692:	5b                   	pop    %ebx
    1693:	5e                   	pop    %esi
    1694:	5d                   	pop    %ebp
    1695:	c3                   	ret    
    1696:	66 90                	xchg   %ax,%ax
    1698:	50                   	push   %eax
    1699:	50                   	push   %eax
    169a:	68 6c a9 00 00       	push   $0xa96c
    169f:	6a 01                	push   $0x1
    16a1:	e8 ba 12 00 00       	call   2960 <ddf_msg>
    16a6:	8b 13                	mov    (%ebx),%edx
    16a8:	58                   	pop    %eax
    16a9:	52                   	push   %edx
    16aa:	be f7 ff ff ff       	mov    $0xfffffff7,%esi
    16af:	e8 6c 0c 00 00       	call   2320 <ddf_fun_destroy>
    16b4:	83 c4 10             	add    $0x10,%esp
    16b7:	eb d4                	jmp    168d <at_kbd_init+0xad>
    16b9:	8d b4 26 00 00 00 00 	lea    0x0(%esi,%eiz,1),%esi
    16c0:	50                   	push   %eax
    16c1:	50                   	push   %eax
    16c2:	68 8c a9 00 00       	push   $0xa98c
    16c7:	6a 01                	push   $0x1
    16c9:	e8 92 12 00 00       	call   2960 <ddf_msg>
    16ce:	8b 13                	mov    (%ebx),%edx
    16d0:	58                   	pop    %eax
    16d1:	52                   	push   %edx
    16d2:	e8 a9 0e 00 00       	call   2580 <ddf_fun_unbind>
    16d7:	8b 1b                	mov    (%ebx),%ebx
    16d9:	59                   	pop    %ecx
    16da:	53                   	push   %ebx
    16db:	be fe ff ff ff       	mov    $0xfffffffe,%esi
    16e0:	e8 3b 0c 00 00       	call   2320 <ddf_fun_destroy>
    16e5:	83 c4 10             	add    $0x10,%esp
    16e8:	eb a3                	jmp    168d <at_kbd_init+0xad>
    16ea:	8d b6 00 00 00 00    	lea    0x0(%esi),%esi
    16f0:	56                   	push   %esi
    16f1:	56                   	push   %esi
    16f2:	68 c4 a9 00 00       	push   $0xa9c4
    16f7:	eb ce                	jmp    16c7 <at_kbd_init+0xe7>
    16f9:	50                   	push   %eax
    16fa:	50                   	push   %eax
    16fb:	68 2c a9 00 00       	push   $0xa92c
    1700:	6a 01                	push   $0x1
    1702:	be f6 fe ff ff       	mov    $0xfffffef6,%esi
    1707:	e8 54 12 00 00       	call   2960 <ddf_msg>
    170c:	83 c4 10             	add    $0x10,%esp
    170f:	e9 79 ff ff ff       	jmp    168d <at_kbd_init+0xad>
    1714:	50                   	push   %eax
    1715:	50                   	push   %eax
    1716:	68 4c a9 00 00       	push   $0xa94c
    171b:	6a 01                	push   $0x1
    171d:	be fe ff ff ff       	mov    $0xfffffffe,%esi
    1722:	e8 39 12 00 00       	call   2960 <ddf_msg>
    1727:	83 c4 10             	add    $0x10,%esp
    172a:	e9 5e ff ff ff       	jmp    168d <at_kbd_init+0xad>
    172f:	50                   	push   %eax
    1730:	68 6d 01 00 00       	push   $0x16d
    1735:	68 26 aa 00 00       	push   $0xaa26
    173a:	68 56 aa 00 00       	push   $0xaa56
    173f:	e8 fc b5 00 00       	call   cd40 <assert_abort@plt>
    1744:	50                   	push   %eax
    1745:	68 6c 01 00 00       	push   $0x16c
    174a:	68 26 aa 00 00       	push   $0xaa26
    174f:	68 01 a9 00 00       	push   $0xa901
    1754:	e8 e7 b5 00 00       	call   cd40 <assert_abort@plt>
    1759:	66 90                	xchg   %ax,%ax
    175b:	66 90                	xchg   %ax,%ax
    175d:	66 90                	xchg   %ax,%ax
    175f:	90                   	nop

00001760 <fun_del_ref>:
    1760:	55                   	push   %ebp
    1761:	83 ca ff             	or     $0xffffffff,%edx
    1764:	89 e5                	mov    %esp,%ebp
    1766:	57                   	push   %edi
    1767:	56                   	push   %esi
    1768:	53                   	push   %ebx
    1769:	83 ec 1c             	sub    $0x1c,%esp
    176c:	8b 70 0c             	mov    0xc(%eax),%esi
    176f:	f0 0f c1 50 08       	lock xadd %edx,0x8(%eax)
    1774:	4a                   	dec    %edx
    1775:	74 69                	je     17e0 <fun_del_ref+0x80>
    1777:	83 c8 ff             	or     $0xffffffff,%eax
    177a:	f0 0f c1 46 04       	lock xadd %eax,0x4(%esi)
    177f:	48                   	dec    %eax
    1780:	74 0e                	je     1790 <fun_del_ref+0x30>
    1782:	8d 65 f4             	lea    -0xc(%ebp),%esp
    1785:	5b                   	pop    %ebx
    1786:	5e                   	pop    %esi
    1787:	5f                   	pop    %edi
    1788:	5d                   	pop    %ebp
    1789:	c3                   	ret    
    178a:	8d b6 00 00 00 00    	lea    0x0(%esi),%esi
    1790:	8b 46 08             	mov    0x8(%esi),%eax
    1793:	85 c0                	test   %eax,%eax
    1795:	74 0c                	je     17a3 <fun_del_ref+0x43>
    1797:	83 ec 0c             	sub    $0xc,%esp
    179a:	50                   	push   %eax
    179b:	e8 40 b4 00 00       	call   cbe0 <async_hangup@plt>
    17a0:	83 c4 10             	add    $0x10,%esp
    17a3:	8b 46 10             	mov    0x10(%esi),%eax
    17a6:	85 c0                	test   %eax,%eax
    17a8:	74 0c                	je     17b6 <fun_del_ref+0x56>
    17aa:	83 ec 0c             	sub    $0xc,%esp
    17ad:	50                   	push   %eax
    17ae:	e8 7d b8 00 00       	call   d030 <free@plt>
    17b3:	83 c4 10             	add    $0x10,%esp
    17b6:	8b 46 0c             	mov    0xc(%esi),%eax
    17b9:	85 c0                	test   %eax,%eax
    17bb:	74 0c                	je     17c9 <fun_del_ref+0x69>
    17bd:	83 ec 0c             	sub    $0xc,%esp
    17c0:	50                   	push   %eax
    17c1:	e8 6a b8 00 00       	call   d030 <free@plt>
    17c6:	83 c4 10             	add    $0x10,%esp
    17c9:	83 ec 0c             	sub    $0xc,%esp
    17cc:	56                   	push   %esi
    17cd:	e8 5e b8 00 00       	call   d030 <free@plt>
    17d2:	83 c4 10             	add    $0x10,%esp
    17d5:	8d 65 f4             	lea    -0xc(%ebp),%esp
    17d8:	5b                   	pop    %ebx
    17d9:	5e                   	pop    %esi
    17da:	5f                   	pop    %edi
    17db:	5d                   	pop    %ebp
    17dc:	c3                   	ret    
    17dd:	8d 76 00             	lea    0x0(%esi),%esi
    17e0:	8b 58 1c             	mov    0x1c(%eax),%ebx
    17e3:	89 c7                	mov    %eax,%edi
    17e5:	8d 40 18             	lea    0x18(%eax),%eax
    17e8:	89 45 e4             	mov    %eax,-0x1c(%ebp)
    17eb:	39 d8                	cmp    %ebx,%eax
    17ed:	74 49                	je     1838 <fun_del_ref+0xd8>
    17ef:	90                   	nop
    17f0:	8b 0b                	mov    (%ebx),%ecx
    17f2:	85 c9                	test   %ecx,%ecx
    17f4:	74 0e                	je     1804 <fun_del_ref+0xa4>
    17f6:	8b 53 04             	mov    0x4(%ebx),%edx
    17f9:	85 d2                	test   %edx,%edx
    17fb:	74 07                	je     1804 <fun_del_ref+0xa4>
    17fd:	89 0a                	mov    %ecx,(%edx)
    17ff:	8b 0b                	mov    (%ebx),%ecx
    1801:	89 51 04             	mov    %edx,0x4(%ecx)
    1804:	8b 53 08             	mov    0x8(%ebx),%edx
    1807:	c7 03 00 00 00 00    	movl   $0x0,(%ebx)
    180d:	c7 43 04 00 00 00 00 	movl   $0x0,0x4(%ebx)
    1814:	85 d2                	test   %edx,%edx
    1816:	74 0c                	je     1824 <fun_del_ref+0xc4>
    1818:	83 ec 0c             	sub    $0xc,%esp
    181b:	52                   	push   %edx
    181c:	e8 0f b8 00 00       	call   d030 <free@plt>
    1821:	83 c4 10             	add    $0x10,%esp
    1824:	83 ec 0c             	sub    $0xc,%esp
    1827:	53                   	push   %ebx
    1828:	e8 03 b8 00 00       	call   d030 <free@plt>
    182d:	8b 5f 1c             	mov    0x1c(%edi),%ebx
    1830:	83 c4 10             	add    $0x10,%esp
    1833:	3b 5d e4             	cmp    -0x1c(%ebp),%ebx
    1836:	75 b8                	jne    17f0 <fun_del_ref+0x90>
    1838:	8b 57 20             	mov    0x20(%edi),%edx
    183b:	85 d2                	test   %edx,%edx
    183d:	74 0c                	je     184b <fun_del_ref+0xeb>
    183f:	83 ec 0c             	sub    $0xc,%esp
    1842:	52                   	push   %edx
    1843:	e8 e8 b7 00 00       	call   d030 <free@plt>
    1848:	83 c4 10             	add    $0x10,%esp
    184b:	8b 57 14             	mov    0x14(%edi),%edx
    184e:	85 d2                	test   %edx,%edx
    1850:	74 0c                	je     185e <fun_del_ref+0xfe>
    1852:	83 ec 0c             	sub    $0xc,%esp
    1855:	52                   	push   %edx
    1856:	e8 d5 b7 00 00       	call   d030 <free@plt>
    185b:	83 c4 10             	add    $0x10,%esp
    185e:	83 ec 0c             	sub    $0xc,%esp
    1861:	57                   	push   %edi
    1862:	e8 c9 b7 00 00       	call   d030 <free@plt>
    1867:	83 c4 10             	add    $0x10,%esp
    186a:	e9 08 ff ff ff       	jmp    1777 <fun_del_ref+0x17>
    186f:	90                   	nop

00001870 <driver_connection_gen.constprop.7>:
    1870:	55                   	push   %ebp
    1871:	89 e5                	mov    %esp,%ebp
    1873:	57                   	push   %edi
    1874:	56                   	push   %esi
    1875:	53                   	push   %ebx
    1876:	83 ec 58             	sub    $0x58,%esp
    1879:	89 d3                	mov    %edx,%ebx
    187b:	8b 72 08             	mov    0x8(%edx),%esi
    187e:	89 45 b4             	mov    %eax,-0x4c(%ebp)
    1881:	68 08 ef 00 00       	push   $0xef08
    1886:	e8 c5 b7 00 00       	call   d050 <fibril_mutex_lock@plt>
    188b:	c7 04 24 08 ef 00 00 	movl   $0xef08,(%esp)
    1892:	e8 b9 b3 00 00       	call   cc50 <fibril_mutex_is_locked@plt>
    1897:	83 c4 10             	add    $0x10,%esp
    189a:	84 c0                	test   %al,%al
    189c:	0f 84 71 02 00 00    	je     1b13 <driver_connection_gen.constprop.7+0x2a3>
    18a2:	a1 1c ef 00 00       	mov    0xef1c,%eax
    18a7:	3d 18 ef 00 00       	cmp    $0xef18,%eax
    18ac:	8d 78 d4             	lea    -0x2c(%eax),%edi
    18af:	75 18                	jne    18c9 <driver_connection_gen.constprop.7+0x59>
    18b1:	e9 22 02 00 00       	jmp    1ad8 <driver_connection_gen.constprop.7+0x268>
    18b6:	66 90                	xchg   %ax,%ax
    18b8:	8b 40 04             	mov    0x4(%eax),%eax
    18bb:	3d 18 ef 00 00       	cmp    $0xef18,%eax
    18c0:	8d 78 d4             	lea    -0x2c(%eax),%edi
    18c3:	0f 84 0f 02 00 00    	je     1ad8 <driver_connection_gen.constprop.7+0x268>
    18c9:	3b 77 04             	cmp    0x4(%edi),%esi
    18cc:	75 ea                	jne    18b8 <driver_connection_gen.constprop.7+0x48>
    18ce:	8b 47 0c             	mov    0xc(%edi),%eax
    18d1:	f0 ff 40 04          	lock incl 0x4(%eax)
    18d5:	f0 ff 47 08          	lock incl 0x8(%edi)
    18d9:	83 ec 0c             	sub    $0xc,%esp
    18dc:	68 08 ef 00 00       	push   $0xef08
    18e1:	e8 da b4 00 00       	call   cdc0 <fibril_mutex_unlock@plt>
    18e6:	8b 47 28             	mov    0x28(%edi),%eax
    18e9:	83 c4 10             	add    $0x10,%esp
    18ec:	85 c0                	test   %eax,%eax
    18ee:	74 20                	je     1910 <driver_connection_gen.constprop.7+0xa0>
    18f0:	8b 55 b4             	mov    -0x4c(%ebp),%edx
    18f3:	56                   	push   %esi
    18f4:	57                   	push   %edi
    18f5:	53                   	push   %ebx
    18f6:	52                   	push   %edx
    18f7:	ff d0                	call   *%eax
    18f9:	89 f8                	mov    %edi,%eax
    18fb:	e8 60 fe ff ff       	call   1760 <fun_del_ref>
    1900:	83 c4 10             	add    $0x10,%esp
    1903:	8d 65 f4             	lea    -0xc(%ebp),%esp
    1906:	5b                   	pop    %ebx
    1907:	5e                   	pop    %esi
    1908:	5f                   	pop    %edi
    1909:	5d                   	pop    %ebp
    190a:	c3                   	ret    
    190b:	90                   	nop
    190c:	8d 74 26 00          	lea    0x0(%esi,%eiz,1),%esi
    1910:	8b 47 24             	mov    0x24(%edi),%eax
    1913:	85 c0                	test   %eax,%eax
    1915:	0f 84 a5 01 00 00    	je     1ac0 <driver_connection_gen.constprop.7+0x250>
    191b:	8b 00                	mov    (%eax),%eax
    191d:	85 c0                	test   %eax,%eax
    191f:	0f 84 9b 01 00 00    	je     1ac0 <driver_connection_gen.constprop.7+0x250>
    1925:	83 ec 0c             	sub    $0xc,%esp
    1928:	57                   	push   %edi
    1929:	ff d0                	call   *%eax
    192b:	8b 4d b4             	mov    -0x4c(%ebp),%ecx
    192e:	89 c3                	mov    %eax,%ebx
    1930:	58                   	pop    %eax
    1931:	5a                   	pop    %edx
    1932:	53                   	push   %ebx
    1933:	51                   	push   %ecx
    1934:	e8 a7 b3 00 00       	call   cce0 <async_answer_0@plt>
    1939:	83 c4 10             	add    $0x10,%esp
    193c:	85 db                	test   %ebx,%ebx
    193e:	0f 85 70 01 00 00    	jne    1ab4 <driver_connection_gen.constprop.7+0x244>
    1944:	8d 74 26 00          	lea    0x0(%esi,%eiz,1),%esi
    1948:	50                   	push   %eax
    1949:	50                   	push   %eax
    194a:	8d 45 c4             	lea    -0x3c(%ebp),%eax
    194d:	6a 00                	push   $0x0
    194f:	50                   	push   %eax
    1950:	e8 7b b5 00 00       	call   ced0 <async_get_call_timeout@plt>
    1955:	8b 5d c4             	mov    -0x3c(%ebp),%ebx
    1958:	83 c4 10             	add    $0x10,%esp
    195b:	89 45 b4             	mov    %eax,-0x4c(%ebp)
    195e:	85 db                	test   %ebx,%ebx
    1960:	0f 84 e2 00 00 00    	je     1a48 <driver_connection_gen.constprop.7+0x1d8>
    1966:	83 ec 0c             	sub    $0xc,%esp
    1969:	81 eb 00 04 00 00    	sub    $0x400,%ebx
    196f:	53                   	push   %ebx
    1970:	e8 cb 0f 00 00       	call   2940 <is_valid_iface_idx>
    1975:	83 c4 10             	add    $0x10,%esp
    1978:	84 c0                	test   %al,%al
    197a:	75 2c                	jne    19a8 <driver_connection_gen.constprop.7+0x138>
    197c:	8b 47 24             	mov    0x24(%edi),%eax
    197f:	85 c0                	test   %eax,%eax
    1981:	0f 84 91 00 00 00    	je     1a18 <driver_connection_gen.constprop.7+0x1a8>
    1987:	8b 40 44             	mov    0x44(%eax),%eax
    198a:	85 c0                	test   %eax,%eax
    198c:	0f 84 86 00 00 00    	je     1a18 <driver_connection_gen.constprop.7+0x1a8>
    1992:	8d 4d c4             	lea    -0x3c(%ebp),%ecx
    1995:	52                   	push   %edx
    1996:	51                   	push   %ecx
    1997:	8b 4d b4             	mov    -0x4c(%ebp),%ecx
    199a:	51                   	push   %ecx
    199b:	57                   	push   %edi
    199c:	ff d0                	call   *%eax
    199e:	83 c4 10             	add    $0x10,%esp
    19a1:	eb a5                	jmp    1948 <driver_connection_gen.constprop.7+0xd8>
    19a3:	90                   	nop
    19a4:	8d 74 26 00          	lea    0x0(%esi,%eiz,1),%esi
    19a8:	83 ec 0c             	sub    $0xc,%esp
    19ab:	53                   	push   %ebx
    19ac:	e8 8f 0f 00 00       	call   2940 <is_valid_iface_idx>
    19b1:	83 c4 10             	add    $0x10,%esp
    19b4:	84 c0                	test   %al,%al
    19b6:	0f 84 69 01 00 00    	je     1b25 <driver_connection_gen.constprop.7+0x2b5>
    19bc:	8b 47 24             	mov    0x24(%edi),%eax
    19bf:	85 c0                	test   %eax,%eax
    19c1:	0f 84 b9 00 00 00    	je     1a80 <driver_connection_gen.constprop.7+0x210>
    19c7:	8b 44 98 08          	mov    0x8(%eax,%ebx,4),%eax
    19cb:	89 45 b0             	mov    %eax,-0x50(%ebp)
    19ce:	85 c0                	test   %eax,%eax
    19d0:	0f 84 aa 00 00 00    	je     1a80 <driver_connection_gen.constprop.7+0x210>
    19d6:	83 ec 0c             	sub    $0xc,%esp
    19d9:	53                   	push   %ebx
    19da:	e8 11 0f 00 00       	call   28f0 <get_remote_iface>
    19df:	83 c4 10             	add    $0x10,%esp
    19e2:	85 c0                	test   %eax,%eax
    19e4:	0f 84 50 01 00 00    	je     1b3a <driver_connection_gen.constprop.7+0x2ca>
    19ea:	8b 4d c8             	mov    -0x38(%ebp),%ecx
    19ed:	52                   	push   %edx
    19ee:	52                   	push   %edx
    19ef:	51                   	push   %ecx
    19f0:	50                   	push   %eax
    19f1:	e8 2a 0f 00 00       	call   2920 <get_remote_method>
    19f6:	83 c4 10             	add    $0x10,%esp
    19f9:	85 c0                	test   %eax,%eax
    19fb:	0f 84 9f 00 00 00    	je     1aa0 <driver_connection_gen.constprop.7+0x230>
    1a01:	8d 55 c4             	lea    -0x3c(%ebp),%edx
    1a04:	8b 4d b0             	mov    -0x50(%ebp),%ecx
    1a07:	52                   	push   %edx
    1a08:	8b 55 b4             	mov    -0x4c(%ebp),%edx
    1a0b:	52                   	push   %edx
    1a0c:	51                   	push   %ecx
    1a0d:	57                   	push   %edi
    1a0e:	ff d0                	call   *%eax
    1a10:	83 c4 10             	add    $0x10,%esp
    1a13:	e9 30 ff ff ff       	jmp    1948 <driver_connection_gen.constprop.7+0xd8>
    1a18:	50                   	push   %eax
    1a19:	a1 8c f0 00 00       	mov    0xf08c,%eax
    1a1e:	53                   	push   %ebx
    1a1f:	8b 00                	mov    (%eax),%eax
    1a21:	50                   	push   %eax
    1a22:	68 00 b0 00 00       	push   $0xb000
    1a27:	e8 a4 b1 00 00       	call   cbd0 <printf@plt>
    1a2c:	5b                   	pop    %ebx
    1a2d:	58                   	pop    %eax
    1a2e:	8b 45 b4             	mov    -0x4c(%ebp),%eax
    1a31:	6a f5                	push   $0xfffffff5
    1a33:	50                   	push   %eax
    1a34:	e8 a7 b2 00 00       	call   cce0 <async_answer_0@plt>
    1a39:	83 c4 10             	add    $0x10,%esp
    1a3c:	e9 07 ff ff ff       	jmp    1948 <driver_connection_gen.constprop.7+0xd8>
    1a41:	8d b4 26 00 00 00 00 	lea    0x0(%esi,%eiz,1),%esi
    1a48:	8b 47 24             	mov    0x24(%edi),%eax
    1a4b:	85 c0                	test   %eax,%eax
    1a4d:	74 10                	je     1a5f <driver_connection_gen.constprop.7+0x1ef>
    1a4f:	8b 40 04             	mov    0x4(%eax),%eax
    1a52:	85 c0                	test   %eax,%eax
    1a54:	74 09                	je     1a5f <driver_connection_gen.constprop.7+0x1ef>
    1a56:	83 ec 0c             	sub    $0xc,%esp
    1a59:	57                   	push   %edi
    1a5a:	ff d0                	call   *%eax
    1a5c:	83 c4 10             	add    $0x10,%esp
    1a5f:	8b 75 b4             	mov    -0x4c(%ebp),%esi
    1a62:	53                   	push   %ebx
    1a63:	53                   	push   %ebx
    1a64:	6a 00                	push   $0x0
    1a66:	56                   	push   %esi
    1a67:	e8 74 b2 00 00       	call   cce0 <async_answer_0@plt>
    1a6c:	89 f8                	mov    %edi,%eax
    1a6e:	e8 ed fc ff ff       	call   1760 <fun_del_ref>
    1a73:	83 c4 10             	add    $0x10,%esp
    1a76:	8d 65 f4             	lea    -0xc(%ebp),%esp
    1a79:	5b                   	pop    %ebx
    1a7a:	5e                   	pop    %esi
    1a7b:	5f                   	pop    %edi
    1a7c:	5d                   	pop    %ebp
    1a7d:	c3                   	ret    
    1a7e:	66 90                	xchg   %ax,%ax
    1a80:	50                   	push   %eax
    1a81:	50                   	push   %eax
    1a82:	a1 8c f0 00 00       	mov    0xf08c,%eax
    1a87:	8b 00                	mov    (%eax),%eax
    1a89:	50                   	push   %eax
    1a8a:	68 3c b0 00 00       	push   $0xb03c
    1a8f:	e8 3c b1 00 00       	call   cbd0 <printf@plt>
    1a94:	83 c4 0c             	add    $0xc,%esp
    1a97:	53                   	push   %ebx
    1a98:	56                   	push   %esi
    1a99:	68 60 b0 00 00       	push   $0xb060
    1a9e:	eb 87                	jmp    1a27 <driver_connection_gen.constprop.7+0x1b7>
    1aa0:	50                   	push   %eax
    1aa1:	50                   	push   %eax
    1aa2:	a1 8c f0 00 00       	mov    0xf08c,%eax
    1aa7:	8b 00                	mov    (%eax),%eax
    1aa9:	50                   	push   %eax
    1aaa:	68 98 b0 00 00       	push   $0xb098
    1aaf:	e9 73 ff ff ff       	jmp    1a27 <driver_connection_gen.constprop.7+0x1b7>
    1ab4:	89 f8                	mov    %edi,%eax
    1ab6:	e8 a5 fc ff ff       	call   1760 <fun_del_ref>
    1abb:	e9 43 fe ff ff       	jmp    1903 <driver_connection_gen.constprop.7+0x93>
    1ac0:	8b 55 b4             	mov    -0x4c(%ebp),%edx
    1ac3:	50                   	push   %eax
    1ac4:	50                   	push   %eax
    1ac5:	6a 00                	push   $0x0
    1ac7:	52                   	push   %edx
    1ac8:	e8 13 b2 00 00       	call   cce0 <async_answer_0@plt>
    1acd:	83 c4 10             	add    $0x10,%esp
    1ad0:	e9 73 fe ff ff       	jmp    1948 <driver_connection_gen.constprop.7+0xd8>
    1ad5:	8d 76 00             	lea    0x0(%esi),%esi
    1ad8:	83 ec 0c             	sub    $0xc,%esp
    1adb:	68 08 ef 00 00       	push   $0xef08
    1ae0:	e8 db b2 00 00       	call   cdc0 <fibril_mutex_unlock@plt>
    1ae5:	a1 8c f0 00 00       	mov    0xf08c,%eax
    1aea:	83 c4 0c             	add    $0xc,%esp
    1aed:	8b 08                	mov    (%eax),%ecx
    1aef:	56                   	push   %esi
    1af0:	51                   	push   %ecx
    1af1:	68 d4 b0 00 00       	push   $0xb0d4
    1af6:	e8 d5 b0 00 00       	call   cbd0 <printf@plt>
    1afb:	8b 7d b4             	mov    -0x4c(%ebp),%edi
    1afe:	5b                   	pop    %ebx
    1aff:	5e                   	pop    %esi
    1b00:	6a ff                	push   $0xffffffff
    1b02:	57                   	push   %edi
    1b03:	e8 d8 b1 00 00       	call   cce0 <async_answer_0@plt>
    1b08:	83 c4 10             	add    $0x10,%esp
    1b0b:	8d 65 f4             	lea    -0xc(%ebp),%esp
    1b0e:	5b                   	pop    %ebx
    1b0f:	5e                   	pop    %esi
    1b10:	5f                   	pop    %edi
    1b11:	5d                   	pop    %ebp
    1b12:	c3                   	ret    
    1b13:	51                   	push   %ecx
    1b14:	6a 6b                	push   $0x6b
    1b16:	68 7c ae 00 00       	push   $0xae7c
    1b1b:	68 d4 af 00 00       	push   $0xafd4
    1b20:	e8 1b b2 00 00       	call   cd40 <assert_abort@plt>
    1b25:	50                   	push   %eax
    1b26:	68 fb 02 00 00       	push   $0x2fb
    1b2b:	68 7c ae 00 00       	push   $0xae7c
    1b30:	68 8d ae 00 00       	push   $0xae8d
    1b35:	e8 06 b2 00 00       	call   cd40 <assert_abort@plt>
    1b3a:	53                   	push   %ebx
    1b3b:	68 aa 01 00 00       	push   $0x1aa
    1b40:	68 7c ae 00 00       	push   $0xae7c
    1b45:	68 a5 ae 00 00       	push   $0xaea5
    1b4a:	e8 f1 b1 00 00       	call   cd40 <assert_abort@plt>
    1b4f:	90                   	nop

00001b50 <driver_connection_driver>:
    1b50:	55                   	push   %ebp
    1b51:	89 e5                	mov    %esp,%ebp
    1b53:	8b 55 0c             	mov    0xc(%ebp),%edx
    1b56:	8b 45 08             	mov    0x8(%ebp),%eax
    1b59:	5d                   	pop    %ebp
    1b5a:	e9 11 fd ff ff       	jmp    1870 <driver_connection_gen.constprop.7>
    1b5f:	90                   	nop

00001b60 <driver_connection_client>:
    1b60:	55                   	push   %ebp
    1b61:	89 e5                	mov    %esp,%ebp
    1b63:	8b 55 0c             	mov    0xc(%ebp),%edx
    1b66:	8b 45 08             	mov    0x8(%ebp),%eax
    1b69:	5d                   	pop    %ebp
    1b6a:	e9 01 fd ff ff       	jmp    1870 <driver_connection_gen.constprop.7>
    1b6f:	90                   	nop

00001b70 <driver_connection_devman>:
    1b70:	55                   	push   %ebp
    1b71:	89 e5                	mov    %esp,%ebp
    1b73:	57                   	push   %edi
    1b74:	56                   	push   %esi
    1b75:	53                   	push   %ebx
    1b76:	83 ec 54             	sub    $0x54,%esp
    1b79:	8d 75 c4             	lea    -0x3c(%ebp),%esi
    1b7c:	8b 45 08             	mov    0x8(%ebp),%eax
    1b7f:	6a 00                	push   $0x0
    1b81:	50                   	push   %eax
    1b82:	e8 59 b1 00 00       	call   cce0 <async_answer_0@plt>
    1b87:	83 c4 10             	add    $0x10,%esp
    1b8a:	8d b6 00 00 00 00    	lea    0x0(%esi),%esi
    1b90:	50                   	push   %eax
    1b91:	50                   	push   %eax
    1b92:	6a 00                	push   $0x0
    1b94:	56                   	push   %esi
    1b95:	e8 36 b3 00 00       	call   ced0 <async_get_call_timeout@plt>
    1b9a:	83 c4 10             	add    $0x10,%esp
    1b9d:	89 c3                	mov    %eax,%ebx
    1b9f:	8b 45 c4             	mov    -0x3c(%ebp),%eax
    1ba2:	85 c0                	test   %eax,%eax
    1ba4:	0f 84 de 03 00 00    	je     1f88 <driver_connection_devman+0x418>
    1baa:	2d 00 04 00 00       	sub    $0x400,%eax
    1baf:	83 f8 04             	cmp    $0x4,%eax
    1bb2:	0f 87 b8 03 00 00    	ja     1f70 <driver_connection_devman+0x400>
    1bb8:	8b 7d c8             	mov    -0x38(%ebp),%edi
    1bbb:	ff 24 85 84 b1 00 00 	jmp    *0xb184(,%eax,4)
    1bc2:	8d b6 00 00 00 00    	lea    0x0(%esi),%esi
    1bc8:	83 ec 0c             	sub    $0xc,%esp
    1bcb:	68 08 ef 00 00       	push   $0xef08
    1bd0:	e8 7b b4 00 00       	call   d050 <fibril_mutex_lock@plt>
    1bd5:	c7 04 24 08 ef 00 00 	movl   $0xef08,(%esp)
    1bdc:	e8 6f b0 00 00       	call   cc50 <fibril_mutex_is_locked@plt>
    1be1:	83 c4 10             	add    $0x10,%esp
    1be4:	84 c0                	test   %al,%al
    1be6:	0f 84 5a 04 00 00    	je     2046 <driver_connection_devman+0x4d6>
    1bec:	a1 1c ef 00 00       	mov    0xef1c,%eax
    1bf1:	3d 18 ef 00 00       	cmp    $0xef18,%eax
    1bf6:	8d 50 d4             	lea    -0x2c(%eax),%edx
    1bf9:	75 16                	jne    1c11 <driver_connection_devman+0xa1>
    1bfb:	e9 90 03 00 00       	jmp    1f90 <driver_connection_devman+0x420>
    1c00:	8b 40 04             	mov    0x4(%eax),%eax
    1c03:	3d 18 ef 00 00       	cmp    $0xef18,%eax
    1c08:	8d 50 d4             	lea    -0x2c(%eax),%edx
    1c0b:	0f 84 7f 03 00 00    	je     1f90 <driver_connection_devman+0x420>
    1c11:	3b 7a 04             	cmp    0x4(%edx),%edi
    1c14:	75 ea                	jne    1c00 <driver_connection_devman+0x90>
    1c16:	8b 42 0c             	mov    0xc(%edx),%eax
    1c19:	f0 ff 40 04          	lock incl 0x4(%eax)
    1c1d:	f0 ff 42 08          	lock incl 0x8(%edx)
    1c21:	83 ec 0c             	sub    $0xc,%esp
    1c24:	89 55 b4             	mov    %edx,-0x4c(%ebp)
    1c27:	68 08 ef 00 00       	push   $0xef08
    1c2c:	e8 8f b1 00 00       	call   cdc0 <fibril_mutex_unlock@plt>
    1c31:	a1 8c f0 00 00       	mov    0xf08c,%eax
    1c36:	83 c4 10             	add    $0x10,%esp
    1c39:	8b 55 b4             	mov    -0x4c(%ebp),%edx
    1c3c:	8b 40 04             	mov    0x4(%eax),%eax
    1c3f:	8b 40 0c             	mov    0xc(%eax),%eax
    1c42:	85 c0                	test   %eax,%eax
    1c44:	0f 84 76 03 00 00    	je     1fc0 <driver_connection_devman+0x450>
    1c4a:	83 ec 0c             	sub    $0xc,%esp
    1c4d:	52                   	push   %edx
    1c4e:	ff d0                	call   *%eax
    1c50:	83 c4 10             	add    $0x10,%esp
    1c53:	89 c7                	mov    %eax,%edi
    1c55:	8b 55 b4             	mov    -0x4c(%ebp),%edx
    1c58:	89 d0                	mov    %edx,%eax
    1c5a:	e8 01 fb ff ff       	call   1760 <fun_del_ref>
    1c5f:	51                   	push   %ecx
    1c60:	51                   	push   %ecx
    1c61:	57                   	push   %edi
    1c62:	53                   	push   %ebx
    1c63:	e8 78 b0 00 00       	call   cce0 <async_answer_0@plt>
    1c68:	83 c4 10             	add    $0x10,%esp
    1c6b:	e9 20 ff ff ff       	jmp    1b90 <driver_connection_devman+0x20>
    1c70:	83 ec 0c             	sub    $0xc,%esp
    1c73:	68 20 ef 00 00       	push   $0xef20
    1c78:	e8 d3 b3 00 00       	call   d050 <fibril_mutex_lock@plt>
    1c7d:	c7 04 24 20 ef 00 00 	movl   $0xef20,(%esp)
    1c84:	e8 c7 af 00 00       	call   cc50 <fibril_mutex_is_locked@plt>
    1c89:	83 c4 10             	add    $0x10,%esp
    1c8c:	84 c0                	test   %al,%al
    1c8e:	0f 84 a0 03 00 00    	je     2034 <driver_connection_devman+0x4c4>
    1c94:	a1 34 ef 00 00       	mov    0xef34,%eax
    1c99:	3d 30 ef 00 00       	cmp    $0xef30,%eax
    1c9e:	8d 50 ec             	lea    -0x14(%eax),%edx
    1ca1:	75 16                	jne    1cb9 <driver_connection_devman+0x149>
    1ca3:	e9 08 03 00 00       	jmp    1fb0 <driver_connection_devman+0x440>
    1ca8:	8b 40 04             	mov    0x4(%eax),%eax
    1cab:	3d 30 ef 00 00       	cmp    $0xef30,%eax
    1cb0:	8d 50 ec             	lea    -0x14(%eax),%edx
    1cb3:	0f 84 f7 02 00 00    	je     1fb0 <driver_connection_devman+0x440>
    1cb9:	3b 78 ec             	cmp    -0x14(%eax),%edi
    1cbc:	75 ea                	jne    1ca8 <driver_connection_devman+0x138>
    1cbe:	8d 7a 04             	lea    0x4(%edx),%edi
    1cc1:	f0 ff 42 04          	lock incl 0x4(%edx)
    1cc5:	83 ec 0c             	sub    $0xc,%esp
    1cc8:	89 55 b4             	mov    %edx,-0x4c(%ebp)
    1ccb:	68 20 ef 00 00       	push   $0xef20
    1cd0:	e8 eb b0 00 00       	call   cdc0 <fibril_mutex_unlock@plt>
    1cd5:	a1 8c f0 00 00       	mov    0xf08c,%eax
    1cda:	83 c4 10             	add    $0x10,%esp
    1cdd:	8b 40 04             	mov    0x4(%eax),%eax
    1ce0:	8b 40 08             	mov    0x8(%eax),%eax
    1ce3:	85 c0                	test   %eax,%eax
    1ce5:	0f 85 88 00 00 00    	jne    1d73 <driver_connection_devman+0x203>
    1ceb:	b8 f5 ff ff ff       	mov    $0xfffffff5,%eax
    1cf0:	e9 63 02 00 00       	jmp    1f58 <driver_connection_devman+0x3e8>
    1cf5:	8d 76 00             	lea    0x0(%esi),%esi
    1cf8:	83 ec 0c             	sub    $0xc,%esp
    1cfb:	68 20 ef 00 00       	push   $0xef20
    1d00:	e8 4b b3 00 00       	call   d050 <fibril_mutex_lock@plt>
    1d05:	c7 04 24 20 ef 00 00 	movl   $0xef20,(%esp)
    1d0c:	e8 3f af 00 00       	call   cc50 <fibril_mutex_is_locked@plt>
    1d11:	83 c4 10             	add    $0x10,%esp
    1d14:	84 c0                	test   %al,%al
    1d16:	0f 84 18 03 00 00    	je     2034 <driver_connection_devman+0x4c4>
    1d1c:	a1 34 ef 00 00       	mov    0xef34,%eax
    1d21:	3d 30 ef 00 00       	cmp    $0xef30,%eax
    1d26:	8d 50 ec             	lea    -0x14(%eax),%edx
    1d29:	75 16                	jne    1d41 <driver_connection_devman+0x1d1>
    1d2b:	e9 80 02 00 00       	jmp    1fb0 <driver_connection_devman+0x440>
    1d30:	8b 40 04             	mov    0x4(%eax),%eax
    1d33:	3d 30 ef 00 00       	cmp    $0xef30,%eax
    1d38:	8d 50 ec             	lea    -0x14(%eax),%edx
    1d3b:	0f 84 6f 02 00 00    	je     1fb0 <driver_connection_devman+0x440>
    1d41:	3b 78 ec             	cmp    -0x14(%eax),%edi
    1d44:	75 ea                	jne    1d30 <driver_connection_devman+0x1c0>
    1d46:	8d 7a 04             	lea    0x4(%edx),%edi
    1d49:	f0 ff 42 04          	lock incl 0x4(%edx)
    1d4d:	83 ec 0c             	sub    $0xc,%esp
    1d50:	89 55 b4             	mov    %edx,-0x4c(%ebp)
    1d53:	68 20 ef 00 00       	push   $0xef20
    1d58:	e8 63 b0 00 00       	call   cdc0 <fibril_mutex_unlock@plt>
    1d5d:	a1 8c f0 00 00       	mov    0xf08c,%eax
    1d62:	83 c4 10             	add    $0x10,%esp
    1d65:	8b 40 04             	mov    0x4(%eax),%eax
    1d68:	8b 40 04             	mov    0x4(%eax),%eax
    1d6b:	85 c0                	test   %eax,%eax
    1d6d:	0f 84 78 ff ff ff    	je     1ceb <driver_connection_devman+0x17b>
    1d73:	83 ec 0c             	sub    $0xc,%esp
    1d76:	8b 55 b4             	mov    -0x4c(%ebp),%edx
    1d79:	52                   	push   %edx
    1d7a:	ff d0                	call   *%eax
    1d7c:	83 c4 10             	add    $0x10,%esp
    1d7f:	8b 55 b4             	mov    -0x4c(%ebp),%edx
    1d82:	85 c0                	test   %eax,%eax
    1d84:	0f 85 ce 01 00 00    	jne    1f58 <driver_connection_devman+0x3e8>
    1d8a:	83 c9 ff             	or     $0xffffffff,%ecx
    1d8d:	f0 0f c1 0f          	lock xadd %ecx,(%edi)
    1d91:	49                   	dec    %ecx
    1d92:	0f 85 c0 01 00 00    	jne    1f58 <driver_connection_devman+0x3e8>
    1d98:	8b 42 08             	mov    0x8(%edx),%eax
    1d9b:	85 c0                	test   %eax,%eax
    1d9d:	74 0f                	je     1dae <driver_connection_devman+0x23e>
    1d9f:	83 ec 0c             	sub    $0xc,%esp
    1da2:	50                   	push   %eax
    1da3:	e8 38 ae 00 00       	call   cbe0 <async_hangup@plt>
    1da8:	83 c4 10             	add    $0x10,%esp
    1dab:	8b 55 b4             	mov    -0x4c(%ebp),%edx
    1dae:	8b 42 10             	mov    0x10(%edx),%eax
    1db1:	85 c0                	test   %eax,%eax
    1db3:	74 12                	je     1dc7 <driver_connection_devman+0x257>
    1db5:	83 ec 0c             	sub    $0xc,%esp
    1db8:	89 55 b4             	mov    %edx,-0x4c(%ebp)
    1dbb:	50                   	push   %eax
    1dbc:	e8 6f b2 00 00       	call   d030 <free@plt>
    1dc1:	83 c4 10             	add    $0x10,%esp
    1dc4:	8b 55 b4             	mov    -0x4c(%ebp),%edx
    1dc7:	8b 42 0c             	mov    0xc(%edx),%eax
    1dca:	85 c0                	test   %eax,%eax
    1dcc:	74 12                	je     1de0 <driver_connection_devman+0x270>
    1dce:	83 ec 0c             	sub    $0xc,%esp
    1dd1:	89 55 b4             	mov    %edx,-0x4c(%ebp)
    1dd4:	50                   	push   %eax
    1dd5:	e8 56 b2 00 00       	call   d030 <free@plt>
    1dda:	83 c4 10             	add    $0x10,%esp
    1ddd:	8b 55 b4             	mov    -0x4c(%ebp),%edx
    1de0:	83 ec 0c             	sub    $0xc,%esp
    1de3:	52                   	push   %edx
    1de4:	e8 47 b2 00 00       	call   d030 <free@plt>
    1de9:	83 c4 10             	add    $0x10,%esp
    1dec:	31 c0                	xor    %eax,%eax
    1dee:	e9 65 01 00 00       	jmp    1f58 <driver_connection_devman+0x3e8>
    1df3:	90                   	nop
    1df4:	8d 74 26 00          	lea    0x0(%esi,%eiz,1),%esi
    1df8:	50                   	push   %eax
    1df9:	50                   	push   %eax
    1dfa:	8d 45 c0             	lea    -0x40(%ebp),%eax
    1dfd:	6a 00                	push   $0x0
    1dff:	c7 45 c0 00 00 00 00 	movl   $0x0,-0x40(%ebp)
    1e06:	6a 00                	push   $0x0
    1e08:	6a 00                	push   $0x0
    1e0a:	6a 00                	push   $0x0
    1e0c:	6a 01                	push   $0x1
    1e0e:	50                   	push   %eax
    1e0f:	e8 7c b1 00 00       	call   cf90 <async_data_write_accept@plt>
    1e14:	83 c4 20             	add    $0x20,%esp
    1e17:	85 c0                	test   %eax,%eax
    1e19:	0f 85 39 01 00 00    	jne    1f58 <driver_connection_devman+0x3e8>
    1e1f:	50                   	push   %eax
    1e20:	50                   	push   %eax
    1e21:	6a 1c                	push   $0x1c
    1e23:	6a 01                	push   $0x1
    1e25:	e8 36 af 00 00       	call   cd60 <calloc@plt>
    1e2a:	83 c4 10             	add    $0x10,%esp
    1e2d:	89 c2                	mov    %eax,%edx
    1e2f:	85 c0                	test   %eax,%eax
    1e31:	0f 84 df 01 00 00    	je     2016 <driver_connection_devman+0x4a6>
    1e37:	f0 ff 40 04          	lock incl 0x4(%eax)
    1e3b:	89 38                	mov    %edi,(%eax)
    1e3d:	8b 45 c0             	mov    -0x40(%ebp),%eax
    1e40:	89 42 0c             	mov    %eax,0xc(%edx)
    1e43:	a1 8c f0 00 00       	mov    0xf08c,%eax
    1e48:	83 ec 0c             	sub    $0xc,%esp
    1e4b:	89 55 b4             	mov    %edx,-0x4c(%ebp)
    1e4e:	8b 40 04             	mov    0x4(%eax),%eax
    1e51:	52                   	push   %edx
    1e52:	ff 10                	call   *(%eax)
    1e54:	83 c4 10             	add    $0x10,%esp
    1e57:	89 c7                	mov    %eax,%edi
    1e59:	85 c0                	test   %eax,%eax
    1e5b:	8b 55 b4             	mov    -0x4c(%ebp),%edx
    1e5e:	0f 84 66 01 00 00    	je     1fca <driver_connection_devman+0x45a>
    1e64:	83 c8 ff             	or     $0xffffffff,%eax
    1e67:	f0 0f c1 42 04       	lock xadd %eax,0x4(%edx)
    1e6c:	48                   	dec    %eax
    1e6d:	0f 85 ec fd ff ff    	jne    1c5f <driver_connection_devman+0xef>
    1e73:	8b 42 08             	mov    0x8(%edx),%eax
    1e76:	85 c0                	test   %eax,%eax
    1e78:	74 12                	je     1e8c <driver_connection_devman+0x31c>
    1e7a:	83 ec 0c             	sub    $0xc,%esp
    1e7d:	89 55 b4             	mov    %edx,-0x4c(%ebp)
    1e80:	50                   	push   %eax
    1e81:	e8 5a ad 00 00       	call   cbe0 <async_hangup@plt>
    1e86:	83 c4 10             	add    $0x10,%esp
    1e89:	8b 55 b4             	mov    -0x4c(%ebp),%edx
    1e8c:	8b 42 10             	mov    0x10(%edx),%eax
    1e8f:	85 c0                	test   %eax,%eax
    1e91:	74 12                	je     1ea5 <driver_connection_devman+0x335>
    1e93:	83 ec 0c             	sub    $0xc,%esp
    1e96:	89 55 b4             	mov    %edx,-0x4c(%ebp)
    1e99:	50                   	push   %eax
    1e9a:	e8 91 b1 00 00       	call   d030 <free@plt>
    1e9f:	83 c4 10             	add    $0x10,%esp
    1ea2:	8b 55 b4             	mov    -0x4c(%ebp),%edx
    1ea5:	8b 42 0c             	mov    0xc(%edx),%eax
    1ea8:	85 c0                	test   %eax,%eax
    1eaa:	74 12                	je     1ebe <driver_connection_devman+0x34e>
    1eac:	83 ec 0c             	sub    $0xc,%esp
    1eaf:	89 55 b4             	mov    %edx,-0x4c(%ebp)
    1eb2:	50                   	push   %eax
    1eb3:	e8 78 b1 00 00       	call   d030 <free@plt>
    1eb8:	83 c4 10             	add    $0x10,%esp
    1ebb:	8b 55 b4             	mov    -0x4c(%ebp),%edx
    1ebe:	83 ec 0c             	sub    $0xc,%esp
    1ec1:	52                   	push   %edx
    1ec2:	e8 69 b1 00 00       	call   d030 <free@plt>
    1ec7:	83 c4 10             	add    $0x10,%esp
    1eca:	e9 90 fd ff ff       	jmp    1c5f <driver_connection_devman+0xef>
    1ecf:	90                   	nop
    1ed0:	83 ec 0c             	sub    $0xc,%esp
    1ed3:	68 08 ef 00 00       	push   $0xef08
    1ed8:	e8 73 b1 00 00       	call   d050 <fibril_mutex_lock@plt>
    1edd:	c7 04 24 08 ef 00 00 	movl   $0xef08,(%esp)
    1ee4:	e8 67 ad 00 00       	call   cc50 <fibril_mutex_is_locked@plt>
    1ee9:	83 c4 10             	add    $0x10,%esp
    1eec:	84 c0                	test   %al,%al
    1eee:	0f 84 52 01 00 00    	je     2046 <driver_connection_devman+0x4d6>
    1ef4:	a1 1c ef 00 00       	mov    0xef1c,%eax
    1ef9:	3d 18 ef 00 00       	cmp    $0xef18,%eax
    1efe:	8d 50 d4             	lea    -0x2c(%eax),%edx
    1f01:	75 12                	jne    1f15 <driver_connection_devman+0x3a5>
    1f03:	e9 88 00 00 00       	jmp    1f90 <driver_connection_devman+0x420>
    1f08:	8b 40 04             	mov    0x4(%eax),%eax
    1f0b:	3d 18 ef 00 00       	cmp    $0xef18,%eax
    1f10:	8d 50 d4             	lea    -0x2c(%eax),%edx
    1f13:	74 7b                	je     1f90 <driver_connection_devman+0x420>
    1f15:	3b 7a 04             	cmp    0x4(%edx),%edi
    1f18:	75 ee                	jne    1f08 <driver_connection_devman+0x398>
    1f1a:	8b 42 0c             	mov    0xc(%edx),%eax
    1f1d:	f0 ff 40 04          	lock incl 0x4(%eax)
    1f21:	f0 ff 42 08          	lock incl 0x8(%edx)
    1f25:	83 ec 0c             	sub    $0xc,%esp
    1f28:	89 55 b4             	mov    %edx,-0x4c(%ebp)
    1f2b:	68 08 ef 00 00       	push   $0xef08
    1f30:	e8 8b ae 00 00       	call   cdc0 <fibril_mutex_unlock@plt>
    1f35:	a1 8c f0 00 00       	mov    0xf08c,%eax
    1f3a:	83 c4 10             	add    $0x10,%esp
    1f3d:	8b 40 04             	mov    0x4(%eax),%eax
    1f40:	8b 40 10             	mov    0x10(%eax),%eax
    1f43:	85 c0                	test   %eax,%eax
    1f45:	0f 84 a0 fd ff ff    	je     1ceb <driver_connection_devman+0x17b>
    1f4b:	83 ec 0c             	sub    $0xc,%esp
    1f4e:	8b 55 b4             	mov    -0x4c(%ebp),%edx
    1f51:	52                   	push   %edx
    1f52:	ff d0                	call   *%eax
    1f54:	83 c4 10             	add    $0x10,%esp
    1f57:	90                   	nop
    1f58:	52                   	push   %edx
    1f59:	52                   	push   %edx
    1f5a:	50                   	push   %eax
    1f5b:	53                   	push   %ebx
    1f5c:	e8 7f ad 00 00       	call   cce0 <async_answer_0@plt>
    1f61:	83 c4 10             	add    $0x10,%esp
    1f64:	e9 27 fc ff ff       	jmp    1b90 <driver_connection_devman+0x20>
    1f69:	8d b4 26 00 00 00 00 	lea    0x0(%esi,%eiz,1),%esi
    1f70:	50                   	push   %eax
    1f71:	50                   	push   %eax
    1f72:	6a f5                	push   $0xfffffff5
    1f74:	53                   	push   %ebx
    1f75:	e8 66 ad 00 00       	call   cce0 <async_answer_0@plt>
    1f7a:	83 c4 10             	add    $0x10,%esp
    1f7d:	e9 0e fc ff ff       	jmp    1b90 <driver_connection_devman+0x20>
    1f82:	8d b6 00 00 00 00    	lea    0x0(%esi),%esi
    1f88:	8d 65 f4             	lea    -0xc(%ebp),%esp
    1f8b:	5b                   	pop    %ebx
    1f8c:	5e                   	pop    %esi
    1f8d:	5f                   	pop    %edi
    1f8e:	5d                   	pop    %ebp
    1f8f:	c3                   	ret    
    1f90:	83 ec 0c             	sub    $0xc,%esp
    1f93:	68 08 ef 00 00       	push   $0xef08
    1f98:	e8 23 ae 00 00       	call   cdc0 <fibril_mutex_unlock@plt>
    1f9d:	58                   	pop    %eax
    1f9e:	5a                   	pop    %edx
    1f9f:	6a ff                	push   $0xffffffff
    1fa1:	53                   	push   %ebx
    1fa2:	e8 39 ad 00 00       	call   cce0 <async_answer_0@plt>
    1fa7:	83 c4 10             	add    $0x10,%esp
    1faa:	e9 e1 fb ff ff       	jmp    1b90 <driver_connection_devman+0x20>
    1faf:	90                   	nop
    1fb0:	83 ec 0c             	sub    $0xc,%esp
    1fb3:	68 20 ef 00 00       	push   $0xef20
    1fb8:	eb de                	jmp    1f98 <driver_connection_devman+0x428>
    1fba:	8d b6 00 00 00 00    	lea    0x0(%esi),%esi
    1fc0:	bf f5 ff ff ff       	mov    $0xfffffff5,%edi
    1fc5:	e9 8e fc ff ff       	jmp    1c58 <driver_connection_devman+0xe8>
    1fca:	83 ec 0c             	sub    $0xc,%esp
    1fcd:	89 55 b4             	mov    %edx,-0x4c(%ebp)
    1fd0:	68 20 ef 00 00       	push   $0xef20
    1fd5:	e8 76 b0 00 00       	call   d050 <fibril_mutex_lock@plt>
    1fda:	8b 55 b4             	mov    -0x4c(%ebp),%edx
    1fdd:	8b 0d 30 ef 00 00    	mov    0xef30,%ecx
    1fe3:	8d 42 14             	lea    0x14(%edx),%eax
    1fe6:	c7 42 18 30 ef 00 00 	movl   $0xef30,0x18(%edx)
    1fed:	89 4a 14             	mov    %ecx,0x14(%edx)
    1ff0:	89 41 04             	mov    %eax,0x4(%ecx)
    1ff3:	a3 30 ef 00 00       	mov    %eax,0xef30
    1ff8:	c7 04 24 20 ef 00 00 	movl   $0xef20,(%esp)
    1fff:	e8 bc ad 00 00       	call   cdc0 <fibril_mutex_unlock@plt>
    2004:	5f                   	pop    %edi
    2005:	58                   	pop    %eax
    2006:	6a 00                	push   $0x0
    2008:	53                   	push   %ebx
    2009:	e8 d2 ac 00 00       	call   cce0 <async_answer_0@plt>
    200e:	83 c4 10             	add    $0x10,%esp
    2011:	e9 7a fb ff ff       	jmp    1b90 <driver_connection_devman+0x20>
    2016:	83 ec 0c             	sub    $0xc,%esp
    2019:	8b 4d c0             	mov    -0x40(%ebp),%ecx
    201c:	51                   	push   %ecx
    201d:	e8 0e b0 00 00       	call   d030 <free@plt>
    2022:	5f                   	pop    %edi
    2023:	58                   	pop    %eax
    2024:	6a fe                	push   $0xfffffffe
    2026:	53                   	push   %ebx
    2027:	e8 b4 ac 00 00       	call   cce0 <async_answer_0@plt>
    202c:	83 c4 10             	add    $0x10,%esp
    202f:	e9 5c fb ff ff       	jmp    1b90 <driver_connection_devman+0x20>
    2034:	56                   	push   %esi
    2035:	6a 5f                	push   $0x5f
    2037:	68 7c ae 00 00       	push   $0xae7c
    203c:	68 20 b1 00 00       	push   $0xb120
    2041:	e8 fa ac 00 00       	call   cd40 <assert_abort@plt>
    2046:	53                   	push   %ebx
    2047:	6a 6b                	push   $0x6b
    2049:	68 7c ae 00 00       	push   $0xae7c
    204e:	68 d4 af 00 00       	push   $0xafd4
    2053:	e8 e8 ac 00 00       	call   cd40 <assert_abort@plt>
    2058:	90                   	nop
    2059:	8d b4 26 00 00 00 00 	lea    0x0(%esi,%eiz,1),%esi

00002060 <ddf_dev_data_alloc>:
    2060:	55                   	push   %ebp
    2061:	89 e5                	mov    %esp,%ebp
    2063:	53                   	push   %ebx
    2064:	53                   	push   %ebx
    2065:	8b 5d 08             	mov    0x8(%ebp),%ebx
    2068:	8b 43 10             	mov    0x10(%ebx),%eax
    206b:	85 c0                	test   %eax,%eax
    206d:	75 1c                	jne    208b <ddf_dev_data_alloc+0x2b>
    206f:	8b 55 0c             	mov    0xc(%ebp),%edx
    2072:	50                   	push   %eax
    2073:	50                   	push   %eax
    2074:	52                   	push   %edx
    2075:	6a 01                	push   $0x1
    2077:	e8 e4 ac 00 00       	call   cd60 <calloc@plt>
    207c:	83 c4 10             	add    $0x10,%esp
    207f:	85 c0                	test   %eax,%eax
    2081:	74 03                	je     2086 <ddf_dev_data_alloc+0x26>
    2083:	89 43 10             	mov    %eax,0x10(%ebx)
    2086:	8b 5d fc             	mov    -0x4(%ebp),%ebx
    2089:	c9                   	leave  
    208a:	c3                   	ret    
    208b:	51                   	push   %ecx
    208c:	68 39 02 00 00       	push   $0x239
    2091:	68 7c ae 00 00       	push   $0xae7c
    2096:	68 b7 ae 00 00       	push   $0xaeb7
    209b:	e8 a0 ac 00 00       	call   cd40 <assert_abort@plt>

000020a0 <ddf_dev_data_get>:
    20a0:	55                   	push   %ebp
    20a1:	89 e5                	mov    %esp,%ebp
    20a3:	8b 45 08             	mov    0x8(%ebp),%eax
    20a6:	5d                   	pop    %ebp
    20a7:	8b 40 10             	mov    0x10(%eax),%eax
    20aa:	c3                   	ret    
    20ab:	90                   	nop
    20ac:	8d 74 26 00          	lea    0x0(%esi,%eiz,1),%esi

000020b0 <ddf_dev_get_handle>:
    20b0:	55                   	push   %ebp
    20b1:	89 e5                	mov    %esp,%ebp
    20b3:	8b 45 08             	mov    0x8(%ebp),%eax
    20b6:	5d                   	pop    %ebp
    20b7:	8b 00                	mov    (%eax),%eax
    20b9:	c3                   	ret    
    20ba:	8d b6 00 00 00 00    	lea    0x0(%esi),%esi

000020c0 <ddf_dev_get_name>:
    20c0:	55                   	push   %ebp
    20c1:	89 e5                	mov    %esp,%ebp
    20c3:	8b 45 08             	mov    0x8(%ebp),%eax
    20c6:	5d                   	pop    %ebp
    20c7:	8b 40 0c             	mov    0xc(%eax),%eax
    20ca:	c3                   	ret    
    20cb:	90                   	nop
    20cc:	8d 74 26 00          	lea    0x0(%esi,%eiz,1),%esi

000020d0 <ddf_dev_parent_sess_create>:
    20d0:	55                   	push   %ebp
    20d1:	89 e5                	mov    %esp,%ebp
    20d3:	53                   	push   %ebx
    20d4:	53                   	push   %ebx
    20d5:	8b 5d 08             	mov    0x8(%ebp),%ebx
    20d8:	8b 43 08             	mov    0x8(%ebx),%eax
    20db:	85 c0                	test   %eax,%eax
    20dd:	75 14                	jne    20f3 <ddf_dev_parent_sess_create+0x23>
    20df:	50                   	push   %eax
    20e0:	50                   	push   %eax
    20e1:	6a 01                	push   $0x1
    20e3:	8b 13                	mov    (%ebx),%edx
    20e5:	52                   	push   %edx
    20e6:	e8 35 ab 00 00       	call   cc20 <devman_parent_device_connect@plt>
    20eb:	89 43 08             	mov    %eax,0x8(%ebx)
    20ee:	8b 5d fc             	mov    -0x4(%ebp),%ebx
    20f1:	c9                   	leave  
    20f2:	c3                   	ret    
    20f3:	51                   	push   %ecx
    20f4:	68 64 02 00 00       	push   $0x264
    20f9:	68 7c ae 00 00       	push   $0xae7c
    20fe:	68 d0 ae 00 00       	push   $0xaed0
    2103:	e8 38 ac 00 00       	call   cd40 <assert_abort@plt>
    2108:	90                   	nop
    2109:	8d b4 26 00 00 00 00 	lea    0x0(%esi,%eiz,1),%esi

00002110 <ddf_dev_parent_sess_get>:
    2110:	55                   	push   %ebp
    2111:	89 e5                	mov    %esp,%ebp
    2113:	8b 45 08             	mov    0x8(%ebp),%eax
    2116:	5d                   	pop    %ebp
    2117:	8b 40 08             	mov    0x8(%eax),%eax
    211a:	c3                   	ret    
    211b:	90                   	nop
    211c:	8d 74 26 00          	lea    0x0(%esi,%eiz,1),%esi

00002120 <ddf_fun_set_name>:
    2120:	55                   	push   %ebp
    2121:	89 e5                	mov    %esp,%ebp
    2123:	53                   	push   %ebx
    2124:	51                   	push   %ecx
    2125:	8b 5d 08             	mov    0x8(%ebp),%ebx
    2128:	8b 43 14             	mov    0x14(%ebx),%eax
    212b:	85 c0                	test   %eax,%eax
    212d:	75 23                	jne    2152 <ddf_fun_set_name+0x32>
    212f:	83 ec 0c             	sub    $0xc,%esp
    2132:	8b 45 0c             	mov    0xc(%ebp),%eax
    2135:	50                   	push   %eax
    2136:	e8 a5 ac 00 00       	call   cde0 <str_dup@plt>
    213b:	83 c4 10             	add    $0x10,%esp
    213e:	89 43 14             	mov    %eax,0x14(%ebx)
    2141:	85 c0                	test   %eax,%eax
    2143:	8b 5d fc             	mov    -0x4(%ebp),%ebx
    2146:	0f 94 c0             	sete   %al
    2149:	25 ff 00 00 00       	and    $0xff,%eax
    214e:	c9                   	leave  
    214f:	f7 d8                	neg    %eax
    2151:	c3                   	ret    
    2152:	52                   	push   %edx
    2153:	68 7d 02 00 00       	push   $0x27d
    2158:	68 7c ae 00 00       	push   $0xae7c
    215d:	68 e9 ae 00 00       	push   $0xaee9
    2162:	e8 d9 ab 00 00       	call   cd40 <assert_abort@plt>
    2167:	89 f6                	mov    %esi,%esi
    2169:	8d bc 27 00 00 00 00 	lea    0x0(%edi,%eiz,1),%edi

00002170 <ddf_fun_get_dev>:
    2170:	55                   	push   %ebp
    2171:	89 e5                	mov    %esp,%ebp
    2173:	8b 45 08             	mov    0x8(%ebp),%eax
    2176:	5d                   	pop    %ebp
    2177:	8b 40 0c             	mov    0xc(%eax),%eax
    217a:	c3                   	ret    
    217b:	90                   	nop
    217c:	8d 74 26 00          	lea    0x0(%esi,%eiz,1),%esi

00002180 <ddf_fun_get_handle>:
    2180:	55                   	push   %ebp
    2181:	89 e5                	mov    %esp,%ebp
    2183:	8b 45 08             	mov    0x8(%ebp),%eax
    2186:	5d                   	pop    %ebp
    2187:	8b 40 04             	mov    0x4(%eax),%eax
    218a:	c3                   	ret    
    218b:	90                   	nop
    218c:	8d 74 26 00          	lea    0x0(%esi,%eiz,1),%esi

00002190 <ddf_fun_create>:
    2190:	55                   	push   %ebp
    2191:	89 e5                	mov    %esp,%ebp
    2193:	57                   	push   %edi
    2194:	56                   	push   %esi
    2195:	53                   	push   %ebx
    2196:	83 ec 14             	sub    $0x14,%esp
    2199:	8b 75 08             	mov    0x8(%ebp),%esi
    219c:	6a 34                	push   $0x34
    219e:	6a 01                	push   $0x1
    21a0:	e8 bb ab 00 00       	call   cd60 <calloc@plt>
    21a5:	83 c4 10             	add    $0x10,%esp
    21a8:	89 c3                	mov    %eax,%ebx
    21aa:	85 c0                	test   %eax,%eax
    21ac:	74 48                	je     21f6 <ddf_fun_create+0x66>
    21ae:	8d 78 18             	lea    0x18(%eax),%edi
    21b1:	c7 40 2c 00 00 00 00 	movl   $0x0,0x2c(%eax)
    21b8:	89 78 18             	mov    %edi,0x18(%eax)
    21bb:	89 78 1c             	mov    %edi,0x1c(%eax)
    21be:	c7 40 30 00 00 00 00 	movl   $0x0,0x30(%eax)
    21c5:	89 70 0c             	mov    %esi,0xc(%eax)
    21c8:	f0 ff 46 04          	lock incl 0x4(%esi)
    21cc:	f0 ff 40 08          	lock incl 0x8(%eax)
    21d0:	c6 00 00             	movb   $0x0,(%eax)
    21d3:	8b 55 10             	mov    0x10(%ebp),%edx
    21d6:	8b 45 0c             	mov    0xc(%ebp),%eax
    21d9:	85 d2                	test   %edx,%edx
    21db:	89 43 10             	mov    %eax,0x10(%ebx)
    21de:	74 16                	je     21f6 <ddf_fun_create+0x66>
    21e0:	83 ec 0c             	sub    $0xc,%esp
    21e3:	8b 45 10             	mov    0x10(%ebp),%eax
    21e6:	50                   	push   %eax
    21e7:	e8 f4 ab 00 00       	call   cde0 <str_dup@plt>
    21ec:	83 c4 10             	add    $0x10,%esp
    21ef:	89 43 14             	mov    %eax,0x14(%ebx)
    21f2:	85 c0                	test   %eax,%eax
    21f4:	74 0a                	je     2200 <ddf_fun_create+0x70>
    21f6:	8d 65 f4             	lea    -0xc(%ebp),%esp
    21f9:	89 d8                	mov    %ebx,%eax
    21fb:	5b                   	pop    %ebx
    21fc:	5e                   	pop    %esi
    21fd:	5f                   	pop    %edi
    21fe:	5d                   	pop    %ebp
    21ff:	c3                   	ret    
    2200:	8b 73 1c             	mov    0x1c(%ebx),%esi
    2203:	39 f7                	cmp    %esi,%edi
    2205:	0f 84 85 00 00 00    	je     2290 <ddf_fun_create+0x100>
    220b:	90                   	nop
    220c:	8d 74 26 00          	lea    0x0(%esi,%eiz,1),%esi
    2210:	8b 0e                	mov    (%esi),%ecx
    2212:	85 c9                	test   %ecx,%ecx
    2214:	74 0e                	je     2224 <ddf_fun_create+0x94>
    2216:	8b 46 04             	mov    0x4(%esi),%eax
    2219:	85 c0                	test   %eax,%eax
    221b:	74 07                	je     2224 <ddf_fun_create+0x94>
    221d:	89 08                	mov    %ecx,(%eax)
    221f:	8b 0e                	mov    (%esi),%ecx
    2221:	89 41 04             	mov    %eax,0x4(%ecx)
    2224:	8b 46 08             	mov    0x8(%esi),%eax
    2227:	c7 06 00 00 00 00    	movl   $0x0,(%esi)
    222d:	c7 46 04 00 00 00 00 	movl   $0x0,0x4(%esi)
    2234:	85 c0                	test   %eax,%eax
    2236:	74 0c                	je     2244 <ddf_fun_create+0xb4>
    2238:	83 ec 0c             	sub    $0xc,%esp
    223b:	50                   	push   %eax
    223c:	e8 ef ad 00 00       	call   d030 <free@plt>
    2241:	83 c4 10             	add    $0x10,%esp
    2244:	83 ec 0c             	sub    $0xc,%esp
    2247:	56                   	push   %esi
    2248:	e8 e3 ad 00 00       	call   d030 <free@plt>
    224d:	8b 73 1c             	mov    0x1c(%ebx),%esi
    2250:	83 c4 10             	add    $0x10,%esp
    2253:	39 f7                	cmp    %esi,%edi
    2255:	75 b9                	jne    2210 <ddf_fun_create+0x80>
    2257:	8b 43 20             	mov    0x20(%ebx),%eax
    225a:	85 c0                	test   %eax,%eax
    225c:	74 0c                	je     226a <ddf_fun_create+0xda>
    225e:	83 ec 0c             	sub    $0xc,%esp
    2261:	50                   	push   %eax
    2262:	e8 c9 ad 00 00       	call   d030 <free@plt>
    2267:	83 c4 10             	add    $0x10,%esp
    226a:	8b 43 14             	mov    0x14(%ebx),%eax
    226d:	85 c0                	test   %eax,%eax
    226f:	74 0c                	je     227d <ddf_fun_create+0xed>
    2271:	83 ec 0c             	sub    $0xc,%esp
    2274:	50                   	push   %eax
    2275:	e8 b6 ad 00 00       	call   d030 <free@plt>
    227a:	83 c4 10             	add    $0x10,%esp
    227d:	83 ec 0c             	sub    $0xc,%esp
    2280:	53                   	push   %ebx
    2281:	31 db                	xor    %ebx,%ebx
    2283:	e8 a8 ad 00 00       	call   d030 <free@plt>
    2288:	83 c4 10             	add    $0x10,%esp
    228b:	e9 66 ff ff ff       	jmp    21f6 <ddf_fun_create+0x66>
    2290:	8b 43 20             	mov    0x20(%ebx),%eax
    2293:	85 c0                	test   %eax,%eax
    2295:	75 c7                	jne    225e <ddf_fun_create+0xce>
    2297:	eb e4                	jmp    227d <ddf_fun_create+0xed>
    2299:	8d b4 26 00 00 00 00 	lea    0x0(%esi,%eiz,1),%esi

000022a0 <ddf_fun_data_alloc>:
    22a0:	55                   	push   %ebp
    22a1:	89 e5                	mov    %esp,%ebp
    22a3:	53                   	push   %ebx
    22a4:	50                   	push   %eax
    22a5:	8b 5d 08             	mov    0x8(%ebp),%ebx
    22a8:	80 3b 00             	cmpb   $0x0,(%ebx)
    22ab:	75 23                	jne    22d0 <ddf_fun_data_alloc+0x30>
    22ad:	8b 43 20             	mov    0x20(%ebx),%eax
    22b0:	85 c0                	test   %eax,%eax
    22b2:	75 31                	jne    22e5 <ddf_fun_data_alloc+0x45>
    22b4:	8b 55 0c             	mov    0xc(%ebp),%edx
    22b7:	50                   	push   %eax
    22b8:	50                   	push   %eax
    22b9:	52                   	push   %edx
    22ba:	6a 01                	push   $0x1
    22bc:	e8 9f aa 00 00       	call   cd60 <calloc@plt>
    22c1:	83 c4 10             	add    $0x10,%esp
    22c4:	85 c0                	test   %eax,%eax
    22c6:	74 03                	je     22cb <ddf_fun_data_alloc+0x2b>
    22c8:	89 43 20             	mov    %eax,0x20(%ebx)
    22cb:	8b 5d fc             	mov    -0x4(%ebp),%ebx
    22ce:	c9                   	leave  
    22cf:	c3                   	ret    
    22d0:	50                   	push   %eax
    22d1:	68 c9 02 00 00       	push   $0x2c9
    22d6:	68 7c ae 00 00       	push   $0xae7c
    22db:	68 fb ae 00 00       	push   $0xaefb
    22e0:	e8 5b aa 00 00       	call   cd40 <assert_abort@plt>
    22e5:	51                   	push   %ecx
    22e6:	68 ca 02 00 00       	push   $0x2ca
    22eb:	68 7c ae 00 00       	push   $0xae7c
    22f0:	68 0f af 00 00       	push   $0xaf0f
    22f5:	e8 46 aa 00 00       	call   cd40 <assert_abort@plt>
    22fa:	8d b6 00 00 00 00    	lea    0x0(%esi),%esi

00002300 <ddf_fun_data_get>:
    2300:	55                   	push   %ebp
    2301:	89 e5                	mov    %esp,%ebp
    2303:	8b 45 08             	mov    0x8(%ebp),%eax
    2306:	5d                   	pop    %ebp
    2307:	8b 40 20             	mov    0x20(%eax),%eax
    230a:	c3                   	ret    
    230b:	90                   	nop
    230c:	8d 74 26 00          	lea    0x0(%esi,%eiz,1),%esi

00002310 <ddf_fun_get_name>:
    2310:	55                   	push   %ebp
    2311:	89 e5                	mov    %esp,%ebp
    2313:	8b 45 08             	mov    0x8(%ebp),%eax
    2316:	5d                   	pop    %ebp
    2317:	8b 40 14             	mov    0x14(%eax),%eax
    231a:	c3                   	ret    
    231b:	90                   	nop
    231c:	8d 74 26 00          	lea    0x0(%esi,%eiz,1),%esi

00002320 <ddf_fun_destroy>:
    2320:	55                   	push   %ebp
    2321:	89 e5                	mov    %esp,%ebp
    2323:	57                   	push   %edi
    2324:	56                   	push   %esi
    2325:	53                   	push   %ebx
    2326:	83 ec 1c             	sub    $0x1c,%esp
    2329:	8b 7d 08             	mov    0x8(%ebp),%edi
    232c:	80 3f 00             	cmpb   $0x0,(%edi)
    232f:	0f 85 fa 00 00 00    	jne    242f <ddf_fun_destroy+0x10f>
    2335:	8b 77 0c             	mov    0xc(%edi),%esi
    2338:	83 ca ff             	or     $0xffffffff,%edx
    233b:	f0 0f c1 57 08       	lock xadd %edx,0x8(%edi)
    2340:	4a                   	dec    %edx
    2341:	74 5d                	je     23a0 <ddf_fun_destroy+0x80>
    2343:	83 c8 ff             	or     $0xffffffff,%eax
    2346:	f0 0f c1 46 04       	lock xadd %eax,0x4(%esi)
    234b:	48                   	dec    %eax
    234c:	74 0a                	je     2358 <ddf_fun_destroy+0x38>
    234e:	8d 65 f4             	lea    -0xc(%ebp),%esp
    2351:	5b                   	pop    %ebx
    2352:	5e                   	pop    %esi
    2353:	5f                   	pop    %edi
    2354:	5d                   	pop    %ebp
    2355:	c3                   	ret    
    2356:	66 90                	xchg   %ax,%ax
    2358:	8b 46 08             	mov    0x8(%esi),%eax
    235b:	85 c0                	test   %eax,%eax
    235d:	74 0c                	je     236b <ddf_fun_destroy+0x4b>
    235f:	83 ec 0c             	sub    $0xc,%esp
    2362:	50                   	push   %eax
    2363:	e8 78 a8 00 00       	call   cbe0 <async_hangup@plt>
    2368:	83 c4 10             	add    $0x10,%esp
    236b:	8b 46 10             	mov    0x10(%esi),%eax
    236e:	85 c0                	test   %eax,%eax
    2370:	74 0c                	je     237e <ddf_fun_destroy+0x5e>
    2372:	83 ec 0c             	sub    $0xc,%esp
    2375:	50                   	push   %eax
    2376:	e8 b5 ac 00 00       	call   d030 <free@plt>
    237b:	83 c4 10             	add    $0x10,%esp
    237e:	8b 46 0c             	mov    0xc(%esi),%eax
    2381:	85 c0                	test   %eax,%eax
    2383:	74 0c                	je     2391 <ddf_fun_destroy+0x71>
    2385:	83 ec 0c             	sub    $0xc,%esp
    2388:	50                   	push   %eax
    2389:	e8 a2 ac 00 00       	call   d030 <free@plt>
    238e:	83 c4 10             	add    $0x10,%esp
    2391:	89 75 08             	mov    %esi,0x8(%ebp)
    2394:	8d 65 f4             	lea    -0xc(%ebp),%esp
    2397:	5b                   	pop    %ebx
    2398:	5e                   	pop    %esi
    2399:	5f                   	pop    %edi
    239a:	5d                   	pop    %ebp
    239b:	e9 90 ac 00 00       	jmp    d030 <free@plt>
    23a0:	8d 47 18             	lea    0x18(%edi),%eax
    23a3:	8b 5f 1c             	mov    0x1c(%edi),%ebx
    23a6:	89 45 e4             	mov    %eax,-0x1c(%ebp)
    23a9:	39 d8                	cmp    %ebx,%eax
    23ab:	74 4b                	je     23f8 <ddf_fun_destroy+0xd8>
    23ad:	8d 76 00             	lea    0x0(%esi),%esi
    23b0:	8b 0b                	mov    (%ebx),%ecx
    23b2:	85 c9                	test   %ecx,%ecx
    23b4:	74 0e                	je     23c4 <ddf_fun_destroy+0xa4>
    23b6:	8b 53 04             	mov    0x4(%ebx),%edx
    23b9:	85 d2                	test   %edx,%edx
    23bb:	74 07                	je     23c4 <ddf_fun_destroy+0xa4>
    23bd:	89 0a                	mov    %ecx,(%edx)
    23bf:	8b 0b                	mov    (%ebx),%ecx
    23c1:	89 51 04             	mov    %edx,0x4(%ecx)
    23c4:	8b 53 08             	mov    0x8(%ebx),%edx
    23c7:	c7 03 00 00 00 00    	movl   $0x0,(%ebx)
    23cd:	c7 43 04 00 00 00 00 	movl   $0x0,0x4(%ebx)
    23d4:	85 d2                	test   %edx,%edx
    23d6:	74 0c                	je     23e4 <ddf_fun_destroy+0xc4>
    23d8:	83 ec 0c             	sub    $0xc,%esp
    23db:	52                   	push   %edx
    23dc:	e8 4f ac 00 00       	call   d030 <free@plt>
    23e1:	83 c4 10             	add    $0x10,%esp
    23e4:	83 ec 0c             	sub    $0xc,%esp
    23e7:	53                   	push   %ebx
    23e8:	e8 43 ac 00 00       	call   d030 <free@plt>
    23ed:	8b 5f 1c             	mov    0x1c(%edi),%ebx
    23f0:	83 c4 10             	add    $0x10,%esp
    23f3:	3b 5d e4             	cmp    -0x1c(%ebp),%ebx
    23f6:	75 b8                	jne    23b0 <ddf_fun_destroy+0x90>
    23f8:	8b 57 20             	mov    0x20(%edi),%edx
    23fb:	85 d2                	test   %edx,%edx
    23fd:	74 0c                	je     240b <ddf_fun_destroy+0xeb>
    23ff:	83 ec 0c             	sub    $0xc,%esp
    2402:	52                   	push   %edx
    2403:	e8 28 ac 00 00       	call   d030 <free@plt>
    2408:	83 c4 10             	add    $0x10,%esp
    240b:	8b 57 14             	mov    0x14(%edi),%edx
    240e:	85 d2                	test   %edx,%edx
    2410:	74 0c                	je     241e <ddf_fun_destroy+0xfe>
    2412:	83 ec 0c             	sub    $0xc,%esp
    2415:	52                   	push   %edx
    2416:	e8 15 ac 00 00       	call   d030 <free@plt>
    241b:	83 c4 10             	add    $0x10,%esp
    241e:	83 ec 0c             	sub    $0xc,%esp
    2421:	57                   	push   %edi
    2422:	e8 09 ac 00 00       	call   d030 <free@plt>
    2427:	83 c4 10             	add    $0x10,%esp
    242a:	e9 14 ff ff ff       	jmp    2343 <ddf_fun_destroy+0x23>
    242f:	50                   	push   %eax
    2430:	68 ee 02 00 00       	push   $0x2ee
    2435:	68 7c ae 00 00       	push   $0xae7c
    243a:	68 fb ae 00 00       	push   $0xaefb
    243f:	e8 fc a8 00 00       	call   cd40 <assert_abort@plt>
    2444:	8d b6 00 00 00 00    	lea    0x0(%esi),%esi
    244a:	8d bf 00 00 00 00    	lea    0x0(%edi),%edi

00002450 <ddf_fun_bind>:
    2450:	55                   	push   %ebp
    2451:	89 e5                	mov    %esp,%ebp
    2453:	53                   	push   %ebx
    2454:	83 ec 14             	sub    $0x14,%esp
    2457:	8b 5d 08             	mov    0x8(%ebp),%ebx
    245a:	80 3b 00             	cmpb   $0x0,(%ebx)
    245d:	0f 85 d2 00 00 00    	jne    2535 <ddf_fun_bind+0xe5>
    2463:	8b 43 14             	mov    0x14(%ebx),%eax
    2466:	85 c0                	test   %eax,%eax
    2468:	0f 84 f1 00 00 00    	je     255f <ddf_fun_bind+0x10f>
    246e:	8b 43 0c             	mov    0xc(%ebx),%eax
    2471:	85 c0                	test   %eax,%eax
    2473:	0f 84 d1 00 00 00    	je     254a <ddf_fun_bind+0xfa>
    2479:	83 ec 0c             	sub    $0xc,%esp
    247c:	68 08 ef 00 00       	push   $0xef08
    2481:	e8 ca ab 00 00       	call   d050 <fibril_mutex_lock@plt>
    2486:	8b 15 18 ef 00 00    	mov    0xef18,%edx
    248c:	8d 43 2c             	lea    0x2c(%ebx),%eax
    248f:	89 53 2c             	mov    %edx,0x2c(%ebx)
    2492:	c7 43 30 18 ef 00 00 	movl   $0xef18,0x30(%ebx)
    2499:	89 42 04             	mov    %eax,0x4(%edx)
    249c:	a3 18 ef 00 00       	mov    %eax,0xef18
    24a1:	c7 04 24 08 ef 00 00 	movl   $0xef08,(%esp)
    24a8:	e8 13 a9 00 00       	call   cdc0 <fibril_mutex_unlock@plt>
    24ad:	8d 43 04             	lea    0x4(%ebx),%eax
    24b0:	8b 53 10             	mov    0x10(%ebx),%edx
    24b3:	89 04 24             	mov    %eax,(%esp)
    24b6:	8b 43 0c             	mov    0xc(%ebx),%eax
    24b9:	8b 4b 14             	mov    0x14(%ebx),%ecx
    24bc:	8b 00                	mov    (%eax),%eax
    24be:	50                   	push   %eax
    24bf:	8d 43 18             	lea    0x18(%ebx),%eax
    24c2:	50                   	push   %eax
    24c3:	52                   	push   %edx
    24c4:	51                   	push   %ecx
    24c5:	e8 56 a8 00 00       	call   cd20 <devman_add_function@plt>
    24ca:	83 c4 20             	add    $0x20,%esp
    24cd:	85 c0                	test   %eax,%eax
    24cf:	75 0f                	jne    24e0 <ddf_fun_bind+0x90>
    24d1:	c6 03 01             	movb   $0x1,(%ebx)
    24d4:	8b 5d fc             	mov    -0x4(%ebp),%ebx
    24d7:	c9                   	leave  
    24d8:	c3                   	ret    
    24d9:	8d b4 26 00 00 00 00 	lea    0x0(%esi,%eiz,1),%esi
    24e0:	83 ec 0c             	sub    $0xc,%esp
    24e3:	89 45 f4             	mov    %eax,-0xc(%ebp)
    24e6:	68 08 ef 00 00       	push   $0xef08
    24eb:	e8 60 ab 00 00       	call   d050 <fibril_mutex_lock@plt>
    24f0:	8b 4b 2c             	mov    0x2c(%ebx),%ecx
    24f3:	83 c4 10             	add    $0x10,%esp
    24f6:	8b 45 f4             	mov    -0xc(%ebp),%eax
    24f9:	85 c9                	test   %ecx,%ecx
    24fb:	74 0f                	je     250c <ddf_fun_bind+0xbc>
    24fd:	8b 53 30             	mov    0x30(%ebx),%edx
    2500:	85 d2                	test   %edx,%edx
    2502:	74 08                	je     250c <ddf_fun_bind+0xbc>
    2504:	89 0a                	mov    %ecx,(%edx)
    2506:	8b 4b 2c             	mov    0x2c(%ebx),%ecx
    2509:	89 51 04             	mov    %edx,0x4(%ecx)
    250c:	83 ec 0c             	sub    $0xc,%esp
    250f:	c7 43 2c 00 00 00 00 	movl   $0x0,0x2c(%ebx)
    2516:	c7 43 30 00 00 00 00 	movl   $0x0,0x30(%ebx)
    251d:	89 45 f4             	mov    %eax,-0xc(%ebp)
    2520:	68 08 ef 00 00       	push   $0xef08
    2525:	e8 96 a8 00 00       	call   cdc0 <fibril_mutex_unlock@plt>
    252a:	8b 45 f4             	mov    -0xc(%ebp),%eax
    252d:	83 c4 10             	add    $0x10,%esp
    2530:	8b 5d fc             	mov    -0x4(%ebp),%ebx
    2533:	c9                   	leave  
    2534:	c3                   	ret    
    2535:	50                   	push   %eax
    2536:	68 12 03 00 00       	push   $0x312
    253b:	68 7c ae 00 00       	push   $0xae7c
    2540:	68 fb ae 00 00       	push   $0xaefb
    2545:	e8 f6 a7 00 00       	call   cd40 <assert_abort@plt>
    254a:	53                   	push   %ebx
    254b:	68 14 03 00 00       	push   $0x314
    2550:	68 7c ae 00 00       	push   $0xae7c
    2555:	68 3a af 00 00       	push   $0xaf3a
    255a:	e8 e1 a7 00 00       	call   cd40 <assert_abort@plt>
    255f:	50                   	push   %eax
    2560:	68 13 03 00 00       	push   $0x313
    2565:	68 7c ae 00 00       	push   $0xae7c
    256a:	68 28 af 00 00       	push   $0xaf28
    256f:	e8 cc a7 00 00       	call   cd40 <assert_abort@plt>
    2574:	8d b6 00 00 00 00    	lea    0x0(%esi),%esi
    257a:	8d bf 00 00 00 00    	lea    0x0(%edi),%edi

00002580 <ddf_fun_unbind>:
    2580:	55                   	push   %ebp
    2581:	89 e5                	mov    %esp,%ebp
    2583:	53                   	push   %ebx
    2584:	83 ec 14             	sub    $0x14,%esp
    2587:	8b 5d 08             	mov    0x8(%ebp),%ebx
    258a:	80 3b 00             	cmpb   $0x0,(%ebx)
    258d:	74 71                	je     2600 <ddf_fun_unbind+0x80>
    258f:	83 ec 0c             	sub    $0xc,%esp
    2592:	8b 43 04             	mov    0x4(%ebx),%eax
    2595:	50                   	push   %eax
    2596:	e8 e5 a7 00 00       	call   cd80 <devman_remove_function@plt>
    259b:	83 c4 10             	add    $0x10,%esp
    259e:	85 c0                	test   %eax,%eax
    25a0:	74 06                	je     25a8 <ddf_fun_unbind+0x28>
    25a2:	8b 5d fc             	mov    -0x4(%ebp),%ebx
    25a5:	c9                   	leave  
    25a6:	c3                   	ret    
    25a7:	90                   	nop
    25a8:	83 ec 0c             	sub    $0xc,%esp
    25ab:	89 45 f4             	mov    %eax,-0xc(%ebp)
    25ae:	68 08 ef 00 00       	push   $0xef08
    25b3:	e8 98 aa 00 00       	call   d050 <fibril_mutex_lock@plt>
    25b8:	8b 4b 2c             	mov    0x2c(%ebx),%ecx
    25bb:	83 c4 10             	add    $0x10,%esp
    25be:	8b 45 f4             	mov    -0xc(%ebp),%eax
    25c1:	85 c9                	test   %ecx,%ecx
    25c3:	74 0f                	je     25d4 <ddf_fun_unbind+0x54>
    25c5:	8b 53 30             	mov    0x30(%ebx),%edx
    25c8:	85 d2                	test   %edx,%edx
    25ca:	74 08                	je     25d4 <ddf_fun_unbind+0x54>
    25cc:	89 0a                	mov    %ecx,(%edx)
    25ce:	8b 4b 2c             	mov    0x2c(%ebx),%ecx
    25d1:	89 51 04             	mov    %edx,0x4(%ecx)
    25d4:	83 ec 0c             	sub    $0xc,%esp
    25d7:	c7 43 2c 00 00 00 00 	movl   $0x0,0x2c(%ebx)
    25de:	c7 43 30 00 00 00 00 	movl   $0x0,0x30(%ebx)
    25e5:	89 45 f4             	mov    %eax,-0xc(%ebp)
    25e8:	68 08 ef 00 00       	push   $0xef08
    25ed:	e8 ce a7 00 00       	call   cdc0 <fibril_mutex_unlock@plt>
    25f2:	c6 03 00             	movb   $0x0,(%ebx)
    25f5:	8b 45 f4             	mov    -0xc(%ebp),%eax
    25f8:	83 c4 10             	add    $0x10,%esp
    25fb:	8b 5d fc             	mov    -0x4(%ebp),%ebx
    25fe:	c9                   	leave  
    25ff:	c3                   	ret    
    2600:	52                   	push   %edx
    2601:	68 2e 03 00 00       	push   $0x32e
    2606:	68 7c ae 00 00       	push   $0xae7c
    260b:	68 4b af 00 00       	push   $0xaf4b
    2610:	e8 2b a7 00 00       	call   cd40 <assert_abort@plt>
    2615:	8d 74 26 00          	lea    0x0(%esi,%eiz,1),%esi
    2619:	8d bc 27 00 00 00 00 	lea    0x0(%edi,%eiz,1),%edi

00002620 <ddf_fun_online>:
    2620:	55                   	push   %ebp
    2621:	89 e5                	mov    %esp,%ebp
    2623:	83 ec 08             	sub    $0x8,%esp
    2626:	8b 45 08             	mov    0x8(%ebp),%eax
    2629:	80 38 00             	cmpb   $0x0,(%eax)
    262c:	74 0c                	je     263a <ddf_fun_online+0x1a>
    262e:	8b 40 04             	mov    0x4(%eax),%eax
    2631:	89 45 08             	mov    %eax,0x8(%ebp)
    2634:	c9                   	leave  
    2635:	e9 26 a6 00 00       	jmp    cc60 <devman_drv_fun_online@plt>
    263a:	50                   	push   %eax
    263b:	68 43 03 00 00       	push   $0x343
    2640:	68 7c ae 00 00       	push   $0xae7c
    2645:	68 4b af 00 00       	push   $0xaf4b
    264a:	e8 f1 a6 00 00       	call   cd40 <assert_abort@plt>
    264f:	90                   	nop

00002650 <ddf_fun_offline>:
    2650:	55                   	push   %ebp
    2651:	89 e5                	mov    %esp,%ebp
    2653:	83 ec 08             	sub    $0x8,%esp
    2656:	8b 45 08             	mov    0x8(%ebp),%eax
    2659:	80 38 00             	cmpb   $0x0,(%eax)
    265c:	74 0c                	je     266a <ddf_fun_offline+0x1a>
    265e:	8b 40 04             	mov    0x4(%eax),%eax
    2661:	89 45 08             	mov    %eax,0x8(%ebp)
    2664:	c9                   	leave  
    2665:	e9 c6 a7 00 00       	jmp    ce30 <devman_drv_fun_offline@plt>
    266a:	50                   	push   %eax
    266b:	68 55 03 00 00       	push   $0x355
    2670:	68 7c ae 00 00       	push   $0xae7c
    2675:	68 4b af 00 00       	push   $0xaf4b
    267a:	e8 c1 a6 00 00       	call   cd40 <assert_abort@plt>
    267f:	90                   	nop

00002680 <ddf_fun_add_match_id>:
    2680:	55                   	push   %ebp
    2681:	89 e5                	mov    %esp,%ebp
    2683:	57                   	push   %edi
    2684:	56                   	push   %esi
    2685:	53                   	push   %ebx
    2686:	83 ec 0c             	sub    $0xc,%esp
    2689:	8b 5d 08             	mov    0x8(%ebp),%ebx
    268c:	8b 75 10             	mov    0x10(%ebp),%esi
    268f:	80 3b 00             	cmpb   $0x0,(%ebx)
    2692:	0f 85 89 00 00 00    	jne    2721 <ddf_fun_add_match_id+0xa1>
    2698:	83 7b 10 01          	cmpl   $0x1,0x10(%ebx)
    269c:	75 6e                	jne    270c <ddf_fun_add_match_id+0x8c>
    269e:	83 ec 0c             	sub    $0xc,%esp
    26a1:	6a 10                	push   $0x10
    26a3:	e8 f8 a5 00 00       	call   cca0 <malloc@plt>
    26a8:	83 c4 0c             	add    $0xc,%esp
    26ab:	89 c7                	mov    %eax,%edi
    26ad:	6a 10                	push   $0x10
    26af:	6a 00                	push   $0x0
    26b1:	50                   	push   %eax
    26b2:	e8 b9 a7 00 00       	call   ce70 <memset@plt>
    26b7:	8b 55 0c             	mov    0xc(%ebp),%edx
    26ba:	58                   	pop    %eax
    26bb:	52                   	push   %edx
    26bc:	e8 1f a7 00 00       	call   cde0 <str_dup@plt>
    26c1:	8d 53 18             	lea    0x18(%ebx),%edx
    26c4:	89 47 08             	mov    %eax,0x8(%edi)
    26c7:	8b 43 1c             	mov    0x1c(%ebx),%eax
    26ca:	83 c4 10             	add    $0x10,%esp
    26cd:	89 77 0c             	mov    %esi,0xc(%edi)
    26d0:	39 c2                	cmp    %eax,%edx
    26d2:	74 18                	je     26ec <ddf_fun_add_match_id+0x6c>
    26d4:	39 70 0c             	cmp    %esi,0xc(%eax)
    26d7:	73 0c                	jae    26e5 <ddf_fun_add_match_id+0x65>
    26d9:	eb 2d                	jmp    2708 <ddf_fun_add_match_id+0x88>
    26db:	90                   	nop
    26dc:	8d 74 26 00          	lea    0x0(%esi,%eiz,1),%esi
    26e0:	3b 70 0c             	cmp    0xc(%eax),%esi
    26e3:	77 23                	ja     2708 <ddf_fun_add_match_id+0x88>
    26e5:	8b 40 04             	mov    0x4(%eax),%eax
    26e8:	39 c2                	cmp    %eax,%edx
    26ea:	75 f4                	jne    26e0 <ddf_fun_add_match_id+0x60>
    26ec:	8b 02                	mov    (%edx),%eax
    26ee:	89 57 04             	mov    %edx,0x4(%edi)
    26f1:	89 07                	mov    %eax,(%edi)
    26f3:	8b 02                	mov    (%edx),%eax
    26f5:	89 78 04             	mov    %edi,0x4(%eax)
    26f8:	89 3a                	mov    %edi,(%edx)
    26fa:	8d 65 f4             	lea    -0xc(%ebp),%esp
    26fd:	31 c0                	xor    %eax,%eax
    26ff:	5b                   	pop    %ebx
    2700:	5e                   	pop    %esi
    2701:	5f                   	pop    %edi
    2702:	5d                   	pop    %ebp
    2703:	c3                   	ret    
    2704:	8d 74 26 00          	lea    0x0(%esi,%eiz,1),%esi
    2708:	89 c2                	mov    %eax,%edx
    270a:	eb e0                	jmp    26ec <ddf_fun_add_match_id+0x6c>
    270c:	51                   	push   %ecx
    270d:	68 6f 03 00 00       	push   $0x36f
    2712:	68 7c ae 00 00       	push   $0xae7c
    2717:	68 5e af 00 00       	push   $0xaf5e
    271c:	e8 1f a6 00 00       	call   cd40 <assert_abort@plt>
    2721:	53                   	push   %ebx
    2722:	68 6e 03 00 00       	push   $0x36e
    2727:	68 7c ae 00 00       	push   $0xae7c
    272c:	68 fb ae 00 00       	push   $0xaefb
    2731:	e8 0a a6 00 00       	call   cd40 <assert_abort@plt>
    2736:	8d 76 00             	lea    0x0(%esi),%esi
    2739:	8d bc 27 00 00 00 00 	lea    0x0(%edi,%eiz,1),%edi

00002740 <ddf_fun_set_ops>:
    2740:	55                   	push   %ebp
    2741:	89 e5                	mov    %esp,%ebp
    2743:	83 ec 08             	sub    $0x8,%esp
    2746:	8b 45 08             	mov    0x8(%ebp),%eax
    2749:	8b 48 28             	mov    0x28(%eax),%ecx
    274c:	85 c9                	test   %ecx,%ecx
    274e:	75 08                	jne    2758 <ddf_fun_set_ops+0x18>
    2750:	8b 55 0c             	mov    0xc(%ebp),%edx
    2753:	89 50 24             	mov    %edx,0x24(%eax)
    2756:	c9                   	leave  
    2757:	c3                   	ret    
    2758:	50                   	push   %eax
    2759:	68 7f 03 00 00       	push   $0x37f
    275e:	68 7c ae 00 00       	push   $0xae7c
    2763:	68 76 af 00 00       	push   $0xaf76
    2768:	e8 d3 a5 00 00       	call   cd40 <assert_abort@plt>
    276d:	8d 76 00             	lea    0x0(%esi),%esi

00002770 <ddf_fun_set_conn_handler>:
    2770:	55                   	push   %ebp
    2771:	89 e5                	mov    %esp,%ebp
    2773:	83 ec 08             	sub    $0x8,%esp
    2776:	8b 45 08             	mov    0x8(%ebp),%eax
    2779:	8b 48 24             	mov    0x24(%eax),%ecx
    277c:	85 c9                	test   %ecx,%ecx
    277e:	75 08                	jne    2788 <ddf_fun_set_conn_handler+0x18>
    2780:	8b 55 0c             	mov    0xc(%ebp),%edx
    2783:	89 50 28             	mov    %edx,0x28(%eax)
    2786:	c9                   	leave  
    2787:	c3                   	ret    
    2788:	50                   	push   %eax
    2789:	68 89 03 00 00       	push   $0x389
    278e:	68 7c ae 00 00       	push   $0xae7c
    2793:	68 90 af 00 00       	push   $0xaf90
    2798:	e8 a3 a5 00 00       	call   cd40 <assert_abort@plt>
    279d:	8d 76 00             	lea    0x0(%esi),%esi

000027a0 <ddf_fun_add_to_category>:
    27a0:	55                   	push   %ebp
    27a1:	89 e5                	mov    %esp,%ebp
    27a3:	83 ec 08             	sub    $0x8,%esp
    27a6:	8b 45 08             	mov    0x8(%ebp),%eax
    27a9:	8b 55 0c             	mov    0xc(%ebp),%edx
    27ac:	80 38 00             	cmpb   $0x0,(%eax)
    27af:	74 15                	je     27c6 <ddf_fun_add_to_category+0x26>
    27b1:	83 78 10 02          	cmpl   $0x2,0x10(%eax)
    27b5:	75 24                	jne    27db <ddf_fun_add_to_category+0x3b>
    27b7:	89 55 0c             	mov    %edx,0xc(%ebp)
    27ba:	8b 40 04             	mov    0x4(%eax),%eax
    27bd:	89 45 08             	mov    %eax,0x8(%ebp)
    27c0:	c9                   	leave  
    27c1:	e9 ea a4 00 00       	jmp    ccb0 <devman_add_device_to_category@plt>
    27c6:	52                   	push   %edx
    27c7:	68 9c 03 00 00       	push   $0x39c
    27cc:	68 7c ae 00 00       	push   $0xae7c
    27d1:	68 4b af 00 00       	push   $0xaf4b
    27d6:	e8 65 a5 00 00       	call   cd40 <assert_abort@plt>
    27db:	50                   	push   %eax
    27dc:	68 9d 03 00 00       	push   $0x39d
    27e1:	68 7c ae 00 00       	push   $0xae7c
    27e6:	68 a1 af 00 00       	push   $0xafa1
    27eb:	e8 50 a5 00 00       	call   cd40 <assert_abort@plt>

000027f0 <ddf_driver_main>:
    27f0:	55                   	push   %ebp
    27f1:	89 e5                	mov    %esp,%ebp
    27f3:	56                   	push   %esi
    27f4:	53                   	push   %ebx
    27f5:	83 ec 10             	sub    $0x10,%esp
    27f8:	8d 75 f4             	lea    -0xc(%ebp),%esi
    27fb:	8b 45 08             	mov    0x8(%ebp),%eax
    27fe:	56                   	push   %esi
    27ff:	a3 8c f0 00 00       	mov    %eax,0xf08c
    2804:	6a 00                	push   $0x0
    2806:	68 50 1b 00 00       	push   $0x1b50
    280b:	68 41 26 9b c9       	push   $0xc99b2641
    2810:	e8 5b a7 00 00       	call   cf70 <async_create_port@plt>
    2815:	83 c4 10             	add    $0x10,%esp
    2818:	89 c3                	mov    %eax,%ebx
    281a:	85 c0                	test   %eax,%eax
    281c:	74 0a                	je     2828 <ddf_driver_main+0x38>
    281e:	8d 65 f8             	lea    -0x8(%ebp),%esp
    2821:	89 d8                	mov    %ebx,%eax
    2823:	5b                   	pop    %ebx
    2824:	5e                   	pop    %esi
    2825:	5d                   	pop    %ebp
    2826:	c3                   	ret    
    2827:	90                   	nop
    2828:	56                   	push   %esi
    2829:	6a 00                	push   $0x0
    282b:	68 70 1b 00 00       	push   $0x1b70
    2830:	68 41 26 9b db       	push   $0xdb9b2641
    2835:	e8 36 a7 00 00       	call   cf70 <async_create_port@plt>
    283a:	83 c4 10             	add    $0x10,%esp
    283d:	89 c3                	mov    %eax,%ebx
    283f:	85 c0                	test   %eax,%eax
    2841:	75 db                	jne    281e <ddf_driver_main+0x2e>
    2843:	51                   	push   %ecx
    2844:	51                   	push   %ecx
    2845:	6a 00                	push   $0x0
    2847:	68 60 1b 00 00       	push   $0x1b60
    284c:	e8 bf a7 00 00       	call   d010 <async_set_fallback_port_handler@plt>
    2851:	a1 8c f0 00 00       	mov    0xf08c,%eax
    2856:	8b 30                	mov    (%eax),%esi
    2858:	5b                   	pop    %ebx
    2859:	56                   	push   %esi
    285a:	e8 01 a6 00 00       	call   ce60 <devman_driver_register@plt>
    285f:	83 c4 10             	add    $0x10,%esp
    2862:	89 c3                	mov    %eax,%ebx
    2864:	85 c0                	test   %eax,%eax
    2866:	74 30                	je     2898 <ddf_driver_main+0xa8>
    2868:	b8 bb af 00 00       	mov    $0xafbb,%eax
    286d:	83 fb f7             	cmp    $0xfffffff7,%ebx
    2870:	74 0c                	je     287e <ddf_driver_main+0x8e>
    2872:	83 ec 0c             	sub    $0xc,%esp
    2875:	53                   	push   %ebx
    2876:	e8 a5 a6 00 00       	call   cf20 <str_error@plt>
    287b:	83 c4 10             	add    $0x10,%esp
    287e:	52                   	push   %edx
    287f:	52                   	push   %edx
    2880:	50                   	push   %eax
    2881:	68 48 b1 00 00       	push   $0xb148
    2886:	e8 45 a3 00 00       	call   cbd0 <printf@plt>
    288b:	83 c4 10             	add    $0x10,%esp
    288e:	8d 65 f8             	lea    -0x8(%ebp),%esp
    2891:	89 d8                	mov    %ebx,%eax
    2893:	5b                   	pop    %ebx
    2894:	5e                   	pop    %esi
    2895:	5d                   	pop    %ebp
    2896:	c3                   	ret    
    2897:	90                   	nop
    2898:	83 ec 0c             	sub    $0xc,%esp
    289b:	6a 00                	push   $0x0
    289d:	e8 fe a2 00 00       	call   cba0 <task_retval@plt>
    28a2:	83 c4 10             	add    $0x10,%esp
    28a5:	89 c3                	mov    %eax,%ebx
    28a7:	85 c0                	test   %eax,%eax
    28a9:	0f 85 6f ff ff ff    	jne    281e <ddf_driver_main+0x2e>
    28af:	83 c8 ff             	or     $0xffffffff,%eax
    28b2:	f0 0f c1 05 84 f0 00 	lock xadd %eax,0xf084
    28b9:	00 
    28ba:	48                   	dec    %eax
    28bb:	78 12                	js     28cf <ddf_driver_main+0xdf>
    28bd:	83 ec 0c             	sub    $0xc,%esp
    28c0:	6a 03                	push   $0x3
    28c2:	e8 09 a7 00 00       	call   cfd0 <fibril_switch@plt>
    28c7:	83 c4 10             	add    $0x10,%esp
    28ca:	e9 4f ff ff ff       	jmp    281e <ddf_driver_main+0x2e>
    28cf:	50                   	push   %eax
    28d0:	6a 0b                	push   $0xb
    28d2:	6a 00                	push   $0x0
    28d4:	6a 00                	push   $0x0
    28d6:	6a 00                	push   $0x0
    28d8:	6a 00                	push   $0x0
    28da:	6a 00                	push   $0x0
    28dc:	68 84 f0 00 00       	push   $0xf084
    28e1:	ff 15 80 f0 00 00    	call   *0xf080
    28e7:	83 c4 20             	add    $0x20,%esp
    28ea:	eb d1                	jmp    28bd <ddf_driver_main+0xcd>
    28ec:	66 90                	xchg   %ax,%ax
    28ee:	66 90                	xchg   %ax,%ax

000028f0 <get_remote_iface>:
    28f0:	55                   	push   %ebp
    28f1:	89 e5                	mov    %esp,%ebp
    28f3:	83 ec 08             	sub    $0x8,%esp
    28f6:	8b 45 08             	mov    0x8(%ebp),%eax
    28f9:	83 f8 0e             	cmp    $0xe,%eax
    28fc:	77 09                	ja     2907 <get_remote_iface+0x17>
    28fe:	8b 04 85 c0 b1 00 00 	mov    0xb1c0(,%eax,4),%eax
    2905:	c9                   	leave  
    2906:	c3                   	ret    
    2907:	50                   	push   %eax
    2908:	6a 4f                	push   $0x4f
    290a:	68 98 b1 00 00       	push   $0xb198
    290f:	68 8d ae 00 00       	push   $0xae8d
    2914:	e8 27 a4 00 00       	call   cd40 <assert_abort@plt>
    2919:	8d b4 26 00 00 00 00 	lea    0x0(%esi,%eiz,1),%esi

00002920 <get_remote_method>:
    2920:	55                   	push   %ebp
    2921:	89 e5                	mov    %esp,%ebp
    2923:	8b 55 08             	mov    0x8(%ebp),%edx
    2926:	8b 45 0c             	mov    0xc(%ebp),%eax
    2929:	39 02                	cmp    %eax,(%edx)
    292b:	76 0b                	jbe    2938 <get_remote_method+0x18>
    292d:	8b 52 04             	mov    0x4(%edx),%edx
    2930:	5d                   	pop    %ebp
    2931:	8b 04 82             	mov    (%edx,%eax,4),%eax
    2934:	c3                   	ret    
    2935:	8d 76 00             	lea    0x0(%esi),%esi
    2938:	31 c0                	xor    %eax,%eax
    293a:	5d                   	pop    %ebp
    293b:	c3                   	ret    
    293c:	8d 74 26 00          	lea    0x0(%esi,%eiz,1),%esi

00002940 <is_valid_iface_idx>:
    2940:	55                   	push   %ebp
    2941:	89 e5                	mov    %esp,%ebp
    2943:	83 7d 08 0e          	cmpl   $0xe,0x8(%ebp)
    2947:	5d                   	pop    %ebp
    2948:	0f 96 c0             	setbe  %al
    294b:	c3                   	ret    
    294c:	66 90                	xchg   %ax,%ax
    294e:	66 90                	xchg   %ax,%ax

00002950 <ddf_log_init>:
    2950:	55                   	push   %ebp
    2951:	89 e5                	mov    %esp,%ebp
    2953:	5d                   	pop    %ebp
    2954:	e9 d7 a2 00 00       	jmp    cc30 <log_init@plt>
    2959:	8d b4 26 00 00 00 00 	lea    0x0(%esi,%eiz,1),%esi

00002960 <ddf_msg>:
    2960:	55                   	push   %ebp
    2961:	89 e5                	mov    %esp,%ebp
    2963:	83 ec 08             	sub    $0x8,%esp
    2966:	8d 45 10             	lea    0x10(%ebp),%eax
    2969:	8b 55 0c             	mov    0xc(%ebp),%edx
    296c:	8b 4d 08             	mov    0x8(%ebp),%ecx
    296f:	50                   	push   %eax
    2970:	52                   	push   %edx
    2971:	51                   	push   %ecx
    2972:	6a ff                	push   $0xffffffff
    2974:	e8 97 a3 00 00       	call   cd10 <log_msgv@plt>
    2979:	83 c4 10             	add    $0x10,%esp
    297c:	c9                   	leave  
    297d:	c3                   	ret    
    297e:	66 90                	xchg   %ax,%ax

00002980 <remote_audio_mixer_set_item_level>:
    2980:	55                   	push   %ebp
    2981:	89 e5                	mov    %esp,%ebp
    2983:	53                   	push   %ebx
    2984:	51                   	push   %ecx
    2985:	8b 45 0c             	mov    0xc(%ebp),%eax
    2988:	8b 4d 08             	mov    0x8(%ebp),%ecx
    298b:	8b 5d 10             	mov    0x10(%ebp),%ebx
    298e:	8b 55 14             	mov    0x14(%ebp),%edx
    2991:	8b 40 0c             	mov    0xc(%eax),%eax
    2994:	85 c0                	test   %eax,%eax
    2996:	74 20                	je     29b8 <remote_audio_mixer_set_item_level+0x38>
    2998:	83 ec 04             	sub    $0x4,%esp
    299b:	ff 72 0c             	pushl  0xc(%edx)
    299e:	8b 52 08             	mov    0x8(%edx),%edx
    29a1:	52                   	push   %edx
    29a2:	51                   	push   %ecx
    29a3:	ff d0                	call   *%eax
    29a5:	89 5d 08             	mov    %ebx,0x8(%ebp)
    29a8:	83 c4 10             	add    $0x10,%esp
    29ab:	8b 5d fc             	mov    -0x4(%ebp),%ebx
    29ae:	89 45 0c             	mov    %eax,0xc(%ebp)
    29b1:	c9                   	leave  
    29b2:	e9 29 a3 00 00       	jmp    cce0 <async_answer_0@plt>
    29b7:	90                   	nop
    29b8:	89 5d 08             	mov    %ebx,0x8(%ebp)
    29bb:	8b 5d fc             	mov    -0x4(%ebp),%ebx
    29be:	c7 45 0c f5 ff ff ff 	movl   $0xfffffff5,0xc(%ebp)
    29c5:	c9                   	leave  
    29c6:	e9 15 a3 00 00       	jmp    cce0 <async_answer_0@plt>
    29cb:	90                   	nop
    29cc:	8d 74 26 00          	lea    0x0(%esi,%eiz,1),%esi

000029d0 <remote_audio_mixer_get_item_level>:
    29d0:	55                   	push   %ebp
    29d1:	89 e5                	mov    %esp,%ebp
    29d3:	83 ec 18             	sub    $0x18,%esp
    29d6:	8b 45 0c             	mov    0xc(%ebp),%eax
    29d9:	8b 40 08             	mov    0x8(%eax),%eax
    29dc:	85 c0                	test   %eax,%eax
    29de:	74 30                	je     2a10 <remote_audio_mixer_get_item_level+0x40>
    29e0:	8b 55 14             	mov    0x14(%ebp),%edx
    29e3:	c7 45 f4 00 00 00 00 	movl   $0x0,-0xc(%ebp)
    29ea:	8b 52 08             	mov    0x8(%edx),%edx
    29ed:	51                   	push   %ecx
    29ee:	8d 4d f4             	lea    -0xc(%ebp),%ecx
    29f1:	51                   	push   %ecx
    29f2:	52                   	push   %edx
    29f3:	8b 55 08             	mov    0x8(%ebp),%edx
    29f6:	52                   	push   %edx
    29f7:	ff d0                	call   *%eax
    29f9:	83 c4 0c             	add    $0xc,%esp
    29fc:	8b 4d f4             	mov    -0xc(%ebp),%ecx
    29ff:	51                   	push   %ecx
    2a00:	50                   	push   %eax
    2a01:	8b 45 10             	mov    0x10(%ebp),%eax
    2a04:	50                   	push   %eax
    2a05:	e8 f6 a4 00 00       	call   cf00 <async_answer_1@plt>
    2a0a:	83 c4 10             	add    $0x10,%esp
    2a0d:	c9                   	leave  
    2a0e:	c3                   	ret    
    2a0f:	90                   	nop
    2a10:	50                   	push   %eax
    2a11:	50                   	push   %eax
    2a12:	8b 45 10             	mov    0x10(%ebp),%eax
    2a15:	6a f5                	push   $0xfffffff5
    2a17:	50                   	push   %eax
    2a18:	e8 c3 a2 00 00       	call   cce0 <async_answer_0@plt>
    2a1d:	83 c4 10             	add    $0x10,%esp
    2a20:	c9                   	leave  
    2a21:	c3                   	ret    
    2a22:	8d b4 26 00 00 00 00 	lea    0x0(%esi,%eiz,1),%esi
    2a29:	8d bc 27 00 00 00 00 	lea    0x0(%edi,%eiz,1),%edi

00002a30 <remote_audio_mixer_get_item_info>:
    2a30:	55                   	push   %ebp
    2a31:	89 e5                	mov    %esp,%ebp
    2a33:	56                   	push   %esi
    2a34:	53                   	push   %ebx
    2a35:	83 ec 10             	sub    $0x10,%esp
    2a38:	8b 45 0c             	mov    0xc(%ebp),%eax
    2a3b:	8b 40 04             	mov    0x4(%eax),%eax
    2a3e:	85 c0                	test   %eax,%eax
    2a40:	0f 84 c2 00 00 00    	je     2b08 <remote_audio_mixer_get_item_info+0xd8>
    2a46:	8b 55 14             	mov    0x14(%ebp),%edx
    2a49:	8d 4d ec             	lea    -0x14(%ebp),%ecx
    2a4c:	c7 45 e8 00 00 00 00 	movl   $0x0,-0x18(%ebp)
    2a53:	c7 45 ec 00 00 00 00 	movl   $0x0,-0x14(%ebp)
    2a5a:	8b 52 08             	mov    0x8(%edx),%edx
    2a5d:	51                   	push   %ecx
    2a5e:	8d 4d e8             	lea    -0x18(%ebp),%ecx
    2a61:	51                   	push   %ecx
    2a62:	8b 4d 08             	mov    0x8(%ebp),%ecx
    2a65:	52                   	push   %edx
    2a66:	51                   	push   %ecx
    2a67:	ff d0                	call   *%eax
    2a69:	83 c4 10             	add    $0x10,%esp
    2a6c:	89 c6                	mov    %eax,%esi
    2a6e:	8b 45 e8             	mov    -0x18(%ebp),%eax
    2a71:	85 c0                	test   %eax,%eax
    2a73:	74 5b                	je     2ad0 <remote_audio_mixer_get_item_info+0xa0>
    2a75:	83 ec 0c             	sub    $0xc,%esp
    2a78:	50                   	push   %eax
    2a79:	e8 62 a4 00 00       	call   cee0 <str_size@plt>
    2a7e:	8b 55 10             	mov    0x10(%ebp),%edx
    2a81:	8d 58 01             	lea    0x1(%eax),%ebx
    2a84:	8b 45 ec             	mov    -0x14(%ebp),%eax
    2a87:	50                   	push   %eax
    2a88:	53                   	push   %ebx
    2a89:	56                   	push   %esi
    2a8a:	52                   	push   %edx
    2a8b:	e8 20 a3 00 00       	call   cdb0 <async_answer_2@plt>
    2a90:	83 c4 20             	add    $0x20,%esp
    2a93:	85 f6                	test   %esi,%esi
    2a95:	75 2f                	jne    2ac6 <remote_audio_mixer_get_item_info+0x96>
    2a97:	85 db                	test   %ebx,%ebx
    2a99:	74 2b                	je     2ac6 <remote_audio_mixer_get_item_info+0x96>
    2a9b:	50                   	push   %eax
    2a9c:	50                   	push   %eax
    2a9d:	8d 45 f0             	lea    -0x10(%ebp),%eax
    2aa0:	50                   	push   %eax
    2aa1:	8d 45 f4             	lea    -0xc(%ebp),%eax
    2aa4:	50                   	push   %eax
    2aa5:	e8 d6 a3 00 00       	call   ce80 <async_data_read_receive@plt>
    2aaa:	83 c4 10             	add    $0x10,%esp
    2aad:	84 c0                	test   %al,%al
    2aaf:	74 6f                	je     2b20 <remote_audio_mixer_get_item_info+0xf0>
    2ab1:	3b 5d f0             	cmp    -0x10(%ebp),%ebx
    2ab4:	74 3a                	je     2af0 <remote_audio_mixer_get_item_info+0xc0>
    2ab6:	50                   	push   %eax
    2ab7:	50                   	push   %eax
    2ab8:	8b 45 f4             	mov    -0xc(%ebp),%eax
    2abb:	6a fd                	push   $0xfffffffd
    2abd:	50                   	push   %eax
    2abe:	e8 1d a2 00 00       	call   cce0 <async_answer_0@plt>
    2ac3:	83 c4 10             	add    $0x10,%esp
    2ac6:	8d 65 f8             	lea    -0x8(%ebp),%esp
    2ac9:	5b                   	pop    %ebx
    2aca:	5e                   	pop    %esi
    2acb:	5d                   	pop    %ebp
    2acc:	c3                   	ret    
    2acd:	8d 76 00             	lea    0x0(%esi),%esi
    2ad0:	8b 45 ec             	mov    -0x14(%ebp),%eax
    2ad3:	8b 55 10             	mov    0x10(%ebp),%edx
    2ad6:	50                   	push   %eax
    2ad7:	6a 00                	push   $0x0
    2ad9:	56                   	push   %esi
    2ada:	52                   	push   %edx
    2adb:	e8 d0 a2 00 00       	call   cdb0 <async_answer_2@plt>
    2ae0:	83 c4 10             	add    $0x10,%esp
    2ae3:	8d 65 f8             	lea    -0x8(%ebp),%esp
    2ae6:	5b                   	pop    %ebx
    2ae7:	5e                   	pop    %esi
    2ae8:	5d                   	pop    %ebp
    2ae9:	c3                   	ret    
    2aea:	8d b6 00 00 00 00    	lea    0x0(%esi),%esi
    2af0:	8b 75 f4             	mov    -0xc(%ebp),%esi
    2af3:	51                   	push   %ecx
    2af4:	53                   	push   %ebx
    2af5:	8b 5d e8             	mov    -0x18(%ebp),%ebx
    2af8:	53                   	push   %ebx
    2af9:	56                   	push   %esi
    2afa:	e8 71 a1 00 00       	call   cc70 <async_data_read_finalize@plt>
    2aff:	83 c4 10             	add    $0x10,%esp
    2b02:	eb c2                	jmp    2ac6 <remote_audio_mixer_get_item_info+0x96>
    2b04:	8d 74 26 00          	lea    0x0(%esi,%eiz,1),%esi
    2b08:	8b 75 10             	mov    0x10(%ebp),%esi
    2b0b:	53                   	push   %ebx
    2b0c:	53                   	push   %ebx
    2b0d:	6a f5                	push   $0xfffffff5
    2b0f:	56                   	push   %esi
    2b10:	e8 cb a1 00 00       	call   cce0 <async_answer_0@plt>
    2b15:	83 c4 10             	add    $0x10,%esp
    2b18:	8d 65 f8             	lea    -0x8(%ebp),%esp
    2b1b:	5b                   	pop    %ebx
    2b1c:	5e                   	pop    %esi
    2b1d:	5d                   	pop    %ebp
    2b1e:	c3                   	ret    
    2b1f:	90                   	nop
    2b20:	50                   	push   %eax
    2b21:	50                   	push   %eax
    2b22:	8b 45 f4             	mov    -0xc(%ebp),%eax
    2b25:	6a f8                	push   $0xfffffff8
    2b27:	50                   	push   %eax
    2b28:	e8 b3 a1 00 00       	call   cce0 <async_answer_0@plt>
    2b2d:	83 c4 10             	add    $0x10,%esp
    2b30:	eb 94                	jmp    2ac6 <remote_audio_mixer_get_item_info+0x96>
    2b32:	8d b4 26 00 00 00 00 	lea    0x0(%esi,%eiz,1),%esi
    2b39:	8d bc 27 00 00 00 00 	lea    0x0(%edi,%eiz,1),%edi

00002b40 <remote_audio_mixer_get_info>:
    2b40:	55                   	push   %ebp
    2b41:	89 e5                	mov    %esp,%ebp
    2b43:	56                   	push   %esi
    2b44:	53                   	push   %ebx
    2b45:	83 ec 10             	sub    $0x10,%esp
    2b48:	8b 45 0c             	mov    0xc(%ebp),%eax
    2b4b:	8b 00                	mov    (%eax),%eax
    2b4d:	85 c0                	test   %eax,%eax
    2b4f:	0f 84 bb 00 00 00    	je     2c10 <remote_audio_mixer_get_info+0xd0>
    2b55:	8d 55 ec             	lea    -0x14(%ebp),%edx
    2b58:	8b 5d 08             	mov    0x8(%ebp),%ebx
    2b5b:	c7 45 e8 00 00 00 00 	movl   $0x0,-0x18(%ebp)
    2b62:	c7 45 ec 00 00 00 00 	movl   $0x0,-0x14(%ebp)
    2b69:	51                   	push   %ecx
    2b6a:	52                   	push   %edx
    2b6b:	8d 55 e8             	lea    -0x18(%ebp),%edx
    2b6e:	52                   	push   %edx
    2b6f:	53                   	push   %ebx
    2b70:	ff d0                	call   *%eax
    2b72:	83 c4 10             	add    $0x10,%esp
    2b75:	89 c6                	mov    %eax,%esi
    2b77:	8b 45 e8             	mov    -0x18(%ebp),%eax
    2b7a:	85 c0                	test   %eax,%eax
    2b7c:	74 5a                	je     2bd8 <remote_audio_mixer_get_info+0x98>
    2b7e:	83 ec 0c             	sub    $0xc,%esp
    2b81:	50                   	push   %eax
    2b82:	e8 59 a3 00 00       	call   cee0 <str_size@plt>
    2b87:	8b 55 10             	mov    0x10(%ebp),%edx
    2b8a:	8d 58 01             	lea    0x1(%eax),%ebx
    2b8d:	8b 45 ec             	mov    -0x14(%ebp),%eax
    2b90:	50                   	push   %eax
    2b91:	53                   	push   %ebx
    2b92:	56                   	push   %esi
    2b93:	52                   	push   %edx
    2b94:	e8 17 a2 00 00       	call   cdb0 <async_answer_2@plt>
    2b99:	83 c4 20             	add    $0x20,%esp
    2b9c:	85 f6                	test   %esi,%esi
    2b9e:	75 2f                	jne    2bcf <remote_audio_mixer_get_info+0x8f>
    2ba0:	85 db                	test   %ebx,%ebx
    2ba2:	74 2b                	je     2bcf <remote_audio_mixer_get_info+0x8f>
    2ba4:	50                   	push   %eax
    2ba5:	50                   	push   %eax
    2ba6:	8d 45 f0             	lea    -0x10(%ebp),%eax
    2ba9:	50                   	push   %eax
    2baa:	8d 45 f4             	lea    -0xc(%ebp),%eax
    2bad:	50                   	push   %eax
    2bae:	e8 cd a2 00 00       	call   ce80 <async_data_read_receive@plt>
    2bb3:	83 c4 10             	add    $0x10,%esp
    2bb6:	84 c0                	test   %al,%al
    2bb8:	74 6e                	je     2c28 <remote_audio_mixer_get_info+0xe8>
    2bba:	3b 5d f0             	cmp    -0x10(%ebp),%ebx
    2bbd:	74 39                	je     2bf8 <remote_audio_mixer_get_info+0xb8>
    2bbf:	50                   	push   %eax
    2bc0:	50                   	push   %eax
    2bc1:	8b 45 f4             	mov    -0xc(%ebp),%eax
    2bc4:	6a fd                	push   $0xfffffffd
    2bc6:	50                   	push   %eax
    2bc7:	e8 14 a1 00 00       	call   cce0 <async_answer_0@plt>
    2bcc:	83 c4 10             	add    $0x10,%esp
    2bcf:	8d 65 f8             	lea    -0x8(%ebp),%esp
    2bd2:	5b                   	pop    %ebx
    2bd3:	5e                   	pop    %esi
    2bd4:	5d                   	pop    %ebp
    2bd5:	c3                   	ret    
    2bd6:	66 90                	xchg   %ax,%ax
    2bd8:	8b 45 ec             	mov    -0x14(%ebp),%eax
    2bdb:	8b 55 10             	mov    0x10(%ebp),%edx
    2bde:	50                   	push   %eax
    2bdf:	6a 00                	push   $0x0
    2be1:	56                   	push   %esi
    2be2:	52                   	push   %edx
    2be3:	e8 c8 a1 00 00       	call   cdb0 <async_answer_2@plt>
    2be8:	83 c4 10             	add    $0x10,%esp
    2beb:	8d 65 f8             	lea    -0x8(%ebp),%esp
    2bee:	5b                   	pop    %ebx
    2bef:	5e                   	pop    %esi
    2bf0:	5d                   	pop    %ebp
    2bf1:	c3                   	ret    
    2bf2:	8d b6 00 00 00 00    	lea    0x0(%esi),%esi
    2bf8:	8b 75 f4             	mov    -0xc(%ebp),%esi
    2bfb:	51                   	push   %ecx
    2bfc:	53                   	push   %ebx
    2bfd:	8b 5d e8             	mov    -0x18(%ebp),%ebx
    2c00:	53                   	push   %ebx
    2c01:	56                   	push   %esi
    2c02:	e8 69 a0 00 00       	call   cc70 <async_data_read_finalize@plt>
    2c07:	83 c4 10             	add    $0x10,%esp
    2c0a:	eb c3                	jmp    2bcf <remote_audio_mixer_get_info+0x8f>
    2c0c:	8d 74 26 00          	lea    0x0(%esi,%eiz,1),%esi
    2c10:	8b 45 10             	mov    0x10(%ebp),%eax
    2c13:	56                   	push   %esi
    2c14:	56                   	push   %esi
    2c15:	6a f5                	push   $0xfffffff5
    2c17:	50                   	push   %eax
    2c18:	e8 c3 a0 00 00       	call   cce0 <async_answer_0@plt>
    2c1d:	83 c4 10             	add    $0x10,%esp
    2c20:	8d 65 f8             	lea    -0x8(%ebp),%esp
    2c23:	5b                   	pop    %ebx
    2c24:	5e                   	pop    %esi
    2c25:	5d                   	pop    %ebp
    2c26:	c3                   	ret    
    2c27:	90                   	nop
    2c28:	50                   	push   %eax
    2c29:	50                   	push   %eax
    2c2a:	8b 45 f4             	mov    -0xc(%ebp),%eax
    2c2d:	6a f8                	push   $0xfffffff8
    2c2f:	50                   	push   %eax
    2c30:	e8 ab a0 00 00       	call   cce0 <async_answer_0@plt>
    2c35:	83 c4 10             	add    $0x10,%esp
    2c38:	eb 95                	jmp    2bcf <remote_audio_mixer_get_info+0x8f>
    2c3a:	8d b6 00 00 00 00    	lea    0x0(%esi),%esi

00002c40 <audio_mixer_get_info>:
    2c40:	55                   	push   %ebp
    2c41:	89 e5                	mov    %esp,%ebp
    2c43:	57                   	push   %edi
    2c44:	56                   	push   %esi
    2c45:	53                   	push   %ebx
    2c46:	83 ec 2c             	sub    $0x2c,%esp
    2c49:	8b 75 08             	mov    0x8(%ebp),%esi
    2c4c:	85 f6                	test   %esi,%esi
    2c4e:	0f 84 bc 00 00 00    	je     2d10 <audio_mixer_get_info+0xd0>
    2c54:	50                   	push   %eax
    2c55:	8d 45 e4             	lea    -0x1c(%ebp),%eax
    2c58:	6a 00                	push   $0x0
    2c5a:	6a 00                	push   $0x0
    2c5c:	6a 00                	push   $0x0
    2c5e:	50                   	push   %eax
    2c5f:	8d 45 e0             	lea    -0x20(%ebp),%eax
    2c62:	50                   	push   %eax
    2c63:	6a 00                	push   $0x0
    2c65:	6a 00                	push   $0x0
    2c67:	6a 00                	push   $0x0
    2c69:	6a 00                	push   $0x0
    2c6b:	68 03 04 00 00       	push   $0x403
    2c70:	56                   	push   %esi
    2c71:	e8 5a a0 00 00       	call   ccd0 <async_req_fast@plt>
    2c76:	83 c4 30             	add    $0x30,%esp
    2c79:	89 c3                	mov    %eax,%ebx
    2c7b:	85 c0                	test   %eax,%eax
    2c7d:	8b 45 0c             	mov    0xc(%ebp),%eax
    2c80:	0f 94 c2             	sete   %dl
    2c83:	85 c0                	test   %eax,%eax
    2c85:	74 04                	je     2c8b <audio_mixer_get_info+0x4b>
    2c87:	84 d2                	test   %dl,%dl
    2c89:	75 1d                	jne    2ca8 <audio_mixer_get_info+0x68>
    2c8b:	8b 45 10             	mov    0x10(%ebp),%eax
    2c8e:	85 c0                	test   %eax,%eax
    2c90:	74 57                	je     2ce9 <audio_mixer_get_info+0xa9>
    2c92:	84 d2                	test   %dl,%dl
    2c94:	74 53                	je     2ce9 <audio_mixer_get_info+0xa9>
    2c96:	8b 4d 10             	mov    0x10(%ebp),%ecx
    2c99:	8b 45 e4             	mov    -0x1c(%ebp),%eax
    2c9c:	89 01                	mov    %eax,(%ecx)
    2c9e:	89 d8                	mov    %ebx,%eax
    2ca0:	8d 65 f4             	lea    -0xc(%ebp),%esp
    2ca3:	5b                   	pop    %ebx
    2ca4:	5e                   	pop    %esi
    2ca5:	5f                   	pop    %edi
    2ca6:	5d                   	pop    %ebp
    2ca7:	c3                   	ret    
    2ca8:	8b 45 e0             	mov    -0x20(%ebp),%eax
    2cab:	88 55 d4             	mov    %dl,-0x2c(%ebp)
    2cae:	57                   	push   %edi
    2caf:	57                   	push   %edi
    2cb0:	50                   	push   %eax
    2cb1:	6a 01                	push   $0x1
    2cb3:	e8 a8 a0 00 00       	call   cd60 <calloc@plt>
    2cb8:	83 c4 10             	add    $0x10,%esp
    2cbb:	89 c7                	mov    %eax,%edi
    2cbd:	85 c0                	test   %eax,%eax
    2cbf:	8a 55 d4             	mov    -0x2c(%ebp),%dl
    2cc2:	74 53                	je     2d17 <audio_mixer_get_info+0xd7>
    2cc4:	8b 4d e0             	mov    -0x20(%ebp),%ecx
    2cc7:	88 55 d4             	mov    %dl,-0x2c(%ebp)
    2cca:	52                   	push   %edx
    2ccb:	51                   	push   %ecx
    2ccc:	50                   	push   %eax
    2ccd:	56                   	push   %esi
    2cce:	e8 bd a1 00 00       	call   ce90 <async_data_read_start@plt>
    2cd3:	83 c4 10             	add    $0x10,%esp
    2cd6:	8a 55 d4             	mov    -0x2c(%ebp),%dl
    2cd9:	85 c0                	test   %eax,%eax
    2cdb:	75 1b                	jne    2cf8 <audio_mixer_get_info+0xb8>
    2cdd:	8b 45 0c             	mov    0xc(%ebp),%eax
    2ce0:	89 38                	mov    %edi,(%eax)
    2ce2:	8b 45 10             	mov    0x10(%ebp),%eax
    2ce5:	85 c0                	test   %eax,%eax
    2ce7:	75 a9                	jne    2c92 <audio_mixer_get_info+0x52>
    2ce9:	8d 65 f4             	lea    -0xc(%ebp),%esp
    2cec:	89 d8                	mov    %ebx,%eax
    2cee:	5b                   	pop    %ebx
    2cef:	5e                   	pop    %esi
    2cf0:	5f                   	pop    %edi
    2cf1:	5d                   	pop    %ebp
    2cf2:	c3                   	ret    
    2cf3:	90                   	nop
    2cf4:	8d 74 26 00          	lea    0x0(%esi,%eiz,1),%esi
    2cf8:	83 ec 0c             	sub    $0xc,%esp
    2cfb:	89 45 d4             	mov    %eax,-0x2c(%ebp)
    2cfe:	57                   	push   %edi
    2cff:	e8 2c a3 00 00       	call   d030 <free@plt>
    2d04:	83 c4 10             	add    $0x10,%esp
    2d07:	8b 45 d4             	mov    -0x2c(%ebp),%eax
    2d0a:	eb 94                	jmp    2ca0 <audio_mixer_get_info+0x60>
    2d0c:	8d 74 26 00          	lea    0x0(%esi,%eiz,1),%esi
    2d10:	b8 f2 ff ff ff       	mov    $0xfffffff2,%eax
    2d15:	eb 89                	jmp    2ca0 <audio_mixer_get_info+0x60>
    2d17:	53                   	push   %ebx
    2d18:	6a 00                	push   $0x0
    2d1a:	6a ff                	push   $0xffffffff
    2d1c:	56                   	push   %esi
    2d1d:	e8 6e a1 00 00       	call   ce90 <async_data_read_start@plt>
    2d22:	83 c4 10             	add    $0x10,%esp
    2d25:	b8 fe ff ff ff       	mov    $0xfffffffe,%eax
    2d2a:	e9 71 ff ff ff       	jmp    2ca0 <audio_mixer_get_info+0x60>
    2d2f:	90                   	nop

00002d30 <audio_mixer_get_item_info>:
    2d30:	55                   	push   %ebp
    2d31:	89 e5                	mov    %esp,%ebp
    2d33:	57                   	push   %edi
    2d34:	56                   	push   %esi
    2d35:	53                   	push   %ebx
    2d36:	83 ec 2c             	sub    $0x2c,%esp
    2d39:	8b 75 08             	mov    0x8(%ebp),%esi
    2d3c:	85 f6                	test   %esi,%esi
    2d3e:	0f 84 c4 00 00 00    	je     2e08 <audio_mixer_get_item_info+0xd8>
    2d44:	50                   	push   %eax
    2d45:	8d 45 e4             	lea    -0x1c(%ebp),%eax
    2d48:	6a 00                	push   $0x0
    2d4a:	6a 00                	push   $0x0
    2d4c:	6a 00                	push   $0x0
    2d4e:	50                   	push   %eax
    2d4f:	8d 45 e0             	lea    -0x20(%ebp),%eax
    2d52:	50                   	push   %eax
    2d53:	8b 45 0c             	mov    0xc(%ebp),%eax
    2d56:	6a 00                	push   $0x0
    2d58:	6a 00                	push   $0x0
    2d5a:	50                   	push   %eax
    2d5b:	6a 01                	push   $0x1
    2d5d:	68 03 04 00 00       	push   $0x403
    2d62:	56                   	push   %esi
    2d63:	e8 68 9f 00 00       	call   ccd0 <async_req_fast@plt>
    2d68:	83 c4 30             	add    $0x30,%esp
    2d6b:	89 c3                	mov    %eax,%ebx
    2d6d:	85 c0                	test   %eax,%eax
    2d6f:	8b 45 10             	mov    0x10(%ebp),%eax
    2d72:	0f 94 c2             	sete   %dl
    2d75:	85 c0                	test   %eax,%eax
    2d77:	74 04                	je     2d7d <audio_mixer_get_item_info+0x4d>
    2d79:	84 d2                	test   %dl,%dl
    2d7b:	75 23                	jne    2da0 <audio_mixer_get_item_info+0x70>
    2d7d:	8b 45 14             	mov    0x14(%ebp),%eax
    2d80:	85 c0                	test   %eax,%eax
    2d82:	74 5d                	je     2de1 <audio_mixer_get_item_info+0xb1>
    2d84:	84 d2                	test   %dl,%dl
    2d86:	74 59                	je     2de1 <audio_mixer_get_item_info+0xb1>
    2d88:	8b 4d 14             	mov    0x14(%ebp),%ecx
    2d8b:	8b 45 e4             	mov    -0x1c(%ebp),%eax
    2d8e:	89 01                	mov    %eax,(%ecx)
    2d90:	89 d8                	mov    %ebx,%eax
    2d92:	8d 65 f4             	lea    -0xc(%ebp),%esp
    2d95:	5b                   	pop    %ebx
    2d96:	5e                   	pop    %esi
    2d97:	5f                   	pop    %edi
    2d98:	5d                   	pop    %ebp
    2d99:	c3                   	ret    
    2d9a:	8d b6 00 00 00 00    	lea    0x0(%esi),%esi
    2da0:	8b 45 e0             	mov    -0x20(%ebp),%eax
    2da3:	88 55 d4             	mov    %dl,-0x2c(%ebp)
    2da6:	57                   	push   %edi
    2da7:	57                   	push   %edi
    2da8:	50                   	push   %eax
    2da9:	6a 01                	push   $0x1
    2dab:	e8 b0 9f 00 00       	call   cd60 <calloc@plt>
    2db0:	83 c4 10             	add    $0x10,%esp
    2db3:	89 c7                	mov    %eax,%edi
    2db5:	85 c0                	test   %eax,%eax
    2db7:	8a 55 d4             	mov    -0x2c(%ebp),%dl
    2dba:	74 53                	je     2e0f <audio_mixer_get_item_info+0xdf>
    2dbc:	8b 4d e0             	mov    -0x20(%ebp),%ecx
    2dbf:	88 55 d4             	mov    %dl,-0x2c(%ebp)
    2dc2:	52                   	push   %edx
    2dc3:	51                   	push   %ecx
    2dc4:	50                   	push   %eax
    2dc5:	56                   	push   %esi
    2dc6:	e8 c5 a0 00 00       	call   ce90 <async_data_read_start@plt>
    2dcb:	83 c4 10             	add    $0x10,%esp
    2dce:	8a 55 d4             	mov    -0x2c(%ebp),%dl
    2dd1:	85 c0                	test   %eax,%eax
    2dd3:	75 1b                	jne    2df0 <audio_mixer_get_item_info+0xc0>
    2dd5:	8b 45 10             	mov    0x10(%ebp),%eax
    2dd8:	89 38                	mov    %edi,(%eax)
    2dda:	8b 45 14             	mov    0x14(%ebp),%eax
    2ddd:	85 c0                	test   %eax,%eax
    2ddf:	75 a3                	jne    2d84 <audio_mixer_get_item_info+0x54>
    2de1:	8d 65 f4             	lea    -0xc(%ebp),%esp
    2de4:	89 d8                	mov    %ebx,%eax
    2de6:	5b                   	pop    %ebx
    2de7:	5e                   	pop    %esi
    2de8:	5f                   	pop    %edi
    2de9:	5d                   	pop    %ebp
    2dea:	c3                   	ret    
    2deb:	90                   	nop
    2dec:	8d 74 26 00          	lea    0x0(%esi,%eiz,1),%esi
    2df0:	83 ec 0c             	sub    $0xc,%esp
    2df3:	89 45 d4             	mov    %eax,-0x2c(%ebp)
    2df6:	57                   	push   %edi
    2df7:	e8 34 a2 00 00       	call   d030 <free@plt>
    2dfc:	83 c4 10             	add    $0x10,%esp
    2dff:	8b 45 d4             	mov    -0x2c(%ebp),%eax
    2e02:	eb 8e                	jmp    2d92 <audio_mixer_get_item_info+0x62>
    2e04:	8d 74 26 00          	lea    0x0(%esi,%eiz,1),%esi
    2e08:	b8 f2 ff ff ff       	mov    $0xfffffff2,%eax
    2e0d:	eb 83                	jmp    2d92 <audio_mixer_get_item_info+0x62>
    2e0f:	53                   	push   %ebx
    2e10:	6a 00                	push   $0x0
    2e12:	6a ff                	push   $0xffffffff
    2e14:	56                   	push   %esi
    2e15:	e8 76 a0 00 00       	call   ce90 <async_data_read_start@plt>
    2e1a:	83 c4 10             	add    $0x10,%esp
    2e1d:	b8 fe ff ff ff       	mov    $0xfffffffe,%eax
    2e22:	e9 6b ff ff ff       	jmp    2d92 <audio_mixer_get_item_info+0x62>
    2e27:	89 f6                	mov    %esi,%esi
    2e29:	8d bc 27 00 00 00 00 	lea    0x0(%edi,%eiz,1),%edi

00002e30 <audio_mixer_set_item_level>:
    2e30:	55                   	push   %ebp
    2e31:	89 e5                	mov    %esp,%ebp
    2e33:	83 ec 08             	sub    $0x8,%esp
    2e36:	8b 45 08             	mov    0x8(%ebp),%eax
    2e39:	85 c0                	test   %eax,%eax
    2e3b:	74 2b                	je     2e68 <audio_mixer_set_item_level+0x38>
    2e3d:	8b 4d 10             	mov    0x10(%ebp),%ecx
    2e40:	52                   	push   %edx
    2e41:	8b 55 0c             	mov    0xc(%ebp),%edx
    2e44:	6a 00                	push   $0x0
    2e46:	6a 00                	push   $0x0
    2e48:	6a 00                	push   $0x0
    2e4a:	6a 00                	push   $0x0
    2e4c:	6a 00                	push   $0x0
    2e4e:	6a 00                	push   $0x0
    2e50:	51                   	push   %ecx
    2e51:	52                   	push   %edx
    2e52:	6a 02                	push   $0x2
    2e54:	68 03 04 00 00       	push   $0x403
    2e59:	50                   	push   %eax
    2e5a:	e8 71 9e 00 00       	call   ccd0 <async_req_fast@plt>
    2e5f:	83 c4 30             	add    $0x30,%esp
    2e62:	c9                   	leave  
    2e63:	c3                   	ret    
    2e64:	8d 74 26 00          	lea    0x0(%esi,%eiz,1),%esi
    2e68:	b8 f2 ff ff ff       	mov    $0xfffffff2,%eax
    2e6d:	c9                   	leave  
    2e6e:	c3                   	ret    
    2e6f:	90                   	nop

00002e70 <audio_mixer_get_item_level>:
    2e70:	55                   	push   %ebp
    2e71:	89 e5                	mov    %esp,%ebp
    2e73:	53                   	push   %ebx
    2e74:	83 ec 14             	sub    $0x14,%esp
    2e77:	8b 45 08             	mov    0x8(%ebp),%eax
    2e7a:	8b 5d 10             	mov    0x10(%ebp),%ebx
    2e7d:	85 c0                	test   %eax,%eax
    2e7f:	74 37                	je     2eb8 <audio_mixer_get_item_level+0x48>
    2e81:	8b 4d 0c             	mov    0xc(%ebp),%ecx
    2e84:	52                   	push   %edx
    2e85:	8d 55 f4             	lea    -0xc(%ebp),%edx
    2e88:	6a 00                	push   $0x0
    2e8a:	6a 00                	push   $0x0
    2e8c:	6a 00                	push   $0x0
    2e8e:	6a 00                	push   $0x0
    2e90:	52                   	push   %edx
    2e91:	6a 00                	push   $0x0
    2e93:	6a 00                	push   $0x0
    2e95:	51                   	push   %ecx
    2e96:	6a 03                	push   $0x3
    2e98:	68 03 04 00 00       	push   $0x403
    2e9d:	50                   	push   %eax
    2e9e:	e8 2d 9e 00 00       	call   ccd0 <async_req_fast@plt>
    2ea3:	83 c4 30             	add    $0x30,%esp
    2ea6:	85 c0                	test   %eax,%eax
    2ea8:	75 09                	jne    2eb3 <audio_mixer_get_item_level+0x43>
    2eaa:	85 db                	test   %ebx,%ebx
    2eac:	74 05                	je     2eb3 <audio_mixer_get_item_level+0x43>
    2eae:	8b 55 f4             	mov    -0xc(%ebp),%edx
    2eb1:	89 13                	mov    %edx,(%ebx)
    2eb3:	8b 5d fc             	mov    -0x4(%ebp),%ebx
    2eb6:	c9                   	leave  
    2eb7:	c3                   	ret    
    2eb8:	b8 f2 ff ff ff       	mov    $0xfffffff2,%eax
    2ebd:	eb f4                	jmp    2eb3 <audio_mixer_get_item_level+0x43>
    2ebf:	90                   	nop

00002ec0 <remote_audio_pcm_stop_capture>:
    2ec0:	55                   	push   %ebp
    2ec1:	89 e5                	mov    %esp,%ebp
    2ec3:	53                   	push   %ebx
    2ec4:	50                   	push   %eax
    2ec5:	8b 45 14             	mov    0x14(%ebp),%eax
    2ec8:	8b 4d 08             	mov    0x8(%ebp),%ecx
    2ecb:	8b 5d 10             	mov    0x10(%ebp),%ebx
    2ece:	8b 50 08             	mov    0x8(%eax),%edx
    2ed1:	85 d2                	test   %edx,%edx
    2ed3:	8b 55 0c             	mov    0xc(%ebp),%edx
    2ed6:	0f 95 c0             	setne  %al
    2ed9:	8b 52 2c             	mov    0x2c(%edx),%edx
    2edc:	85 d2                	test   %edx,%edx
    2ede:	74 20                	je     2f00 <remote_audio_pcm_stop_capture+0x40>
    2ee0:	83 ec 08             	sub    $0x8,%esp
    2ee3:	25 ff 00 00 00       	and    $0xff,%eax
    2ee8:	50                   	push   %eax
    2ee9:	51                   	push   %ecx
    2eea:	ff d2                	call   *%edx
    2eec:	89 5d 08             	mov    %ebx,0x8(%ebp)
    2eef:	83 c4 10             	add    $0x10,%esp
    2ef2:	8b 5d fc             	mov    -0x4(%ebp),%ebx
    2ef5:	89 45 0c             	mov    %eax,0xc(%ebp)
    2ef8:	c9                   	leave  
    2ef9:	e9 e2 9d 00 00       	jmp    cce0 <async_answer_0@plt>
    2efe:	66 90                	xchg   %ax,%ax
    2f00:	89 5d 08             	mov    %ebx,0x8(%ebp)
    2f03:	b8 f5 ff ff ff       	mov    $0xfffffff5,%eax
    2f08:	8b 5d fc             	mov    -0x4(%ebp),%ebx
    2f0b:	89 45 0c             	mov    %eax,0xc(%ebp)
    2f0e:	c9                   	leave  
    2f0f:	e9 cc 9d 00 00       	jmp    cce0 <async_answer_0@plt>
    2f14:	8d b6 00 00 00 00    	lea    0x0(%esi),%esi
    2f1a:	8d bf 00 00 00 00    	lea    0x0(%edi),%edi

00002f20 <remote_audio_pcm_start_capture>:
    2f20:	55                   	push   %ebp
    2f21:	89 e5                	mov    %esp,%ebp
    2f23:	57                   	push   %edi
    2f24:	56                   	push   %esi
    2f25:	53                   	push   %ebx
    2f26:	83 ec 0c             	sub    $0xc,%esp
    2f29:	8b 55 14             	mov    0x14(%ebp),%edx
    2f2c:	8b 7d 0c             	mov    0xc(%ebp),%edi
    2f2f:	8b 4d 08             	mov    0x8(%ebp),%ecx
    2f32:	8b 5d 10             	mov    0x10(%ebp),%ebx
    2f35:	8b 42 10             	mov    0x10(%edx),%eax
    2f38:	8b 7f 28             	mov    0x28(%edi),%edi
    2f3b:	89 c6                	mov    %eax,%esi
    2f3d:	25 ff ff 00 00       	and    $0xffff,%eax
    2f42:	c1 ee 10             	shr    $0x10,%esi
    2f45:	85 ff                	test   %edi,%edi
    2f47:	74 27                	je     2f70 <remote_audio_pcm_start_capture+0x50>
    2f49:	83 ec 0c             	sub    $0xc,%esp
    2f4c:	50                   	push   %eax
    2f4d:	8b 42 0c             	mov    0xc(%edx),%eax
    2f50:	50                   	push   %eax
    2f51:	56                   	push   %esi
    2f52:	8b 52 08             	mov    0x8(%edx),%edx
    2f55:	52                   	push   %edx
    2f56:	51                   	push   %ecx
    2f57:	ff d7                	call   *%edi
    2f59:	83 c4 20             	add    $0x20,%esp
    2f5c:	89 5d 08             	mov    %ebx,0x8(%ebp)
    2f5f:	89 45 0c             	mov    %eax,0xc(%ebp)
    2f62:	8d 65 f4             	lea    -0xc(%ebp),%esp
    2f65:	5b                   	pop    %ebx
    2f66:	5e                   	pop    %esi
    2f67:	5f                   	pop    %edi
    2f68:	5d                   	pop    %ebp
    2f69:	e9 72 9d 00 00       	jmp    cce0 <async_answer_0@plt>
    2f6e:	66 90                	xchg   %ax,%ax
    2f70:	b8 f5 ff ff ff       	mov    $0xfffffff5,%eax
    2f75:	eb e5                	jmp    2f5c <remote_audio_pcm_start_capture+0x3c>
    2f77:	89 f6                	mov    %esi,%esi
    2f79:	8d bc 27 00 00 00 00 	lea    0x0(%edi,%eiz,1),%edi

00002f80 <remote_audio_pcm_stop_playback>:
    2f80:	55                   	push   %ebp
    2f81:	89 e5                	mov    %esp,%ebp
    2f83:	53                   	push   %ebx
    2f84:	50                   	push   %eax
    2f85:	8b 45 14             	mov    0x14(%ebp),%eax
    2f88:	8b 4d 08             	mov    0x8(%ebp),%ecx
    2f8b:	8b 5d 10             	mov    0x10(%ebp),%ebx
    2f8e:	8b 50 08             	mov    0x8(%eax),%edx
    2f91:	85 d2                	test   %edx,%edx
    2f93:	8b 55 0c             	mov    0xc(%ebp),%edx
    2f96:	0f 95 c0             	setne  %al
    2f99:	8b 52 24             	mov    0x24(%edx),%edx
    2f9c:	85 d2                	test   %edx,%edx
    2f9e:	74 20                	je     2fc0 <remote_audio_pcm_stop_playback+0x40>
    2fa0:	83 ec 08             	sub    $0x8,%esp
    2fa3:	25 ff 00 00 00       	and    $0xff,%eax
    2fa8:	50                   	push   %eax
    2fa9:	51                   	push   %ecx
    2faa:	ff d2                	call   *%edx
    2fac:	89 5d 08             	mov    %ebx,0x8(%ebp)
    2faf:	83 c4 10             	add    $0x10,%esp
    2fb2:	8b 5d fc             	mov    -0x4(%ebp),%ebx
    2fb5:	89 45 0c             	mov    %eax,0xc(%ebp)
    2fb8:	c9                   	leave  
    2fb9:	e9 22 9d 00 00       	jmp    cce0 <async_answer_0@plt>
    2fbe:	66 90                	xchg   %ax,%ax
    2fc0:	89 5d 08             	mov    %ebx,0x8(%ebp)
    2fc3:	b8 f5 ff ff ff       	mov    $0xfffffff5,%eax
    2fc8:	8b 5d fc             	mov    -0x4(%ebp),%ebx
    2fcb:	89 45 0c             	mov    %eax,0xc(%ebp)
    2fce:	c9                   	leave  
    2fcf:	e9 0c 9d 00 00       	jmp    cce0 <async_answer_0@plt>
    2fd4:	8d b6 00 00 00 00    	lea    0x0(%esi),%esi
    2fda:	8d bf 00 00 00 00    	lea    0x0(%edi),%edi

00002fe0 <remote_audio_pcm_start_playback>:
    2fe0:	55                   	push   %ebp
    2fe1:	89 e5                	mov    %esp,%ebp
    2fe3:	57                   	push   %edi
    2fe4:	56                   	push   %esi
    2fe5:	53                   	push   %ebx
    2fe6:	83 ec 0c             	sub    $0xc,%esp
    2fe9:	8b 4d 14             	mov    0x14(%ebp),%ecx
    2fec:	8b 7d 0c             	mov    0xc(%ebp),%edi
    2fef:	8b 75 08             	mov    0x8(%ebp),%esi
    2ff2:	8b 5d 10             	mov    0x10(%ebp),%ebx
    2ff5:	8b 41 10             	mov    0x10(%ecx),%eax
    2ff8:	8b 7f 20             	mov    0x20(%edi),%edi
    2ffb:	89 c2                	mov    %eax,%edx
    2ffd:	25 ff ff 00 00       	and    $0xffff,%eax
    3002:	c1 ea 10             	shr    $0x10,%edx
    3005:	81 e2 ff 00 00 00    	and    $0xff,%edx
    300b:	85 ff                	test   %edi,%edi
    300d:	74 29                	je     3038 <remote_audio_pcm_start_playback+0x58>
    300f:	83 ec 0c             	sub    $0xc,%esp
    3012:	50                   	push   %eax
    3013:	8b 41 0c             	mov    0xc(%ecx),%eax
    3016:	50                   	push   %eax
    3017:	52                   	push   %edx
    3018:	8b 51 08             	mov    0x8(%ecx),%edx
    301b:	52                   	push   %edx
    301c:	56                   	push   %esi
    301d:	ff d7                	call   *%edi
    301f:	83 c4 20             	add    $0x20,%esp
    3022:	89 5d 08             	mov    %ebx,0x8(%ebp)
    3025:	89 45 0c             	mov    %eax,0xc(%ebp)
    3028:	8d 65 f4             	lea    -0xc(%ebp),%esp
    302b:	5b                   	pop    %ebx
    302c:	5e                   	pop    %esi
    302d:	5f                   	pop    %edi
    302e:	5d                   	pop    %ebp
    302f:	e9 ac 9c 00 00       	jmp    cce0 <async_answer_0@plt>
    3034:	8d 74 26 00          	lea    0x0(%esi,%eiz,1),%esi
    3038:	b8 f5 ff ff ff       	mov    $0xfffffff5,%eax
    303d:	eb e3                	jmp    3022 <remote_audio_pcm_start_playback+0x42>
    303f:	90                   	nop

00003040 <remote_audio_pcm_release_buffer>:
    3040:	55                   	push   %ebp
    3041:	89 e5                	mov    %esp,%ebp
    3043:	53                   	push   %ebx
    3044:	50                   	push   %eax
    3045:	8b 45 0c             	mov    0xc(%ebp),%eax
    3048:	8b 55 08             	mov    0x8(%ebp),%edx
    304b:	8b 5d 10             	mov    0x10(%ebp),%ebx
    304e:	8b 40 14             	mov    0x14(%eax),%eax
    3051:	85 c0                	test   %eax,%eax
    3053:	74 1b                	je     3070 <remote_audio_pcm_release_buffer+0x30>
    3055:	83 ec 0c             	sub    $0xc,%esp
    3058:	52                   	push   %edx
    3059:	ff d0                	call   *%eax
    305b:	89 5d 08             	mov    %ebx,0x8(%ebp)
    305e:	83 c4 10             	add    $0x10,%esp
    3061:	8b 5d fc             	mov    -0x4(%ebp),%ebx
    3064:	89 45 0c             	mov    %eax,0xc(%ebp)
    3067:	c9                   	leave  
    3068:	e9 73 9c 00 00       	jmp    cce0 <async_answer_0@plt>
    306d:	8d 76 00             	lea    0x0(%esi),%esi
    3070:	89 5d 08             	mov    %ebx,0x8(%ebp)
    3073:	b8 f5 ff ff ff       	mov    $0xfffffff5,%eax
    3078:	8b 5d fc             	mov    -0x4(%ebp),%ebx
    307b:	89 45 0c             	mov    %eax,0xc(%ebp)
    307e:	c9                   	leave  
    307f:	e9 5c 9c 00 00       	jmp    cce0 <async_answer_0@plt>
    3084:	8d b6 00 00 00 00    	lea    0x0(%esi),%esi
    308a:	8d bf 00 00 00 00    	lea    0x0(%edi),%edi

00003090 <remote_audio_pcm_events_unregister>:
    3090:	55                   	push   %ebp
    3091:	89 e5                	mov    %esp,%ebp
    3093:	57                   	push   %edi
    3094:	56                   	push   %esi
    3095:	53                   	push   %ebx
    3096:	83 ec 0c             	sub    $0xc,%esp
    3099:	8b 5d 0c             	mov    0xc(%ebp),%ebx
    309c:	8b 75 08             	mov    0x8(%ebp),%esi
    309f:	8b 7d 10             	mov    0x10(%ebp),%edi
    30a2:	8b 43 1c             	mov    0x1c(%ebx),%eax
    30a5:	85 c0                	test   %eax,%eax
    30a7:	74 3f                	je     30e8 <remote_audio_pcm_events_unregister+0x58>
    30a9:	8b 4b 18             	mov    0x18(%ebx),%ecx
    30ac:	85 c9                	test   %ecx,%ecx
    30ae:	74 38                	je     30e8 <remote_audio_pcm_events_unregister+0x58>
    30b0:	83 ec 0c             	sub    $0xc,%esp
    30b3:	56                   	push   %esi
    30b4:	ff d0                	call   *%eax
    30b6:	83 c4 10             	add    $0x10,%esp
    30b9:	85 c0                	test   %eax,%eax
    30bb:	74 14                	je     30d1 <remote_audio_pcm_events_unregister+0x41>
    30bd:	83 ec 0c             	sub    $0xc,%esp
    30c0:	50                   	push   %eax
    30c1:	e8 1a 9b 00 00       	call   cbe0 <async_hangup@plt>
    30c6:	58                   	pop    %eax
    30c7:	5a                   	pop    %edx
    30c8:	6a 00                	push   $0x0
    30ca:	56                   	push   %esi
    30cb:	ff 53 18             	call   *0x18(%ebx)
    30ce:	83 c4 10             	add    $0x10,%esp
    30d1:	89 7d 08             	mov    %edi,0x8(%ebp)
    30d4:	c7 45 0c 00 00 00 00 	movl   $0x0,0xc(%ebp)
    30db:	8d 65 f4             	lea    -0xc(%ebp),%esp
    30de:	5b                   	pop    %ebx
    30df:	5e                   	pop    %esi
    30e0:	5f                   	pop    %edi
    30e1:	5d                   	pop    %ebp
    30e2:	e9 f9 9b 00 00       	jmp    cce0 <async_answer_0@plt>
    30e7:	90                   	nop
    30e8:	89 7d 08             	mov    %edi,0x8(%ebp)
    30eb:	c7 45 0c f5 ff ff ff 	movl   $0xfffffff5,0xc(%ebp)
    30f2:	8d 65 f4             	lea    -0xc(%ebp),%esp
    30f5:	5b                   	pop    %ebx
    30f6:	5e                   	pop    %esi
    30f7:	5f                   	pop    %edi
    30f8:	5d                   	pop    %ebp
    30f9:	e9 e2 9b 00 00       	jmp    cce0 <async_answer_0@plt>
    30fe:	66 90                	xchg   %ax,%ax

00003100 <remote_audio_pcm_get_buffer_pos>:
    3100:	55                   	push   %ebp
    3101:	89 e5                	mov    %esp,%ebp
    3103:	83 ec 18             	sub    $0x18,%esp
    3106:	8b 45 0c             	mov    0xc(%ebp),%eax
    3109:	c7 45 f4 00 00 00 00 	movl   $0x0,-0xc(%ebp)
    3110:	8b 40 0c             	mov    0xc(%eax),%eax
    3113:	85 c0                	test   %eax,%eax
    3115:	74 29                	je     3140 <remote_audio_pcm_get_buffer_pos+0x40>
    3117:	8b 4d 08             	mov    0x8(%ebp),%ecx
    311a:	52                   	push   %edx
    311b:	52                   	push   %edx
    311c:	8d 55 f4             	lea    -0xc(%ebp),%edx
    311f:	52                   	push   %edx
    3120:	51                   	push   %ecx
    3121:	ff d0                	call   *%eax
    3123:	8b 55 f4             	mov    -0xc(%ebp),%edx
    3126:	83 c4 10             	add    $0x10,%esp
    3129:	51                   	push   %ecx
    312a:	52                   	push   %edx
    312b:	50                   	push   %eax
    312c:	8b 45 10             	mov    0x10(%ebp),%eax
    312f:	50                   	push   %eax
    3130:	e8 cb 9d 00 00       	call   cf00 <async_answer_1@plt>
    3135:	83 c4 10             	add    $0x10,%esp
    3138:	c9                   	leave  
    3139:	c3                   	ret    
    313a:	8d b6 00 00 00 00    	lea    0x0(%esi),%esi
    3140:	b8 f5 ff ff ff       	mov    $0xfffffff5,%eax
    3145:	31 d2                	xor    %edx,%edx
    3147:	eb e0                	jmp    3129 <remote_audio_pcm_get_buffer_pos+0x29>
    3149:	8d b4 26 00 00 00 00 	lea    0x0(%esi,%eiz,1),%esi

00003150 <remote_audio_pcm_query_caps>:
    3150:	55                   	push   %ebp
    3151:	89 e5                	mov    %esp,%ebp
    3153:	53                   	push   %ebx
    3154:	53                   	push   %ebx
    3155:	8b 45 0c             	mov    0xc(%ebp),%eax
    3158:	8b 55 08             	mov    0x8(%ebp),%edx
    315b:	8b 5d 10             	mov    0x10(%ebp),%ebx
    315e:	8b 4d 14             	mov    0x14(%ebp),%ecx
    3161:	8b 40 08             	mov    0x8(%eax),%eax
    3164:	85 c0                	test   %eax,%eax
    3166:	74 28                	je     3190 <remote_audio_pcm_query_caps+0x40>
    3168:	83 ec 08             	sub    $0x8,%esp
    316b:	8b 49 08             	mov    0x8(%ecx),%ecx
    316e:	51                   	push   %ecx
    316f:	52                   	push   %edx
    3170:	ff d0                	call   *%eax
    3172:	89 5d 08             	mov    %ebx,0x8(%ebp)
    3175:	83 c4 10             	add    $0x10,%esp
    3178:	8b 5d fc             	mov    -0x4(%ebp),%ebx
    317b:	89 45 10             	mov    %eax,0x10(%ebp)
    317e:	c7 45 0c 00 00 00 00 	movl   $0x0,0xc(%ebp)
    3185:	c9                   	leave  
    3186:	e9 75 9d 00 00       	jmp    cf00 <async_answer_1@plt>
    318b:	90                   	nop
    318c:	8d 74 26 00          	lea    0x0(%esi,%eiz,1),%esi
    3190:	89 5d 08             	mov    %ebx,0x8(%ebp)
    3193:	8b 5d fc             	mov    -0x4(%ebp),%ebx
    3196:	c7 45 0c f5 ff ff ff 	movl   $0xfffffff5,0xc(%ebp)
    319d:	c9                   	leave  
    319e:	e9 3d 9b 00 00       	jmp    cce0 <async_answer_0@plt>
    31a3:	8d b6 00 00 00 00    	lea    0x0(%esi),%esi
    31a9:	8d bc 27 00 00 00 00 	lea    0x0(%edi,%eiz,1),%edi

000031b0 <remote_audio_pcm_get_buffer>:
    31b0:	55                   	push   %ebp
    31b1:	89 e5                	mov    %esp,%ebp
    31b3:	56                   	push   %esi
    31b4:	53                   	push   %ebx
    31b5:	83 ec 10             	sub    $0x10,%esp
    31b8:	8b 5d 0c             	mov    0xc(%ebp),%ebx
    31bb:	8b 43 10             	mov    0x10(%ebx),%eax
    31be:	85 c0                	test   %eax,%eax
    31c0:	0f 84 d2 00 00 00    	je     3298 <remote_audio_pcm_get_buffer+0xe8>
    31c6:	8b 53 14             	mov    0x14(%ebx),%edx
    31c9:	85 d2                	test   %edx,%edx
    31cb:	0f 84 c7 00 00 00    	je     3298 <remote_audio_pcm_get_buffer+0xe8>
    31d1:	8b 55 14             	mov    0x14(%ebp),%edx
    31d4:	c7 45 e8 00 00 00 00 	movl   $0x0,-0x18(%ebp)
    31db:	8b 52 08             	mov    0x8(%edx),%edx
    31de:	56                   	push   %esi
    31df:	89 55 ec             	mov    %edx,-0x14(%ebp)
    31e2:	8d 55 ec             	lea    -0x14(%ebp),%edx
    31e5:	52                   	push   %edx
    31e6:	8d 55 e8             	lea    -0x18(%ebp),%edx
    31e9:	52                   	push   %edx
    31ea:	8b 55 08             	mov    0x8(%ebp),%edx
    31ed:	52                   	push   %edx
    31ee:	ff d0                	call   *%eax
    31f0:	83 c4 0c             	add    $0xc,%esp
    31f3:	8b 4d ec             	mov    -0x14(%ebp),%ecx
    31f6:	89 c6                	mov    %eax,%esi
    31f8:	51                   	push   %ecx
    31f9:	50                   	push   %eax
    31fa:	8b 45 10             	mov    0x10(%ebp),%eax
    31fd:	50                   	push   %eax
    31fe:	e8 fd 9c 00 00       	call   cf00 <async_answer_1@plt>
    3203:	83 c4 10             	add    $0x10,%esp
    3206:	85 f6                	test   %esi,%esi
    3208:	74 0e                	je     3218 <remote_audio_pcm_get_buffer+0x68>
    320a:	8d 65 f8             	lea    -0x8(%ebp),%esp
    320d:	5b                   	pop    %ebx
    320e:	5e                   	pop    %esi
    320f:	5d                   	pop    %ebp
    3210:	c3                   	ret    
    3211:	8d b4 26 00 00 00 00 	lea    0x0(%esi,%eiz,1),%esi
    3218:	8b 4d ec             	mov    -0x14(%ebp),%ecx
    321b:	85 c9                	test   %ecx,%ecx
    321d:	74 eb                	je     320a <remote_audio_pcm_get_buffer+0x5a>
    321f:	c7 45 f0 00 00 00 00 	movl   $0x0,-0x10(%ebp)
    3226:	56                   	push   %esi
    3227:	c7 45 f4 00 00 00 00 	movl   $0x0,-0xc(%ebp)
    322e:	56                   	push   %esi
    322f:	68 14 b2 00 00       	push   $0xb214
    3234:	6a 05                	push   $0x5
    3236:	e8 25 f7 ff ff       	call   2960 <ddf_msg>
    323b:	58                   	pop    %eax
    323c:	8d 45 f0             	lea    -0x10(%ebp),%eax
    323f:	5a                   	pop    %edx
    3240:	50                   	push   %eax
    3241:	8d 45 f4             	lea    -0xc(%ebp),%eax
    3244:	50                   	push   %eax
    3245:	e8 56 9c 00 00       	call   cea0 <async_share_in_receive@plt>
    324a:	83 c4 10             	add    $0x10,%esp
    324d:	84 c0                	test   %al,%al
    324f:	74 5f                	je     32b0 <remote_audio_pcm_get_buffer+0x100>
    3251:	50                   	push   %eax
    3252:	50                   	push   %eax
    3253:	68 d8 b3 00 00       	push   $0xb3d8
    3258:	6a 05                	push   $0x5
    325a:	e8 01 f7 ff ff       	call   2960 <ddf_msg>
    325f:	8b 45 ec             	mov    -0x14(%ebp),%eax
    3262:	83 c4 10             	add    $0x10,%esp
    3265:	39 45 f0             	cmp    %eax,-0x10(%ebp)
    3268:	74 76                	je     32e0 <remote_audio_pcm_get_buffer+0x130>
    326a:	50                   	push   %eax
    326b:	50                   	push   %eax
    326c:	68 f8 b3 00 00       	push   $0xb3f8
    3271:	6a 04                	push   $0x4
    3273:	e8 e8 f6 ff ff       	call   2960 <ddf_msg>
    3278:	8b 55 08             	mov    0x8(%ebp),%edx
    327b:	58                   	pop    %eax
    327c:	52                   	push   %edx
    327d:	ff 53 14             	call   *0x14(%ebx)
    3280:	8b 75 f4             	mov    -0xc(%ebp),%esi
    3283:	59                   	pop    %ecx
    3284:	5b                   	pop    %ebx
    3285:	6a fd                	push   $0xfffffffd
    3287:	56                   	push   %esi
    3288:	e8 53 9a 00 00       	call   cce0 <async_answer_0@plt>
    328d:	83 c4 10             	add    $0x10,%esp
    3290:	e9 75 ff ff ff       	jmp    320a <remote_audio_pcm_get_buffer+0x5a>
    3295:	8d 76 00             	lea    0x0(%esi),%esi
    3298:	50                   	push   %eax
    3299:	50                   	push   %eax
    329a:	8b 45 10             	mov    0x10(%ebp),%eax
    329d:	6a f5                	push   $0xfffffff5
    329f:	50                   	push   %eax
    32a0:	e8 3b 9a 00 00       	call   cce0 <async_answer_0@plt>
    32a5:	83 c4 10             	add    $0x10,%esp
    32a8:	8d 65 f8             	lea    -0x8(%ebp),%esp
    32ab:	5b                   	pop    %ebx
    32ac:	5e                   	pop    %esi
    32ad:	5d                   	pop    %ebp
    32ae:	c3                   	ret    
    32af:	90                   	nop
    32b0:	50                   	push   %eax
    32b1:	50                   	push   %eax
    32b2:	68 2d b2 00 00       	push   $0xb22d
    32b7:	6a 04                	push   $0x4
    32b9:	e8 a2 f6 ff ff       	call   2960 <ddf_msg>
    32be:	58                   	pop    %eax
    32bf:	8b 45 08             	mov    0x8(%ebp),%eax
    32c2:	50                   	push   %eax
    32c3:	ff 53 14             	call   *0x14(%ebx)
    32c6:	8b 4d f4             	mov    -0xc(%ebp),%ecx
    32c9:	58                   	pop    %eax
    32ca:	5a                   	pop    %edx
    32cb:	6a f8                	push   $0xfffffff8
    32cd:	51                   	push   %ecx
    32ce:	e8 0d 9a 00 00       	call   cce0 <async_answer_0@plt>
    32d3:	83 c4 10             	add    $0x10,%esp
    32d6:	e9 2f ff ff ff       	jmp    320a <remote_audio_pcm_get_buffer+0x5a>
    32db:	90                   	nop
    32dc:	8d 74 26 00          	lea    0x0(%esi,%eiz,1),%esi
    32e0:	50                   	push   %eax
    32e1:	50                   	push   %eax
    32e2:	68 49 b2 00 00       	push   $0xb249
    32e7:	6a 05                	push   $0x5
    32e9:	e8 72 f6 ff ff       	call   2960 <ddf_msg>
    32ee:	83 c4 0c             	add    $0xc,%esp
    32f1:	8b 45 e8             	mov    -0x18(%ebp),%eax
    32f4:	6a 03                	push   $0x3
    32f6:	50                   	push   %eax
    32f7:	8b 45 f4             	mov    -0xc(%ebp),%eax
    32fa:	50                   	push   %eax
    32fb:	e8 40 9c 00 00       	call   cf40 <async_share_in_finalize@plt>
    3300:	83 c4 10             	add    $0x10,%esp
    3303:	85 c0                	test   %eax,%eax
    3305:	74 1e                	je     3325 <remote_audio_pcm_get_buffer+0x175>
    3307:	51                   	push   %ecx
    3308:	51                   	push   %ecx
    3309:	68 61 b2 00 00       	push   $0xb261
    330e:	6a 04                	push   $0x4
    3310:	e8 4b f6 ff ff       	call   2960 <ddf_msg>
    3315:	8b 45 08             	mov    0x8(%ebp),%eax
    3318:	5e                   	pop    %esi
    3319:	50                   	push   %eax
    331a:	ff 53 14             	call   *0x14(%ebx)
    331d:	83 c4 10             	add    $0x10,%esp
    3320:	e9 e5 fe ff ff       	jmp    320a <remote_audio_pcm_get_buffer+0x5a>
    3325:	8b 55 f0             	mov    -0x10(%ebp),%edx
    3328:	50                   	push   %eax
    3329:	52                   	push   %edx
    332a:	68 79 b2 00 00       	push   $0xb279
    332f:	6a 05                	push   $0x5
    3331:	e8 2a f6 ff ff       	call   2960 <ddf_msg>
    3336:	83 c4 10             	add    $0x10,%esp
    3339:	e9 cc fe ff ff       	jmp    320a <remote_audio_pcm_get_buffer+0x5a>
    333e:	66 90                	xchg   %ax,%ax

00003340 <remote_audio_pcm_test_format>:
    3340:	55                   	push   %ebp
    3341:	89 e5                	mov    %esp,%ebp
    3343:	53                   	push   %ebx
    3344:	83 ec 14             	sub    $0x14,%esp
    3347:	8b 45 14             	mov    0x14(%ebp),%eax
    334a:	8b 55 0c             	mov    0xc(%ebp),%edx
    334d:	8b 48 08             	mov    0x8(%eax),%ecx
    3350:	8b 58 0c             	mov    0xc(%eax),%ebx
    3353:	8b 52 04             	mov    0x4(%edx),%edx
    3356:	8b 40 10             	mov    0x10(%eax),%eax
    3359:	89 4d ec             	mov    %ecx,-0x14(%ebp)
    335c:	89 5d f0             	mov    %ebx,-0x10(%ebp)
    335f:	89 45 f4             	mov    %eax,-0xc(%ebp)
    3362:	85 d2                	test   %edx,%edx
    3364:	74 3a                	je     33a0 <remote_audio_pcm_test_format+0x60>
    3366:	8d 45 f4             	lea    -0xc(%ebp),%eax
    3369:	8b 4d 08             	mov    0x8(%ebp),%ecx
    336c:	50                   	push   %eax
    336d:	8d 45 f0             	lea    -0x10(%ebp),%eax
    3370:	50                   	push   %eax
    3371:	8d 45 ec             	lea    -0x14(%ebp),%eax
    3374:	50                   	push   %eax
    3375:	51                   	push   %ecx
    3376:	ff d2                	call   *%edx
    3378:	8b 55 f4             	mov    -0xc(%ebp),%edx
    337b:	8b 5d f0             	mov    -0x10(%ebp),%ebx
    337e:	8b 4d ec             	mov    -0x14(%ebp),%ecx
    3381:	83 c4 10             	add    $0x10,%esp
    3384:	83 ec 0c             	sub    $0xc,%esp
    3387:	52                   	push   %edx
    3388:	53                   	push   %ebx
    3389:	51                   	push   %ecx
    338a:	50                   	push   %eax
    338b:	8b 45 10             	mov    0x10(%ebp),%eax
    338e:	50                   	push   %eax
    338f:	e8 bc 9b 00 00       	call   cf50 <async_answer_3@plt>
    3394:	83 c4 20             	add    $0x20,%esp
    3397:	8b 5d fc             	mov    -0x4(%ebp),%ebx
    339a:	c9                   	leave  
    339b:	c3                   	ret    
    339c:	8d 74 26 00          	lea    0x0(%esi,%eiz,1),%esi
    33a0:	89 c2                	mov    %eax,%edx
    33a2:	b8 f5 ff ff ff       	mov    $0xfffffff5,%eax
    33a7:	eb db                	jmp    3384 <remote_audio_pcm_test_format+0x44>
    33a9:	8d b4 26 00 00 00 00 	lea    0x0(%esi,%eiz,1),%esi

000033b0 <remote_audio_pcm_events_register>:
    33b0:	55                   	push   %ebp
    33b1:	89 e5                	mov    %esp,%ebp
    33b3:	57                   	push   %edi
    33b4:	56                   	push   %esi
    33b5:	53                   	push   %ebx
    33b6:	83 ec 3c             	sub    $0x3c,%esp
    33b9:	8b 5d 0c             	mov    0xc(%ebp),%ebx
    33bc:	8b 7b 1c             	mov    0x1c(%ebx),%edi
    33bf:	85 ff                	test   %edi,%edi
    33c1:	0f 84 91 00 00 00    	je     3458 <remote_audio_pcm_events_register+0xa8>
    33c7:	8b 73 18             	mov    0x18(%ebx),%esi
    33ca:	85 f6                	test   %esi,%esi
    33cc:	0f 84 86 00 00 00    	je     3458 <remote_audio_pcm_events_register+0xa8>
    33d2:	8b 75 10             	mov    0x10(%ebp),%esi
    33d5:	51                   	push   %ecx
    33d6:	51                   	push   %ecx
    33d7:	6a 00                	push   $0x0
    33d9:	56                   	push   %esi
    33da:	8d 75 c4             	lea    -0x3c(%ebp),%esi
    33dd:	e8 fe 98 00 00       	call   cce0 <async_answer_0@plt>
    33e2:	5f                   	pop    %edi
    33e3:	58                   	pop    %eax
    33e4:	6a 00                	push   $0x0
    33e6:	56                   	push   %esi
    33e7:	e8 e4 9a 00 00       	call   ced0 <async_get_call_timeout@plt>
    33ec:	89 c7                	mov    %eax,%edi
    33ee:	58                   	pop    %eax
    33ef:	5a                   	pop    %edx
    33f0:	56                   	push   %esi
    33f1:	6a 00                	push   $0x0
    33f3:	e8 d8 99 00 00       	call   cdd0 <async_callback_receive_start@plt>
    33f8:	83 c4 10             	add    $0x10,%esp
    33fb:	89 c6                	mov    %eax,%esi
    33fd:	85 c0                	test   %eax,%eax
    33ff:	74 6f                	je     3470 <remote_audio_pcm_events_register+0xc0>
    3401:	50                   	push   %eax
    3402:	50                   	push   %eax
    3403:	8b 45 08             	mov    0x8(%ebp),%eax
    3406:	56                   	push   %esi
    3407:	50                   	push   %eax
    3408:	ff 53 18             	call   *0x18(%ebx)
    340b:	83 c4 10             	add    $0x10,%esp
    340e:	89 c3                	mov    %eax,%ebx
    3410:	85 c0                	test   %eax,%eax
    3412:	74 2c                	je     3440 <remote_audio_pcm_events_register+0x90>
    3414:	52                   	push   %edx
    3415:	52                   	push   %edx
    3416:	68 96 b2 00 00       	push   $0xb296
    341b:	6a 04                	push   $0x4
    341d:	e8 3e f5 ff ff       	call   2960 <ddf_msg>
    3422:	89 34 24             	mov    %esi,(%esp)
    3425:	e8 b6 97 00 00       	call   cbe0 <async_hangup@plt>
    342a:	59                   	pop    %ecx
    342b:	5e                   	pop    %esi
    342c:	53                   	push   %ebx
    342d:	57                   	push   %edi
    342e:	e8 ad 98 00 00       	call   cce0 <async_answer_0@plt>
    3433:	83 c4 10             	add    $0x10,%esp
    3436:	8d 65 f4             	lea    -0xc(%ebp),%esp
    3439:	5b                   	pop    %ebx
    343a:	5e                   	pop    %esi
    343b:	5f                   	pop    %edi
    343c:	5d                   	pop    %ebp
    343d:	c3                   	ret    
    343e:	66 90                	xchg   %ax,%ax
    3440:	50                   	push   %eax
    3441:	50                   	push   %eax
    3442:	6a 00                	push   $0x0
    3444:	57                   	push   %edi
    3445:	e8 96 98 00 00       	call   cce0 <async_answer_0@plt>
    344a:	83 c4 10             	add    $0x10,%esp
    344d:	8d 65 f4             	lea    -0xc(%ebp),%esp
    3450:	5b                   	pop    %ebx
    3451:	5e                   	pop    %esi
    3452:	5f                   	pop    %edi
    3453:	5d                   	pop    %ebp
    3454:	c3                   	ret    
    3455:	8d 76 00             	lea    0x0(%esi),%esi
    3458:	8b 5d 10             	mov    0x10(%ebp),%ebx
    345b:	51                   	push   %ecx
    345c:	51                   	push   %ecx
    345d:	6a f5                	push   $0xfffffff5
    345f:	53                   	push   %ebx
    3460:	e8 7b 98 00 00       	call   cce0 <async_answer_0@plt>
    3465:	83 c4 10             	add    $0x10,%esp
    3468:	8d 65 f4             	lea    -0xc(%ebp),%esp
    346b:	5b                   	pop    %ebx
    346c:	5e                   	pop    %esi
    346d:	5f                   	pop    %edi
    346e:	5d                   	pop    %ebp
    346f:	c3                   	ret    
    3470:	50                   	push   %eax
    3471:	50                   	push   %eax
    3472:	68 20 b4 00 00       	push   $0xb420
    3477:	6a 04                	push   $0x4
    3479:	e8 e2 f4 ff ff       	call   2960 <ddf_msg>
    347e:	58                   	pop    %eax
    347f:	5a                   	pop    %edx
    3480:	68 06 d5 ff ff       	push   $0xffffd506
    3485:	57                   	push   %edi
    3486:	e8 55 98 00 00       	call   cce0 <async_answer_0@plt>
    348b:	83 c4 10             	add    $0x10,%esp
    348e:	eb a6                	jmp    3436 <remote_audio_pcm_events_register+0x86>

00003490 <remote_audio_pcm_get_info_str>:
    3490:	55                   	push   %ebp
    3491:	89 e5                	mov    %esp,%ebp
    3493:	56                   	push   %esi
    3494:	53                   	push   %ebx
    3495:	83 ec 10             	sub    $0x10,%esp
    3498:	8b 45 0c             	mov    0xc(%ebp),%eax
    349b:	8b 00                	mov    (%eax),%eax
    349d:	85 c0                	test   %eax,%eax
    349f:	0f 84 ab 00 00 00    	je     3550 <remote_audio_pcm_get_info_str+0xc0>
    34a5:	8b 4d 08             	mov    0x8(%ebp),%ecx
    34a8:	52                   	push   %edx
    34a9:	c7 45 ec 00 00 00 00 	movl   $0x0,-0x14(%ebp)
    34b0:	52                   	push   %edx
    34b1:	8d 55 ec             	lea    -0x14(%ebp),%edx
    34b4:	52                   	push   %edx
    34b5:	51                   	push   %ecx
    34b6:	ff d0                	call   *%eax
    34b8:	83 c4 10             	add    $0x10,%esp
    34bb:	89 c6                	mov    %eax,%esi
    34bd:	8b 45 ec             	mov    -0x14(%ebp),%eax
    34c0:	85 c0                	test   %eax,%eax
    34c2:	74 5c                	je     3520 <remote_audio_pcm_get_info_str+0x90>
    34c4:	83 ec 0c             	sub    $0xc,%esp
    34c7:	50                   	push   %eax
    34c8:	e8 13 9a 00 00       	call   cee0 <str_size@plt>
    34cd:	83 c4 0c             	add    $0xc,%esp
    34d0:	8d 58 01             	lea    0x1(%eax),%ebx
    34d3:	8b 45 10             	mov    0x10(%ebp),%eax
    34d6:	53                   	push   %ebx
    34d7:	56                   	push   %esi
    34d8:	50                   	push   %eax
    34d9:	e8 22 9a 00 00       	call   cf00 <async_answer_1@plt>
    34de:	83 c4 10             	add    $0x10,%esp
    34e1:	85 f6                	test   %esi,%esi
    34e3:	75 2f                	jne    3514 <remote_audio_pcm_get_info_str+0x84>
    34e5:	85 db                	test   %ebx,%ebx
    34e7:	74 2b                	je     3514 <remote_audio_pcm_get_info_str+0x84>
    34e9:	50                   	push   %eax
    34ea:	50                   	push   %eax
    34eb:	8d 45 f0             	lea    -0x10(%ebp),%eax
    34ee:	50                   	push   %eax
    34ef:	8d 45 f4             	lea    -0xc(%ebp),%eax
    34f2:	50                   	push   %eax
    34f3:	e8 88 99 00 00       	call   ce80 <async_data_read_receive@plt>
    34f8:	83 c4 10             	add    $0x10,%esp
    34fb:	84 c0                	test   %al,%al
    34fd:	74 69                	je     3568 <remote_audio_pcm_get_info_str+0xd8>
    34ff:	3b 5d f0             	cmp    -0x10(%ebp),%ebx
    3502:	74 34                	je     3538 <remote_audio_pcm_get_info_str+0xa8>
    3504:	50                   	push   %eax
    3505:	50                   	push   %eax
    3506:	8b 45 f4             	mov    -0xc(%ebp),%eax
    3509:	6a fd                	push   $0xfffffffd
    350b:	50                   	push   %eax
    350c:	e8 cf 97 00 00       	call   cce0 <async_answer_0@plt>
    3511:	83 c4 10             	add    $0x10,%esp
    3514:	8d 65 f8             	lea    -0x8(%ebp),%esp
    3517:	5b                   	pop    %ebx
    3518:	5e                   	pop    %esi
    3519:	5d                   	pop    %ebp
    351a:	c3                   	ret    
    351b:	90                   	nop
    351c:	8d 74 26 00          	lea    0x0(%esi,%eiz,1),%esi
    3520:	8b 55 10             	mov    0x10(%ebp),%edx
    3523:	50                   	push   %eax
    3524:	6a 00                	push   $0x0
    3526:	56                   	push   %esi
    3527:	52                   	push   %edx
    3528:	e8 d3 99 00 00       	call   cf00 <async_answer_1@plt>
    352d:	83 c4 10             	add    $0x10,%esp
    3530:	8d 65 f8             	lea    -0x8(%ebp),%esp
    3533:	5b                   	pop    %ebx
    3534:	5e                   	pop    %esi
    3535:	5d                   	pop    %ebp
    3536:	c3                   	ret    
    3537:	90                   	nop
    3538:	8b 75 f4             	mov    -0xc(%ebp),%esi
    353b:	51                   	push   %ecx
    353c:	53                   	push   %ebx
    353d:	8b 5d ec             	mov    -0x14(%ebp),%ebx
    3540:	53                   	push   %ebx
    3541:	56                   	push   %esi
    3542:	e8 29 97 00 00       	call   cc70 <async_data_read_finalize@plt>
    3547:	83 c4 10             	add    $0x10,%esp
    354a:	eb c8                	jmp    3514 <remote_audio_pcm_get_info_str+0x84>
    354c:	8d 74 26 00          	lea    0x0(%esi,%eiz,1),%esi
    3550:	8b 75 10             	mov    0x10(%ebp),%esi
    3553:	53                   	push   %ebx
    3554:	53                   	push   %ebx
    3555:	6a f5                	push   $0xfffffff5
    3557:	56                   	push   %esi
    3558:	e8 83 97 00 00       	call   cce0 <async_answer_0@plt>
    355d:	83 c4 10             	add    $0x10,%esp
    3560:	8d 65 f8             	lea    -0x8(%ebp),%esp
    3563:	5b                   	pop    %ebx
    3564:	5e                   	pop    %esi
    3565:	5d                   	pop    %ebp
    3566:	c3                   	ret    
    3567:	90                   	nop
    3568:	50                   	push   %eax
    3569:	50                   	push   %eax
    356a:	8b 45 f4             	mov    -0xc(%ebp),%eax
    356d:	6a f8                	push   $0xfffffff8
    356f:	50                   	push   %eax
    3570:	e8 6b 97 00 00       	call   cce0 <async_answer_0@plt>
    3575:	83 c4 10             	add    $0x10,%esp
    3578:	eb 9a                	jmp    3514 <remote_audio_pcm_get_info_str+0x84>
    357a:	8d b6 00 00 00 00    	lea    0x0(%esi),%esi

00003580 <audio_pcm_cap_str>:
    3580:	55                   	push   %ebp
    3581:	b8 b4 b2 00 00       	mov    $0xb2b4,%eax
    3586:	89 e5                	mov    %esp,%ebp
    3588:	8b 55 08             	mov    0x8(%ebp),%edx
    358b:	83 fa 06             	cmp    $0x6,%edx
    358e:	77 07                	ja     3597 <audio_pcm_cap_str+0x17>
    3590:	8b 04 95 78 c4 00 00 	mov    0xc478(,%edx,4),%eax
    3597:	5d                   	pop    %ebp
    3598:	c3                   	ret    
    3599:	8d b4 26 00 00 00 00 	lea    0x0(%esi,%eiz,1),%esi

000035a0 <audio_pcm_event_str>:
    35a0:	55                   	push   %ebp
    35a1:	b8 c0 b2 00 00       	mov    $0xb2c0,%eax
    35a6:	89 e5                	mov    %esp,%ebp
    35a8:	8b 55 08             	mov    0x8(%ebp),%edx
    35ab:	81 fa 05 04 00 00    	cmp    $0x405,%edx
    35b1:	77 07                	ja     35ba <audio_pcm_event_str+0x1a>
    35b3:	8b 04 95 60 b4 00 00 	mov    0xb460(,%edx,4),%eax
    35ba:	5d                   	pop    %ebp
    35bb:	c3                   	ret    
    35bc:	8d 74 26 00          	lea    0x0(%esi,%eiz,1),%esi

000035c0 <audio_pcm_open_default>:
    35c0:	55                   	push   %ebp
    35c1:	89 e5                	mov    %esp,%ebp
    35c3:	83 ec 28             	sub    $0x28,%esp
    35c6:	80 3d 94 f0 00 00 00 	cmpb   $0x0,0xf094
    35cd:	75 20                	jne    35ef <audio_pcm_open_default+0x2f>
    35cf:	50                   	push   %eax
    35d0:	6a 01                	push   $0x1
    35d2:	68 90 f0 00 00       	push   $0xf090
    35d7:	68 ce b2 00 00       	push   $0xb2ce
    35dc:	e8 9f 95 00 00       	call   cb80 <loc_category_get_id@plt>
    35e1:	83 c4 10             	add    $0x10,%esp
    35e4:	85 c0                	test   %eax,%eax
    35e6:	75 68                	jne    3650 <audio_pcm_open_default+0x90>
    35e8:	c6 05 94 f0 00 00 01 	movb   $0x1,0xf094
    35ef:	8d 45 f4             	lea    -0xc(%ebp),%eax
    35f2:	51                   	push   %ecx
    35f3:	50                   	push   %eax
    35f4:	8d 45 f0             	lea    -0x10(%ebp),%eax
    35f7:	50                   	push   %eax
    35f8:	a1 90 f0 00 00       	mov    0xf090,%eax
    35fd:	50                   	push   %eax
    35fe:	c7 45 f0 00 00 00 00 	movl   $0x0,-0x10(%ebp)
    3605:	c7 45 f4 00 00 00 00 	movl   $0x0,-0xc(%ebp)
    360c:	e8 af 98 00 00       	call   cec0 <loc_category_get_svcs@plt>
    3611:	83 c4 10             	add    $0x10,%esp
    3614:	85 c0                	test   %eax,%eax
    3616:	75 38                	jne    3650 <audio_pcm_open_default+0x90>
    3618:	8b 55 f4             	mov    -0xc(%ebp),%edx
    361b:	85 d2                	test   %edx,%edx
    361d:	75 19                	jne    3638 <audio_pcm_open_default+0x78>
    361f:	83 ec 0c             	sub    $0xc,%esp
    3622:	89 45 e4             	mov    %eax,-0x1c(%ebp)
    3625:	8b 45 f0             	mov    -0x10(%ebp),%eax
    3628:	50                   	push   %eax
    3629:	e8 02 9a 00 00       	call   d030 <free@plt>
    362e:	8b 45 e4             	mov    -0x1c(%ebp),%eax
    3631:	83 c4 10             	add    $0x10,%esp
    3634:	c9                   	leave  
    3635:	c3                   	ret    
    3636:	66 90                	xchg   %ax,%ax
    3638:	8b 45 f0             	mov    -0x10(%ebp),%eax
    363b:	52                   	push   %edx
    363c:	6a 01                	push   $0x1
    363e:	68 41 26 9b 41       	push   $0x419b2641
    3643:	8b 08                	mov    (%eax),%ecx
    3645:	51                   	push   %ecx
    3646:	e8 65 95 00 00       	call   cbb0 <loc_service_connect@plt>
    364b:	83 c4 10             	add    $0x10,%esp
    364e:	eb cf                	jmp    361f <audio_pcm_open_default+0x5f>
    3650:	31 c0                	xor    %eax,%eax
    3652:	c9                   	leave  
    3653:	c3                   	ret    
    3654:	8d b6 00 00 00 00    	lea    0x0(%esi),%esi
    365a:	8d bf 00 00 00 00    	lea    0x0(%edi),%edi

00003660 <audio_pcm_open>:
    3660:	55                   	push   %ebp
    3661:	89 e5                	mov    %esp,%ebp
    3663:	83 ec 1c             	sub    $0x1c,%esp
    3666:	8d 45 f4             	lea    -0xc(%ebp),%eax
    3669:	8b 4d 08             	mov    0x8(%ebp),%ecx
    366c:	6a 00                	push   $0x0
    366e:	c7 45 f4 00 00 00 00 	movl   $0x0,-0xc(%ebp)
    3675:	50                   	push   %eax
    3676:	51                   	push   %ecx
    3677:	e8 b4 98 00 00       	call   cf30 <devman_fun_get_handle@plt>
    367c:	83 c4 10             	add    $0x10,%esp
    367f:	85 c0                	test   %eax,%eax
    3681:	75 15                	jne    3698 <audio_pcm_open+0x38>
    3683:	8b 55 f4             	mov    -0xc(%ebp),%edx
    3686:	50                   	push   %eax
    3687:	50                   	push   %eax
    3688:	6a 01                	push   $0x1
    368a:	52                   	push   %edx
    368b:	e8 00 95 00 00       	call   cb90 <devman_device_connect@plt>
    3690:	83 c4 10             	add    $0x10,%esp
    3693:	c9                   	leave  
    3694:	c3                   	ret    
    3695:	8d 76 00             	lea    0x0(%esi),%esi
    3698:	31 c0                	xor    %eax,%eax
    369a:	c9                   	leave  
    369b:	c3                   	ret    
    369c:	8d 74 26 00          	lea    0x0(%esi,%eiz,1),%esi

000036a0 <audio_pcm_open_service>:
    36a0:	55                   	push   %ebp
    36a1:	89 e5                	mov    %esp,%ebp
    36a3:	83 ec 0c             	sub    $0xc,%esp
    36a6:	8b 45 08             	mov    0x8(%ebp),%eax
    36a9:	6a 01                	push   $0x1
    36ab:	68 41 26 9b 41       	push   $0x419b2641
    36b0:	50                   	push   %eax
    36b1:	e8 fa 94 00 00       	call   cbb0 <loc_service_connect@plt>
    36b6:	c9                   	leave  
    36b7:	c3                   	ret    
    36b8:	90                   	nop
    36b9:	8d b4 26 00 00 00 00 	lea    0x0(%esi,%eiz,1),%esi

000036c0 <audio_pcm_close>:
    36c0:	55                   	push   %ebp
    36c1:	89 e5                	mov    %esp,%ebp
    36c3:	8b 45 08             	mov    0x8(%ebp),%eax
    36c6:	85 c0                	test   %eax,%eax
    36c8:	74 06                	je     36d0 <audio_pcm_close+0x10>
    36ca:	5d                   	pop    %ebp
    36cb:	e9 10 95 00 00       	jmp    cbe0 <async_hangup@plt>
    36d0:	5d                   	pop    %ebp
    36d1:	c3                   	ret    
    36d2:	8d b4 26 00 00 00 00 	lea    0x0(%esi,%eiz,1),%esi
    36d9:	8d bc 27 00 00 00 00 	lea    0x0(%edi,%eiz,1),%edi

000036e0 <audio_pcm_get_info_str>:
    36e0:	55                   	push   %ebp
    36e1:	89 e5                	mov    %esp,%ebp
    36e3:	57                   	push   %edi
    36e4:	56                   	push   %esi
    36e5:	53                   	push   %ebx
    36e6:	83 ec 2c             	sub    $0x2c,%esp
    36e9:	8b 45 0c             	mov    0xc(%ebp),%eax
    36ec:	85 c0                	test   %eax,%eax
    36ee:	0f 84 ac 00 00 00    	je     37a0 <audio_pcm_get_info_str+0xc0>
    36f4:	83 ec 0c             	sub    $0xc,%esp
    36f7:	8b 45 08             	mov    0x8(%ebp),%eax
    36fa:	50                   	push   %eax
    36fb:	e8 10 98 00 00       	call   cf10 <async_exchange_begin@plt>
    3700:	83 c4 0c             	add    $0xc,%esp
    3703:	89 c6                	mov    %eax,%esi
    3705:	8d 45 e4             	lea    -0x1c(%ebp),%eax
    3708:	6a 00                	push   $0x0
    370a:	6a 00                	push   $0x0
    370c:	6a 00                	push   $0x0
    370e:	6a 00                	push   $0x0
    3710:	50                   	push   %eax
    3711:	6a 00                	push   $0x0
    3713:	6a 00                	push   $0x0
    3715:	6a 00                	push   $0x0
    3717:	6a 00                	push   $0x0
    3719:	68 04 04 00 00       	push   $0x404
    371e:	56                   	push   %esi
    371f:	e8 ac 95 00 00       	call   ccd0 <async_req_fast@plt>
    3724:	83 c4 30             	add    $0x30,%esp
    3727:	89 c3                	mov    %eax,%ebx
    3729:	85 c0                	test   %eax,%eax
    372b:	75 2e                	jne    375b <audio_pcm_get_info_str+0x7b>
    372d:	8b 45 e4             	mov    -0x1c(%ebp),%eax
    3730:	57                   	push   %edi
    3731:	57                   	push   %edi
    3732:	50                   	push   %eax
    3733:	6a 01                	push   $0x1
    3735:	e8 26 96 00 00       	call   cd60 <calloc@plt>
    373a:	83 c4 10             	add    $0x10,%esp
    373d:	89 c7                	mov    %eax,%edi
    373f:	85 c0                	test   %eax,%eax
    3741:	74 64                	je     37a7 <audio_pcm_get_info_str+0xc7>
    3743:	8b 55 e4             	mov    -0x1c(%ebp),%edx
    3746:	50                   	push   %eax
    3747:	52                   	push   %edx
    3748:	57                   	push   %edi
    3749:	56                   	push   %esi
    374a:	e8 41 97 00 00       	call   ce90 <async_data_read_start@plt>
    374f:	83 c4 10             	add    $0x10,%esp
    3752:	85 c0                	test   %eax,%eax
    3754:	75 22                	jne    3778 <audio_pcm_get_info_str+0x98>
    3756:	8b 45 0c             	mov    0xc(%ebp),%eax
    3759:	89 38                	mov    %edi,(%eax)
    375b:	83 ec 0c             	sub    $0xc,%esp
    375e:	56                   	push   %esi
    375f:	e8 cc 95 00 00       	call   cd30 <async_exchange_end@plt>
    3764:	83 c4 10             	add    $0x10,%esp
    3767:	89 d8                	mov    %ebx,%eax
    3769:	8d 65 f4             	lea    -0xc(%ebp),%esp
    376c:	5b                   	pop    %ebx
    376d:	5e                   	pop    %esi
    376e:	5f                   	pop    %edi
    376f:	5d                   	pop    %ebp
    3770:	c3                   	ret    
    3771:	8d b4 26 00 00 00 00 	lea    0x0(%esi,%eiz,1),%esi
    3778:	83 ec 0c             	sub    $0xc,%esp
    377b:	89 45 d4             	mov    %eax,-0x2c(%ebp)
    377e:	57                   	push   %edi
    377f:	e8 ac 98 00 00       	call   d030 <free@plt>
    3784:	89 34 24             	mov    %esi,(%esp)
    3787:	e8 a4 95 00 00       	call   cd30 <async_exchange_end@plt>
    378c:	8b 45 d4             	mov    -0x2c(%ebp),%eax
    378f:	83 c4 10             	add    $0x10,%esp
    3792:	8d 65 f4             	lea    -0xc(%ebp),%esp
    3795:	5b                   	pop    %ebx
    3796:	5e                   	pop    %esi
    3797:	5f                   	pop    %edi
    3798:	5d                   	pop    %ebp
    3799:	c3                   	ret    
    379a:	8d b6 00 00 00 00    	lea    0x0(%esi),%esi
    37a0:	b8 f2 ff ff ff       	mov    $0xfffffff2,%eax
    37a5:	eb c2                	jmp    3769 <audio_pcm_get_info_str+0x89>
    37a7:	51                   	push   %ecx
    37a8:	6a 00                	push   $0x0
    37aa:	6a ff                	push   $0xffffffff
    37ac:	56                   	push   %esi
    37ad:	e8 de 96 00 00       	call   ce90 <async_data_read_start@plt>
    37b2:	89 34 24             	mov    %esi,(%esp)
    37b5:	e8 76 95 00 00       	call   cd30 <async_exchange_end@plt>
    37ba:	83 c4 10             	add    $0x10,%esp
    37bd:	b8 fe ff ff ff       	mov    $0xfffffffe,%eax
    37c2:	eb a5                	jmp    3769 <audio_pcm_get_info_str+0x89>
    37c4:	8d b6 00 00 00 00    	lea    0x0(%esi),%esi
    37ca:	8d bf 00 00 00 00    	lea    0x0(%edi),%edi

000037d0 <audio_pcm_query_cap>:
    37d0:	55                   	push   %ebp
    37d1:	89 e5                	mov    %esp,%ebp
    37d3:	53                   	push   %ebx
    37d4:	83 ec 30             	sub    $0x30,%esp
    37d7:	8b 45 08             	mov    0x8(%ebp),%eax
    37da:	50                   	push   %eax
    37db:	e8 30 97 00 00       	call   cf10 <async_exchange_begin@plt>
    37e0:	83 c4 0c             	add    $0xc,%esp
    37e3:	89 c3                	mov    %eax,%ebx
    37e5:	8b 55 0c             	mov    0xc(%ebp),%edx
    37e8:	8d 45 f4             	lea    -0xc(%ebp),%eax
    37eb:	6a 00                	push   $0x0
    37ed:	c7 45 f4 00 00 00 00 	movl   $0x0,-0xc(%ebp)
    37f4:	6a 00                	push   $0x0
    37f6:	6a 00                	push   $0x0
    37f8:	6a 00                	push   $0x0
    37fa:	50                   	push   %eax
    37fb:	6a 00                	push   $0x0
    37fd:	6a 00                	push   $0x0
    37ff:	52                   	push   %edx
    3800:	6a 01                	push   $0x1
    3802:	68 04 04 00 00       	push   $0x404
    3807:	53                   	push   %ebx
    3808:	e8 c3 94 00 00       	call   ccd0 <async_req_fast@plt>
    380d:	83 c4 24             	add    $0x24,%esp
    3810:	89 45 e4             	mov    %eax,-0x1c(%ebp)
    3813:	53                   	push   %ebx
    3814:	e8 17 95 00 00       	call   cd30 <async_exchange_end@plt>
    3819:	8b 45 e4             	mov    -0x1c(%ebp),%eax
    381c:	83 c4 10             	add    $0x10,%esp
    381f:	85 c0                	test   %eax,%eax
    3821:	75 03                	jne    3826 <audio_pcm_query_cap+0x56>
    3823:	8b 45 f4             	mov    -0xc(%ebp),%eax
    3826:	8b 5d fc             	mov    -0x4(%ebp),%ebx
    3829:	c9                   	leave  
    382a:	c3                   	ret    
    382b:	90                   	nop
    382c:	8d 74 26 00          	lea    0x0(%esi,%eiz,1),%esi

00003830 <audio_pcm_get_buffer_pos>:
    3830:	55                   	push   %ebp
    3831:	89 e5                	mov    %esp,%ebp
    3833:	56                   	push   %esi
    3834:	53                   	push   %ebx
    3835:	83 ec 20             	sub    $0x20,%esp
    3838:	8b 75 0c             	mov    0xc(%ebp),%esi
    383b:	85 f6                	test   %esi,%esi
    383d:	74 61                	je     38a0 <audio_pcm_get_buffer_pos+0x70>
    383f:	83 ec 0c             	sub    $0xc,%esp
    3842:	8b 45 08             	mov    0x8(%ebp),%eax
    3845:	50                   	push   %eax
    3846:	e8 c5 96 00 00       	call   cf10 <async_exchange_begin@plt>
    384b:	83 c4 0c             	add    $0xc,%esp
    384e:	89 c3                	mov    %eax,%ebx
    3850:	8d 45 f4             	lea    -0xc(%ebp),%eax
    3853:	c7 45 f4 00 00 00 00 	movl   $0x0,-0xc(%ebp)
    385a:	6a 00                	push   $0x0
    385c:	6a 00                	push   $0x0
    385e:	6a 00                	push   $0x0
    3860:	6a 00                	push   $0x0
    3862:	50                   	push   %eax
    3863:	6a 00                	push   $0x0
    3865:	6a 00                	push   $0x0
    3867:	6a 00                	push   $0x0
    3869:	6a 07                	push   $0x7
    386b:	68 04 04 00 00       	push   $0x404
    3870:	53                   	push   %ebx
    3871:	e8 5a 94 00 00       	call   ccd0 <async_req_fast@plt>
    3876:	83 c4 30             	add    $0x30,%esp
    3879:	85 c0                	test   %eax,%eax
    387b:	74 1b                	je     3898 <audio_pcm_get_buffer_pos+0x68>
    387d:	83 ec 0c             	sub    $0xc,%esp
    3880:	89 45 e4             	mov    %eax,-0x1c(%ebp)
    3883:	53                   	push   %ebx
    3884:	e8 a7 94 00 00       	call   cd30 <async_exchange_end@plt>
    3889:	83 c4 10             	add    $0x10,%esp
    388c:	8b 45 e4             	mov    -0x1c(%ebp),%eax
    388f:	8d 65 f8             	lea    -0x8(%ebp),%esp
    3892:	5b                   	pop    %ebx
    3893:	5e                   	pop    %esi
    3894:	5d                   	pop    %ebp
    3895:	c3                   	ret    
    3896:	66 90                	xchg   %ax,%ax
    3898:	8b 55 f4             	mov    -0xc(%ebp),%edx
    389b:	89 16                	mov    %edx,(%esi)
    389d:	eb de                	jmp    387d <audio_pcm_get_buffer_pos+0x4d>
    389f:	90                   	nop
    38a0:	b8 f2 ff ff ff       	mov    $0xfffffff2,%eax
    38a5:	eb e8                	jmp    388f <audio_pcm_get_buffer_pos+0x5f>
    38a7:	89 f6                	mov    %esi,%esi
    38a9:	8d bc 27 00 00 00 00 	lea    0x0(%edi,%eiz,1),%edi

000038b0 <audio_pcm_test_format>:
    38b0:	55                   	push   %ebp
    38b1:	89 e5                	mov    %esp,%ebp
    38b3:	57                   	push   %edi
    38b4:	56                   	push   %esi
    38b5:	53                   	push   %ebx
    38b6:	83 ec 38             	sub    $0x38,%esp
    38b9:	8b 45 08             	mov    0x8(%ebp),%eax
    38bc:	8b 5d 0c             	mov    0xc(%ebp),%ebx
    38bf:	50                   	push   %eax
    38c0:	e8 4b 96 00 00       	call   cf10 <async_exchange_begin@plt>
    38c5:	83 c4 10             	add    $0x10,%esp
    38c8:	89 c6                	mov    %eax,%esi
    38ca:	85 db                	test   %ebx,%ebx
    38cc:	0f 84 be 00 00 00    	je     3990 <audio_pcm_test_format+0xe0>
    38d2:	8b 03                	mov    (%ebx),%eax
    38d4:	8b 7d 10             	mov    0x10(%ebp),%edi
    38d7:	89 45 dc             	mov    %eax,-0x24(%ebp)
    38da:	85 ff                	test   %edi,%edi
    38dc:	0f 84 be 00 00 00    	je     39a0 <audio_pcm_test_format+0xf0>
    38e2:	8b 4d 10             	mov    0x10(%ebp),%ecx
    38e5:	8b 11                	mov    (%ecx),%edx
    38e7:	8b 4d 14             	mov    0x14(%ebp),%ecx
    38ea:	89 55 e0             	mov    %edx,-0x20(%ebp)
    38ed:	85 c9                	test   %ecx,%ecx
    38ef:	0f 84 bb 00 00 00    	je     39b0 <audio_pcm_test_format+0x100>
    38f5:	8b 7d 14             	mov    0x14(%ebp),%edi
    38f8:	8b 0f                	mov    (%edi),%ecx
    38fa:	57                   	push   %edi
    38fb:	8d 7d e4             	lea    -0x1c(%ebp),%edi
    38fe:	6a 00                	push   $0x0
    3900:	6a 00                	push   $0x0
    3902:	57                   	push   %edi
    3903:	8d 7d e0             	lea    -0x20(%ebp),%edi
    3906:	57                   	push   %edi
    3907:	8d 7d dc             	lea    -0x24(%ebp),%edi
    390a:	57                   	push   %edi
    390b:	89 4d e4             	mov    %ecx,-0x1c(%ebp)
    390e:	51                   	push   %ecx
    390f:	52                   	push   %edx
    3910:	50                   	push   %eax
    3911:	6a 04                	push   $0x4
    3913:	68 04 04 00 00       	push   $0x404
    3918:	56                   	push   %esi
    3919:	e8 b2 93 00 00       	call   ccd0 <async_req_fast@plt>
    391e:	83 c4 24             	add    $0x24,%esp
    3921:	89 45 d4             	mov    %eax,-0x2c(%ebp)
    3924:	56                   	push   %esi
    3925:	e8 06 94 00 00       	call   cd30 <async_exchange_end@plt>
    392a:	8b 45 d4             	mov    -0x2c(%ebp),%eax
    392d:	83 c4 10             	add    $0x10,%esp
    3930:	85 c0                	test   %eax,%eax
    3932:	74 34                	je     3968 <audio_pcm_test_format+0xb8>
    3934:	83 f8 fd             	cmp    $0xfffffffd,%eax
    3937:	74 2f                	je     3968 <audio_pcm_test_format+0xb8>
    3939:	85 db                	test   %ebx,%ebx
    393b:	74 05                	je     3942 <audio_pcm_test_format+0x92>
    393d:	8b 55 dc             	mov    -0x24(%ebp),%edx
    3940:	89 13                	mov    %edx,(%ebx)
    3942:	8b 4d 10             	mov    0x10(%ebp),%ecx
    3945:	85 c9                	test   %ecx,%ecx
    3947:	74 08                	je     3951 <audio_pcm_test_format+0xa1>
    3949:	8b 55 e0             	mov    -0x20(%ebp),%edx
    394c:	8b 75 10             	mov    0x10(%ebp),%esi
    394f:	89 16                	mov    %edx,(%esi)
    3951:	8b 55 14             	mov    0x14(%ebp),%edx
    3954:	85 d2                	test   %edx,%edx
    3956:	74 08                	je     3960 <audio_pcm_test_format+0xb0>
    3958:	8b 4d 14             	mov    0x14(%ebp),%ecx
    395b:	8b 55 e4             	mov    -0x1c(%ebp),%edx
    395e:	89 11                	mov    %edx,(%ecx)
    3960:	8d 65 f4             	lea    -0xc(%ebp),%esp
    3963:	5b                   	pop    %ebx
    3964:	5e                   	pop    %esi
    3965:	5f                   	pop    %edi
    3966:	5d                   	pop    %ebp
    3967:	c3                   	ret    
    3968:	85 db                	test   %ebx,%ebx
    396a:	74 07                	je     3973 <audio_pcm_test_format+0xc3>
    396c:	8b 55 dc             	mov    -0x24(%ebp),%edx
    396f:	39 13                	cmp    %edx,(%ebx)
    3971:	75 cd                	jne    3940 <audio_pcm_test_format+0x90>
    3973:	8b 7d 10             	mov    0x10(%ebp),%edi
    3976:	85 ff                	test   %edi,%edi
    3978:	74 3e                	je     39b8 <audio_pcm_test_format+0x108>
    397a:	8b 75 10             	mov    0x10(%ebp),%esi
    397d:	8b 55 e0             	mov    -0x20(%ebp),%edx
    3980:	39 16                	cmp    %edx,(%esi)
    3982:	74 34                	je     39b8 <audio_pcm_test_format+0x108>
    3984:	85 db                	test   %ebx,%ebx
    3986:	75 b5                	jne    393d <audio_pcm_test_format+0x8d>
    3988:	eb c5                	jmp    394f <audio_pcm_test_format+0x9f>
    398a:	8d b6 00 00 00 00    	lea    0x0(%esi),%esi
    3990:	31 c0                	xor    %eax,%eax
    3992:	8b 7d 10             	mov    0x10(%ebp),%edi
    3995:	89 45 dc             	mov    %eax,-0x24(%ebp)
    3998:	85 ff                	test   %edi,%edi
    399a:	0f 85 42 ff ff ff    	jne    38e2 <audio_pcm_test_format+0x32>
    39a0:	31 d2                	xor    %edx,%edx
    39a2:	8b 4d 14             	mov    0x14(%ebp),%ecx
    39a5:	89 55 e0             	mov    %edx,-0x20(%ebp)
    39a8:	85 c9                	test   %ecx,%ecx
    39aa:	0f 85 45 ff ff ff    	jne    38f5 <audio_pcm_test_format+0x45>
    39b0:	31 c9                	xor    %ecx,%ecx
    39b2:	e9 43 ff ff ff       	jmp    38fa <audio_pcm_test_format+0x4a>
    39b7:	90                   	nop
    39b8:	8b 75 14             	mov    0x14(%ebp),%esi
    39bb:	85 f6                	test   %esi,%esi
    39bd:	74 0e                	je     39cd <audio_pcm_test_format+0x11d>
    39bf:	8b 75 14             	mov    0x14(%ebp),%esi
    39c2:	8b 4d e4             	mov    -0x1c(%ebp),%ecx
    39c5:	39 0e                	cmp    %ecx,(%esi)
    39c7:	0f 85 6c ff ff ff    	jne    3939 <audio_pcm_test_format+0x89>
    39cd:	31 c0                	xor    %eax,%eax
    39cf:	eb 8f                	jmp    3960 <audio_pcm_test_format+0xb0>
    39d1:	eb 0d                	jmp    39e0 <audio_pcm_register_event_callback>
    39d3:	90                   	nop
    39d4:	90                   	nop
    39d5:	90                   	nop
    39d6:	90                   	nop
    39d7:	90                   	nop
    39d8:	90                   	nop
    39d9:	90                   	nop
    39da:	90                   	nop
    39db:	90                   	nop
    39dc:	90                   	nop
    39dd:	90                   	nop
    39de:	90                   	nop
    39df:	90                   	nop

000039e0 <audio_pcm_register_event_callback>:
    39e0:	55                   	push   %ebp
    39e1:	89 e5                	mov    %esp,%ebp
    39e3:	56                   	push   %esi
    39e4:	53                   	push   %ebx
    39e5:	83 ec 20             	sub    $0x20,%esp
    39e8:	8b 75 0c             	mov    0xc(%ebp),%esi
    39eb:	85 f6                	test   %esi,%esi
    39ed:	74 71                	je     3a60 <audio_pcm_register_event_callback+0x80>
    39ef:	83 ec 0c             	sub    $0xc,%esp
    39f2:	8b 4d 08             	mov    0x8(%ebp),%ecx
    39f5:	51                   	push   %ecx
    39f6:	e8 15 95 00 00       	call   cf10 <async_exchange_begin@plt>
    39fb:	83 c4 0c             	add    $0xc,%esp
    39fe:	89 c3                	mov    %eax,%ebx
    3a00:	6a 00                	push   $0x0
    3a02:	6a 00                	push   $0x0
    3a04:	6a 00                	push   $0x0
    3a06:	6a 00                	push   $0x0
    3a08:	6a 00                	push   $0x0
    3a0a:	6a 00                	push   $0x0
    3a0c:	6a 00                	push   $0x0
    3a0e:	6a 00                	push   $0x0
    3a10:	6a 02                	push   $0x2
    3a12:	68 04 04 00 00       	push   $0x404
    3a17:	50                   	push   %eax
    3a18:	e8 b3 92 00 00       	call   ccd0 <async_req_fast@plt>
    3a1d:	83 c4 30             	add    $0x30,%esp
    3a20:	85 c0                	test   %eax,%eax
    3a22:	74 1c                	je     3a40 <audio_pcm_register_event_callback+0x60>
    3a24:	83 ec 0c             	sub    $0xc,%esp
    3a27:	89 45 e4             	mov    %eax,-0x1c(%ebp)
    3a2a:	53                   	push   %ebx
    3a2b:	e8 00 93 00 00       	call   cd30 <async_exchange_end@plt>
    3a30:	83 c4 10             	add    $0x10,%esp
    3a33:	8b 45 e4             	mov    -0x1c(%ebp),%eax
    3a36:	8d 65 f8             	lea    -0x8(%ebp),%esp
    3a39:	5b                   	pop    %ebx
    3a3a:	5e                   	pop    %esi
    3a3b:	5d                   	pop    %ebp
    3a3c:	c3                   	ret    
    3a3d:	8d 76 00             	lea    0x0(%esi),%esi
    3a40:	8b 55 10             	mov    0x10(%ebp),%edx
    3a43:	50                   	push   %eax
    3a44:	8d 45 f4             	lea    -0xc(%ebp),%eax
    3a47:	50                   	push   %eax
    3a48:	52                   	push   %edx
    3a49:	56                   	push   %esi
    3a4a:	6a 00                	push   $0x0
    3a4c:	6a 00                	push   $0x0
    3a4e:	68 16 86 8f db       	push   $0xdb8f8616
    3a53:	53                   	push   %ebx
    3a54:	e8 e7 93 00 00       	call   ce40 <async_create_callback_port@plt>
    3a59:	83 c4 20             	add    $0x20,%esp
    3a5c:	eb c6                	jmp    3a24 <audio_pcm_register_event_callback+0x44>
    3a5e:	66 90                	xchg   %ax,%ax
    3a60:	b8 f2 ff ff ff       	mov    $0xfffffff2,%eax
    3a65:	eb cf                	jmp    3a36 <audio_pcm_register_event_callback+0x56>
    3a67:	89 f6                	mov    %esi,%esi
    3a69:	8d bc 27 00 00 00 00 	lea    0x0(%edi,%eiz,1),%edi

00003a70 <audio_pcm_unregister_event_callback>:
    3a70:	55                   	push   %ebp
    3a71:	89 e5                	mov    %esp,%ebp
    3a73:	53                   	push   %ebx
    3a74:	83 ec 20             	sub    $0x20,%esp
    3a77:	8b 45 08             	mov    0x8(%ebp),%eax
    3a7a:	50                   	push   %eax
    3a7b:	e8 90 94 00 00       	call   cf10 <async_exchange_begin@plt>
    3a80:	83 c4 0c             	add    $0xc,%esp
    3a83:	89 c3                	mov    %eax,%ebx
    3a85:	6a 00                	push   $0x0
    3a87:	6a 00                	push   $0x0
    3a89:	6a 00                	push   $0x0
    3a8b:	6a 00                	push   $0x0
    3a8d:	6a 00                	push   $0x0
    3a8f:	6a 00                	push   $0x0
    3a91:	6a 00                	push   $0x0
    3a93:	6a 00                	push   $0x0
    3a95:	6a 03                	push   $0x3
    3a97:	68 04 04 00 00       	push   $0x404
    3a9c:	50                   	push   %eax
    3a9d:	e8 2e 92 00 00       	call   ccd0 <async_req_fast@plt>
    3aa2:	83 c4 24             	add    $0x24,%esp
    3aa5:	89 45 f4             	mov    %eax,-0xc(%ebp)
    3aa8:	53                   	push   %ebx
    3aa9:	e8 82 92 00 00       	call   cd30 <async_exchange_end@plt>
    3aae:	8b 45 f4             	mov    -0xc(%ebp),%eax
    3ab1:	8b 5d fc             	mov    -0x4(%ebp),%ebx
    3ab4:	c9                   	leave  
    3ab5:	c3                   	ret    
    3ab6:	8d 76 00             	lea    0x0(%esi),%esi
    3ab9:	8d bc 27 00 00 00 00 	lea    0x0(%edi,%eiz,1),%edi

00003ac0 <audio_pcm_get_buffer>:
    3ac0:	55                   	push   %ebp
    3ac1:	89 e5                	mov    %esp,%ebp
    3ac3:	57                   	push   %edi
    3ac4:	56                   	push   %esi
    3ac5:	53                   	push   %ebx
    3ac6:	83 ec 2c             	sub    $0x2c,%esp
    3ac9:	8b 75 0c             	mov    0xc(%ebp),%esi
    3acc:	8b 5d 10             	mov    0x10(%ebp),%ebx
    3acf:	85 f6                	test   %esi,%esi
    3ad1:	0f 84 91 00 00 00    	je     3b68 <audio_pcm_get_buffer+0xa8>
    3ad7:	85 db                	test   %ebx,%ebx
    3ad9:	0f 84 89 00 00 00    	je     3b68 <audio_pcm_get_buffer+0xa8>
    3adf:	83 ec 0c             	sub    $0xc,%esp
    3ae2:	8b 55 08             	mov    0x8(%ebp),%edx
    3ae5:	52                   	push   %edx
    3ae6:	e8 25 94 00 00       	call   cf10 <async_exchange_begin@plt>
    3aeb:	83 c4 0c             	add    $0xc,%esp
    3aee:	89 c7                	mov    %eax,%edi
    3af0:	8d 55 e0             	lea    -0x20(%ebp),%edx
    3af3:	8b 03                	mov    (%ebx),%eax
    3af5:	89 45 e0             	mov    %eax,-0x20(%ebp)
    3af8:	6a 00                	push   $0x0
    3afa:	6a 00                	push   $0x0
    3afc:	6a 00                	push   $0x0
    3afe:	6a 00                	push   $0x0
    3b00:	52                   	push   %edx
    3b01:	6a 00                	push   $0x0
    3b03:	6a 00                	push   $0x0
    3b05:	50                   	push   %eax
    3b06:	6a 05                	push   $0x5
    3b08:	68 04 04 00 00       	push   $0x404
    3b0d:	57                   	push   %edi
    3b0e:	e8 bd 91 00 00       	call   ccd0 <async_req_fast@plt>
    3b13:	83 c4 30             	add    $0x30,%esp
    3b16:	85 c0                	test   %eax,%eax
    3b18:	75 2d                	jne    3b47 <audio_pcm_get_buffer+0x87>
    3b1a:	83 ec 0c             	sub    $0xc,%esp
    3b1d:	8d 45 e4             	lea    -0x1c(%ebp),%eax
    3b20:	c7 45 e4 00 00 00 00 	movl   $0x0,-0x1c(%ebp)
    3b27:	50                   	push   %eax
    3b28:	8b 45 e0             	mov    -0x20(%ebp),%eax
    3b2b:	6a 00                	push   $0x0
    3b2d:	6a 00                	push   $0x0
    3b2f:	50                   	push   %eax
    3b30:	57                   	push   %edi
    3b31:	e8 4a 91 00 00       	call   cc80 <async_share_in_start@plt>
    3b36:	83 c4 20             	add    $0x20,%esp
    3b39:	85 c0                	test   %eax,%eax
    3b3b:	75 0a                	jne    3b47 <audio_pcm_get_buffer+0x87>
    3b3d:	8b 55 e4             	mov    -0x1c(%ebp),%edx
    3b40:	89 16                	mov    %edx,(%esi)
    3b42:	8b 55 e0             	mov    -0x20(%ebp),%edx
    3b45:	89 13                	mov    %edx,(%ebx)
    3b47:	83 ec 0c             	sub    $0xc,%esp
    3b4a:	89 45 d4             	mov    %eax,-0x2c(%ebp)
    3b4d:	57                   	push   %edi
    3b4e:	e8 dd 91 00 00       	call   cd30 <async_exchange_end@plt>
    3b53:	83 c4 10             	add    $0x10,%esp
    3b56:	8b 45 d4             	mov    -0x2c(%ebp),%eax
    3b59:	8d 65 f4             	lea    -0xc(%ebp),%esp
    3b5c:	5b                   	pop    %ebx
    3b5d:	5e                   	pop    %esi
    3b5e:	5f                   	pop    %edi
    3b5f:	5d                   	pop    %ebp
    3b60:	c3                   	ret    
    3b61:	8d b4 26 00 00 00 00 	lea    0x0(%esi,%eiz,1),%esi
    3b68:	b8 f2 ff ff ff       	mov    $0xfffffff2,%eax
    3b6d:	eb ea                	jmp    3b59 <audio_pcm_get_buffer+0x99>
    3b6f:	90                   	nop

00003b70 <audio_pcm_release_buffer>:
    3b70:	55                   	push   %ebp
    3b71:	89 e5                	mov    %esp,%ebp
    3b73:	53                   	push   %ebx
    3b74:	83 ec 20             	sub    $0x20,%esp
    3b77:	8b 45 08             	mov    0x8(%ebp),%eax
    3b7a:	50                   	push   %eax
    3b7b:	e8 90 93 00 00       	call   cf10 <async_exchange_begin@plt>
    3b80:	83 c4 0c             	add    $0xc,%esp
    3b83:	89 c3                	mov    %eax,%ebx
    3b85:	6a 00                	push   $0x0
    3b87:	6a 00                	push   $0x0
    3b89:	6a 00                	push   $0x0
    3b8b:	6a 00                	push   $0x0
    3b8d:	6a 00                	push   $0x0
    3b8f:	6a 00                	push   $0x0
    3b91:	6a 00                	push   $0x0
    3b93:	6a 00                	push   $0x0
    3b95:	6a 06                	push   $0x6
    3b97:	68 04 04 00 00       	push   $0x404
    3b9c:	50                   	push   %eax
    3b9d:	e8 2e 91 00 00       	call   ccd0 <async_req_fast@plt>
    3ba2:	83 c4 24             	add    $0x24,%esp
    3ba5:	89 45 f4             	mov    %eax,-0xc(%ebp)
    3ba8:	53                   	push   %ebx
    3ba9:	e8 82 91 00 00       	call   cd30 <async_exchange_end@plt>
    3bae:	8b 45 f4             	mov    -0xc(%ebp),%eax
    3bb1:	8b 5d fc             	mov    -0x4(%ebp),%ebx
    3bb4:	c9                   	leave  
    3bb5:	c3                   	ret    
    3bb6:	8d 76 00             	lea    0x0(%esi),%esi
    3bb9:	8d bc 27 00 00 00 00 	lea    0x0(%edi,%eiz,1),%edi

00003bc0 <audio_pcm_start_playback_fragment>:
    3bc0:	55                   	push   %ebp
    3bc1:	89 e5                	mov    %esp,%ebp
    3bc3:	56                   	push   %esi
    3bc4:	53                   	push   %ebx
    3bc5:	83 ec 10             	sub    $0x10,%esp
    3bc8:	81 7d 10 ff ff 00 00 	cmpl   $0xffff,0x10(%ebp)
    3bcf:	77 5f                	ja     3c30 <audio_pcm_start_playback_fragment+0x70>
    3bd1:	f7 45 18 00 00 ff ff 	testl  $0xffff0000,0x18(%ebp)
    3bd8:	75 5d                	jne    3c37 <audio_pcm_start_playback_fragment+0x77>
    3bda:	83 ec 0c             	sub    $0xc,%esp
    3bdd:	8b 5d 10             	mov    0x10(%ebp),%ebx
    3be0:	8b 55 08             	mov    0x8(%ebp),%edx
    3be3:	8b 45 18             	mov    0x18(%ebp),%eax
    3be6:	c1 e3 10             	shl    $0x10,%ebx
    3be9:	52                   	push   %edx
    3bea:	09 c3                	or     %eax,%ebx
    3bec:	e8 1f 93 00 00       	call   cf10 <async_exchange_begin@plt>
    3bf1:	83 c4 0c             	add    $0xc,%esp
    3bf4:	8b 4d 14             	mov    0x14(%ebp),%ecx
    3bf7:	89 c6                	mov    %eax,%esi
    3bf9:	6a 00                	push   $0x0
    3bfb:	6a 00                	push   $0x0
    3bfd:	6a 00                	push   $0x0
    3bff:	6a 00                	push   $0x0
    3c01:	6a 00                	push   $0x0
    3c03:	53                   	push   %ebx
    3c04:	8b 5d 0c             	mov    0xc(%ebp),%ebx
    3c07:	51                   	push   %ecx
    3c08:	53                   	push   %ebx
    3c09:	6a 08                	push   $0x8
    3c0b:	68 04 04 00 00       	push   $0x404
    3c10:	50                   	push   %eax
    3c11:	e8 ba 90 00 00       	call   ccd0 <async_req_fast@plt>
    3c16:	83 c4 24             	add    $0x24,%esp
    3c19:	56                   	push   %esi
    3c1a:	89 45 f4             	mov    %eax,-0xc(%ebp)
    3c1d:	e8 0e 91 00 00       	call   cd30 <async_exchange_end@plt>
    3c22:	83 c4 10             	add    $0x10,%esp
    3c25:	8b 45 f4             	mov    -0xc(%ebp),%eax
    3c28:	8d 65 f8             	lea    -0x8(%ebp),%esp
    3c2b:	5b                   	pop    %ebx
    3c2c:	5e                   	pop    %esi
    3c2d:	5d                   	pop    %ebp
    3c2e:	c3                   	ret    
    3c2f:	90                   	nop
    3c30:	b8 f2 ff ff ff       	mov    $0xfffffff2,%eax
    3c35:	eb f1                	jmp    3c28 <audio_pcm_start_playback_fragment+0x68>
    3c37:	56                   	push   %esi
    3c38:	68 a6 01 00 00       	push   $0x1a6
    3c3d:	68 d8 b2 00 00       	push   $0xb2d8
    3c42:	68 40 b4 00 00       	push   $0xb440
    3c47:	e8 f4 90 00 00       	call   cd40 <assert_abort@plt>
    3c4c:	8d 74 26 00          	lea    0x0(%esi,%eiz,1),%esi

00003c50 <audio_pcm_last_playback_fragment>:
    3c50:	55                   	push   %ebp
    3c51:	89 e5                	mov    %esp,%ebp
    3c53:	53                   	push   %ebx
    3c54:	83 ec 20             	sub    $0x20,%esp
    3c57:	8b 45 08             	mov    0x8(%ebp),%eax
    3c5a:	50                   	push   %eax
    3c5b:	e8 b0 92 00 00       	call   cf10 <async_exchange_begin@plt>
    3c60:	83 c4 0c             	add    $0xc,%esp
    3c63:	89 c3                	mov    %eax,%ebx
    3c65:	6a 00                	push   $0x0
    3c67:	6a 00                	push   $0x0
    3c69:	6a 00                	push   $0x0
    3c6b:	6a 00                	push   $0x0
    3c6d:	6a 00                	push   $0x0
    3c6f:	6a 00                	push   $0x0
    3c71:	6a 00                	push   $0x0
    3c73:	6a 00                	push   $0x0
    3c75:	6a 09                	push   $0x9
    3c77:	68 04 04 00 00       	push   $0x404
    3c7c:	50                   	push   %eax
    3c7d:	e8 4e 90 00 00       	call   ccd0 <async_req_fast@plt>
    3c82:	83 c4 24             	add    $0x24,%esp
    3c85:	89 45 f4             	mov    %eax,-0xc(%ebp)
    3c88:	53                   	push   %ebx
    3c89:	e8 a2 90 00 00       	call   cd30 <async_exchange_end@plt>
    3c8e:	8b 45 f4             	mov    -0xc(%ebp),%eax
    3c91:	8b 5d fc             	mov    -0x4(%ebp),%ebx
    3c94:	c9                   	leave  
    3c95:	c3                   	ret    
    3c96:	8d 76 00             	lea    0x0(%esi),%esi
    3c99:	8d bc 27 00 00 00 00 	lea    0x0(%edi,%eiz,1),%edi

00003ca0 <audio_pcm_start_playback>:
    3ca0:	55                   	push   %ebp
    3ca1:	89 e5                	mov    %esp,%ebp
    3ca3:	56                   	push   %esi
    3ca4:	53                   	push   %ebx
    3ca5:	83 ec 10             	sub    $0x10,%esp
    3ca8:	81 7d 0c ff ff 00 00 	cmpl   $0xffff,0xc(%ebp)
    3caf:	77 5f                	ja     3d10 <audio_pcm_start_playback+0x70>
    3cb1:	f7 45 14 00 00 ff ff 	testl  $0xffff0000,0x14(%ebp)
    3cb8:	75 5d                	jne    3d17 <audio_pcm_start_playback+0x77>
    3cba:	83 ec 0c             	sub    $0xc,%esp
    3cbd:	8b 5d 0c             	mov    0xc(%ebp),%ebx
    3cc0:	8b 55 08             	mov    0x8(%ebp),%edx
    3cc3:	8b 45 14             	mov    0x14(%ebp),%eax
    3cc6:	c1 e3 10             	shl    $0x10,%ebx
    3cc9:	52                   	push   %edx
    3cca:	09 c3                	or     %eax,%ebx
    3ccc:	e8 3f 92 00 00       	call   cf10 <async_exchange_begin@plt>
    3cd1:	83 c4 0c             	add    $0xc,%esp
    3cd4:	8b 4d 10             	mov    0x10(%ebp),%ecx
    3cd7:	89 c6                	mov    %eax,%esi
    3cd9:	6a 00                	push   $0x0
    3cdb:	6a 00                	push   $0x0
    3cdd:	6a 00                	push   $0x0
    3cdf:	6a 00                	push   $0x0
    3ce1:	6a 00                	push   $0x0
    3ce3:	53                   	push   %ebx
    3ce4:	51                   	push   %ecx
    3ce5:	6a 00                	push   $0x0
    3ce7:	6a 08                	push   $0x8
    3ce9:	68 04 04 00 00       	push   $0x404
    3cee:	50                   	push   %eax
    3cef:	e8 dc 8f 00 00       	call   ccd0 <async_req_fast@plt>
    3cf4:	83 c4 24             	add    $0x24,%esp
    3cf7:	89 45 f4             	mov    %eax,-0xc(%ebp)
    3cfa:	56                   	push   %esi
    3cfb:	e8 30 90 00 00       	call   cd30 <async_exchange_end@plt>
    3d00:	83 c4 10             	add    $0x10,%esp
    3d03:	8b 45 f4             	mov    -0xc(%ebp),%eax
    3d06:	8d 65 f8             	lea    -0x8(%ebp),%esp
    3d09:	5b                   	pop    %ebx
    3d0a:	5e                   	pop    %esi
    3d0b:	5d                   	pop    %ebp
    3d0c:	c3                   	ret    
    3d0d:	8d 76 00             	lea    0x0(%esi),%esi
    3d10:	b8 f2 ff ff ff       	mov    $0xfffffff2,%eax
    3d15:	eb ef                	jmp    3d06 <audio_pcm_start_playback+0x66>
    3d17:	53                   	push   %ebx
    3d18:	68 a6 01 00 00       	push   $0x1a6
    3d1d:	68 d8 b2 00 00       	push   $0xb2d8
    3d22:	68 40 b4 00 00       	push   $0xb440
    3d27:	e8 14 90 00 00       	call   cd40 <assert_abort@plt>
    3d2c:	8d 74 26 00          	lea    0x0(%esi,%eiz,1),%esi

00003d30 <audio_pcm_stop_playback_immediate>:
    3d30:	55                   	push   %ebp
    3d31:	89 e5                	mov    %esp,%ebp
    3d33:	53                   	push   %ebx
    3d34:	83 ec 20             	sub    $0x20,%esp
    3d37:	8b 45 08             	mov    0x8(%ebp),%eax
    3d3a:	50                   	push   %eax
    3d3b:	e8 d0 91 00 00       	call   cf10 <async_exchange_begin@plt>
    3d40:	83 c4 0c             	add    $0xc,%esp
    3d43:	89 c3                	mov    %eax,%ebx
    3d45:	6a 00                	push   $0x0
    3d47:	6a 00                	push   $0x0
    3d49:	6a 00                	push   $0x0
    3d4b:	6a 00                	push   $0x0
    3d4d:	6a 00                	push   $0x0
    3d4f:	6a 00                	push   $0x0
    3d51:	6a 00                	push   $0x0
    3d53:	6a 01                	push   $0x1
    3d55:	6a 09                	push   $0x9
    3d57:	68 04 04 00 00       	push   $0x404
    3d5c:	50                   	push   %eax
    3d5d:	e8 6e 8f 00 00       	call   ccd0 <async_req_fast@plt>
    3d62:	83 c4 24             	add    $0x24,%esp
    3d65:	89 45 f4             	mov    %eax,-0xc(%ebp)
    3d68:	53                   	push   %ebx
    3d69:	e8 c2 8f 00 00       	call   cd30 <async_exchange_end@plt>
    3d6e:	8b 45 f4             	mov    -0xc(%ebp),%eax
    3d71:	8b 5d fc             	mov    -0x4(%ebp),%ebx
    3d74:	c9                   	leave  
    3d75:	c3                   	ret    
    3d76:	8d 76 00             	lea    0x0(%esi),%esi
    3d79:	8d bc 27 00 00 00 00 	lea    0x0(%edi,%eiz,1),%edi

00003d80 <audio_pcm_stop_playback>:
    3d80:	55                   	push   %ebp
    3d81:	89 e5                	mov    %esp,%ebp
    3d83:	53                   	push   %ebx
    3d84:	83 ec 20             	sub    $0x20,%esp
    3d87:	8b 45 08             	mov    0x8(%ebp),%eax
    3d8a:	50                   	push   %eax
    3d8b:	e8 80 91 00 00       	call   cf10 <async_exchange_begin@plt>
    3d90:	83 c4 0c             	add    $0xc,%esp
    3d93:	89 c3                	mov    %eax,%ebx
    3d95:	6a 00                	push   $0x0
    3d97:	6a 00                	push   $0x0
    3d99:	6a 00                	push   $0x0
    3d9b:	6a 00                	push   $0x0
    3d9d:	6a 00                	push   $0x0
    3d9f:	6a 00                	push   $0x0
    3da1:	6a 00                	push   $0x0
    3da3:	6a 00                	push   $0x0
    3da5:	6a 09                	push   $0x9
    3da7:	68 04 04 00 00       	push   $0x404
    3dac:	50                   	push   %eax
    3dad:	e8 1e 8f 00 00       	call   ccd0 <async_req_fast@plt>
    3db2:	83 c4 24             	add    $0x24,%esp
    3db5:	89 45 f4             	mov    %eax,-0xc(%ebp)
    3db8:	53                   	push   %ebx
    3db9:	e8 72 8f 00 00       	call   cd30 <async_exchange_end@plt>
    3dbe:	8b 45 f4             	mov    -0xc(%ebp),%eax
    3dc1:	8b 5d fc             	mov    -0x4(%ebp),%ebx
    3dc4:	c9                   	leave  
    3dc5:	c3                   	ret    
    3dc6:	8d 76 00             	lea    0x0(%esi),%esi
    3dc9:	8d bc 27 00 00 00 00 	lea    0x0(%edi,%eiz,1),%edi

00003dd0 <audio_pcm_start_capture_fragment>:
    3dd0:	55                   	push   %ebp
    3dd1:	89 e5                	mov    %esp,%ebp
    3dd3:	56                   	push   %esi
    3dd4:	53                   	push   %ebx
    3dd5:	83 ec 10             	sub    $0x10,%esp
    3dd8:	81 7d 10 ff ff 00 00 	cmpl   $0xffff,0x10(%ebp)
    3ddf:	77 5f                	ja     3e40 <audio_pcm_start_capture_fragment+0x70>
    3de1:	f7 45 18 00 00 ff ff 	testl  $0xffff0000,0x18(%ebp)
    3de8:	75 5d                	jne    3e47 <audio_pcm_start_capture_fragment+0x77>
    3dea:	83 ec 0c             	sub    $0xc,%esp
    3ded:	8b 5d 10             	mov    0x10(%ebp),%ebx
    3df0:	8b 55 08             	mov    0x8(%ebp),%edx
    3df3:	8b 45 18             	mov    0x18(%ebp),%eax
    3df6:	c1 e3 10             	shl    $0x10,%ebx
    3df9:	52                   	push   %edx
    3dfa:	09 c3                	or     %eax,%ebx
    3dfc:	e8 0f 91 00 00       	call   cf10 <async_exchange_begin@plt>
    3e01:	83 c4 0c             	add    $0xc,%esp
    3e04:	8b 4d 14             	mov    0x14(%ebp),%ecx
    3e07:	89 c6                	mov    %eax,%esi
    3e09:	6a 00                	push   $0x0
    3e0b:	6a 00                	push   $0x0
    3e0d:	6a 00                	push   $0x0
    3e0f:	6a 00                	push   $0x0
    3e11:	6a 00                	push   $0x0
    3e13:	53                   	push   %ebx
    3e14:	8b 5d 0c             	mov    0xc(%ebp),%ebx
    3e17:	51                   	push   %ecx
    3e18:	53                   	push   %ebx
    3e19:	6a 0a                	push   $0xa
    3e1b:	68 04 04 00 00       	push   $0x404
    3e20:	50                   	push   %eax
    3e21:	e8 aa 8e 00 00       	call   ccd0 <async_req_fast@plt>
    3e26:	83 c4 24             	add    $0x24,%esp
    3e29:	56                   	push   %esi
    3e2a:	89 45 f4             	mov    %eax,-0xc(%ebp)
    3e2d:	e8 fe 8e 00 00       	call   cd30 <async_exchange_end@plt>
    3e32:	83 c4 10             	add    $0x10,%esp
    3e35:	8b 45 f4             	mov    -0xc(%ebp),%eax
    3e38:	8d 65 f8             	lea    -0x8(%ebp),%esp
    3e3b:	5b                   	pop    %ebx
    3e3c:	5e                   	pop    %esi
    3e3d:	5d                   	pop    %ebp
    3e3e:	c3                   	ret    
    3e3f:	90                   	nop
    3e40:	b8 f2 ff ff ff       	mov    $0xfffffff2,%eax
    3e45:	eb f1                	jmp    3e38 <audio_pcm_start_capture_fragment+0x68>
    3e47:	56                   	push   %esi
    3e48:	68 07 02 00 00       	push   $0x207
    3e4d:	68 d8 b2 00 00       	push   $0xb2d8
    3e52:	68 40 b4 00 00       	push   $0xb440
    3e57:	e8 e4 8e 00 00       	call   cd40 <assert_abort@plt>
    3e5c:	8d 74 26 00          	lea    0x0(%esi,%eiz,1),%esi

00003e60 <audio_pcm_start_capture>:
    3e60:	55                   	push   %ebp
    3e61:	89 e5                	mov    %esp,%ebp
    3e63:	56                   	push   %esi
    3e64:	53                   	push   %ebx
    3e65:	83 ec 10             	sub    $0x10,%esp
    3e68:	81 7d 0c ff ff 00 00 	cmpl   $0xffff,0xc(%ebp)
    3e6f:	77 5f                	ja     3ed0 <audio_pcm_start_capture+0x70>
    3e71:	f7 45 14 00 00 ff ff 	testl  $0xffff0000,0x14(%ebp)
    3e78:	75 5d                	jne    3ed7 <audio_pcm_start_capture+0x77>
    3e7a:	83 ec 0c             	sub    $0xc,%esp
    3e7d:	8b 5d 0c             	mov    0xc(%ebp),%ebx
    3e80:	8b 55 08             	mov    0x8(%ebp),%edx
    3e83:	8b 45 14             	mov    0x14(%ebp),%eax
    3e86:	c1 e3 10             	shl    $0x10,%ebx
    3e89:	52                   	push   %edx
    3e8a:	09 c3                	or     %eax,%ebx
    3e8c:	e8 7f 90 00 00       	call   cf10 <async_exchange_begin@plt>
    3e91:	83 c4 0c             	add    $0xc,%esp
    3e94:	8b 4d 10             	mov    0x10(%ebp),%ecx
    3e97:	89 c6                	mov    %eax,%esi
    3e99:	6a 00                	push   $0x0
    3e9b:	6a 00                	push   $0x0
    3e9d:	6a 00                	push   $0x0
    3e9f:	6a 00                	push   $0x0
    3ea1:	6a 00                	push   $0x0
    3ea3:	53                   	push   %ebx
    3ea4:	51                   	push   %ecx
    3ea5:	6a 00                	push   $0x0
    3ea7:	6a 0a                	push   $0xa
    3ea9:	68 04 04 00 00       	push   $0x404
    3eae:	50                   	push   %eax
    3eaf:	e8 1c 8e 00 00       	call   ccd0 <async_req_fast@plt>
    3eb4:	83 c4 24             	add    $0x24,%esp
    3eb7:	89 45 f4             	mov    %eax,-0xc(%ebp)
    3eba:	56                   	push   %esi
    3ebb:	e8 70 8e 00 00       	call   cd30 <async_exchange_end@plt>
    3ec0:	83 c4 10             	add    $0x10,%esp
    3ec3:	8b 45 f4             	mov    -0xc(%ebp),%eax
    3ec6:	8d 65 f8             	lea    -0x8(%ebp),%esp
    3ec9:	5b                   	pop    %ebx
    3eca:	5e                   	pop    %esi
    3ecb:	5d                   	pop    %ebp
    3ecc:	c3                   	ret    
    3ecd:	8d 76 00             	lea    0x0(%esi),%esi
    3ed0:	b8 f2 ff ff ff       	mov    $0xfffffff2,%eax
    3ed5:	eb ef                	jmp    3ec6 <audio_pcm_start_capture+0x66>
    3ed7:	53                   	push   %ebx
    3ed8:	68 07 02 00 00       	push   $0x207
    3edd:	68 d8 b2 00 00       	push   $0xb2d8
    3ee2:	68 40 b4 00 00       	push   $0xb440
    3ee7:	e8 54 8e 00 00       	call   cd40 <assert_abort@plt>
    3eec:	8d 74 26 00          	lea    0x0(%esi,%eiz,1),%esi

00003ef0 <audio_pcm_last_capture_fragment>:
    3ef0:	55                   	push   %ebp
    3ef1:	89 e5                	mov    %esp,%ebp
    3ef3:	53                   	push   %ebx
    3ef4:	83 ec 20             	sub    $0x20,%esp
    3ef7:	8b 45 08             	mov    0x8(%ebp),%eax
    3efa:	50                   	push   %eax
    3efb:	e8 10 90 00 00       	call   cf10 <async_exchange_begin@plt>
    3f00:	83 c4 0c             	add    $0xc,%esp
    3f03:	89 c3                	mov    %eax,%ebx
    3f05:	6a 00                	push   $0x0
    3f07:	6a 00                	push   $0x0
    3f09:	6a 00                	push   $0x0
    3f0b:	6a 00                	push   $0x0
    3f0d:	6a 00                	push   $0x0
    3f0f:	6a 00                	push   $0x0
    3f11:	6a 00                	push   $0x0
    3f13:	6a 00                	push   $0x0
    3f15:	6a 0b                	push   $0xb
    3f17:	68 04 04 00 00       	push   $0x404
    3f1c:	50                   	push   %eax
    3f1d:	e8 ae 8d 00 00       	call   ccd0 <async_req_fast@plt>
    3f22:	83 c4 24             	add    $0x24,%esp
    3f25:	89 45 f4             	mov    %eax,-0xc(%ebp)
    3f28:	53                   	push   %ebx
    3f29:	e8 02 8e 00 00       	call   cd30 <async_exchange_end@plt>
    3f2e:	8b 45 f4             	mov    -0xc(%ebp),%eax
    3f31:	8b 5d fc             	mov    -0x4(%ebp),%ebx
    3f34:	c9                   	leave  
    3f35:	c3                   	ret    
    3f36:	8d 76 00             	lea    0x0(%esi),%esi
    3f39:	8d bc 27 00 00 00 00 	lea    0x0(%edi,%eiz,1),%edi

00003f40 <audio_pcm_stop_capture_immediate>:
    3f40:	55                   	push   %ebp
    3f41:	89 e5                	mov    %esp,%ebp
    3f43:	53                   	push   %ebx
    3f44:	83 ec 20             	sub    $0x20,%esp
    3f47:	8b 45 08             	mov    0x8(%ebp),%eax
    3f4a:	50                   	push   %eax
    3f4b:	e8 c0 8f 00 00       	call   cf10 <async_exchange_begin@plt>
    3f50:	83 c4 0c             	add    $0xc,%esp
    3f53:	89 c3                	mov    %eax,%ebx
    3f55:	6a 00                	push   $0x0
    3f57:	6a 00                	push   $0x0
    3f59:	6a 00                	push   $0x0
    3f5b:	6a 00                	push   $0x0
    3f5d:	6a 00                	push   $0x0
    3f5f:	6a 00                	push   $0x0
    3f61:	6a 00                	push   $0x0
    3f63:	6a 01                	push   $0x1
    3f65:	6a 0b                	push   $0xb
    3f67:	68 04 04 00 00       	push   $0x404
    3f6c:	50                   	push   %eax
    3f6d:	e8 5e 8d 00 00       	call   ccd0 <async_req_fast@plt>
    3f72:	83 c4 24             	add    $0x24,%esp
    3f75:	89 45 f4             	mov    %eax,-0xc(%ebp)
    3f78:	53                   	push   %ebx
    3f79:	e8 b2 8d 00 00       	call   cd30 <async_exchange_end@plt>
    3f7e:	8b 45 f4             	mov    -0xc(%ebp),%eax
    3f81:	8b 5d fc             	mov    -0x4(%ebp),%ebx
    3f84:	c9                   	leave  
    3f85:	c3                   	ret    
    3f86:	8d 76 00             	lea    0x0(%esi),%esi
    3f89:	8d bc 27 00 00 00 00 	lea    0x0(%edi,%eiz,1),%edi

00003f90 <audio_pcm_stop_capture>:
    3f90:	55                   	push   %ebp
    3f91:	89 e5                	mov    %esp,%ebp
    3f93:	53                   	push   %ebx
    3f94:	83 ec 20             	sub    $0x20,%esp
    3f97:	8b 45 08             	mov    0x8(%ebp),%eax
    3f9a:	50                   	push   %eax
    3f9b:	e8 70 8f 00 00       	call   cf10 <async_exchange_begin@plt>
    3fa0:	83 c4 0c             	add    $0xc,%esp
    3fa3:	89 c3                	mov    %eax,%ebx
    3fa5:	6a 00                	push   $0x0
    3fa7:	6a 00                	push   $0x0
    3fa9:	6a 00                	push   $0x0
    3fab:	6a 00                	push   $0x0
    3fad:	6a 00                	push   $0x0
    3faf:	6a 00                	push   $0x0
    3fb1:	6a 00                	push   $0x0
    3fb3:	6a 00                	push   $0x0
    3fb5:	6a 0b                	push   $0xb
    3fb7:	68 04 04 00 00       	push   $0x404
    3fbc:	50                   	push   %eax
    3fbd:	e8 0e 8d 00 00       	call   ccd0 <async_req_fast@plt>
    3fc2:	83 c4 24             	add    $0x24,%esp
    3fc5:	89 45 f4             	mov    %eax,-0xc(%ebp)
    3fc8:	53                   	push   %ebx
    3fc9:	e8 62 8d 00 00       	call   cd30 <async_exchange_end@plt>
    3fce:	8b 45 f4             	mov    -0xc(%ebp),%eax
    3fd1:	8b 5d fc             	mov    -0x4(%ebp),%ebx
    3fd4:	c9                   	leave  
    3fd5:	c3                   	ret    
    3fd6:	66 90                	xchg   %ax,%ax
    3fd8:	66 90                	xchg   %ax,%ax
    3fda:	66 90                	xchg   %ax,%ax
    3fdc:	66 90                	xchg   %ax,%ax
    3fde:	66 90                	xchg   %ax,%ax

00003fe0 <remote_hw_res_dma_channel_setup>:
    3fe0:	55                   	push   %ebp
    3fe1:	89 e5                	mov    %esp,%ebp
    3fe3:	57                   	push   %edi
    3fe4:	56                   	push   %esi
    3fe5:	53                   	push   %ebx
    3fe6:	83 ec 0c             	sub    $0xc,%esp
    3fe9:	8b 45 0c             	mov    0xc(%ebp),%eax
    3fec:	8b 75 08             	mov    0x8(%ebp),%esi
    3fef:	8b 5d 10             	mov    0x10(%ebp),%ebx
    3ff2:	8b 55 14             	mov    0x14(%ebp),%edx
    3ff5:	8b 48 08             	mov    0x8(%eax),%ecx
    3ff8:	85 c9                	test   %ecx,%ecx
    3ffa:	74 3c                	je     4038 <remote_hw_res_dma_channel_setup+0x58>
    3ffc:	8b 42 08             	mov    0x8(%edx),%eax
    3fff:	83 ec 0c             	sub    $0xc,%esp
    4002:	89 c7                	mov    %eax,%edi
    4004:	25 ff ff 00 00       	and    $0xffff,%eax
    4009:	c1 ef 10             	shr    $0x10,%edi
    400c:	81 e7 ff 00 00 00    	and    $0xff,%edi
    4012:	57                   	push   %edi
    4013:	8b 7a 10             	mov    0x10(%edx),%edi
    4016:	57                   	push   %edi
    4017:	8b 52 0c             	mov    0xc(%edx),%edx
    401a:	52                   	push   %edx
    401b:	50                   	push   %eax
    401c:	56                   	push   %esi
    401d:	ff d1                	call   *%ecx
    401f:	89 5d 08             	mov    %ebx,0x8(%ebp)
    4022:	89 45 0c             	mov    %eax,0xc(%ebp)
    4025:	83 c4 20             	add    $0x20,%esp
    4028:	8d 65 f4             	lea    -0xc(%ebp),%esp
    402b:	5b                   	pop    %ebx
    402c:	5e                   	pop    %esi
    402d:	5f                   	pop    %edi
    402e:	5d                   	pop    %ebp
    402f:	e9 ac 8c 00 00       	jmp    cce0 <async_answer_0@plt>
    4034:	8d 74 26 00          	lea    0x0(%esi,%eiz,1),%esi
    4038:	89 5d 08             	mov    %ebx,0x8(%ebp)
    403b:	c7 45 0c f5 ff ff ff 	movl   $0xfffffff5,0xc(%ebp)
    4042:	8d 65 f4             	lea    -0xc(%ebp),%esp
    4045:	5b                   	pop    %ebx
    4046:	5e                   	pop    %esi
    4047:	5f                   	pop    %edi
    4048:	5d                   	pop    %ebp
    4049:	e9 92 8c 00 00       	jmp    cce0 <async_answer_0@plt>
    404e:	66 90                	xchg   %ax,%ax

00004050 <remote_hw_res_enable_interrupt>:
    4050:	55                   	push   %ebp
    4051:	89 e5                	mov    %esp,%ebp
    4053:	53                   	push   %ebx
    4054:	50                   	push   %eax
    4055:	8b 45 0c             	mov    0xc(%ebp),%eax
    4058:	8b 55 08             	mov    0x8(%ebp),%edx
    405b:	8b 5d 10             	mov    0x10(%ebp),%ebx
    405e:	8b 40 04             	mov    0x4(%eax),%eax
    4061:	85 c0                	test   %eax,%eax
    4063:	74 3b                	je     40a0 <remote_hw_res_enable_interrupt+0x50>
    4065:	83 ec 0c             	sub    $0xc,%esp
    4068:	52                   	push   %edx
    4069:	ff d0                	call   *%eax
    406b:	83 c4 10             	add    $0x10,%esp
    406e:	84 c0                	test   %al,%al
    4070:	75 16                	jne    4088 <remote_hw_res_enable_interrupt+0x38>
    4072:	89 5d 08             	mov    %ebx,0x8(%ebp)
    4075:	8b 5d fc             	mov    -0x4(%ebp),%ebx
    4078:	c7 45 0c fc ff ff ff 	movl   $0xfffffffc,0xc(%ebp)
    407f:	c9                   	leave  
    4080:	e9 5b 8c 00 00       	jmp    cce0 <async_answer_0@plt>
    4085:	8d 76 00             	lea    0x0(%esi),%esi
    4088:	89 5d 08             	mov    %ebx,0x8(%ebp)
    408b:	8b 5d fc             	mov    -0x4(%ebp),%ebx
    408e:	c7 45 0c 00 00 00 00 	movl   $0x0,0xc(%ebp)
    4095:	c9                   	leave  
    4096:	e9 45 8c 00 00       	jmp    cce0 <async_answer_0@plt>
    409b:	90                   	nop
    409c:	8d 74 26 00          	lea    0x0(%esi,%eiz,1),%esi
    40a0:	89 5d 08             	mov    %ebx,0x8(%ebp)
    40a3:	8b 5d fc             	mov    -0x4(%ebp),%ebx
    40a6:	c7 45 0c f5 ff ff ff 	movl   $0xfffffff5,0xc(%ebp)
    40ad:	c9                   	leave  
    40ae:	e9 2d 8c 00 00       	jmp    cce0 <async_answer_0@plt>
    40b3:	8d b6 00 00 00 00    	lea    0x0(%esi),%esi
    40b9:	8d bc 27 00 00 00 00 	lea    0x0(%edi,%eiz,1),%edi

000040c0 <remote_hw_res_dma_channel_remain>:
    40c0:	55                   	push   %ebp
    40c1:	89 e5                	mov    %esp,%ebp
    40c3:	83 ec 18             	sub    $0x18,%esp
    40c6:	8b 45 0c             	mov    0xc(%ebp),%eax
    40c9:	8b 50 08             	mov    0x8(%eax),%edx
    40cc:	85 d2                	test   %edx,%edx
    40ce:	74 30                	je     4100 <remote_hw_res_dma_channel_remain+0x40>
    40d0:	8b 55 14             	mov    0x14(%ebp),%edx
    40d3:	c7 45 f4 00 00 00 00 	movl   $0x0,-0xc(%ebp)
    40da:	8b 52 08             	mov    0x8(%edx),%edx
    40dd:	51                   	push   %ecx
    40de:	8d 4d f4             	lea    -0xc(%ebp),%ecx
    40e1:	51                   	push   %ecx
    40e2:	52                   	push   %edx
    40e3:	8b 55 08             	mov    0x8(%ebp),%edx
    40e6:	52                   	push   %edx
    40e7:	ff 50 0c             	call   *0xc(%eax)
    40ea:	83 c4 0c             	add    $0xc,%esp
    40ed:	8b 4d f4             	mov    -0xc(%ebp),%ecx
    40f0:	51                   	push   %ecx
    40f1:	50                   	push   %eax
    40f2:	8b 45 10             	mov    0x10(%ebp),%eax
    40f5:	50                   	push   %eax
    40f6:	e8 05 8e 00 00       	call   cf00 <async_answer_1@plt>
    40fb:	83 c4 10             	add    $0x10,%esp
    40fe:	c9                   	leave  
    40ff:	c3                   	ret    
    4100:	50                   	push   %eax
    4101:	50                   	push   %eax
    4102:	8b 45 10             	mov    0x10(%ebp),%eax
    4105:	6a f5                	push   $0xfffffff5
    4107:	50                   	push   %eax
    4108:	e8 d3 8b 00 00       	call   cce0 <async_answer_0@plt>
    410d:	83 c4 10             	add    $0x10,%esp
    4110:	c9                   	leave  
    4111:	c3                   	ret    
    4112:	8d b4 26 00 00 00 00 	lea    0x0(%esi,%eiz,1),%esi
    4119:	8d bc 27 00 00 00 00 	lea    0x0(%edi,%eiz,1),%edi

00004120 <remote_hw_res_get_resource_list>:
    4120:	55                   	push   %ebp
    4121:	89 e5                	mov    %esp,%ebp
    4123:	53                   	push   %ebx
    4124:	83 ec 14             	sub    $0x14,%esp
    4127:	8b 45 0c             	mov    0xc(%ebp),%eax
    412a:	8b 00                	mov    (%eax),%eax
    412c:	85 c0                	test   %eax,%eax
    412e:	74 40                	je     4170 <remote_hw_res_get_resource_list+0x50>
    4130:	83 ec 0c             	sub    $0xc,%esp
    4133:	8b 55 08             	mov    0x8(%ebp),%edx
    4136:	52                   	push   %edx
    4137:	ff d0                	call   *%eax
    4139:	83 c4 10             	add    $0x10,%esp
    413c:	89 c3                	mov    %eax,%ebx
    413e:	85 c0                	test   %eax,%eax
    4140:	74 66                	je     41a8 <remote_hw_res_get_resource_list+0x88>
    4142:	50                   	push   %eax
    4143:	8b 03                	mov    (%ebx),%eax
    4145:	50                   	push   %eax
    4146:	8b 45 10             	mov    0x10(%ebp),%eax
    4149:	6a 00                	push   $0x0
    414b:	50                   	push   %eax
    414c:	e8 af 8d 00 00       	call   cf00 <async_answer_1@plt>
    4151:	58                   	pop    %eax
    4152:	8d 45 f4             	lea    -0xc(%ebp),%eax
    4155:	5a                   	pop    %edx
    4156:	50                   	push   %eax
    4157:	8d 45 10             	lea    0x10(%ebp),%eax
    415a:	50                   	push   %eax
    415b:	e8 20 8d 00 00       	call   ce80 <async_data_read_receive@plt>
    4160:	83 c4 10             	add    $0x10,%esp
    4163:	84 c0                	test   %al,%al
    4165:	75 21                	jne    4188 <remote_hw_res_get_resource_list+0x68>
    4167:	8b 5d fc             	mov    -0x4(%ebp),%ebx
    416a:	c9                   	leave  
    416b:	c3                   	ret    
    416c:	8d 74 26 00          	lea    0x0(%esi,%eiz,1),%esi
    4170:	8b 5d 10             	mov    0x10(%ebp),%ebx
    4173:	51                   	push   %ecx
    4174:	51                   	push   %ecx
    4175:	6a f5                	push   $0xfffffff5
    4177:	53                   	push   %ebx
    4178:	e8 63 8b 00 00       	call   cce0 <async_answer_0@plt>
    417d:	83 c4 10             	add    $0x10,%esp
    4180:	8b 5d fc             	mov    -0x4(%ebp),%ebx
    4183:	c9                   	leave  
    4184:	c3                   	ret    
    4185:	8d 76 00             	lea    0x0(%esi),%esi
    4188:	50                   	push   %eax
    4189:	8b 55 f4             	mov    -0xc(%ebp),%edx
    418c:	8b 4b 04             	mov    0x4(%ebx),%ecx
    418f:	8b 5d 10             	mov    0x10(%ebp),%ebx
    4192:	52                   	push   %edx
    4193:	51                   	push   %ecx
    4194:	53                   	push   %ebx
    4195:	e8 d6 8a 00 00       	call   cc70 <async_data_read_finalize@plt>
    419a:	83 c4 10             	add    $0x10,%esp
    419d:	8b 5d fc             	mov    -0x4(%ebp),%ebx
    41a0:	c9                   	leave  
    41a1:	c3                   	ret    
    41a2:	8d b6 00 00 00 00    	lea    0x0(%esi),%esi
    41a8:	8b 5d 10             	mov    0x10(%ebp),%ebx
    41ab:	51                   	push   %ecx
    41ac:	51                   	push   %ecx
    41ad:	6a ff                	push   $0xffffffff
    41af:	53                   	push   %ebx
    41b0:	e8 2b 8b 00 00       	call   cce0 <async_answer_0@plt>
    41b5:	83 c4 10             	add    $0x10,%esp
    41b8:	8b 5d fc             	mov    -0x4(%ebp),%ebx
    41bb:	c9                   	leave  
    41bc:	c3                   	ret    
    41bd:	66 90                	xchg   %ax,%ax
    41bf:	90                   	nop

000041c0 <remote_pio_window_get>:
    41c0:	55                   	push   %ebp
    41c1:	89 e5                	mov    %esp,%ebp
    41c3:	53                   	push   %ebx
    41c4:	83 ec 14             	sub    $0x14,%esp
    41c7:	8b 45 0c             	mov    0xc(%ebp),%eax
    41ca:	8b 00                	mov    (%eax),%eax
    41cc:	85 c0                	test   %eax,%eax
    41ce:	74 40                	je     4210 <remote_pio_window_get+0x50>
    41d0:	83 ec 0c             	sub    $0xc,%esp
    41d3:	8b 55 08             	mov    0x8(%ebp),%edx
    41d6:	52                   	push   %edx
    41d7:	ff d0                	call   *%eax
    41d9:	83 c4 10             	add    $0x10,%esp
    41dc:	89 c3                	mov    %eax,%ebx
    41de:	85 c0                	test   %eax,%eax
    41e0:	74 5e                	je     4240 <remote_pio_window_get+0x80>
    41e2:	50                   	push   %eax
    41e3:	50                   	push   %eax
    41e4:	8b 45 10             	mov    0x10(%ebp),%eax
    41e7:	6a 00                	push   $0x0
    41e9:	50                   	push   %eax
    41ea:	e8 f1 8a 00 00       	call   cce0 <async_answer_0@plt>
    41ef:	58                   	pop    %eax
    41f0:	8d 45 f4             	lea    -0xc(%ebp),%eax
    41f3:	5a                   	pop    %edx
    41f4:	50                   	push   %eax
    41f5:	8d 45 10             	lea    0x10(%ebp),%eax
    41f8:	50                   	push   %eax
    41f9:	e8 82 8c 00 00       	call   ce80 <async_data_read_receive@plt>
    41fe:	83 c4 10             	add    $0x10,%esp
    4201:	84 c0                	test   %al,%al
    4203:	75 23                	jne    4228 <remote_pio_window_get+0x68>
    4205:	8b 5d fc             	mov    -0x4(%ebp),%ebx
    4208:	c9                   	leave  
    4209:	c3                   	ret    
    420a:	8d b6 00 00 00 00    	lea    0x0(%esi),%esi
    4210:	8b 5d 10             	mov    0x10(%ebp),%ebx
    4213:	51                   	push   %ecx
    4214:	51                   	push   %ecx
    4215:	6a f5                	push   $0xfffffff5
    4217:	53                   	push   %ebx
    4218:	e8 c3 8a 00 00       	call   cce0 <async_answer_0@plt>
    421d:	83 c4 10             	add    $0x10,%esp
    4220:	8b 5d fc             	mov    -0x4(%ebp),%ebx
    4223:	c9                   	leave  
    4224:	c3                   	ret    
    4225:	8d 76 00             	lea    0x0(%esi),%esi
    4228:	8b 55 f4             	mov    -0xc(%ebp),%edx
    422b:	8b 4d 10             	mov    0x10(%ebp),%ecx
    422e:	50                   	push   %eax
    422f:	52                   	push   %edx
    4230:	53                   	push   %ebx
    4231:	51                   	push   %ecx
    4232:	e8 39 8a 00 00       	call   cc70 <async_data_read_finalize@plt>
    4237:	83 c4 10             	add    $0x10,%esp
    423a:	8b 5d fc             	mov    -0x4(%ebp),%ebx
    423d:	c9                   	leave  
    423e:	c3                   	ret    
    423f:	90                   	nop
    4240:	8b 5d 10             	mov    0x10(%ebp),%ebx
    4243:	51                   	push   %ecx
    4244:	51                   	push   %ecx
    4245:	6a ff                	push   $0xffffffff
    4247:	53                   	push   %ebx
    4248:	e8 93 8a 00 00       	call   cce0 <async_answer_0@plt>
    424d:	83 c4 10             	add    $0x10,%esp
    4250:	8b 5d fc             	mov    -0x4(%ebp),%ebx
    4253:	c9                   	leave  
    4254:	c3                   	ret    
    4255:	66 90                	xchg   %ax,%ax
    4257:	66 90                	xchg   %ax,%ax
    4259:	66 90                	xchg   %ax,%ax
    425b:	66 90                	xchg   %ax,%ax
    425d:	66 90                	xchg   %ax,%ax
    425f:	90                   	nop

00004260 <remote_char_write>:
    4260:	55                   	push   %ebp
    4261:	89 e5                	mov    %esp,%ebp
    4263:	56                   	push   %esi
    4264:	53                   	push   %ebx
    4265:	81 ec 18 01 00 00    	sub    $0x118,%esp
    426b:	8d 85 f4 fe ff ff    	lea    -0x10c(%ebp),%eax
    4271:	8b 5d 0c             	mov    0xc(%ebp),%ebx
    4274:	50                   	push   %eax
    4275:	8d 85 f0 fe ff ff    	lea    -0x110(%ebp),%eax
    427b:	50                   	push   %eax
    427c:	e8 9f 8d 00 00       	call   d020 <async_data_write_receive@plt>
    4281:	83 c4 10             	add    $0x10,%esp
    4284:	84 c0                	test   %al,%al
    4286:	74 70                	je     42f8 <remote_char_write+0x98>
    4288:	8b 73 04             	mov    0x4(%ebx),%esi
    428b:	85 f6                	test   %esi,%esi
    428d:	0f 84 95 00 00 00    	je     4328 <remote_char_write+0xc8>
    4293:	8b 85 f4 fe ff ff    	mov    -0x10c(%ebp),%eax
    4299:	3d 00 01 00 00       	cmp    $0x100,%eax
    429e:	76 0f                	jbe    42af <remote_char_write+0x4f>
    42a0:	c7 85 f4 fe ff ff 00 	movl   $0x100,-0x10c(%ebp)
    42a7:	01 00 00 
    42aa:	b8 00 01 00 00       	mov    $0x100,%eax
    42af:	8b 8d f0 fe ff ff    	mov    -0x110(%ebp),%ecx
    42b5:	8d b5 f8 fe ff ff    	lea    -0x108(%ebp),%esi
    42bb:	52                   	push   %edx
    42bc:	50                   	push   %eax
    42bd:	56                   	push   %esi
    42be:	51                   	push   %ecx
    42bf:	e8 bc 8c 00 00       	call   cf80 <async_data_write_finalize@plt>
    42c4:	83 c4 0c             	add    $0xc,%esp
    42c7:	8b 85 f4 fe ff ff    	mov    -0x10c(%ebp),%eax
    42cd:	50                   	push   %eax
    42ce:	8b 45 08             	mov    0x8(%ebp),%eax
    42d1:	56                   	push   %esi
    42d2:	50                   	push   %eax
    42d3:	ff 53 04             	call   *0x4(%ebx)
    42d6:	83 c4 10             	add    $0x10,%esp
    42d9:	85 c0                	test   %eax,%eax
    42db:	78 33                	js     4310 <remote_char_write+0xb0>
    42dd:	8b 4d 10             	mov    0x10(%ebp),%ecx
    42e0:	52                   	push   %edx
    42e1:	50                   	push   %eax
    42e2:	6a 00                	push   $0x0
    42e4:	51                   	push   %ecx
    42e5:	e8 16 8c 00 00       	call   cf00 <async_answer_1@plt>
    42ea:	83 c4 10             	add    $0x10,%esp
    42ed:	8d 65 f8             	lea    -0x8(%ebp),%esp
    42f0:	5b                   	pop    %ebx
    42f1:	5e                   	pop    %esi
    42f2:	5d                   	pop    %ebp
    42f3:	c3                   	ret    
    42f4:	8d 74 26 00          	lea    0x0(%esi,%eiz,1),%esi
    42f8:	50                   	push   %eax
    42f9:	50                   	push   %eax
    42fa:	8b 45 10             	mov    0x10(%ebp),%eax
    42fd:	6a f2                	push   $0xfffffff2
    42ff:	50                   	push   %eax
