
nic:     file format elf32-i386


Disassembly of section .init:

000010f4 <__entry>:
    10f4:	66 8c d0             	mov    %ss,%ax
    10f7:	8e d8                	mov    %eax,%ds
    10f9:	8e c0                	mov    %eax,%es
    10fb:	8e e0                	mov    %eax,%fs
    10fd:	b8 01 00 00 00       	mov    $0x1,%eax
    1102:	0f a2                	cpuid  
    1104:	0f ba e2 0b          	bt     $0xb,%edx
    1108:	73 0c                	jae    1116 <__entry+0x22>
    110a:	8d 05 98 76 00 00    	lea    0x7698,%eax
    1110:	c7 00 00 5f 00 00    	movl   $0x5f00,(%eax)
    1116:	6a 00                	push   $0x0
    1118:	6a 00                	push   $0x0
    111a:	89 e5                	mov    %esp,%ebp
    111c:	57                   	push   %edi
    111d:	e8 de 4b 00 00       	call   5d00 <__main@plt>

Disassembly of section .text:

00001140 <print_syntax>:
    1140:	55                   	push   %ebp
    1141:	89 e5                	mov    %esp,%ebp
    1143:	83 ec 14             	sub    $0x14,%esp
    1146:	68 56 53 00 00       	push   $0x5356
    114b:	e8 e0 4b 00 00       	call   5d30 <printf@plt>
    1150:	c7 04 24 e4 55 00 00 	movl   $0x55e4,(%esp)
    1157:	e8 d4 4b 00 00       	call   5d30 <printf@plt>
    115c:	c7 04 24 08 56 00 00 	movl   $0x5608,(%esp)
    1163:	e8 c8 4b 00 00       	call   5d30 <printf@plt>
    1168:	c7 04 24 5f 53 00 00 	movl   $0x535f,(%esp)
    116f:	e8 bc 4b 00 00       	call   5d30 <printf@plt>
    1174:	c7 04 24 3c 56 00 00 	movl   $0x563c,(%esp)
    117b:	e8 b0 4b 00 00       	call   5d30 <printf@plt>
    1180:	c7 04 24 64 56 00 00 	movl   $0x5664,(%esp)
    1187:	e8 a4 4b 00 00       	call   5d30 <printf@plt>
    118c:	c7 04 24 8c 56 00 00 	movl   $0x568c,(%esp)
    1193:	e8 98 4b 00 00       	call   5d30 <printf@plt>
    1198:	c7 04 24 bc 56 00 00 	movl   $0x56bc,(%esp)
    119f:	e8 8c 4b 00 00       	call   5d30 <printf@plt>
    11a4:	c7 04 24 dc 56 00 00 	movl   $0x56dc,(%esp)
    11ab:	e8 80 4b 00 00       	call   5d30 <printf@plt>
    11b0:	c7 04 24 24 57 00 00 	movl   $0x5724,(%esp)
    11b7:	e8 74 4b 00 00       	call   5d30 <printf@plt>
    11bc:	c7 04 24 68 57 00 00 	movl   $0x5768,(%esp)
    11c3:	e8 68 4b 00 00       	call   5d30 <printf@plt>
    11c8:	83 c4 10             	add    $0x10,%esp
    11cb:	c9                   	leave  
    11cc:	c3                   	ret    
    11cd:	8d 76 00             	lea    0x0(%esi),%esi

000011d0 <get_nic_by_index>:
    11d0:	55                   	push   %ebp
    11d1:	89 e5                	mov    %esp,%ebp
    11d3:	53                   	push   %ebx
    11d4:	83 ec 18             	sub    $0x18,%esp
    11d7:	89 c3                	mov    %eax,%ebx
    11d9:	8d 45 f0             	lea    -0x10(%ebp),%eax
    11dc:	c7 45 f4 00 00 00 00 	movl   $0x0,-0xc(%ebp)
    11e3:	6a 00                	push   $0x0
    11e5:	50                   	push   %eax
    11e6:	68 6b 53 00 00       	push   $0x536b
    11eb:	e8 20 4b 00 00       	call   5d10 <loc_category_get_id@plt>
    11f0:	83 c4 10             	add    $0x10,%esp
    11f3:	85 c0                	test   %eax,%eax
    11f5:	75 6b                	jne    1262 <get_nic_by_index+0x92>
    11f7:	50                   	push   %eax
    11f8:	8d 45 e8             	lea    -0x18(%ebp),%eax
    11fb:	50                   	push   %eax
    11fc:	8d 45 f4             	lea    -0xc(%ebp),%eax
    11ff:	50                   	push   %eax
    1200:	8b 45 f0             	mov    -0x10(%ebp),%eax
    1203:	50                   	push   %eax
    1204:	e8 77 4c 00 00       	call   5e80 <loc_category_get_svcs@plt>
    1209:	83 c4 10             	add    $0x10,%esp
    120c:	85 c0                	test   %eax,%eax
    120e:	75 66                	jne    1276 <get_nic_by_index+0xa6>
    1210:	c1 e3 02             	shl    $0x2,%ebx
    1213:	50                   	push   %eax
    1214:	50                   	push   %eax
    1215:	8d 45 ec             	lea    -0x14(%ebp),%eax
    1218:	50                   	push   %eax
    1219:	8b 45 f4             	mov    -0xc(%ebp),%eax
    121c:	8b 04 18             	mov    (%eax,%ebx,1),%eax
    121f:	50                   	push   %eax
    1220:	e8 ab 4b 00 00       	call   5dd0 <loc_service_get_name@plt>
    1225:	83 c4 10             	add    $0x10,%esp
    1228:	85 c0                	test   %eax,%eax
    122a:	75 5e                	jne    128a <get_nic_by_index+0xba>
    122c:	8b 55 ec             	mov    -0x14(%ebp),%edx
    122f:	50                   	push   %eax
    1230:	50                   	push   %eax
    1231:	52                   	push   %edx
    1232:	68 a9 53 00 00       	push   $0x53a9
    1237:	e8 f4 4a 00 00       	call   5d30 <printf@plt>
    123c:	83 c4 0c             	add    $0xc,%esp
    123f:	8b 45 f4             	mov    -0xc(%ebp),%eax
    1242:	6a 00                	push   $0x0
    1244:	68 41 26 9b 41       	push   $0x419b2641
    1249:	8b 0c 18             	mov    (%eax,%ebx,1),%ecx
    124c:	51                   	push   %ecx
    124d:	e8 ce 4a 00 00       	call   5d20 <loc_service_connect@plt>
    1252:	83 c4 10             	add    $0x10,%esp
    1255:	89 c3                	mov    %eax,%ebx
    1257:	85 c0                	test   %eax,%eax
    1259:	74 43                	je     129e <get_nic_by_index+0xce>
    125b:	89 d8                	mov    %ebx,%eax
    125d:	8b 5d fc             	mov    -0x4(%ebp),%ebx
    1260:	c9                   	leave  
    1261:	c3                   	ret    
    1262:	83 ec 0c             	sub    $0xc,%esp
    1265:	31 db                	xor    %ebx,%ebx
    1267:	68 b0 57 00 00       	push   $0x57b0
    126c:	e8 bf 4a 00 00       	call   5d30 <printf@plt>
    1271:	83 c4 10             	add    $0x10,%esp
    1274:	eb e5                	jmp    125b <get_nic_by_index+0x8b>
    1276:	83 ec 0c             	sub    $0xc,%esp
    1279:	31 db                	xor    %ebx,%ebx
    127b:	68 6f 53 00 00       	push   $0x536f
    1280:	e8 ab 4a 00 00       	call   5d30 <printf@plt>
    1285:	83 c4 10             	add    $0x10,%esp
    1288:	eb d1                	jmp    125b <get_nic_by_index+0x8b>
    128a:	83 ec 0c             	sub    $0xc,%esp
    128d:	31 db                	xor    %ebx,%ebx
    128f:	68 8c 53 00 00       	push   $0x538c
    1294:	e8 97 4a 00 00       	call   5d30 <printf@plt>
    1299:	83 c4 10             	add    $0x10,%esp
    129c:	eb bd                	jmp    125b <get_nic_by_index+0x8b>
    129e:	83 ec 0c             	sub    $0xc,%esp
    12a1:	68 bb 53 00 00       	push   $0x53bb
    12a6:	e8 85 4a 00 00       	call   5d30 <printf@plt>
    12ab:	83 c4 10             	add    $0x10,%esp
    12ae:	eb ab                	jmp    125b <get_nic_by_index+0x8b>

000012b0 <nic_list>:
    12b0:	55                   	push   %ebp
    12b1:	89 e5                	mov    %esp,%ebp
    12b3:	57                   	push   %edi
    12b4:	56                   	push   %esi
    12b5:	53                   	push   %ebx
    12b6:	81 ec 70 01 00 00    	sub    $0x170,%esp
    12bc:	8d 85 98 fe ff ff    	lea    -0x168(%ebp),%eax
    12c2:	c7 85 9c fe ff ff 00 	movl   $0x0,-0x164(%ebp)
    12c9:	00 00 00 
    12cc:	6a 00                	push   $0x0
    12ce:	50                   	push   %eax
    12cf:	68 6b 53 00 00       	push   $0x536b
    12d4:	e8 37 4a 00 00       	call   5d10 <loc_category_get_id@plt>
    12d9:	83 c4 10             	add    $0x10,%esp
    12dc:	85 c0                	test   %eax,%eax
    12de:	74 2e                	je     130e <nic_list+0x5e>
    12e0:	83 ec 0c             	sub    $0xc,%esp
    12e3:	89 c3                	mov    %eax,%ebx
    12e5:	68 b0 57 00 00       	push   $0x57b0
    12ea:	e8 41 4a 00 00       	call   5d30 <printf@plt>
    12ef:	83 c4 10             	add    $0x10,%esp
    12f2:	83 ec 0c             	sub    $0xc,%esp
    12f5:	8b 85 9c fe ff ff    	mov    -0x164(%ebp),%eax
    12fb:	50                   	push   %eax
    12fc:	e8 1f 4c 00 00       	call   5f20 <free@plt>
    1301:	83 c4 10             	add    $0x10,%esp
    1304:	8d 65 f4             	lea    -0xc(%ebp),%esp
    1307:	89 d8                	mov    %ebx,%eax
    1309:	5b                   	pop    %ebx
    130a:	5e                   	pop    %esi
    130b:	5f                   	pop    %edi
    130c:	5d                   	pop    %ebp
    130d:	c3                   	ret    
    130e:	50                   	push   %eax
    130f:	8d 85 a0 fe ff ff    	lea    -0x160(%ebp),%eax
    1315:	50                   	push   %eax
    1316:	8d 85 9c fe ff ff    	lea    -0x164(%ebp),%eax
    131c:	50                   	push   %eax
    131d:	ff b5 98 fe ff ff    	pushl  -0x168(%ebp)
    1323:	e8 58 4b 00 00       	call   5e80 <loc_category_get_svcs@plt>
    1328:	83 c4 10             	add    $0x10,%esp
    132b:	89 c3                	mov    %eax,%ebx
    132d:	85 c0                	test   %eax,%eax
    132f:	0f 85 f4 01 00 00    	jne    1529 <nic_list+0x279>
    1335:	83 ec 0c             	sub    $0xc,%esp
    1338:	31 ff                	xor    %edi,%edi
    133a:	68 2f 54 00 00       	push   $0x542f
    133f:	e8 ec 49 00 00       	call   5d30 <printf@plt>
    1344:	83 c4 10             	add    $0x10,%esp
    1347:	89 9d 94 fe ff ff    	mov    %ebx,-0x16c(%ebp)
    134d:	3b bd a0 fe ff ff    	cmp    -0x160(%ebp),%edi
    1353:	0f 83 f0 03 00 00    	jae    1749 <nic_list+0x499>
    1359:	50                   	push   %eax
    135a:	50                   	push   %eax
    135b:	8d 85 a4 fe ff ff    	lea    -0x15c(%ebp),%eax
    1361:	50                   	push   %eax
    1362:	8b 85 9c fe ff ff    	mov    -0x164(%ebp),%eax
    1368:	ff 34 b8             	pushl  (%eax,%edi,4)
    136b:	e8 60 4a 00 00       	call   5dd0 <loc_service_get_name@plt>
    1370:	83 c4 10             	add    $0x10,%esp
    1373:	85 c0                	test   %eax,%eax
    1375:	0f 85 d9 03 00 00    	jne    1754 <nic_list+0x4a4>
    137b:	50                   	push   %eax
    137c:	8b 85 9c fe ff ff    	mov    -0x164(%ebp),%eax
    1382:	6a 00                	push   $0x0
    1384:	68 41 26 9b 41       	push   $0x419b2641
    1389:	ff 34 b8             	pushl  (%eax,%edi,4)
    138c:	e8 8f 49 00 00       	call   5d20 <loc_service_connect@plt>
    1391:	83 c4 10             	add    $0x10,%esp
    1394:	89 c3                	mov    %eax,%ebx
    1396:	85 c0                	test   %eax,%eax
    1398:	0f 84 28 04 00 00    	je     17c6 <nic_list+0x516>
    139e:	50                   	push   %eax
    139f:	50                   	push   %eax
    13a0:	8d 45 c8             	lea    -0x38(%ebp),%eax
    13a3:	50                   	push   %eax
    13a4:	53                   	push   %ebx
    13a5:	e8 d6 2a 00 00       	call   3e80 <nic_get_address>
    13aa:	83 c4 10             	add    $0x10,%esp
    13ad:	85 c0                	test   %eax,%eax
    13af:	0f 85 20 03 00 00    	jne    16d5 <nic_list+0x425>
    13b5:	50                   	push   %eax
    13b6:	50                   	push   %eax
    13b7:	8d 85 ac fe ff ff    	lea    -0x154(%ebp),%eax
    13bd:	50                   	push   %eax
    13be:	53                   	push   %ebx
    13bf:	e8 7c 2c 00 00       	call   4040 <nic_get_device_info>
    13c4:	83 c4 10             	add    $0x10,%esp
    13c7:	85 c0                	test   %eax,%eax
    13c9:	0f 85 20 03 00 00    	jne    16ef <nic_list+0x43f>
    13cf:	8d 45 d0             	lea    -0x30(%ebp),%eax
    13d2:	56                   	push   %esi
    13d3:	56                   	push   %esi
    13d4:	50                   	push   %eax
    13d5:	53                   	push   %ebx
    13d6:	e8 f5 2c 00 00       	call   40d0 <nic_get_cable_state>
    13db:	83 c4 10             	add    $0x10,%esp
    13de:	85 c0                	test   %eax,%eax
    13e0:	0f 85 1b 03 00 00    	jne    1701 <nic_list+0x451>
    13e6:	8d 45 d4             	lea    -0x2c(%ebp),%eax
    13e9:	8d b5 a8 fe ff ff    	lea    -0x158(%ebp),%esi
    13ef:	56                   	push   %esi
    13f0:	50                   	push   %eax
    13f1:	8d 45 e4             	lea    -0x1c(%ebp),%eax
    13f4:	50                   	push   %eax
    13f5:	53                   	push   %ebx
    13f6:	e8 45 2d 00 00       	call   4140 <nic_get_operation_mode>
    13fb:	83 c4 10             	add    $0x10,%esp
    13fe:	85 c0                	test   %eax,%eax
    1400:	0f 85 0d 03 00 00    	jne    1713 <nic_list+0x463>
    1406:	83 ec 0c             	sub    $0xc,%esp
    1409:	8d 45 d8             	lea    -0x28(%ebp),%eax
    140c:	6a 00                	push   $0x0
    140e:	6a 00                	push   $0x0
    1410:	6a 00                	push   $0x0
    1412:	50                   	push   %eax
    1413:	53                   	push   %ebx
    1414:	e8 57 30 00 00       	call   4470 <nic_unicast_get_mode>
    1419:	83 c4 20             	add    $0x20,%esp
    141c:	85 c0                	test   %eax,%eax
    141e:	0f 85 01 03 00 00    	jne    1725 <nic_list+0x475>
    1424:	83 ec 0c             	sub    $0xc,%esp
    1427:	8d 45 dc             	lea    -0x24(%ebp),%eax
    142a:	6a 00                	push   $0x0
    142c:	6a 00                	push   $0x0
    142e:	6a 00                	push   $0x0
    1430:	50                   	push   %eax
    1431:	53                   	push   %ebx
    1432:	e8 e9 31 00 00       	call   4620 <nic_multicast_get_mode>
    1437:	83 c4 20             	add    $0x20,%esp
    143a:	85 c0                	test   %eax,%eax
    143c:	0f 85 f5 02 00 00    	jne    1737 <nic_list+0x487>
    1442:	8d 45 e0             	lea    -0x20(%ebp),%eax
    1445:	51                   	push   %ecx
    1446:	51                   	push   %ecx
    1447:	50                   	push   %eax
    1448:	53                   	push   %ebx
    1449:	e8 82 33 00 00       	call   47d0 <nic_broadcast_get_mode>
    144e:	83 c4 10             	add    $0x10,%esp
    1451:	85 c0                	test   %eax,%eax
    1453:	0f 85 2e 03 00 00    	jne    1787 <nic_list+0x4d7>
    1459:	31 c0                	xor    %eax,%eax
    145b:	8a 45 cd             	mov    -0x33(%ebp),%al
    145e:	50                   	push   %eax
    145f:	31 c0                	xor    %eax,%eax
    1461:	8a 45 cc             	mov    -0x34(%ebp),%al
    1464:	50                   	push   %eax
    1465:	31 c0                	xor    %eax,%eax
    1467:	8a 45 cb             	mov    -0x35(%ebp),%al
    146a:	50                   	push   %eax
    146b:	31 c0                	xor    %eax,%eax
    146d:	8a 45 ca             	mov    -0x36(%ebp),%al
    1470:	50                   	push   %eax
    1471:	31 c0                	xor    %eax,%eax
    1473:	8a 45 c9             	mov    -0x37(%ebp),%al
    1476:	50                   	push   %eax
    1477:	31 c0                	xor    %eax,%eax
    1479:	8a 45 c8             	mov    -0x38(%ebp),%al
    147c:	50                   	push   %eax
    147d:	68 4c 55 00 00       	push   $0x554c
    1482:	56                   	push   %esi
    1483:	e8 e8 49 00 00       	call   5e70 <asprintf@plt>
    1488:	83 c4 20             	add    $0x20,%esp
    148b:	85 c0                	test   %eax,%eax
    148d:	0f 88 da 02 00 00    	js     176d <nic_list+0x4bd>
    1493:	8b 9d a8 fe ff ff    	mov    -0x158(%ebp),%ebx
    1499:	85 db                	test   %ebx,%ebx
    149b:	0f 84 cc 02 00 00    	je     176d <nic_list+0x4bd>
    14a1:	56                   	push   %esi
    14a2:	ff b5 a4 fe ff ff    	pushl  -0x15c(%ebp)
    14a8:	57                   	push   %edi
    14a9:	68 8f 54 00 00       	push   $0x548f
    14ae:	e8 7d 48 00 00       	call   5d30 <printf@plt>
    14b3:	58                   	pop    %eax
    14b4:	5a                   	pop    %edx
    14b5:	53                   	push   %ebx
    14b6:	68 98 54 00 00       	push   $0x5498
    14bb:	e8 70 48 00 00       	call   5d30 <printf@plt>
    14c0:	8d 85 ac fe ff ff    	lea    -0x154(%ebp),%eax
    14c6:	59                   	pop    %ecx
    14c7:	5e                   	pop    %esi
    14c8:	50                   	push   %eax
    14c9:	68 aa 54 00 00       	push   $0x54aa
    14ce:	e8 5d 48 00 00       	call   5d30 <printf@plt>
    14d3:	58                   	pop    %eax
    14d4:	8d 85 ec fe ff ff    	lea    -0x114(%ebp),%eax
    14da:	5a                   	pop    %edx
    14db:	50                   	push   %eax
    14dc:	68 bc 54 00 00       	push   $0x54bc
    14e1:	e8 4a 48 00 00       	call   5d30 <printf@plt>
    14e6:	8b 45 d0             	mov    -0x30(%ebp),%eax
    14e9:	83 c4 10             	add    $0x10,%esp
    14ec:	83 f8 01             	cmp    $0x1,%eax
    14ef:	0f 84 0c 01 00 00    	je     1601 <nic_list+0x351>
    14f5:	72 47                	jb     153e <nic_list+0x28e>
    14f7:	83 f8 02             	cmp    $0x2,%eax
    14fa:	0f 85 ec 00 00 00    	jne    15ec <nic_list+0x33c>
    1500:	b8 e4 53 00 00       	mov    $0x53e4,%eax
    1505:	52                   	push   %edx
    1506:	52                   	push   %edx
    1507:	50                   	push   %eax
    1508:	68 d3 54 00 00       	push   $0x54d3
    150d:	e8 1e 48 00 00       	call   5d30 <printf@plt>
    1512:	83 c4 10             	add    $0x10,%esp
    1515:	83 7d d8 04          	cmpl   $0x4,-0x28(%ebp)
    1519:	0f 87 47 01 00 00    	ja     1666 <nic_list+0x3b6>
    151f:	8b 45 d8             	mov    -0x28(%ebp),%eax
    1522:	ff 24 85 14 5a 00 00 	jmp    *0x5a14(,%eax,4)
    1529:	83 ec 0c             	sub    $0xc,%esp
    152c:	68 6f 53 00 00       	push   $0x536f
    1531:	e8 fa 47 00 00       	call   5d30 <printf@plt>
    1536:	83 c4 10             	add    $0x10,%esp
    1539:	e9 b4 fd ff ff       	jmp    12f2 <nic_list+0x42>
    153e:	b8 d9 53 00 00       	mov    $0x53d9,%eax
    1543:	eb c0                	jmp    1505 <nic_list+0x255>
    1545:	b8 f1 53 00 00       	mov    $0x53f1,%eax
    154a:	56                   	push   %esi
    154b:	56                   	push   %esi
    154c:	50                   	push   %eax
    154d:	68 e4 54 00 00       	push   $0x54e4
    1552:	e8 d9 47 00 00       	call   5d30 <printf@plt>
    1557:	8b 45 dc             	mov    -0x24(%ebp),%eax
    155a:	83 c4 10             	add    $0x10,%esp
    155d:	83 f8 01             	cmp    $0x1,%eax
    1560:	0f 84 f6 00 00 00    	je     165c <nic_list+0x3ac>
    1566:	0f 82 e6 00 00 00    	jb     1652 <nic_list+0x3a2>
    156c:	83 f8 02             	cmp    $0x2,%eax
    156f:	0f 84 d3 00 00 00    	je     1648 <nic_list+0x398>
    1575:	83 f8 03             	cmp    $0x3,%eax
    1578:	0f 85 8d 00 00 00    	jne    160b <nic_list+0x35b>
    157e:	b8 fe 53 00 00       	mov    $0x53fe,%eax
    1583:	52                   	push   %edx
    1584:	52                   	push   %edx
    1585:	50                   	push   %eax
    1586:	68 ff 54 00 00       	push   $0x54ff
    158b:	e8 a0 47 00 00       	call   5d30 <printf@plt>
    1590:	8b 45 e0             	mov    -0x20(%ebp),%eax
    1593:	83 c4 10             	add    $0x10,%esp
    1596:	83 f8 01             	cmp    $0x1,%eax
    1599:	0f 84 fb 00 00 00    	je     169a <nic_list+0x3ea>
    159f:	0f 82 eb 00 00 00    	jb     1690 <nic_list+0x3e0>
    15a5:	83 f8 02             	cmp    $0x2,%eax
    15a8:	0f 85 cd 00 00 00    	jne    167b <nic_list+0x3cb>
    15ae:	b8 06 54 00 00       	mov    $0x5406,%eax
    15b3:	56                   	push   %esi
    15b4:	56                   	push   %esi
    15b5:	50                   	push   %eax
    15b6:	68 1c 55 00 00       	push   $0x551c
    15bb:	e8 70 47 00 00       	call   5d30 <printf@plt>
    15c0:	83 c4 10             	add    $0x10,%esp
    15c3:	83 7d d0 01          	cmpl   $0x1,-0x30(%ebp)
    15c7:	0f 84 d7 00 00 00    	je     16a4 <nic_list+0x3f4>
    15cd:	83 ec 0c             	sub    $0xc,%esp
    15d0:	47                   	inc    %edi
    15d1:	ff b5 a4 fe ff ff    	pushl  -0x15c(%ebp)
    15d7:	e8 44 49 00 00       	call   5f20 <free@plt>
    15dc:	89 1c 24             	mov    %ebx,(%esp)
    15df:	e8 3c 49 00 00       	call   5f20 <free@plt>
    15e4:	83 c4 10             	add    $0x10,%esp
    15e7:	e9 61 fd ff ff       	jmp    134d <nic_list+0x9d>
    15ec:	51                   	push   %ecx
    15ed:	68 b9 00 00 00       	push   $0xb9
    15f2:	68 37 5a 00 00       	push   $0x5a37
    15f7:	68 cd 54 00 00       	push   $0x54cd
    15fc:	e8 df 47 00 00       	call   5de0 <assert_abort@plt>
    1601:	b8 e1 53 00 00       	mov    $0x53e1,%eax
    1606:	e9 fa fe ff ff       	jmp    1505 <nic_list+0x255>
    160b:	51                   	push   %ecx
    160c:	68 da 00 00 00       	push   $0xda
    1611:	68 37 5a 00 00       	push   $0x5a37
    1616:	68 cd 54 00 00       	push   $0x54cd
    161b:	e8 c0 47 00 00       	call   5de0 <assert_abort@plt>
    1620:	b8 f9 53 00 00       	mov    $0x53f9,%eax
    1625:	e9 20 ff ff ff       	jmp    154a <nic_list+0x29a>
    162a:	b8 e9 53 00 00       	mov    $0x53e9,%eax
    162f:	e9 16 ff ff ff       	jmp    154a <nic_list+0x29a>
    1634:	b8 d9 53 00 00       	mov    $0x53d9,%eax
    1639:	e9 0c ff ff ff       	jmp    154a <nic_list+0x29a>
    163e:	b8 fe 53 00 00       	mov    $0x53fe,%eax
    1643:	e9 02 ff ff ff       	jmp    154a <nic_list+0x29a>
    1648:	b8 f9 53 00 00       	mov    $0x53f9,%eax
    164d:	e9 31 ff ff ff       	jmp    1583 <nic_list+0x2d3>
    1652:	b8 d9 53 00 00       	mov    $0x53d9,%eax
    1657:	e9 27 ff ff ff       	jmp    1583 <nic_list+0x2d3>
    165c:	b8 e9 53 00 00       	mov    $0x53e9,%eax
    1661:	e9 1d ff ff ff       	jmp    1583 <nic_list+0x2d3>
    1666:	57                   	push   %edi
    1667:	68 cf 00 00 00       	push   $0xcf
    166c:	68 37 5a 00 00       	push   $0x5a37
    1671:	68 cd 54 00 00       	push   $0x54cd
    1676:	e8 65 47 00 00       	call   5de0 <assert_abort@plt>
    167b:	57                   	push   %edi
    167c:	68 e4 00 00 00       	push   $0xe4
    1681:	68 37 5a 00 00       	push   $0x5a37
    1686:	68 cd 54 00 00       	push   $0x54cd
    168b:	e8 50 47 00 00       	call   5de0 <assert_abort@plt>
    1690:	b8 d9 53 00 00       	mov    $0x53d9,%eax
    1695:	e9 19 ff ff ff       	jmp    15b3 <nic_list+0x303>
    169a:	b8 e9 53 00 00       	mov    $0x53e9,%eax
    169f:	e9 0f ff ff ff       	jmp    15b3 <nic_list+0x303>
    16a4:	8b 45 d4             	mov    -0x2c(%ebp),%eax
    16a7:	83 f8 02             	cmp    $0x2,%eax
    16aa:	0f 84 0f 01 00 00    	je     17bf <nic_list+0x50f>
    16b0:	83 f8 03             	cmp    $0x3,%eax
    16b3:	0f 84 ff 00 00 00    	je     17b8 <nic_list+0x508>
    16b9:	48                   	dec    %eax
    16ba:	0f 84 dc 00 00 00    	je     179c <nic_list+0x4ec>
    16c0:	51                   	push   %ecx
    16c1:	68 c3 00 00 00       	push   $0xc3
    16c6:	68 37 5a 00 00       	push   $0x5a37
    16cb:	68 cd 54 00 00       	push   $0x54cd
    16d0:	e8 0b 47 00 00       	call   5de0 <assert_abort@plt>
    16d5:	83 ec 0c             	sub    $0xc,%esp
    16d8:	68 48 54 00 00       	push   $0x5448
    16dd:	e8 4e 46 00 00       	call   5d30 <printf@plt>
    16e2:	83 c4 10             	add    $0x10,%esp
    16e5:	bb f6 fe ff ff       	mov    $0xfffffef6,%ebx
    16ea:	e9 03 fc ff ff       	jmp    12f2 <nic_list+0x42>
    16ef:	83 ec 0c             	sub    $0xc,%esp
    16f2:	68 d4 57 00 00       	push   $0x57d4
    16f7:	e8 34 46 00 00       	call   5d30 <printf@plt>
    16fc:	83 c4 10             	add    $0x10,%esp
    16ff:	eb e4                	jmp    16e5 <nic_list+0x435>
    1701:	83 ec 0c             	sub    $0xc,%esp
    1704:	68 64 54 00 00       	push   $0x5464
    1709:	e8 22 46 00 00       	call   5d30 <printf@plt>
    170e:	83 c4 10             	add    $0x10,%esp
    1711:	eb d2                	jmp    16e5 <nic_list+0x435>
    1713:	83 ec 0c             	sub    $0xc,%esp
    1716:	68 f4 57 00 00       	push   $0x57f4
    171b:	e8 10 46 00 00       	call   5d30 <printf@plt>
    1720:	83 c4 10             	add    $0x10,%esp
    1723:	eb c0                	jmp    16e5 <nic_list+0x435>
    1725:	83 ec 0c             	sub    $0xc,%esp
    1728:	68 20 58 00 00       	push   $0x5820
    172d:	e8 fe 45 00 00       	call   5d30 <printf@plt>
    1732:	83 c4 10             	add    $0x10,%esp
    1735:	eb ae                	jmp    16e5 <nic_list+0x435>
    1737:	83 ec 0c             	sub    $0xc,%esp
    173a:	68 4c 58 00 00       	push   $0x584c
    173f:	e8 ec 45 00 00       	call   5d30 <printf@plt>
    1744:	83 c4 10             	add    $0x10,%esp
    1747:	eb 9c                	jmp    16e5 <nic_list+0x435>
    1749:	8b 9d 94 fe ff ff    	mov    -0x16c(%ebp),%ebx
    174f:	e9 b0 fb ff ff       	jmp    1304 <nic_list+0x54>
    1754:	83 ec 0c             	sub    $0xc,%esp
    1757:	89 c6                	mov    %eax,%esi
    1759:	89 f3                	mov    %esi,%ebx
    175b:	68 8c 53 00 00       	push   $0x538c
    1760:	e8 cb 45 00 00       	call   5d30 <printf@plt>
    1765:	83 c4 10             	add    $0x10,%esp
    1768:	e9 85 fb ff ff       	jmp    12f2 <nic_list+0x42>
    176d:	83 ec 0c             	sub    $0xc,%esp
    1770:	bb fe ff ff ff       	mov    $0xfffffffe,%ebx
    1775:	68 7f 54 00 00       	push   $0x547f
    177a:	e8 b1 45 00 00       	call   5d30 <printf@plt>
    177f:	83 c4 10             	add    $0x10,%esp
    1782:	e9 6b fb ff ff       	jmp    12f2 <nic_list+0x42>
    1787:	83 ec 0c             	sub    $0xc,%esp
    178a:	68 78 58 00 00       	push   $0x5878
    178f:	e8 9c 45 00 00       	call   5d30 <printf@plt>
    1794:	83 c4 10             	add    $0x10,%esp
    1797:	e9 49 ff ff ff       	jmp    16e5 <nic_list+0x435>
    179c:	b8 0f 54 00 00       	mov    $0x540f,%eax
    17a1:	52                   	push   %edx
    17a2:	50                   	push   %eax
    17a3:	ff 75 e4             	pushl  -0x1c(%ebp)
    17a6:	68 39 55 00 00       	push   $0x5539
    17ab:	e8 80 45 00 00       	call   5d30 <printf@plt>
    17b0:	83 c4 10             	add    $0x10,%esp
    17b3:	e9 15 fe ff ff       	jmp    15cd <nic_list+0x31d>
    17b8:	b8 27 54 00 00       	mov    $0x5427,%eax
    17bd:	eb e2                	jmp    17a1 <nic_list+0x4f1>
    17bf:	b8 1b 54 00 00       	mov    $0x541b,%eax
    17c4:	eb db                	jmp    17a1 <nic_list+0x4f1>
    17c6:	83 ec 0c             	sub    $0xc,%esp
    17c9:	68 bb 53 00 00       	push   $0x53bb
    17ce:	e8 5d 45 00 00       	call   5d30 <printf@plt>
    17d3:	83 c4 10             	add    $0x10,%esp
    17d6:	e9 0a ff ff ff       	jmp    16e5 <nic_list+0x435>
    17db:	66 90                	xchg   %ax,%ax
    17dd:	66 90                	xchg   %ax,%ax
    17df:	90                   	nop

000017e0 <main>:
    17e0:	8d 4c 24 04          	lea    0x4(%esp),%ecx
    17e4:	83 e4 f0             	and    $0xfffffff0,%esp
    17e7:	ff 71 fc             	pushl  -0x4(%ecx)
    17ea:	55                   	push   %ebp
    17eb:	89 e5                	mov    %esp,%ebp
    17ed:	57                   	push   %edi
    17ee:	56                   	push   %esi
    17ef:	53                   	push   %ebx
    17f0:	51                   	push   %ecx
    17f1:	83 ec 38             	sub    $0x38,%esp
    17f4:	8b 01                	mov    (%ecx),%eax
    17f6:	8b 71 04             	mov    0x4(%ecx),%esi
    17f9:	83 f8 01             	cmp    $0x1,%eax
    17fc:	0f 84 c6 01 00 00    	je     19c8 <main+0x1e8>
    1802:	83 f8 02             	cmp    $0x2,%eax
    1805:	0f 8e 2c 01 00 00    	jle    1937 <main+0x157>
    180b:	83 ec 0c             	sub    $0xc,%esp
    180e:	8d 45 d0             	lea    -0x30(%ebp),%eax
    1811:	50                   	push   %eax
    1812:	6a 00                	push   $0x0
    1814:	6a 0a                	push   $0xa
    1816:	6a 00                	push   $0x0
    1818:	ff 76 04             	pushl  0x4(%esi)
    181b:	e8 30 45 00 00       	call   5d50 <str_uint32_t@plt>
    1820:	83 c4 20             	add    $0x20,%esp
    1823:	89 c3                	mov    %eax,%ebx
    1825:	85 c0                	test   %eax,%eax
    1827:	0f 85 0a 01 00 00    	jne    1937 <main+0x157>
    182d:	50                   	push   %eax
    182e:	50                   	push   %eax
    182f:	68 82 55 00 00       	push   $0x5582
    1834:	ff 76 08             	pushl  0x8(%esi)
    1837:	e8 f4 45 00 00       	call   5e30 <str_cmp@plt>
    183c:	83 c4 10             	add    $0x10,%esp
    183f:	85 c0                	test   %eax,%eax
    1841:	0f 84 18 01 00 00    	je     195f <main+0x17f>
    1847:	50                   	push   %eax
    1848:	50                   	push   %eax
    1849:	68 a5 55 00 00       	push   $0x55a5
    184e:	ff 76 08             	pushl  0x8(%esi)
    1851:	e8 da 45 00 00       	call   5e30 <str_cmp@plt>
    1856:	83 c4 10             	add    $0x10,%esp
    1859:	85 c0                	test   %eax,%eax
    185b:	0f 84 78 01 00 00    	je     19d9 <main+0x1f9>
    1861:	57                   	push   %edi
    1862:	57                   	push   %edi
    1863:	68 20 54 00 00       	push   $0x5420
    1868:	ff 76 08             	pushl  0x8(%esi)
    186b:	e8 c0 45 00 00       	call   5e30 <str_cmp@plt>
    1870:	83 c4 10             	add    $0x10,%esp
    1873:	85 c0                	test   %eax,%eax
    1875:	0f 84 3c 02 00 00    	je     1ab7 <main+0x2d7>
    187b:	50                   	push   %eax
    187c:	50                   	push   %eax
    187d:	68 b5 55 00 00       	push   $0x55b5
    1882:	ff 76 08             	pushl  0x8(%esi)
    1885:	e8 a6 45 00 00       	call   5e30 <str_cmp@plt>
    188a:	83 c4 10             	add    $0x10,%esp
    188d:	85 c0                	test   %eax,%eax
    188f:	0f 84 e4 01 00 00    	je     1a79 <main+0x299>
    1895:	50                   	push   %eax
    1896:	50                   	push   %eax
    1897:	68 ba 55 00 00       	push   $0x55ba
    189c:	ff 76 08             	pushl  0x8(%esi)
    189f:	e8 8c 45 00 00       	call   5e30 <str_cmp@plt>
    18a4:	83 c4 10             	add    $0x10,%esp
    18a7:	85 c0                	test   %eax,%eax
    18a9:	0f 84 d2 02 00 00    	je     1b81 <main+0x3a1>
    18af:	50                   	push   %eax
    18b0:	50                   	push   %eax
    18b1:	68 c8 55 00 00       	push   $0x55c8
    18b6:	ff 76 08             	pushl  0x8(%esi)
    18b9:	e8 72 45 00 00       	call   5e30 <str_cmp@plt>
    18be:	83 c4 10             	add    $0x10,%esp
    18c1:	85 c0                	test   %eax,%eax
    18c3:	0f 84 68 03 00 00    	je     1c31 <main+0x451>
    18c9:	50                   	push   %eax
    18ca:	50                   	push   %eax
    18cb:	68 d2 55 00 00       	push   $0x55d2
    18d0:	ff 76 08             	pushl  0x8(%esi)
    18d3:	e8 58 45 00 00       	call   5e30 <str_cmp@plt>
    18d8:	83 c4 10             	add    $0x10,%esp
    18db:	85 c0                	test   %eax,%eax
    18dd:	75 72                	jne    1951 <main+0x171>
    18df:	8b 45 d0             	mov    -0x30(%ebp),%eax
    18e2:	8b 7e 0c             	mov    0xc(%esi),%edi
    18e5:	e8 e6 f8 ff ff       	call   11d0 <get_nic_by_index>
    18ea:	89 c6                	mov    %eax,%esi
    18ec:	85 c0                	test   %eax,%eax
    18ee:	0f 84 32 04 00 00    	je     1d26 <main+0x546>
    18f4:	50                   	push   %eax
    18f5:	50                   	push   %eax
    18f6:	68 c2 55 00 00       	push   $0x55c2
    18fb:	57                   	push   %edi
    18fc:	e8 2f 45 00 00       	call   5e30 <str_cmp@plt>
    1901:	83 c4 10             	add    $0x10,%esp
    1904:	89 c3                	mov    %eax,%ebx
    1906:	85 c0                	test   %eax,%eax
    1908:	0f 84 4c 04 00 00    	je     1d5a <main+0x57a>
    190e:	51                   	push   %ecx
    190f:	51                   	push   %ecx
    1910:	68 dc 55 00 00       	push   $0x55dc
    1915:	57                   	push   %edi
    1916:	e8 15 45 00 00       	call   5e30 <str_cmp@plt>
    191b:	83 c4 10             	add    $0x10,%esp
    191e:	89 c3                	mov    %eax,%ebx
    1920:	85 c0                	test   %eax,%eax
    1922:	0f 85 78 04 00 00    	jne    1da0 <main+0x5c0>
    1928:	52                   	push   %edx
    1929:	52                   	push   %edx
    192a:	6a 02                	push   $0x2
    192c:	56                   	push   %esi
    192d:	e8 0e 2f 00 00       	call   4840 <nic_broadcast_set_mode>
    1932:	83 c4 10             	add    $0x10,%esp
    1935:	eb 1a                	jmp    1951 <main+0x171>
    1937:	83 ec 0c             	sub    $0xc,%esp
    193a:	bb 01 00 00 00       	mov    $0x1,%ebx
    193f:	68 6a 55 00 00       	push   $0x556a
    1944:	e8 e7 43 00 00       	call   5d30 <printf@plt>
    1949:	e8 f2 f7 ff ff       	call   1140 <print_syntax>
    194e:	83 c4 10             	add    $0x10,%esp
    1951:	8d 65 f0             	lea    -0x10(%ebp),%esp
    1954:	89 d8                	mov    %ebx,%eax
    1956:	59                   	pop    %ecx
    1957:	5b                   	pop    %ebx
    1958:	5e                   	pop    %esi
    1959:	5f                   	pop    %edi
    195a:	5d                   	pop    %ebp
    195b:	8d 61 fc             	lea    -0x4(%ecx),%esp
    195e:	c3                   	ret    
    195f:	8b 45 d0             	mov    -0x30(%ebp),%eax
    1962:	8b 7e 0c             	mov    0xc(%esi),%edi
    1965:	e8 66 f8 ff ff       	call   11d0 <get_nic_by_index>
    196a:	89 45 c4             	mov    %eax,-0x3c(%ebp)
    196d:	85 c0                	test   %eax,%eax
    196f:	0f 84 b1 03 00 00    	je     1d26 <main+0x546>
    1975:	83 ec 0c             	sub    $0xc,%esp
    1978:	8d 5d e0             	lea    -0x20(%ebp),%ebx
    197b:	8d 75 e6             	lea    -0x1a(%ebp),%esi
    197e:	57                   	push   %edi
    197f:	e8 0c 45 00 00       	call   5e90 <str_size@plt>
    1984:	83 c4 10             	add    $0x10,%esp
    1987:	83 f8 11             	cmp    $0x11,%eax
    198a:	0f 85 bc 01 00 00    	jne    1b4c <main+0x36c>
    1990:	83 ec 0c             	sub    $0xc,%esp
    1993:	53                   	push   %ebx
    1994:	6a 00                	push   $0x0
    1996:	6a 10                	push   $0x10
    1998:	6a 00                	push   $0x0
    199a:	57                   	push   %edi
    199b:	e8 50 44 00 00       	call   5df0 <str_uint8_t@plt>
    19a0:	83 c4 20             	add    $0x20,%esp
    19a3:	85 c0                	test   %eax,%eax
    19a5:	0f 85 a1 01 00 00    	jne    1b4c <main+0x36c>
    19ab:	43                   	inc    %ebx
    19ac:	83 c7 03             	add    $0x3,%edi
    19af:	39 de                	cmp    %ebx,%esi
    19b1:	75 dd                	jne    1990 <main+0x1b0>
    19b3:	50                   	push   %eax
    19b4:	50                   	push   %eax
    19b5:	8d 45 e0             	lea    -0x20(%ebp),%eax
    19b8:	50                   	push   %eax
    19b9:	ff 75 c4             	pushl  -0x3c(%ebp)
    19bc:	e8 4f 25 00 00       	call   3f10 <nic_set_address>
    19c1:	83 c4 10             	add    $0x10,%esp
    19c4:	89 c3                	mov    %eax,%ebx
    19c6:	eb 89                	jmp    1951 <main+0x171>
    19c8:	e8 e3 f8 ff ff       	call   12b0 <nic_list>
    19cd:	31 db                	xor    %ebx,%ebx
    19cf:	85 c0                	test   %eax,%eax
    19d1:	0f 95 c3             	setne  %bl
    19d4:	e9 78 ff ff ff       	jmp    1951 <main+0x171>
    19d9:	83 ec 0c             	sub    $0xc,%esp
    19dc:	8d 45 d4             	lea    -0x2c(%ebp),%eax
    19df:	8b 7d d0             	mov    -0x30(%ebp),%edi
    19e2:	50                   	push   %eax
    19e3:	6a 00                	push   $0x0
    19e5:	6a 0a                	push   $0xa
    19e7:	6a 00                	push   $0x0
    19e9:	ff 76 0c             	pushl  0xc(%esi)
    19ec:	e8 5f 43 00 00       	call   5d50 <str_uint32_t@plt>
    19f1:	83 c4 20             	add    $0x20,%esp
    19f4:	89 c3                	mov    %eax,%ebx
    19f6:	85 c0                	test   %eax,%eax
    19f8:	0f 85 14 02 00 00    	jne    1c12 <main+0x432>
    19fe:	8b 45 d4             	mov    -0x2c(%ebp),%eax
    1a01:	83 f8 0a             	cmp    $0xa,%eax
    1a04:	0f 95 c1             	setne  %cl
    1a07:	83 f8 64             	cmp    $0x64,%eax
    1a0a:	0f 95 c2             	setne  %dl
    1a0d:	84 d1                	test   %dl,%cl
    1a0f:	74 21                	je     1a32 <main+0x252>
    1a11:	3d e8 03 00 00       	cmp    $0x3e8,%eax
    1a16:	74 1a                	je     1a32 <main+0x252>
    1a18:	83 ec 0c             	sub    $0xc,%esp
    1a1b:	bb f2 ff ff ff       	mov    $0xfffffff2,%ebx
    1a20:	68 fc 58 00 00       	push   $0x58fc
    1a25:	e8 06 43 00 00       	call   5d30 <printf@plt>
    1a2a:	83 c4 10             	add    $0x10,%esp
    1a2d:	e9 1f ff ff ff       	jmp    1951 <main+0x171>
    1a32:	89 f8                	mov    %edi,%eax
    1a34:	e8 97 f7 ff ff       	call   11d0 <get_nic_by_index>
    1a39:	89 c3                	mov    %eax,%ebx
    1a3b:	85 c0                	test   %eax,%eax
    1a3d:	0f 84 e3 02 00 00    	je     1d26 <main+0x546>
    1a43:	8d 45 e0             	lea    -0x20(%ebp),%eax
    1a46:	50                   	push   %eax
    1a47:	8d 45 dc             	lea    -0x24(%ebp),%eax
    1a4a:	50                   	push   %eax
    1a4b:	8d 45 d8             	lea    -0x28(%ebp),%eax
    1a4e:	50                   	push   %eax
    1a4f:	53                   	push   %ebx
    1a50:	e8 eb 26 00 00       	call   4140 <nic_get_operation_mode>
    1a55:	83 c4 10             	add    $0x10,%esp
    1a58:	85 c0                	test   %eax,%eax
    1a5a:	0f 85 5c 02 00 00    	jne    1cbc <main+0x4dc>
    1a60:	ff 75 e0             	pushl  -0x20(%ebp)
    1a63:	ff 75 dc             	pushl  -0x24(%ebp)
    1a66:	ff 75 d4             	pushl  -0x2c(%ebp)
    1a69:	53                   	push   %ebx
    1a6a:	e8 51 27 00 00       	call   41c0 <nic_set_operation_mode>
    1a6f:	83 c4 10             	add    $0x10,%esp
    1a72:	89 c3                	mov    %eax,%ebx
    1a74:	e9 d8 fe ff ff       	jmp    1951 <main+0x171>
    1a79:	8b 45 d0             	mov    -0x30(%ebp),%eax
    1a7c:	e8 4f f7 ff ff       	call   11d0 <get_nic_by_index>
    1a81:	85 c0                	test   %eax,%eax
    1a83:	0f 84 9d 02 00 00    	je     1d26 <main+0x546>
    1a89:	83 ec 0c             	sub    $0xc,%esp
    1a8c:	50                   	push   %eax
    1a8d:	e8 ae 28 00 00       	call   4340 <nic_autoneg_restart>
    1a92:	83 c4 10             	add    $0x10,%esp
    1a95:	85 c0                	test   %eax,%eax
    1a97:	0f 84 b4 fe ff ff    	je     1951 <main+0x171>
    1a9d:	83 ec 0c             	sub    $0xc,%esp
    1aa0:	bb f6 fe ff ff       	mov    $0xfffffef6,%ebx
    1aa5:	68 44 59 00 00       	push   $0x5944
    1aaa:	e8 81 42 00 00       	call   5d30 <printf@plt>
    1aaf:	83 c4 10             	add    $0x10,%esp
    1ab2:	e9 9a fe ff ff       	jmp    1951 <main+0x171>
    1ab7:	8b 76 0c             	mov    0xc(%esi),%esi
    1aba:	8b 7d d0             	mov    -0x30(%ebp),%edi
    1abd:	50                   	push   %eax
    1abe:	50                   	push   %eax
    1abf:	68 ab 55 00 00       	push   $0x55ab
    1ac4:	56                   	push   %esi
    1ac5:	e8 66 43 00 00       	call   5e30 <str_cmp@plt>
    1aca:	31 db                	xor    %ebx,%ebx
    1acc:	5a                   	pop    %edx
    1acd:	85 c0                	test   %eax,%eax
    1acf:	59                   	pop    %ecx
    1ad0:	68 b0 55 00 00       	push   $0x55b0
    1ad5:	0f 94 c3             	sete   %bl
    1ad8:	56                   	push   %esi
    1ad9:	e8 52 43 00 00       	call   5e30 <str_cmp@plt>
    1ade:	01 db                	add    %ebx,%ebx
    1ae0:	83 c4 10             	add    $0x10,%esp
    1ae3:	85 c0                	test   %eax,%eax
    1ae5:	74 7f                	je     1b66 <main+0x386>
    1ae7:	50                   	push   %eax
    1ae8:	50                   	push   %eax
    1ae9:	68 27 54 00 00       	push   $0x5427
    1aee:	56                   	push   %esi
    1aef:	e8 3c 43 00 00       	call   5e30 <str_cmp@plt>
    1af4:	83 c4 10             	add    $0x10,%esp
    1af7:	85 c0                	test   %eax,%eax
    1af9:	0f 84 28 01 00 00    	je     1c27 <main+0x447>
    1aff:	85 db                	test   %ebx,%ebx
    1b01:	0f 84 39 02 00 00    	je     1d40 <main+0x560>
    1b07:	89 f8                	mov    %edi,%eax
    1b09:	e8 c2 f6 ff ff       	call   11d0 <get_nic_by_index>
    1b0e:	89 c6                	mov    %eax,%esi
    1b10:	85 c0                	test   %eax,%eax
    1b12:	0f 84 0e 02 00 00    	je     1d26 <main+0x546>
    1b18:	8d 45 e0             	lea    -0x20(%ebp),%eax
    1b1b:	50                   	push   %eax
    1b1c:	8d 45 dc             	lea    -0x24(%ebp),%eax
    1b1f:	50                   	push   %eax
    1b20:	8d 45 d8             	lea    -0x28(%ebp),%eax
    1b23:	50                   	push   %eax
    1b24:	56                   	push   %esi
    1b25:	e8 16 26 00 00       	call   4140 <nic_get_operation_mode>
    1b2a:	83 c4 10             	add    $0x10,%esp
    1b2d:	85 c0                	test   %eax,%eax
    1b2f:	0f 85 87 01 00 00    	jne    1cbc <main+0x4dc>
    1b35:	ff 75 e0             	pushl  -0x20(%ebp)
    1b38:	53                   	push   %ebx
    1b39:	ff 75 d8             	pushl  -0x28(%ebp)
    1b3c:	56                   	push   %esi
    1b3d:	e8 7e 26 00 00       	call   41c0 <nic_set_operation_mode>
    1b42:	83 c4 10             	add    $0x10,%esp
    1b45:	89 c3                	mov    %eax,%ebx
    1b47:	e9 05 fe ff ff       	jmp    1951 <main+0x171>
    1b4c:	83 ec 0c             	sub    $0xc,%esp
    1b4f:	bb f2 ff ff ff       	mov    $0xfffffff2,%ebx
    1b54:	68 87 55 00 00       	push   $0x5587
    1b59:	e8 d2 41 00 00       	call   5d30 <printf@plt>
    1b5e:	83 c4 10             	add    $0x10,%esp
    1b61:	e9 eb fd ff ff       	jmp    1951 <main+0x171>
    1b66:	50                   	push   %eax
    1b67:	50                   	push   %eax
    1b68:	68 27 54 00 00       	push   $0x5427
    1b6d:	56                   	push   %esi
    1b6e:	e8 bd 42 00 00       	call   5e30 <str_cmp@plt>
    1b73:	83 c4 10             	add    $0x10,%esp
    1b76:	83 f8 01             	cmp    $0x1,%eax
    1b79:	19 db                	sbb    %ebx,%ebx
    1b7b:	83 e3 02             	and    $0x2,%ebx
    1b7e:	43                   	inc    %ebx
    1b7f:	eb 86                	jmp    1b07 <main+0x327>
    1b81:	8b 45 d0             	mov    -0x30(%ebp),%eax
    1b84:	8b 76 0c             	mov    0xc(%esi),%esi
    1b87:	e8 44 f6 ff ff       	call   11d0 <get_nic_by_index>
    1b8c:	89 c7                	mov    %eax,%edi
    1b8e:	85 c0                	test   %eax,%eax
    1b90:	0f 84 90 01 00 00    	je     1d26 <main+0x546>
    1b96:	50                   	push   %eax
    1b97:	50                   	push   %eax
    1b98:	68 c2 55 00 00       	push   $0x55c2
    1b9d:	56                   	push   %esi
    1b9e:	e8 8d 42 00 00       	call   5e30 <str_cmp@plt>
    1ba3:	83 c4 10             	add    $0x10,%esp
    1ba6:	89 c3                	mov    %eax,%ebx
    1ba8:	85 c0                	test   %eax,%eax
    1baa:	0f 84 f8 00 00 00    	je     1ca8 <main+0x4c8>
    1bb0:	53                   	push   %ebx
    1bb1:	53                   	push   %ebx
    1bb2:	68 f1 53 00 00       	push   $0x53f1
    1bb7:	56                   	push   %esi
    1bb8:	e8 73 42 00 00       	call   5e30 <str_cmp@plt>
    1bbd:	83 c4 10             	add    $0x10,%esp
    1bc0:	89 c3                	mov    %eax,%ebx
    1bc2:	85 c0                	test   %eax,%eax
    1bc4:	0f 84 0c 01 00 00    	je     1cd6 <main+0x4f6>
    1bca:	51                   	push   %ecx
    1bcb:	51                   	push   %ecx
    1bcc:	68 f9 53 00 00       	push   $0x53f9
    1bd1:	56                   	push   %esi
    1bd2:	e8 59 42 00 00       	call   5e30 <str_cmp@plt>
    1bd7:	83 c4 10             	add    $0x10,%esp
    1bda:	89 c3                	mov    %eax,%ebx
    1bdc:	85 c0                	test   %eax,%eax
    1bde:	0f 84 2e 01 00 00    	je     1d12 <main+0x532>
    1be4:	52                   	push   %edx
    1be5:	52                   	push   %edx
    1be6:	68 fe 53 00 00       	push   $0x53fe
    1beb:	56                   	push   %esi
    1bec:	e8 3f 42 00 00       	call   5e30 <str_cmp@plt>
    1bf1:	83 c4 10             	add    $0x10,%esp
    1bf4:	89 c3                	mov    %eax,%ebx
    1bf6:	85 c0                	test   %eax,%eax
    1bf8:	0f 85 88 01 00 00    	jne    1d86 <main+0x5a6>
    1bfe:	6a 00                	push   $0x0
    1c00:	6a 00                	push   $0x0
    1c02:	6a 04                	push   $0x4
    1c04:	57                   	push   %edi
    1c05:	e8 36 29 00 00       	call   4540 <nic_unicast_set_mode>
    1c0a:	83 c4 10             	add    $0x10,%esp
    1c0d:	e9 3f fd ff ff       	jmp    1951 <main+0x171>
    1c12:	83 ec 0c             	sub    $0xc,%esp
    1c15:	68 dc 58 00 00       	push   $0x58dc
    1c1a:	e8 11 41 00 00       	call   5d30 <printf@plt>
    1c1f:	83 c4 10             	add    $0x10,%esp
    1c22:	e9 2a fd ff ff       	jmp    1951 <main+0x171>
    1c27:	bb 03 00 00 00       	mov    $0x3,%ebx
    1c2c:	e9 d6 fe ff ff       	jmp    1b07 <main+0x327>
    1c31:	8b 45 d0             	mov    -0x30(%ebp),%eax
    1c34:	8b 7e 0c             	mov    0xc(%esi),%edi
    1c37:	e8 94 f5 ff ff       	call   11d0 <get_nic_by_index>
    1c3c:	89 c6                	mov    %eax,%esi
    1c3e:	85 c0                	test   %eax,%eax
    1c40:	0f 84 e0 00 00 00    	je     1d26 <main+0x546>
    1c46:	50                   	push   %eax
    1c47:	50                   	push   %eax
    1c48:	68 c2 55 00 00       	push   $0x55c2
    1c4d:	57                   	push   %edi
    1c4e:	e8 dd 41 00 00       	call   5e30 <str_cmp@plt>
    1c53:	83 c4 10             	add    $0x10,%esp
    1c56:	89 c3                	mov    %eax,%ebx
    1c58:	85 c0                	test   %eax,%eax
    1c5a:	0f 84 8a 00 00 00    	je     1cea <main+0x50a>
    1c60:	50                   	push   %eax
    1c61:	50                   	push   %eax
    1c62:	68 f9 53 00 00       	push   $0x53f9
    1c67:	57                   	push   %edi
    1c68:	e8 c3 41 00 00       	call   5e30 <str_cmp@plt>
    1c6d:	83 c4 10             	add    $0x10,%esp
    1c70:	89 c3                	mov    %eax,%ebx
    1c72:	85 c0                	test   %eax,%eax
    1c74:	0f 84 84 00 00 00    	je     1cfe <main+0x51e>
    1c7a:	50                   	push   %eax
    1c7b:	50                   	push   %eax
    1c7c:	68 fe 53 00 00       	push   $0x53fe
    1c81:	57                   	push   %edi
    1c82:	e8 a9 41 00 00       	call   5e30 <str_cmp@plt>
    1c87:	83 c4 10             	add    $0x10,%esp
    1c8a:	89 c3                	mov    %eax,%ebx
    1c8c:	85 c0                	test   %eax,%eax
    1c8e:	0f 85 d8 00 00 00    	jne    1d6c <main+0x58c>
    1c94:	6a 00                	push   $0x0
    1c96:	6a 00                	push   $0x0
    1c98:	6a 03                	push   $0x3
    1c9a:	56                   	push   %esi
    1c9b:	e8 50 2a 00 00       	call   46f0 <nic_multicast_set_mode>
    1ca0:	83 c4 10             	add    $0x10,%esp
    1ca3:	e9 a9 fc ff ff       	jmp    1951 <main+0x171>
    1ca8:	6a 00                	push   $0x0
    1caa:	6a 00                	push   $0x0
    1cac:	6a 01                	push   $0x1
    1cae:	57                   	push   %edi
    1caf:	e8 8c 28 00 00       	call   4540 <nic_unicast_set_mode>
    1cb4:	83 c4 10             	add    $0x10,%esp
    1cb7:	e9 95 fc ff ff       	jmp    1951 <main+0x171>
    1cbc:	83 ec 0c             	sub    $0xc,%esp
    1cbf:	bb f6 fe ff ff       	mov    $0xfffffef6,%ebx
    1cc4:	68 f4 57 00 00       	push   $0x57f4
    1cc9:	e8 62 40 00 00       	call   5d30 <printf@plt>
    1cce:	83 c4 10             	add    $0x10,%esp
    1cd1:	e9 7b fc ff ff       	jmp    1951 <main+0x171>
    1cd6:	6a 00                	push   $0x0
    1cd8:	6a 00                	push   $0x0
    1cda:	6a 02                	push   $0x2
    1cdc:	57                   	push   %edi
    1cdd:	e8 5e 28 00 00       	call   4540 <nic_unicast_set_mode>
    1ce2:	83 c4 10             	add    $0x10,%esp
    1ce5:	e9 67 fc ff ff       	jmp    1951 <main+0x171>
    1cea:	6a 00                	push   $0x0
    1cec:	6a 00                	push   $0x0
    1cee:	6a 01                	push   $0x1
    1cf0:	56                   	push   %esi
    1cf1:	e8 fa 29 00 00       	call   46f0 <nic_multicast_set_mode>
    1cf6:	83 c4 10             	add    $0x10,%esp
    1cf9:	e9 53 fc ff ff       	jmp    1951 <main+0x171>
    1cfe:	6a 00                	push   $0x0
    1d00:	6a 00                	push   $0x0
    1d02:	6a 02                	push   $0x2
    1d04:	56                   	push   %esi
    1d05:	e8 e6 29 00 00       	call   46f0 <nic_multicast_set_mode>
    1d0a:	83 c4 10             	add    $0x10,%esp
    1d0d:	e9 3f fc ff ff       	jmp    1951 <main+0x171>
    1d12:	6a 00                	push   $0x0
    1d14:	6a 00                	push   $0x0
    1d16:	6a 03                	push   $0x3
    1d18:	57                   	push   %edi
    1d19:	e8 22 28 00 00       	call   4540 <nic_unicast_set_mode>
    1d1e:	83 c4 10             	add    $0x10,%esp
    1d21:	e9 2b fc ff ff       	jmp    1951 <main+0x171>
    1d26:	83 ec 0c             	sub    $0xc,%esp
    1d29:	bb f2 ff ff ff       	mov    $0xfffffff2,%ebx
    1d2e:	68 a4 58 00 00       	push   $0x58a4
    1d33:	e8 f8 3f 00 00       	call   5d30 <printf@plt>
    1d38:	83 c4 10             	add    $0x10,%esp
    1d3b:	e9 11 fc ff ff       	jmp    1951 <main+0x171>
    1d40:	83 ec 0c             	sub    $0xc,%esp
    1d43:	bb f2 ff ff ff       	mov    $0xfffffff2,%ebx
    1d48:	68 24 59 00 00       	push   $0x5924
    1d4d:	e8 de 3f 00 00       	call   5d30 <printf@plt>
    1d52:	83 c4 10             	add    $0x10,%esp
    1d55:	e9 f7 fb ff ff       	jmp    1951 <main+0x171>
    1d5a:	57                   	push   %edi
    1d5b:	57                   	push   %edi
    1d5c:	6a 01                	push   $0x1
    1d5e:	56                   	push   %esi
    1d5f:	e8 dc 2a 00 00       	call   4840 <nic_broadcast_set_mode>
    1d64:	83 c4 10             	add    $0x10,%esp
    1d67:	e9 e5 fb ff ff       	jmp    1951 <main+0x171>
    1d6c:	83 ec 0c             	sub    $0xc,%esp
    1d6f:	bb f2 ff ff ff       	mov    $0xfffffff2,%ebx
    1d74:	68 ac 59 00 00       	push   $0x59ac
    1d79:	e8 b2 3f 00 00       	call   5d30 <printf@plt>
    1d7e:	83 c4 10             	add    $0x10,%esp
    1d81:	e9 cb fb ff ff       	jmp    1951 <main+0x171>
    1d86:	83 ec 0c             	sub    $0xc,%esp
    1d89:	bb f2 ff ff ff       	mov    $0xfffffff2,%ebx
    1d8e:	68 6c 59 00 00       	push   $0x596c
    1d93:	e8 98 3f 00 00       	call   5d30 <printf@plt>
    1d98:	83 c4 10             	add    $0x10,%esp
    1d9b:	e9 b1 fb ff ff       	jmp    1951 <main+0x171>
    1da0:	83 ec 0c             	sub    $0xc,%esp
    1da3:	bb f2 ff ff ff       	mov    $0xfffffff2,%ebx
    1da8:	68 e0 59 00 00       	push   $0x59e0
    1dad:	e8 7e 3f 00 00       	call   5d30 <printf@plt>
    1db2:	83 c4 10             	add    $0x10,%esp
    1db5:	e9 97 fb ff ff       	jmp    1951 <main+0x171>
    1dba:	66 90                	xchg   %ax,%ax
    1dbc:	66 90                	xchg   %ax,%ax
    1dbe:	66 90                	xchg   %ax,%ax

00001dc0 <remote_nic_poll_now>:
    1dc0:	55                   	push   %ebp
    1dc1:	89 e5                	mov    %esp,%ebp
    1dc3:	53                   	push   %ebx
    1dc4:	50                   	push   %eax
    1dc5:	8b 45 0c             	mov    0xc(%ebp),%eax
    1dc8:	8b 55 08             	mov    0x8(%ebp),%edx
    1dcb:	8b 5d 10             	mov    0x10(%ebp),%ebx
    1dce:	8b 80 a0 00 00 00    	mov    0xa0(%eax),%eax
    1dd4:	85 c0                	test   %eax,%eax
    1dd6:	74 18                	je     1df0 <remote_nic_poll_now+0x30>
    1dd8:	83 ec 0c             	sub    $0xc,%esp
    1ddb:	52                   	push   %edx
    1ddc:	ff d0                	call   *%eax
    1dde:	89 5d 08             	mov    %ebx,0x8(%ebp)
    1de1:	83 c4 10             	add    $0x10,%esp
    1de4:	8b 5d fc             	mov    -0x4(%ebp),%ebx
    1de7:	89 45 0c             	mov    %eax,0xc(%ebp)
    1dea:	c9                   	leave  
    1deb:	e9 b0 3f 00 00       	jmp    5da0 <async_answer_0@plt>
    1df0:	89 5d 08             	mov    %ebx,0x8(%ebp)
    1df3:	8b 5d fc             	mov    -0x4(%ebp),%ebx
    1df6:	c7 45 0c f5 ff ff ff 	movl   $0xfffffff5,0xc(%ebp)
    1dfd:	c9                   	leave  
    1dfe:	e9 9d 3f 00 00       	jmp    5da0 <async_answer_0@plt>
    1e03:	8d b6 00 00 00 00    	lea    0x0(%esi),%esi
    1e09:	8d bc 27 00 00 00 00 	lea    0x0(%edi,%eiz,1),%edi

00001e10 <remote_nic_offload_set>:
    1e10:	55                   	push   %ebp
    1e11:	89 e5                	mov    %esp,%ebp
    1e13:	53                   	push   %ebx
    1e14:	51                   	push   %ecx
    1e15:	8b 45 0c             	mov    0xc(%ebp),%eax
    1e18:	8b 4d 08             	mov    0x8(%ebp),%ecx
    1e1b:	8b 5d 10             	mov    0x10(%ebp),%ebx
    1e1e:	8b 55 14             	mov    0x14(%ebp),%edx
    1e21:	8b 80 94 00 00 00    	mov    0x94(%eax),%eax
    1e27:	85 c0                	test   %eax,%eax
    1e29:	74 25                	je     1e50 <remote_nic_offload_set+0x40>
    1e2b:	83 ec 04             	sub    $0x4,%esp
    1e2e:	ff 72 0c             	pushl  0xc(%edx)
    1e31:	8b 52 08             	mov    0x8(%edx),%edx
    1e34:	52                   	push   %edx
    1e35:	51                   	push   %ecx
    1e36:	ff d0                	call   *%eax
    1e38:	89 5d 08             	mov    %ebx,0x8(%ebp)
    1e3b:	83 c4 10             	add    $0x10,%esp
    1e3e:	8b 5d fc             	mov    -0x4(%ebp),%ebx
    1e41:	89 45 0c             	mov    %eax,0xc(%ebp)
    1e44:	c9                   	leave  
    1e45:	e9 56 3f 00 00       	jmp    5da0 <async_answer_0@plt>
    1e4a:	8d b6 00 00 00 00    	lea    0x0(%esi),%esi
    1e50:	89 5d 08             	mov    %ebx,0x8(%ebp)
    1e53:	8b 5d fc             	mov    -0x4(%ebp),%ebx
    1e56:	c7 45 0c f5 ff ff ff 	movl   $0xfffffff5,0xc(%ebp)
    1e5d:	c9                   	leave  
    1e5e:	e9 3d 3f 00 00       	jmp    5da0 <async_answer_0@plt>
    1e63:	8d b6 00 00 00 00    	lea    0x0(%esi),%esi
    1e69:	8d bc 27 00 00 00 00 	lea    0x0(%edi,%eiz,1),%edi

00001e70 <remote_nic_wol_virtue_remove>:
    1e70:	55                   	push   %ebp
    1e71:	89 e5                	mov    %esp,%ebp
    1e73:	53                   	push   %ebx
    1e74:	53                   	push   %ebx
    1e75:	8b 45 0c             	mov    0xc(%ebp),%eax
    1e78:	8b 55 08             	mov    0x8(%ebp),%edx
    1e7b:	8b 5d 10             	mov    0x10(%ebp),%ebx
    1e7e:	8b 4d 14             	mov    0x14(%ebp),%ecx
    1e81:	8b 40 7c             	mov    0x7c(%eax),%eax
    1e84:	85 c0                	test   %eax,%eax
    1e86:	74 20                	je     1ea8 <remote_nic_wol_virtue_remove+0x38>
    1e88:	83 ec 08             	sub    $0x8,%esp
    1e8b:	8b 49 08             	mov    0x8(%ecx),%ecx
    1e8e:	51                   	push   %ecx
    1e8f:	52                   	push   %edx
    1e90:	ff d0                	call   *%eax
    1e92:	89 5d 08             	mov    %ebx,0x8(%ebp)
    1e95:	83 c4 10             	add    $0x10,%esp
    1e98:	8b 5d fc             	mov    -0x4(%ebp),%ebx
    1e9b:	89 45 0c             	mov    %eax,0xc(%ebp)
    1e9e:	c9                   	leave  
    1e9f:	e9 fc 3e 00 00       	jmp    5da0 <async_answer_0@plt>
    1ea4:	8d 74 26 00          	lea    0x0(%esi,%eiz,1),%esi
    1ea8:	89 5d 08             	mov    %ebx,0x8(%ebp)
    1eab:	8b 5d fc             	mov    -0x4(%ebp),%ebx
    1eae:	c7 45 0c f5 ff ff ff 	movl   $0xfffffff5,0xc(%ebp)
    1eb5:	c9                   	leave  
    1eb6:	e9 e5 3e 00 00       	jmp    5da0 <async_answer_0@plt>
    1ebb:	90                   	nop
    1ebc:	8d 74 26 00          	lea    0x0(%esi,%eiz,1),%esi

00001ec0 <remote_nic_vlan_set_tag>:
    1ec0:	55                   	push   %ebp
    1ec1:	89 e5                	mov    %esp,%ebp
    1ec3:	57                   	push   %edi
    1ec4:	56                   	push   %esi
    1ec5:	53                   	push   %ebx
    1ec6:	83 ec 0c             	sub    $0xc,%esp
    1ec9:	8b 55 0c             	mov    0xc(%ebp),%edx
    1ecc:	8b 7d 08             	mov    0x8(%ebp),%edi
    1ecf:	8b 5d 10             	mov    0x10(%ebp),%ebx
    1ed2:	8b 45 14             	mov    0x14(%ebp),%eax
    1ed5:	8b 52 74             	mov    0x74(%edx),%edx
    1ed8:	85 d2                	test   %edx,%edx
    1eda:	74 3c                	je     1f18 <remote_nic_vlan_set_tag+0x58>
    1edc:	8b 70 10             	mov    0x10(%eax),%esi
    1edf:	31 c9                	xor    %ecx,%ecx
    1ee1:	85 f6                	test   %esi,%esi
    1ee3:	0f 95 c1             	setne  %cl
    1ee6:	89 ce                	mov    %ecx,%esi
    1ee8:	31 c9                	xor    %ecx,%ecx
    1eea:	56                   	push   %esi
    1eeb:	8b 70 0c             	mov    0xc(%eax),%esi
    1eee:	85 f6                	test   %esi,%esi
    1ef0:	0f 95 c1             	setne  %cl
    1ef3:	89 ce                	mov    %ecx,%esi
    1ef5:	56                   	push   %esi
    1ef6:	8b 48 08             	mov    0x8(%eax),%ecx
    1ef9:	81 e1 ff ff 00 00    	and    $0xffff,%ecx
    1eff:	51                   	push   %ecx
    1f00:	57                   	push   %edi
    1f01:	ff d2                	call   *%edx
    1f03:	89 5d 08             	mov    %ebx,0x8(%ebp)
    1f06:	89 45 0c             	mov    %eax,0xc(%ebp)
    1f09:	83 c4 10             	add    $0x10,%esp
    1f0c:	8d 65 f4             	lea    -0xc(%ebp),%esp
    1f0f:	5b                   	pop    %ebx
    1f10:	5e                   	pop    %esi
    1f11:	5f                   	pop    %edi
    1f12:	5d                   	pop    %ebp
    1f13:	e9 88 3e 00 00       	jmp    5da0 <async_answer_0@plt>
    1f18:	89 5d 08             	mov    %ebx,0x8(%ebp)
    1f1b:	c7 45 0c f5 ff ff ff 	movl   $0xfffffff5,0xc(%ebp)
    1f22:	8d 65 f4             	lea    -0xc(%ebp),%esp
    1f25:	5b                   	pop    %ebx
    1f26:	5e                   	pop    %esi
    1f27:	5f                   	pop    %edi
    1f28:	5d                   	pop    %ebp
    1f29:	e9 72 3e 00 00       	jmp    5da0 <async_answer_0@plt>
    1f2e:	66 90                	xchg   %ax,%ax

00001f30 <remote_nic_defective_set_mode>:
    1f30:	55                   	push   %ebp
    1f31:	89 e5                	mov    %esp,%ebp
    1f33:	53                   	push   %ebx
    1f34:	53                   	push   %ebx
    1f35:	8b 45 0c             	mov    0xc(%ebp),%eax
    1f38:	8b 55 08             	mov    0x8(%ebp),%edx
    1f3b:	8b 5d 10             	mov    0x10(%ebp),%ebx
    1f3e:	8b 4d 14             	mov    0x14(%ebp),%ecx
    1f41:	8b 40 60             	mov    0x60(%eax),%eax
    1f44:	85 c0                	test   %eax,%eax
    1f46:	74 20                	je     1f68 <remote_nic_defective_set_mode+0x38>
    1f48:	83 ec 08             	sub    $0x8,%esp
    1f4b:	8b 49 08             	mov    0x8(%ecx),%ecx
    1f4e:	51                   	push   %ecx
    1f4f:	52                   	push   %edx
    1f50:	ff d0                	call   *%eax
    1f52:	89 5d 08             	mov    %ebx,0x8(%ebp)
    1f55:	83 c4 10             	add    $0x10,%esp
    1f58:	8b 5d fc             	mov    -0x4(%ebp),%ebx
    1f5b:	89 45 0c             	mov    %eax,0xc(%ebp)
    1f5e:	c9                   	leave  
    1f5f:	e9 3c 3e 00 00       	jmp    5da0 <async_answer_0@plt>
    1f64:	8d 74 26 00          	lea    0x0(%esi,%eiz,1),%esi
    1f68:	89 5d 08             	mov    %ebx,0x8(%ebp)
    1f6b:	8b 5d fc             	mov    -0x4(%ebp),%ebx
    1f6e:	c7 45 0c f5 ff ff ff 	movl   $0xfffffff5,0xc(%ebp)
    1f75:	c9                   	leave  
    1f76:	e9 25 3e 00 00       	jmp    5da0 <async_answer_0@plt>
    1f7b:	90                   	nop
    1f7c:	8d 74 26 00          	lea    0x0(%esi,%eiz,1),%esi

00001f80 <remote_nic_broadcast_set_mode>:
    1f80:	55                   	push   %ebp
    1f81:	89 e5                	mov    %esp,%ebp
    1f83:	53                   	push   %ebx
    1f84:	53                   	push   %ebx
    1f85:	8b 45 0c             	mov    0xc(%ebp),%eax
    1f88:	8b 55 08             	mov    0x8(%ebp),%edx
    1f8b:	8b 5d 10             	mov    0x10(%ebp),%ebx
    1f8e:	8b 4d 14             	mov    0x14(%ebp),%ecx
    1f91:	8b 40 58             	mov    0x58(%eax),%eax
    1f94:	85 c0                	test   %eax,%eax
    1f96:	74 20                	je     1fb8 <remote_nic_broadcast_set_mode+0x38>
    1f98:	83 ec 08             	sub    $0x8,%esp
    1f9b:	8b 49 08             	mov    0x8(%ecx),%ecx
    1f9e:	51                   	push   %ecx
    1f9f:	52                   	push   %edx
    1fa0:	ff d0                	call   *%eax
    1fa2:	89 5d 08             	mov    %ebx,0x8(%ebp)
    1fa5:	83 c4 10             	add    $0x10,%esp
    1fa8:	8b 5d fc             	mov    -0x4(%ebp),%ebx
    1fab:	89 45 0c             	mov    %eax,0xc(%ebp)
    1fae:	c9                   	leave  
    1faf:	e9 ec 3d 00 00       	jmp    5da0 <async_answer_0@plt>
    1fb4:	8d 74 26 00          	lea    0x0(%esi,%eiz,1),%esi
    1fb8:	89 5d 08             	mov    %ebx,0x8(%ebp)
    1fbb:	8b 5d fc             	mov    -0x4(%ebp),%ebx
    1fbe:	c7 45 0c f5 ff ff ff 	movl   $0xfffffff5,0xc(%ebp)
    1fc5:	c9                   	leave  
    1fc6:	e9 d5 3d 00 00       	jmp    5da0 <async_answer_0@plt>
    1fcb:	90                   	nop
    1fcc:	8d 74 26 00          	lea    0x0(%esi,%eiz,1),%esi

00001fd0 <remote_nic_set_pause>:
    1fd0:	55                   	push   %ebp
    1fd1:	89 e5                	mov    %esp,%ebp
    1fd3:	56                   	push   %esi
    1fd4:	53                   	push   %ebx
    1fd5:	8b 55 0c             	mov    0xc(%ebp),%edx
    1fd8:	8b 4d 08             	mov    0x8(%ebp),%ecx
    1fdb:	8b 5d 10             	mov    0x10(%ebp),%ebx
    1fde:	8b 45 14             	mov    0x14(%ebp),%eax
    1fe1:	8b 52 40             	mov    0x40(%edx),%edx
    1fe4:	85 d2                	test   %edx,%edx
    1fe6:	74 28                	je     2010 <remote_nic_set_pause+0x40>
    1fe8:	31 f6                	xor    %esi,%esi
    1fea:	66 8b 70 10          	mov    0x10(%eax),%si
    1fee:	56                   	push   %esi
    1fef:	8b 70 0c             	mov    0xc(%eax),%esi
    1ff2:	56                   	push   %esi
    1ff3:	8b 40 08             	mov    0x8(%eax),%eax
    1ff6:	50                   	push   %eax
    1ff7:	51                   	push   %ecx
    1ff8:	ff d2                	call   *%edx
    1ffa:	89 5d 08             	mov    %ebx,0x8(%ebp)
    1ffd:	89 45 0c             	mov    %eax,0xc(%ebp)
    2000:	83 c4 10             	add    $0x10,%esp
    2003:	8d 65 f8             	lea    -0x8(%ebp),%esp
    2006:	5b                   	pop    %ebx
    2007:	5e                   	pop    %esi
    2008:	5d                   	pop    %ebp
    2009:	e9 92 3d 00 00       	jmp    5da0 <async_answer_0@plt>
    200e:	66 90                	xchg   %ax,%ax
    2010:	89 5d 08             	mov    %ebx,0x8(%ebp)
    2013:	c7 45 0c f5 ff ff ff 	movl   $0xfffffff5,0xc(%ebp)
    201a:	8d 65 f8             	lea    -0x8(%ebp),%esp
    201d:	5b                   	pop    %ebx
    201e:	5e                   	pop    %esi
    201f:	5d                   	pop    %ebp
    2020:	e9 7b 3d 00 00       	jmp    5da0 <async_answer_0@plt>
    2025:	8d 74 26 00          	lea    0x0(%esi,%eiz,1),%esi
    2029:	8d bc 27 00 00 00 00 	lea    0x0(%edi,%eiz,1),%edi

00002030 <remote_nic_autoneg_restart>:
    2030:	55                   	push   %ebp
    2031:	89 e5                	mov    %esp,%ebp
    2033:	53                   	push   %ebx
    2034:	50                   	push   %eax
    2035:	8b 45 0c             	mov    0xc(%ebp),%eax
    2038:	8b 55 08             	mov    0x8(%ebp),%edx
    203b:	8b 5d 10             	mov    0x10(%ebp),%ebx
    203e:	8b 40 38             	mov    0x38(%eax),%eax
    2041:	85 c0                	test   %eax,%eax
    2043:	74 1b                	je     2060 <remote_nic_autoneg_restart+0x30>
    2045:	83 ec 0c             	sub    $0xc,%esp
    2048:	52                   	push   %edx
    2049:	ff d0                	call   *%eax
    204b:	89 5d 08             	mov    %ebx,0x8(%ebp)
    204e:	83 c4 10             	add    $0x10,%esp
    2051:	8b 5d fc             	mov    -0x4(%ebp),%ebx
    2054:	89 45 0c             	mov    %eax,0xc(%ebp)
    2057:	c9                   	leave  
    2058:	e9 43 3d 00 00       	jmp    5da0 <async_answer_0@plt>
    205d:	8d 76 00             	lea    0x0(%esi),%esi
    2060:	89 5d 08             	mov    %ebx,0x8(%ebp)
    2063:	8b 5d fc             	mov    -0x4(%ebp),%ebx
    2066:	c7 45 0c f5 ff ff ff 	movl   $0xfffffff5,0xc(%ebp)
    206d:	c9                   	leave  
    206e:	e9 2d 3d 00 00       	jmp    5da0 <async_answer_0@plt>
    2073:	8d b6 00 00 00 00    	lea    0x0(%esi),%esi
    2079:	8d bc 27 00 00 00 00 	lea    0x0(%edi,%eiz,1),%edi

00002080 <remote_nic_autoneg_disable>:
    2080:	55                   	push   %ebp
    2081:	89 e5                	mov    %esp,%ebp
    2083:	53                   	push   %ebx
    2084:	50                   	push   %eax
    2085:	8b 45 0c             	mov    0xc(%ebp),%eax
    2088:	8b 55 08             	mov    0x8(%ebp),%edx
    208b:	8b 5d 10             	mov    0x10(%ebp),%ebx
    208e:	8b 40 30             	mov    0x30(%eax),%eax
    2091:	85 c0                	test   %eax,%eax
    2093:	74 1b                	je     20b0 <remote_nic_autoneg_disable+0x30>
    2095:	83 ec 0c             	sub    $0xc,%esp
    2098:	52                   	push   %edx
    2099:	ff d0                	call   *%eax
    209b:	89 5d 08             	mov    %ebx,0x8(%ebp)
    209e:	83 c4 10             	add    $0x10,%esp
    20a1:	8b 5d fc             	mov    -0x4(%ebp),%ebx
    20a4:	89 45 0c             	mov    %eax,0xc(%ebp)
    20a7:	c9                   	leave  
    20a8:	e9 f3 3c 00 00       	jmp    5da0 <async_answer_0@plt>
    20ad:	8d 76 00             	lea    0x0(%esi),%esi
    20b0:	89 5d 08             	mov    %ebx,0x8(%ebp)
    20b3:	8b 5d fc             	mov    -0x4(%ebp),%ebx
    20b6:	c7 45 0c f5 ff ff ff 	movl   $0xfffffff5,0xc(%ebp)
    20bd:	c9                   	leave  
    20be:	e9 dd 3c 00 00       	jmp    5da0 <async_answer_0@plt>
    20c3:	8d b6 00 00 00 00    	lea    0x0(%esi),%esi
    20c9:	8d bc 27 00 00 00 00 	lea    0x0(%edi,%eiz,1),%edi

000020d0 <remote_nic_autoneg_enable>:
    20d0:	55                   	push   %ebp
    20d1:	89 e5                	mov    %esp,%ebp
    20d3:	53                   	push   %ebx
    20d4:	53                   	push   %ebx
    20d5:	8b 45 0c             	mov    0xc(%ebp),%eax
    20d8:	8b 55 08             	mov    0x8(%ebp),%edx
    20db:	8b 5d 10             	mov    0x10(%ebp),%ebx
    20de:	8b 4d 14             	mov    0x14(%ebp),%ecx
    20e1:	8b 40 2c             	mov    0x2c(%eax),%eax
    20e4:	85 c0                	test   %eax,%eax
    20e6:	74 20                	je     2108 <remote_nic_autoneg_enable+0x38>
    20e8:	83 ec 08             	sub    $0x8,%esp
    20eb:	8b 49 08             	mov    0x8(%ecx),%ecx
    20ee:	51                   	push   %ecx
    20ef:	52                   	push   %edx
    20f0:	ff d0                	call   *%eax
    20f2:	89 5d 08             	mov    %ebx,0x8(%ebp)
    20f5:	83 c4 10             	add    $0x10,%esp
    20f8:	8b 5d fc             	mov    -0x4(%ebp),%ebx
    20fb:	89 45 0c             	mov    %eax,0xc(%ebp)
    20fe:	c9                   	leave  
    20ff:	e9 9c 3c 00 00       	jmp    5da0 <async_answer_0@plt>
    2104:	8d 74 26 00          	lea    0x0(%esi,%eiz,1),%esi
    2108:	89 5d 08             	mov    %ebx,0x8(%ebp)
    210b:	8b 5d fc             	mov    -0x4(%ebp),%ebx
    210e:	c7 45 0c f5 ff ff ff 	movl   $0xfffffff5,0xc(%ebp)
    2115:	c9                   	leave  
    2116:	e9 85 3c 00 00       	jmp    5da0 <async_answer_0@plt>
    211b:	90                   	nop
    211c:	8d 74 26 00          	lea    0x0(%esi,%eiz,1),%esi

00002120 <remote_nic_set_operation_mode>:
    2120:	55                   	push   %ebp
    2121:	89 e5                	mov    %esp,%ebp
    2123:	53                   	push   %ebx
    2124:	52                   	push   %edx
    2125:	8b 55 0c             	mov    0xc(%ebp),%edx
    2128:	8b 4d 08             	mov    0x8(%ebp),%ecx
    212b:	8b 5d 10             	mov    0x10(%ebp),%ebx
    212e:	8b 45 14             	mov    0x14(%ebp),%eax
    2131:	8b 52 28             	mov    0x28(%edx),%edx
    2134:	85 d2                	test   %edx,%edx
    2136:	74 20                	je     2158 <remote_nic_set_operation_mode+0x38>
    2138:	ff 70 10             	pushl  0x10(%eax)
    213b:	ff 70 0c             	pushl  0xc(%eax)
    213e:	8b 40 08             	mov    0x8(%eax),%eax
    2141:	50                   	push   %eax
    2142:	51                   	push   %ecx
    2143:	ff d2                	call   *%edx
    2145:	89 5d 08             	mov    %ebx,0x8(%ebp)
    2148:	83 c4 10             	add    $0x10,%esp
    214b:	8b 5d fc             	mov    -0x4(%ebp),%ebx
    214e:	89 45 0c             	mov    %eax,0xc(%ebp)
    2151:	c9                   	leave  
    2152:	e9 49 3c 00 00       	jmp    5da0 <async_answer_0@plt>
    2157:	90                   	nop
    2158:	89 5d 08             	mov    %ebx,0x8(%ebp)
    215b:	8b 5d fc             	mov    -0x4(%ebp),%ebx
    215e:	c7 45 0c f5 ff ff ff 	movl   $0xfffffff5,0xc(%ebp)
    2165:	c9                   	leave  
    2166:	e9 35 3c 00 00       	jmp    5da0 <async_answer_0@plt>
    216b:	90                   	nop
    216c:	8d 74 26 00          	lea    0x0(%esi,%eiz,1),%esi

00002170 <remote_nic_poll_set_mode>:
    2170:	55                   	push   %ebp
    2171:	31 d2                	xor    %edx,%edx
    2173:	89 e5                	mov    %esp,%ebp
    2175:	56                   	push   %esi
    2176:	53                   	push   %ebx
    2177:	83 ec 10             	sub    $0x10,%esp
    217a:	8b 45 14             	mov    0x14(%ebp),%eax
    217d:	8b 70 08             	mov    0x8(%eax),%esi
    2180:	8b 40 0c             	mov    0xc(%eax),%eax
    2183:	85 c0                	test   %eax,%eax
    2185:	75 31                	jne    21b8 <remote_nic_poll_set_mode+0x48>
    2187:	8b 45 0c             	mov    0xc(%ebp),%eax
    218a:	8b 80 9c 00 00 00    	mov    0x9c(%eax),%eax
    2190:	85 c0                	test   %eax,%eax
    2192:	0f 84 90 00 00 00    	je     2228 <remote_nic_poll_set_mode+0xb8>
    2198:	8b 5d 08             	mov    0x8(%ebp),%ebx
    219b:	51                   	push   %ecx
    219c:	52                   	push   %edx
    219d:	56                   	push   %esi
    219e:	53                   	push   %ebx
    219f:	ff d0                	call   *%eax
    21a1:	8b 4d 10             	mov    0x10(%ebp),%ecx
    21a4:	5e                   	pop    %esi
    21a5:	5a                   	pop    %edx
    21a6:	50                   	push   %eax
    21a7:	51                   	push   %ecx
    21a8:	e8 f3 3b 00 00       	call   5da0 <async_answer_0@plt>
    21ad:	83 c4 10             	add    $0x10,%esp
    21b0:	8d 65 f8             	lea    -0x8(%ebp),%esp
    21b3:	5b                   	pop    %ebx
    21b4:	5e                   	pop    %esi
    21b5:	5d                   	pop    %ebp
    21b6:	c3                   	ret    
    21b7:	90                   	nop
    21b8:	8d 45 e8             	lea    -0x18(%ebp),%eax
    21bb:	53                   	push   %ebx
    21bc:	53                   	push   %ebx
    21bd:	50                   	push   %eax
    21be:	8d 45 ec             	lea    -0x14(%ebp),%eax
    21c1:	50                   	push   %eax
    21c2:	e8 49 3d 00 00       	call   5f10 <async_data_write_receive@plt>
    21c7:	83 c4 10             	add    $0x10,%esp
    21ca:	84 c0                	test   %al,%al
    21cc:	74 72                	je     2240 <remote_nic_poll_set_mode+0xd0>
    21ce:	83 7d e8 08          	cmpl   $0x8,-0x18(%ebp)
    21d2:	74 24                	je     21f8 <remote_nic_poll_set_mode+0x88>
    21d4:	50                   	push   %eax
    21d5:	50                   	push   %eax
    21d6:	8b 45 ec             	mov    -0x14(%ebp),%eax
    21d9:	6a fd                	push   $0xfffffffd
    21db:	50                   	push   %eax
    21dc:	e8 bf 3b 00 00       	call   5da0 <async_answer_0@plt>
    21e1:	8b 4d 10             	mov    0x10(%ebp),%ecx
    21e4:	58                   	pop    %eax
    21e5:	5a                   	pop    %edx
    21e6:	6a fd                	push   $0xfffffffd
    21e8:	51                   	push   %ecx
    21e9:	e8 b2 3b 00 00       	call   5da0 <async_answer_0@plt>
    21ee:	83 c4 10             	add    $0x10,%esp
    21f1:	8d 65 f8             	lea    -0x8(%ebp),%esp
    21f4:	5b                   	pop    %ebx
    21f5:	5e                   	pop    %esi
    21f6:	5d                   	pop    %ebp
    21f7:	c3                   	ret    
    21f8:	8d 5d f0             	lea    -0x10(%ebp),%ebx
    21fb:	50                   	push   %eax
    21fc:	8b 45 ec             	mov    -0x14(%ebp),%eax
    21ff:	6a 08                	push   $0x8
    2201:	53                   	push   %ebx
    2202:	50                   	push   %eax
    2203:	e8 c8 3c 00 00       	call   5ed0 <async_data_write_finalize@plt>
    2208:	83 c4 10             	add    $0x10,%esp
    220b:	89 da                	mov    %ebx,%edx
    220d:	85 c0                	test   %eax,%eax
    220f:	0f 84 72 ff ff ff    	je     2187 <remote_nic_poll_set_mode+0x17>
    2215:	8b 75 10             	mov    0x10(%ebp),%esi
    2218:	53                   	push   %ebx
    2219:	53                   	push   %ebx
    221a:	6a f2                	push   $0xfffffff2
    221c:	56                   	push   %esi
    221d:	e8 7e 3b 00 00       	call   5da0 <async_answer_0@plt>
    2222:	83 c4 10             	add    $0x10,%esp
    2225:	eb 89                	jmp    21b0 <remote_nic_poll_set_mode+0x40>
    2227:	90                   	nop
    2228:	8b 55 10             	mov    0x10(%ebp),%edx
    222b:	50                   	push   %eax
    222c:	50                   	push   %eax
    222d:	6a f5                	push   $0xfffffff5
    222f:	52                   	push   %edx
    2230:	e8 6b 3b 00 00       	call   5da0 <async_answer_0@plt>
    2235:	83 c4 10             	add    $0x10,%esp
    2238:	8d 65 f8             	lea    -0x8(%ebp),%esp
    223b:	5b                   	pop    %ebx
    223c:	5e                   	pop    %esi
    223d:	5d                   	pop    %ebp
    223e:	c3                   	ret    
    223f:	90                   	nop
    2240:	8b 75 ec             	mov    -0x14(%ebp),%esi
    2243:	53                   	push   %ebx
    2244:	53                   	push   %ebx
    2245:	6a f2                	push   $0xfffffff2
    2247:	56                   	push   %esi
    2248:	e8 53 3b 00 00       	call   5da0 <async_answer_0@plt>
    224d:	8b 4d 10             	mov    0x10(%ebp),%ecx
    2250:	58                   	pop    %eax
    2251:	5a                   	pop    %edx
    2252:	6a f2                	push   $0xfffffff2
    2254:	51                   	push   %ecx
    2255:	e8 46 3b 00 00       	call   5da0 <async_answer_0@plt>
    225a:	83 c4 10             	add    $0x10,%esp
    225d:	e9 4e ff ff ff       	jmp    21b0 <remote_nic_poll_set_mode+0x40>
    2262:	8d b4 26 00 00 00 00 	lea    0x0(%esi,%eiz,1),%esi
    2269:	8d bc 27 00 00 00 00 	lea    0x0(%edi,%eiz,1),%edi

00002270 <remote_nic_vlan_set_mask>:
    2270:	55                   	push   %ebp
    2271:	31 d2                	xor    %edx,%edx
    2273:	89 e5                	mov    %esp,%ebp
    2275:	53                   	push   %ebx
    2276:	81 ec 14 02 00 00    	sub    $0x214,%esp
    227c:	8b 45 14             	mov    0x14(%ebp),%eax
    227f:	8b 40 08             	mov    0x8(%eax),%eax
    2282:	85 c0                	test   %eax,%eax
    2284:	75 32                	jne    22b8 <remote_nic_vlan_set_mask+0x48>
    2286:	8b 45 0c             	mov    0xc(%ebp),%eax
    2289:	8b 40 70             	mov    0x70(%eax),%eax
    228c:	85 c0                	test   %eax,%eax
    228e:	0f 84 bc 00 00 00    	je     2350 <remote_nic_vlan_set_mask+0xe0>
    2294:	8b 5d 08             	mov    0x8(%ebp),%ebx
    2297:	51                   	push   %ecx
    2298:	51                   	push   %ecx
    2299:	52                   	push   %edx
    229a:	53                   	push   %ebx
    229b:	ff d0                	call   *%eax
    229d:	8b 5d 10             	mov    0x10(%ebp),%ebx
    22a0:	5a                   	pop    %edx
    22a1:	59                   	pop    %ecx
    22a2:	50                   	push   %eax
    22a3:	53                   	push   %ebx
    22a4:	e8 f7 3a 00 00       	call   5da0 <async_answer_0@plt>
    22a9:	83 c4 10             	add    $0x10,%esp
    22ac:	8b 5d fc             	mov    -0x4(%ebp),%ebx
    22af:	c9                   	leave  
    22b0:	c3                   	ret    
    22b1:	8d b4 26 00 00 00 00 	lea    0x0(%esi,%eiz,1),%esi
    22b8:	8d 85 f4 fd ff ff    	lea    -0x20c(%ebp),%eax
    22be:	53                   	push   %ebx
    22bf:	53                   	push   %ebx
    22c0:	50                   	push   %eax
    22c1:	8d 85 f0 fd ff ff    	lea    -0x210(%ebp),%eax
    22c7:	50                   	push   %eax
    22c8:	e8 43 3c 00 00       	call   5f10 <async_data_write_receive@plt>
    22cd:	83 c4 10             	add    $0x10,%esp
    22d0:	84 c0                	test   %al,%al
    22d2:	0f 84 90 00 00 00    	je     2368 <remote_nic_vlan_set_mask+0xf8>
    22d8:	81 bd f4 fd ff ff 00 	cmpl   $0x200,-0x20c(%ebp)
    22df:	02 00 00 
    22e2:	74 2c                	je     2310 <remote_nic_vlan_set_mask+0xa0>
    22e4:	50                   	push   %eax
    22e5:	50                   	push   %eax
    22e6:	8b 85 f0 fd ff ff    	mov    -0x210(%ebp),%eax
    22ec:	6a fd                	push   $0xfffffffd
    22ee:	50                   	push   %eax
    22ef:	e8 ac 3a 00 00       	call   5da0 <async_answer_0@plt>
    22f4:	8b 5d 10             	mov    0x10(%ebp),%ebx
    22f7:	5a                   	pop    %edx
    22f8:	59                   	pop    %ecx
    22f9:	6a fd                	push   $0xfffffffd
    22fb:	53                   	push   %ebx
    22fc:	e8 9f 3a 00 00       	call   5da0 <async_answer_0@plt>
    2301:	83 c4 10             	add    $0x10,%esp
    2304:	8b 5d fc             	mov    -0x4(%ebp),%ebx
    2307:	c9                   	leave  
    2308:	c3                   	ret    
    2309:	8d b4 26 00 00 00 00 	lea    0x0(%esi,%eiz,1),%esi
    2310:	8d 9d f8 fd ff ff    	lea    -0x208(%ebp),%ebx
    2316:	50                   	push   %eax
    2317:	8b 85 f0 fd ff ff    	mov    -0x210(%ebp),%eax
    231d:	68 00 02 00 00       	push   $0x200
    2322:	53                   	push   %ebx
    2323:	50                   	push   %eax
    2324:	e8 a7 3b 00 00       	call   5ed0 <async_data_write_finalize@plt>
    2329:	83 c4 10             	add    $0x10,%esp
    232c:	89 da                	mov    %ebx,%edx
    232e:	85 c0                	test   %eax,%eax
    2330:	0f 84 50 ff ff ff    	je     2286 <remote_nic_vlan_set_mask+0x16>
    2336:	50                   	push   %eax
    2337:	50                   	push   %eax
    2338:	8b 45 10             	mov    0x10(%ebp),%eax
    233b:	6a f2                	push   $0xfffffff2
    233d:	50                   	push   %eax
    233e:	e8 5d 3a 00 00       	call   5da0 <async_answer_0@plt>
    2343:	83 c4 10             	add    $0x10,%esp
    2346:	e9 61 ff ff ff       	jmp    22ac <remote_nic_vlan_set_mask+0x3c>
    234b:	90                   	nop
    234c:	8d 74 26 00          	lea    0x0(%esi,%eiz,1),%esi
    2350:	8b 55 10             	mov    0x10(%ebp),%edx
    2353:	50                   	push   %eax
    2354:	50                   	push   %eax
    2355:	6a f5                	push   $0xfffffff5
    2357:	52                   	push   %edx
    2358:	e8 43 3a 00 00       	call   5da0 <async_answer_0@plt>
    235d:	83 c4 10             	add    $0x10,%esp
    2360:	8b 5d fc             	mov    -0x4(%ebp),%ebx
    2363:	c9                   	leave  
    2364:	c3                   	ret    
    2365:	8d 76 00             	lea    0x0(%esi),%esi
    2368:	50                   	push   %eax
    2369:	50                   	push   %eax
    236a:	8b 85 f0 fd ff ff    	mov    -0x210(%ebp),%eax
    2370:	6a f2                	push   $0xfffffff2
    2372:	50                   	push   %eax
    2373:	e8 28 3a 00 00       	call   5da0 <async_answer_0@plt>
    2378:	8b 4d 10             	mov    0x10(%ebp),%ecx
    237b:	58                   	pop    %eax
    237c:	5a                   	pop    %edx
    237d:	6a f2                	push   $0xfffffff2
    237f:	51                   	push   %ecx
    2380:	e8 1b 3a 00 00       	call   5da0 <async_answer_0@plt>
    2385:	83 c4 10             	add    $0x10,%esp
    2388:	e9 1f ff ff ff       	jmp    22ac <remote_nic_vlan_set_mask+0x3c>
    238d:	8d 76 00             	lea    0x0(%esi),%esi

00002390 <remote_nic_set_address>:
    2390:	55                   	push   %ebp
    2391:	89 e5                	mov    %esp,%ebp
    2393:	53                   	push   %ebx
    2394:	83 ec 1c             	sub    $0x1c,%esp
    2397:	8d 45 e8             	lea    -0x18(%ebp),%eax
    239a:	50                   	push   %eax
    239b:	8d 45 ec             	lea    -0x14(%ebp),%eax
    239e:	50                   	push   %eax
    239f:	e8 6c 3b 00 00       	call   5f10 <async_data_write_receive@plt>
    23a4:	83 c4 10             	add    $0x10,%esp
    23a7:	84 c0                	test   %al,%al
    23a9:	74 75                	je     2420 <remote_nic_set_address+0x90>
    23ab:	8b 45 e8             	mov    -0x18(%ebp),%eax
    23ae:	83 f8 06             	cmp    $0x6,%eax
    23b1:	77 45                	ja     23f8 <remote_nic_set_address+0x68>
    23b3:	8b 4d ec             	mov    -0x14(%ebp),%ecx
    23b6:	8d 5d f2             	lea    -0xe(%ebp),%ebx
    23b9:	52                   	push   %edx
    23ba:	50                   	push   %eax
    23bb:	53                   	push   %ebx
    23bc:	51                   	push   %ecx
    23bd:	e8 0e 3b 00 00       	call   5ed0 <async_data_write_finalize@plt>
    23c2:	83 c4 10             	add    $0x10,%esp
    23c5:	85 c0                	test   %eax,%eax
    23c7:	75 7f                	jne    2448 <remote_nic_set_address+0xb8>
    23c9:	8b 45 0c             	mov    0xc(%ebp),%eax
    23cc:	8b 40 14             	mov    0x14(%eax),%eax
    23cf:	85 c0                	test   %eax,%eax
    23d1:	0f 84 89 00 00 00    	je     2460 <remote_nic_set_address+0xd0>
    23d7:	51                   	push   %ecx
    23d8:	51                   	push   %ecx
    23d9:	53                   	push   %ebx
    23da:	8b 5d 08             	mov    0x8(%ebp),%ebx
    23dd:	53                   	push   %ebx
    23de:	ff d0                	call   *%eax
    23e0:	8b 5d 10             	mov    0x10(%ebp),%ebx
    23e3:	5a                   	pop    %edx
    23e4:	59                   	pop    %ecx
    23e5:	50                   	push   %eax
    23e6:	53                   	push   %ebx
    23e7:	e8 b4 39 00 00       	call   5da0 <async_answer_0@plt>
    23ec:	83 c4 10             	add    $0x10,%esp
    23ef:	8b 5d fc             	mov    -0x4(%ebp),%ebx
    23f2:	c9                   	leave  
    23f3:	c3                   	ret    
    23f4:	8d 74 26 00          	lea    0x0(%esi,%eiz,1),%esi
    23f8:	8b 45 ec             	mov    -0x14(%ebp),%eax
    23fb:	53                   	push   %ebx
    23fc:	53                   	push   %ebx
    23fd:	6a fd                	push   $0xfffffffd
    23ff:	50                   	push   %eax
    2400:	e8 9b 39 00 00       	call   5da0 <async_answer_0@plt>
    2405:	8b 4d 10             	mov    0x10(%ebp),%ecx
    2408:	58                   	pop    %eax
    2409:	5a                   	pop    %edx
    240a:	6a fd                	push   $0xfffffffd
    240c:	51                   	push   %ecx
    240d:	e8 8e 39 00 00       	call   5da0 <async_answer_0@plt>
    2412:	83 c4 10             	add    $0x10,%esp
    2415:	8b 5d fc             	mov    -0x4(%ebp),%ebx
    2418:	c9                   	leave  
    2419:	c3                   	ret    
    241a:	8d b6 00 00 00 00    	lea    0x0(%esi),%esi
    2420:	8b 45 ec             	mov    -0x14(%ebp),%eax
    2423:	53                   	push   %ebx
    2424:	53                   	push   %ebx
    2425:	6a f2                	push   $0xfffffff2
    2427:	50                   	push   %eax
    2428:	e8 73 39 00 00       	call   5da0 <async_answer_0@plt>
    242d:	8b 4d 10             	mov    0x10(%ebp),%ecx
    2430:	58                   	pop    %eax
    2431:	5a                   	pop    %edx
    2432:	6a f2                	push   $0xfffffff2
    2434:	51                   	push   %ecx
    2435:	e8 66 39 00 00       	call   5da0 <async_answer_0@plt>
    243a:	83 c4 10             	add    $0x10,%esp
    243d:	8b 5d fc             	mov    -0x4(%ebp),%ebx
    2440:	c9                   	leave  
    2441:	c3                   	ret    
    2442:	8d b6 00 00 00 00    	lea    0x0(%esi),%esi
    2448:	50                   	push   %eax
    2449:	50                   	push   %eax
    244a:	8b 45 10             	mov    0x10(%ebp),%eax
    244d:	6a f2                	push   $0xfffffff2
    244f:	50                   	push   %eax
    2450:	e8 4b 39 00 00       	call   5da0 <async_answer_0@plt>
    2455:	83 c4 10             	add    $0x10,%esp
    2458:	8b 5d fc             	mov    -0x4(%ebp),%ebx
    245b:	c9                   	leave  
    245c:	c3                   	ret    
    245d:	8d 76 00             	lea    0x0(%esi),%esi
    2460:	8b 55 10             	mov    0x10(%ebp),%edx
    2463:	50                   	push   %eax
    2464:	50                   	push   %eax
    2465:	6a f5                	push   $0xfffffff5
    2467:	52                   	push   %edx
    2468:	e8 33 39 00 00       	call   5da0 <async_answer_0@plt>
    246d:	83 c4 10             	add    $0x10,%esp
    2470:	e9 7a ff ff ff       	jmp    23ef <remote_nic_set_address+0x5f>
    2475:	8d 74 26 00          	lea    0x0(%esi,%eiz,1),%esi
    2479:	8d bc 27 00 00 00 00 	lea    0x0(%edi,%eiz,1),%edi

00002480 <remote_nic_poll_get_mode>:
    2480:	55                   	push   %ebp
    2481:	89 e5                	mov    %esp,%ebp
    2483:	57                   	push   %edi
    2484:	56                   	push   %esi
    2485:	53                   	push   %ebx
    2486:	83 ec 2c             	sub    $0x2c,%esp
    2489:	8b 45 0c             	mov    0xc(%ebp),%eax
    248c:	8b 80 98 00 00 00    	mov    0x98(%eax),%eax
    2492:	85 c0                	test   %eax,%eax
    2494:	0f 84 d6 00 00 00    	je     2570 <remote_nic_poll_get_mode+0xf0>
    249a:	8b 55 14             	mov    0x14(%ebp),%edx
    249d:	8b 4d 08             	mov    0x8(%ebp),%ecx
    24a0:	c7 45 d4 00 00 00 00 	movl   $0x0,-0x2c(%ebp)
    24a7:	c7 45 e0 00 00 00 00 	movl   $0x0,-0x20(%ebp)
    24ae:	8b 72 08             	mov    0x8(%edx),%esi
    24b1:	c7 45 e4 00 00 00 00 	movl   $0x0,-0x1c(%ebp)
    24b8:	8d 5d e0             	lea    -0x20(%ebp),%ebx
    24bb:	52                   	push   %edx
    24bc:	8d 55 d4             	lea    -0x2c(%ebp),%edx
    24bf:	53                   	push   %ebx
    24c0:	52                   	push   %edx
    24c1:	51                   	push   %ecx
    24c2:	ff d0                	call   *%eax
    24c4:	83 c4 10             	add    $0x10,%esp
    24c7:	89 c7                	mov    %eax,%edi
    24c9:	85 c0                	test   %eax,%eax
    24cb:	75 5b                	jne    2528 <remote_nic_poll_get_mode+0xa8>
    24cd:	85 f6                	test   %esi,%esi
    24cf:	74 57                	je     2528 <remote_nic_poll_get_mode+0xa8>
    24d1:	50                   	push   %eax
    24d2:	50                   	push   %eax
    24d3:	8d 45 d8             	lea    -0x28(%ebp),%eax
    24d6:	50                   	push   %eax
    24d7:	8d 45 dc             	lea    -0x24(%ebp),%eax
    24da:	50                   	push   %eax
    24db:	e8 70 39 00 00       	call   5e50 <async_data_read_receive@plt>
    24e0:	83 c4 10             	add    $0x10,%esp
    24e3:	84 c0                	test   %al,%al
    24e5:	74 61                	je     2548 <remote_nic_poll_get_mode+0xc8>
    24e7:	83 7d d8 08          	cmpl   $0x8,-0x28(%ebp)
    24eb:	74 2b                	je     2518 <remote_nic_poll_get_mode+0x98>
    24ed:	50                   	push   %eax
    24ee:	50                   	push   %eax
    24ef:	8b 45 dc             	mov    -0x24(%ebp),%eax
    24f2:	6a fd                	push   $0xfffffffd
    24f4:	50                   	push   %eax
    24f5:	e8 a6 38 00 00       	call   5da0 <async_answer_0@plt>
    24fa:	8b 4d 10             	mov    0x10(%ebp),%ecx
    24fd:	58                   	pop    %eax
    24fe:	5a                   	pop    %edx
    24ff:	6a fd                	push   $0xfffffffd
    2501:	51                   	push   %ecx
    2502:	e8 99 38 00 00       	call   5da0 <async_answer_0@plt>
    2507:	83 c4 10             	add    $0x10,%esp
    250a:	8d 65 f4             	lea    -0xc(%ebp),%esp
    250d:	5b                   	pop    %ebx
    250e:	5e                   	pop    %esi
    250f:	5f                   	pop    %edi
    2510:	5d                   	pop    %ebp
    2511:	c3                   	ret    
    2512:	8d b6 00 00 00 00    	lea    0x0(%esi),%esi
    2518:	8b 45 dc             	mov    -0x24(%ebp),%eax
    251b:	56                   	push   %esi
    251c:	6a 08                	push   $0x8
    251e:	53                   	push   %ebx
    251f:	50                   	push   %eax
    2520:	e8 4b 38 00 00       	call   5d70 <async_data_read_finalize@plt>
    2525:	83 c4 10             	add    $0x10,%esp
    2528:	8b 55 d4             	mov    -0x2c(%ebp),%edx
    252b:	8b 4d 10             	mov    0x10(%ebp),%ecx
    252e:	50                   	push   %eax
    252f:	52                   	push   %edx
    2530:	57                   	push   %edi
    2531:	51                   	push   %ecx
    2532:	e8 69 39 00 00       	call   5ea0 <async_answer_1@plt>
    2537:	83 c4 10             	add    $0x10,%esp
    253a:	8d 65 f4             	lea    -0xc(%ebp),%esp
    253d:	5b                   	pop    %ebx
    253e:	5e                   	pop    %esi
    253f:	5f                   	pop    %edi
    2540:	5d                   	pop    %ebp
    2541:	c3                   	ret    
    2542:	8d b6 00 00 00 00    	lea    0x0(%esi),%esi
    2548:	8b 75 dc             	mov    -0x24(%ebp),%esi
    254b:	53                   	push   %ebx
    254c:	53                   	push   %ebx
    254d:	6a f2                	push   $0xfffffff2
    254f:	56                   	push   %esi
    2550:	e8 4b 38 00 00       	call   5da0 <async_answer_0@plt>
    2555:	5f                   	pop    %edi
    2556:	58                   	pop    %eax
    2557:	8b 45 10             	mov    0x10(%ebp),%eax
    255a:	6a f2                	push   $0xfffffff2
    255c:	50                   	push   %eax
    255d:	e8 3e 38 00 00       	call   5da0 <async_answer_0@plt>
    2562:	83 c4 10             	add    $0x10,%esp
    2565:	8d 65 f4             	lea    -0xc(%ebp),%esp
    2568:	5b                   	pop    %ebx
    2569:	5e                   	pop    %esi
    256a:	5f                   	pop    %edi
    256b:	5d                   	pop    %ebp
    256c:	c3                   	ret    
    256d:	8d 76 00             	lea    0x0(%esi),%esi
    2570:	8b 75 10             	mov    0x10(%ebp),%esi
    2573:	53                   	push   %ebx
    2574:	53                   	push   %ebx
    2575:	6a f5                	push   $0xfffffff5
    2577:	56                   	push   %esi
    2578:	e8 23 38 00 00       	call   5da0 <async_answer_0@plt>
    257d:	83 c4 10             	add    $0x10,%esp
    2580:	8d 65 f4             	lea    -0xc(%ebp),%esp
    2583:	5b                   	pop    %ebx
    2584:	5e                   	pop    %esi
    2585:	5f                   	pop    %edi
    2586:	5d                   	pop    %ebp
    2587:	c3                   	ret    
    2588:	90                   	nop
    2589:	8d b4 26 00 00 00 00 	lea    0x0(%esi,%eiz,1),%esi

00002590 <remote_nic_wol_virtue_get_caps>:
    2590:	55                   	push   %ebp
    2591:	89 e5                	mov    %esp,%ebp
    2593:	83 ec 18             	sub    $0x18,%esp
    2596:	8b 45 0c             	mov    0xc(%ebp),%eax
    2599:	8b 80 88 00 00 00    	mov    0x88(%eax),%eax
    259f:	85 c0                	test   %eax,%eax
    25a1:	74 35                	je     25d8 <remote_nic_wol_virtue_get_caps+0x48>
    25a3:	52                   	push   %edx
    25a4:	8d 55 f4             	lea    -0xc(%ebp),%edx
    25a7:	52                   	push   %edx
    25a8:	8b 55 14             	mov    0x14(%ebp),%edx
    25ab:	c7 45 f4 ff ff ff ff 	movl   $0xffffffff,-0xc(%ebp)
    25b2:	8b 4a 08             	mov    0x8(%edx),%ecx
    25b5:	8b 55 08             	mov    0x8(%ebp),%edx
    25b8:	51                   	push   %ecx
    25b9:	52                   	push   %edx
    25ba:	ff d0                	call   *%eax
    25bc:	83 c4 0c             	add    $0xc,%esp
    25bf:	8b 4d f4             	mov    -0xc(%ebp),%ecx
    25c2:	51                   	push   %ecx
    25c3:	50                   	push   %eax
    25c4:	8b 45 10             	mov    0x10(%ebp),%eax
    25c7:	50                   	push   %eax
    25c8:	e8 d3 38 00 00       	call   5ea0 <async_answer_1@plt>
    25cd:	83 c4 10             	add    $0x10,%esp
    25d0:	c9                   	leave  
    25d1:	c3                   	ret    
    25d2:	8d b6 00 00 00 00    	lea    0x0(%esi),%esi
    25d8:	50                   	push   %eax
    25d9:	50                   	push   %eax
    25da:	8b 45 10             	mov    0x10(%ebp),%eax
    25dd:	6a f5                	push   $0xfffffff5
    25df:	50                   	push   %eax
    25e0:	e8 bb 37 00 00       	call   5da0 <async_answer_0@plt>
    25e5:	83 c4 10             	add    $0x10,%esp
    25e8:	c9                   	leave  
    25e9:	c3                   	ret    
    25ea:	8d b6 00 00 00 00    	lea    0x0(%esi),%esi

000025f0 <remote_nic_defective_get_mode>:
    25f0:	55                   	push   %ebp
    25f1:	89 e5                	mov    %esp,%ebp
    25f3:	83 ec 18             	sub    $0x18,%esp
    25f6:	8b 45 0c             	mov    0xc(%ebp),%eax
    25f9:	8b 40 5c             	mov    0x5c(%eax),%eax
    25fc:	85 c0                	test   %eax,%eax
    25fe:	74 30                	je     2630 <remote_nic_defective_get_mode+0x40>
    2600:	8b 4d 08             	mov    0x8(%ebp),%ecx
    2603:	c7 45 f4 00 00 00 00 	movl   $0x0,-0xc(%ebp)
    260a:	52                   	push   %edx
    260b:	52                   	push   %edx
    260c:	8d 55 f4             	lea    -0xc(%ebp),%edx
    260f:	52                   	push   %edx
    2610:	51                   	push   %ecx
    2611:	ff d0                	call   *%eax
    2613:	83 c4 0c             	add    $0xc,%esp
    2616:	8b 55 f4             	mov    -0xc(%ebp),%edx
    2619:	8b 4d 10             	mov    0x10(%ebp),%ecx
    261c:	52                   	push   %edx
    261d:	50                   	push   %eax
    261e:	51                   	push   %ecx
    261f:	e8 7c 38 00 00       	call   5ea0 <async_answer_1@plt>
    2624:	83 c4 10             	add    $0x10,%esp
    2627:	c9                   	leave  
    2628:	c3                   	ret    
    2629:	8d b4 26 00 00 00 00 	lea    0x0(%esi,%eiz,1),%esi
    2630:	50                   	push   %eax
    2631:	50                   	push   %eax
    2632:	8b 45 10             	mov    0x10(%ebp),%eax
    2635:	6a f5                	push   $0xfffffff5
    2637:	50                   	push   %eax
    2638:	e8 63 37 00 00       	call   5da0 <async_answer_0@plt>
    263d:	83 c4 10             	add    $0x10,%esp
    2640:	c9                   	leave  
    2641:	c3                   	ret    
    2642:	8d b4 26 00 00 00 00 	lea    0x0(%esi,%eiz,1),%esi
    2649:	8d bc 27 00 00 00 00 	lea    0x0(%edi,%eiz,1),%edi

00002650 <remote_nic_broadcast_get_mode>:
    2650:	55                   	push   %ebp
    2651:	89 e5                	mov    %esp,%ebp
    2653:	83 ec 18             	sub    $0x18,%esp
    2656:	8b 45 0c             	mov    0xc(%ebp),%eax
    2659:	8b 40 54             	mov    0x54(%eax),%eax
    265c:	85 c0                	test   %eax,%eax
    265e:	74 30                	je     2690 <remote_nic_broadcast_get_mode+0x40>
    2660:	8b 4d 08             	mov    0x8(%ebp),%ecx
    2663:	c7 45 f4 02 00 00 00 	movl   $0x2,-0xc(%ebp)
    266a:	52                   	push   %edx
    266b:	52                   	push   %edx
    266c:	8d 55 f4             	lea    -0xc(%ebp),%edx
    266f:	52                   	push   %edx
    2670:	51                   	push   %ecx
    2671:	ff d0                	call   *%eax
    2673:	83 c4 0c             	add    $0xc,%esp
    2676:	8b 55 f4             	mov    -0xc(%ebp),%edx
    2679:	8b 4d 10             	mov    0x10(%ebp),%ecx
    267c:	52                   	push   %edx
    267d:	50                   	push   %eax
    267e:	51                   	push   %ecx
    267f:	e8 1c 38 00 00       	call   5ea0 <async_answer_1@plt>
    2684:	83 c4 10             	add    $0x10,%esp
    2687:	c9                   	leave  
    2688:	c3                   	ret    
    2689:	8d b4 26 00 00 00 00 	lea    0x0(%esi,%eiz,1),%esi
    2690:	50                   	push   %eax
    2691:	50                   	push   %eax
    2692:	8b 45 10             	mov    0x10(%ebp),%eax
    2695:	6a f5                	push   $0xfffffff5
    2697:	50                   	push   %eax
    2698:	e8 03 37 00 00       	call   5da0 <async_answer_0@plt>
    269d:	83 c4 10             	add    $0x10,%esp
    26a0:	c9                   	leave  
    26a1:	c3                   	ret    
    26a2:	8d b4 26 00 00 00 00 	lea    0x0(%esi,%eiz,1),%esi
    26a9:	8d bc 27 00 00 00 00 	lea    0x0(%edi,%eiz,1),%edi

000026b0 <remote_nic_get_cable_state>:
    26b0:	55                   	push   %ebp
    26b1:	89 e5                	mov    %esp,%ebp
    26b3:	83 ec 18             	sub    $0x18,%esp
    26b6:	8b 45 0c             	mov    0xc(%ebp),%eax
    26b9:	8b 40 20             	mov    0x20(%eax),%eax
    26bc:	85 c0                	test   %eax,%eax
    26be:	74 30                	je     26f0 <remote_nic_get_cable_state+0x40>
    26c0:	8b 4d 08             	mov    0x8(%ebp),%ecx
    26c3:	c7 45 f4 00 00 00 00 	movl   $0x0,-0xc(%ebp)
    26ca:	52                   	push   %edx
    26cb:	52                   	push   %edx
    26cc:	8d 55 f4             	lea    -0xc(%ebp),%edx
    26cf:	52                   	push   %edx
    26d0:	51                   	push   %ecx
    26d1:	ff d0                	call   *%eax
    26d3:	83 c4 0c             	add    $0xc,%esp
    26d6:	8b 55 f4             	mov    -0xc(%ebp),%edx
    26d9:	8b 4d 10             	mov    0x10(%ebp),%ecx
    26dc:	52                   	push   %edx
    26dd:	50                   	push   %eax
    26de:	51                   	push   %ecx
    26df:	e8 bc 37 00 00       	call   5ea0 <async_answer_1@plt>
    26e4:	83 c4 10             	add    $0x10,%esp
    26e7:	c9                   	leave  
    26e8:	c3                   	ret    
    26e9:	8d b4 26 00 00 00 00 	lea    0x0(%esi,%eiz,1),%esi
    26f0:	50                   	push   %eax
    26f1:	50                   	push   %eax
    26f2:	8b 45 10             	mov    0x10(%ebp),%eax
    26f5:	6a f5                	push   $0xfffffff5
    26f7:	50                   	push   %eax
    26f8:	e8 a3 36 00 00       	call   5da0 <async_answer_0@plt>
    26fd:	83 c4 10             	add    $0x10,%esp
    2700:	c9                   	leave  
    2701:	c3                   	ret    
    2702:	8d b4 26 00 00 00 00 	lea    0x0(%esi,%eiz,1),%esi
    2709:	8d bc 27 00 00 00 00 	lea    0x0(%edi,%eiz,1),%edi

00002710 <remote_nic_offload_probe>:
    2710:	55                   	push   %ebp
    2711:	89 e5                	mov    %esp,%ebp
    2713:	83 ec 18             	sub    $0x18,%esp
    2716:	8b 45 0c             	mov    0xc(%ebp),%eax
    2719:	8b 80 90 00 00 00    	mov    0x90(%eax),%eax
    271f:	85 c0                	test   %eax,%eax
    2721:	74 35                	je     2758 <remote_nic_offload_probe+0x48>
    2723:	52                   	push   %edx
    2724:	8d 55 f4             	lea    -0xc(%ebp),%edx
    2727:	52                   	push   %edx
    2728:	8b 4d 08             	mov    0x8(%ebp),%ecx
    272b:	8d 55 f0             	lea    -0x10(%ebp),%edx
    272e:	c7 45 f0 00 00 00 00 	movl   $0x0,-0x10(%ebp)
    2735:	c7 45 f4 00 00 00 00 	movl   $0x0,-0xc(%ebp)
    273c:	52                   	push   %edx
    273d:	51                   	push   %ecx
    273e:	ff d0                	call   *%eax
    2740:	8b 55 f4             	mov    -0xc(%ebp),%edx
    2743:	8b 4d f0             	mov    -0x10(%ebp),%ecx
    2746:	52                   	push   %edx
    2747:	51                   	push   %ecx
    2748:	50                   	push   %eax
    2749:	8b 45 10             	mov    0x10(%ebp),%eax
    274c:	50                   	push   %eax
    274d:	e8 ae 36 00 00       	call   5e00 <async_answer_2@plt>
    2752:	83 c4 20             	add    $0x20,%esp
    2755:	c9                   	leave  
    2756:	c3                   	ret    
    2757:	90                   	nop
    2758:	50                   	push   %eax
    2759:	50                   	push   %eax
    275a:	8b 45 10             	mov    0x10(%ebp),%eax
    275d:	6a f5                	push   $0xfffffff5
    275f:	50                   	push   %eax
    2760:	e8 3b 36 00 00       	call   5da0 <async_answer_0@plt>
    2765:	83 c4 10             	add    $0x10,%esp
    2768:	c9                   	leave  
    2769:	c3                   	ret    
    276a:	8d b6 00 00 00 00    	lea    0x0(%esi),%esi

00002770 <remote_nic_vlan_get_mask>:
    2770:	55                   	push   %ebp
    2771:	89 e5                	mov    %esp,%ebp
    2773:	56                   	push   %esi
    2774:	53                   	push   %ebx
    2775:	81 ec 10 02 00 00    	sub    $0x210,%esp
    277b:	8b 5d 0c             	mov    0xc(%ebp),%ebx
    277e:	8b 43 6c             	mov    0x6c(%ebx),%eax
    2781:	85 c0                	test   %eax,%eax
    2783:	0f 84 a7 00 00 00    	je     2830 <remote_nic_vlan_get_mask+0xc0>
    2789:	8d b5 f8 fd ff ff    	lea    -0x208(%ebp),%esi
    278f:	50                   	push   %eax
    2790:	68 00 02 00 00       	push   $0x200
    2795:	6a 00                	push   $0x0
    2797:	56                   	push   %esi
    2798:	e8 a3 36 00 00       	call   5e40 <memset@plt>
    279d:	8b 4d 08             	mov    0x8(%ebp),%ecx
    27a0:	58                   	pop    %eax
    27a1:	5a                   	pop    %edx
    27a2:	56                   	push   %esi
    27a3:	51                   	push   %ecx
    27a4:	ff 53 6c             	call   *0x6c(%ebx)
    27a7:	83 c4 10             	add    $0x10,%esp
    27aa:	89 c3                	mov    %eax,%ebx
    27ac:	85 c0                	test   %eax,%eax
    27ae:	75 66                	jne    2816 <remote_nic_vlan_get_mask+0xa6>
    27b0:	50                   	push   %eax
    27b1:	50                   	push   %eax
    27b2:	8d 85 f4 fd ff ff    	lea    -0x20c(%ebp),%eax
    27b8:	50                   	push   %eax
    27b9:	8d 85 f0 fd ff ff    	lea    -0x210(%ebp),%eax
    27bf:	50                   	push   %eax
    27c0:	e8 8b 36 00 00       	call   5e50 <async_data_read_receive@plt>
    27c5:	83 c4 10             	add    $0x10,%esp
    27c8:	84 c0                	test   %al,%al
    27ca:	74 0c                	je     27d8 <remote_nic_vlan_get_mask+0x68>
    27cc:	81 bd f4 fd ff ff 00 	cmpl   $0x200,-0x20c(%ebp)
    27d3:	02 00 00 
    27d6:	74 28                	je     2800 <remote_nic_vlan_get_mask+0x90>
    27d8:	50                   	push   %eax
    27d9:	50                   	push   %eax
    27da:	8b 85 f0 fd ff ff    	mov    -0x210(%ebp),%eax
    27e0:	6a f2                	push   $0xfffffff2
    27e2:	50                   	push   %eax
    27e3:	e8 b8 35 00 00       	call   5da0 <async_answer_0@plt>
    27e8:	8b 4d 10             	mov    0x10(%ebp),%ecx
    27eb:	58                   	pop    %eax
    27ec:	5a                   	pop    %edx
    27ed:	6a f2                	push   $0xfffffff2
    27ef:	51                   	push   %ecx
    27f0:	e8 ab 35 00 00       	call   5da0 <async_answer_0@plt>
    27f5:	83 c4 10             	add    $0x10,%esp
    27f8:	8d 65 f8             	lea    -0x8(%ebp),%esp
    27fb:	5b                   	pop    %ebx
    27fc:	5e                   	pop    %esi
    27fd:	5d                   	pop    %ebp
    27fe:	c3                   	ret    
    27ff:	90                   	nop
    2800:	51                   	push   %ecx
    2801:	68 00 02 00 00       	push   $0x200
    2806:	56                   	push   %esi
    2807:	8b b5 f0 fd ff ff    	mov    -0x210(%ebp),%esi
    280d:	56                   	push   %esi
    280e:	e8 5d 35 00 00       	call   5d70 <async_data_read_finalize@plt>
    2813:	83 c4 10             	add    $0x10,%esp
    2816:	8b 55 10             	mov    0x10(%ebp),%edx
    2819:	50                   	push   %eax
    281a:	50                   	push   %eax
    281b:	53                   	push   %ebx
    281c:	52                   	push   %edx
    281d:	e8 7e 35 00 00       	call   5da0 <async_answer_0@plt>
    2822:	83 c4 10             	add    $0x10,%esp
    2825:	8d 65 f8             	lea    -0x8(%ebp),%esp
    2828:	5b                   	pop    %ebx
    2829:	5e                   	pop    %esi
    282a:	5d                   	pop    %ebp
    282b:	c3                   	ret    
    282c:	8d 74 26 00          	lea    0x0(%esi,%eiz,1),%esi
    2830:	8b 75 10             	mov    0x10(%ebp),%esi
    2833:	53                   	push   %ebx
    2834:	53                   	push   %ebx
    2835:	6a f5                	push   $0xfffffff5
    2837:	56                   	push   %esi
    2838:	e8 63 35 00 00       	call   5da0 <async_answer_0@plt>
    283d:	83 c4 10             	add    $0x10,%esp
    2840:	8d 65 f8             	lea    -0x8(%ebp),%esp
    2843:	5b                   	pop    %ebx
    2844:	5e                   	pop    %esi
    2845:	5d                   	pop    %ebp
    2846:	c3                   	ret    
    2847:	89 f6                	mov    %esi,%esi
    2849:	8d bc 27 00 00 00 00 	lea    0x0(%edi,%eiz,1),%edi

00002850 <remote_nic_get_device_info>:
    2850:	55                   	push   %ebp
    2851:	89 e5                	mov    %esp,%ebp
    2853:	56                   	push   %esi
    2854:	53                   	push   %ebx
    2855:	81 ec 30 01 00 00    	sub    $0x130,%esp
    285b:	8b 5d 0c             	mov    0xc(%ebp),%ebx
    285e:	8b 43 1c             	mov    0x1c(%ebx),%eax
    2861:	85 c0                	test   %eax,%eax
    2863:	0f 84 cf 00 00 00    	je     2938 <remote_nic_get_device_info+0xe8>
    2869:	8d b5 dc fe ff ff    	lea    -0x124(%ebp),%esi
    286f:	50                   	push   %eax
    2870:	68 1c 01 00 00       	push   $0x11c
    2875:	6a 00                	push   $0x0
    2877:	56                   	push   %esi
    2878:	e8 c3 35 00 00       	call   5e40 <memset@plt>
    287d:	8b 4d 08             	mov    0x8(%ebp),%ecx
    2880:	58                   	pop    %eax
    2881:	5a                   	pop    %edx
    2882:	56                   	push   %esi
    2883:	51                   	push   %ecx
    2884:	ff 53 1c             	call   *0x1c(%ebx)
    2887:	83 c4 10             	add    $0x10,%esp
    288a:	89 c3                	mov    %eax,%ebx
    288c:	85 c0                	test   %eax,%eax
    288e:	75 66                	jne    28f6 <remote_nic_get_device_info+0xa6>
    2890:	50                   	push   %eax
    2891:	50                   	push   %eax
    2892:	8d 85 d8 fe ff ff    	lea    -0x128(%ebp),%eax
    2898:	50                   	push   %eax
    2899:	8d 85 d4 fe ff ff    	lea    -0x12c(%ebp),%eax
    289f:	50                   	push   %eax
    28a0:	e8 ab 35 00 00       	call   5e50 <async_data_read_receive@plt>
    28a5:	83 c4 10             	add    $0x10,%esp
    28a8:	84 c0                	test   %al,%al
    28aa:	74 64                	je     2910 <remote_nic_get_device_info+0xc0>
    28ac:	81 bd d8 fe ff ff 1b 	cmpl   $0x11b,-0x128(%ebp)
    28b3:	01 00 00 
    28b6:	77 28                	ja     28e0 <remote_nic_get_device_info+0x90>
    28b8:	50                   	push   %eax
    28b9:	50                   	push   %eax
    28ba:	8b 85 d4 fe ff ff    	mov    -0x12c(%ebp),%eax
    28c0:	6a fd                	push   $0xfffffffd
    28c2:	50                   	push   %eax
    28c3:	e8 d8 34 00 00       	call   5da0 <async_answer_0@plt>
    28c8:	8b 4d 10             	mov    0x10(%ebp),%ecx
    28cb:	58                   	pop    %eax
    28cc:	5a                   	pop    %edx
    28cd:	6a fd                	push   $0xfffffffd
    28cf:	51                   	push   %ecx
    28d0:	e8 cb 34 00 00       	call   5da0 <async_answer_0@plt>
    28d5:	83 c4 10             	add    $0x10,%esp
    28d8:	8d 65 f8             	lea    -0x8(%ebp),%esp
    28db:	5b                   	pop    %ebx
    28dc:	5e                   	pop    %esi
    28dd:	5d                   	pop    %ebp
    28de:	c3                   	ret    
    28df:	90                   	nop
    28e0:	51                   	push   %ecx
    28e1:	68 1c 01 00 00       	push   $0x11c
    28e6:	56                   	push   %esi
    28e7:	8b b5 d4 fe ff ff    	mov    -0x12c(%ebp),%esi
    28ed:	56                   	push   %esi
    28ee:	e8 7d 34 00 00       	call   5d70 <async_data_read_finalize@plt>
    28f3:	83 c4 10             	add    $0x10,%esp
    28f6:	8b 55 10             	mov    0x10(%ebp),%edx
    28f9:	50                   	push   %eax
    28fa:	50                   	push   %eax
    28fb:	53                   	push   %ebx
    28fc:	52                   	push   %edx
    28fd:	e8 9e 34 00 00       	call   5da0 <async_answer_0@plt>
    2902:	83 c4 10             	add    $0x10,%esp
    2905:	8d 65 f8             	lea    -0x8(%ebp),%esp
    2908:	5b                   	pop    %ebx
    2909:	5e                   	pop    %esi
    290a:	5d                   	pop    %ebp
    290b:	c3                   	ret    
    290c:	8d 74 26 00          	lea    0x0(%esi,%eiz,1),%esi
    2910:	8b b5 d4 fe ff ff    	mov    -0x12c(%ebp),%esi
    2916:	53                   	push   %ebx
    2917:	53                   	push   %ebx
    2918:	6a f2                	push   $0xfffffff2
    291a:	56                   	push   %esi
    291b:	e8 80 34 00 00       	call   5da0 <async_answer_0@plt>
    2920:	8b 4d 10             	mov    0x10(%ebp),%ecx
    2923:	58                   	pop    %eax
    2924:	5a                   	pop    %edx
    2925:	6a f2                	push   $0xfffffff2
    2927:	51                   	push   %ecx
    2928:	e8 73 34 00 00       	call   5da0 <async_answer_0@plt>
    292d:	83 c4 10             	add    $0x10,%esp
    2930:	8d 65 f8             	lea    -0x8(%ebp),%esp
    2933:	5b                   	pop    %ebx
    2934:	5e                   	pop    %esi
    2935:	5d                   	pop    %ebp
    2936:	c3                   	ret    
    2937:	90                   	nop
    2938:	8b 75 10             	mov    0x10(%ebp),%esi
    293b:	53                   	push   %ebx
    293c:	53                   	push   %ebx
    293d:	6a f5                	push   $0xfffffff5
    293f:	56                   	push   %esi
    2940:	e8 5b 34 00 00       	call   5da0 <async_answer_0@plt>
    2945:	83 c4 10             	add    $0x10,%esp
    2948:	8d 65 f8             	lea    -0x8(%ebp),%esp
    294b:	5b                   	pop    %ebx
    294c:	5e                   	pop    %esi
    294d:	5d                   	pop    %ebp
    294e:	c3                   	ret    
    294f:	90                   	nop

00002950 <remote_nic_get_stats>:
    2950:	55                   	push   %ebp
    2951:	89 e5                	mov    %esp,%ebp
    2953:	56                   	push   %esi
    2954:	53                   	push   %ebx
    2955:	83 c4 80             	add    $0xffffff80,%esp
    2958:	8b 5d 0c             	mov    0xc(%ebp),%ebx
    295b:	8b 43 18             	mov    0x18(%ebx),%eax
    295e:	85 c0                	test   %eax,%eax
    2960:	0f 84 b2 00 00 00    	je     2a18 <remote_nic_get_stats+0xc8>
    2966:	8d 75 8c             	lea    -0x74(%ebp),%esi
    2969:	50                   	push   %eax
    296a:	6a 6c                	push   $0x6c
    296c:	6a 00                	push   $0x0
    296e:	56                   	push   %esi
    296f:	e8 cc 34 00 00       	call   5e40 <memset@plt>
    2974:	8b 4d 08             	mov    0x8(%ebp),%ecx
    2977:	58                   	pop    %eax
    2978:	5a                   	pop    %edx
    2979:	56                   	push   %esi
    297a:	51                   	push   %ecx
    297b:	ff 53 18             	call   *0x18(%ebx)
    297e:	83 c4 10             	add    $0x10,%esp
    2981:	89 c3                	mov    %eax,%ebx
    2983:	85 c0                	test   %eax,%eax
    2985:	75 51                	jne    29d8 <remote_nic_get_stats+0x88>
    2987:	50                   	push   %eax
    2988:	50                   	push   %eax
    2989:	8d 45 88             	lea    -0x78(%ebp),%eax
    298c:	50                   	push   %eax
    298d:	8d 45 84             	lea    -0x7c(%ebp),%eax
    2990:	50                   	push   %eax
    2991:	e8 ba 34 00 00       	call   5e50 <async_data_read_receive@plt>
    2996:	83 c4 10             	add    $0x10,%esp
    2999:	84 c0                	test   %al,%al
    299b:	74 53                	je     29f0 <remote_nic_get_stats+0xa0>
    299d:	83 7d 88 6b          	cmpl   $0x6b,-0x78(%ebp)
    29a1:	77 25                	ja     29c8 <remote_nic_get_stats+0x78>
    29a3:	50                   	push   %eax
    29a4:	50                   	push   %eax
    29a5:	8b 45 84             	mov    -0x7c(%ebp),%eax
    29a8:	6a fd                	push   $0xfffffffd
    29aa:	50                   	push   %eax
    29ab:	e8 f0 33 00 00       	call   5da0 <async_answer_0@plt>
    29b0:	8b 4d 10             	mov    0x10(%ebp),%ecx
    29b3:	58                   	pop    %eax
    29b4:	5a                   	pop    %edx
    29b5:	6a fd                	push   $0xfffffffd
    29b7:	51                   	push   %ecx
    29b8:	e8 e3 33 00 00       	call   5da0 <async_answer_0@plt>
    29bd:	83 c4 10             	add    $0x10,%esp
    29c0:	8d 65 f8             	lea    -0x8(%ebp),%esp
    29c3:	5b                   	pop    %ebx
    29c4:	5e                   	pop    %esi
    29c5:	5d                   	pop    %ebp
    29c6:	c3                   	ret    
    29c7:	90                   	nop
    29c8:	51                   	push   %ecx
    29c9:	6a 6c                	push   $0x6c
    29cb:	56                   	push   %esi
    29cc:	8b 75 84             	mov    -0x7c(%ebp),%esi
    29cf:	56                   	push   %esi
    29d0:	e8 9b 33 00 00       	call   5d70 <async_data_read_finalize@plt>
    29d5:	83 c4 10             	add    $0x10,%esp
    29d8:	8b 55 10             	mov    0x10(%ebp),%edx
    29db:	50                   	push   %eax
    29dc:	50                   	push   %eax
    29dd:	53                   	push   %ebx
    29de:	52                   	push   %edx
    29df:	e8 bc 33 00 00       	call   5da0 <async_answer_0@plt>
    29e4:	83 c4 10             	add    $0x10,%esp
    29e7:	8d 65 f8             	lea    -0x8(%ebp),%esp
    29ea:	5b                   	pop    %ebx
    29eb:	5e                   	pop    %esi
    29ec:	5d                   	pop    %ebp
    29ed:	c3                   	ret    
    29ee:	66 90                	xchg   %ax,%ax
    29f0:	8b 75 84             	mov    -0x7c(%ebp),%esi
    29f3:	53                   	push   %ebx
    29f4:	53                   	push   %ebx
    29f5:	6a f2                	push   $0xfffffff2
    29f7:	56                   	push   %esi
    29f8:	e8 a3 33 00 00       	call   5da0 <async_answer_0@plt>
    29fd:	8b 4d 10             	mov    0x10(%ebp),%ecx
    2a00:	58                   	pop    %eax
    2a01:	5a                   	pop    %edx
    2a02:	6a f2                	push   $0xfffffff2
    2a04:	51                   	push   %ecx
    2a05:	e8 96 33 00 00       	call   5da0 <async_answer_0@plt>
    2a0a:	83 c4 10             	add    $0x10,%esp
    2a0d:	8d 65 f8             	lea    -0x8(%ebp),%esp
    2a10:	5b                   	pop    %ebx
    2a11:	5e                   	pop    %esi
    2a12:	5d                   	pop    %ebp
    2a13:	c3                   	ret    
    2a14:	8d 74 26 00          	lea    0x0(%esi,%eiz,1),%esi
    2a18:	8b 75 10             	mov    0x10(%ebp),%esi
    2a1b:	53                   	push   %ebx
    2a1c:	53                   	push   %ebx
    2a1d:	6a f5                	push   $0xfffffff5
    2a1f:	56                   	push   %esi
    2a20:	e8 7b 33 00 00       	call   5da0 <async_answer_0@plt>
    2a25:	83 c4 10             	add    $0x10,%esp
    2a28:	8d 65 f8             	lea    -0x8(%ebp),%esp
    2a2b:	5b                   	pop    %ebx
    2a2c:	5e                   	pop    %esi
    2a2d:	5d                   	pop    %ebp
    2a2e:	c3                   	ret    
    2a2f:	90                   	nop

00002a30 <remote_nic_get_address>:
    2a30:	55                   	push   %ebp
    2a31:	89 e5                	mov    %esp,%ebp
    2a33:	56                   	push   %esi
    2a34:	53                   	push   %ebx
    2a35:	83 ec 10             	sub    $0x10,%esp
    2a38:	8b 75 0c             	mov    0xc(%ebp),%esi
    2a3b:	8b 46 10             	mov    0x10(%esi),%eax
    2a3e:	85 c0                	test   %eax,%eax
    2a40:	0f 84 ae 00 00 00    	je     2af4 <remote_nic_get_address+0xc4>
    2a46:	8d 5d f2             	lea    -0xe(%ebp),%ebx
    2a49:	50                   	push   %eax
    2a4a:	6a 06                	push   $0x6
    2a4c:	6a 00                	push   $0x0
    2a4e:	53                   	push   %ebx
    2a4f:	e8 ec 33 00 00       	call   5e40 <memset@plt>
    2a54:	8b 4d 08             	mov    0x8(%ebp),%ecx
    2a57:	58                   	pop    %eax
    2a58:	5a                   	pop    %edx
    2a59:	53                   	push   %ebx
    2a5a:	51                   	push   %ecx
    2a5b:	ff 56 10             	call   *0x10(%esi)
    2a5e:	83 c4 10             	add    $0x10,%esp
    2a61:	89 c6                	mov    %eax,%esi
    2a63:	85 c0                	test   %eax,%eax
    2a65:	75 51                	jne    2ab8 <remote_nic_get_address+0x88>
    2a67:	50                   	push   %eax
    2a68:	50                   	push   %eax
    2a69:	8d 45 e8             	lea    -0x18(%ebp),%eax
    2a6c:	50                   	push   %eax
    2a6d:	8d 45 ec             	lea    -0x14(%ebp),%eax
    2a70:	50                   	push   %eax
    2a71:	e8 da 33 00 00       	call   5e50 <async_data_read_receive@plt>
    2a76:	83 c4 10             	add    $0x10,%esp
    2a79:	84 c0                	test   %al,%al
    2a7b:	74 53                	je     2ad0 <remote_nic_get_address+0xa0>
    2a7d:	83 7d e8 06          	cmpl   $0x6,-0x18(%ebp)
    2a81:	74 25                	je     2aa8 <remote_nic_get_address+0x78>
    2a83:	8b 45 ec             	mov    -0x14(%ebp),%eax
    2a86:	56                   	push   %esi
    2a87:	56                   	push   %esi
    2a88:	6a fd                	push   $0xfffffffd
    2a8a:	50                   	push   %eax
    2a8b:	e8 10 33 00 00       	call   5da0 <async_answer_0@plt>
    2a90:	8b 4d 10             	mov    0x10(%ebp),%ecx
    2a93:	58                   	pop    %eax
    2a94:	5a                   	pop    %edx
    2a95:	6a fd                	push   $0xfffffffd
    2a97:	51                   	push   %ecx
    2a98:	e8 03 33 00 00       	call   5da0 <async_answer_0@plt>
    2a9d:	83 c4 10             	add    $0x10,%esp
    2aa0:	8d 65 f8             	lea    -0x8(%ebp),%esp
    2aa3:	5b                   	pop    %ebx
    2aa4:	5e                   	pop    %esi
    2aa5:	5d                   	pop    %ebp
    2aa6:	c3                   	ret    
    2aa7:	90                   	nop
    2aa8:	51                   	push   %ecx
    2aa9:	6a 06                	push   $0x6
    2aab:	53                   	push   %ebx
    2aac:	8b 5d ec             	mov    -0x14(%ebp),%ebx
    2aaf:	53                   	push   %ebx
    2ab0:	e8 bb 32 00 00       	call   5d70 <async_data_read_finalize@plt>
    2ab5:	83 c4 10             	add    $0x10,%esp
    2ab8:	8b 55 10             	mov    0x10(%ebp),%edx
    2abb:	50                   	push   %eax
    2abc:	50                   	push   %eax
    2abd:	56                   	push   %esi
    2abe:	52                   	push   %edx
    2abf:	e8 dc 32 00 00       	call   5da0 <async_answer_0@plt>
    2ac4:	83 c4 10             	add    $0x10,%esp
    2ac7:	8d 65 f8             	lea    -0x8(%ebp),%esp
    2aca:	5b                   	pop    %ebx
    2acb:	5e                   	pop    %esi
    2acc:	5d                   	pop    %ebp
    2acd:	c3                   	ret    
    2ace:	66 90                	xchg   %ax,%ax
    2ad0:	8b 75 ec             	mov    -0x14(%ebp),%esi
    2ad3:	53                   	push   %ebx
    2ad4:	53                   	push   %ebx
    2ad5:	6a f2                	push   $0xfffffff2
    2ad7:	56                   	push   %esi
    2ad8:	e8 c3 32 00 00       	call   5da0 <async_answer_0@plt>
    2add:	8b 4d 10             	mov    0x10(%ebp),%ecx
    2ae0:	58                   	pop    %eax
    2ae1:	5a                   	pop    %edx
    2ae2:	6a f2                	push   $0xfffffff2
    2ae4:	51                   	push   %ecx
    2ae5:	e8 b6 32 00 00       	call   5da0 <async_answer_0@plt>
    2aea:	83 c4 10             	add    $0x10,%esp
    2aed:	8d 65 f8             	lea    -0x8(%ebp),%esp
    2af0:	5b                   	pop    %ebx
    2af1:	5e                   	pop    %esi
    2af2:	5d                   	pop    %ebp
    2af3:	c3                   	ret    
    2af4:	53                   	push   %ebx
    2af5:	68 75 05 00 00       	push   $0x575
    2afa:	68 28 5a 00 00       	push   $0x5a28
    2aff:	68 3d 5a 00 00       	push   $0x5a3d
    2b04:	e8 d7 32 00 00       	call   5de0 <assert_abort@plt>
    2b09:	8d b4 26 00 00 00 00 	lea    0x0(%esi,%eiz,1),%esi

00002b10 <remote_nic_wol_load_info>:
    2b10:	55                   	push   %ebp
    2b11:	89 e5                	mov    %esp,%ebp
    2b13:	57                   	push   %edi
    2b14:	56                   	push   %esi
    2b15:	53                   	push   %ebx
    2b16:	83 ec 1c             	sub    $0x1c,%esp
    2b19:	8b 7d 0c             	mov    0xc(%ebp),%edi
    2b1c:	8b 8f 8c 00 00 00    	mov    0x8c(%edi),%ecx
    2b22:	85 c9                	test   %ecx,%ecx
    2b24:	0f 84 06 01 00 00    	je     2c30 <remote_nic_wol_load_info+0x120>
    2b2a:	8b 45 14             	mov    0x14(%ebp),%eax
    2b2d:	c7 45 d8 00 00 00 00 	movl   $0x0,-0x28(%ebp)
    2b34:	c7 45 dc 00 00 00 00 	movl   $0x0,-0x24(%ebp)
    2b3b:	8b 70 08             	mov    0x8(%eax),%esi
    2b3e:	85 f6                	test   %esi,%esi
    2b40:	75 76                	jne    2bb8 <remote_nic_wol_load_info+0xa8>
    2b42:	31 db                	xor    %ebx,%ebx
    2b44:	50                   	push   %eax
    2b45:	56                   	push   %esi
    2b46:	6a 00                	push   $0x0
    2b48:	53                   	push   %ebx
    2b49:	e8 f2 32 00 00       	call   5e40 <memset@plt>
    2b4e:	8d 45 d8             	lea    -0x28(%ebp),%eax
    2b51:	89 04 24             	mov    %eax,(%esp)
    2b54:	8d 45 dc             	lea    -0x24(%ebp),%eax
    2b57:	53                   	push   %ebx
    2b58:	56                   	push   %esi
    2b59:	50                   	push   %eax
    2b5a:	8b 45 08             	mov    0x8(%ebp),%eax
    2b5d:	50                   	push   %eax
    2b5e:	ff 97 8c 00 00 00    	call   *0x8c(%edi)
    2b64:	83 c4 20             	add    $0x20,%esp
    2b67:	89 c7                	mov    %eax,%edi
    2b69:	85 c0                	test   %eax,%eax
    2b6b:	0f 85 93 00 00 00    	jne    2c04 <remote_nic_wol_load_info+0xf4>
    2b71:	50                   	push   %eax
    2b72:	50                   	push   %eax
    2b73:	8d 45 e4             	lea    -0x1c(%ebp),%eax
    2b76:	50                   	push   %eax
    2b77:	8d 45 e0             	lea    -0x20(%ebp),%eax
    2b7a:	50                   	push   %eax
    2b7b:	e8 d0 32 00 00       	call   5e50 <async_data_read_receive@plt>
    2b80:	83 c4 10             	add    $0x10,%esp
    2b83:	84 c0                	test   %al,%al
    2b85:	75 59                	jne    2be0 <remote_nic_wol_load_info+0xd0>
    2b87:	50                   	push   %eax
    2b88:	50                   	push   %eax
    2b89:	8b 45 e0             	mov    -0x20(%ebp),%eax
    2b8c:	6a f2                	push   $0xfffffff2
    2b8e:	50                   	push   %eax
    2b8f:	e8 0c 32 00 00       	call   5da0 <async_answer_0@plt>
    2b94:	8b 4d 10             	mov    0x10(%ebp),%ecx
    2b97:	58                   	pop    %eax
    2b98:	5a                   	pop    %edx
    2b99:	6a f2                	push   $0xfffffff2
    2b9b:	51                   	push   %ecx
    2b9c:	e8 ff 31 00 00       	call   5da0 <async_answer_0@plt>
    2ba1:	89 1c 24             	mov    %ebx,(%esp)
    2ba4:	e8 77 33 00 00       	call   5f20 <free@plt>
    2ba9:	83 c4 10             	add    $0x10,%esp
    2bac:	8d 65 f4             	lea    -0xc(%ebp),%esp
    2baf:	5b                   	pop    %ebx
    2bb0:	5e                   	pop    %esi
    2bb1:	5f                   	pop    %edi
    2bb2:	5d                   	pop    %ebp
    2bb3:	c3                   	ret    
    2bb4:	8d 74 26 00          	lea    0x0(%esi,%eiz,1),%esi
    2bb8:	83 ec 0c             	sub    $0xc,%esp
    2bbb:	56                   	push   %esi
    2bbc:	e8 bf 31 00 00       	call   5d80 <malloc@plt>
    2bc1:	83 c4 10             	add    $0x10,%esp
    2bc4:	89 c3                	mov    %eax,%ebx
    2bc6:	85 c0                	test   %eax,%eax
    2bc8:	0f 85 76 ff ff ff    	jne    2b44 <remote_nic_wol_load_info+0x34>
    2bce:	50                   	push   %eax
    2bcf:	50                   	push   %eax
    2bd0:	8b 45 10             	mov    0x10(%ebp),%eax
    2bd3:	6a fe                	push   $0xfffffffe
    2bd5:	50                   	push   %eax
    2bd6:	e8 c5 31 00 00       	call   5da0 <async_answer_0@plt>
    2bdb:	83 c4 10             	add    $0x10,%esp
    2bde:	eb cc                	jmp    2bac <remote_nic_wol_load_info+0x9c>
    2be0:	8b 55 d8             	mov    -0x28(%ebp),%edx
    2be3:	8b 45 e4             	mov    -0x1c(%ebp),%eax
    2be6:	39 d0                	cmp    %edx,%eax
    2be8:	76 02                	jbe    2bec <remote_nic_wol_load_info+0xdc>
    2bea:	89 d0                	mov    %edx,%eax
    2bec:	39 f0                	cmp    %esi,%eax
    2bee:	76 02                	jbe    2bf2 <remote_nic_wol_load_info+0xe2>
    2bf0:	89 f0                	mov    %esi,%eax
    2bf2:	89 45 e4             	mov    %eax,-0x1c(%ebp)
    2bf5:	56                   	push   %esi
    2bf6:	50                   	push   %eax
    2bf7:	8b 45 e0             	mov    -0x20(%ebp),%eax
    2bfa:	53                   	push   %ebx
    2bfb:	50                   	push   %eax
    2bfc:	e8 6f 31 00 00       	call   5d70 <async_data_read_finalize@plt>
    2c01:	83 c4 10             	add    $0x10,%esp
    2c04:	8b 55 dc             	mov    -0x24(%ebp),%edx
    2c07:	8b 4d 10             	mov    0x10(%ebp),%ecx
    2c0a:	8b 45 d8             	mov    -0x28(%ebp),%eax
    2c0d:	50                   	push   %eax
    2c0e:	52                   	push   %edx
    2c0f:	57                   	push   %edi
    2c10:	51                   	push   %ecx
    2c11:	e8 ea 31 00 00       	call   5e00 <async_answer_2@plt>
    2c16:	89 1c 24             	mov    %ebx,(%esp)
    2c19:	e8 02 33 00 00       	call   5f20 <free@plt>
    2c1e:	83 c4 10             	add    $0x10,%esp
    2c21:	8d 65 f4             	lea    -0xc(%ebp),%esp
    2c24:	5b                   	pop    %ebx
    2c25:	5e                   	pop    %esi
    2c26:	5f                   	pop    %edi
    2c27:	5d                   	pop    %ebp
    2c28:	c3                   	ret    
    2c29:	8d b4 26 00 00 00 00 	lea    0x0(%esi,%eiz,1),%esi
    2c30:	8b 55 10             	mov    0x10(%ebp),%edx
    2c33:	50                   	push   %eax
    2c34:	50                   	push   %eax
    2c35:	6a f5                	push   $0xfffffff5
    2c37:	52                   	push   %edx
    2c38:	e8 63 31 00 00       	call   5da0 <async_answer_0@plt>
    2c3d:	83 c4 10             	add    $0x10,%esp
    2c40:	e9 67 ff ff ff       	jmp    2bac <remote_nic_wol_load_info+0x9c>
    2c45:	8d 74 26 00          	lea    0x0(%esi,%eiz,1),%esi
    2c49:	8d bc 27 00 00 00 00 	lea    0x0(%edi,%eiz,1),%edi

00002c50 <remote_nic_wol_virtue_list>:
    2c50:	55                   	push   %ebp
    2c51:	89 e5                	mov    %esp,%ebp
    2c53:	57                   	push   %edi
    2c54:	56                   	push   %esi
    2c55:	53                   	push   %ebx
    2c56:	83 ec 2c             	sub    $0x2c,%esp
    2c59:	8b 4d 0c             	mov    0xc(%ebp),%ecx
    2c5c:	8b 45 14             	mov    0x14(%ebp),%eax
    2c5f:	8b 91 84 00 00 00    	mov    0x84(%ecx),%edx
    2c65:	85 d2                	test   %edx,%edx
    2c67:	0f 84 2b 01 00 00    	je     2d98 <remote_nic_wol_virtue_list+0x148>
    2c6d:	8b 78 0c             	mov    0xc(%eax),%edi
    2c70:	8b 70 08             	mov    0x8(%eax),%esi
    2c73:	c7 45 dc 00 00 00 00 	movl   $0x0,-0x24(%ebp)
    2c7a:	85 ff                	test   %edi,%edi
    2c7c:	0f 84 9e 00 00 00    	je     2d20 <remote_nic_wol_virtue_list+0xd0>
    2c82:	83 ec 0c             	sub    $0xc,%esp
    2c85:	8d 04 bd 00 00 00 00 	lea    0x0(,%edi,4),%eax
    2c8c:	89 45 d4             	mov    %eax,-0x2c(%ebp)
    2c8f:	50                   	push   %eax
    2c90:	e8 eb 30 00 00       	call   5d80 <malloc@plt>
    2c95:	83 c4 10             	add    $0x10,%esp
    2c98:	89 c3                	mov    %eax,%ebx
    2c9a:	85 c0                	test   %eax,%eax
    2c9c:	0f 84 0e 01 00 00    	je     2db0 <remote_nic_wol_virtue_list+0x160>
    2ca2:	8b 45 d4             	mov    -0x2c(%ebp),%eax
    2ca5:	51                   	push   %ecx
    2ca6:	50                   	push   %eax
    2ca7:	6a 00                	push   $0x0
    2ca9:	53                   	push   %ebx
    2caa:	e8 91 31 00 00       	call   5e40 <memset@plt>
    2caf:	8d 45 dc             	lea    -0x24(%ebp),%eax
    2cb2:	89 04 24             	mov    %eax,(%esp)
    2cb5:	8b 45 08             	mov    0x8(%ebp),%eax
    2cb8:	53                   	push   %ebx
    2cb9:	57                   	push   %edi
    2cba:	56                   	push   %esi
    2cbb:	50                   	push   %eax
    2cbc:	8b 45 0c             	mov    0xc(%ebp),%eax
    2cbf:	ff 90 84 00 00 00    	call   *0x84(%eax)
    2cc5:	8b 55 dc             	mov    -0x24(%ebp),%edx
    2cc8:	83 c4 20             	add    $0x20,%esp
    2ccb:	85 d2                	test   %edx,%edx
    2ccd:	74 7d                	je     2d4c <remote_nic_wol_virtue_list+0xfc>
    2ccf:	8d 45 e4             	lea    -0x1c(%ebp),%eax
    2cd2:	56                   	push   %esi
    2cd3:	56                   	push   %esi
    2cd4:	50                   	push   %eax
    2cd5:	8d 45 e0             	lea    -0x20(%ebp),%eax
    2cd8:	50                   	push   %eax
    2cd9:	e8 72 31 00 00       	call   5e50 <async_data_read_receive@plt>
    2cde:	83 c4 10             	add    $0x10,%esp
    2ce1:	84 c0                	test   %al,%al
    2ce3:	0f 84 87 00 00 00    	je     2d70 <remote_nic_wol_virtue_list+0x120>
    2ce9:	8b 45 dc             	mov    -0x24(%ebp),%eax
    2cec:	8d 14 85 00 00 00 00 	lea    0x0(,%eax,4),%edx
    2cf3:	8b 45 e4             	mov    -0x1c(%ebp),%eax
    2cf6:	39 c2                	cmp    %eax,%edx
    2cf8:	73 05                	jae    2cff <remote_nic_wol_virtue_list+0xaf>
    2cfa:	89 55 e4             	mov    %edx,-0x1c(%ebp)
    2cfd:	89 d0                	mov    %edx,%eax
    2cff:	8b 4d d4             	mov    -0x2c(%ebp),%ecx
    2d02:	39 c1                	cmp    %eax,%ecx
    2d04:	73 05                	jae    2d0b <remote_nic_wol_virtue_list+0xbb>
    2d06:	89 4d e4             	mov    %ecx,-0x1c(%ebp)
    2d09:	89 c8                	mov    %ecx,%eax
    2d0b:	57                   	push   %edi
    2d0c:	50                   	push   %eax
    2d0d:	8b 45 e0             	mov    -0x20(%ebp),%eax
    2d10:	53                   	push   %ebx
    2d11:	50                   	push   %eax
    2d12:	e8 59 30 00 00       	call   5d70 <async_data_read_finalize@plt>
    2d17:	8b 55 dc             	mov    -0x24(%ebp),%edx
    2d1a:	83 c4 10             	add    $0x10,%esp
    2d1d:	eb 2d                	jmp    2d4c <remote_nic_wol_virtue_list+0xfc>
    2d1f:	90                   	nop
    2d20:	50                   	push   %eax
    2d21:	6a 00                	push   $0x0
    2d23:	6a 00                	push   $0x0
    2d25:	6a 00                	push   $0x0
    2d27:	e8 14 31 00 00       	call   5e40 <memset@plt>
    2d2c:	8d 45 dc             	lea    -0x24(%ebp),%eax
    2d2f:	89 04 24             	mov    %eax,(%esp)
    2d32:	8b 55 08             	mov    0x8(%ebp),%edx
    2d35:	8b 45 0c             	mov    0xc(%ebp),%eax
    2d38:	6a 00                	push   $0x0
    2d3a:	6a 00                	push   $0x0
    2d3c:	56                   	push   %esi
    2d3d:	52                   	push   %edx
    2d3e:	31 db                	xor    %ebx,%ebx
    2d40:	ff 90 84 00 00 00    	call   *0x84(%eax)
    2d46:	8b 55 dc             	mov    -0x24(%ebp),%edx
    2d49:	83 c4 20             	add    $0x20,%esp
    2d4c:	8b 75 10             	mov    0x10(%ebp),%esi
    2d4f:	51                   	push   %ecx
    2d50:	52                   	push   %edx
    2d51:	50                   	push   %eax
    2d52:	56                   	push   %esi
    2d53:	e8 48 31 00 00       	call   5ea0 <async_answer_1@plt>
    2d58:	89 1c 24             	mov    %ebx,(%esp)
    2d5b:	e8 c0 31 00 00       	call   5f20 <free@plt>
    2d60:	83 c4 10             	add    $0x10,%esp
    2d63:	8d 65 f4             	lea    -0xc(%ebp),%esp
    2d66:	5b                   	pop    %ebx
    2d67:	5e                   	pop    %esi
    2d68:	5f                   	pop    %edi
    2d69:	5d                   	pop    %ebp
    2d6a:	c3                   	ret    
    2d6b:	90                   	nop
    2d6c:	8d 74 26 00          	lea    0x0(%esi,%eiz,1),%esi
    2d70:	50                   	push   %eax
    2d71:	50                   	push   %eax
    2d72:	8b 45 e0             	mov    -0x20(%ebp),%eax
    2d75:	6a f2                	push   $0xfffffff2
    2d77:	50                   	push   %eax
    2d78:	e8 23 30 00 00       	call   5da0 <async_answer_0@plt>
    2d7d:	8b 4d 10             	mov    0x10(%ebp),%ecx
    2d80:	58                   	pop    %eax
    2d81:	5a                   	pop    %edx
    2d82:	6a f2                	push   $0xfffffff2
    2d84:	51                   	push   %ecx
    2d85:	e8 16 30 00 00       	call   5da0 <async_answer_0@plt>
    2d8a:	89 1c 24             	mov    %ebx,(%esp)
    2d8d:	e8 8e 31 00 00       	call   5f20 <free@plt>
    2d92:	83 c4 10             	add    $0x10,%esp
    2d95:	eb cc                	jmp    2d63 <remote_nic_wol_virtue_list+0x113>
    2d97:	90                   	nop
    2d98:	50                   	push   %eax
    2d99:	50                   	push   %eax
    2d9a:	8b 45 10             	mov    0x10(%ebp),%eax
    2d9d:	6a f5                	push   $0xfffffff5
    2d9f:	50                   	push   %eax
    2da0:	e8 fb 2f 00 00       	call   5da0 <async_answer_0@plt>
    2da5:	83 c4 10             	add    $0x10,%esp
    2da8:	eb b9                	jmp    2d63 <remote_nic_wol_virtue_list+0x113>
    2daa:	8d b6 00 00 00 00    	lea    0x0(%esi),%esi
    2db0:	8b 45 10             	mov    0x10(%ebp),%eax
    2db3:	57                   	push   %edi
    2db4:	57                   	push   %edi
    2db5:	6a fe                	push   $0xfffffffe
    2db7:	50                   	push   %eax
    2db8:	e8 e3 2f 00 00       	call   5da0 <async_answer_0@plt>
    2dbd:	83 c4 10             	add    $0x10,%esp
    2dc0:	eb a1                	jmp    2d63 <remote_nic_wol_virtue_list+0x113>
    2dc2:	8d b4 26 00 00 00 00 	lea    0x0(%esi,%eiz,1),%esi
    2dc9:	8d bc 27 00 00 00 00 	lea    0x0(%edi,%eiz,1),%edi

00002dd0 <remote_nic_wol_virtue_probe>:
    2dd0:	55                   	push   %ebp
    2dd1:	89 e5                	mov    %esp,%ebp
    2dd3:	57                   	push   %edi
    2dd4:	56                   	push   %esi
    2dd5:	53                   	push   %ebx
    2dd6:	83 ec 1c             	sub    $0x1c,%esp
    2dd9:	8b 4d 0c             	mov    0xc(%ebp),%ecx
    2ddc:	8b 45 14             	mov    0x14(%ebp),%eax
    2ddf:	8b 91 80 00 00 00    	mov    0x80(%ecx),%edx
    2de5:	85 d2                	test   %edx,%edx
    2de7:	0f 84 2b 01 00 00    	je     2f18 <remote_nic_wol_virtue_probe+0x148>
    2ded:	8b 58 0c             	mov    0xc(%eax),%ebx
    2df0:	8b 78 08             	mov    0x8(%eax),%edi
    2df3:	c7 45 d8 00 00 00 00 	movl   $0x0,-0x28(%ebp)
    2dfa:	c7 45 dc 00 00 00 00 	movl   $0x0,-0x24(%ebp)
    2e01:	85 db                	test   %ebx,%ebx
    2e03:	0f 84 8f 00 00 00    	je     2e98 <remote_nic_wol_virtue_probe+0xc8>
    2e09:	83 ec 0c             	sub    $0xc,%esp
    2e0c:	53                   	push   %ebx
    2e0d:	e8 6e 2f 00 00       	call   5d80 <malloc@plt>
    2e12:	83 c4 10             	add    $0x10,%esp
    2e15:	89 c6                	mov    %eax,%esi
    2e17:	85 c0                	test   %eax,%eax
    2e19:	0f 84 11 01 00 00    	je     2f30 <remote_nic_wol_virtue_probe+0x160>
    2e1f:	50                   	push   %eax
    2e20:	53                   	push   %ebx
    2e21:	6a 00                	push   $0x0
    2e23:	56                   	push   %esi
    2e24:	e8 17 30 00 00       	call   5e40 <memset@plt>
    2e29:	58                   	pop    %eax
    2e2a:	8d 45 dc             	lea    -0x24(%ebp),%eax
    2e2d:	5a                   	pop    %edx
    2e2e:	50                   	push   %eax
    2e2f:	8d 45 d8             	lea    -0x28(%ebp),%eax
    2e32:	56                   	push   %esi
    2e33:	53                   	push   %ebx
    2e34:	50                   	push   %eax
    2e35:	8b 45 0c             	mov    0xc(%ebp),%eax
    2e38:	8b 4d 08             	mov    0x8(%ebp),%ecx
    2e3b:	57                   	push   %edi
    2e3c:	51                   	push   %ecx
    2e3d:	ff 90 80 00 00 00    	call   *0x80(%eax)
    2e43:	89 c7                	mov    %eax,%edi
    2e45:	8b 45 dc             	mov    -0x24(%ebp),%eax
    2e48:	83 c4 20             	add    $0x20,%esp
    2e4b:	85 c0                	test   %eax,%eax
    2e4d:	74 7b                	je     2eca <remote_nic_wol_virtue_probe+0xfa>
    2e4f:	50                   	push   %eax
    2e50:	50                   	push   %eax
    2e51:	8d 45 e4             	lea    -0x1c(%ebp),%eax
    2e54:	50                   	push   %eax
    2e55:	8d 45 e0             	lea    -0x20(%ebp),%eax
    2e58:	50                   	push   %eax
    2e59:	e8 f2 2f 00 00       	call   5e50 <async_data_read_receive@plt>
    2e5e:	83 c4 10             	add    $0x10,%esp
    2e61:	84 c0                	test   %al,%al
    2e63:	0f 84 87 00 00 00    	je     2ef0 <remote_nic_wol_virtue_probe+0x120>
    2e69:	8b 45 e4             	mov    -0x1c(%ebp),%eax
    2e6c:	8b 55 dc             	mov    -0x24(%ebp),%edx
    2e6f:	39 d0                	cmp    %edx,%eax
    2e71:	76 05                	jbe    2e78 <remote_nic_wol_virtue_probe+0xa8>
    2e73:	89 55 e4             	mov    %edx,-0x1c(%ebp)
    2e76:	89 d0                	mov    %edx,%eax
    2e78:	39 c3                	cmp    %eax,%ebx
    2e7a:	73 05                	jae    2e81 <remote_nic_wol_virtue_probe+0xb1>
    2e7c:	89 5d e4             	mov    %ebx,-0x1c(%ebp)
    2e7f:	89 d8                	mov    %ebx,%eax
    2e81:	8b 4d e0             	mov    -0x20(%ebp),%ecx
    2e84:	52                   	push   %edx
    2e85:	50                   	push   %eax
    2e86:	56                   	push   %esi
    2e87:	51                   	push   %ecx
    2e88:	e8 e3 2e 00 00       	call   5d70 <async_data_read_finalize@plt>
    2e8d:	8b 45 dc             	mov    -0x24(%ebp),%eax
    2e90:	83 c4 10             	add    $0x10,%esp
    2e93:	eb 35                	jmp    2eca <remote_nic_wol_virtue_probe+0xfa>
    2e95:	8d 76 00             	lea    0x0(%esi),%esi
    2e98:	50                   	push   %eax
    2e99:	6a 00                	push   $0x0
    2e9b:	6a 00                	push   $0x0
    2e9d:	6a 00                	push   $0x0
    2e9f:	e8 9c 2f 00 00       	call   5e40 <memset@plt>
    2ea4:	8d 45 dc             	lea    -0x24(%ebp),%eax
    2ea7:	5a                   	pop    %edx
    2ea8:	59                   	pop    %ecx
    2ea9:	50                   	push   %eax
    2eaa:	8d 45 d8             	lea    -0x28(%ebp),%eax
    2ead:	6a 00                	push   $0x0
    2eaf:	6a 00                	push   $0x0
    2eb1:	50                   	push   %eax
    2eb2:	8b 45 0c             	mov    0xc(%ebp),%eax
    2eb5:	8b 5d 08             	mov    0x8(%ebp),%ebx
    2eb8:	57                   	push   %edi
    2eb9:	53                   	push   %ebx
    2eba:	ff 90 80 00 00 00    	call   *0x80(%eax)
    2ec0:	31 f6                	xor    %esi,%esi
    2ec2:	89 c7                	mov    %eax,%edi
    2ec4:	83 c4 20             	add    $0x20,%esp
    2ec7:	8b 45 dc             	mov    -0x24(%ebp),%eax
    2eca:	8b 5d d8             	mov    -0x28(%ebp),%ebx
    2ecd:	50                   	push   %eax
    2ece:	53                   	push   %ebx
    2ecf:	57                   	push   %edi
    2ed0:	8b 7d 10             	mov    0x10(%ebp),%edi
    2ed3:	57                   	push   %edi
    2ed4:	e8 27 2f 00 00       	call   5e00 <async_answer_2@plt>
    2ed9:	89 34 24             	mov    %esi,(%esp)
    2edc:	e8 3f 30 00 00       	call   5f20 <free@plt>
    2ee1:	83 c4 10             	add    $0x10,%esp
    2ee4:	8d 65 f4             	lea    -0xc(%ebp),%esp
    2ee7:	5b                   	pop    %ebx
    2ee8:	5e                   	pop    %esi
    2ee9:	5f                   	pop    %edi
    2eea:	5d                   	pop    %ebp
    2eeb:	c3                   	ret    
    2eec:	8d 74 26 00          	lea    0x0(%esi,%eiz,1),%esi
    2ef0:	8b 7d e0             	mov    -0x20(%ebp),%edi
    2ef3:	53                   	push   %ebx
    2ef4:	53                   	push   %ebx
    2ef5:	6a f2                	push   $0xfffffff2
    2ef7:	57                   	push   %edi
    2ef8:	e8 a3 2e 00 00       	call   5da0 <async_answer_0@plt>
    2efd:	8b 4d 10             	mov    0x10(%ebp),%ecx
    2f00:	58                   	pop    %eax
    2f01:	5a                   	pop    %edx
    2f02:	6a f2                	push   $0xfffffff2
    2f04:	51                   	push   %ecx
    2f05:	e8 96 2e 00 00       	call   5da0 <async_answer_0@plt>
    2f0a:	89 34 24             	mov    %esi,(%esp)
    2f0d:	e8 0e 30 00 00       	call   5f20 <free@plt>
    2f12:	83 c4 10             	add    $0x10,%esp
    2f15:	eb cd                	jmp    2ee4 <remote_nic_wol_virtue_probe+0x114>
    2f17:	90                   	nop
    2f18:	50                   	push   %eax
    2f19:	50                   	push   %eax
    2f1a:	8b 45 10             	mov    0x10(%ebp),%eax
    2f1d:	6a f5                	push   $0xfffffff5
    2f1f:	50                   	push   %eax
    2f20:	e8 7b 2e 00 00       	call   5da0 <async_answer_0@plt>
    2f25:	83 c4 10             	add    $0x10,%esp
    2f28:	eb ba                	jmp    2ee4 <remote_nic_wol_virtue_probe+0x114>
    2f2a:	8d b6 00 00 00 00    	lea    0x0(%esi),%esi
    2f30:	50                   	push   %eax
    2f31:	50                   	push   %eax
    2f32:	8b 45 10             	mov    0x10(%ebp),%eax
    2f35:	6a fe                	push   $0xfffffffe
    2f37:	50                   	push   %eax
    2f38:	e8 63 2e 00 00       	call   5da0 <async_answer_0@plt>
    2f3d:	83 c4 10             	add    $0x10,%esp
    2f40:	eb a2                	jmp    2ee4 <remote_nic_wol_virtue_probe+0x114>
    2f42:	8d b4 26 00 00 00 00 	lea    0x0(%esi,%eiz,1),%esi
    2f49:	8d bc 27 00 00 00 00 	lea    0x0(%edi,%eiz,1),%edi

00002f50 <remote_nic_wol_virtue_add>:
    2f50:	55                   	push   %ebp
    2f51:	89 e5                	mov    %esp,%ebp
    2f53:	57                   	push   %edi
    2f54:	56                   	push   %esi
    2f55:	53                   	push   %ebx
    2f56:	83 ec 1c             	sub    $0x1c,%esp
    2f59:	8b 5d 0c             	mov    0xc(%ebp),%ebx
    2f5c:	8b 75 14             	mov    0x14(%ebp),%esi
    2f5f:	8b 43 78             	mov    0x78(%ebx),%eax
    2f62:	8b 7e 0c             	mov    0xc(%esi),%edi
    2f65:	85 c0                	test   %eax,%eax
    2f67:	0f 84 eb 00 00 00    	je     3058 <remote_nic_wol_virtue_add+0x108>
    2f6d:	c7 45 e0 00 00 00 00 	movl   $0x0,-0x20(%ebp)
    2f74:	85 ff                	test   %edi,%edi
    2f76:	74 78                	je     2ff0 <remote_nic_wol_virtue_add+0xa0>
    2f78:	8d 45 e0             	lea    -0x20(%ebp),%eax
    2f7b:	57                   	push   %edi
    2f7c:	57                   	push   %edi
    2f7d:	50                   	push   %eax
    2f7e:	8d 45 dc             	lea    -0x24(%ebp),%eax
    2f81:	50                   	push   %eax
    2f82:	e8 89 2f 00 00       	call   5f10 <async_data_write_receive@plt>
    2f87:	83 c4 10             	add    $0x10,%esp
    2f8a:	84 c0                	test   %al,%al
    2f8c:	75 2a                	jne    2fb8 <remote_nic_wol_virtue_add+0x68>
    2f8e:	50                   	push   %eax
    2f8f:	50                   	push   %eax
    2f90:	8b 45 dc             	mov    -0x24(%ebp),%eax
    2f93:	6a f2                	push   $0xfffffff2
    2f95:	50                   	push   %eax
    2f96:	e8 05 2e 00 00       	call   5da0 <async_answer_0@plt>
    2f9b:	8b 4d 10             	mov    0x10(%ebp),%ecx
    2f9e:	58                   	pop    %eax
    2f9f:	5a                   	pop    %edx
    2fa0:	6a f2                	push   $0xfffffff2
    2fa2:	51                   	push   %ecx
    2fa3:	e8 f8 2d 00 00       	call   5da0 <async_answer_0@plt>
    2fa8:	83 c4 10             	add    $0x10,%esp
    2fab:	8d 65 f4             	lea    -0xc(%ebp),%esp
    2fae:	5b                   	pop    %ebx
    2faf:	5e                   	pop    %esi
    2fb0:	5f                   	pop    %edi
    2fb1:	5d                   	pop    %ebp
    2fb2:	c3                   	ret    
    2fb3:	90                   	nop
    2fb4:	8d 74 26 00          	lea    0x0(%esi,%eiz,1),%esi
    2fb8:	83 ec 0c             	sub    $0xc,%esp
    2fbb:	8b 7d e0             	mov    -0x20(%ebp),%edi
    2fbe:	57                   	push   %edi
    2fbf:	e8 bc 2d 00 00       	call   5d80 <malloc@plt>
    2fc4:	83 c4 10             	add    $0x10,%esp
    2fc7:	89 c7                	mov    %eax,%edi
    2fc9:	85 c0                	test   %eax,%eax
    2fcb:	0f 84 a7 00 00 00    	je     3078 <remote_nic_wol_virtue_add+0x128>
    2fd1:	50                   	push   %eax
    2fd2:	8b 45 e0             	mov    -0x20(%ebp),%eax
    2fd5:	50                   	push   %eax
    2fd6:	8b 45 dc             	mov    -0x24(%ebp),%eax
    2fd9:	57                   	push   %edi
    2fda:	50                   	push   %eax
    2fdb:	e8 f0 2e 00 00       	call   5ed0 <async_data_write_finalize@plt>
    2fe0:	83 c4 10             	add    $0x10,%esp
    2fe3:	85 c0                	test   %eax,%eax
    2fe5:	75 51                	jne    3038 <remote_nic_wol_virtue_add+0xe8>
    2fe7:	8b 45 e0             	mov    -0x20(%ebp),%eax
    2fea:	eb 08                	jmp    2ff4 <remote_nic_wol_virtue_add+0xa4>
    2fec:	8d 74 26 00          	lea    0x0(%esi,%eiz,1),%esi
    2ff0:	31 c0                	xor    %eax,%eax
    2ff2:	31 ff                	xor    %edi,%edi
    2ff4:	83 ec 0c             	sub    $0xc,%esp
    2ff7:	8d 4d e4             	lea    -0x1c(%ebp),%ecx
    2ffa:	8b 55 08             	mov    0x8(%ebp),%edx
    2ffd:	c7 45 e4 00 00 00 00 	movl   $0x0,-0x1c(%ebp)
    3004:	51                   	push   %ecx
    3005:	50                   	push   %eax
    3006:	8b 46 08             	mov    0x8(%esi),%eax
    3009:	57                   	push   %edi
    300a:	50                   	push   %eax
    300b:	52                   	push   %edx
    300c:	ff 53 78             	call   *0x78(%ebx)
    300f:	83 c4 1c             	add    $0x1c,%esp
    3012:	8b 4d e4             	mov    -0x1c(%ebp),%ecx
    3015:	8b 5d 10             	mov    0x10(%ebp),%ebx
    3018:	51                   	push   %ecx
    3019:	50                   	push   %eax
    301a:	53                   	push   %ebx
    301b:	e8 80 2e 00 00       	call   5ea0 <async_answer_1@plt>
    3020:	89 3c 24             	mov    %edi,(%esp)
    3023:	e8 f8 2e 00 00       	call   5f20 <free@plt>
    3028:	83 c4 10             	add    $0x10,%esp
    302b:	8d 65 f4             	lea    -0xc(%ebp),%esp
    302e:	5b                   	pop    %ebx
    302f:	5e                   	pop    %esi
    3030:	5f                   	pop    %edi
    3031:	5d                   	pop    %ebp
    3032:	c3                   	ret    
    3033:	90                   	nop
    3034:	8d 74 26 00          	lea    0x0(%esi,%eiz,1),%esi
    3038:	8b 45 10             	mov    0x10(%ebp),%eax
    303b:	56                   	push   %esi
    303c:	56                   	push   %esi
    303d:	6a f2                	push   $0xfffffff2
    303f:	50                   	push   %eax
    3040:	e8 5b 2d 00 00       	call   5da0 <async_answer_0@plt>
    3045:	89 3c 24             	mov    %edi,(%esp)
    3048:	e8 d3 2e 00 00       	call   5f20 <free@plt>
    304d:	83 c4 10             	add    $0x10,%esp
    3050:	8d 65 f4             	lea    -0xc(%ebp),%esp
    3053:	5b                   	pop    %ebx
    3054:	5e                   	pop    %esi
    3055:	5f                   	pop    %edi
    3056:	5d                   	pop    %ebp
    3057:	c3                   	ret    
    3058:	85 ff                	test   %edi,%edi
    305a:	75 44                	jne    30a0 <remote_nic_wol_virtue_add+0x150>
    305c:	50                   	push   %eax
    305d:	50                   	push   %eax
    305e:	8b 45 10             	mov    0x10(%ebp),%eax
    3061:	6a f5                	push   $0xfffffff5
    3063:	50                   	push   %eax
    3064:	e8 37 2d 00 00       	call   5da0 <async_answer_0@plt>
    3069:	83 c4 10             	add    $0x10,%esp
    306c:	e9 fc fe ff ff       	jmp    2f6d <remote_nic_wol_virtue_add+0x1d>
    3071:	8d b4 26 00 00 00 00 	lea    0x0(%esi,%eiz,1),%esi
    3078:	50                   	push   %eax
    3079:	50                   	push   %eax
    307a:	8b 45 dc             	mov    -0x24(%ebp),%eax
    307d:	6a fe                	push   $0xfffffffe
    307f:	50                   	push   %eax
    3080:	e8 1b 2d 00 00       	call   5da0 <async_answer_0@plt>
    3085:	8b 5d 10             	mov    0x10(%ebp),%ebx
    3088:	5a                   	pop    %edx
    3089:	59                   	pop    %ecx
    308a:	6a fe                	push   $0xfffffffe
    308c:	53                   	push   %ebx
    308d:	e8 0e 2d 00 00       	call   5da0 <async_answer_0@plt>
    3092:	83 c4 10             	add    $0x10,%esp
    3095:	e9 11 ff ff ff       	jmp    2fab <remote_nic_wol_virtue_add+0x5b>
    309a:	8d b6 00 00 00 00    	lea    0x0(%esi),%esi
    30a0:	50                   	push   %eax
    30a1:	50                   	push   %eax
    30a2:	8d 45 dc             	lea    -0x24(%ebp),%eax
    30a5:	6a 00                	push   $0x0
    30a7:	50                   	push   %eax
    30a8:	e8 63 2e 00 00       	call   5f10 <async_data_write_receive@plt>
    30ad:	8b 4d dc             	mov    -0x24(%ebp),%ecx
    30b0:	58                   	pop    %eax
    30b1:	5a                   	pop    %edx
    30b2:	6a f5                	push   $0xfffffff5
    30b4:	51                   	push   %ecx
    30b5:	e8 e6 2c 00 00       	call   5da0 <async_answer_0@plt>
    30ba:	83 c4 10             	add    $0x10,%esp
    30bd:	eb 9d                	jmp    305c <remote_nic_wol_virtue_add+0x10c>
    30bf:	90                   	nop

000030c0 <remote_nic_blocked_sources_set>:
    30c0:	55                   	push   %ebp
    30c1:	89 e5                	mov    %esp,%ebp
    30c3:	57                   	push   %edi
    30c4:	56                   	push   %esi
    30c5:	53                   	push   %ebx
    30c6:	83 ec 1c             	sub    $0x1c,%esp
    30c9:	31 f6                	xor    %esi,%esi
    30cb:	8b 45 14             	mov    0x14(%ebp),%eax
    30ce:	8b 58 08             	mov    0x8(%eax),%ebx
    30d1:	85 db                	test   %ebx,%ebx
    30d3:	75 3b                	jne    3110 <remote_nic_blocked_sources_set+0x50>
    30d5:	8b 45 0c             	mov    0xc(%ebp),%eax
    30d8:	8b 40 68             	mov    0x68(%eax),%eax
    30db:	85 c0                	test   %eax,%eax
    30dd:	0f 84 cd 00 00 00    	je     31b0 <remote_nic_blocked_sources_set+0xf0>
    30e3:	51                   	push   %ecx
    30e4:	53                   	push   %ebx
    30e5:	8b 5d 08             	mov    0x8(%ebp),%ebx
    30e8:	56                   	push   %esi
    30e9:	53                   	push   %ebx
    30ea:	ff d0                	call   *%eax
    30ec:	8b 4d 10             	mov    0x10(%ebp),%ecx
    30ef:	5f                   	pop    %edi
    30f0:	5a                   	pop    %edx
    30f1:	50                   	push   %eax
    30f2:	51                   	push   %ecx
    30f3:	e8 a8 2c 00 00       	call   5da0 <async_answer_0@plt>
    30f8:	83 c4 10             	add    $0x10,%esp
    30fb:	83 ec 0c             	sub    $0xc,%esp
    30fe:	56                   	push   %esi
    30ff:	e8 1c 2e 00 00       	call   5f20 <free@plt>
    3104:	83 c4 10             	add    $0x10,%esp
    3107:	8d 65 f4             	lea    -0xc(%ebp),%esp
    310a:	5b                   	pop    %ebx
    310b:	5e                   	pop    %esi
    310c:	5f                   	pop    %edi
    310d:	5d                   	pop    %ebp
    310e:	c3                   	ret    
    310f:	90                   	nop
    3110:	8d 45 e0             	lea    -0x20(%ebp),%eax
    3113:	56                   	push   %esi
    3114:	56                   	push   %esi
    3115:	50                   	push   %eax
    3116:	8d 45 e4             	lea    -0x1c(%ebp),%eax
    3119:	50                   	push   %eax
    311a:	e8 f1 2d 00 00       	call   5f10 <async_data_write_receive@plt>
    311f:	83 c4 10             	add    $0x10,%esp
    3122:	84 c0                	test   %al,%al
    3124:	0f 84 9e 00 00 00    	je     31c8 <remote_nic_blocked_sources_set+0x108>
    312a:	8d 04 5b             	lea    (%ebx,%ebx,2),%eax
    312d:	01 c0                	add    %eax,%eax
    312f:	3b 45 e0             	cmp    -0x20(%ebp),%eax
    3132:	74 2c                	je     3160 <remote_nic_blocked_sources_set+0xa0>
    3134:	8b 75 e4             	mov    -0x1c(%ebp),%esi
    3137:	53                   	push   %ebx
    3138:	53                   	push   %ebx
    3139:	6a fd                	push   $0xfffffffd
    313b:	56                   	push   %esi
    313c:	e8 5f 2c 00 00       	call   5da0 <async_answer_0@plt>
    3141:	5f                   	pop    %edi
    3142:	58                   	pop    %eax
    3143:	8b 45 10             	mov    0x10(%ebp),%eax
    3146:	6a fd                	push   $0xfffffffd
    3148:	50                   	push   %eax
    3149:	e8 52 2c 00 00       	call   5da0 <async_answer_0@plt>
    314e:	83 c4 10             	add    $0x10,%esp
    3151:	8d 65 f4             	lea    -0xc(%ebp),%esp
    3154:	5b                   	pop    %ebx
    3155:	5e                   	pop    %esi
    3156:	5f                   	pop    %edi
    3157:	5d                   	pop    %ebp
    3158:	c3                   	ret    
    3159:	8d b4 26 00 00 00 00 	lea    0x0(%esi,%eiz,1),%esi
    3160:	83 ec 0c             	sub    $0xc,%esp
    3163:	50                   	push   %eax
    3164:	e8 17 2c 00 00       	call   5d80 <malloc@plt>
    3169:	83 c4 10             	add    $0x10,%esp
    316c:	89 c7                	mov    %eax,%edi
    316e:	89 c6                	mov    %eax,%esi
    3170:	85 c0                	test   %eax,%eax
    3172:	74 76                	je     31ea <remote_nic_blocked_sources_set+0x12a>
    3174:	50                   	push   %eax
    3175:	8b 45 e0             	mov    -0x20(%ebp),%eax
    3178:	50                   	push   %eax
    3179:	8b 45 e4             	mov    -0x1c(%ebp),%eax
    317c:	57                   	push   %edi
    317d:	50                   	push   %eax
    317e:	e8 4d 2d 00 00       	call   5ed0 <async_data_write_finalize@plt>
    3183:	83 c4 10             	add    $0x10,%esp
    3186:	85 c0                	test   %eax,%eax
    3188:	0f 84 47 ff ff ff    	je     30d5 <remote_nic_blocked_sources_set+0x15>
    318e:	8b 75 10             	mov    0x10(%ebp),%esi
    3191:	53                   	push   %ebx
    3192:	53                   	push   %ebx
    3193:	6a f2                	push   $0xfffffff2
    3195:	56                   	push   %esi
    3196:	e8 05 2c 00 00       	call   5da0 <async_answer_0@plt>
    319b:	89 3c 24             	mov    %edi,(%esp)
    319e:	e8 7d 2d 00 00       	call   5f20 <free@plt>
    31a3:	83 c4 10             	add    $0x10,%esp
    31a6:	e9 5c ff ff ff       	jmp    3107 <remote_nic_blocked_sources_set+0x47>
    31ab:	90                   	nop
    31ac:	8d 74 26 00          	lea    0x0(%esi,%eiz,1),%esi
    31b0:	8b 55 10             	mov    0x10(%ebp),%edx
    31b3:	50                   	push   %eax
    31b4:	50                   	push   %eax
    31b5:	6a f5                	push   $0xfffffff5
    31b7:	52                   	push   %edx
    31b8:	e8 e3 2b 00 00       	call   5da0 <async_answer_0@plt>
    31bd:	83 c4 10             	add    $0x10,%esp
    31c0:	e9 36 ff ff ff       	jmp    30fb <remote_nic_blocked_sources_set+0x3b>
    31c5:	8d 76 00             	lea    0x0(%esi),%esi
    31c8:	50                   	push   %eax
    31c9:	50                   	push   %eax
    31ca:	8b 45 e4             	mov    -0x1c(%ebp),%eax
    31cd:	6a f2                	push   $0xfffffff2
    31cf:	50                   	push   %eax
    31d0:	e8 cb 2b 00 00       	call   5da0 <async_answer_0@plt>
    31d5:	8b 4d 10             	mov    0x10(%ebp),%ecx
    31d8:	58                   	pop    %eax
    31d9:	5a                   	pop    %edx
    31da:	6a f2                	push   $0xfffffff2
    31dc:	51                   	push   %ecx
    31dd:	e8 be 2b 00 00       	call   5da0 <async_answer_0@plt>
    31e2:	83 c4 10             	add    $0x10,%esp
    31e5:	e9 1d ff ff ff       	jmp    3107 <remote_nic_blocked_sources_set+0x47>
    31ea:	50                   	push   %eax
    31eb:	50                   	push   %eax
    31ec:	8b 45 e4             	mov    -0x1c(%ebp),%eax
    31ef:	6a fe                	push   $0xfffffffe
    31f1:	50                   	push   %eax
    31f2:	e8 a9 2b 00 00       	call   5da0 <async_answer_0@plt>
    31f7:	8b 4d 10             	mov    0x10(%ebp),%ecx
    31fa:	58                   	pop    %eax
    31fb:	5a                   	pop    %edx
    31fc:	6a fe                	push   $0xfffffffe
    31fe:	51                   	push   %ecx
    31ff:	e8 9c 2b 00 00       	call   5da0 <async_answer_0@plt>
    3204:	83 c4 10             	add    $0x10,%esp
    3207:	e9 fb fe ff ff       	jmp    3107 <remote_nic_blocked_sources_set+0x47>
    320c:	8d 74 26 00          	lea    0x0(%esi,%eiz,1),%esi

00003210 <remote_nic_blocked_sources_get>:
    3210:	55                   	push   %ebp
    3211:	89 e5                	mov    %esp,%ebp
    3213:	57                   	push   %edi
    3214:	56                   	push   %esi
    3215:	53                   	push   %ebx
    3216:	83 ec 1c             	sub    $0x1c,%esp
    3219:	8b 45 0c             	mov    0xc(%ebp),%eax
    321c:	8b 50 64             	mov    0x64(%eax),%edx
    321f:	85 d2                	test   %edx,%edx
    3221:	0f 84 19 01 00 00    	je     3340 <remote_nic_blocked_sources_get+0x130>
    3227:	8b 45 14             	mov    0x14(%ebp),%eax
    322a:	8b 70 08             	mov    0x8(%eax),%esi
    322d:	85 f6                	test   %esi,%esi
    322f:	75 4f                	jne    3280 <remote_nic_blocked_sources_get+0x70>
    3231:	50                   	push   %eax
    3232:	6a 00                	push   $0x0
    3234:	6a 00                	push   $0x0
    3236:	6a 00                	push   $0x0
    3238:	e8 03 2c 00 00       	call   5e40 <memset@plt>
    323d:	8d 45 dc             	lea    -0x24(%ebp),%eax
    3240:	50                   	push   %eax
    3241:	8b 55 08             	mov    0x8(%ebp),%edx
    3244:	8b 45 0c             	mov    0xc(%ebp),%eax
    3247:	6a 00                	push   $0x0
    3249:	c7 45 dc 00 00 00 00 	movl   $0x0,-0x24(%ebp)
    3250:	6a 00                	push   $0x0
    3252:	52                   	push   %edx
    3253:	31 db                	xor    %ebx,%ebx
    3255:	ff 50 64             	call   *0x64(%eax)
    3258:	8b 55 dc             	mov    -0x24(%ebp),%edx
    325b:	83 c4 20             	add    $0x20,%esp
    325e:	57                   	push   %edi
    325f:	52                   	push   %edx
    3260:	50                   	push   %eax
    3261:	8b 45 10             	mov    0x10(%ebp),%eax
    3264:	50                   	push   %eax
    3265:	e8 36 2c 00 00       	call   5ea0 <async_answer_1@plt>
    326a:	89 1c 24             	mov    %ebx,(%esp)
    326d:	e8 ae 2c 00 00       	call   5f20 <free@plt>
    3272:	83 c4 10             	add    $0x10,%esp
    3275:	8d 65 f4             	lea    -0xc(%ebp),%esp
    3278:	5b                   	pop    %ebx
    3279:	5e                   	pop    %esi
    327a:	5f                   	pop    %edi
    327b:	5d                   	pop    %ebp
    327c:	c3                   	ret    
    327d:	8d 76 00             	lea    0x0(%esi),%esi
    3280:	83 ec 0c             	sub    $0xc,%esp
    3283:	8d 3c 76             	lea    (%esi,%esi,2),%edi
    3286:	01 ff                	add    %edi,%edi
    3288:	57                   	push   %edi
    3289:	e8 f2 2a 00 00       	call   5d80 <malloc@plt>
    328e:	83 c4 10             	add    $0x10,%esp
    3291:	89 c3                	mov    %eax,%ebx
    3293:	85 c0                	test   %eax,%eax
    3295:	0f 84 dd 00 00 00    	je     3378 <remote_nic_blocked_sources_get+0x168>
    329b:	50                   	push   %eax
    329c:	57                   	push   %edi
    329d:	6a 00                	push   $0x0
    329f:	53                   	push   %ebx
    32a0:	e8 9b 2b 00 00       	call   5e40 <memset@plt>
    32a5:	8d 45 dc             	lea    -0x24(%ebp),%eax
    32a8:	50                   	push   %eax
    32a9:	8b 45 08             	mov    0x8(%ebp),%eax
    32ac:	53                   	push   %ebx
    32ad:	56                   	push   %esi
    32ae:	50                   	push   %eax
    32af:	8b 45 0c             	mov    0xc(%ebp),%eax
    32b2:	c7 45 dc 00 00 00 00 	movl   $0x0,-0x24(%ebp)
    32b9:	ff 50 64             	call   *0x64(%eax)
    32bc:	83 c4 20             	add    $0x20,%esp
    32bf:	8b 55 dc             	mov    -0x24(%ebp),%edx
    32c2:	85 c0                	test   %eax,%eax
    32c4:	75 98                	jne    325e <remote_nic_blocked_sources_get+0x4e>
    32c6:	85 d2                	test   %edx,%edx
    32c8:	74 94                	je     325e <remote_nic_blocked_sources_get+0x4e>
    32ca:	8d 45 e4             	lea    -0x1c(%ebp),%eax
    32cd:	56                   	push   %esi
    32ce:	56                   	push   %esi
    32cf:	50                   	push   %eax
    32d0:	8d 45 e0             	lea    -0x20(%ebp),%eax
    32d3:	50                   	push   %eax
    32d4:	e8 77 2b 00 00       	call   5e50 <async_data_read_receive@plt>
    32d9:	83 c4 10             	add    $0x10,%esp
    32dc:	84 c0                	test   %al,%al
    32de:	74 78                	je     3358 <remote_nic_blocked_sources_get+0x148>
    32e0:	8b 45 dc             	mov    -0x24(%ebp),%eax
    32e3:	8d 14 40             	lea    (%eax,%eax,2),%edx
    32e6:	8b 45 e4             	mov    -0x1c(%ebp),%eax
    32e9:	01 d2                	add    %edx,%edx
    32eb:	39 c2                	cmp    %eax,%edx
    32ed:	73 05                	jae    32f4 <remote_nic_blocked_sources_get+0xe4>
    32ef:	89 55 e4             	mov    %edx,-0x1c(%ebp)
    32f2:	89 d0                	mov    %edx,%eax
    32f4:	39 f8                	cmp    %edi,%eax
    32f6:	76 05                	jbe    32fd <remote_nic_blocked_sources_get+0xed>
    32f8:	89 7d e4             	mov    %edi,-0x1c(%ebp)
    32fb:	89 f8                	mov    %edi,%eax
    32fd:	8b 75 e0             	mov    -0x20(%ebp),%esi
    3300:	51                   	push   %ecx
    3301:	50                   	push   %eax
    3302:	53                   	push   %ebx
    3303:	56                   	push   %esi
    3304:	e8 67 2a 00 00       	call   5d70 <async_data_read_finalize@plt>
    3309:	5f                   	pop    %edi
    330a:	58                   	pop    %eax
    330b:	8b 45 e0             	mov    -0x20(%ebp),%eax
    330e:	6a f2                	push   $0xfffffff2
    3310:	50                   	push   %eax
    3311:	e8 8a 2a 00 00       	call   5da0 <async_answer_0@plt>
    3316:	89 1c 24             	mov    %ebx,(%esp)
    3319:	e8 02 2c 00 00       	call   5f20 <free@plt>
    331e:	83 c4 0c             	add    $0xc,%esp
    3321:	8b 45 dc             	mov    -0x24(%ebp),%eax
    3324:	50                   	push   %eax
    3325:	8b 45 10             	mov    0x10(%ebp),%eax
    3328:	6a 00                	push   $0x0
    332a:	50                   	push   %eax
    332b:	e8 70 2b 00 00       	call   5ea0 <async_answer_1@plt>
    3330:	83 c4 10             	add    $0x10,%esp
    3333:	8d 65 f4             	lea    -0xc(%ebp),%esp
    3336:	5b                   	pop    %ebx
    3337:	5e                   	pop    %esi
    3338:	5f                   	pop    %edi
    3339:	5d                   	pop    %ebp
    333a:	c3                   	ret    
    333b:	90                   	nop
    333c:	8d 74 26 00          	lea    0x0(%esi,%eiz,1),%esi
    3340:	50                   	push   %eax
    3341:	50                   	push   %eax
    3342:	8b 45 10             	mov    0x10(%ebp),%eax
    3345:	6a f5                	push   $0xfffffff5
    3347:	50                   	push   %eax
    3348:	e8 53 2a 00 00       	call   5da0 <async_answer_0@plt>
    334d:	83 c4 10             	add    $0x10,%esp
    3350:	e9 20 ff ff ff       	jmp    3275 <remote_nic_blocked_sources_get+0x65>
    3355:	8d 76 00             	lea    0x0(%esi),%esi
    3358:	8b 55 e0             	mov    -0x20(%ebp),%edx
    335b:	50                   	push   %eax
    335c:	50                   	push   %eax
    335d:	6a f2                	push   $0xfffffff2
    335f:	52                   	push   %edx
    3360:	e8 3b 2a 00 00       	call   5da0 <async_answer_0@plt>
    3365:	83 c4 0c             	add    $0xc,%esp
    3368:	8b 4d dc             	mov    -0x24(%ebp),%ecx
    336b:	51                   	push   %ecx
    336c:	6a 00                	push   $0x0
    336e:	e9 ee fe ff ff       	jmp    3261 <remote_nic_blocked_sources_get+0x51>
    3373:	90                   	nop
    3374:	8d 74 26 00          	lea    0x0(%esi,%eiz,1),%esi
    3378:	50                   	push   %eax
    3379:	50                   	push   %eax
    337a:	8b 45 10             	mov    0x10(%ebp),%eax
    337d:	6a fe                	push   $0xfffffffe
    337f:	50                   	push   %eax
    3380:	e8 1b 2a 00 00       	call   5da0 <async_answer_0@plt>
    3385:	83 c4 10             	add    $0x10,%esp
    3388:	e9 e8 fe ff ff       	jmp    3275 <remote_nic_blocked_sources_get+0x65>
    338d:	8d 76 00             	lea    0x0(%esi),%esi

00003390 <remote_nic_multicast_set_mode>:
    3390:	55                   	push   %ebp
    3391:	89 e5                	mov    %esp,%ebp
    3393:	57                   	push   %edi
    3394:	56                   	push   %esi
    3395:	53                   	push   %ebx
    3396:	83 ec 2c             	sub    $0x2c,%esp
    3399:	31 f6                	xor    %esi,%esi
    339b:	8b 45 14             	mov    0x14(%ebp),%eax
    339e:	8b 58 0c             	mov    0xc(%eax),%ebx
    33a1:	8b 78 08             	mov    0x8(%eax),%edi
    33a4:	85 db                	test   %ebx,%ebx
    33a6:	75 40                	jne    33e8 <remote_nic_multicast_set_mode+0x58>
    33a8:	8b 45 0c             	mov    0xc(%ebp),%eax
    33ab:	8b 40 50             	mov    0x50(%eax),%eax
    33ae:	85 c0                	test   %eax,%eax
    33b0:	0f 84 da 00 00 00    	je     3490 <remote_nic_multicast_set_mode+0x100>
    33b6:	8b 4d 08             	mov    0x8(%ebp),%ecx
    33b9:	53                   	push   %ebx
    33ba:	56                   	push   %esi
    33bb:	57                   	push   %edi
    33bc:	51                   	push   %ecx
    33bd:	ff d0                	call   *%eax
    33bf:	5b                   	pop    %ebx
    33c0:	5f                   	pop    %edi
    33c1:	50                   	push   %eax
    33c2:	8b 45 10             	mov    0x10(%ebp),%eax
    33c5:	50                   	push   %eax
    33c6:	e8 d5 29 00 00       	call   5da0 <async_answer_0@plt>
    33cb:	83 c4 10             	add    $0x10,%esp
    33ce:	83 ec 0c             	sub    $0xc,%esp
    33d1:	56                   	push   %esi
    33d2:	e8 49 2b 00 00       	call   5f20 <free@plt>
    33d7:	83 c4 10             	add    $0x10,%esp
    33da:	8d 65 f4             	lea    -0xc(%ebp),%esp
    33dd:	5b                   	pop    %ebx
    33de:	5e                   	pop    %esi
    33df:	5f                   	pop    %edi
    33e0:	5d                   	pop    %ebp
    33e1:	c3                   	ret    
    33e2:	8d b6 00 00 00 00    	lea    0x0(%esi),%esi
    33e8:	50                   	push   %eax
    33e9:	50                   	push   %eax
    33ea:	8d 45 e4             	lea    -0x1c(%ebp),%eax
    33ed:	50                   	push   %eax
    33ee:	8d 45 e0             	lea    -0x20(%ebp),%eax
    33f1:	50                   	push   %eax
    33f2:	e8 19 2b 00 00       	call   5f10 <async_data_write_receive@plt>
    33f7:	83 c4 10             	add    $0x10,%esp
    33fa:	84 c0                	test   %al,%al
    33fc:	0f 84 a6 00 00 00    	je     34a8 <remote_nic_multicast_set_mode+0x118>
    3402:	8d 04 5b             	lea    (%ebx,%ebx,2),%eax
    3405:	01 c0                	add    %eax,%eax
    3407:	3b 45 e4             	cmp    -0x1c(%ebp),%eax
    340a:	74 2c                	je     3438 <remote_nic_multicast_set_mode+0xa8>
    340c:	50                   	push   %eax
    340d:	50                   	push   %eax
    340e:	8b 45 e0             	mov    -0x20(%ebp),%eax
    3411:	6a fd                	push   $0xfffffffd
    3413:	50                   	push   %eax
    3414:	e8 87 29 00 00       	call   5da0 <async_answer_0@plt>
    3419:	8b 4d 10             	mov    0x10(%ebp),%ecx
    341c:	58                   	pop    %eax
    341d:	5a                   	pop    %edx
    341e:	6a fd                	push   $0xfffffffd
    3420:	51                   	push   %ecx
    3421:	e8 7a 29 00 00       	call   5da0 <async_answer_0@plt>
    3426:	83 c4 10             	add    $0x10,%esp
    3429:	8d 65 f4             	lea    -0xc(%ebp),%esp
    342c:	5b                   	pop    %ebx
    342d:	5e                   	pop    %esi
    342e:	5f                   	pop    %edi
    342f:	5d                   	pop    %ebp
    3430:	c3                   	ret    
    3431:	8d b4 26 00 00 00 00 	lea    0x0(%esi,%eiz,1),%esi
    3438:	83 ec 0c             	sub    $0xc,%esp
    343b:	50                   	push   %eax
    343c:	e8 3f 29 00 00       	call   5d80 <malloc@plt>
    3441:	83 c4 10             	add    $0x10,%esp
    3444:	89 c2                	mov    %eax,%edx
    3446:	89 c6                	mov    %eax,%esi
    3448:	85 c0                	test   %eax,%eax
    344a:	74 7e                	je     34ca <remote_nic_multicast_set_mode+0x13a>
    344c:	50                   	push   %eax
    344d:	8b 45 e4             	mov    -0x1c(%ebp),%eax
    3450:	50                   	push   %eax
    3451:	8b 45 e0             	mov    -0x20(%ebp),%eax
    3454:	52                   	push   %edx
    3455:	89 55 d4             	mov    %edx,-0x2c(%ebp)
    3458:	50                   	push   %eax
    3459:	e8 72 2a 00 00       	call   5ed0 <async_data_write_finalize@plt>
    345e:	83 c4 10             	add    $0x10,%esp
    3461:	85 c0                	test   %eax,%eax
    3463:	0f 84 3f ff ff ff    	je     33a8 <remote_nic_multicast_set_mode+0x18>
    3469:	50                   	push   %eax
    346a:	50                   	push   %eax
    346b:	8b 45 10             	mov    0x10(%ebp),%eax
    346e:	6a f2                	push   $0xfffffff2
    3470:	50                   	push   %eax
    3471:	e8 2a 29 00 00       	call   5da0 <async_answer_0@plt>
    3476:	8b 55 d4             	mov    -0x2c(%ebp),%edx
    3479:	89 14 24             	mov    %edx,(%esp)
    347c:	e8 9f 2a 00 00       	call   5f20 <free@plt>
    3481:	83 c4 10             	add    $0x10,%esp
    3484:	e9 51 ff ff ff       	jmp    33da <remote_nic_multicast_set_mode+0x4a>
    3489:	8d b4 26 00 00 00 00 	lea    0x0(%esi,%eiz,1),%esi
    3490:	8b 55 10             	mov    0x10(%ebp),%edx
    3493:	50                   	push   %eax
    3494:	50                   	push   %eax
    3495:	6a f5                	push   $0xfffffff5
    3497:	52                   	push   %edx
    3498:	e8 03 29 00 00       	call   5da0 <async_answer_0@plt>
    349d:	83 c4 10             	add    $0x10,%esp
    34a0:	e9 29 ff ff ff       	jmp    33ce <remote_nic_multicast_set_mode+0x3e>
    34a5:	8d 76 00             	lea    0x0(%esi),%esi
    34a8:	8b 75 e0             	mov    -0x20(%ebp),%esi
    34ab:	53                   	push   %ebx
    34ac:	53                   	push   %ebx
    34ad:	6a f2                	push   $0xfffffff2
    34af:	56                   	push   %esi
    34b0:	e8 eb 28 00 00       	call   5da0 <async_answer_0@plt>
    34b5:	5f                   	pop    %edi
    34b6:	58                   	pop    %eax
    34b7:	8b 45 10             	mov    0x10(%ebp),%eax
    34ba:	6a f2                	push   $0xfffffff2
    34bc:	50                   	push   %eax
    34bd:	e8 de 28 00 00       	call   5da0 <async_answer_0@plt>
    34c2:	83 c4 10             	add    $0x10,%esp
    34c5:	e9 10 ff ff ff       	jmp    33da <remote_nic_multicast_set_mode+0x4a>
    34ca:	8b 4d e0             	mov    -0x20(%ebp),%ecx
    34cd:	52                   	push   %edx
    34ce:	52                   	push   %edx
    34cf:	6a fe                	push   $0xfffffffe
    34d1:	51                   	push   %ecx
    34d2:	e8 c9 28 00 00       	call   5da0 <async_answer_0@plt>
    34d7:	8b 7d 10             	mov    0x10(%ebp),%edi
    34da:	5b                   	pop    %ebx
    34db:	5e                   	pop    %esi
    34dc:	6a fe                	push   $0xfffffffe
    34de:	57                   	push   %edi
    34df:	e8 bc 28 00 00       	call   5da0 <async_answer_0@plt>
    34e4:	83 c4 10             	add    $0x10,%esp
    34e7:	e9 ee fe ff ff       	jmp    33da <remote_nic_multicast_set_mode+0x4a>
    34ec:	8d 74 26 00          	lea    0x0(%esi,%eiz,1),%esi

000034f0 <remote_nic_multicast_get_mode>:
    34f0:	55                   	push   %ebp
    34f1:	89 e5                	mov    %esp,%ebp
    34f3:	57                   	push   %edi
    34f4:	56                   	push   %esi
    34f5:	53                   	push   %ebx
    34f6:	83 ec 1c             	sub    $0x1c,%esp
    34f9:	8b 45 0c             	mov    0xc(%ebp),%eax
    34fc:	8b 58 4c             	mov    0x4c(%eax),%ebx
    34ff:	85 db                	test   %ebx,%ebx
    3501:	0f 84 39 01 00 00    	je     3640 <remote_nic_multicast_get_mode+0x150>
    3507:	8b 45 14             	mov    0x14(%ebp),%eax
    350a:	8b 70 08             	mov    0x8(%eax),%esi
    350d:	85 f6                	test   %esi,%esi
    350f:	0f 84 cb 00 00 00    	je     35e0 <remote_nic_multicast_get_mode+0xf0>
    3515:	83 ec 0c             	sub    $0xc,%esp
    3518:	8d 3c 76             	lea    (%esi,%esi,2),%edi
    351b:	01 ff                	add    %edi,%edi
    351d:	57                   	push   %edi
    351e:	e8 5d 28 00 00       	call   5d80 <malloc@plt>
    3523:	83 c4 10             	add    $0x10,%esp
    3526:	89 c3                	mov    %eax,%ebx
    3528:	85 c0                	test   %eax,%eax
    352a:	0f 84 58 01 00 00    	je     3688 <remote_nic_multicast_get_mode+0x198>
    3530:	50                   	push   %eax
    3531:	57                   	push   %edi
    3532:	6a 00                	push   $0x0
    3534:	53                   	push   %ebx
    3535:	e8 06 29 00 00       	call   5e40 <memset@plt>
    353a:	8d 45 dc             	lea    -0x24(%ebp),%eax
    353d:	89 04 24             	mov    %eax,(%esp)
    3540:	8d 45 d8             	lea    -0x28(%ebp),%eax
    3543:	53                   	push   %ebx
    3544:	56                   	push   %esi
    3545:	50                   	push   %eax
    3546:	8b 45 08             	mov    0x8(%ebp),%eax
    3549:	50                   	push   %eax
    354a:	8b 45 0c             	mov    0xc(%ebp),%eax
    354d:	c7 45 d8 01 00 00 00 	movl   $0x1,-0x28(%ebp)
    3554:	c7 45 dc 00 00 00 00 	movl   $0x0,-0x24(%ebp)
    355b:	ff 50 4c             	call   *0x4c(%eax)
    355e:	83 c4 20             	add    $0x20,%esp
    3561:	89 c6                	mov    %eax,%esi
    3563:	85 c0                	test   %eax,%eax
    3565:	0f 85 ae 00 00 00    	jne    3619 <remote_nic_multicast_get_mode+0x129>
    356b:	8b 45 dc             	mov    -0x24(%ebp),%eax
    356e:	85 c0                	test   %eax,%eax
    3570:	0f 84 a3 00 00 00    	je     3619 <remote_nic_multicast_get_mode+0x129>
    3576:	8d 45 e4             	lea    -0x1c(%ebp),%eax
    3579:	51                   	push   %ecx
    357a:	51                   	push   %ecx
    357b:	50                   	push   %eax
    357c:	8d 45 e0             	lea    -0x20(%ebp),%eax
    357f:	50                   	push   %eax
    3580:	e8 cb 28 00 00       	call   5e50 <async_data_read_receive@plt>
    3585:	83 c4 10             	add    $0x10,%esp
    3588:	84 c0                	test   %al,%al
    358a:	0f 84 c8 00 00 00    	je     3658 <remote_nic_multicast_get_mode+0x168>
    3590:	8b 45 dc             	mov    -0x24(%ebp),%eax
    3593:	8d 14 40             	lea    (%eax,%eax,2),%edx
    3596:	8b 45 e4             	mov    -0x1c(%ebp),%eax
    3599:	01 d2                	add    %edx,%edx
    359b:	39 c2                	cmp    %eax,%edx
    359d:	73 05                	jae    35a4 <remote_nic_multicast_get_mode+0xb4>
    359f:	89 55 e4             	mov    %edx,-0x1c(%ebp)
    35a2:	89 d0                	mov    %edx,%eax
    35a4:	39 c7                	cmp    %eax,%edi
    35a6:	73 05                	jae    35ad <remote_nic_multicast_get_mode+0xbd>
    35a8:	89 7d e4             	mov    %edi,-0x1c(%ebp)
    35ab:	89 f8                	mov    %edi,%eax
    35ad:	8b 75 e0             	mov    -0x20(%ebp),%esi
    35b0:	51                   	push   %ecx
    35b1:	50                   	push   %eax
    35b2:	53                   	push   %ebx
    35b3:	56                   	push   %esi
    35b4:	e8 b7 27 00 00       	call   5d70 <async_data_read_finalize@plt>
    35b9:	89 1c 24             	mov    %ebx,(%esp)
    35bc:	e8 5f 29 00 00       	call   5f20 <free@plt>
    35c1:	8b 7d dc             	mov    -0x24(%ebp),%edi
    35c4:	8b 45 d8             	mov    -0x28(%ebp),%eax
    35c7:	57                   	push   %edi
    35c8:	50                   	push   %eax
    35c9:	8b 45 10             	mov    0x10(%ebp),%eax
    35cc:	6a 00                	push   $0x0
    35ce:	50                   	push   %eax
    35cf:	e8 2c 28 00 00       	call   5e00 <async_answer_2@plt>
    35d4:	83 c4 20             	add    $0x20,%esp
    35d7:	8d 65 f4             	lea    -0xc(%ebp),%esp
    35da:	5b                   	pop    %ebx
    35db:	5e                   	pop    %esi
    35dc:	5f                   	pop    %edi
    35dd:	5d                   	pop    %ebp
    35de:	c3                   	ret    
    35df:	90                   	nop
    35e0:	50                   	push   %eax
    35e1:	6a 00                	push   $0x0
    35e3:	6a 00                	push   $0x0
    35e5:	6a 00                	push   $0x0
    35e7:	e8 54 28 00 00       	call   5e40 <memset@plt>
    35ec:	8d 45 dc             	lea    -0x24(%ebp),%eax
    35ef:	89 04 24             	mov    %eax,(%esp)
    35f2:	8d 45 d8             	lea    -0x28(%ebp),%eax
    35f5:	6a 00                	push   $0x0
    35f7:	6a 00                	push   $0x0
    35f9:	50                   	push   %eax
    35fa:	8b 45 0c             	mov    0xc(%ebp),%eax
    35fd:	8b 55 08             	mov    0x8(%ebp),%edx
    3600:	c7 45 d8 01 00 00 00 	movl   $0x1,-0x28(%ebp)
    3607:	c7 45 dc 00 00 00 00 	movl   $0x0,-0x24(%ebp)
    360e:	52                   	push   %edx
    360f:	ff 50 4c             	call   *0x4c(%eax)
    3612:	31 db                	xor    %ebx,%ebx
    3614:	89 c6                	mov    %eax,%esi
    3616:	83 c4 20             	add    $0x20,%esp
    3619:	83 ec 0c             	sub    $0xc,%esp
    361c:	53                   	push   %ebx
    361d:	e8 fe 28 00 00       	call   5f20 <free@plt>
    3622:	8b 5d dc             	mov    -0x24(%ebp),%ebx
    3625:	8b 7d d8             	mov    -0x28(%ebp),%edi
    3628:	8b 45 10             	mov    0x10(%ebp),%eax
    362b:	53                   	push   %ebx
    362c:	57                   	push   %edi
    362d:	56                   	push   %esi
    362e:	50                   	push   %eax
    362f:	e8 cc 27 00 00       	call   5e00 <async_answer_2@plt>
    3634:	83 c4 20             	add    $0x20,%esp
    3637:	8d 65 f4             	lea    -0xc(%ebp),%esp
    363a:	5b                   	pop    %ebx
    363b:	5e                   	pop    %esi
    363c:	5f                   	pop    %edi
    363d:	5d                   	pop    %ebp
    363e:	c3                   	ret    
    363f:	90                   	nop
    3640:	8b 4d 10             	mov    0x10(%ebp),%ecx
    3643:	52                   	push   %edx
    3644:	52                   	push   %edx
    3645:	6a f5                	push   $0xfffffff5
    3647:	51                   	push   %ecx
    3648:	e8 53 27 00 00       	call   5da0 <async_answer_0@plt>
    364d:	83 c4 10             	add    $0x10,%esp
    3650:	eb e5                	jmp    3637 <remote_nic_multicast_get_mode+0x147>
    3652:	8d b6 00 00 00 00    	lea    0x0(%esi),%esi
    3658:	50                   	push   %eax
    3659:	50                   	push   %eax
    365a:	8b 45 e0             	mov    -0x20(%ebp),%eax
    365d:	6a f2                	push   $0xfffffff2
    365f:	50                   	push   %eax
    3660:	e8 3b 27 00 00       	call   5da0 <async_answer_0@plt>
    3665:	8b 45 dc             	mov    -0x24(%ebp),%eax
    3668:	8b 55 10             	mov    0x10(%ebp),%edx
    366b:	50                   	push   %eax
    366c:	8b 45 d8             	mov    -0x28(%ebp),%eax
    366f:	50                   	push   %eax
    3670:	6a 00                	push   $0x0
    3672:	52                   	push   %edx
    3673:	e8 88 27 00 00       	call   5e00 <async_answer_2@plt>
    3678:	83 c4 14             	add    $0x14,%esp
    367b:	53                   	push   %ebx
    367c:	e8 9f 28 00 00       	call   5f20 <free@plt>
    3681:	83 c4 10             	add    $0x10,%esp
    3684:	eb b1                	jmp    3637 <remote_nic_multicast_get_mode+0x147>
    3686:	66 90                	xchg   %ax,%ax
    3688:	50                   	push   %eax
    3689:	50                   	push   %eax
    368a:	8b 45 10             	mov    0x10(%ebp),%eax
    368d:	6a fe                	push   $0xfffffffe
    368f:	50                   	push   %eax
    3690:	e8 0b 27 00 00       	call   5da0 <async_answer_0@plt>
    3695:	83 c4 10             	add    $0x10,%esp
    3698:	eb 9d                	jmp    3637 <remote_nic_multicast_get_mode+0x147>
    369a:	8d b6 00 00 00 00    	lea    0x0(%esi),%esi

000036a0 <remote_nic_unicast_set_mode>:
    36a0:	55                   	push   %ebp
    36a1:	89 e5                	mov    %esp,%ebp
    36a3:	57                   	push   %edi
    36a4:	56                   	push   %esi
    36a5:	53                   	push   %ebx
    36a6:	83 ec 2c             	sub    $0x2c,%esp
    36a9:	31 f6                	xor    %esi,%esi
    36ab:	8b 45 14             	mov    0x14(%ebp),%eax
    36ae:	8b 58 0c             	mov    0xc(%eax),%ebx
    36b1:	8b 78 08             	mov    0x8(%eax),%edi
    36b4:	85 db                	test   %ebx,%ebx
    36b6:	75 40                	jne    36f8 <remote_nic_unicast_set_mode+0x58>
    36b8:	8b 45 0c             	mov    0xc(%ebp),%eax
    36bb:	8b 40 48             	mov    0x48(%eax),%eax
    36be:	85 c0                	test   %eax,%eax
    36c0:	0f 84 da 00 00 00    	je     37a0 <remote_nic_unicast_set_mode+0x100>
    36c6:	8b 4d 08             	mov    0x8(%ebp),%ecx
    36c9:	53                   	push   %ebx
    36ca:	56                   	push   %esi
    36cb:	57                   	push   %edi
    36cc:	51                   	push   %ecx
    36cd:	ff d0                	call   *%eax
    36cf:	5b                   	pop    %ebx
    36d0:	5f                   	pop    %edi
    36d1:	50                   	push   %eax
    36d2:	8b 45 10             	mov    0x10(%ebp),%eax
    36d5:	50                   	push   %eax
    36d6:	e8 c5 26 00 00       	call   5da0 <async_answer_0@plt>
    36db:	83 c4 10             	add    $0x10,%esp
    36de:	83 ec 0c             	sub    $0xc,%esp
    36e1:	56                   	push   %esi
    36e2:	e8 39 28 00 00       	call   5f20 <free@plt>
    36e7:	83 c4 10             	add    $0x10,%esp
    36ea:	8d 65 f4             	lea    -0xc(%ebp),%esp
    36ed:	5b                   	pop    %ebx
    36ee:	5e                   	pop    %esi
    36ef:	5f                   	pop    %edi
    36f0:	5d                   	pop    %ebp
    36f1:	c3                   	ret    
    36f2:	8d b6 00 00 00 00    	lea    0x0(%esi),%esi
    36f8:	50                   	push   %eax
    36f9:	50                   	push   %eax
    36fa:	8d 45 e0             	lea    -0x20(%ebp),%eax
    36fd:	50                   	push   %eax
    36fe:	8d 45 e4             	lea    -0x1c(%ebp),%eax
    3701:	50                   	push   %eax
    3702:	e8 09 28 00 00       	call   5f10 <async_data_write_receive@plt>
    3707:	83 c4 10             	add    $0x10,%esp
    370a:	84 c0                	test   %al,%al
    370c:	0f 84 a6 00 00 00    	je     37b8 <remote_nic_unicast_set_mode+0x118>
    3712:	8d 04 5b             	lea    (%ebx,%ebx,2),%eax
    3715:	01 c0                	add    %eax,%eax
    3717:	3b 45 e0             	cmp    -0x20(%ebp),%eax
    371a:	74 2c                	je     3748 <remote_nic_unicast_set_mode+0xa8>
    371c:	50                   	push   %eax
    371d:	50                   	push   %eax
    371e:	8b 45 e4             	mov    -0x1c(%ebp),%eax
    3721:	6a fd                	push   $0xfffffffd
    3723:	50                   	push   %eax
    3724:	e8 77 26 00 00       	call   5da0 <async_answer_0@plt>
    3729:	8b 4d 10             	mov    0x10(%ebp),%ecx
    372c:	58                   	pop    %eax
    372d:	5a                   	pop    %edx
    372e:	6a fd                	push   $0xfffffffd
    3730:	51                   	push   %ecx
    3731:	e8 6a 26 00 00       	call   5da0 <async_answer_0@plt>
    3736:	83 c4 10             	add    $0x10,%esp
    3739:	8d 65 f4             	lea    -0xc(%ebp),%esp
    373c:	5b                   	pop    %ebx
    373d:	5e                   	pop    %esi
    373e:	5f                   	pop    %edi
    373f:	5d                   	pop    %ebp
    3740:	c3                   	ret    
    3741:	8d b4 26 00 00 00 00 	lea    0x0(%esi,%eiz,1),%esi
    3748:	83 ec 0c             	sub    $0xc,%esp
    374b:	50                   	push   %eax
    374c:	e8 2f 26 00 00       	call   5d80 <malloc@plt>
    3751:	83 c4 10             	add    $0x10,%esp
    3754:	89 c2                	mov    %eax,%edx
    3756:	89 c6                	mov    %eax,%esi
    3758:	85 c0                	test   %eax,%eax
    375a:	74 7e                	je     37da <remote_nic_unicast_set_mode+0x13a>
    375c:	50                   	push   %eax
    375d:	8b 45 e0             	mov    -0x20(%ebp),%eax
    3760:	50                   	push   %eax
    3761:	8b 45 e4             	mov    -0x1c(%ebp),%eax
    3764:	52                   	push   %edx
    3765:	89 55 d4             	mov    %edx,-0x2c(%ebp)
    3768:	50                   	push   %eax
    3769:	e8 62 27 00 00       	call   5ed0 <async_data_write_finalize@plt>
    376e:	83 c4 10             	add    $0x10,%esp
    3771:	85 c0                	test   %eax,%eax
    3773:	0f 84 3f ff ff ff    	je     36b8 <remote_nic_unicast_set_mode+0x18>
    3779:	50                   	push   %eax
    377a:	50                   	push   %eax
    377b:	8b 45 10             	mov    0x10(%ebp),%eax
    377e:	6a f2                	push   $0xfffffff2
    3780:	50                   	push   %eax
    3781:	e8 1a 26 00 00       	call   5da0 <async_answer_0@plt>
    3786:	8b 55 d4             	mov    -0x2c(%ebp),%edx
    3789:	89 14 24             	mov    %edx,(%esp)
    378c:	e8 8f 27 00 00       	call   5f20 <free@plt>
    3791:	83 c4 10             	add    $0x10,%esp
    3794:	e9 51 ff ff ff       	jmp    36ea <remote_nic_unicast_set_mode+0x4a>
    3799:	8d b4 26 00 00 00 00 	lea    0x0(%esi,%eiz,1),%esi
    37a0:	8b 55 10             	mov    0x10(%ebp),%edx
    37a3:	50                   	push   %eax
    37a4:	50                   	push   %eax
    37a5:	6a f5                	push   $0xfffffff5
    37a7:	52                   	push   %edx
    37a8:	e8 f3 25 00 00       	call   5da0 <async_answer_0@plt>
    37ad:	83 c4 10             	add    $0x10,%esp
    37b0:	e9 29 ff ff ff       	jmp    36de <remote_nic_unicast_set_mode+0x3e>
    37b5:	8d 76 00             	lea    0x0(%esi),%esi
    37b8:	8b 75 e4             	mov    -0x1c(%ebp),%esi
    37bb:	53                   	push   %ebx
    37bc:	53                   	push   %ebx
    37bd:	6a f2                	push   $0xfffffff2
    37bf:	56                   	push   %esi
    37c0:	e8 db 25 00 00       	call   5da0 <async_answer_0@plt>
    37c5:	5f                   	pop    %edi
    37c6:	58                   	pop    %eax
    37c7:	8b 45 10             	mov    0x10(%ebp),%eax
    37ca:	6a f2                	push   $0xfffffff2
    37cc:	50                   	push   %eax
    37cd:	e8 ce 25 00 00       	call   5da0 <async_answer_0@plt>
    37d2:	83 c4 10             	add    $0x10,%esp
    37d5:	e9 10 ff ff ff       	jmp    36ea <remote_nic_unicast_set_mode+0x4a>
    37da:	8b 4d e4             	mov    -0x1c(%ebp),%ecx
    37dd:	52                   	push   %edx
    37de:	52                   	push   %edx
    37df:	6a fe                	push   $0xfffffffe
    37e1:	51                   	push   %ecx
    37e2:	e8 b9 25 00 00       	call   5da0 <async_answer_0@plt>
    37e7:	8b 7d 10             	mov    0x10(%ebp),%edi
    37ea:	5b                   	pop    %ebx
    37eb:	5e                   	pop    %esi
    37ec:	6a fe                	push   $0xfffffffe
    37ee:	57                   	push   %edi
    37ef:	e8 ac 25 00 00       	call   5da0 <async_answer_0@plt>
    37f4:	83 c4 10             	add    $0x10,%esp
    37f7:	e9 ee fe ff ff       	jmp    36ea <remote_nic_unicast_set_mode+0x4a>
    37fc:	8d 74 26 00          	lea    0x0(%esi,%eiz,1),%esi

00003800 <remote_nic_unicast_get_mode>:
    3800:	55                   	push   %ebp
    3801:	89 e5                	mov    %esp,%ebp
    3803:	57                   	push   %edi
    3804:	56                   	push   %esi
    3805:	53                   	push   %ebx
    3806:	83 ec 1c             	sub    $0x1c,%esp
    3809:	8b 45 0c             	mov    0xc(%ebp),%eax
    380c:	8b 40 44             	mov    0x44(%eax),%eax
    380f:	85 c0                	test   %eax,%eax
    3811:	0f 84 49 01 00 00    	je     3960 <remote_nic_unicast_get_mode+0x160>
    3817:	8b 45 14             	mov    0x14(%ebp),%eax
    381a:	8b 70 08             	mov    0x8(%eax),%esi
    381d:	85 f6                	test   %esi,%esi
    381f:	0f 84 db 00 00 00    	je     3900 <remote_nic_unicast_get_mode+0x100>
    3825:	83 ec 0c             	sub    $0xc,%esp
    3828:	8d 3c 76             	lea    (%esi,%esi,2),%edi
    382b:	01 ff                	add    %edi,%edi
    382d:	57                   	push   %edi
    382e:	e8 4d 25 00 00       	call   5d80 <malloc@plt>
    3833:	83 c4 10             	add    $0x10,%esp
    3836:	89 c3                	mov    %eax,%ebx
    3838:	85 c0                	test   %eax,%eax
    383a:	0f 84 68 01 00 00    	je     39a8 <remote_nic_unicast_get_mode+0x1a8>
    3840:	50                   	push   %eax
    3841:	57                   	push   %edi
    3842:	6a 00                	push   $0x0
    3844:	53                   	push   %ebx
    3845:	e8 f6 25 00 00       	call   5e40 <memset@plt>
    384a:	8d 45 dc             	lea    -0x24(%ebp),%eax
    384d:	89 04 24             	mov    %eax,(%esp)
    3850:	8d 45 d8             	lea    -0x28(%ebp),%eax
    3853:	53                   	push   %ebx
    3854:	56                   	push   %esi
    3855:	50                   	push   %eax
    3856:	8b 45 0c             	mov    0xc(%ebp),%eax
    3859:	8b 55 08             	mov    0x8(%ebp),%edx
    385c:	c7 45 d8 02 00 00 00 	movl   $0x2,-0x28(%ebp)
    3863:	c7 45 dc 00 00 00 00 	movl   $0x0,-0x24(%ebp)
    386a:	52                   	push   %edx
    386b:	ff 50 44             	call   *0x44(%eax)
    386e:	83 c4 20             	add    $0x20,%esp
    3871:	89 c6                	mov    %eax,%esi
    3873:	85 c0                	test   %eax,%eax
    3875:	0f 85 be 00 00 00    	jne    3939 <remote_nic_unicast_get_mode+0x139>
    387b:	8b 45 dc             	mov    -0x24(%ebp),%eax
    387e:	85 c0                	test   %eax,%eax
    3880:	0f 84 b3 00 00 00    	je     3939 <remote_nic_unicast_get_mode+0x139>
    3886:	50                   	push   %eax
    3887:	50                   	push   %eax
    3888:	8d 45 e4             	lea    -0x1c(%ebp),%eax
    388b:	50                   	push   %eax
    388c:	8d 45 e0             	lea    -0x20(%ebp),%eax
    388f:	50                   	push   %eax
    3890:	e8 bb 25 00 00       	call   5e50 <async_data_read_receive@plt>
    3895:	83 c4 10             	add    $0x10,%esp
    3898:	84 c0                	test   %al,%al
    389a:	0f 84 d8 00 00 00    	je     3978 <remote_nic_unicast_get_mode+0x178>
    38a0:	8b 45 dc             	mov    -0x24(%ebp),%eax
    38a3:	8d 14 40             	lea    (%eax,%eax,2),%edx
    38a6:	8b 45 e4             	mov    -0x1c(%ebp),%eax
    38a9:	01 d2                	add    %edx,%edx
    38ab:	39 c2                	cmp    %eax,%edx
    38ad:	73 05                	jae    38b4 <remote_nic_unicast_get_mode+0xb4>
    38af:	89 55 e4             	mov    %edx,-0x1c(%ebp)
    38b2:	89 d0                	mov    %edx,%eax
    38b4:	39 c7                	cmp    %eax,%edi
    38b6:	73 05                	jae    38bd <remote_nic_unicast_get_mode+0xbd>
    38b8:	89 7d e4             	mov    %edi,-0x1c(%ebp)
    38bb:	89 f8                	mov    %edi,%eax
    38bd:	8b 75 e0             	mov    -0x20(%ebp),%esi
    38c0:	51                   	push   %ecx
    38c1:	50                   	push   %eax
    38c2:	53                   	push   %ebx
    38c3:	56                   	push   %esi
    38c4:	e8 a7 24 00 00       	call   5d70 <async_data_read_finalize@plt>
    38c9:	5f                   	pop    %edi
    38ca:	58                   	pop    %eax
    38cb:	8b 45 e0             	mov    -0x20(%ebp),%eax
    38ce:	6a f2                	push   $0xfffffff2
    38d0:	50                   	push   %eax
    38d1:	e8 ca 24 00 00       	call   5da0 <async_answer_0@plt>
    38d6:	89 1c 24             	mov    %ebx,(%esp)
    38d9:	e8 42 26 00 00       	call   5f20 <free@plt>
    38de:	8b 45 dc             	mov    -0x24(%ebp),%eax
    38e1:	50                   	push   %eax
    38e2:	8b 45 d8             	mov    -0x28(%ebp),%eax
    38e5:	50                   	push   %eax
    38e6:	8b 45 10             	mov    0x10(%ebp),%eax
    38e9:	6a 00                	push   $0x0
    38eb:	50                   	push   %eax
    38ec:	e8 0f 25 00 00       	call   5e00 <async_answer_2@plt>
    38f1:	83 c4 20             	add    $0x20,%esp
    38f4:	8d 65 f4             	lea    -0xc(%ebp),%esp
    38f7:	5b                   	pop    %ebx
    38f8:	5e                   	pop    %esi
    38f9:	5f                   	pop    %edi
    38fa:	5d                   	pop    %ebp
    38fb:	c3                   	ret    
    38fc:	8d 74 26 00          	lea    0x0(%esi,%eiz,1),%esi
    3900:	50                   	push   %eax
    3901:	6a 00                	push   $0x0
    3903:	6a 00                	push   $0x0
    3905:	6a 00                	push   $0x0
    3907:	e8 34 25 00 00       	call   5e40 <memset@plt>
    390c:	8d 45 dc             	lea    -0x24(%ebp),%eax
    390f:	89 04 24             	mov    %eax,(%esp)
    3912:	8d 45 d8             	lea    -0x28(%ebp),%eax
    3915:	6a 00                	push   $0x0
    3917:	6a 00                	push   $0x0
    3919:	50                   	push   %eax
    391a:	8b 45 0c             	mov    0xc(%ebp),%eax
    391d:	8b 55 08             	mov    0x8(%ebp),%edx
    3920:	c7 45 d8 02 00 00 00 	movl   $0x2,-0x28(%ebp)
    3927:	c7 45 dc 00 00 00 00 	movl   $0x0,-0x24(%ebp)
    392e:	52                   	push   %edx
    392f:	ff 50 44             	call   *0x44(%eax)
    3932:	31 db                	xor    %ebx,%ebx
    3934:	89 c6                	mov    %eax,%esi
    3936:	83 c4 20             	add    $0x20,%esp
    3939:	83 ec 0c             	sub    $0xc,%esp
    393c:	53                   	push   %ebx
    393d:	e8 de 25 00 00       	call   5f20 <free@plt>
    3942:	8b 45 dc             	mov    -0x24(%ebp),%eax
    3945:	50                   	push   %eax
    3946:	8b 45 d8             	mov    -0x28(%ebp),%eax
    3949:	50                   	push   %eax
    394a:	8b 45 10             	mov    0x10(%ebp),%eax
    394d:	56                   	push   %esi
    394e:	50                   	push   %eax
    394f:	e8 ac 24 00 00       	call   5e00 <async_answer_2@plt>
    3954:	83 c4 20             	add    $0x20,%esp
    3957:	8d 65 f4             	lea    -0xc(%ebp),%esp
    395a:	5b                   	pop    %ebx
    395b:	5e                   	pop    %esi
    395c:	5f                   	pop    %edi
    395d:	5d                   	pop    %ebp
    395e:	c3                   	ret    
    395f:	90                   	nop
    3960:	8b 7d 10             	mov    0x10(%ebp),%edi
    3963:	56                   	push   %esi
    3964:	56                   	push   %esi
    3965:	6a f5                	push   $0xfffffff5
    3967:	57                   	push   %edi
    3968:	e8 33 24 00 00       	call   5da0 <async_answer_0@plt>
    396d:	83 c4 10             	add    $0x10,%esp
    3970:	eb e5                	jmp    3957 <remote_nic_unicast_get_mode+0x157>
    3972:	8d b6 00 00 00 00    	lea    0x0(%esi),%esi
    3978:	8b 55 e0             	mov    -0x20(%ebp),%edx
    397b:	50                   	push   %eax
    397c:	50                   	push   %eax
    397d:	6a f2                	push   $0xfffffff2
    397f:	52                   	push   %edx
    3980:	e8 1b 24 00 00       	call   5da0 <async_answer_0@plt>
    3985:	8b 4d dc             	mov    -0x24(%ebp),%ecx
    3988:	8b 75 d8             	mov    -0x28(%ebp),%esi
    398b:	8b 7d 10             	mov    0x10(%ebp),%edi
    398e:	51                   	push   %ecx
    398f:	56                   	push   %esi
    3990:	6a 00                	push   $0x0
    3992:	57                   	push   %edi
    3993:	e8 68 24 00 00       	call   5e00 <async_answer_2@plt>
    3998:	83 c4 14             	add    $0x14,%esp
    399b:	53                   	push   %ebx
    399c:	e8 7f 25 00 00       	call   5f20 <free@plt>
    39a1:	83 c4 10             	add    $0x10,%esp
    39a4:	eb b1                	jmp    3957 <remote_nic_unicast_get_mode+0x157>
    39a6:	66 90                	xchg   %ax,%ax
    39a8:	8b 5d 10             	mov    0x10(%ebp),%ebx
    39ab:	51                   	push   %ecx
    39ac:	51                   	push   %ecx
    39ad:	6a fe                	push   $0xfffffffe
    39af:	53                   	push   %ebx
    39b0:	e8 eb 23 00 00       	call   5da0 <async_answer_0@plt>
    39b5:	83 c4 10             	add    $0x10,%esp
    39b8:	eb 9d                	jmp    3957 <remote_nic_unicast_get_mode+0x157>
    39ba:	8d b6 00 00 00 00    	lea    0x0(%esi),%esi

000039c0 <remote_nic_get_pause>:
    39c0:	55                   	push   %ebp
    39c1:	89 e5                	mov    %esp,%ebp
    39c3:	83 ec 18             	sub    $0x18,%esp
    39c6:	8b 45 0c             	mov    0xc(%ebp),%eax
    39c9:	8b 40 3c             	mov    0x3c(%eax),%eax
    39cc:	85 c0                	test   %eax,%eax
    39ce:	74 38                	je     3a08 <remote_nic_get_pause+0x48>
    39d0:	8d 55 ee             	lea    -0x12(%ebp),%edx
    39d3:	52                   	push   %edx
    39d4:	8d 55 f4             	lea    -0xc(%ebp),%edx
    39d7:	52                   	push   %edx
    39d8:	8d 55 f0             	lea    -0x10(%ebp),%edx
    39db:	52                   	push   %edx
    39dc:	8b 55 08             	mov    0x8(%ebp),%edx
    39df:	52                   	push   %edx
    39e0:	ff d0                	call   *%eax
    39e2:	31 d2                	xor    %edx,%edx
    39e4:	8b 4d f4             	mov    -0xc(%ebp),%ecx
    39e7:	66 8b 55 ee          	mov    -0x12(%ebp),%dx
    39eb:	89 14 24             	mov    %edx,(%esp)
    39ee:	51                   	push   %ecx
    39ef:	8b 55 f0             	mov    -0x10(%ebp),%edx
    39f2:	8b 4d 10             	mov    0x10(%ebp),%ecx
    39f5:	52                   	push   %edx
    39f6:	50                   	push   %eax
    39f7:	51                   	push   %ecx
    39f8:	e8 c3 24 00 00       	call   5ec0 <async_answer_3@plt>
    39fd:	83 c4 20             	add    $0x20,%esp
    3a00:	c9                   	leave  
    3a01:	c3                   	ret    
    3a02:	8d b6 00 00 00 00    	lea    0x0(%esi),%esi
    3a08:	50                   	push   %eax
    3a09:	50                   	push   %eax
    3a0a:	8b 45 10             	mov    0x10(%ebp),%eax
    3a0d:	6a f5                	push   $0xfffffff5
    3a0f:	50                   	push   %eax
    3a10:	e8 8b 23 00 00       	call   5da0 <async_answer_0@plt>
    3a15:	83 c4 10             	add    $0x10,%esp
    3a18:	c9                   	leave  
    3a19:	c3                   	ret    
    3a1a:	8d b6 00 00 00 00    	lea    0x0(%esi),%esi

00003a20 <remote_nic_get_operation_mode>:
    3a20:	55                   	push   %ebp
    3a21:	89 e5                	mov    %esp,%ebp
    3a23:	83 ec 18             	sub    $0x18,%esp
    3a26:	8b 45 0c             	mov    0xc(%ebp),%eax
    3a29:	8b 40 24             	mov    0x24(%eax),%eax
    3a2c:	85 c0                	test   %eax,%eax
    3a2e:	74 48                	je     3a78 <remote_nic_get_operation_mode+0x58>
    3a30:	8d 55 f4             	lea    -0xc(%ebp),%edx
    3a33:	c7 45 ec 00 00 00 00 	movl   $0x0,-0x14(%ebp)
    3a3a:	52                   	push   %edx
    3a3b:	8d 55 f0             	lea    -0x10(%ebp),%edx
    3a3e:	52                   	push   %edx
    3a3f:	8d 55 ec             	lea    -0x14(%ebp),%edx
    3a42:	52                   	push   %edx
    3a43:	c7 45 f0 00 00 00 00 	movl   $0x0,-0x10(%ebp)
    3a4a:	8b 55 08             	mov    0x8(%ebp),%edx
    3a4d:	c7 45 f4 00 00 00 00 	movl   $0x0,-0xc(%ebp)
    3a54:	52                   	push   %edx
    3a55:	ff d0                	call   *%eax
    3a57:	59                   	pop    %ecx
    3a58:	8b 55 f4             	mov    -0xc(%ebp),%edx
    3a5b:	8b 4d f0             	mov    -0x10(%ebp),%ecx
    3a5e:	52                   	push   %edx
    3a5f:	8b 55 ec             	mov    -0x14(%ebp),%edx
    3a62:	51                   	push   %ecx
    3a63:	8b 4d 10             	mov    0x10(%ebp),%ecx
    3a66:	52                   	push   %edx
    3a67:	50                   	push   %eax
    3a68:	51                   	push   %ecx
    3a69:	e8 52 24 00 00       	call   5ec0 <async_answer_3@plt>
    3a6e:	83 c4 20             	add    $0x20,%esp
    3a71:	c9                   	leave  
    3a72:	c3                   	ret    
    3a73:	90                   	nop
    3a74:	8d 74 26 00          	lea    0x0(%esi,%eiz,1),%esi
    3a78:	50                   	push   %eax
    3a79:	50                   	push   %eax
    3a7a:	8b 45 10             	mov    0x10(%ebp),%eax
    3a7d:	6a f5                	push   $0xfffffff5
    3a7f:	50                   	push   %eax
    3a80:	e8 1b 23 00 00       	call   5da0 <async_answer_0@plt>
    3a85:	83 c4 10             	add    $0x10,%esp
    3a88:	c9                   	leave  
    3a89:	c3                   	ret    
    3a8a:	8d b6 00 00 00 00    	lea    0x0(%esi),%esi

00003a90 <remote_nic_autoneg_probe>:
    3a90:	55                   	push   %ebp
    3a91:	89 e5                	mov    %esp,%ebp
    3a93:	83 ec 18             	sub    $0x18,%esp
    3a96:	8b 45 0c             	mov    0xc(%ebp),%eax
    3a99:	8b 40 34             	mov    0x34(%eax),%eax
    3a9c:	85 c0                	test   %eax,%eax
    3a9e:	74 58                	je     3af8 <remote_nic_autoneg_probe+0x68>
    3aa0:	83 ec 0c             	sub    $0xc,%esp
    3aa3:	8d 55 f4             	lea    -0xc(%ebp),%edx
    3aa6:	c7 45 e8 00 00 00 00 	movl   $0x0,-0x18(%ebp)
    3aad:	c7 45 ec 00 00 00 00 	movl   $0x0,-0x14(%ebp)
    3ab4:	52                   	push   %edx
    3ab5:	8d 55 f0             	lea    -0x10(%ebp),%edx
    3ab8:	52                   	push   %edx
    3ab9:	8d 55 ec             	lea    -0x14(%ebp),%edx
    3abc:	52                   	push   %edx
    3abd:	8d 55 e8             	lea    -0x18(%ebp),%edx
    3ac0:	52                   	push   %edx
    3ac1:	c7 45 f0 03 00 00 00 	movl   $0x3,-0x10(%ebp)
    3ac8:	8b 55 08             	mov    0x8(%ebp),%edx
    3acb:	c7 45 f4 03 00 00 00 	movl   $0x3,-0xc(%ebp)
    3ad2:	52                   	push   %edx
    3ad3:	ff d0                	call   *%eax
    3ad5:	83 c4 18             	add    $0x18,%esp
    3ad8:	8b 4d f4             	mov    -0xc(%ebp),%ecx
    3adb:	8b 55 f0             	mov    -0x10(%ebp),%edx
    3ade:	51                   	push   %ecx
    3adf:	8b 4d ec             	mov    -0x14(%ebp),%ecx
    3ae2:	52                   	push   %edx
    3ae3:	8b 55 e8             	mov    -0x18(%ebp),%edx
    3ae6:	51                   	push   %ecx
    3ae7:	8b 4d 10             	mov    0x10(%ebp),%ecx
    3aea:	52                   	push   %edx
    3aeb:	50                   	push   %eax
    3aec:	51                   	push   %ecx
    3aed:	e8 1e 23 00 00       	call   5e10 <async_answer_4@plt>
    3af2:	83 c4 20             	add    $0x20,%esp
    3af5:	c9                   	leave  
    3af6:	c3                   	ret    
    3af7:	90                   	nop
    3af8:	50                   	push   %eax
    3af9:	50                   	push   %eax
    3afa:	8b 45 10             	mov    0x10(%ebp),%eax
    3afd:	6a f5                	push   $0xfffffff5
    3aff:	50                   	push   %eax
    3b00:	e8 9b 22 00 00       	call   5da0 <async_answer_0@plt>
    3b05:	83 c4 10             	add    $0x10,%esp
    3b08:	c9                   	leave  
    3b09:	c3                   	ret    
    3b0a:	8d b6 00 00 00 00    	lea    0x0(%esi),%esi

00003b10 <remote_nic_set_state>:
    3b10:	55                   	push   %ebp
    3b11:	89 e5                	mov    %esp,%ebp
    3b13:	53                   	push   %ebx
    3b14:	50                   	push   %eax
    3b15:	8b 45 0c             	mov    0xc(%ebp),%eax
    3b18:	8b 55 08             	mov    0x8(%ebp),%edx
    3b1b:	8b 5d 10             	mov    0x10(%ebp),%ebx
    3b1e:	8b 4d 14             	mov    0x14(%ebp),%ecx
    3b21:	8b 40 0c             	mov    0xc(%eax),%eax
    3b24:	85 c0                	test   %eax,%eax
    3b26:	74 1c                	je     3b44 <remote_nic_set_state+0x34>
    3b28:	83 ec 08             	sub    $0x8,%esp
    3b2b:	8b 49 08             	mov    0x8(%ecx),%ecx
    3b2e:	51                   	push   %ecx
    3b2f:	52                   	push   %edx
    3b30:	ff d0                	call   *%eax
    3b32:	89 5d 08             	mov    %ebx,0x8(%ebp)
    3b35:	83 c4 10             	add    $0x10,%esp
    3b38:	8b 5d fc             	mov    -0x4(%ebp),%ebx
    3b3b:	89 45 0c             	mov    %eax,0xc(%ebp)
    3b3e:	c9                   	leave  
    3b3f:	e9 5c 22 00 00       	jmp    5da0 <async_answer_0@plt>
    3b44:	53                   	push   %ebx
    3b45:	68 69 05 00 00       	push   $0x569
    3b4a:	68 28 5a 00 00       	push   $0x5a28
    3b4f:	68 54 5a 00 00       	push   $0x5a54
    3b54:	e8 87 22 00 00       	call   5de0 <assert_abort@plt>
    3b59:	8d b4 26 00 00 00 00 	lea    0x0(%esi,%eiz,1),%esi

00003b60 <remote_nic_callback_create>:
    3b60:	55                   	push   %ebp
    3b61:	89 e5                	mov    %esp,%ebp
    3b63:	53                   	push   %ebx
    3b64:	52                   	push   %edx
    3b65:	8b 45 0c             	mov    0xc(%ebp),%eax
    3b68:	8b 55 08             	mov    0x8(%ebp),%edx
    3b6b:	8b 5d 10             	mov    0x10(%ebp),%ebx
    3b6e:	8b 40 04             	mov    0x4(%eax),%eax
    3b71:	85 c0                	test   %eax,%eax
    3b73:	74 18                	je     3b8d <remote_nic_callback_create+0x2d>
    3b75:	83 ec 0c             	sub    $0xc,%esp
    3b78:	52                   	push   %edx
    3b79:	ff d0                	call   *%eax
    3b7b:	89 5d 08             	mov    %ebx,0x8(%ebp)
    3b7e:	83 c4 10             	add    $0x10,%esp
    3b81:	8b 5d fc             	mov    -0x4(%ebp),%ebx
    3b84:	89 45 0c             	mov    %eax,0xc(%ebp)
    3b87:	c9                   	leave  
    3b88:	e9 13 22 00 00       	jmp    5da0 <async_answer_0@plt>
    3b8d:	50                   	push   %eax
    3b8e:	68 53 05 00 00       	push   $0x553
    3b93:	68 28 5a 00 00       	push   $0x5a28
    3b98:	68 69 5a 00 00       	push   $0x5a69
    3b9d:	e8 3e 22 00 00       	call   5de0 <assert_abort@plt>
    3ba2:	8d b4 26 00 00 00 00 	lea    0x0(%esi,%eiz,1),%esi
    3ba9:	8d bc 27 00 00 00 00 	lea    0x0(%edi,%eiz,1),%edi

00003bb0 <remote_nic_get_state>:
    3bb0:	55                   	push   %ebp
    3bb1:	89 e5                	mov    %esp,%ebp
    3bb3:	83 ec 18             	sub    $0x18,%esp
    3bb6:	8b 45 0c             	mov    0xc(%ebp),%eax
    3bb9:	8b 40 08             	mov    0x8(%eax),%eax
    3bbc:	85 c0                	test   %eax,%eax
    3bbe:	74 29                	je     3be9 <remote_nic_get_state+0x39>
    3bc0:	8b 4d 08             	mov    0x8(%ebp),%ecx
    3bc3:	c7 45 f4 03 00 00 00 	movl   $0x3,-0xc(%ebp)
    3bca:	52                   	push   %edx
    3bcb:	52                   	push   %edx
    3bcc:	8d 55 f4             	lea    -0xc(%ebp),%edx
    3bcf:	52                   	push   %edx
    3bd0:	51                   	push   %ecx
    3bd1:	ff d0                	call   *%eax
    3bd3:	83 c4 0c             	add    $0xc,%esp
    3bd6:	8b 55 f4             	mov    -0xc(%ebp),%edx
    3bd9:	8b 4d 10             	mov    0x10(%ebp),%ecx
    3bdc:	52                   	push   %edx
    3bdd:	50                   	push   %eax
    3bde:	51                   	push   %ecx
    3bdf:	e8 bc 22 00 00       	call   5ea0 <async_answer_1@plt>
    3be4:	83 c4 10             	add    $0x10,%esp
    3be7:	c9                   	leave  
    3be8:	c3                   	ret    
    3be9:	50                   	push   %eax
    3bea:	68 5d 05 00 00       	push   $0x55d
    3bef:	68 28 5a 00 00       	push   $0x5a28
    3bf4:	68 84 5a 00 00       	push   $0x5a84
    3bf9:	e8 e2 21 00 00       	call   5de0 <assert_abort@plt>
    3bfe:	66 90                	xchg   %ax,%ax

00003c00 <remote_nic_send_frame>:
    3c00:	55                   	push   %ebp
    3c01:	89 e5                	mov    %esp,%ebp
    3c03:	53                   	push   %ebx
    3c04:	83 ec 14             	sub    $0x14,%esp
    3c07:	8b 5d 0c             	mov    0xc(%ebp),%ebx
    3c0a:	8b 13                	mov    (%ebx),%edx
    3c0c:	85 d2                	test   %edx,%edx
    3c0e:	74 65                	je     3c75 <remote_nic_send_frame+0x75>
    3c10:	50                   	push   %eax
    3c11:	50                   	push   %eax
    3c12:	8d 45 f4             	lea    -0xc(%ebp),%eax
    3c15:	50                   	push   %eax
    3c16:	8d 45 f0             	lea    -0x10(%ebp),%eax
    3c19:	6a 00                	push   $0x0
    3c1b:	6a 00                	push   $0x0
    3c1d:	6a 00                	push   $0x0
    3c1f:	6a 00                	push   $0x0
    3c21:	50                   	push   %eax
    3c22:	e8 b9 22 00 00       	call   5ee0 <async_data_write_accept@plt>
    3c27:	83 c4 20             	add    $0x20,%esp
    3c2a:	85 c0                	test   %eax,%eax
    3c2c:	75 32                	jne    3c60 <remote_nic_send_frame+0x60>
    3c2e:	8b 55 f4             	mov    -0xc(%ebp),%edx
    3c31:	8b 4d f0             	mov    -0x10(%ebp),%ecx
    3c34:	50                   	push   %eax
    3c35:	8b 45 08             	mov    0x8(%ebp),%eax
    3c38:	52                   	push   %edx
    3c39:	51                   	push   %ecx
    3c3a:	50                   	push   %eax
    3c3b:	ff 13                	call   *(%ebx)
    3c3d:	8b 5d 10             	mov    0x10(%ebp),%ebx
    3c40:	5a                   	pop    %edx
    3c41:	59                   	pop    %ecx
    3c42:	50                   	push   %eax
    3c43:	53                   	push   %ebx
    3c44:	e8 57 21 00 00       	call   5da0 <async_answer_0@plt>
    3c49:	58                   	pop    %eax
    3c4a:	8b 45 f0             	mov    -0x10(%ebp),%eax
    3c4d:	50                   	push   %eax
    3c4e:	e8 cd 22 00 00       	call   5f20 <free@plt>
    3c53:	83 c4 10             	add    $0x10,%esp
    3c56:	8b 5d fc             	mov    -0x4(%ebp),%ebx
    3c59:	c9                   	leave  
    3c5a:	c3                   	ret    
    3c5b:	90                   	nop
    3c5c:	8d 74 26 00          	lea    0x0(%esi,%eiz,1),%esi
    3c60:	50                   	push   %eax
    3c61:	50                   	push   %eax
    3c62:	8b 45 10             	mov    0x10(%ebp),%eax
    3c65:	6a f2                	push   $0xfffffff2
    3c67:	50                   	push   %eax
    3c68:	e8 33 21 00 00       	call   5da0 <async_answer_0@plt>
    3c6d:	83 c4 10             	add    $0x10,%esp
    3c70:	8b 5d fc             	mov    -0x4(%ebp),%ebx
    3c73:	c9                   	leave  
    3c74:	c3                   	ret    
    3c75:	50                   	push   %eax
    3c76:	68 3e 05 00 00       	push   $0x53e
    3c7b:	68 28 5a 00 00       	push   $0x5a28
    3c80:	68 99 5a 00 00       	push   $0x5a99
    3c85:	e8 56 21 00 00       	call   5de0 <assert_abort@plt>
    3c8a:	8d b6 00 00 00 00    	lea    0x0(%esi),%esi

00003c90 <nic_send_frame>:
    3c90:	55                   	push   %ebp
    3c91:	89 e5                	mov    %esp,%ebp
    3c93:	56                   	push   %esi
    3c94:	53                   	push   %ebx
    3c95:	83 ec 3c             	sub    $0x3c,%esp
    3c98:	8b 55 08             	mov    0x8(%ebp),%edx
    3c9b:	52                   	push   %edx
    3c9c:	e8 0f 22 00 00       	call   5eb0 <async_exchange_begin@plt>
    3ca1:	83 c4 0c             	add    $0xc,%esp
    3ca4:	89 c3                	mov    %eax,%ebx
    3ca6:	8d 45 d4             	lea    -0x2c(%ebp),%eax
    3ca9:	50                   	push   %eax
    3caa:	6a 00                	push   $0x0
    3cac:	6a 00                	push   $0x0
    3cae:	6a 00                	push   $0x0
    3cb0:	6a 00                	push   $0x0
    3cb2:	68 05 04 00 00       	push   $0x405
    3cb7:	53                   	push   %ebx
    3cb8:	e8 f3 20 00 00       	call   5db0 <async_send_fast@plt>
    3cbd:	83 c4 1c             	add    $0x1c,%esp
    3cc0:	8b 4d 10             	mov    0x10(%ebp),%ecx
    3cc3:	89 c6                	mov    %eax,%esi
    3cc5:	8b 45 0c             	mov    0xc(%ebp),%eax
    3cc8:	51                   	push   %ecx
    3cc9:	50                   	push   %eax
    3cca:	53                   	push   %ebx
    3ccb:	e8 90 20 00 00       	call   5d60 <async_data_write_start@plt>
    3cd0:	89 1c 24             	mov    %ebx,(%esp)
    3cd3:	89 45 d0             	mov    %eax,-0x30(%ebp)
    3cd6:	e8 e5 20 00 00       	call   5dc0 <async_exchange_end@plt>
    3cdb:	8b 45 d0             	mov    -0x30(%ebp),%eax
    3cde:	83 c4 10             	add    $0x10,%esp
    3ce1:	85 c0                	test   %eax,%eax
    3ce3:	75 1b                	jne    3d00 <nic_send_frame+0x70>
    3ce5:	50                   	push   %eax
    3ce6:	50                   	push   %eax
    3ce7:	8d 45 d0             	lea    -0x30(%ebp),%eax
    3cea:	50                   	push   %eax
    3ceb:	56                   	push   %esi
    3cec:	e8 4f 20 00 00       	call   5d40 <async_wait_for@plt>
    3cf1:	8b 45 d0             	mov    -0x30(%ebp),%eax
    3cf4:	83 c4 10             	add    $0x10,%esp
    3cf7:	8d 65 f8             	lea    -0x8(%ebp),%esp
    3cfa:	5b                   	pop    %ebx
    3cfb:	5e                   	pop    %esi
    3cfc:	5d                   	pop    %ebp
    3cfd:	c3                   	ret    
    3cfe:	66 90                	xchg   %ax,%ax
    3d00:	83 ec 0c             	sub    $0xc,%esp
    3d03:	56                   	push   %esi
    3d04:	e8 e7 21 00 00       	call   5ef0 <async_forget@plt>
    3d09:	8b 45 d0             	mov    -0x30(%ebp),%eax
    3d0c:	83 c4 10             	add    $0x10,%esp
    3d0f:	8d 65 f8             	lea    -0x8(%ebp),%esp
    3d12:	5b                   	pop    %ebx
    3d13:	5e                   	pop    %esi
    3d14:	5d                   	pop    %ebp
    3d15:	c3                   	ret    
    3d16:	8d 76 00             	lea    0x0(%esi),%esi
    3d19:	8d bc 27 00 00 00 00 	lea    0x0(%edi,%eiz,1),%edi

00003d20 <nic_callback_create>:
    3d20:	55                   	push   %ebp
    3d21:	89 e5                	mov    %esp,%ebp
    3d23:	56                   	push   %esi
    3d24:	53                   	push   %ebx
    3d25:	83 ec 4c             	sub    $0x4c,%esp
    3d28:	8b 4d 08             	mov    0x8(%ebp),%ecx
    3d2b:	51                   	push   %ecx
    3d2c:	e8 7f 21 00 00       	call   5eb0 <async_exchange_begin@plt>
    3d31:	83 c4 0c             	add    $0xc,%esp
    3d34:	89 c3                	mov    %eax,%ebx
    3d36:	8d 45 d4             	lea    -0x2c(%ebp),%eax
    3d39:	50                   	push   %eax
    3d3a:	6a 00                	push   $0x0
    3d3c:	6a 00                	push   $0x0
    3d3e:	6a 00                	push   $0x0
    3d40:	6a 01                	push   $0x1
    3d42:	68 05 04 00 00       	push   $0x405
    3d47:	53                   	push   %ebx
    3d48:	e8 63 20 00 00       	call   5db0 <async_send_fast@plt>
    3d4d:	83 c4 1c             	add    $0x1c,%esp
    3d50:	89 c6                	mov    %eax,%esi
    3d52:	8d 45 d0             	lea    -0x30(%ebp),%eax
    3d55:	50                   	push   %eax
    3d56:	8b 45 10             	mov    0x10(%ebp),%eax
    3d59:	50                   	push   %eax
    3d5a:	8b 45 0c             	mov    0xc(%ebp),%eax
    3d5d:	50                   	push   %eax
    3d5e:	6a 00                	push   $0x0
    3d60:	6a 00                	push   $0x0
    3d62:	68 e5 4e 8f 41       	push   $0x418f4ee5
    3d67:	53                   	push   %ebx
    3d68:	e8 b3 20 00 00       	call   5e20 <async_create_callback_port@plt>
    3d6d:	83 c4 20             	add    $0x20,%esp
    3d70:	85 c0                	test   %eax,%eax
    3d72:	75 24                	jne    3d98 <nic_callback_create+0x78>
    3d74:	83 ec 0c             	sub    $0xc,%esp
    3d77:	53                   	push   %ebx
    3d78:	e8 43 20 00 00       	call   5dc0 <async_exchange_end@plt>
    3d7d:	58                   	pop    %eax
    3d7e:	8d 45 cc             	lea    -0x34(%ebp),%eax
    3d81:	5a                   	pop    %edx
    3d82:	50                   	push   %eax
    3d83:	56                   	push   %esi
    3d84:	e8 b7 1f 00 00       	call   5d40 <async_wait_for@plt>
    3d89:	8b 45 cc             	mov    -0x34(%ebp),%eax
    3d8c:	83 c4 10             	add    $0x10,%esp
    3d8f:	8d 65 f8             	lea    -0x8(%ebp),%esp
    3d92:	5b                   	pop    %ebx
    3d93:	5e                   	pop    %esi
    3d94:	5d                   	pop    %ebp
    3d95:	c3                   	ret    
    3d96:	66 90                	xchg   %ax,%ax
    3d98:	83 ec 0c             	sub    $0xc,%esp
    3d9b:	89 45 c4             	mov    %eax,-0x3c(%ebp)
    3d9e:	56                   	push   %esi
    3d9f:	e8 4c 21 00 00       	call   5ef0 <async_forget@plt>
    3da4:	8b 45 c4             	mov    -0x3c(%ebp),%eax
    3da7:	83 c4 10             	add    $0x10,%esp
    3daa:	8d 65 f8             	lea    -0x8(%ebp),%esp
    3dad:	5b                   	pop    %ebx
    3dae:	5e                   	pop    %esi
    3daf:	5d                   	pop    %ebp
    3db0:	c3                   	ret    
    3db1:	eb 0d                	jmp    3dc0 <nic_get_state>
    3db3:	90                   	nop
    3db4:	90                   	nop
    3db5:	90                   	nop
    3db6:	90                   	nop
    3db7:	90                   	nop
    3db8:	90                   	nop
    3db9:	90                   	nop
    3dba:	90                   	nop
    3dbb:	90                   	nop
    3dbc:	90                   	nop
    3dbd:	90                   	nop
    3dbe:	90                   	nop
    3dbf:	90                   	nop

00003dc0 <nic_get_state>:
    3dc0:	55                   	push   %ebp
    3dc1:	89 e5                	mov    %esp,%ebp
    3dc3:	56                   	push   %esi
    3dc4:	53                   	push   %ebx
    3dc5:	83 ec 20             	sub    $0x20,%esp
    3dc8:	8b 5d 0c             	mov    0xc(%ebp),%ebx
    3dcb:	85 db                	test   %ebx,%ebx
    3dcd:	74 4b                	je     3e1a <nic_get_state+0x5a>
    3dcf:	83 ec 0c             	sub    $0xc,%esp
    3dd2:	8b 45 08             	mov    0x8(%ebp),%eax
    3dd5:	50                   	push   %eax
    3dd6:	e8 d5 20 00 00       	call   5eb0 <async_exchange_begin@plt>
    3ddb:	83 c4 0c             	add    $0xc,%esp
    3dde:	89 c6                	mov    %eax,%esi
    3de0:	8d 45 f4             	lea    -0xc(%ebp),%eax
    3de3:	6a 00                	push   $0x0
    3de5:	6a 00                	push   $0x0
    3de7:	6a 00                	push   $0x0
    3de9:	6a 00                	push   $0x0
    3deb:	50                   	push   %eax
    3dec:	6a 00                	push   $0x0
    3dee:	6a 00                	push   $0x0
    3df0:	6a 00                	push   $0x0
    3df2:	6a 02                	push   $0x2
    3df4:	68 05 04 00 00       	push   $0x405
    3df9:	56                   	push   %esi
    3dfa:	e8 91 1f 00 00       	call   5d90 <async_req_fast@plt>
    3dff:	83 c4 24             	add    $0x24,%esp
    3e02:	89 45 e4             	mov    %eax,-0x1c(%ebp)
    3e05:	56                   	push   %esi
    3e06:	e8 b5 1f 00 00       	call   5dc0 <async_exchange_end@plt>
    3e0b:	8b 55 f4             	mov    -0xc(%ebp),%edx
    3e0e:	8b 45 e4             	mov    -0x1c(%ebp),%eax
    3e11:	89 13                	mov    %edx,(%ebx)
    3e13:	8d 65 f8             	lea    -0x8(%ebp),%esp
    3e16:	5b                   	pop    %ebx
    3e17:	5e                   	pop    %esi
    3e18:	5d                   	pop    %ebp
    3e19:	c3                   	ret    
    3e1a:	52                   	push   %edx
    3e1b:	68 a2 00 00 00       	push   $0xa2
    3e20:	68 28 5a 00 00       	push   $0x5a28
    3e25:	68 c7 5a 00 00       	push   $0x5ac7
    3e2a:	e8 b1 1f 00 00       	call   5de0 <assert_abort@plt>
    3e2f:	90                   	nop

00003e30 <nic_set_state>:
    3e30:	55                   	push   %ebp
    3e31:	89 e5                	mov    %esp,%ebp
    3e33:	53                   	push   %ebx
    3e34:	83 ec 20             	sub    $0x20,%esp
    3e37:	8b 45 08             	mov    0x8(%ebp),%eax
    3e3a:	50                   	push   %eax
    3e3b:	e8 70 20 00 00       	call   5eb0 <async_exchange_begin@plt>
    3e40:	83 c4 0c             	add    $0xc,%esp
    3e43:	8b 55 0c             	mov    0xc(%ebp),%edx
    3e46:	89 c3                	mov    %eax,%ebx
    3e48:	6a 00                	push   $0x0
    3e4a:	6a 00                	push   $0x0
    3e4c:	6a 00                	push   $0x0
    3e4e:	6a 00                	push   $0x0
    3e50:	6a 00                	push   $0x0
    3e52:	6a 00                	push   $0x0
    3e54:	6a 00                	push   $0x0
    3e56:	52                   	push   %edx
    3e57:	6a 03                	push   $0x3
    3e59:	68 05 04 00 00       	push   $0x405
    3e5e:	50                   	push   %eax
    3e5f:	e8 2c 1f 00 00       	call   5d90 <async_req_fast@plt>
    3e64:	83 c4 24             	add    $0x24,%esp
    3e67:	89 45 f4             	mov    %eax,-0xc(%ebp)
    3e6a:	53                   	push   %ebx
    3e6b:	e8 50 1f 00 00       	call   5dc0 <async_exchange_end@plt>
    3e70:	8b 45 f4             	mov    -0xc(%ebp),%eax
    3e73:	8b 5d fc             	mov    -0x4(%ebp),%ebx
    3e76:	c9                   	leave  
    3e77:	c3                   	ret    
    3e78:	90                   	nop
    3e79:	8d b4 26 00 00 00 00 	lea    0x0(%esi,%eiz,1),%esi

00003e80 <nic_get_address>:
    3e80:	55                   	push   %ebp
    3e81:	89 e5                	mov    %esp,%ebp
    3e83:	57                   	push   %edi
    3e84:	56                   	push   %esi
    3e85:	53                   	push   %ebx
    3e86:	83 ec 2c             	sub    $0x2c,%esp
    3e89:	8b 75 0c             	mov    0xc(%ebp),%esi
    3e8c:	85 f6                	test   %esi,%esi
    3e8e:	74 60                	je     3ef0 <nic_get_address+0x70>
    3e90:	83 ec 0c             	sub    $0xc,%esp
    3e93:	8b 45 08             	mov    0x8(%ebp),%eax
    3e96:	50                   	push   %eax
    3e97:	e8 14 20 00 00       	call   5eb0 <async_exchange_begin@plt>
    3e9c:	83 c4 0c             	add    $0xc,%esp
    3e9f:	89 c3                	mov    %eax,%ebx
    3ea1:	6a 00                	push   $0x0
    3ea3:	6a 00                	push   $0x0
    3ea5:	6a 00                	push   $0x0
    3ea7:	6a 00                	push   $0x0
    3ea9:	6a 04                	push   $0x4
    3eab:	68 05 04 00 00       	push   $0x405
    3eb0:	50                   	push   %eax
    3eb1:	e8 fa 1e 00 00       	call   5db0 <async_send_fast@plt>
    3eb6:	83 c4 1c             	add    $0x1c,%esp
    3eb9:	89 c7                	mov    %eax,%edi
    3ebb:	6a 06                	push   $0x6
    3ebd:	56                   	push   %esi
    3ebe:	53                   	push   %ebx
    3ebf:	e8 9c 1f 00 00       	call   5e60 <async_data_read_start@plt>
    3ec4:	89 1c 24             	mov    %ebx,(%esp)
    3ec7:	89 45 d4             	mov    %eax,-0x2c(%ebp)
    3eca:	e8 f1 1e 00 00       	call   5dc0 <async_exchange_end@plt>
    3ecf:	5a                   	pop    %edx
    3ed0:	8d 55 e4             	lea    -0x1c(%ebp),%edx
    3ed3:	59                   	pop    %ecx
    3ed4:	52                   	push   %edx
    3ed5:	57                   	push   %edi
    3ed6:	e8 65 1e 00 00       	call   5d40 <async_wait_for@plt>
    3edb:	8b 45 d4             	mov    -0x2c(%ebp),%eax
    3ede:	83 c4 10             	add    $0x10,%esp
    3ee1:	85 c0                	test   %eax,%eax
    3ee3:	75 03                	jne    3ee8 <nic_get_address+0x68>
    3ee5:	8b 45 e4             	mov    -0x1c(%ebp),%eax
    3ee8:	8d 65 f4             	lea    -0xc(%ebp),%esp
    3eeb:	5b                   	pop    %ebx
    3eec:	5e                   	pop    %esi
    3eed:	5f                   	pop    %edi
    3eee:	5d                   	pop    %ebp
    3eef:	c3                   	ret    
    3ef0:	53                   	push   %ebx
    3ef1:	68 cc 00 00 00       	push   $0xcc
    3ef6:	68 28 5a 00 00       	push   $0x5a28
    3efb:	68 4c 5a 00 00       	push   $0x5a4c
    3f00:	e8 db 1e 00 00       	call   5de0 <assert_abort@plt>
    3f05:	8d 74 26 00          	lea    0x0(%esi,%eiz,1),%esi
    3f09:	8d bc 27 00 00 00 00 	lea    0x0(%edi,%eiz,1),%edi

00003f10 <nic_set_address>:
    3f10:	55                   	push   %ebp
    3f11:	89 e5                	mov    %esp,%ebp
    3f13:	57                   	push   %edi
    3f14:	56                   	push   %esi
    3f15:	53                   	push   %ebx
    3f16:	83 ec 2c             	sub    $0x2c,%esp
    3f19:	8b 75 0c             	mov    0xc(%ebp),%esi
    3f1c:	85 f6                	test   %esi,%esi
    3f1e:	74 60                	je     3f80 <nic_set_address+0x70>
    3f20:	83 ec 0c             	sub    $0xc,%esp
    3f23:	8b 45 08             	mov    0x8(%ebp),%eax
    3f26:	50                   	push   %eax
    3f27:	e8 84 1f 00 00       	call   5eb0 <async_exchange_begin@plt>
    3f2c:	83 c4 0c             	add    $0xc,%esp
    3f2f:	89 c3                	mov    %eax,%ebx
    3f31:	6a 00                	push   $0x0
    3f33:	6a 00                	push   $0x0
    3f35:	6a 00                	push   $0x0
    3f37:	6a 00                	push   $0x0
    3f39:	6a 05                	push   $0x5
    3f3b:	68 05 04 00 00       	push   $0x405
    3f40:	50                   	push   %eax
    3f41:	e8 6a 1e 00 00       	call   5db0 <async_send_fast@plt>
    3f46:	83 c4 1c             	add    $0x1c,%esp
    3f49:	89 c7                	mov    %eax,%edi
    3f4b:	6a 06                	push   $0x6
    3f4d:	56                   	push   %esi
    3f4e:	53                   	push   %ebx
    3f4f:	e8 0c 1e 00 00       	call   5d60 <async_data_write_start@plt>
    3f54:	89 1c 24             	mov    %ebx,(%esp)
    3f57:	89 45 d4             	mov    %eax,-0x2c(%ebp)
    3f5a:	e8 61 1e 00 00       	call   5dc0 <async_exchange_end@plt>
    3f5f:	5a                   	pop    %edx
    3f60:	8d 55 e4             	lea    -0x1c(%ebp),%edx
    3f63:	59                   	pop    %ecx
    3f64:	52                   	push   %edx
    3f65:	57                   	push   %edi
    3f66:	e8 d5 1d 00 00       	call   5d40 <async_wait_for@plt>
    3f6b:	8b 45 d4             	mov    -0x2c(%ebp),%eax
    3f6e:	83 c4 10             	add    $0x10,%esp
    3f71:	85 c0                	test   %eax,%eax
    3f73:	75 03                	jne    3f78 <nic_set_address+0x68>
    3f75:	8b 45 e4             	mov    -0x1c(%ebp),%eax
    3f78:	8d 65 f4             	lea    -0xc(%ebp),%esp
    3f7b:	5b                   	pop    %ebx
    3f7c:	5e                   	pop    %esi
    3f7d:	5f                   	pop    %edi
    3f7e:	5d                   	pop    %ebp
    3f7f:	c3                   	ret    
    3f80:	53                   	push   %ebx
    3f81:	68 e7 00 00 00       	push   $0xe7
    3f86:	68 28 5a 00 00       	push   $0x5a28
    3f8b:	68 4c 5a 00 00       	push   $0x5a4c
    3f90:	e8 4b 1e 00 00       	call   5de0 <assert_abort@plt>
    3f95:	8d 74 26 00          	lea    0x0(%esi,%eiz,1),%esi
    3f99:	8d bc 27 00 00 00 00 	lea    0x0(%edi,%eiz,1),%edi

00003fa0 <nic_get_stats>:
    3fa0:	55                   	push   %ebp
    3fa1:	89 e5                	mov    %esp,%ebp
    3fa3:	56                   	push   %esi
    3fa4:	53                   	push   %ebx
    3fa5:	83 ec 10             	sub    $0x10,%esp
    3fa8:	8b 75 0c             	mov    0xc(%ebp),%esi
    3fab:	85 f6                	test   %esi,%esi
    3fad:	74 72                	je     4021 <nic_get_stats+0x81>
    3faf:	83 ec 0c             	sub    $0xc,%esp
    3fb2:	8b 55 08             	mov    0x8(%ebp),%edx
    3fb5:	52                   	push   %edx
    3fb6:	e8 f5 1e 00 00       	call   5eb0 <async_exchange_begin@plt>
    3fbb:	83 c4 0c             	add    $0xc,%esp
    3fbe:	89 c3                	mov    %eax,%ebx
    3fc0:	6a 00                	push   $0x0
    3fc2:	6a 00                	push   $0x0
    3fc4:	6a 00                	push   $0x0
    3fc6:	6a 00                	push   $0x0
    3fc8:	6a 00                	push   $0x0
    3fca:	6a 00                	push   $0x0
    3fcc:	6a 00                	push   $0x0
    3fce:	6a 00                	push   $0x0
    3fd0:	6a 06                	push   $0x6
    3fd2:	68 05 04 00 00       	push   $0x405
    3fd7:	50                   	push   %eax
    3fd8:	e8 b3 1d 00 00       	call   5d90 <async_req_fast@plt>
    3fdd:	83 c4 30             	add    $0x30,%esp
    3fe0:	85 c0                	test   %eax,%eax
    3fe2:	75 24                	jne    4008 <nic_get_stats+0x68>
    3fe4:	50                   	push   %eax
    3fe5:	6a 6c                	push   $0x6c
    3fe7:	56                   	push   %esi
    3fe8:	53                   	push   %ebx
    3fe9:	e8 72 1e 00 00       	call   5e60 <async_data_read_start@plt>
    3fee:	89 1c 24             	mov    %ebx,(%esp)
    3ff1:	89 45 f4             	mov    %eax,-0xc(%ebp)
    3ff4:	e8 c7 1d 00 00       	call   5dc0 <async_exchange_end@plt>
    3ff9:	8b 45 f4             	mov    -0xc(%ebp),%eax
    3ffc:	83 c4 10             	add    $0x10,%esp
    3fff:	8d 65 f8             	lea    -0x8(%ebp),%esp
    4002:	5b                   	pop    %ebx
    4003:	5e                   	pop    %esi
    4004:	5d                   	pop    %ebp
    4005:	c3                   	ret    
    4006:	66 90                	xchg   %ax,%ax
    4008:	83 ec 0c             	sub    $0xc,%esp
    400b:	89 45 f4             	mov    %eax,-0xc(%ebp)
    400e:	53                   	push   %ebx
    400f:	e8 ac 1d 00 00       	call   5dc0 <async_exchange_end@plt>
    4014:	8b 45 f4             	mov    -0xc(%ebp),%eax
    4017:	83 c4 10             	add    $0x10,%esp
    401a:	8d 65 f8             	lea    -0x8(%ebp),%esp
    401d:	5b                   	pop    %ebx
    401e:	5e                   	pop    %esi
    401f:	5d                   	pop    %ebp
    4020:	c3                   	ret    
    4021:	51                   	push   %ecx
    4022:	68 02 01 00 00       	push   $0x102
    4027:	68 28 5a 00 00       	push   $0x5a28
    402c:	68 af 5a 00 00       	push   $0x5aaf
    4031:	e8 aa 1d 00 00       	call   5de0 <assert_abort@plt>
    4036:	8d 76 00             	lea    0x0(%esi),%esi
    4039:	8d bc 27 00 00 00 00 	lea    0x0(%edi,%eiz,1),%edi

00004040 <nic_get_device_info>:
    4040:	55                   	push   %ebp
    4041:	89 e5                	mov    %esp,%ebp
    4043:	57                   	push   %edi
    4044:	56                   	push   %esi
    4045:	53                   	push   %ebx
    4046:	83 ec 2c             	sub    $0x2c,%esp
    4049:	8b 75 0c             	mov    0xc(%ebp),%esi
    404c:	85 f6                	test   %esi,%esi
    404e:	74 63                	je     40b3 <nic_get_device_info+0x73>
    4050:	83 ec 0c             	sub    $0xc,%esp
    4053:	8b 45 08             	mov    0x8(%ebp),%eax
    4056:	50                   	push   %eax
    4057:	e8 54 1e 00 00       	call   5eb0 <async_exchange_begin@plt>
    405c:	83 c4 0c             	add    $0xc,%esp
    405f:	89 c3                	mov    %eax,%ebx
    4061:	6a 00                	push   $0x0
    4063:	6a 00                	push   $0x0
    4065:	6a 00                	push   $0x0
    4067:	6a 00                	push   $0x0
    4069:	6a 07                	push   $0x7
    406b:	68 05 04 00 00       	push   $0x405
    4070:	50                   	push   %eax
    4071:	e8 3a 1d 00 00       	call   5db0 <async_send_fast@plt>
    4076:	83 c4 1c             	add    $0x1c,%esp
    4079:	89 c7                	mov    %eax,%edi
    407b:	68 1c 01 00 00       	push   $0x11c
    4080:	56                   	push   %esi
    4081:	53                   	push   %ebx
    4082:	e8 d9 1d 00 00       	call   5e60 <async_data_read_start@plt>
    4087:	89 1c 24             	mov    %ebx,(%esp)
    408a:	89 45 d4             	mov    %eax,-0x2c(%ebp)
    408d:	e8 2e 1d 00 00       	call   5dc0 <async_exchange_end@plt>
    4092:	5a                   	pop    %edx
    4093:	8d 55 e4             	lea    -0x1c(%ebp),%edx
    4096:	59                   	pop    %ecx
    4097:	52                   	push   %edx
    4098:	57                   	push   %edi
    4099:	e8 a2 1c 00 00       	call   5d40 <async_wait_for@plt>
    409e:	8b 45 d4             	mov    -0x2c(%ebp),%eax
    40a1:	83 c4 10             	add    $0x10,%esp
    40a4:	85 c0                	test   %eax,%eax
    40a6:	75 03                	jne    40ab <nic_get_device_info+0x6b>
    40a8:	8b 45 e4             	mov    -0x1c(%ebp),%eax
    40ab:	8d 65 f4             	lea    -0xc(%ebp),%esp
    40ae:	5b                   	pop    %ebx
    40af:	5e                   	pop    %esi
    40b0:	5f                   	pop    %edi
    40b1:	5d                   	pop    %ebp
    40b2:	c3                   	ret    
    40b3:	53                   	push   %ebx
    40b4:	68 20 01 00 00       	push   $0x120
    40b9:	68 28 5a 00 00       	push   $0x5a28
    40be:	68 b5 5a 00 00       	push   $0x5ab5
    40c3:	e8 18 1d 00 00       	call   5de0 <assert_abort@plt>
    40c8:	90                   	nop
    40c9:	8d b4 26 00 00 00 00 	lea    0x0(%esi,%eiz,1),%esi

000040d0 <nic_get_cable_state>:
    40d0:	55                   	push   %ebp
    40d1:	89 e5                	mov    %esp,%ebp
    40d3:	56                   	push   %esi
    40d4:	53                   	push   %ebx
    40d5:	83 ec 20             	sub    $0x20,%esp
    40d8:	8b 5d 0c             	mov    0xc(%ebp),%ebx
    40db:	85 db                	test   %ebx,%ebx
    40dd:	74 4b                	je     412a <nic_get_cable_state+0x5a>
    40df:	83 ec 0c             	sub    $0xc,%esp
    40e2:	8b 45 08             	mov    0x8(%ebp),%eax
    40e5:	50                   	push   %eax
    40e6:	e8 c5 1d 00 00       	call   5eb0 <async_exchange_begin@plt>
    40eb:	83 c4 0c             	add    $0xc,%esp
    40ee:	89 c6                	mov    %eax,%esi
    40f0:	8d 45 f4             	lea    -0xc(%ebp),%eax
    40f3:	6a 00                	push   $0x0
    40f5:	6a 00                	push   $0x0
    40f7:	6a 00                	push   $0x0
    40f9:	6a 00                	push   $0x0
    40fb:	50                   	push   %eax
    40fc:	6a 00                	push   $0x0
    40fe:	6a 00                	push   $0x0
    4100:	6a 00                	push   $0x0
    4102:	6a 08                	push   $0x8
    4104:	68 05 04 00 00       	push   $0x405
    4109:	56                   	push   %esi
    410a:	e8 81 1c 00 00       	call   5d90 <async_req_fast@plt>
    410f:	83 c4 24             	add    $0x24,%esp
    4112:	89 45 e4             	mov    %eax,-0x1c(%ebp)
    4115:	56                   	push   %esi
    4116:	e8 a5 1c 00 00       	call   5dc0 <async_exchange_end@plt>
    411b:	8b 55 f4             	mov    -0xc(%ebp),%edx
    411e:	8b 45 e4             	mov    -0x1c(%ebp),%eax
    4121:	89 13                	mov    %edx,(%ebx)
    4123:	8d 65 f8             	lea    -0x8(%ebp),%esp
    4126:	5b                   	pop    %ebx
    4127:	5e                   	pop    %esi
    4128:	5d                   	pop    %ebp
    4129:	c3                   	ret    
    412a:	52                   	push   %edx
    412b:	68 3c 01 00 00       	push   $0x13c
    4130:	68 28 5a 00 00       	push   $0x5a28
    4135:	68 c1 5a 00 00       	push   $0x5ac1
    413a:	e8 a1 1c 00 00       	call   5de0 <assert_abort@plt>
    413f:	90                   	nop

00004140 <nic_get_operation_mode>:
    4140:	55                   	push   %ebp
    4141:	89 e5                	mov    %esp,%ebp
    4143:	57                   	push   %edi
    4144:	56                   	push   %esi
    4145:	53                   	push   %ebx
    4146:	83 ec 38             	sub    $0x38,%esp
    4149:	8b 4d 08             	mov    0x8(%ebp),%ecx
    414c:	8b 7d 0c             	mov    0xc(%ebp),%edi
    414f:	51                   	push   %ecx
    4150:	8b 5d 14             	mov    0x14(%ebp),%ebx
    4153:	e8 58 1d 00 00       	call   5eb0 <async_exchange_begin@plt>
    4158:	83 c4 0c             	add    $0xc,%esp
    415b:	89 c6                	mov    %eax,%esi
    415d:	8d 45 e4             	lea    -0x1c(%ebp),%eax
    4160:	6a 00                	push   $0x0
    4162:	6a 00                	push   $0x0
    4164:	50                   	push   %eax
    4165:	8d 45 e0             	lea    -0x20(%ebp),%eax
    4168:	50                   	push   %eax
    4169:	8d 45 dc             	lea    -0x24(%ebp),%eax
    416c:	50                   	push   %eax
    416d:	6a 00                	push   $0x0
    416f:	6a 00                	push   $0x0
    4171:	6a 00                	push   $0x0
    4173:	6a 09                	push   $0x9
    4175:	68 05 04 00 00       	push   $0x405
    417a:	56                   	push   %esi
    417b:	e8 10 1c 00 00       	call   5d90 <async_req_fast@plt>
    4180:	83 c4 24             	add    $0x24,%esp
    4183:	89 45 d4             	mov    %eax,-0x2c(%ebp)
    4186:	56                   	push   %esi
    4187:	e8 34 1c 00 00       	call   5dc0 <async_exchange_end@plt>
    418c:	83 c4 10             	add    $0x10,%esp
    418f:	8b 45 d4             	mov    -0x2c(%ebp),%eax
    4192:	85 ff                	test   %edi,%edi
    4194:	74 05                	je     419b <nic_get_operation_mode+0x5b>
    4196:	8b 55 dc             	mov    -0x24(%ebp),%edx
    4199:	89 17                	mov    %edx,(%edi)
    419b:	8b 55 10             	mov    0x10(%ebp),%edx
    419e:	85 d2                	test   %edx,%edx
    41a0:	74 08                	je     41aa <nic_get_operation_mode+0x6a>
    41a2:	8b 4d 10             	mov    0x10(%ebp),%ecx
    41a5:	8b 55 e0             	mov    -0x20(%ebp),%edx
    41a8:	89 11                	mov    %edx,(%ecx)
    41aa:	85 db                	test   %ebx,%ebx
    41ac:	74 05                	je     41b3 <nic_get_operation_mode+0x73>
    41ae:	8b 55 e4             	mov    -0x1c(%ebp),%edx
    41b1:	89 13                	mov    %edx,(%ebx)
    41b3:	8d 65 f4             	lea    -0xc(%ebp),%esp
    41b6:	5b                   	pop    %ebx
    41b7:	5e                   	pop    %esi
    41b8:	5f                   	pop    %edi
    41b9:	5d                   	pop    %ebp
    41ba:	c3                   	ret    
    41bb:	90                   	nop
    41bc:	8d 74 26 00          	lea    0x0(%esi,%eiz,1),%esi

000041c0 <nic_set_operation_mode>:
    41c0:	55                   	push   %ebp
    41c1:	89 e5                	mov    %esp,%ebp
    41c3:	53                   	push   %ebx
    41c4:	83 ec 20             	sub    $0x20,%esp
    41c7:	8b 45 08             	mov    0x8(%ebp),%eax
    41ca:	50                   	push   %eax
    41cb:	e8 e0 1c 00 00       	call   5eb0 <async_exchange_begin@plt>
    41d0:	83 c4 0c             	add    $0xc,%esp
    41d3:	89 c3                	mov    %eax,%ebx
    41d5:	8b 55 14             	mov    0x14(%ebp),%edx
    41d8:	8b 4d 10             	mov    0x10(%ebp),%ecx
    41db:	8b 45 0c             	mov    0xc(%ebp),%eax
    41de:	6a 00                	push   $0x0
    41e0:	6a 00                	push   $0x0
    41e2:	6a 00                	push   $0x0
    41e4:	6a 00                	push   $0x0
    41e6:	6a 00                	push   $0x0
    41e8:	52                   	push   %edx
    41e9:	51                   	push   %ecx
    41ea:	50                   	push   %eax
    41eb:	6a 0a                	push   $0xa
    41ed:	68 05 04 00 00       	push   $0x405
    41f2:	53                   	push   %ebx
    41f3:	e8 98 1b 00 00       	call   5d90 <async_req_fast@plt>
    41f8:	83 c4 24             	add    $0x24,%esp
    41fb:	89 45 f4             	mov    %eax,-0xc(%ebp)
    41fe:	53                   	push   %ebx
    41ff:	e8 bc 1b 00 00       	call   5dc0 <async_exchange_end@plt>
    4204:	8b 45 f4             	mov    -0xc(%ebp),%eax
    4207:	8b 5d fc             	mov    -0x4(%ebp),%ebx
    420a:	c9                   	leave  
    420b:	c3                   	ret    
    420c:	8d 74 26 00          	lea    0x0(%esi,%eiz,1),%esi

00004210 <nic_autoneg_enable>:
    4210:	55                   	push   %ebp
    4211:	89 e5                	mov    %esp,%ebp
    4213:	53                   	push   %ebx
    4214:	83 ec 20             	sub    $0x20,%esp
    4217:	8b 45 08             	mov    0x8(%ebp),%eax
    421a:	50                   	push   %eax
    421b:	e8 90 1c 00 00       	call   5eb0 <async_exchange_begin@plt>
    4220:	83 c4 0c             	add    $0xc,%esp
    4223:	8b 55 0c             	mov    0xc(%ebp),%edx
    4226:	89 c3                	mov    %eax,%ebx
    4228:	6a 00                	push   $0x0
    422a:	6a 00                	push   $0x0
    422c:	6a 00                	push   $0x0
    422e:	6a 00                	push   $0x0
    4230:	6a 00                	push   $0x0
    4232:	6a 00                	push   $0x0
    4234:	6a 00                	push   $0x0
    4236:	52                   	push   %edx
    4237:	6a 0b                	push   $0xb
    4239:	68 05 04 00 00       	push   $0x405
    423e:	50                   	push   %eax
    423f:	e8 4c 1b 00 00       	call   5d90 <async_req_fast@plt>
    4244:	83 c4 24             	add    $0x24,%esp
    4247:	89 45 f4             	mov    %eax,-0xc(%ebp)
    424a:	53                   	push   %ebx
    424b:	e8 70 1b 00 00       	call   5dc0 <async_exchange_end@plt>
    4250:	8b 45 f4             	mov    -0xc(%ebp),%eax
    4253:	8b 5d fc             	mov    -0x4(%ebp),%ebx
    4256:	c9                   	leave  
    4257:	c3                   	ret    
    4258:	90                   	nop
    4259:	8d b4 26 00 00 00 00 	lea    0x0(%esi,%eiz,1),%esi

00004260 <nic_autoneg_disable>:
    4260:	55                   	push   %ebp
    4261:	89 e5                	mov    %esp,%ebp
    4263:	53                   	push   %ebx
    4264:	83 ec 20             	sub    $0x20,%esp
    4267:	8b 45 08             	mov    0x8(%ebp),%eax
    426a:	50                   	push   %eax
    426b:	e8 40 1c 00 00       	call   5eb0 <async_exchange_begin@plt>
    4270:	83 c4 0c             	add    $0xc,%esp
    4273:	89 c3                	mov    %eax,%ebx
    4275:	6a 00                	push   $0x0
    4277:	6a 00                	push   $0x0
    4279:	6a 00                	push   $0x0
    427b:	6a 00                	push   $0x0
    427d:	6a 00                	push   $0x0
    427f:	6a 00                	push   $0x0
    4281:	6a 00                	push   $0x0
    4283:	6a 00                	push   $0x0
    4285:	6a 0c                	push   $0xc
    4287:	68 05 04 00 00       	push   $0x405
    428c:	50                   	push   %eax
    428d:	e8 fe 1a 00 00       	call   5d90 <async_req_fast@plt>
    4292:	83 c4 24             	add    $0x24,%esp
    4295:	89 45 f4             	mov    %eax,-0xc(%ebp)
    4298:	53                   	push   %ebx
    4299:	e8 22 1b 00 00       	call   5dc0 <async_exchange_end@plt>
    429e:	8b 45 f4             	mov    -0xc(%ebp),%eax
    42a1:	8b 5d fc             	mov    -0x4(%ebp),%ebx
    42a4:	c9                   	leave  
    42a5:	c3                   	ret    
    42a6:	8d 76 00             	lea    0x0(%esi),%esi
    42a9:	8d bc 27 00 00 00 00 	lea    0x0(%edi,%eiz,1),%edi

000042b0 <nic_autoneg_probe>:
    42b0:	55                   	push   %ebp
    42b1:	89 e5                	mov    %esp,%ebp
    42b3:	57                   	push   %edi
    42b4:	56                   	push   %esi
    42b5:	53                   	push   %ebx
    42b6:	83 ec 38             	sub    $0x38,%esp
    42b9:	8b 45 08             	mov    0x8(%ebp),%eax
    42bc:	8b 7d 0c             	mov    0xc(%ebp),%edi
    42bf:	50                   	push   %eax
    42c0:	8b 5d 18             	mov    0x18(%ebp),%ebx
    42c3:	e8 e8 1b 00 00       	call   5eb0 <async_exchange_begin@plt>
    42c8:	83 c4 0c             	add    $0xc,%esp
    42cb:	89 c6                	mov    %eax,%esi
    42cd:	8d 45 e4             	lea    -0x1c(%ebp),%eax
    42d0:	6a 00                	push   $0x0
    42d2:	50                   	push   %eax
    42d3:	8d 45 e0             	lea    -0x20(%ebp),%eax
    42d6:	50                   	push   %eax
    42d7:	8d 45 dc             	lea    -0x24(%ebp),%eax
    42da:	50                   	push   %eax
    42db:	8d 45 d8             	lea    -0x28(%ebp),%eax
    42de:	50                   	push   %eax
    42df:	6a 00                	push   $0x0
    42e1:	6a 00                	push   $0x0
    42e3:	6a 00                	push   $0x0
    42e5:	6a 0d                	push   $0xd
    42e7:	68 05 04 00 00       	push   $0x405
    42ec:	56                   	push   %esi
    42ed:	e8 9e 1a 00 00       	call   5d90 <async_req_fast@plt>
    42f2:	83 c4 24             	add    $0x24,%esp
    42f5:	89 45 d4             	mov    %eax,-0x2c(%ebp)
    42f8:	56                   	push   %esi
    42f9:	e8 c2 1a 00 00       	call   5dc0 <async_exchange_end@plt>
    42fe:	83 c4 10             	add    $0x10,%esp
    4301:	8b 45 d4             	mov    -0x2c(%ebp),%eax
    4304:	85 ff                	test   %edi,%edi
